(dp1
I201601250
V2016-01-26
p2
sI201601220
V2016-01-25
p3
sI201511270
V2015-11-28
p4
sI201512070
V2015-12-05
p5
sI201603180
V2016-03-23
p6
sI201601290
V2016-01-29
p7
sI201602060
V2016-02-06
p8
sI201512110
V2015-12-14
p9
sI201512080
V2015-12-08
p10
sI201512180
V2015-12-18
p11
sI201602190
V2016-02-25
p12
sI201512310
V2016-01-04
p13
sI201601080
V2016-01-08
p14
sI201602260
V2016-02-26
p15
sI201512250
V2015-12-28
p16
sI201603110
V2016-03-14
p17
sI201601150
V2016-01-19
p18
s.