(dp1
I2689
V2015-12-25
p2
sI2820
V2016-03-18
p3
sI2727
V2016-01-21
p4
sI2601
V2015-11-27
p5
sI2546
V2015-11-27
p6
sI2643
V2015-12-11
p7
sI2783
V2016-03-09
p8
sI2749
V2016-01-29
p9
sI2782
V2016-03-04
p10
sI2527
V2015-11-24
p11
s.