(dp1
I480
V2015-11-19
p2
sI420
V2015-04-02
p3
sI4810
V2015-11-14
p4
sI430
V2015-05-09
p5
sI431
V2015-06-02
p6
sI433
V2015-06-26
p7
sI434
V2015-07-06
p8
sI4910
V2016-01-28
p9
sI470
V2015-09-30
p10
sI4900
V2015-12-22
p11
sI4911
V2016-02-02
p12
s.