(dp1
I252607600
V2015-12-03
p2
sI1453090
V2013-05-23
p3
sI2311108
V2015-04-17
p4
sI2311109
V2015-04-21
p5
sI2311111
V2015-04-29
p6
sI1650059
V2013-11-19
p7
sI252608300
V2015-12-09
p8
sI252608301
V2015-12-30
p9
sI249007600
V2015-10-16
p10
sI2171059
V2014-11-13
p11
sI2171093
V2014-12-04
p12
sI2357078
V2015-05-28
p13
sI245409400
V2015-09-18
p14
sI2272092
V2015-03-12
p15
sI2214109
V2015-02-05
p16
sI2272094
V2015-03-17
p17
sI2357093
V2015-06-09
p18
s.