(dp1
I2944
V2015-12-21
p2
sI2945
V2015-12-29
p3
sI2947
V2016-02-16
p4
sI2930
V2015-07-09
p5
sI2931
V2015-07-15
p6
sI2932
V2015-07-17
p7
sI2933
V2015-07-21
p8
sI2934
V2015-07-24
p9
sI2935
V2015-08-11
p10
sI2936
V2015-08-13
p11
sI2937
V2015-08-25
p12
sI2938
V2015-08-27
p13
sI2939
V2015-09-21
p14
sI2941
V2015-10-26
p15
sI2943
V2015-11-24
p16
s.