(dp0
I14
V2010-10-30
p1
sI15
V2010-12-10
p2
sI16
V2011-01-10
p3
sI17
V2011-01-11
p4
sI18
V2011-01-28
p5
sI19
V2011-03-28
p6
sI21
V2011-04-29
p7
sI22
V2011-05-20
p8
sI23
V2011-06-09
p9
sI24
V2011-07-18
p10
sI25
V2011-08-05
p11
sI26
V2011-08-20
p12
sI27
V2011-08-27
p13
sI30
V2011-09-02
p14
sI32
V2011-09-10
p15
sI34
V2011-09-29
p16
sI35
V2011-10-20
p17
sI36
V2011-11-04
p18
sI38
V2011-11-15
p19
sI40
V2011-12-10
p20
sI41
V2012-01-18
p21
sI42
V2012-02-27
p22
sI43
V2012-04-01
p23
sI44
V2012-04-20
p24
sI45
V2012-04-25
p25
sI51
V2012-06-08
p26
sI52
V2012-07-06
p27
sI53
V2012-07-12
p28
sI54
V2012-08-24
p29
sI56
V2012-08-28
p30
sI58
V2012-10-24
p31
sI59
V2012-10-25
p32
sI60
V2012-11-02
p33
sI61
V2012-12-05
p34
sI62
V2012-12-10
p35
sI63
V2013-01-10
p36
sI64
V2013-02-04
p37
sI65
V2013-03-01
p38
sI66
V2013-03-21
p39
sI67
V2013-03-29
p40
sI68
V2013-04-10
p41
sI69
V2013-04-19
p42
sI70
V2013-04-22
p43
sI71
V2013-05-02
p44
sI72
V2013-05-30
p45
sI73
V2013-06-27
p46
sI78
V2013-08-01
p47
sI81
V2013-08-19
p48
sI83
V2013-08-30
p49
sI85
V2013-09-13
p50
sI86
V2013-10-09
p51
sI87
V2013-10-11
p52
sI88
V2013-10-24
p53
sI89
V2013-11-01
p54
sI90
V2013-11-28
p55
sI91
V2014-01-14
p56
sI92
V2014-01-17
p57
sI93
V2014-02-21
p58
sI94
V2014-02-25
p59
sI95
V2014-03-04
p60
sI96
V2014-04-16
p61
sI97
V2014-04-22
p62
sI98
V2014-04-23
p63
sI99
V2014-06-09
p64
sI101
V2014-06-11
p65
sI102
V2014-07-16
p66
sI103
V2014-08-31
p67
sI104
V2014-09-03
p68
sI105
V2014-09-12
p69
sI107
V2014-09-15
p70
sI108
V2014-10-14
p71
sI109
V2014-10-28
p72
sI110
V2014-11-14
p73
sI111
V2014-11-21
p74
sI113
V2014-12-18
p75
sI114
V2015-01-29
p76
sI115
V2015-02-13
p77
sI116
V2015-03-31
p78
sI117
V2015-05-07
p79
sI119
V2015-06-09
p80
sI121
V2015-07-10
p81
sI122
V2015-09-25
p82
sI123
V2015-09-29
p83
sI124
V2015-10-19
p84
sI126
V2015-11-17
p85
sI127
V2015-12-31
p86
sI128
V2016-01-08
p87
sI129
V2016-01-28
p88
sI130
V2016-02-23
p89
s.