(dp1
I40001
V2015-11-18
p2
sI40002
V2015-11-19
p3
sI30403
V2015-05-04
p4
sI30503
V2015-06-17
p5
sI30603
V2015-07-29
p6
sI40204
V2016-01-28
p7
sI40205
V2016-02-03
p8
sI30704
V2015-08-27
p9
sI40209
V2016-02-25
p10
sI30706
V2015-09-09
p11
sI30803
V2015-10-12
p12
sI40103
V2015-12-16
p13
sI30303
V2015-04-13
p14
s.