(dp1
I413873313
V2015-04-16
p2
sI414016819
V2015-06-11
p3
sI414101325
V2015-07-19
p4
sI415452109
V2016-03-21
p5
sI414025843
V2015-06-15
p6
sI414786709
V2015-12-28
p7
sI413377015
V2014-11-13
p8
sI415110973
V2016-02-01
p9
sI415009909
V2016-01-18
p10
s.