(dp1
I135
V2015-10-27
p2
sI136
V2015-11-10
p3
sI146
V2015-12-07
p4
sI196
V2016-02-25
p5
sI156
V2015-12-17
p6
sI166
V2015-12-29
p7
sI176
V2016-01-11
p8
sI52
V2013-11-27
p9
sI53
V2013-11-27
p10
sI61
V2013-11-27
p11
sI62
V2013-11-27
p12
sI63
V2013-11-27
p13
sI64
V2013-11-27
p14
sI65
V2013-11-27
p15
sI66
V2013-11-27
p16
sI67
V2013-11-27
p17
sI68
V2013-11-27
p18
sI70
V2013-11-27
p19
sI71
V2013-11-27
p20
sI72
V2013-11-27
p21
sI73
V2013-11-27
p22
sI74
V2013-11-27
p23
sI75
V2013-11-27
p24
sI76
V2013-11-27
p25
sI77
V2013-11-28
p26
sI78
V2013-12-10
p27
sI80
V2014-01-23
p28
sI81
V2014-02-08
p29
sI82
V2014-02-28
p30
sI83
V2014-03-14
p31
sI84
V2014-03-17
p32
sI85
V2014-04-02
p33
sI86
V2014-04-17
p34
sI87
V2014-05-15
p35
sI88
V2014-05-28
p36
sI89
V2014-06-17
p37
sI90
V2014-07-24
p38
sI91
V2014-08-26
p39
sI92
V2014-09-09
p40
sI93
V2014-10-16
p41
sI96
V2014-11-06
p42
sI97
V2014-12-02
p43
sI98
V2014-12-09
p44
sI99
V2014-12-22
p45
sI100
V2015-01-14
p46
sI110
V2015-02-05
p47
sI111
V2015-02-12
p48
sI112
V2015-03-16
p49
sI113
V2015-04-21
p50
sI114
V2015-05-05
p51
sI115
V2015-05-15
p52
sI116
V2015-06-01
p53
sI117
V2015-06-25
p54
sI118
V2015-07-06
p55
sI120
V2015-08-12
p56
sI121
V2015-08-24
p57
sI123
V2015-09-10
p58
sI124
V2015-09-22
p59
sI125
V2015-10-08
p60
s.