(dp1
I2
V2010-04-20
p2
sI3
V2010-01-26
p3
sI4
V2010-04-24
p4
sI390
V2014-10-27
p5
sI135
V2012-11-20
p6
sI8
V2010-08-13
p7
sI137
V2012-12-19
p8
sI10
V2010-12-31
p9
sI11
V2011-02-23
p10
sI12
V2011-03-04
p11
sI13
V2011-03-30
p12
sI142
V2013-02-01
p13
sI15
V2011-07-13
p14
sI400
V2014-11-11
p15
sI17
V2011-08-12
p16
sI18
V2011-09-20
p17
sI19
V2011-10-12
p18
sI150
V2013-03-01
p19
sI280
V2014-05-09
p20
sI260
V2014-01-26
p21
sI411
V2014-11-27
p22
sI30
V2012-01-06
p23
sI520
V2015-12-22
p24
sI32
V2012-03-27
p25
sI35
V2012-03-29
p26
sI420
V2014-12-29
p27
sI421
V2014-12-30
p28
sI422
V2015-01-01
p29
sI423
V2015-01-08
p30
sI170
V2013-05-10
p31
sI300
V2015-06-04
p32
sI430
V2015-02-11
p33
sI136
V2012-11-30
p34
sI180
V2013-05-20
p35
sI310
V2014-06-16
p36
sI440
V2015-04-07
p37
sI190
V2013-06-08
p38
sI320
V2014-07-21
p39
sI160
V2013-04-11
p40
sI322
V2014-07-29
p41
sI452
V2015-05-12
p42
sI130
V2012-10-11
p43
sI200
V2013-07-15
p44
sI460
V2015-06-16
p45
sI205
V2013-07-18
p46
sI450
V2015-05-11
p47
sI210
V2013-09-12
p48
sI340
V2014-08-18
p49
sI270
V2014-04-01
p50
sI470
V2015-07-27
p51
sI472
V2015-07-30
p52
sI510
V2015-12-03
p53
sI346
V2014-09-01
p54
sI220
V2013-10-30
p55
sI250
V2013-12-23
p56
sI480
V2015-08-18
p57
sI99
V2012-05-31
p58
sI100
V2012-06-01
p59
sI101
V2012-06-12
p60
sI360
V2014-09-09
p61
sI490
V2015-09-21
p62
sI530
V2016-01-27
p63
sI111
V2012-07-02
p64
sI240
V2013-12-03
p65
sI500
V2015-10-23
p66
sI131
V2012-10-12
p67
sI251
V2013-12-30
p68
sI121
V2012-07-25
p69
sI122
V2012-09-03
p70
sI123
V2012-09-10
p71
sI252
V2014-01-02
p72
sI381
V2014-10-10
p73
sI382
V2014-10-16
p74
s.