(dp1
I4437
V2015-11-18
p2
sI4599
V2015-12-17
p3
sI2440
V2014-11-27
p4
sI4055
V2015-08-05
p5
sI2572
V2014-12-18
p6
sI1805
V2014-03-31
p7
sI2702
V2015-02-17
p8
sI1296
V2013-07-17
p9
sI2321
V2014-10-22
p10
sI4114
V2015-09-10
p11
sI4446
V2015-11-21
p12
sI4630
V2015-12-30
p13
sI2456
V2014-12-06
p14
sI2330
V2014-10-24
p15
sI3142
V2015-04-10
p16
sI2077
V2014-08-02
p17
sI1952
V2014-06-05
p18
sI2758
V2015-03-19
p19
sI3107
V2015-04-07
p20
sI1222
V2013-04-16
p21
sI2087
V2014-08-19
p22
sI4136
V2015-09-11
p23
sI4649
V2016-01-21
p24
sI4110
V2015-09-06
p25
sI2349
V2014-10-30
p26
sI2094
V2014-08-21
p27
sI3631
V2015-06-12
p28
sI4784
V2016-02-23
p29
sI2100
V2014-09-01
p30
sI2741
V2015-03-02
p31
sI2358
V2014-11-03
p32
sI1336
V2013-08-19
p33
sI1339
V2013-10-12
p34
sI4789
V2016-02-25
p35
sI2754
V2015-03-17
p36
sI4939
V2016-03-17
p37
sI1604
V2013-12-25
p38
sI1990
V2014-06-16
p39
sI1991
V2014-06-16
p40
sI3784
V2015-07-13
p41
sI4041
V2015-07-30
p42
sI2763
V2015-03-24
p43
sI2129
V2014-09-10
p44
sI3538
V2015-05-13
p45
sI2659
V2015-01-29
p46
sI1237
V2013-05-15
p47
sI3583
V2015-05-22
p48
sI4606
V2015-12-22
p49
sI3164
V2015-04-23
p50
sI3549
V2015-05-15
p51
sI4318
V2015-10-20
p52
sI4447
V2015-11-24
p53
sI1507
V2013-10-25
p54
sI2641
V2015-01-20
p55
sI1513
V2013-11-12
p56
sI3562
V2015-05-20
p57
sI4647
V2016-01-13
p58
sI4317
V2015-10-09
p59
sI4435
V2015-11-22
p60
sI2421
V2014-11-20
p61
sI2665
V2015-01-30
p62
sI3778
V2015-07-10
p63
sI1531
V2013-11-20
p64
sI4799
V2016-02-26
p65
sI2558
V2014-12-13
p66
sI2005
V2014-06-24
p67
s.