(dp1
I60400000
V2015-04-22
p2
sI60600000
V2015-07-17
p3
sI70100002
V2015-10-22
p4
sI60500000
V2015-05-28
p5
sI60501000
V2015-06-26
p6
sI60601000
V2015-07-31
p7
sI70300000
V2016-01-28
p8
sI70301000
V2016-02-02
p9
sI60302000
V2015-03-12
p10
sI60401000
V2015-04-23
p11
sI70000000
V2015-09-11
p12
sI70105000
V2015-10-31
p13
sI70101000
V2015-10-26
p14
sI70200000
V2015-12-19
p15
s.