(dp1
I1007
V2015-07-21
p2
sI1008
V2015-09-13
p3
sI1009
V2015-09-24
p4
sI1010
V2015-09-24
p5
sI1011
V2015-09-24
p6
sI1012
V2015-09-25
p7
sI1015
V2015-10-29
p8
sI1017
V2015-11-17
p9
sI1018
V2016-01-19
p10
sI1019
V2016-01-20
p11
sI1020
V2016-03-10
p12
sI1021
V2016-03-12
p13
s.