(dp1
I51110048
V2015-11-30
p2
sI51170468
V2016-03-14
p3
sI51110053
V2015-12-02
p4
sI51070056
V2015-09-23
p5
sI51120074
V2015-12-17
p6
sI51120082
V2015-12-23
p7
sI51050066
V2015-09-09
p8
sI51150902
V2016-01-21
p9
sI51180537
V2016-03-25
p10
sI51080060
V2015-10-20
p11
sI51170469
V2016-03-16
p12
s.