(dp1
I1
V2011-10-26
p2
sI2
V2011-11-25
p3
sI3
V2011-12-31
p4
sI5
V2012-04-16
p5
sI6
V2012-10-11
p6
sI7
V2012-10-29
p7
sI8
V2012-12-06
p8
sI9
V2013-01-11
p9
sI11
V2013-03-05
p10
sI12
V2013-04-23
p11
sI13
V2013-05-15
p12
sI14
V2013-05-23
p13
sI15
V2013-06-20
p14
sI16
V2013-07-10
p15
sI18
V2013-09-24
p16
sI20
V2013-11-19
p17
sI23
V2014-03-21
p18
sI31
V2014-11-13
p19
s.