(dp1
I6006
V2016-01-29
p2
sI6007
V2016-03-04
p3
sI6001
V2015-11-23
p4
sI6002
V2015-12-04
p5
sI6003
V2015-12-17
p6
sI6004
V2015-12-31
p7
sI6005
V2016-01-15
p8
sI5238
V2015-09-25
p9
sI5239
V2015-10-26
p10
sI6008
V2016-03-25
p11
s.