(dp1
I160000
V2015-01-11
p2
sI7
V2012-10-15
p3
sI8
V2013-01-14
p4
sI9
V2013-04-22
p5
sI10
V2013-07-29
p6
sI11
V2013-10-20
p7
sI170000
V2015-04-12
p8
sI110002
V2013-10-23
p9
sI131000
V2014-05-18
p10
sI131001
V2014-06-09
p11
sI120000
V2014-01-13
p12
sI120001
V2014-01-13
p13
sI120002
V2014-01-16
p14
sI120003
V2014-02-23
p15
sI141000
V2014-08-18
p16
sI141001
V2014-08-29
p17
sI130000
V2014-04-20
p18
sI130001
V2014-04-21
p19
sI130002
V2014-04-29
p20
sI151000
V2014-11-16
p21
sI151001
V2014-12-16
p22
sI151002
V2014-12-28
p23
sI140000
V2014-07-13
p24
sI140001
V2014-07-14
p25
sI300003
V2015-11-08
p26
sI300004
V2015-11-15
p27
sI300005
V2015-12-15
p28
sI300006
V2016-01-12
p29
sI300007
V2016-03-20
p30
sI161000
V2015-02-08
p31
sI161001
V2015-03-05
p32
s.