(dp1
I4
V2011-10-26
p2
sI5
V2011-11-11
p3
sI7
V2011-12-23
p4
sI8
V2011-12-31
p5
sI11
V2012-01-12
p6
sI12
V2012-02-03
p7
sI13
V2012-03-21
p8
sI14
V2012-03-30
p9
sI15
V2012-04-23
p10
sI17
V2012-05-11
p11
sI18
V2012-05-29
p12
sI19
V2012-07-03
p13
sI20
V2012-07-10
p14
sI21
V2012-07-27
p15
sI22
V2012-08-13
p16
sI23
V2012-08-24
p17
sI24
V2012-08-29
p18
sI25
V2012-09-06
p19
sI26
V2012-09-14
p20
sI27
V2012-09-20
p21
sI28
V2012-09-27
p22
sI29
V2012-10-18
p23
sI30
V2012-10-25
p24
sI31
V2012-11-01
p25
sI32
V2012-11-16
p26
sI33
V2012-12-07
p27
sI34
V2012-12-21
p28
sI35
V2012-12-28
p29
sI36
V2013-01-06
p30
sI37
V2013-01-18
p31
sI38
V2013-01-22
p32
sI39
V2013-01-29
p33
sI40
V2013-02-19
p34
sI41
V2013-02-22
p35
sI42
V2013-03-04
p36
sI43
V2013-03-08
p37
sI44
V2013-03-15
p38
sI45
V2013-03-25
p39
sI47
V2013-04-03
p40
sI67
V2013-09-18
p41
sI68
V2013-09-22
p42
sI69
V2013-09-29
p43
sI70
V2013-10-09
p44
sI72
V2013-10-15
p45
sI73
V2013-10-21
p46
sI74
V2013-10-25
p47
sI75
V2013-11-04
p48
sI76
V2013-11-11
p49
sI77
V2013-11-27
p50
sI78
V2013-12-03
p51
sI79
V2013-12-12
p52
sI80
V2013-12-18
p53
sI81
V2013-12-20
p54
sI82
V2013-12-27
p55
sI83
V2014-01-03
p56
sI85
V2014-01-24
p57
sI86
V2014-03-03
p58
sI87
V2014-03-17
p59
sI88
V2014-04-03
p60
sI89
V2014-04-30
p61
sI90
V2014-05-16
p62
sI91
V2014-06-03
p63
sI92
V2014-06-16
p64
sI93
V2014-06-27
p65
sI94
V2014-07-11
p66
sI95
V2014-07-25
p67
sI96
V2014-08-01
p68
sI97
V2014-08-15
p69
sI98
V2014-09-01
p70
sI99
V2014-09-05
p71
sI100
V2014-09-19
p72
sI101
V2014-10-27
p73
sI102
V2014-11-11
p74
sI103
V2014-11-29
p75
sI104
V2014-12-05
p76
sI105
V2014-12-12
p77
sI106
V2014-12-18
p78
sI107
V2014-12-30
p79
sI108
V2015-01-12
p80
sI109
V2015-01-15
p81
sI110
V2015-01-23
p82
sI111
V2015-01-26
p83
sI113
V2015-02-05
p84
sI114
V2015-02-11
p85
sI115
V2015-03-11
p86
sI116
V2015-03-18
p87
sI117
V2015-03-24
p88
sI153
V2015-03-27
p89
sI155
V2015-04-15
p90
sI156
V2015-04-21
p91
sI157
V2015-04-29
p92
sI158
V2015-05-07
p93
sI159
V2015-05-19
p94
sI160
V2015-06-02
p95
sI161
V2015-06-12
p96
sI162
V2015-06-25
p97
sI163
V2015-07-10
p98
sI164
V2015-07-28
p99
sI165
V2015-08-07
p100
sI166
V2015-08-13
p101
sI167
V2015-09-24
p102
sI168
V2015-10-26
p103
sI169
V2015-11-05
p104
sI170
V2015-11-27
p105
sI171
V2015-12-11
p106
sI172
V2015-12-25
p107
s.