(dp1
I39
V2014-08-13
p2
sI41
V2014-08-18
p3
sI42
V2014-08-20
p4
sI43
V2014-08-26
p5
sI44
V2014-10-16
p6
sI45
V2014-10-24
p7
sI46
V2014-11-28
p8
sI47
V2014-12-01
p9
sI48
V2014-12-09
p10
sI49
V2015-01-13
p11
sI50
V2015-01-14
p12
sI51
V2015-03-06
p13
sI53
V2015-03-24
p14
sI54
V2015-04-27
p15
sI56
V2015-07-27
p16
sI57
V2015-11-10
p17
sI58
V2015-12-07
p18
s.