(dp1
I640
V2013-10-31
p2
sI1025
V2014-04-03
p3
sI1026
V2014-04-16
p4
sI2052
V2015-07-18
p5
sI2198
V2016-03-10
p6
sI2182
V2016-02-25
p7
sI1153
V2014-05-30
p8
sI2056
V2015-07-22
p9
sI2057
V2015-07-23
p10
sI650
V2013-11-11
p11
sI1751
V2015-01-30
p12
sI1805
V2015-04-03
p13
sI2183
V2016-02-27
p14
sI1083
V2014-04-26
p15
sI1171
V2014-06-10
p16
sI735
V2013-12-19
p17
sI698
V2013-11-29
p18
sI2070
V2015-09-16
p19
sI2199
V2016-03-10
p20
sI1177
V2014-06-11
p21
sI795
V2014-01-06
p22
sI1564
V2014-12-20
p23
sI896
V2014-01-26
p24
sI1316
V2014-07-24
p25
sI2086
V2015-09-30
p26
sI935
V2014-02-13
p27
sI3070
V2016-03-24
p28
sI811
V2014-01-07
p29
sI2092
V2015-10-13
p30
sI1329
V2014-08-01
p31
sI1076
V2014-04-24
p32
sI695
V2013-11-27
p33
sI1464
V2014-09-30
p34
sI1762
V2015-02-04
p35
sI1210
V2014-06-19
p36
sI2107
V2015-11-17
p37
sI2110
V2015-11-20
p38
sI2165
V2016-01-28
p39
sI2018
V2015-05-18
p40
sI1920
V2015-04-30
p41
sI1220
V2014-06-24
p42
sI1477
V2014-10-24
p43
sI1570
V2014-12-26
p44
sI1487
V2014-11-10
p45
sI1379
V2014-08-28
p46
sI1364
V2014-08-12
p47
sI2134
V2015-12-23
p48
sI599
V2013-09-18
p49
sI1850
V2015-04-17
p50
sI2021
V2015-05-20
p51
sI1761
V2015-02-02
p52
sI1378
V2014-08-21
p53
sI611
V2013-10-11
p54
sI870
V2014-01-22
p55
sI2022
V2015-05-23
p56
sI2065
V2015-09-12
p57
sI1447
V2014-09-26
p58
sI1012
V2014-03-30
p59
sI1781
V2015-02-13
p60
sI2168
V2016-02-02
p61
sI1914
V2015-04-28
p62
sI1790
V2015-02-28
p63
s.