(dp1
I1543
V2013-11-29
p2
sI2568
V2014-12-22
p3
sI1803
V2014-04-03
p4
sI2704
V2015-02-24
p5
sI2077
V2014-08-11
p6
sI1952
V2014-06-06
p7
sI1186
V2013-03-12
p8
sI4657
V2016-01-29
p9
sI3114
V2015-04-03
p10
sI3627
V2015-06-02
p11
sI816
V2012-04-12
p12
sI305
V2011-02-24
p13
sI2741
V2015-03-02
p14
sI1336
V2013-08-27
p15
sI4799
V2016-03-01
p16
sI3137
V2015-04-09
p17
sI2754
V2015-03-18
p18
sI3779
V2015-07-10
p19
sI1607
V2013-12-27
p20
sI4041
V2015-07-30
p21
sI2129
V2014-10-11
p22
sI4436
V2015-11-24
p23
sI2005
V2014-06-24
p24
sI4057
V2015-08-03
p25
sI730
V2011-12-16
p26
sI4317
V2015-10-10
p27
sI351
V2011-06-27
p28
sI4624
V2015-12-25
p29
sI1513
V2013-11-06
p30
sI3562
V2015-05-20
p31
sI3179
V2015-04-27
p32
sI364
V2011-07-05
p33
sI1010
V2013-01-04
p34
sI1531
V2013-11-19
p35
sI1276
V2013-06-20
p36
s.