(dp0
I23
V2012-05-25
p1
sI24
V2012-06-18
p2
sI26
V2012-07-27
p3
sI27
V2012-09-10
p4
sI28
V2012-10-16
p5
sI29
V2012-12-03
p6
sI31
V2013-01-17
p7
sI33
V2013-03-20
p8
sI34
V2013-04-07
p9
sI37
V2013-06-04
p10
sI38
V2013-07-01
p11
sI39
V2013-07-24
p12
sI40
V2013-08-19
p13
sI41
V2013-09-17
p14
sI42
V2013-09-29
p15
sI43
V2013-10-29
p16
sI44
V2013-12-02
p17
sI45
V2013-12-04
p18
sI46
V2013-12-06
p19
sI47
V2014-01-10
p20
sI48
V2014-01-24
p21
sI49
V2014-03-04
p22
sI50
V2014-03-21
p23
sI51
V2014-04-30
p24
sI52
V2014-06-04
p25
sI60
V2014-08-18
p26
sI61
V2014-09-17
p27
sI65
V2014-09-26
p28
sI67
V2014-11-14
p29
sI68
V2014-11-17
p30
sI70
V2014-12-08
p31
sI73
V2015-02-16
p32
sI76
V2015-04-05
p33
sI77
V2015-07-09
p34
sI78
V2015-08-01
p35
sI79
V2015-09-25
p36
sI81
V2015-10-01
p37
sI82
V2015-10-15
p38
sI83
V2015-11-06
p39
sI84
V2015-11-18
p40
sI85
V2015-11-18
p41
sI86
V2015-11-20
p42
sI87
V2015-12-04
p43
sI88
V2015-12-04
p44
sI89
V2015-12-25
p45
sI90
V2016-01-15
p46
s.