(dp1
I35
V2009-11-24
p2
sI45
V2010-03-03
p3
sI46
V2010-03-08
p4
sI63
V2010-11-22
p5
sI71
V2011-01-29
p6
sI72
V2011-03-17
p7
sI79
V2011-07-13
p8
sI80
V2011-07-19
p9
sI82
V2011-08-22
p10
sI83
V2011-09-13
p11
sI84
V2011-09-19
p12
sI85
V2011-09-30
p13
sI86
V2011-11-21
p14
sI88
V2011-12-19
p15
sI89
V2012-02-13
p16
sI90
V2012-03-02
p17
sI91
V2012-03-22
p18
sI93
V2012-05-14
p19
sI94
V2012-05-21
p20
sI95
V2012-07-17
p21
sI96
V2012-08-06
p22
sI97
V2012-08-29
p23
sI98
V2012-09-05
p24
sI99
V2012-09-26
p25
sI100
V2012-10-31
p26
sI101
V2012-12-05
p27
sI102
V2012-12-21
p28
sI103
V2013-01-21
p29
sI112
V2013-04-18
p30
sI113
V2013-04-26
p31
sI114
V2013-05-03
p32
sI115
V2013-05-10
p33
sI116
V2013-05-31
p34
sI117
V2013-07-11
p35
sI118
V2013-07-18
p36
sI119
V2013-08-16
p37
sI120
V2013-08-30
p38
sI122
V2013-09-29
p39
sI123
V2013-11-06
p40
sI124
V2013-12-05
p41
sI125
V2013-12-19
p42
sI126
V2014-01-03
p43
sI127
V2014-01-10
p44
sI128
V2014-01-28
p45
sI129
V2014-01-29
p46
sI130
V2014-02-18
p47
sI131
V2014-02-27
p48
sI201
V2014-03-21
p49
sI202
V2014-04-18
p50
sI203
V2014-04-29
p51
sI204
V2014-05-21
p52
sI205
V2014-05-30
p53
sI206
V2014-05-30
p54
sI207
V2014-06-04
p55
sI208
V2014-06-04
p56
sI209
V2014-06-06
p57
sI210
V2014-06-13
p58
sI211
V2014-06-15
p59
sI212
V2014-06-19
p60
sI213
V2014-08-06
p61
sI214
V2014-08-07
p62
sI215
V2014-09-04
p63
sI216
V2014-09-24
p64
sI217
V2014-09-29
p65
sI218
V2014-09-30
p66
sI219
V2014-10-29
p67
sI220
V2014-11-18
p68
sI221
V2014-12-01
p69
sI222
V2014-12-30
p70
sI223
V2015-01-04
p71
sI224
V2015-04-17
p72
sI225
V2015-04-28
p73
sI226
V2015-05-20
p74
sI227
V2015-05-25
p75
sI228
V2015-07-08
p76
sI229
V2015-07-11
p77
sI230
V2015-08-12
p78
sI232
V2015-09-01
p79
sI233
V2015-09-08
p80
sI234
V2015-09-15
p81
sI236
V2015-09-24
p82
sI237
V2015-09-27
p83
sI238
V2015-11-02
p84
sI239
V2015-12-03
p85
sI240
V2015-11-11
p86
sI241
V2015-11-06
p87
sI242
V2015-11-07
p88
sI243
V2015-11-13
p89
sI244
V2015-11-21
p90
sI246
V2015-11-23
p91
sI247
V2015-12-02
p92
sI248
V2015-12-12
p93
sI249
V2015-12-18
p94
sI250
V2015-12-25
p95
sI500
V2015-12-28
p96
sI501
V2015-12-30
p97
sI503
V2016-02-02
p98
sI504
V2016-02-03
p99
sI506
V2016-02-12
p100
sI507
V2016-02-26
p101
sI508
V2016-03-15
p102
s.