(dp1
I5120
V2015-01-08
p2
sI5200
V2015-05-16
p3
sI4300
V2014-06-20
p4
sI5101
V2015-01-04
p5
sI4400
V2014-08-06
p6
sI5201
V2015-05-20
p7
sI5202
V2015-05-22
p8
sI4500
V2014-08-26
p9
sI5301
V2015-07-24
p10
sI5400
V2015-09-21
p11
sI5300
V2015-07-22
p12
sI5500
V2016-01-14
p13
sI5150
V2015-04-23
p14
s.