(dp1
I128
V2016-01-25
p2
sI1
V2011-06-16
p3
sI3
V2011-09-08
p4
sI4
V2011-10-27
p5
sI5
V2011-11-01
p6
sI6
V2012-02-16
p7
sI7
V2012-03-19
p8
sI8
V2012-04-20
p9
sI10
V2012-06-15
p10
sI11
V2012-06-25
p11
sI12
V2012-07-27
p12
sI13
V2012-08-06
p13
sI14
V2012-09-03
p14
sI15
V2012-09-26
p15
sI16
V2012-09-28
p16
sI17
V2012-12-04
p17
sI18
V2012-12-10
p18
sI19
V2013-01-30
p19
sI20
V2013-02-06
p20
sI21
V2013-03-12
p21
sI22
V2013-03-27
p22
sI23
V2013-05-28
p23
sI24
V2013-07-02
p24
sI25
V2013-07-09
p25
sI26
V2013-08-19
p26
sI27
V2013-08-29
p27
sI28
V2013-09-04
p28
sI29
V2013-09-11
p29
sI30
V2013-11-05
p30
sI31
V2013-12-17
p31
sI32
V2013-12-27
p32
sI33
V2014-01-22
p33
sI35
V2014-03-21
p34
sI36
V2014-04-15
p35
sI40
V2014-06-23
p36
sI41
V2014-07-28
p37
sI46
V2014-08-26
p38
sI49
V2014-09-29
p39
sI54
V2014-11-05
p40
sI58
V2014-12-29
p41
sI64
V2015-02-05
p42
sI65
V2015-02-12
p43
sI71
V2015-05-04
p44
sI72
V2015-06-01
p45
sI82
V2015-07-09
p46
sI86
V2015-08-05
p47
sI89
V2015-08-24
p48
sI106
V2015-10-19
p49
sI108
V2015-10-30
p50
sI110
V2015-11-05
p51
sI115
V2015-11-24
p52
sI122
V2015-12-20
p53
s.