(dp1
I71
V2014-11-07
p2
sI72
V2014-11-16
p3
sI74
V2014-12-02
p4
sI75
V2014-12-29
p5
sI78
V2015-01-09
p6
sI79
V2015-02-02
p7
sI80
V2015-02-15
p8
sI81
V2015-02-17
p9
sI83
V2015-07-13
p10
sI84
V2015-07-21
p11
sI85
V2015-08-03
p12
sI86
V2015-08-18
p13
sI87
V2015-08-29
p14
sI88
V2015-09-11
p15
sI89
V2015-09-12
p16
sI90
V2015-09-30
p17
sI91
V2015-10-17
p18
sI92
V2015-10-19
p19
sI93
V2015-11-12
p20
sI94
V2015-11-15
p21
sI95
V2016-01-07
p22
sI96
V2016-01-21
p23
sI97
V2016-02-03
p24
sI98
V2016-03-01
p25
s.