(dp1
I1
V2011-10-17
p2
sI3
V2011-12-06
p3
sI5
V2011-12-30
p4
sI6
V2012-01-06
p5
sI7
V2012-02-21
p6
sI8
V2012-02-27
p7
sI9
V2012-03-16
p8
sI11
V2012-03-29
p9
sI12
V2012-04-06
p10
sI13
V2012-04-27
p11
sI16
V2012-05-23
p12
sI17
V2012-06-12
p13
sI18
V2012-06-25
p14
sI19
V2012-07-17
p15
sI20
V2012-08-22
p16
sI23
V2012-09-11
p17
sI24
V2012-09-26
p18
sI27
V2012-10-29
p19
sI90
V2014-01-06
p20
sI30
V2012-12-04
p21
sI31
V2013-02-28
p22
sI32
V2013-03-11
p23
sI33
V2013-03-18
p24
sI91
V2014-01-20
p25
sI36
V2013-04-15
p26
sI37
V2013-04-16
p27
sI38
V2013-04-23
p28
sI39
V2013-05-09
p29
sI40
V2013-05-22
p30
sI604
V2015-10-30
p31
sI50
V2013-06-09
p32
sI51
V2013-06-26
p33
sI60
V2013-07-25
p34
sI63
V2013-07-31
p35
sI64
V2013-08-16
p36
sI71
V2013-09-13
p37
sI73
V2013-09-30
p38
sI74
V2013-11-01
p39
sI80
V2013-11-18
p40
sI81
V2013-11-25
p41
sI82
V2013-12-06
p42
sI600
V2015-08-20
p43
sI601
V2015-09-09
p44
sI602
V2015-09-17
p45
sI603
V2015-10-22
p46
sI92
V2014-02-08
p47
sI605
V2015-11-20
p48
sI606
V2015-12-12
p49
sI607
V2015-12-21
p50
sI608
V2015-12-31
p51
sI609
V2016-01-29
p52
sI610
V2016-02-15
p53
sI100
V2014-02-25
p54
sI101
V2014-03-05
p55
sI102
V2014-03-17
p56
sI103
V2014-03-25
p57
sI110
V2014-04-24
p58
sI111
V2014-04-30
p59
sI115
V2014-05-14
p60
sI116
V2014-05-19
p61
sI120
V2014-05-28
p62
sI122
V2014-06-23
p63
sI123
V2014-06-27
p64
sI125
V2014-08-01
p65
sI130
V2014-09-18
p66
sI135
V2014-09-28
p67
sI138
V2014-10-13
p68
sI140
V2014-11-06
p69
sI141
V2014-11-18
p70
sI150
V2014-12-08
p71
sI151
V2014-12-17
p72
sI155
V2015-01-06
p73
sI156
V2015-01-20
p74
sI157
V2015-02-04
p75
sI160
V2015-02-11
p76
sI161
V2015-03-12
p77
sI162
V2015-03-30
p78
sI163
V2015-04-02
p79
sI165
V2015-04-28
p80
sI166
V2015-05-14
p81
sI167
V2015-05-16
p82
sI168
V2015-06-09
p83
sI169
V2015-06-15
p84
sI170
V2015-06-16
p85
sI171
V2015-07-01
p86
sI172
V2015-07-02
p87
sI173
V2015-07-20
p88
sI174
V2015-08-04
p89
sI175
V2015-08-05
p90
s.