(dp0
I256
V2013-05-09
p1
sI257
V2013-05-10
p2
sI258
V2013-05-23
p3
sI259
V2013-05-24
p4
sI261
V2013-05-27
p5
sI134
V2012-01-20
p6
sI7
V2011-01-28
p7
sI520
V2015-01-07
p8
sI138
V2012-05-10
p9
sI139
V2012-05-11
p10
sI600
V2015-08-01
p11
sI660
V2015-11-10
p12
sI622
V2015-09-29
p13
sI24
V2011-05-20
p14
sI380
V2014-01-26
p15
sI640
V2015-10-21
p16
sI540
V2015-01-22
p17
sI541
V2015-02-04
p18
sI542
V2015-02-11
p19
sI543
V2015-03-26
p20
sI161
V2012-05-16
p21
sI420
V2014-05-20
p22
sI38
V2011-07-08
p23
sI167
V2012-05-25
p24
sI680
V2015-12-10
p25
sI169
V2012-06-01
p26
sI480
V2014-08-28
p27
sI135
V2012-06-01
p28
sI561
V2015-06-01
p29
sI50
V2011-08-17
p30
sI54
V2011-08-31
p31
sI440
V2014-05-26
p32
sI700
V2016-01-14
p33
sI191
V2012-08-22
p34
sI192
V2012-09-06
p35
sI352
V2013-09-18
p36
sI580
V2015-06-29
p37
sI581
V2015-07-03
p38
sI75
V2011-10-21
p39
sI460
V2014-06-28
p40
sI77
V2011-10-28
p41
sI462
V2014-07-17
p42
sI461
V2014-06-28
p43
sI720
V2016-01-28
p44
sI84
V2011-11-18
p45
sI85
V2011-11-29
p46
sI215
V2012-11-09
p47
sI216
V2012-11-21
p48
sI601
V2015-08-18
p49
sI218
V2012-11-23
p50
sI219
V2012-11-30
p51
sI350
V2013-08-09
p52
sI351
V2013-09-06
p53
sI224
V2013-01-05
p54
sI225
V2013-01-05
p55
sI354
V2013-11-04
p56
sI355
V2013-11-12
p57
sI740
V2016-02-03
p58
sI104
V2011-12-14
p59
sI361
V2014-01-17
p60
sI107
V2011-12-21
p61
sI620
V2015-08-29
p62
sI621
V2015-09-01
p63
sI110
V2012-01-04
p64
sI360
V2013-12-24
p65
sI501
V2014-10-20
p66
sI212
V2012-11-02
p67
sI251
V2013-02-06
p68
sI252
V2013-02-06
p69
sI253
V2013-02-07
p70
sI254
V2013-03-22
p71
sI255
V2013-04-15
p72
s.