(dp1
I420
V2014-09-29
p2
sI421
V2014-11-13
p3
sI422
V2014-12-11
p4
sI430
V2015-01-24
p5
sI402
V2014-07-17
p6
sI403
V2014-08-12
p7
sI503
V2015-09-08
p8
sI505
V2015-10-21
p9
sI410
V2014-09-05
p10
sI506
V2015-12-28
p11
s.