(dp1
I18015488
V2015-11-25
p2
sI15411330
V2015-09-30
p3
sI24782473
V2016-03-12
p4
sI18971786
V2015-12-15
p5
sI20315790
V2016-01-17
p6
sI23966353
V2016-03-03
p7
sI19599763
V2015-12-31
p8
sI25391150
V2016-03-18
p9
sI23966367
V2016-03-07
p10
sI16328224
V2015-10-29
p11
sI18750759
V2015-12-11
p12
sI15237801
V2015-09-24
p13
sI25391149
V2016-03-17
p14
sI16918830
V2015-11-02
p15
sI17365551
V2015-11-11
p16
sI19096498
V2015-12-18
p17
sI17678388
V2015-11-18
p18
sI23262261
V2016-02-23
p19
sI24782430
V2016-03-10
p20
sI19174327
V2015-12-21
p21
sI17046585
V2015-11-04
p22
sI17596732
V2015-11-16
p23
sI19392060
V2015-12-27
p24
sI18504480
V2015-12-08
p25
sI16710596
V2015-10-28
p26
sI22835015
V2016-02-19
p27
sI15693258
V2015-10-08
p28
sI20805967
V2016-01-27
p29
sI16710608
V2016-03-10
p30
sI22597075
V2016-02-17
p31
sI23966433
V2016-03-10
p32
sI18405467
V2015-12-08
p33
sI20569053
V2016-01-22
p34
sI19340254
V2015-12-25
p35
sI21387344
V2016-02-03
p36
sI22244966
V2016-02-15
p37
sI18881126
V2015-12-14
p38
sI17467239
V2015-11-13
p39
sI19288808
V2015-12-22
p40
sI17406569
V2015-11-11
p41
sI18075244
V2015-11-27
p42
sI19955438
V2016-01-11
p43
sI25862463
V2016-03-25
p44
sI23034356
V2016-02-22
p45
sI18806775
V2015-12-11
p46
sI14956025
V2015-09-16
p47
sI15186042
V2015-09-23
p48
sI21778683
V2016-02-12
p49
s.