(dp1
I256
V2015-06-09
p2
sI258
V2015-06-15
p3
sI260
V2015-06-18
p4
sI134
V2014-06-18
p5
sI264
V2015-08-06
p6
sI270
V2015-09-09
p7
sI272
V2015-09-25
p8
sI146
V2014-08-07
p9
sI302
V2015-11-30
p10
sI156
V2014-09-12
p11
sI158
V2014-09-24
p12
sI160
V2014-10-20
p13
sI300
V2015-11-25
p14
sI174
V2014-11-12
p15
sI182
V2014-11-13
p16
sI183
V2014-12-01
p17
sI312
V2015-12-09
p18
sI320
V2015-12-28
p19
sI288
V2015-11-02
p20
sI194
V2014-12-11
p21
sI196
V2014-12-17
p22
sI204
V2015-01-16
p23
sI334
V2016-01-23
p24
sI82
V2013-10-30
p25
sI216
V2015-01-27
p26
sI90
V2014-01-13
p27
sI220
V2015-03-09
p28
sI228
V2015-04-02
p29
sI104
V2014-01-22
p30
sI236
V2015-04-13
p31
sI110
V2014-03-21
p32
sI242
V2015-05-12
p33
sI244
V2015-05-18
p34
sI122
V2014-04-28
p35
s.