(dp1
I3202
V2014-05-21
p2
sI3203
V2014-05-27
p3
sI3013
V2014-03-12
p4
sI3413
V2014-09-24
p5
sI3304
V2014-07-11
p6
sI3305
V2014-07-16
p7
sI3402
V2014-08-19
p8
sI3211
V2014-06-13
p9
sI3212
V2014-06-17
p10
sI3410
V2014-09-03
p11
sI3214
V2014-07-03
p12
sI2511
V2013-12-13
p13
sI2610
V2014-01-22
p14
sI3412
V2014-09-10
p15
sI3310
V2014-07-27
p16
sI3414
V2014-10-13
p17
sI3420
V2014-11-28
p18
sI3215
V2014-07-08
p19
sI2620
V2014-01-22
p20
sI3430
V2014-12-19
p21
sI3103
V2014-04-08
p22
s.