(dp1
I42198
V2016-01-28
p2
sI42262
V2016-02-02
p3
sI41221
V2016-01-05
p4
sI36331
V2015-04-14
p5
sI37132
V2015-05-27
p6
sI39757
V2015-10-29
p7
sI37725
V2015-06-26
p8
sI38833
V2015-09-06
p9
sI36595
V2015-04-27
p10
sI39254
V2015-09-23
p11
sI37239
V2015-06-01
p12
sI40431
V2015-12-02
p13
sI37277
V2015-06-02
p14
sI37310
V2015-06-04
p15
s.