(dp1
I640
V2015-06-02
p2
sI130
V2012-03-31
p3
sI517
V2014-04-23
p4
sI646
V2015-06-26
p5
sI650
V2015-07-02
p6
sI523
V2014-05-16
p7
sI386
V2013-04-24
p8
sI714
V2016-01-11
p9
sI143
V2012-04-26
p10
sI546
V2014-08-28
p11
sI405
V2013-06-05
p12
sI534
V2014-05-27
p13
sI537
V2014-08-28
p14
sI719
V2016-01-26
p15
sI559
V2014-08-28
p16
sI669
V2015-09-01
p17
sI581
V2014-09-26
p18
sI688
V2015-09-24
p19
sI162
V2012-06-15
p20
sI419
V2013-07-03
p21
sI550
V2014-08-28
p22
sI39
V2011-04-01
p23
sI583
V2014-09-26
p24
sI173
V2012-07-30
p25
sI46
V2011-05-19
p26
sI431
V2013-08-02
p27
sI645
V2015-06-16
p28
sI690
V2015-10-30
p29
sI675
V2015-09-06
p30
sI625
V2015-04-01
p31
sI53
V2011-08-04
p32
sI695
V2015-11-10
p33
sI568
V2014-08-28
p34
sI187
V2012-08-24
p35
sI445
V2013-08-26
p36
sI446
V2013-08-29
p37
sI320
V2012-12-24
p38
sI718
V2016-01-25
p39
sI579
V2014-09-23
p40
sI580
V2014-09-24
p41
sI69
V2011-10-18
p42
sI454
V2013-09-22
p43
sI199
V2012-09-21
p44
sI493
V2014-02-27
p45
sI201
V2012-09-27
p46
sI202
V2012-10-08
p47
sI76
V2011-10-28
p48
sI461
V2013-11-05
p49
sI334
V2013-01-17
p50
sI79
V2011-11-02
p51
sI594
V2014-11-12
p52
sI467
V2013-11-27
p53
sI468
V2013-11-29
p54
sI590
V2014-10-29
p55
sI642
V2015-06-15
p56
sI505
V2014-03-26
p57
sI601
V2014-12-09
p58
sI474
V2013-12-16
p59
sI475
V2013-12-20
p60
sI350
V2013-01-28
p61
sI691
V2015-11-04
p62
sI609
V2014-12-25
p63
sI485
V2014-01-17
p64
sI487
V2014-01-23
p65
sI232
V2012-11-08
p66
sI233
V2012-11-12
p67
sI106
V2011-12-20
p68
sI107
V2011-12-27
p69
sI620
V2015-02-04
p70
sI237
V2012-11-23
p71
sI494
V2014-03-05
p72
sI367
V2013-03-27
p73
sI498
V2014-03-13
p74
sI114
V2012-02-02
p75
sI659
V2015-08-04
p76
sI626
V2015-04-08
p77
sI630
V2015-05-04
p78
sI430
V2013-07-25
p79
sI377
V2013-04-23
p80
sI506
V2014-03-26
p81
sI635
V2015-05-13
p82
sI508
V2014-04-03
p83
sI725
V2016-02-01
p84
s.