(dp1
I930
V2015-10-15
p2
sI970
V2016-01-14
p3
sI940
V2015-11-05
p4
sI962
V2015-12-28
p5
sI9101
V2016-03-25
p6
sI980
V2016-01-28
p7
sI981
V2016-02-01
p8
sI950
V2015-12-04
p9
sI920
V2015-09-09
p10
sI991
V2016-03-02
p11
s.