(dp1
I536090915
V2015-09-11
p2
sI605121715
V2015-12-17
p3
sI536091015
V2015-09-14
p4
sI604120615
V2015-12-05
p5
sI601102315
V2015-10-27
p6
sI609031116
V2016-03-12
p7
sI601110215
V2015-11-02
p8
sI608030416
V2016-03-03
p9
sI603112515
V2015-11-28
p10
sI607020316
V2016-02-03
p11
sI537093015
V2015-10-02
p12
sI602111515
V2015-11-16
p13
sI606011516
V2016-01-15
p14
sI535082015
V2015-08-24
p15
s.