(dp1
I98311
V2014-08-30
p2
sI73102
V2014-04-24
p3
sI94863
V2014-07-10
p4
sI77969
V2014-04-24
p5
sI133273
V2015-12-08
p6
sI37149
V2011-05-10
p7
sI93602
V2014-06-09
p8
sI93989
V2014-06-19
p9
sI124075
V2015-09-10
p10
sI118578
V2015-07-02
p11
sI113454
V2015-04-07
p12
sI49458
V2011-10-19
p13
sI104819
V2014-12-11
p14
sI86198
V2014-04-24
p15
sI101687
V2014-10-27
p16
sI90937
V2014-04-24
p17
sI52926
V2011-12-21
p18
sI73029
V2014-04-24
p19
sI40648
V2011-05-11
p20
sI58423
V2012-04-11
p21
sI116303
V2015-05-23
p22
sI68816
V2012-10-19
p23
sI117842
V2015-06-18
p24
sI122070
V2015-08-15
p25
sI114191
V2015-04-23
p26
sI64606
V2012-07-26
p27
sI109794
V2015-02-10
p28
sI84323
V2014-04-24
p29
sI118759
V2015-07-21
p30
sI84973
V2014-04-24
p31
sI113519
V2015-04-16
p32
sI131440
V2015-11-17
p33
sI90227
V2014-04-24
p34
sI32116
V2011-04-22
p35
sI120566
V2015-07-29
p36
s.