(dp1
I11
V2012-10-17
p2
sI16
V2012-11-27
p3
sI17
V2013-02-04
p4
sI21
V2013-03-02
p5
sI22
V2013-03-15
p6
sI23
V2013-03-15
p7
sI25
V2013-04-03
p8
sI26
V2013-04-17
p9
sI27
V2013-05-03
p10
sI28
V2013-06-05
p11
sI29
V2013-06-13
p12
sI31
V2013-07-10
p13
sI33
V2013-08-13
p14
sI35
V2013-08-19
p15
sI37
V2013-09-04
p16
sI38
V2013-09-13
p17
sI39
V2013-09-18
p18
sI40
V2013-09-29
p19
sI41
V2013-10-17
p20
sI44
V2013-11-08
p21
sI46
V2013-11-12
p22
sI47
V2013-11-19
p23
sI48
V2013-11-29
p24
sI49
V2013-12-06
p25
sI50
V2013-12-16
p26
sI52
V2013-12-17
p27
sI55
V2013-12-26
p28
sI56
V2014-01-09
p29
sI57
V2014-01-10
p30
sI59
V2014-01-22
p31
sI61
V2014-01-28
p32
sI63
V2014-02-24
p33
sI66
V2014-02-27
p34
sI68
V2014-03-20
p35
sI69
V2014-03-25
p36
sI70
V2014-04-04
p37
sI71
V2014-04-08
p38
sI72
V2014-04-11
p39
sI76
V2014-04-18
p40
sI77
V2014-04-23
p41
sI79
V2014-05-05
p42
sI81
V2014-05-07
p43
sI82
V2014-05-09
p44
sI85
V2014-05-29
p45
sI88
V2014-06-12
p46
sI89
V2014-06-13
p47
sI91
V2014-07-28
p48
sI92
V2014-09-01
p49
sI93
V2014-09-02
p50
sI94
V2014-09-22
p51
sI95
V2014-10-13
p52
sI96
V2014-10-31
p53
sI97
V2014-11-21
p54
sI99
V2014-12-09
p55
sI100
V2014-12-18
p56
sI101
V2015-01-07
p57
sI103
V2015-02-10
p58
sI105
V2015-03-31
p59
sI106
V2015-05-04
p60
sI107
V2015-07-09
p61
sI108
V2015-10-31
p62
s.