(dp1
I6052
V2015-08-23
p2
sI6021
V2014-03-12
p3
sI6023
V2014-04-10
p4
sI6029
V2014-05-30
p5
sI6030
V2014-06-03
p6
sI6031
V2014-06-05
p7
sI6000
V2013-07-15
p8
sI6034
V2014-07-08
p9
sI6036
V2014-08-08
p10
sI6006
V2013-09-29
p11
sI6041
V2014-08-19
p12
sI6008
V2013-10-31
p13
sI6009
V2013-11-15
p14
sI6043
V2014-09-04
p15
sI6012
V2013-12-18
p16
sI6045
V2014-09-18
p17
sI6046
V2014-09-24
p18
s.