(dp1
I2
V2011-09-30
p2
sI4
V2011-10-24
p3
sI38
V2015-11-15
p4
sI6
V2011-11-15
p5
sI8
V2011-12-08
p6
sI10
V2011-12-23
p7
sI12
V2012-01-14
p8
sI14
V2012-02-10
p9
sI16
V2012-03-07
p10
sI17
V2012-03-29
p11
sI20
V2012-04-24
p12
sI21
V2012-05-25
p13
sI22
V2012-08-06
p14
sI23
V2012-09-27
p15
sI30
V2013-11-07
p16
s.