(dp1
I16787172
V2016-01-17
p2
sI16785288
V2015-05-30
p3
sI16786281
V2015-10-20
p4
sI16785259
V2015-05-05
p5
sI16785292
V2015-06-05
p6
sI16786286
V2015-10-30
p7
sI16787600
V2016-02-26
p8
sI16786356
V2015-11-13
p9
sI16786326
V2015-11-01
p10
sI16787162
V2016-01-06
p11
sI16785342
V2015-07-24
p12
sI16786079
V2015-09-25
p13
s.