(dp1
I15
V2011-04-22
p2
sI17
V2011-04-28
p3
sI18
V2011-05-10
p4
sI19
V2011-05-20
p5
sI21
V2011-05-31
p6
sI22
V2011-06-09
p7
sI23
V2011-06-24
p8
sI24
V2011-07-08
p9
sI25
V2011-07-15
p10
sI43
V2011-07-29
p11
sI44
V2011-08-09
p12
sI46
V2011-08-12
p13
sI47
V2011-08-20
p14
sI48
V2011-08-26
p15
sI49
V2011-09-07
p16
sI51
V2011-09-09
p17
sI52
V2011-09-22
p18
sI53
V2011-09-26
p19
sI54
V2011-09-30
p20
sI55
V2011-10-18
p21
sI56
V2011-10-24
p22
sI57
V2011-10-31
p23
sI58
V2011-11-07
p24
sI60
V2011-11-30
p25
sI61
V2011-12-20
p26
sI64
V2012-01-05
p27
sI66
V2012-01-18
p28
sI67
V2012-02-22
p29
sI68
V2012-03-01
p30
sI69
V2012-03-12
p31
sI71
V2012-04-06
p32
sI72
V2012-04-09
p33
sI74
V2012-05-09
p34
sI76
V2012-05-23
p35
sI77
V2012-06-05
p36
sI78
V2012-07-12
p37
sI79
V2012-08-06
p38
sI81
V2012-08-29
p39
sI82
V2012-09-24
p40
sI83
V2012-10-12
p41
sI85
V2012-10-30
p42
sI86
V2012-10-31
p43
sI87
V2012-11-15
p44
sI88
V2012-12-06
p45
sI89
V2012-12-26
p46
sI90
V2012-12-31
p47
sI91
V2013-01-23
p48
sI92
V2013-03-12
p49
sI93
V2013-03-15
p50
sI96
V2013-04-24
p51
sI97
V2013-05-07
p52
sI98
V2013-07-05
p53
sI99
V2013-07-08
p54
sI100
V2013-09-11
p55
sI101
V2013-09-11
p56
sI102
V2013-09-26
p57
sI108
V2013-10-16
p58
sI109
V2013-10-17
p59
sI110
V2013-10-22
p60
sI111
V2013-10-25
p61
sI112
V2013-11-01
p62
sI113
V2013-11-14
p63
sI114
V2013-12-10
p64
sI115
V2013-12-13
p65
sI116
V2013-12-23
p66
sI117
V2014-01-15
p67
sI118
V2014-02-13
p68
sI119
V2014-03-18
p69
sI121
V2014-04-22
p70
sI122
V2014-04-23
p71
sI125
V2014-04-25
p72
sI126
V2014-05-04
p73
sI127
V2014-05-12
p74
sI128
V2014-06-04
p75
sI129
V2014-06-06
p76
sI130
V2014-08-06
p77
sI131
V2014-09-29
p78
sI134
V2014-11-17
p79
sI136
V2014-12-15
p80
sI137
V2014-12-17
p81
sI138
V2014-12-24
p82
sI140
V2014-12-25
p83
sI141
V2014-12-26
p84
sI142
V2014-12-31
p85
sI143
V2015-01-04
p86
sI144
V2015-01-08
p87
s.