(dp1
I132
V2014-11-28
p2
sI166
V2015-12-30
p3
sI102
V2013-12-30
p4
sI140
V2015-02-10
p5
sI106
V2014-04-15
p6
sI108
V2014-06-24
p7
sI110
V2014-07-03
p8
sI114
V2014-09-01
p9
sI116
V2014-09-18
p10
sI164
V2015-11-20
p11
sI154
V2015-07-09
p12
sI156
V2015-10-19
p13
s.