(dp1
I4671241
V2015-10-31
p2
sI4671245
V2015-11-03
p3
sI4671249
V2015-11-05
p4
sI4601106
V2015-09-11
p5
sI159
V2015-08-18
p6
sI160
V2015-08-28
p7
sI162
V2015-09-02
p8
sI163
V2015-09-02
p9
sI4701348
V2015-12-01
p10
sI4701354
V2015-12-03
p11
sI4601133
V2015-09-16
p12
sI4631218
V2015-10-20
p13
sI4701365
V2015-12-08
p14
sI4701366
V2015-12-08
p15
sI4601143
V2015-09-17
p16
sI4711357
V2015-12-12
p17
sI4711359
V2015-12-15
p18
sI4712384
V2016-03-15
p19
sI4711361
V2015-12-16
p20
sI4711368
V2015-12-18
p21
sI4601101
V2015-09-11
p22
sI4611159
V2015-09-25
p23
sI4641247
V2015-10-30
p24
sI4611171
V2015-09-28
p25
sI4712383
V2015-12-24
p26
sI4621180
V2015-10-02
p27
s.