(dp1
I200
V2013-09-23
p2
sI201
V2013-10-22
p3
sI202
V2013-12-10
p4
sI203
V2014-01-15
p5
sI205
V2014-03-07
p6
sI206
V2014-05-24
p7
sI207
V2014-07-21
p8
sI208
V2014-09-22
p9
sI209
V2014-10-25
p10
sI210
V2014-12-18
p11
sI211
V2015-01-05
p12
sI212
V2015-01-13
p13
sI213
V2015-02-11
p14
sI214
V2015-05-29
p15
sI215
V2015-06-01
p16
sI217
V2015-07-22
p17
sI218
V2015-08-19
p18
sI219
V2015-10-24
p19
sI222
V2016-02-01
p20
sI223
V2016-02-29
p21
sI102
V2011-04-06
p22
sI114
V2012-10-17
p23
sI115
V2012-10-24
p24
sI116
V2012-11-02
p25
sI117
V2012-11-27
p26
sI118
V2012-12-06
p27
sI119
V2013-01-17
p28
sI120
V2013-02-25
p29
sI121
V2013-04-22
p30
sI122
V2013-06-17
p31
s.