(dp1
I5110016
V2015-11-17
p2
sI5116695
V2015-11-30
p3
sI5116697
V2015-12-07
p4
sI4030991
V2015-06-17
p5
sI5113361
V2015-11-04
p6
sI4030994
V2015-06-17
p7
sI4030996
V2015-06-17
p8
sI4030998
V2015-06-17
p9
sI4030999
V2015-06-17
p10
sI5116696
V2015-12-04
p11
sI4031001
V2015-06-17
p12
sI4031002
V2015-06-17
p13
sI4031004
V2015-06-17
p14
sI5116698
V2015-12-11
p15
sI4031006
V2015-06-17
p16
sI4031007
V2015-06-17
p17
sI5116704
V2016-01-05
p18
sI5116707
V2016-01-11
p19
sI4031013
V2015-06-17
p20
sI4031014
V2015-06-17
p21
sI4031015
V2015-06-17
p22
sI4031016
V2015-06-17
p23
sI4031017
V2015-06-17
p24
sI5116714
V2016-02-03
p25
sI4031022
V2015-06-17
p26
sI4030895
V2015-06-16
p27
sI4031026
V2015-06-17
p28
sI4031028
V2015-06-17
p29
sI4031029
V2015-06-17
p30
sI4031030
V2015-06-17
p31
sI4031031
V2015-06-17
p32
sI4040001
V2015-09-01
p33
sI4040003
V2015-09-15
p34
sI4040004
V2015-09-24
p35
sI4040005
V2015-09-30
p36
sI4030790
V2014-12-17
p37
sI4040007
V2015-10-13
p38
sI4030792
V2014-12-24
p39
sI4031052
V2015-08-25
p40
sI4030794
V2015-01-06
p41
sI4030795
V2015-01-13
p42
sI4030796
V2015-01-21
p43
sI4030797
V2015-01-26
p44
sI4030799
V2015-01-27
p45
sI4030801
V2015-01-28
p46
sI4030803
V2015-03-30
p47
sI5110009
V2015-10-20
p48
sI4030809
V2015-03-30
p49
sI4030811
V2015-05-28
p50
sI4030812
V2015-06-02
p51
sI4040006
V2015-10-08
p52
sI4030816
V2015-05-28
p53
sI5160033
V2016-02-12
p54
sI4030820
V2015-05-28
p55
sI5116710
V2016-01-18
p56
sI5116700
V2015-12-18
p57
sI4030823
V2015-06-02
p58
sI4030826
V2015-06-16
p59
sI5113362
V2015-11-06
p60
sI4030841
V2015-08-20
p61
sI5110010
V2015-10-27
p62
sI5160023
V2015-12-15
p63
s.