(dp1
I54789
V2015-11-03
p2
sI71238
V2016-03-17
p3
sI56145
V2015-12-14
p4
sI68719
V2016-03-03
p5
sI47983
V2015-08-18
p6
sI47376
V2015-08-11
p7
sI51729
V2015-09-29
p8
sI69879
V2016-03-10
p9
sI66330
V2016-01-29
p10
sI65339
V2016-01-22
p11
sI64316
V2016-01-15
p12
sI50877
V2015-09-24
p13
sI60575
V2015-12-22
p14
s.