(dp1
I4
V2013-05-24
p2
sI5
V2013-06-28
p3
sI6
V2013-07-02
p4
sI7
V2013-08-21
p5
sI8
V2013-08-30
p6
sI9
V2013-09-18
p7
sI10
V2013-11-02
p8
sI11
V2013-11-14
p9
sI13
V2013-12-23
p10
sI15
V2014-01-20
p11
sI16
V2014-01-28
p12
sI17
V2014-03-25
p13
sI19
V2014-04-02
p14
sI21
V2014-04-28
p15
sI24
V2014-05-28
p16
sI27
V2014-07-22
p17
sI28
V2014-07-24
p18
sI31
V2014-09-04
p19
sI32
V2014-09-05
p20
sI35
V2014-09-25
p21
sI36
V2014-09-26
p22
sI37
V2014-09-28
p23
sI40
V2014-11-19
p24
sI41
V2014-11-20
p25
sI45
V2014-12-24
p26
sI46
V2015-01-14
p27
sI51
V2015-02-12
p28
sI52
V2015-02-13
p29
sI55
V2015-04-03
p30
sI58
V2015-06-03
p31
sI59
V2015-08-21
p32
s.