(dp1
I11
V2013-08-08
p2
sI12
V2013-08-26
p3
sI13
V2013-10-29
p4
sI14
V2014-01-20
p5
sI15
V2014-01-27
p6
sI16
V2014-02-24
p7
sI17
V2014-03-15
p8
sI18
V2014-04-16
p9
sI19
V2014-04-20
p10
sI20
V2014-05-26
p11
sI21
V2014-07-01
p12
sI22
V2014-07-23
p13
sI23
V2014-08-31
p14
sI24
V2014-09-28
p15
sI25
V2014-12-09
p16
sI26
V2015-02-15
p17
sI27
V2015-03-23
p18
sI28
V2015-04-17
p19
sI29
V2015-05-18
p20
sI30
V2015-06-29
p21
sI31
V2015-07-06
p22
sI32
V2015-08-12
p23
sI33
V2015-10-11
p24
sI34
V2015-10-28
p25
sI35
V2015-11-22
p26
sI36
V2015-12-31
p27
s.