(dp1
I320
V2014-06-28
p2
sI450
V2015-07-10
p3
sI420
V2014-12-12
p4
sI470
V2015-09-30
p5
sI460
V2015-08-07
p6
sI301
V2014-05-06
p7
sI430
V2015-02-02
p8
sI431
V2015-02-13
p9
sI400
V2014-09-11
p10
sI472
V2016-01-27
p11
sI310
V2014-05-29
p12
sI471
V2015-12-07
p13
sI440
V2015-06-14
p14
sI410
V2014-11-08
p15
s.