(dp1
I54
V2013-10-15
p2
sI58
V2013-12-25
p3
sI60
V2014-01-22
p4
sI61
V2014-01-26
p5
sI62
V2014-03-12
p6
sI66
V2014-04-21
p7
sI67
V2014-04-29
p8
sI69
V2014-06-05
p9
sI72
V2014-07-22
p10
sI74
V2014-08-28
p11
sI75
V2014-09-28
p12
sI78
V2014-11-28
p13
sI79
V2014-12-11
p14
sI82
V2015-01-09
p15
sI84
V2015-02-09
p16
sI85
V2015-02-16
p17
sI88
V2015-05-11
p18
sI91
V2015-06-25
p19
sI92
V2015-07-14
p20
sI95
V2015-08-17
p21
sI101
V2015-10-28
p22
sI102
V2015-11-04
p23
sI104
V2015-12-15
p24
sI105
V2015-12-17
p25
sI108
V2016-01-11
p26
s.