(dp1
I24
V2011-11-18
p2
sI27
V2012-01-17
p3
sI28
V2012-02-13
p4
sI32
V2012-03-19
p5
sI66
V2012-04-10
p6
sI67
V2012-05-14
p7
sI68
V2012-06-27
p8
sI70
V2012-08-06
p9
sI75
V2012-09-29
p10
sI76
V2012-10-15
p11
sI78
V2012-11-07
p12
sI79
V2012-12-25
p13
sI81
V2013-03-29
p14
sI82
V2013-04-24
p15
sI83
V2013-06-04
p16
sI84
V2013-06-24
p17
sI85
V2013-07-23
p18
sI86
V2013-07-29
p19
sI87
V2013-09-11
p20
sI88
V2013-11-14
p21
sI89
V2013-11-22
p22
sI90
V2014-01-20
p23
sI91
V2014-01-23
p24
sI92
V2014-02-24
p25
sI93
V2014-03-25
p26
sI94
V2014-03-28
p27
s.