(dp1
I128
V2015-06-23
p2
sI129
V2015-06-26
p3
sI130
V2015-08-03
p4
sI131
V2015-08-13
p5
sI132
V2015-09-09
p6
sI133
V2015-09-25
p7
sI134
V2015-11-03
p8
sI135
V2015-11-18
p9
sI137
V2015-12-22
p10
sI141
V2016-01-16
p11
sI44
V2012-12-24
p12
sI59
V2013-04-26
p13
sI68
V2013-08-16
p14
sI71
V2013-08-19
p15
sI72
V2013-08-28
p16
sI76
V2013-10-23
p17
sI77
V2013-11-04
p18
sI79
V2013-11-20
p19
sI87
V2013-12-20
p20
sI90
V2013-12-25
p21
sI91
V2013-12-26
p22
sI95
V2014-02-17
p23
sI97
V2014-02-18
p24
sI98
V2014-02-26
p25
sI99
V2014-03-07
p26
sI100
V2014-04-09
p27
sI101
V2014-04-30
p28
sI102
V2014-06-26
p29
sI103
V2014-06-27
p30
sI104
V2014-07-02
p31
sI106
V2014-09-05
p32
sI108
V2014-09-12
p33
sI110
V2014-09-25
p34
sI111
V2014-10-24
p35
sI112
V2014-11-10
p36
sI113
V2014-11-26
p37
sI115
V2014-12-08
p38
sI116
V2014-12-16
p39
sI120
V2015-02-04
p40
sI121
V2015-02-11
p41
sI125
V2015-04-02
p42
sI126
V2015-05-12
p43
sI127
V2015-05-15
p44
s.