(dp1
I1
V2011-09-19
p2
sI2
V2011-09-21
p3
sI3
V2011-10-03
p4
sI4
V2011-10-12
p5
sI5
V2011-10-24
p6
sI6
V2011-11-01
p7
sI7
V2011-11-17
p8
sI8
V2011-12-10
p9
sI9
V2011-12-23
p10
sI10
V2012-01-09
p11
sI11
V2012-02-03
p12
sI12
V2012-02-16
p13
sI13
V2012-03-19
p14
sI21
V2012-09-14
p15
sI23
V2012-12-19
p16
sI24
V2013-01-18
p17
sI25
V2013-03-29
p18
sI26
V2013-04-01
p19
sI28
V2013-05-28
p20
sI29
V2013-07-03
p21
sI30
V2013-09-16
p22
sI31
V2013-12-05
p23
sI32
V2013-12-22
p24
sI33
V2014-03-21
p25
sI34
V2014-04-26
p26
sI35
V2014-05-28
p27
sI36
V2014-08-01
p28
sI37
V2014-11-05
p29
sI38
V2014-12-26
p30
s.