ccopy_reg
_reconstructor
p1
(cnetworkx.classes.digraph
DiGraph
p2
c__builtin__
object
p3
NtRp4
(dp5
S'node'
p6
(dp7
Vit.medieval.blueftp
p8
(dp9
sVcom.swipeentertainment.wingsuit
p10
(dp11
sVcom.lsdroid.cerberus
p12
(dp13
sVcom.hiapk.marketpho
p14
(dp15
sVcom.ugglynoodle.regularly
p16
(dp17
sVuk.co.mediafarm.doodlr
p18
(dp19
sVcom.neihanshe.intention
p20
(dp21
sVcom.facebook.katana
p22
(dp23
sVcom.djinnworks.StickmanSkiRacer.free
p24
(dp25
sVcom.andrewshu.android.reddit
p26
(dp27
sVcom.speedsoftware.rootexplorer
p28
(dp29
sVly.pp.justpiano
p30
(dp31
sVcom.singtel.mysingtel
p32
(dp33
sVcn.zyj.Game
p34
(dp35
sVcom.distractionware.superhexagon
p36
(dp37
sVcom.fring
p38
(dp39
sVcom.google.android.apps.plus
p40
(dp41
sVcom.google.android.youtube
p42
(dp43
sVcom.twitter.android
p44
(dp45
sVcom.Relmtech.Remote
p46
(dp47
sVcom.inisoft.mediaplayer.a
p48
(dp49
sVcom.tencent.mobileqq
p50
(dp51
sVcom.avg.uninstaller
p52
(dp53
sVcom.tencent.fruitninja
p54
(dp55
sVcom.ss.android.essay.joke
p56
(dp57
sVcom.gf.Meteo
p58
(dp59
sVcom.wolfsoft.dotd
p60
(dp61
sVcom.pajita.dino
p62
(dp63
sVcom.projectsexception.weather
p64
(dp65
sVcom.socialquantum.acityint
p66
(dp67
sVcom.mseven.msecure
p68
(dp69
sVcom.tencent.mm
p70
(dp71
sVcom.meizu.media.camera
p72
(dp73
sVde.joergjahnke.mario.android.free
p74
(dp75
sVcom.oupeng.mini.android
p76
(dp77
sVcom.moblynx.cameraics
p78
(dp79
sVcom.onavo.android.onavoics
p80
(dp81
sVcom.lge.tv.remoteapps
p82
(dp83
sVcom.rhmsoft.fm
p84
(dp85
sVpl.ing.ingmobile
p86
(dp87
sVcom.nbaimd.gametime.nba2011
p88
(dp89
sVcom.xiaoji.emulator
p90
(dp91
sVcom.macropinch.pearl
p92
(dp93
sVcom.wano.schemer
p94
(dp95
sVcom.tencent.lightalk
p96
(dp97
sVcom.blizzard.bma
p98
(dp99
sVcom.google.android.apps.blogger
p100
(dp101
sVkr.sira.measure
p102
(dp103
sVcom.oupeng.browser
p104
(dp105
sVcom.autonavi.cmccmap
p106
(dp107
ssS'graph'
p108
(dp109
sS'succ'
p110
(dp111
g8
(dp112
g28
(dp113
S'weights'
p114
(lp115
I0
aI0
aI0
aF0.1111111111111111
aI0
aI0
asS'weight'
p116
F0.1111111111111111
ssg76
(dp117
g114
(lp118
I0
aI0
aI0
aF0
acnumpy.core.multiarray
scalar
p119
(cnumpy
dtype
p120
(S'f8'
I0
I1
tRp121
(I3
S'<'
NNNI-1
I-1
I0
tbS'8j\xa3\xdee\xfd\xe4?'
tRp122
aI0
asg116
g119
(g121
S'8j\xa3\xdee\xfd\xe4?'
tRp123
sssg10
(dp124
sg12
(dp125
g46
(dp126
g114
(lp127
I0
aI0
aI1
aI0
aI0
aI0
asg116
I1
ssg76
(dp128
g114
(lp129
I0
aI0
aI0
aF0
ag119
(g121
S',\xe3\xe2\xfd\x80R\xe4?'
tRp130
aI0
asg116
g119
(g121
S',\xe3\xe2\xfd\x80R\xe4?'
tRp131
sssg14
(dp132
g76
(dp133
g114
(lp134
I0
aI0
aI0
aF0
ag119
(g121
S'\xf8C!\xb4\xd8\x07\xe7?'
tRp135
aI0
asg116
g119
(g121
S'\xf8C!\xb4\xd8\x07\xe7?'
tRp136
sssg16
(dp137
sg18
(dp138
Vcom.twitter.android
p139
(dp140
g114
(lp141
I0
aI0
aI1
aI0
aI0
aI0
asg116
I1
ssVcom.facebook.katana
p142
(dp143
g114
(lp144
I0
aI0
aI1
aI0
aI0
aI0
asg116
I1
sssg20
(dp145
g32
(dp146
g114
(lp147
I0
aI0
aI0
aF0.1111111111111111
aI0
aI0
asg116
F0.1111111111111111
ssg56
(dp148
g114
(lp149
I0
aI0
aI1
aI0
aI0
aI0
asg116
I1
sssg22
(dp150
sg24
(dp151
g10
(dp152
g114
(lp153
I0
aI0
aI1
aI0
aI0
aI0
asg116
I1
ssg16
(dp154
g114
(lp155
I0
aI0
aI1
aI0
aI0
aI0
asg116
I1
sssg26
(dp156
g40
(dp157
g114
(lp158
I0
aI0
aI1
aI0
aI0
aI0
asg116
I1
sssg28
(dp159
g32
(dp160
g114
(lp161
I0
aI0
aI0
aF0.1111111111111111
aI0
aI0
asg116
F0.1111111111111111
ssg84
(dp162
g114
(lp163
I0
aI0
aI1
aI0
aI0
aI0
asg116
I1
ssg76
(dp164
g114
(lp165
I0
aI0
aI0
aF0
ag119
(g121
S'\xb5%\x9a\xbb\xd3\x19\xe6?'
tRp166
aI0
asg116
g119
(g121
S'\xb5%\x9a\xbb\xd3\x19\xe6?'
tRp167
sssg30
(dp168
g34
(dp169
g114
(lp170
I0
aI0
aI0
aF0
ag119
(g121
S'B/\x8c\xf9\xac\xff\xe8?'
tRp171
aI0
asg116
g119
(g121
S'B/\x8c\xf9\xac\xff\xe8?'
tRp172
ssg36
(dp173
g114
(lp174
I0
aI0
aI0
aF0
ag119
(g121
S'\x8f\x8d\xbehm\xd5\xe5?'
tRp175
aI0
asg116
g119
(g121
S'\x8f\x8d\xbehm\xd5\xe5?'
tRp176
sssg32
(dp177
g76
(dp178
g114
(lp179
I0
aI0
aI0
aF0
ag119
(g121
S'\x84\x95\xcc\x87>G\xe6?'
tRp180
aI0
asg116
g119
(g121
S'\x84\x95\xcc\x87>G\xe6?'
tRp181
ssg96
(dp182
g114
(lp183
I0
aI0
aI1
aI0
aI0
aI0
asg116
I1
sssg34
(dp184
g30
(dp185
g114
(lp186
I0
aI0
aI0
aF0
ag171
aI0
asg116
g119
(g121
S'B/\x8c\xf9\xac\xff\xe8?'
tRp187
sssg36
(dp188
g30
(dp189
g114
(lp190
I0
aI0
aI0
aF0
ag175
aI0
asg116
g119
(g121
S'\x8f\x8d\xbehm\xd5\xe5?'
tRp191
sssg38
(dp192
g44
(dp193
g114
(lp194
I0
aI0
aI1
aI0
aI0
aI0
asg116
I1
sssg40
(dp195
sg42
(dp196
sg44
(dp197
sg46
(dp198
sg48
(dp199
g28
(dp200
g114
(lp201
I0
aI0
aI0
aF0.1111111111111111
aI0
aI0
asg116
F0.1111111111111111
sssg50
(dp202
sg52
(dp203
g32
(dp204
g114
(lp205
I0
aI0
aI0
aF0.1111111111111111
aI0
aI0
asg116
F0.1111111111111111
ssg92
(dp206
g114
(lp207
I0
aI0
aI1
aI0
aI0
aI0
asg116
I1
ssg76
(dp208
g114
(lp209
I0
aI0
aI0
aF0
ag119
(g121
S'\x9c\xb2\xceu\xd0\xdb\xe5?'
tRp210
aI0
asg116
g119
(g121
S'\x9c\xb2\xceu\xd0\xdb\xe5?'
tRp211
sssg54
(dp212
g70
(dp213
g114
(lp214
I0
aI0
aI1
aI0
aI0
aI0
asg116
I1
ssg50
(dp215
g114
(lp216
I0
aI0
aI1
aI0
aI0
aI0
asg116
I1
sssg56
(dp217
sg58
(dp218
sg60
(dp219
Vcom.ugglynoodle.regularly
p220
(dp221
g114
(lp222
I0
aI0
aI1
aI0
aI0
aI0
asg116
I1
sssg62
(dp223
sg64
(dp224
g32
(dp225
g114
(lp226
I0
aI0
aI0
aF0.1111111111111111
aI0
aI0
asg116
F0.1111111111111111
ssVcom.twitter.android
p227
(dp228
g114
(lp229
I0
aI0
aI1
aI0
aI0
aI0
asg116
I1
ssVcom.facebook.katana
p230
(dp231
g114
(lp232
I0
aI0
aI1
aI0
aI0
aI0
asg116
I1
ssg58
(dp233
g114
(lp234
I0
aI0
aI1
aI0
aI0
aI0
asg116
I1
ssg106
(dp235
g114
(lp236
I0
aI0
aI1
aI0
aI0
aI0
asg116
I1
sssg66
(dp237
g32
(dp238
g114
(lp239
I0
aI0
aI0
aF0.1111111111111111
aI0
aI0
asg116
F0.1111111111111111
ssVcom.ugglynoodle.regularly
p240
(dp241
g114
(lp242
I0
aI0
aI1
aI0
aI0
aI0
asg116
I1
sssg68
(dp243
g76
(dp244
g114
(lp245
I0
aI0
aI0
aF0
ag119
(g121
S'\xf4B\x9fkC\x7f\xe5?'
tRp246
aI0
asg116
g119
(g121
S'\xf4B\x9fkC\x7f\xe5?'
tRp247
ssVcom.facebook.katana
p248
(dp249
g114
(lp250
I0
aI0
aI1
aI0
aI0
aI0
asg116
I1
sssg70
(dp251
sg72
(dp252
sg74
(dp253
sg76
(dp254
g32
(dp255
g114
(lp256
I0
aI0
aI0
aF0
ag180
aI0
asg116
g119
(g121
S'\x84\x95\xcc\x87>G\xe6?'
tRp257
ssg8
(dp258
g114
(lp259
I0
aI0
aI0
aF0
ag122
aI0
asg116
g119
(g121
S'8j\xa3\xdee\xfd\xe4?'
tRp260
ssg12
(dp261
g114
(lp262
I0
aI0
aI0
aF0
ag130
aI0
asg116
g119
(g121
S',\xe3\xe2\xfd\x80R\xe4?'
tRp263
ssg14
(dp264
g114
(lp265
I0
aI0
aI0
aF0
ag135
aI0
asg116
g119
(g121
S'\xf8C!\xb4\xd8\x07\xe7?'
tRp266
ssg98
(dp267
g114
(lp268
I0
aI0
aI0
aF0
ag119
(g121
S'7\xde$l\x8c\xef\xe5?'
tRp269
aI0
asg116
g119
(g121
S'7\xde$l\x8c\xef\xe5?'
tRp270
ssg28
(dp271
g114
(lp272
I0
aI0
aI0
aF0
ag166
aI0
asg116
g119
(g121
S'\xb5%\x9a\xbb\xd3\x19\xe6?'
tRp273
ssg102
(dp274
g114
(lp275
I0
aI0
aI0
aF0
ag119
(g121
S'\xfd\x17\x06\xc8\xbe?\xe6?'
tRp276
aI0
asg116
g119
(g121
S'\xfd\x17\x06\xc8\xbe?\xe6?'
tRp277
ssg52
(dp278
g114
(lp279
I0
aI0
aI0
aF0
ag210
aI0
asg116
g119
(g121
S'\x9c\xb2\xceu\xd0\xdb\xe5?'
tRp280
ssg82
(dp281
g114
(lp282
I0
aI0
aI0
aF0
ag119
(g121
S'\x9a\xea\x8bZjP\xe6?'
tRp283
aI0
asg116
g119
(g121
S'\x9a\xea\x8bZjP\xe6?'
tRp284
ssg68
(dp285
g114
(lp286
I0
aI0
aI0
aF0
ag246
aI0
asg116
g119
(g121
S'\xf4B\x9fkC\x7f\xe5?'
tRp287
ssg104
(dp288
g114
(lp289
I0
aI0
aI1
aI0
aI0
aI0
asg116
I1
ssg80
(dp290
g114
(lp291
I0
aI0
aI1
aI0
aI0
aI0
asg116
I1
sssg78
(dp292
g32
(dp293
g114
(lp294
I0
aI0
aI0
aF0.1111111111111111
aI0
aI0
asg116
F0.1111111111111111
ssg72
(dp295
g114
(lp296
I0
aI0
aI1
aI0
aI0
aI0
asg116
I1
sssg80
(dp297
sg82
(dp298
g76
(dp299
g114
(lp300
I0
aI0
aI0
aF0
ag283
aI0
asg116
g119
(g121
S'\x9a\xea\x8bZjP\xe6?'
tRp301
ssg42
(dp302
g114
(lp303
I0
aI0
aI1
aI0
aI0
aI0
asg116
I1
sssg84
(dp304
sg86
(dp305
g22
(dp306
g114
(lp307
I0
aI0
aI1
aI0
aI0
aI0
asg116
I1
sssg88
(dp308
g32
(dp309
g114
(lp310
I0
aI0
aI0
aF0.1111111111111111
aI0
aI0
asg116
F0.1111111111111111
sssg90
(dp311
g74
(dp312
g114
(lp313
I0
aI0
aI1
aI0
aI0
aI0
asg116
I1
ssVcom.tencent.mobileqq
p314
(dp315
g114
(lp316
I0
aI0
aI1
aI0
aI0
aI0
asg116
I1
ssg62
(dp317
g114
(lp318
I0
aI0
aI1
aI0
aI0
aI0
asg116
I1
sssg92
(dp319
sg94
(dp320
g32
(dp321
g114
(lp322
I0
aI0
aI0
aF0.1111111111111111
aI0
aI0
asg116
F0.1111111111111111
sssg96
(dp323
sg98
(dp324
g76
(dp325
g114
(lp326
I0
aI0
aI0
aF0
ag269
aI0
asg116
g119
(g121
S'7\xde$l\x8c\xef\xe5?'
tRp327
sssg100
(dp328
sg102
(dp329
Vcom.macropinch.pearl
p330
(dp331
g114
(lp332
I0
aI0
aI1
aI0
aI0
aI0
asg116
I1
ssg76
(dp333
g114
(lp334
I0
aI0
aI0
aF0
ag276
aI0
asg116
g119
(g121
S'\xfd\x17\x06\xc8\xbe?\xe6?'
tRp335
ssVcom.meizu.media.camera
p336
(dp337
g114
(lp338
I0
aI0
aI1
aI0
aI0
aI0
asg116
I1
ssg100
(dp339
g114
(lp340
I0
aI0
aI1
aI0
aI0
aI0
asg116
I1
ssVcom.google.android.youtube
p341
(dp342
g114
(lp343
I0
aI0
aI1
aI0
aI0
aI0
asg116
I1
sssg104
(dp344
sg106
(dp345
ssS'edge'
p346
g111
sS'pred'
p347
(dp348
g8
(dp349
g76
g258
ssg10
(dp350
g24
g152
ssg12
(dp351
g76
g261
ssg14
(dp352
g76
g264
ssg16
(dp353
g66
g241
sg60
g221
sg24
g154
ssg18
(dp354
sg20
(dp355
sg22
(dp356
g68
g249
sg86
g306
sg18
g143
sg64
g231
ssg24
(dp357
sg26
(dp358
sg28
(dp359
g8
g113
sg76
g271
sg48
g200
ssg30
(dp360
g34
g185
sg36
g189
ssg32
(dp361
g88
g309
sg64
g225
sg66
g238
sg94
g321
sg20
g146
sg76
g255
sg78
g293
sg52
g204
sg28
g160
ssg34
(dp362
g30
g169
ssg36
(dp363
g30
g173
ssg38
(dp364
sg40
(dp365
g26
g157
ssg42
(dp366
g82
g302
sg102
g342
ssg44
(dp367
g38
g193
sg18
g140
sg64
g228
ssg46
(dp368
g12
g126
ssg48
(dp369
sg50
(dp370
g90
g315
sg54
g215
ssg52
(dp371
g76
g278
ssg54
(dp372
sg56
(dp373
g20
g148
ssg58
(dp374
g64
g233
ssg60
(dp375
sg62
(dp376
g90
g317
ssg64
(dp377
sg66
(dp378
sg68
(dp379
g76
g285
ssg70
(dp380
g54
g213
ssg72
(dp381
g78
g295
sg102
g337
ssg74
(dp382
g90
g312
ssg76
(dp383
g32
g178
sg8
g117
sg12
g128
sg14
g133
sg98
g325
sg28
g164
sg102
g333
sg52
g208
sg82
g299
sg68
g244
ssg78
(dp384
sg80
(dp385
g76
g290
ssg82
(dp386
g76
g281
ssg84
(dp387
g28
g162
ssg86
(dp388
sg88
(dp389
sg90
(dp390
sg92
(dp391
g102
g331
sg52
g206
ssg94
(dp392
sg96
(dp393
g32
g182
ssg98
(dp394
g76
g267
ssg100
(dp395
g102
g339
ssg102
(dp396
g76
g274
ssg104
(dp397
g76
g288
ssg106
(dp398
g64
g235
sssS'adj'
p399
g111
sb.