ccopy_reg
_reconstructor
p1
(cnetworkx.classes.digraph
DiGraph
p2
c__builtin__
object
p3
NtRp4
(dp5
S'node'
p6
(dp7
V\u58a8\u8ff9\u5929\u6c14
p8
(dp9
sV\u767e\u5ea6\u624b\u673a\u8f93\u5165\u6cd5
p10
(dp11
sV@\u5f55\u97f3\u673a
p12
(dp13
sVLBE\u5b89\u5168\u5927\u5e08
p14
(dp15
sV\u6c34\u679c\u5fcd\u8005\u514d\u8d39\u7248
p16
(dp17
sV\u7231\u5947\u827a\u89c6\u9891
p18
(dp19
sV8684\u516c\u4ea4
p20
(dp21
sV\u4eb2\u7231\u7684
p22
(dp23
sV\u767e\u5ea6\u8d34\u5427
p24
(dp25
sV\u817e\u8baf\u624b\u673a\u7ba1\u5bb6
p26
(dp27
sV\u4fdd\u536b\u841d\u535c2\u51b0\u5c9b\u5192\u9669
p28
(dp29
sV\u94c3\u58f0\u591a\u591a
p30
(dp31
sV\u690d\u7269\u5927\u6218\u50f5\u5c38\u65e0\u5c3d\u7248HD
p32
(dp33
sV8684\u5730\u94c1
p34
(dp35
sV\u91d1\u5c71\u624b\u673a\u536b\u58eb
p36
(dp37
sV\u5b89\u5168\u7ba1\u5bb6
p38
(dp39
sV\u6355\u9c7c\u8fbe\u4eba
p40
(dp41
sV\u4fdd\u536b\u841d\u535c(CarrotFantasy)
p42
(dp43
sV\u76f8\u673a360
p44
(dp45
sV\u767e\u5ea6\u89c6\u9891
p46
(dp47
sV\u5fae\u4fe1
p48
(dp49
sV@\u7f51\u7edc\u4f4d\u7f6e
p50
(dp51
sV\u6765\u5f80
p52
(dp53
sV\u5531\u5427
p54
(dp55
sV\u795e\u5e99\u9003\u4ea1
p56
(dp57
sV\u7a9d\u7a9d\u56e2
p58
(dp59
sV\u5730\u94c1\u8dd1\u9177\u66fc\u8c37\u7248
p60
(dp61
sV\u7f8e\u56e2\u56e2\u8d2d
p62
(dp63
sV\u6dd8\u5b9d
p64
(dp65
sV\u8baf\u98de\u8f93\u5165\u6cd5\u624b\u673a\u7248
p66
(dp67
sV\u90fd\u5e02\u8d5b\u8f665
p68
(dp69
sV\u624b\u7535\u7b52
p70
(dp71
sVPDF\u9605\u8bfb\u5668 Adobe reader
p72
(dp73
sV\u8c37\u6b4c\u5730\u56fe Google Maps
p74
(dp75
sV\u963f\u91cc\u5df4\u5df4
p76
(dp77
sVGO\u684c\u9762
p78
(dp79
sV\u641c\u72d7\u624b\u673a\u8f93\u5165\u6cd5
p80
(dp81
sV\u6c34\u679c\u5fcd\u8005
p82
(dp83
sVRoot Explorer
p84
(dp85
sV\u817e\u8baf\u5fae\u535a
p86
(dp87
sV\u624b\u673a\u7535\u89c6
p88
(dp89
sV\u76db\u540d\u5217\u8f66\u65f6\u523b\u8868
p90
(dp91
sVWiFi\u4e07\u80fd\u94a5\u5319
p92
(dp93
sV\u5feb\u7684\u6253\u8f66
p94
(dp95
sV@\u7535\u8bdd
p96
(dp97
sV@\u6388\u6743\u7a0b\u5e8f
p98
(dp99
sV\u7545\u8bfb
p100
(dp101
sV\u7f8e\u4e3d\u8bf4
p102
(dp103
sV@\u84dd\u7259
p104
(dp105
sV\u4e66\u65d7\u5c0f\u8bf4
p106
(dp107
sV\u5fae\u535a
p108
(dp109
sVSuperuser:\u8d85\u7ea7\u6743\u9650\u7ba1\u7406
p110
(dp111
sV\u591a\u7c73\u97f3\u4e50
p112
(dp113
sV\u6781\u54c1\u94a2\u7434
p114
(dp115
sV\u9ad8\u5fb7\u5730\u56fe
p116
(dp117
sV\u76f8\u673a
p118
(dp119
sV\u4e2d\u56fd\u8c61\u68cb
p120
(dp121
sVES\u6587\u4ef6\u6d4f\u89c8\u5668
p122
(dp123
sV\u8df3\u8dc3\u5fcd\u8005 NinJump
p124
(dp125
sV\u6355\u9c7c\u8fbe\u4eba2
p126
(dp127
sVQQ\u97f3\u4e50
p128
(dp129
sV\u5b89\u5353\u5e02\u573a
p130
(dp131
sV\u5929\u5929\u52a8\u542c
p132
(dp133
sV\u624b\u673aQQ\u5f71\u97f3
p134
(dp135
sV\u98de\u4fe1
p136
(dp137
sV\u9177\u72d7\u97f3\u4e50
p138
(dp139
sVQQ\u9605\u8bfb
p140
(dp141
sV@\u7a0b\u5e8f\u5b89\u88c5
p142
(dp143
sV\u795e\u5e99\u9003\u4ea12
p144
(dp145
sV\u5929\u732b
p146
(dp147
sV\u690d\u7269\u5927\u6218\u50f5\u5c382
p148
(dp149
sV\u4eba\u4eba
p150
(dp151
sV\u6765\u7535\u901a
p152
(dp153
sV \u6ce1\u6ce1\u9f99 
p154
(dp155
sV\u4eac\u4e1c
p156
(dp157
sV\u8bda\u54c1\u5feb\u62cd
p158
(dp159
sVQQ HD mini
p160
(dp161
sV\u6ef4\u6ef4\u6253\u8f66
p162
(dp163
sV\u6211\u67e5\u67e5
p164
(dp165
sV@\u4e0b\u8f7d\u7ba1\u7406\u5668
p166
(dp167
sV@\u76f8\u518c
p168
(dp169
sV@\u65e5\u5386
p170
(dp171
sV@\u4efb\u52a1\u7ba1\u7406\u5668
p172
(dp173
sV8684\u706b\u8f66
p174
(dp175
sV\u4e50\u89c6\u89c6\u9891
p176
(dp177
sV\u61d2\u4eba\u542c\u4e66
p178
(dp179
sV\u6743\u9650\u7ba1\u7406
p180
(dp181
sV\u805a\u5212\u7b97
p182
(dp183
sV58\u540c\u57ce
p184
(dp185
sVK\u6b4c\u8fbe\u4eba
p186
(dp187
sV\u53bb\u54ea\u513f\u65c5\u884c
p188
(dp189
sV\u767e\u5ea6
p190
(dp191
sV\u4f18\u9177\u89c6\u9891
p192
(dp193
sV@\u76f8\u673a
p194
(dp195
sV\u690d\u7269\u5927\u6218\u50f5\u5c382\u9ad8\u6e05\u7248
p196
(dp197
sV@\u901a\u8baf\u5f55
p198
(dp199
sV@\u6587\u4ef6\u7ba1\u7406\u5668
p200
(dp201
sV\u767e\u5ea6\u4e91
p202
(dp203
sV\u5b89\u5353\u58c1\u7eb8
p204
(dp205
sVLINE\uff08\u8fde\u6211\uff09
p206
(dp207
sV\u4f1a\u8bf4\u8bdd\u7684\u6c64\u59c6\u732b 2
p208
(dp209
sV\u652f\u4ed8\u5b9d\u94b1\u5305
p210
(dp211
sVUC\u6d4f\u89c8\u5668
p212
(dp213
sV\u6740\u624b
p214
(dp215
sVYY
p216
(dp217
sV\u900f\u660e\u4e0b\u62c9\u9501(HTC\u7248)
p218
(dp219
sV\u6709\u9053\u8bcd\u5178
p220
(dp221
sV\u6298800
p222
(dp223
sV\u767e\u5ea6\u5730\u56fe
p224
(dp225
sV\u6613\u4fe1
p226
(dp227
sV\u4e8c\u7ef4\u7801\u626b\u63cf
p228
(dp229
sV\u4e2d\u534e\u4e07\u5e74\u5386
p230
(dp231
sV\u91d1\u5c71\u7535\u6c60\u533b\u751f
p232
(dp233
sV\u964c\u964c
p234
(dp235
sV\u767e\u5ea6\u624b\u673a\u536b\u58eb\uff08\u539f\u5b89\u5353\u4f18\u5316\u5927\u5e08\uff09
p236
(dp237
sV\u5927\u4f17\u70b9\u8bc4
p238
(dp239
sV\u5feb\u56fe\u6d4f\u89c8 QuickPic
p240
(dp241
sV\u91ca\u653e\u5185\u5b58
p242
(dp243
sVQQ\u6d4f\u89c8\u5668
p244
(dp245
sVAdobe Flash Player
p246
(dp247
sV\u7231\u5947\u827aPPS\u5f71\u97f3
p248
(dp249
sV\u817e\u8baf\u89c6\u9891
p250
(dp251
sV\u795e\u96d5\u4fa0\u4fa3
p252
(dp253
sV\u4e07\u5e74\u5386
p254
(dp255
sV\u641c\u72d0\u89c6\u9891
p256
(dp257
sV\u66b4\u98ce\u5f71\u97f3
p258
(dp259
sV@\u4fe1\u606f
p260
(dp261
sV\u730e\u8c79\u6e05\u7406\u5927\u5e08\uff08\u539f\u91d1\u5c71\u6e05\u7406\u5927\u5e08\uff09
p262
(dp263
sV\u638c\u9605iReader
p264
(dp265
sVTiny Flashlight
p266
(dp267
sV\u9177\u6211\u97f3\u4e50
p268
(dp269
sV\u7238\u7238\u53bb\u54ea\u513f
p270
(dp271
sVMoboPlayer
p272
(dp273
sVQQ
p274
(dp275
sVGoogle Play
p276
(dp277
sVQQ\u7a7a\u95f4
p278
(dp279
sV\u6781\u9650\u6469\u6258
p280
(dp281
sV\u6ed1\u96ea\u5927\u5192\u9669
p282
(dp283
sV\u7f8e\u56fe\u79c0\u79c0
p284
(dp285
sV\u627e\u4f60\u59b9
p286
(dp287
sV@\u7cfb\u7edf\u8bbe\u7f6e
p288
(dp289
sVPPTV\u7f51\u7edc\u7535\u89c6
p290
(dp291
ssS'graph'
p292
(dp293
sS'succ'
p294
(dp295
g8
(dp296
V@\u76f8\u673a
p297
(dp298
S'weights'
p299
(lp300
I0
aI0
aI0
aI0
aI0
aF0.10000000000000001
aI0
assV@\u7535\u8bdd
p301
(dp302
g299
(lp303
I0
aI0
aI0
aI0
aI0
aF0.20000000000000001
aI0
assV@\u76f8\u518c
p304
(dp305
g299
(lp306
I0
aI0
aI0
aI0
aI0
aF0.10000000000000001
aI0
assg234
(dp307
g299
(lp308
F0
aF0
aF0.59999999999999998
aI0
aI0
aI0
aI0
assV@\u7f51\u7edc\u4f4d\u7f6e
p309
(dp310
g299
(lp311
I0
aI0
aI0
aI0
aI0
aF0.20000000000000001
aI0
assg20
(dp312
g299
(lp313
F0
aF0
aF1
aI0
aI0
aI0
aI0
assV@\u4efb\u52a1\u7ba1\u7406\u5668
p314
(dp315
g299
(lp316
I0
aI0
aI0
aI0
aI0
aF0.20000000000000001
aI0
assV@\u6587\u4ef6\u7ba1\u7406\u5668
p317
(dp318
g299
(lp319
I0
aI0
aI0
aI0
aI0
aF0.10000000000000001
aI0
assV@\u7cfb\u7edf\u8bbe\u7f6e
p320
(dp321
g299
(lp322
I0
aI0
aI0
aI0
aI0
aF0.10000000000000001
aI0
assg206
(dp323
g299
(lp324
F0
aF0
aF0.5714285714285714
aI0
aI0
aI0
aI0
asssg10
(dp325
g66
(dp326
g299
(lp327
F0
aF0
aI0
aI0
aF0.76127482677652836
aI0
aI0
assV@\u76f8\u673a
p328
(dp329
g299
(lp330
I0
aI0
aI0
aI0
aI0
aF0.1111111111111111
aI0
assg72
(dp331
g299
(lp332
F0
aF0.023255813953488372
aI0
aI0
aI0
aI0
aI0
assg150
(dp333
g299
(lp334
F0
aF0
aF0.8666666666666667
aI0
aI0
aI0
aI0
assV@\u5f55\u97f3\u673a
p335
(dp336
g299
(lp337
I0
aI0
aI0
aI0
aI0
aF0.1111111111111111
aI0
assg158
(dp338
g299
(lp339
F0
aF0
aF0.66666666666666663
aI0
aI0
aI0
aI0
assg80
(dp340
g299
(lp341
F0
aF0
aF0.76666666666666661
aI0
aF0.76568943325144156
aI0
aI0
assg164
(dp342
g299
(lp343
F0
aF0
aF0.76666666666666661
aI0
aI0
aI0
aI0
assV@\u76f8\u518c
p344
(dp345
g299
(lp346
I0
aI0
aI0
aI0
aI0
aF0.1111111111111111
aI0
assg234
(dp347
g299
(lp348
F0
aF0
aF1
aI0
aI0
aI0
aI0
assg20
(dp349
g299
(lp350
F0
aF0
aF0.53333333333333333
aI0
aI0
aI0
aI0
assV@\u4efb\u52a1\u7ba1\u7406\u5668
p351
(dp352
g299
(lp353
I0
aI0
aI0
aI0
aI0
aF0.1111111111111111
aI0
assV@\u7535\u8bdd
p354
(dp355
g299
(lp356
I0
aI0
aI0
aI0
aI0
aF0.1111111111111111
aI0
assV@\u7cfb\u7edf\u8bbe\u7f6e
p357
(dp358
g299
(lp359
I0
aI0
aI0
aI0
aI0
aF0.1111111111111111
aI0
assg108
(dp360
g299
(lp361
F0
aF0
aF0.59999999999999998
aI0
aI0
aI0
aI0
assg268
(dp362
g299
(lp363
F0
aF0
aF0.69999999999999996
aI0
aI0
aI0
aI0
assg278
(dp364
g299
(lp365
F0
aF0
aF0.66666666666666663
aI0
aI0
aI0
aI0
assg48
(dp366
g299
(lp367
F0
aF0
aF0.87575757575757573
aI0
aI0
aI0
aI0
assV@\u7f51\u7edc\u4f4d\u7f6e
p368
(dp369
g299
(lp370
I0
aI0
aI0
aI0
aI0
aF0.22222222222222221
aI0
assg284
(dp371
g299
(lp372
F0
aF0
aF0.66666666666666663
aI0
aI0
aI0
aI0
assV@\u901a\u8baf\u5f55
p373
(dp374
g299
(lp375
I0
aI0
aI0
aI0
aI0
aF0.1111111111111111
aI0
assg204
(dp376
g299
(lp377
F0
aF0
aF0.76666666666666661
aI0
aI0
aI0
aI0
assg206
(dp378
g299
(lp379
F0
aF0
aF0.9285714285714286
aI0
aI0
aI0
aI0
asssg12
(dp380
sg14
(dp381
VQQ
p382
(dp383
g299
(lp384
I0
aI0
aI0
aF0.33333333333333331
aI0
aI0
aI0
assV@\u7535\u8bdd
p385
(dp386
g299
(lp387
I0
aI0
aI0
aI0
aI0
aF0.19047619047619047
aI0
assV@\u76f8\u518c
p388
(dp389
g299
(lp390
I0
aI0
aI0
aI0
aI0
aF0.047619047619047616
aI0
assV@\u7a0b\u5e8f\u5b89\u88c5
p391
(dp392
g299
(lp393
I0
aI0
aI0
aI0
aI0
aF0.095238095238095233
aI0
assV@\u901a\u8baf\u5f55
p394
(dp395
g299
(lp396
I0
aI0
aI0
aI0
aI0
aF0.095238095238095233
aI0
assV@\u7f51\u7edc\u4f4d\u7f6e
p397
(dp398
g299
(lp399
I0
aI0
aI0
aI0
aI0
aF0.095238095238095233
aI0
assV@\u84dd\u7259
p400
(dp401
g299
(lp402
I0
aI0
aI0
aI0
aI0
aF0.095238095238095233
aI0
assV@\u76f8\u673a
p403
(dp404
g299
(lp405
I0
aI0
aI0
aI0
aI0
aF0.047619047619047616
aI0
assV@\u4fe1\u606f
p406
(dp407
g299
(lp408
I0
aI0
aI0
aI0
aI0
aF0.047619047619047616
aI0
assV@\u4efb\u52a1\u7ba1\u7406\u5668
p409
(dp410
g299
(lp411
I0
aI0
aI0
aI0
aI0
aF0.047619047619047616
aI0
assV\u5fae\u535a
p412
(dp413
g299
(lp414
I0
aI0
aI0
aF0.1111111111111111
aI0
aI0
aI0
assV@\u7cfb\u7edf\u8bbe\u7f6e
p415
(dp416
g299
(lp417
I0
aI0
aI0
aI0
aI0
aF0.23809523809523808
aI0
assg36
(dp418
g299
(lp419
I0
aI0
aI0
aF0.1111111111111111
aI0
aI0
aI0
assV\u5b89\u5168\u7ba1\u5bb6
p420
(dp421
g299
(lp422
I0
aI0
aI0
aF0.1111111111111111
aI0
aI0
aI0
assg180
(dp423
g299
(lp424
I0
aI0
aI0
aF0.33333333333333331
aI0
aI0
aI0
asssg16
(dp425
VQQ
p426
(dp427
g299
(lp428
I0
aI0
aI0
aF0.33333333333333331
aI0
aI0
aI0
assV@\u7535\u8bdd
p429
(dp430
g299
(lp431
I0
aI0
aI0
aI0
aI0
aF0.33333333333333331
aI0
assg80
(dp432
g299
(lp433
F0
aF0
aF0.75
aI0
aI0
aI0
aI0
assg164
(dp434
g299
(lp435
F0
aF0
aF0.75
aI0
aI0
aI0
aI0
assg82
(dp436
g299
(lp437
F0
aF0
aI0
aF0.33333333333333331
aF0.81612912023056872
aI0
aI0
assg48
(dp438
g299
(lp439
F0
aF0
aF0.59090909090909094
aF0.33333333333333331
aI0
aI0
aI0
assg234
(dp440
g299
(lp441
F0
aF0
aF0.69999999999999996
aI0
aI0
aI0
aI0
assV@\u4efb\u52a1\u7ba1\u7406\u5668
p442
(dp443
g299
(lp444
I0
aI0
aI0
aI0
aI0
aF0.33333333333333331
aI0
assg108
(dp445
g299
(lp446
F0
aF0
aF1
aI0
aI0
aI0
aI0
assV@\u6587\u4ef6\u7ba1\u7406\u5668
p447
(dp448
g299
(lp449
I0
aI0
aI0
aI0
aI0
aF0.33333333333333331
aI0
assg204
(dp450
g299
(lp451
F0
aF0
aF0.75
aI0
aI0
aI0
aI0
assg206
(dp452
g299
(lp453
F0
aF0
aF0.64285714285714279
aI0
aI0
aI0
aI0
asssg18
(dp454
V@\u76f8\u673a
p455
(dp456
g299
(lp457
I0
aI0
aI0
aI0
aI0
aF0.0625
aI0
assV@\u7535\u8bdd
p458
(dp459
g299
(lp460
I0
aI0
aI0
aI0
aI0
aF0.125
aI0
assg192
(dp461
g299
(lp462
F0
aF0
aI0
aI0
aF0.75329702384343133
aI0
aI0
assV@\u4e0b\u8f7d\u7ba1\u7406\u5668
p463
(dp464
g299
(lp465
I0
aI0
aI0
aI0
aI0
aF0.125
aI0
assV@\u76f8\u518c
p466
(dp467
g299
(lp468
I0
aI0
aI0
aI0
aI0
aF0.0625
aI0
assg48
(dp469
g299
(lp470
F0
aF0
aF0.49545454545454548
aI0
aI0
aI0
aI0
assV@\u901a\u8baf\u5f55
p471
(dp472
g299
(lp473
I0
aI0
aI0
aI0
aI0
aF0.125
aI0
assV@\u7f51\u7edc\u4f4d\u7f6e
p474
(dp475
g299
(lp476
I0
aI0
aI0
aI0
aI0
aF0.125
aI0
assV@\u84dd\u7259
p477
(dp478
g299
(lp479
I0
aI0
aI0
aI0
aI0
aF0.125
aI0
assV@\u4efb\u52a1\u7ba1\u7406\u5668
p480
(dp481
g299
(lp482
I0
aI0
aI0
aI0
aI0
aF0.0625
aI0
assg22
(dp483
g299
(lp484
I0
aI0
aI0
aF1
aI0
aI0
aI0
assV@\u6587\u4ef6\u7ba1\u7406\u5668
p485
(dp486
g299
(lp487
I0
aI0
aI0
aI0
aI0
aF0.0625
aI0
assV@\u7cfb\u7edf\u8bbe\u7f6e
p488
(dp489
g299
(lp490
I0
aI0
aI0
aI0
aI0
aF0.0625
aI0
assg206
(dp491
g299
(lp492
F0
aF0
aF0.52142857142857146
aI0
aI0
aI0
aI0
assV@\u5f55\u97f3\u673a
p493
(dp494
g299
(lp495
I0
aI0
aI0
aI0
aI0
aF0.0625
aI0
asssg20
(dp496
V@\u7535\u8bdd
p497
(dp498
g299
(lp499
I0
aI0
aI0
aI0
aI0
aF0.20000000000000001
aI0
assV@\u7cfb\u7edf\u8bbe\u7f6e
p500
(dp501
g299
(lp502
I0
aI0
aI0
aI0
aI0
aF0.20000000000000001
aI0
assV@\u7f51\u7edc\u4f4d\u7f6e
p503
(dp504
g299
(lp505
I0
aI0
aI0
aI0
aI0
aF0.59999999999999998
aI0
assg34
(dp506
g299
(lp507
I0
aI0
aI0
aF0.5
aI0
aI0
aI0
assg174
(dp508
g299
(lp509
I0
aI0
aI0
aF0.5
aI0
aI0
aI0
asssg22
(dp510
sg24
(dp511
V@\u76f8\u673a
p512
(dp513
g299
(lp514
I0
aI0
aI0
aI0
aI0
aF0.040000000000000001
aI0
assV@\u7535\u8bdd
p515
(dp516
g299
(lp517
I0
aI0
aI0
aI0
aI0
aF0.16
aI0
assV@\u4e0b\u8f7d\u7ba1\u7406\u5668
p518
(dp519
g299
(lp520
I0
aI0
aI0
aI0
aI0
aF0.080000000000000002
aI0
assV@\u76f8\u518c
p521
(dp522
g299
(lp523
I0
aI0
aI0
aI0
aI0
aF0.040000000000000001
aI0
assV@\u7a0b\u5e8f\u5b89\u88c5
p524
(dp525
g299
(lp526
I0
aI0
aI0
aI0
aI0
aF0.02
aI0
assV@\u7f51\u7edc\u4f4d\u7f6e
p527
(dp528
g299
(lp529
I0
aI0
aI0
aI0
aI0
aF0.23999999999999999
aI0
assV@\u84dd\u7259
p530
(dp531
g299
(lp532
I0
aI0
aI0
aI0
aI0
aF0.02
aI0
assV@\u4efb\u52a1\u7ba1\u7406\u5668
p533
(dp534
g299
(lp535
I0
aI0
aI0
aI0
aI0
aF0.10000000000000001
aI0
assV@\u901a\u8baf\u5f55
p536
(dp537
g299
(lp538
I0
aI0
aI0
aI0
aI0
aF0.059999999999999998
aI0
assV@\u6587\u4ef6\u7ba1\u7406\u5668
p539
(dp540
g299
(lp541
I0
aI0
aI0
aI0
aI0
aF0.040000000000000001
aI0
assV@\u7cfb\u7edf\u8bbe\u7f6e
p542
(dp543
g299
(lp544
I0
aI0
aI0
aI0
aI0
aF0.14000000000000001
aI0
assV@\u5f55\u97f3\u673a
p545
(dp546
g299
(lp547
I0
aI0
aI0
aI0
aI0
aF0.059999999999999998
aI0
asssg26
(dp548
VQQ
p549
(dp550
g299
(lp551
I0
aI0
aI0
aF0.5
aI0
aI0
aI0
assV@\u7535\u8bdd
p552
(dp553
g299
(lp554
I0
aI0
aI0
aI0
aI0
aF0.12
aI0
assg80
(dp555
g299
(lp556
F0
aF0
aF0.75
aI0
aI0
aI0
aI0
assg164
(dp557
g299
(lp558
F0
aF0
aF0.75
aI0
aI0
aI0
aI0
assV@\u76f8\u518c
p559
(dp560
g299
(lp561
I0
aI0
aI0
aI0
aI0
aF0.040000000000000001
aI0
assg48
(dp562
g299
(lp563
F0
aF0
aF0.59090909090909094
aI0
aI0
aI0
aI0
assg234
(dp564
g299
(lp565
F0
aF0
aF0.69999999999999996
aI0
aI0
aI0
aI0
assV@\u7f51\u7edc\u4f4d\u7f6e
p566
(dp567
g299
(lp568
I0
aI0
aI0
aI0
aI0
aF0.12
aI0
assV@\u84dd\u7259
p569
(dp570
g299
(lp571
I0
aI0
aI0
aI0
aI0
aF0.080000000000000002
aI0
assV@\u76f8\u673a
p572
(dp573
g299
(lp574
I0
aI0
aI0
aI0
aI0
aF0.040000000000000001
aI0
assV@\u4fe1\u606f
p575
(dp576
g299
(lp577
I0
aI0
aI0
aI0
aI0
aF0.080000000000000002
aI0
assV@\u4efb\u52a1\u7ba1\u7406\u5668
p578
(dp579
g299
(lp580
I0
aI0
aI0
aI0
aI0
aF0.080000000000000002
aI0
assg108
(dp581
g299
(lp582
F0
aF0
aF1
aI0
aI0
aI0
aI0
assg242
(dp583
g299
(lp584
I0
aI0
aI0
aF0.5
aI0
aI0
aI0
assV@\u6587\u4ef6\u7ba1\u7406\u5668
p585
(dp586
g299
(lp587
I0
aI0
aI0
aI0
aI0
aF0.040000000000000001
aI0
assV@\u901a\u8baf\u5f55
p588
(dp589
g299
(lp590
I0
aI0
aI0
aI0
aI0
aF0.080000000000000002
aI0
assg204
(dp591
g299
(lp592
F0
aF0
aF0.75
aI0
aI0
aI0
aI0
assg206
(dp593
g299
(lp594
F0
aF0
aF0.64285714285714279
aI0
aI0
aI0
aI0
assV@\u7a0b\u5e8f\u5b89\u88c5
p595
(dp596
g299
(lp597
I0
aI0
aI0
aI0
aI0
aF0.16
aI0
assV@\u7cfb\u7edf\u8bbe\u7f6e
p598
(dp599
g299
(lp600
I0
aI0
aI0
aI0
aI0
aF0.16
aI0
asssg28
(dp601
V@\u7535\u8bdd
p602
(dp603
g299
(lp604
I0
aI0
aI0
aI0
aI0
aF0.20000000000000001
aI0
assV@\u7f51\u7edc\u4f4d\u7f6e
p605
(dp606
g299
(lp607
I0
aI0
aI0
aI0
aI0
aF0.20000000000000001
aI0
assV@\u901a\u8baf\u5f55
p608
(dp609
g299
(lp610
I0
aI0
aI0
aI0
aI0
aF0.20000000000000001
aI0
assV@\u4efb\u52a1\u7ba1\u7406\u5668
p611
(dp612
g299
(lp613
I0
aI0
aI0
aI0
aI0
aF0.20000000000000001
aI0
assg108
(dp614
g299
(lp615
F0
aF0.014981273408239701
aI0
aI0
aI0
aI0
aI0
assV@\u7cfb\u7edf\u8bbe\u7f6e
p616
(dp617
g299
(lp618
I0
aI0
aI0
aI0
aI0
aF0.20000000000000001
aI0
asssg30
(dp619
V@\u76f8\u673a
p620
(dp621
g299
(lp622
I0
aI0
aI0
aI0
aI0
aF0.10000000000000001
aI0
assV@\u7535\u8bdd
p623
(dp624
g299
(lp625
I0
aI0
aI0
aI0
aI0
aF0.10000000000000001
aI0
assg80
(dp626
g299
(lp627
F0
aF0
aF0.41666666666666663
aI0
aI0
aI0
aI0
assg278
(dp628
g299
(lp629
F0
aF0
aF0.66666666666666663
aI0
aI0
aI0
aI0
assV@\u76f8\u518c
p630
(dp631
g299
(lp632
I0
aI0
aI0
aI0
aI0
aF0.10000000000000001
aI0
assg48
(dp633
g299
(lp634
F0
aF0
aF0.60606060606060597
aF0.5
aI0
aI0
aI0
assg234
(dp635
g299
(lp636
F0
aF0
aF0.53333333333333333
aI0
aI0
aI0
aI0
assV@\u7f51\u7edc\u4f4d\u7f6e
p637
(dp638
g299
(lp639
I0
aI0
aI0
aI0
aI0
aF0.10000000000000001
aI0
assg20
(dp640
g299
(lp641
F0
aF0
aF0.66666666666666663
aI0
aI0
aI0
aI0
assV@\u901a\u8baf\u5f55
p642
(dp643
g299
(lp644
I0
aI0
aI0
aI0
aI0
aF0.20000000000000001
aI0
assV@\u7cfb\u7edf\u8bbe\u7f6e
p645
(dp646
g299
(lp647
I0
aI0
aI0
aI0
aI0
aF0.10000000000000001
aI0
assg284
(dp648
g299
(lp649
F0
aF0
aF0.66666666666666663
aI0
aI0
aI0
aI0
assV@\u4efb\u52a1\u7ba1\u7406\u5668
p650
(dp651
g299
(lp652
I0
aI0
aI0
aI0
aI0
aF0.10000000000000001
aI0
assV\u5fae\u535a
p653
(dp654
g299
(lp655
I0
aI0
aI0
aF0.5
aI0
aI0
aI0
assV@\u6587\u4ef6\u7ba1\u7406\u5668
p656
(dp657
g299
(lp658
I0
aI0
aI0
aI0
aI0
aF0.10000000000000001
aI0
assg150
(dp659
g299
(lp660
F0
aF0
aF0.41666666666666663
aI0
aI0
aI0
aI0
assg204
(dp661
g299
(lp662
F0
aF0
aF0.41666666666666663
aI0
aI0
aI0
aI0
assg164
(dp663
g299
(lp664
F0
aF0
aF0.41666666666666663
aI0
aI0
aI0
aI0
assg206
(dp665
g299
(lp666
F0
aF0
aF0.78571428571428581
aI0
aI0
aI0
aI0
assg158
(dp667
g299
(lp668
F0
aF0
aF0.66666666666666663
aI0
aI0
aI0
aI0
assV@\u5f55\u97f3\u673a
p669
(dp670
g299
(lp671
I0
aI0
aI0
aI0
aI0
aF0.10000000000000001
aI0
asssg32
(dp672
V@\u7535\u8bdd
p673
(dp674
g299
(lp675
I0
aI0
aI0
aI0
aI0
aF0.2857142857142857
aI0
assV@\u7f51\u7edc\u4f4d\u7f6e
p676
(dp677
g299
(lp678
I0
aI0
aI0
aI0
aI0
aF0.14285714285714285
aI0
assg196
(dp679
g299
(lp680
F0
aF0
aI0
aI0
aF0.70636691835406407
aI0
aI0
assV@\u901a\u8baf\u5f55
p681
(dp682
g299
(lp683
I0
aI0
aI0
aI0
aI0
aF0.14285714285714285
aI0
assV@\u6587\u4ef6\u7ba1\u7406\u5668
p684
(dp685
g299
(lp686
I0
aI0
aI0
aI0
aI0
aF0.14285714285714285
aI0
assV@\u7cfb\u7edf\u8bbe\u7f6e
p687
(dp688
g299
(lp689
I0
aI0
aI0
aI0
aI0
aF0.2857142857142857
aI0
asssg34
(dp690
sg36
(dp691
sg38
(dp692
sg40
(dp693
V@\u76f8\u673a
p694
(dp695
g299
(lp696
I0
aI0
aI0
aI0
aI0
aF0.027027027027027029
aI0
assV@\u7535\u8bdd
p697
(dp698
g299
(lp699
I0
aI0
aI0
aI0
aI0
aF0.40540540540540543
aI0
assg80
(dp700
g299
(lp701
I0
aF0
aF0.75
aI0
aI0
aI0
aI0
assg164
(dp702
g299
(lp703
I0
aF0
aF0.75
aI0
aI0
aI0
aI0
assV@\u4e0b\u8f7d\u7ba1\u7406\u5668
p704
(dp705
g299
(lp706
I0
aI0
aI0
aI0
aI0
aF0.054054054054054057
aI0
assV@\u76f8\u518c
p707
(dp708
g299
(lp709
I0
aI0
aI0
aI0
aI0
aF0.027027027027027029
aI0
assg48
(dp710
g299
(lp711
I0
aF0
aF0.59090909090909094
aI0
aI0
aI0
aI0
assg234
(dp712
g299
(lp713
I0
aF0
aF0.69999999999999996
aI0
aI0
aI0
aI0
assV@\u7f51\u7edc\u4f4d\u7f6e
p714
(dp715
g299
(lp716
I0
aI0
aI0
aI0
aI0
aF0.1891891891891892
aI0
assV@\u901a\u8baf\u5f55
p717
(dp718
g299
(lp719
I0
aI0
aI0
aI0
aI0
aF0.027027027027027029
aI0
assV@\u7cfb\u7edf\u8bbe\u7f6e
p720
(dp721
g299
(lp722
I0
aI0
aI0
aI0
aI0
aF0.10810810810810811
aI0
assV@\u4efb\u52a1\u7ba1\u7406\u5668
p723
(dp724
g299
(lp725
I0
aI0
aI0
aI0
aI0
aF0.027027027027027029
aI0
assg108
(dp726
g299
(lp727
I0
aF0
aF1
aI0
aI0
aI0
aI0
assV@\u6587\u4ef6\u7ba1\u7406\u5668
p728
(dp729
g299
(lp730
I0
aI0
aI0
aI0
aI0
aF0.054054054054054057
aI0
assg204
(dp731
g299
(lp732
I0
aF0
aF0.75
aI0
aI0
aI0
aI0
assg206
(dp733
g299
(lp734
I0
aF0
aF0.64285714285714279
aI0
aI0
aI0
aI0
assV@\u7a0b\u5e8f\u5b89\u88c5
p735
(dp736
g299
(lp737
I0
aI0
aI0
aI0
aI0
aF0.054054054054054057
aI0
assV@\u5f55\u97f3\u673a
p738
(dp739
g299
(lp740
I0
aI0
aI0
aI0
aI0
aF0.027027027027027029
aI0
asssg42
(dp741
V@\u7535\u8bdd
p742
(dp743
g299
(lp744
I0
aI0
aI0
aI0
aI0
aF0.25
aI0
assg234
(dp745
g299
(lp746
F0
aF0
aF0.59999999999999998
aI0
aI0
aI0
aI0
assV@\u7f51\u7edc\u4f4d\u7f6e
p747
(dp748
g299
(lp749
I0
aI0
aI0
aI0
aI0
aF0.25
aI0
assg20
(dp750
g299
(lp751
F0
aF0
aF1
aI0
aI0
aI0
aI0
assV@\u4efb\u52a1\u7ba1\u7406\u5668
p752
(dp753
g299
(lp754
I0
aI0
aI0
aI0
aI0
aF0.25
aI0
assg108
(dp755
g299
(lp756
F0
aF0.0076335877862595417
aI0
aI0
aI0
aI0
aI0
assV@\u7cfb\u7edf\u8bbe\u7f6e
p757
(dp758
g299
(lp759
I0
aI0
aI0
aI0
aI0
aF0.25
aI0
assg206
(dp760
g299
(lp761
F0
aF0
aF0.5714285714285714
aI0
aI0
aI0
aI0
asssg44
(dp762
V@\u76f8\u673a
p763
(dp764
g299
(lp765
I0
aI0
aI0
aI0
aI0
aF0.15384615384615385
aI0
assV\u76f8\u673a
p766
(dp767
g299
(lp768
I0
aI0
aI0
aF0.92307692307692313
aI0
aI0
aI0
assg80
(dp769
g299
(lp770
F0
aF0
aF0.75
aI0
aI0
aI0
aI0
assV@\u7f51\u7edc\u4f4d\u7f6e
p771
(dp772
g299
(lp773
I0
aI0
aI0
aI0
aI0
aF0.15384615384615385
aI0
assg278
(dp774
g299
(lp775
F0
aF0
aF1
aI0
aI0
aI0
aI0
assV@\u4e0b\u8f7d\u7ba1\u7406\u5668
p776
(dp777
g299
(lp778
I0
aI0
aI0
aI0
aI0
aF0.15384615384615385
aI0
assV@\u7535\u8bdd
p779
(dp780
g299
(lp781
I0
aI0
aI0
aI0
aI0
aF0.076923076923076927
aI0
assg48
(dp782
g299
(lp783
F0
aF0
aF0.72727272727272729
aI0
aI0
aI0
aI0
assg234
(dp784
g299
(lp785
F0
aF0
aF0.59999999999999998
aI0
aI0
aI0
aI0
assV@\u76f8\u518c
p786
(dp787
g299
(lp788
I0
aI0
aI0
aI0
aI0
aF0.15384615384615385
aI0
assV@\u7cfb\u7edf\u8bbe\u7f6e
p789
(dp790
g299
(lp791
I0
aI0
aI0
aI0
aI0
aF0.076923076923076927
aI0
assg284
(dp792
g299
(lp793
F0
aF0
aF1
aI0
aI0
aI0
aI0
assV@\u4efb\u52a1\u7ba1\u7406\u5668
p794
(dp795
g299
(lp796
I0
aI0
aI0
aI0
aI0
aF0.076923076923076927
aI0
assV\u5fae\u535a
p797
(dp798
g299
(lp799
I0
aI0
aI0
aF0.076923076923076927
aI0
aI0
aI0
assV@\u6587\u4ef6\u7ba1\u7406\u5668
p800
(dp801
g299
(lp802
I0
aI0
aI0
aI0
aI0
aF0.076923076923076927
aI0
assg150
(dp803
g299
(lp804
F0
aF0
aF0.75
aI0
aI0
aI0
aI0
assg204
(dp805
g299
(lp806
F0
aF0
aF0.75
aI0
aI0
aI0
aI0
assg164
(dp807
g299
(lp808
F0
aF0
aF0.75
aI0
aI0
aI0
aI0
assg206
(dp809
g299
(lp810
F0
aF0
aF0.64285714285714279
aI0
aI0
aI0
aI0
assg158
(dp811
g299
(lp812
F0
aF0
aF1
aI0
aI0
aI0
aI0
assV@\u5f55\u97f3\u673a
p813
(dp814
g299
(lp815
I0
aI0
aI0
aI0
aI0
aF0.076923076923076927
aI0
asssg46
(dp816
V@\u7535\u8bdd
p817
(dp818
g299
(lp819
I0
aI0
aI0
aI0
aI0
aF0.0625
aI0
assV@\u4e0b\u8f7d\u7ba1\u7406\u5668
p820
(dp821
g299
(lp822
I0
aI0
aI0
aI0
aI0
aF0.0625
aI0
assg48
(dp823
g299
(lp824
F0
aF0
aF0.48295454545454547
aI0
aI0
aI0
aI0
assV@\u7f51\u7edc\u4f4d\u7f6e
p825
(dp826
g299
(lp827
I0
aI0
aI0
aI0
aI0
aF0.125
aI0
assV@\u84dd\u7259
p828
(dp829
g299
(lp830
I0
aI0
aI0
aI0
aI0
aF0.125
aI0
assV@\u7cfb\u7edf\u8bbe\u7f6e
p831
(dp832
g299
(lp833
I0
aI0
aI0
aI0
aI0
aF0.25
aI0
assV@\u4efb\u52a1\u7ba1\u7406\u5668
p834
(dp835
g299
(lp836
I0
aI0
aI0
aI0
aI0
aF0.0625
aI0
assV@\u901a\u8baf\u5f55
p837
(dp838
g299
(lp839
I0
aI0
aI0
aI0
aI0
aF0.0625
aI0
assV@\u6587\u4ef6\u7ba1\u7406\u5668
p840
(dp841
g299
(lp842
I0
aI0
aI0
aI0
aI0
aF0.0625
aI0
assV@\u7a0b\u5e8f\u5b89\u88c5
p843
(dp844
g299
(lp845
I0
aI0
aI0
aI0
aI0
aF0.125
aI0
assg206
(dp846
g299
(lp847
F0
aF0
aF0.5089285714285714
aI0
aI0
aI0
aI0
assV\u7238\u7238\u53bb\u54ea\u513f
p848
(dp849
g299
(lp850
I0
aI0
aI0
aF1
aI0
aI0
aI0
assg290
(dp851
g299
(lp852
F0.03125
aF0
aI0
aI0
aI0
aI0
aI0
assV@\u5f55\u97f3\u673a
p853
(dp854
g299
(lp855
I0
aI0
aI0
aI0
aI0
aF0.0625
aI0
assg250
(dp856
g299
(lp857
F0
aF0
aI0
aI0
aF0.78334748034536239
aI0
aI0
asssg48
(dp858
g142
(dp859
g299
(lp860
I0
aI0
aI0
aI0
aI0
aF0.058823529411764705
aI0
assg194
(dp861
g299
(lp862
I0
aI0
aI0
aI0
aI0
aF0.058823529411764705
aI0
assg150
(dp863
g299
(lp864
F0
aF0
aF0.75
aI0
aI0
aI0
aI0
assg12
(dp865
g299
(lp866
I0
aI0
aI0
aI0
aI0
aF0.058823529411764705
aI0
assg158
(dp867
g299
(lp868
F0
aF0
aF0.66666666666666663
aI0
aI0
aI0
aI0
assg80
(dp869
g299
(lp870
F0
aF0
aF0.75
aI0
aI0
aI0
aI0
assg164
(dp871
g299
(lp872
F0
aF0
aF0.75
aI0
aI0
aI0
aI0
assg168
(dp873
g299
(lp874
I0
aI0
aI0
aI0
aI0
aF0.058823529411764705
aI0
assg234
(dp875
g299
(lp876
F0
aF0
aF0.73333333333333339
aI0
aI0
aI0
aI0
assg172
(dp877
g299
(lp878
I0
aI0
aI0
aI0
aI0
aF0.058823529411764705
aI0
assg96
(dp879
g299
(lp880
I0
aI0
aI0
aI0
aI0
aF0.058823529411764705
aI0
assg288
(dp881
g299
(lp882
I0
aI0
aI0
aI0
aI0
aF0.23529411764705882
aI0
assg104
(dp883
g299
(lp884
I0
aI0
aI0
aI0
aI0
aF0.11764705882352941
aI0
assg108
(dp885
g299
(lp886
F0
aF0
aF0.58333333333333337
aI0
aI0
aI0
aI0
assg268
(dp887
g299
(lp888
F0
aF0
aF0.58333333333333337
aI0
aI0
aI0
aI0
assg278
(dp889
g299
(lp890
F0
aF0
aF0.66666666666666663
aI0
aI0
aI0
aI0
assg50
(dp891
g299
(lp892
I0
aI0
aI0
aI0
aI0
aF0.11764705882352941
aI0
assg284
(dp893
g299
(lp894
F0
aF0
aF0.66666666666666663
aI0
aI0
aI0
aI0
assg198
(dp895
g299
(lp896
I0
aI0
aI0
aI0
aI0
aF0.11764705882352941
aI0
assg200
(dp897
g299
(lp898
I0
aI0
aI0
aI0
aI0
aF0.058823529411764705
aI0
assg204
(dp899
g299
(lp900
F0
aF0
aF0.75
aI0
aI0
aI0
aI0
assg206
(dp901
g299
(lp902
F0
aF0
aF0.69047619047619047
aI0
aI0
aI0
aI0
asssg50
(dp903
sg52
(dp904
sg54
(dp905
V@\u76f8\u673a
p906
(dp907
g299
(lp908
I0
aI0
aI0
aI0
aI0
aF0.076923076923076927
aI0
assV@\u7535\u8bdd
p909
(dp910
g299
(lp911
I0
aI0
aI0
aI0
aI0
aF0.15384615384615385
aI0
assg80
(dp912
g299
(lp913
F0
aF0
aF0.65000000000000002
aI0
aI0
aI0
aI0
assV@\u901a\u8baf\u5f55
p914
(dp915
g299
(lp916
I0
aI0
aI0
aI0
aI0
aF0.076923076923076927
aI0
assg164
(dp917
g299
(lp918
F0
aF0
aF0.65000000000000002
aI0
aI0
aI0
aI0
assV@\u76f8\u518c
p919
(dp920
g299
(lp921
I0
aI0
aI0
aI0
aI0
aF0.076923076923076927
aI0
assg48
(dp922
g299
(lp923
F0
aF0
aF0.68181818181818188
aI0
aI0
aI0
aI0
assg234
(dp924
g299
(lp925
F0
aF0
aF0.80000000000000004
aI0
aI0
aI0
aI0
assV@\u7f51\u7edc\u4f4d\u7f6e
p926
(dp927
g299
(lp928
I0
aI0
aI0
aI0
aI0
aF0.15384615384615385
aI0
assV\u817e\u8baf\u5fae\u535a
p929
(dp930
g299
(lp931
I0
aI0
aI0
aF0.33333333333333331
aI0
aI0
aI0
assV@\u7cfb\u7edf\u8bbe\u7f6e
p932
(dp933
g299
(lp934
I0
aI0
aI0
aI0
aI0
aF0.23076923076923078
aI0
assg240
(dp935
g299
(lp936
F0
aF0.028169014084507043
aI0
aI0
aI0
aI0
aI0
assV@\u4efb\u52a1\u7ba1\u7406\u5668
p937
(dp938
g299
(lp939
I0
aI0
aI0
aI0
aI0
aF0.076923076923076927
aI0
assg108
(dp940
g299
(lp941
F0
aF0
aF0.90000000000000002
aF0.66666666666666663
aI0
aI0
aI0
assV@\u6587\u4ef6\u7ba1\u7406\u5668
p942
(dp943
g299
(lp944
I0
aI0
aI0
aI0
aI0
aF0.076923076923076927
aI0
assg150
(dp945
g299
(lp946
F0
aF0
aF0.34999999999999998
aI0
aI0
aI0
aI0
assg204
(dp947
g299
(lp948
F0
aF0
aF0.65000000000000002
aI0
aI0
aI0
aI0
assg268
(dp949
g299
(lp950
F0
aF0
aF0.59999999999999998
aI0
aI0
aI0
aI0
assg206
(dp951
g299
(lp952
F0
aF0
aF0.71428571428571441
aI0
aI0
aI0
aI0
assV@\u5f55\u97f3\u673a
p953
(dp954
g299
(lp955
I0
aI0
aI0
aI0
aI0
aF0.076923076923076927
aI0
asssg56
(dp956
V@\u7535\u8bdd
p957
(dp958
g299
(lp959
I0
aI0
aI0
aI0
aI0
aF1
aI0
assg80
(dp960
g299
(lp961
F0
aF0
aF0.75
aI0
aI0
aI0
aI0
assg164
(dp962
g299
(lp963
F0
aF0
aF0.75
aI0
aI0
aI0
aI0
assg48
(dp964
g299
(lp965
F0
aF0
aF0.59090909090909094
aI0
aI0
aI0
aI0
assg234
(dp966
g299
(lp967
F0
aF0
aF0.69999999999999996
aI0
aI0
aI0
aI0
assg108
(dp968
g299
(lp969
F0
aF0
aF1
aI0
aI0
aI0
aI0
assg204
(dp970
g299
(lp971
F0
aF0
aF0.75
aI0
aI0
aI0
aI0
assg206
(dp972
g299
(lp973
F0
aF0
aF0.64285714285714279
aI0
aI0
aI0
aI0
assg144
(dp974
g299
(lp975
F0
aF0
aI0
aI0
aF0.70510164780732154
aI0
aI0
asssg58
(dp976
sg60
(dp977
V@\u7535\u8bdd
p978
(dp979
g299
(lp980
I0
aI0
aI0
aI0
aI0
aF0.16666666666666666
aI0
assV@\u7a0b\u5e8f\u5b89\u88c5
p981
(dp982
g299
(lp983
I0
aI0
aI0
aI0
aI0
aF0.16666666666666666
aI0
assV@\u7f51\u7edc\u4f4d\u7f6e
p984
(dp985
g299
(lp986
I0
aI0
aI0
aI0
aI0
aF0.16666666666666666
aI0
assV@\u4efb\u52a1\u7ba1\u7406\u5668
p987
(dp988
g299
(lp989
I0
aI0
aI0
aI0
aI0
aF0.16666666666666666
aI0
assV@\u901a\u8baf\u5f55
p990
(dp991
g299
(lp992
I0
aI0
aI0
aI0
aI0
aF0.16666666666666666
aI0
assV@\u6587\u4ef6\u7ba1\u7406\u5668
p993
(dp994
g299
(lp995
I0
aI0
aI0
aI0
aI0
aF0.16666666666666666
aI0
asssg62
(dp996
g182
(dp997
g299
(lp998
I0
aI0
aI0
aF0.16666666666666666
aI0
aI0
aI0
assV@\u7535\u8bdd
p999
(dp1000
g299
(lp1001
I0
aI0
aI0
aI0
aI0
aF0.20000000000000001
aI0
assg210
(dp1002
g299
(lp1003
F0
aF0
aF0.4375
aI0
aI0
aI0
aI0
assV@\u76f8\u518c
p1004
(dp1005
g299
(lp1006
I0
aI0
aI0
aI0
aI0
aF0.10000000000000001
aI0
assg48
(dp1007
g299
(lp1008
F0
aF0
aF0.40340909090909094
aI0
aI0
aI0
aI0
assg234
(dp1009
g299
(lp1010
F0
aF0
aF0.28749999999999998
aI0
aI0
aI0
aI0
assV@\u7f51\u7edc\u4f4d\u7f6e
p1011
(dp1012
g299
(lp1013
I0
aI0
aI0
aI0
aI0
aF0.20000000000000001
aI0
assg20
(dp1014
g299
(lp1015
F0
aF0
aF0.6875
aI0
aI0
aI0
aI0
assg206
(dp1016
g299
(lp1017
F0
aF0
aF0.45535714285714279
aI0
aI0
aI0
aI0
assV@\u76f8\u673a
p1018
(dp1019
g299
(lp1020
I0
aI0
aI0
aI0
aI0
aF0.10000000000000001
aI0
assV@\u4efb\u52a1\u7ba1\u7406\u5668
p1021
(dp1022
g299
(lp1023
I0
aI0
aI0
aI0
aI0
aF0.10000000000000001
aI0
assg102
(dp1024
g299
(lp1025
I0
aI0
aI0
aF0.16666666666666666
aI0
aI0
aI0
assg222
(dp1026
g299
(lp1027
I0
aI0
aI0
aF0.16666666666666666
aI0
aI0
aI0
assV@\u7cfb\u7edf\u8bbe\u7f6e
p1028
(dp1029
g299
(lp1030
I0
aI0
aI0
aI0
aI0
aF0.20000000000000001
aI0
assV@\u6587\u4ef6\u7ba1\u7406\u5668
p1031
(dp1032
g299
(lp1033
I0
aI0
aI0
aI0
aI0
aF0.10000000000000001
aI0
assg156
(dp1034
g299
(lp1035
F0
aF0
aF0.6875
aI0
aI0
aI0
aI0
assg238
(dp1036
g299
(lp1037
F0
aF0
aF0.6875
aF0.16666666666666666
aI0
aI0
aI0
assV\u767e\u5ea6
p1038
(dp1039
g299
(lp1040
I0
aI0
aI0
aF0.16666666666666666
aI0
aI0
aI0
assg58
(dp1041
g299
(lp1042
I0
aI0
aI0
aF0.16666666666666666
aI0
aI0
aI0
asssg64
(dp1043
V@\u76f8\u673a
p1044
(dp1045
g299
(lp1046
I0
aI0
aI0
aI0
aI0
aF0.090909090909090912
aI0
assV@\u7535\u8bdd
p1047
(dp1048
g299
(lp1049
I0
aI0
aI0
aI0
aI0
aF0.090909090909090912
aI0
assV@\u5f55\u97f3\u673a
p1050
(dp1051
g299
(lp1052
I0
aI0
aI0
aI0
aI0
aF0.090909090909090912
aI0
assg76
(dp1053
g299
(lp1054
I0
aI0
aI0
aF1
aI0
aI0
aI0
assV@\u76f8\u518c
p1055
(dp1056
g299
(lp1057
I0
aI0
aI0
aI0
aI0
aF0.090909090909090912
aI0
assg48
(dp1058
g299
(lp1059
I0
aI0
aF0.54545454545454541
aI0
aI0
aI0
aI0
assV@\u7f51\u7edc\u4f4d\u7f6e
p1060
(dp1061
g299
(lp1062
I0
aI0
aI0
aI0
aI0
aF0.18181818181818182
aI0
assV@\u84dd\u7259
p1063
(dp1064
g299
(lp1065
I0
aI0
aI0
aI0
aI0
aF0.18181818181818182
aI0
assV@\u4efb\u52a1\u7ba1\u7406\u5668
p1066
(dp1067
g299
(lp1068
I0
aI0
aI0
aI0
aI0
aF0.090909090909090912
aI0
assV@\u901a\u8baf\u5f55
p1069
(dp1070
g299
(lp1071
I0
aI0
aI0
aI0
aI0
aF0.090909090909090912
aI0
assV@\u7cfb\u7edf\u8bbe\u7f6e
p1072
(dp1073
g299
(lp1074
I0
aI0
aI0
aI0
aI0
aF0.090909090909090912
aI0
assg156
(dp1075
g299
(lp1076
I0
aI0
aF1
aI0
aI0
aI0
aI0
assg238
(dp1077
g299
(lp1078
I0
aI0
aF1
aI0
aI0
aI0
aI0
assg210
(dp1079
g299
(lp1080
I0
aI0
aF0.75
aI0
aI0
aI0
aI0
asssg66
(dp1081
V@\u7535\u8bdd
p1082
(dp1083
g299
(lp1084
I0
aI0
aI0
aI0
aI0
aF0.076923076923076927
aI0
assg80
(dp1085
g299
(lp1086
F0
aF0
aF0.41666666666666663
aI0
aI0
aI0
aI0
assV@\u7f51\u7edc\u4f4d\u7f6e
p1087
(dp1088
g299
(lp1089
I0
aI0
aI0
aI0
aI0
aF0.15384615384615385
aI0
assg164
(dp1090
g299
(lp1091
F0
aF0
aF0.41666666666666663
aI0
aI0
aI0
aI0
assg48
(dp1092
g299
(lp1093
F0
aF0
aF0.68181818181818177
aF0.5
aI0
aI0
aI0
assg234
(dp1094
g299
(lp1095
F0
aF0
aF0.80000000000000004
aI0
aI0
aI0
aI0
assg204
(dp1096
g299
(lp1097
F0
aF0
aF0.41666666666666663
aI0
aI0
aI0
aI0
assV@\u84dd\u7259
p1098
(dp1099
g299
(lp1100
I0
aI0
aI0
aI0
aI0
aF0.15384615384615385
aI0
assV@\u7cfb\u7edf\u8bbe\u7f6e
p1101
(dp1102
g299
(lp1103
I0
aI0
aI0
aI0
aI0
aF0.076923076923076927
aI0
assV@\u901a\u8baf\u5f55
p1104
(dp1105
g299
(lp1106
I0
aI0
aI0
aI0
aI0
aF0.076923076923076927
aI0
assV@\u4efb\u52a1\u7ba1\u7406\u5668
p1107
(dp1108
g299
(lp1109
I0
aI0
aI0
aI0
aI0
aF0.076923076923076927
aI0
assg108
(dp1110
g299
(lp1111
F0
aF0
aF0.66666666666666663
aF0.5
aI0
aI0
aI0
assg150
(dp1112
g299
(lp1113
F0
aF0
aF0.58333333333333326
aI0
aI0
aI0
aI0
assg10
(dp1114
g299
(lp1115
F0
aF0
aI0
aI0
aF0.76127482677652836
aI0
aI0
assg268
(dp1116
g299
(lp1117
F0
aF0
aF0.83333333333333326
aI0
aI0
aI0
aI0
assg206
(dp1118
g299
(lp1119
F0
aF0
aF0.7142857142857143
aI0
aI0
aI0
aI0
assV@\u7a0b\u5e8f\u5b89\u88c5
p1120
(dp1121
g299
(lp1122
I0
aI0
aI0
aI0
aI0
aF0.30769230769230771
aI0
assV@\u5f55\u97f3\u673a
p1123
(dp1124
g299
(lp1125
I0
aI0
aI0
aI0
aI0
aF0.076923076923076927
aI0
asssg68
(dp1126
V@\u7535\u8bdd
p1127
(dp1128
g299
(lp1129
I0
aI0
aI0
aI0
aI0
aF1
aI0
asssg70
(dp1130
sg72
(dp1131
g80
(dp1132
g299
(lp1133
F0
aF0
aF0.38636363636363635
aI0
aI0
aI0
aI0
assg164
(dp1134
g299
(lp1135
F0
aF0
aF0.38636363636363635
aI0
aI0
aI0
aI0
assg84
(dp1136
g299
(lp1137
F0
aF0
aF0.86363636363636365
aI0
aI0
aI0
aI0
assg48
(dp1138
g299
(lp1139
F0
aF0
aF0.22727272727272727
aI0
aI0
aI0
aI0
assg234
(dp1140
g299
(lp1141
F0
aF0
aF0.33636363636363636
aI0
aI0
aI0
aI0
assg240
(dp1142
g299
(lp1143
F0
aF0.022727272727272728
aI0
aI0
aI0
aI0
aI0
assg108
(dp1144
g299
(lp1145
F0
aF0
aF0.63636363636363635
aI0
aI0
aI0
aI0
assg244
(dp1146
g299
(lp1147
F0
aF0
aF0.86363636363636365
aI0
aI0
aI0
aI0
assg204
(dp1148
g299
(lp1149
F0
aF0
aF0.38636363636363635
aI0
aI0
aI0
aI0
assg206
(dp1150
g299
(lp1151
F0
aF0
aF0.2792207792207792
aI0
aI0
aI0
aI0
asssg74
(dp1152
V@\u7535\u8bdd
p1153
(dp1154
g299
(lp1155
I0
aI0
aI0
aI0
aI0
aF0.40000000000000002
aI0
assg48
(dp1156
g299
(lp1157
F0
aF0
aF0.15340909090909091
aI0
aI0
aI0
aI0
assg234
(dp1158
g299
(lp1159
F0
aF0
aF0.69999999999999996
aI0
aI0
aI0
aI0
assV@\u7f51\u7edc\u4f4d\u7f6e
p1160
(dp1161
g299
(lp1162
I0
aI0
aI0
aI0
aI0
aF0.40000000000000002
aI0
assg20
(dp1163
g299
(lp1164
F0
aF0
aF0.9375
aI0
aI0
aI0
aI0
assV@\u901a\u8baf\u5f55
p1165
(dp1166
g299
(lp1167
I0
aI0
aI0
aI0
aI0
aF0.20000000000000001
aI0
assg150
(dp1168
g299
(lp1169
F0
aF0
aF0.3125
aI0
aI0
aI0
aI0
assg268
(dp1170
g299
(lp1171
F0
aF0
aF0.5625
aI0
aI0
aI0
aI0
assg206
(dp1172
g299
(lp1173
F0
aF0
aF0.64285714285714279
aI0
aI0
aI0
aI0
asssg76
(dp1174
sg78
(dp1175
V@\u76f8\u673a
p1176
(dp1177
g299
(lp1178
I0
aI0
aI0
aI0
aI0
aF0.043478260869565216
aI0
assV@\u7535\u8bdd
p1179
(dp1180
g299
(lp1181
I0
aI0
aI0
aI0
aI0
aF0.13043478260869565
aI0
assg80
(dp1182
g299
(lp1183
F0
aF0
aF1
aI0
aI0
aI0
aI0
assV@\u901a\u8baf\u5f55
p1184
(dp1185
g299
(lp1186
I0
aI0
aI0
aI0
aI0
aF0.043478260869565216
aI0
assg278
(dp1187
g299
(lp1188
F0
aF0
aF0.75
aI0
aI0
aI0
aI0
assV@\u76f8\u518c
p1189
(dp1190
g299
(lp1191
I0
aI0
aI0
aI0
aI0
aF0.043478260869565216
aI0
assg48
(dp1192
g299
(lp1193
F0
aF0
aF0.81818181818181823
aI0
aI0
aI0
aI0
assg234
(dp1194
g299
(lp1195
F0
aF0
aF0.80000000000000004
aI0
aI0
aI0
aI0
assV@\u7f51\u7edc\u4f4d\u7f6e
p1196
(dp1197
g299
(lp1198
I0
aI0
aI0
aI0
aI0
aF0.21739130434782608
aI0
assV@\u84dd\u7259
p1199
(dp1200
g299
(lp1201
I0
aI0
aI0
aI0
aI0
aF0.086956521739130432
aI0
assV@\u7cfb\u7edf\u8bbe\u7f6e
p1202
(dp1203
g299
(lp1204
I0
aI0
aI0
aI0
aI0
aF0.30434782608695654
aI0
assg284
(dp1205
g299
(lp1206
F0
aF0
aF0.75
aI0
aI0
aI0
aI0
assV@\u4efb\u52a1\u7ba1\u7406\u5668
p1207
(dp1208
g299
(lp1209
I0
aI0
aI0
aI0
aI0
aF0.043478260869565216
aI0
assg108
(dp1210
g299
(lp1211
F0
aF0
aF0.75
aI0
aI0
aI0
aI0
assV@\u6587\u4ef6\u7ba1\u7406\u5668
p1212
(dp1213
g299
(lp1214
I0
aI0
aI0
aI0
aI0
aF0.043478260869565216
aI0
assg150
(dp1215
g299
(lp1216
F0
aF0
aF0.5
aI0
aI0
aI0
aI0
assg204
(dp1217
g299
(lp1218
F0
aF0
aF1
aI0
aI0
aI0
aI0
assg164
(dp1219
g299
(lp1220
F0
aF0
aF1
aI0
aI0
aI0
aI0
assg206
(dp1221
g299
(lp1222
F0
aF0
aF0.7857142857142857
aI0
aI0
aI0
aI0
assg158
(dp1223
g299
(lp1224
F0
aF0
aF0.75
aI0
aI0
aI0
aI0
assV@\u7a0b\u5e8f\u5b89\u88c5
p1225
(dp1226
g299
(lp1227
I0
aI0
aI0
aI0
aI0
aF0.043478260869565216
aI0
asssg80
(dp1228
g212
(dp1229
g299
(lp1230
F0
aF0.019417475728155338
aI0
aI0
aI0
aI0
aI0
assg64
(dp1231
g299
(lp1232
F0
aF0.0026737967914438501
aI0
aI0
aI0
aI0
aI0
assV@\u76f8\u673a
p1233
(dp1234
g299
(lp1235
I0
aI0
aI0
aI0
aI0
aF0.1111111111111111
aI0
assg72
(dp1236
g299
(lp1237
F0
aF0.012658227848101266
aI0
aI0
aI0
aI0
aI0
assg150
(dp1238
g299
(lp1239
F0
aF0
aF0.75
aI0
aI0
aI0
aI0
assg10
(dp1240
g299
(lp1241
F0
aF0.023809523809523808
aI0
aI0
aF0.76568943325144156
aI0
aI0
assV@\u5f55\u97f3\u673a
p1242
(dp1243
g299
(lp1244
I0
aI0
aI0
aI0
aI0
aF0.1111111111111111
aI0
assg158
(dp1245
g299
(lp1246
F0
aF0
aF0.625
aI0
aI0
aI0
aI0
assg74
(dp1247
g299
(lp1248
F0
aF0.029126213592233011
aI0
aI0
aI0
aI0
aI0
assg258
(dp1249
g299
(lp1250
F0
aF0.015748031496062992
aI0
aI0
aI0
aI0
aI0
assg164
(dp1251
g299
(lp1252
F0
aF0
aF0.875
aI0
aI0
aI0
aI0
assV@\u76f8\u518c
p1253
(dp1254
g299
(lp1255
I0
aI0
aI0
aI0
aI0
aF0.1111111111111111
aI0
assg18
(dp1256
g299
(lp1257
F0
aF0.01680672268907563
aI0
aI0
aI0
aI0
aI0
assg114
(dp1258
g299
(lp1259
F0
aF0.013888888888888888
aI0
aI0
aI0
aI0
aI0
assg234
(dp1260
g299
(lp1261
F0
aF0
aF0.90000000000000002
aI0
aI0
aI0
aI0
assg244
(dp1262
g299
(lp1263
F0.0076923076923076927
aF0.025000000000000001
aI0
aI0
aI0
aI0
aI0
assg92
(dp1264
g299
(lp1265
F0
aF0.011627906976744186
aI0
aI0
aI0
aI0
aI0
assg176
(dp1266
g299
(lp1267
F0
aF0.018867924528301886
aI0
aI0
aI0
aI0
aI0
assg248
(dp1268
g299
(lp1269
F0
aF0.016949152542372881
aI0
aI0
aI0
aI0
aI0
assV@\u7535\u8bdd
p1270
(dp1271
g299
(lp1272
I0
aI0
aI0
aI0
aI0
aF0.1111111111111111
aI0
assg256
(dp1273
g299
(lp1274
F0
aF0.01020408163265306
aI0
aI0
aI0
aI0
aI0
assg228
(dp1275
g299
(lp1276
I0
aI0
aI0
aF1
aI0
aI0
aI0
assg108
(dp1277
g299
(lp1278
F0
aF0.0031746031746031746
aF0.75
aI0
aI0
aI0
aI0
assV@\u7cfb\u7edf\u8bbe\u7f6e
p1279
(dp1280
g299
(lp1281
I0
aI0
aI0
aI0
aI0
aF0.1111111111111111
aI0
assg268
(dp1282
g299
(lp1283
F0
aF0
aF0.625
aI0
aI0
aI0
aI0
assg272
(dp1284
g299
(lp1285
F0
aF0.025000000000000001
aI0
aI0
aI0
aI0
aI0
assg190
(dp1286
g299
(lp1287
F0
aF0.005681818181818182
aI0
aI0
aI0
aI0
aI0
assg274
(dp1288
g299
(lp1289
F0
aF0.0058479532163742687
aI0
aI0
aI0
aI0
aI0
assg278
(dp1290
g299
(lp1291
F0
aF0
aF0.625
aI0
aI0
aI0
aI0
assg122
(dp1292
g299
(lp1293
F0
aF0.033898305084745763
aI0
aI0
aI0
aI0
aI0
assg48
(dp1294
g299
(lp1295
F0
aF0
aF0.90909090909090917
aI0
aI0
aI0
aI0
assV@\u7f51\u7edc\u4f4d\u7f6e
p1296
(dp1297
g299
(lp1298
I0
aI0
aI0
aI0
aI0
aF0.33333333333333331
aI0
assg284
(dp1299
g299
(lp1300
F0
aF0
aF0.625
aI0
aI0
aI0
aI0
assV@\u901a\u8baf\u5f55
p1301
(dp1302
g299
(lp1303
I0
aI0
aI0
aI0
aI0
aF0.1111111111111111
aI0
assg134
(dp1304
g299
(lp1305
F0
aF0.037499999999999999
aI0
aI0
aI0
aI0
aI0
assg204
(dp1306
g299
(lp1307
F0
aF0
aF0.875
aI0
aI0
aI0
aI0
assg206
(dp1308
g299
(lp1309
F0
aF0
aF0.85714285714285721
aI0
aI0
aI0
aI0
assg290
(dp1310
g299
(lp1311
F0
aF0.010526315789473684
aI0
aI0
aI0
aI0
aI0
asssg82
(dp1312
V@\u7535\u8bdd
p1313
(dp1314
g299
(lp1315
I0
aI0
aI0
aI0
aI0
aF0.25
aI0
assg80
(dp1316
g299
(lp1317
F0
aF0
aF0.75
aI0
aI0
aI0
aI0
assg164
(dp1318
g299
(lp1319
F0
aF0
aF0.75
aI0
aI0
aI0
aI0
assg16
(dp1320
g299
(lp1321
F0
aF0
aI0
aI0
aF0.81612912023056872
aI0
aI0
assg48
(dp1322
g299
(lp1323
F0
aF0
aF0.59090909090909094
aI0
aI0
aI0
aI0
assg234
(dp1324
g299
(lp1325
F0
aF0
aF0.69999999999999996
aI0
aI0
aI0
aI0
assV@\u901a\u8baf\u5f55
p1326
(dp1327
g299
(lp1328
I0
aI0
aI0
aI0
aI0
aF0.25
aI0
assV@\u4efb\u52a1\u7ba1\u7406\u5668
p1329
(dp1330
g299
(lp1331
I0
aI0
aI0
aI0
aI0
aF0.25
aI0
assg108
(dp1332
g299
(lp1333
F0
aF0
aF1
aI0
aI0
aI0
aI0
assV@\u6587\u4ef6\u7ba1\u7406\u5668
p1334
(dp1335
g299
(lp1336
I0
aI0
aI0
aI0
aI0
aF0.25
aI0
assg204
(dp1337
g299
(lp1338
F0
aF0
aF0.75
aI0
aI0
aI0
aI0
assg206
(dp1339
g299
(lp1340
F0
aF0
aF0.64285714285714279
aI0
aI0
aI0
aI0
asssg84
(dp1341
g80
(dp1342
g299
(lp1343
F0
aF0
aF0.3125
aI0
aI0
aI0
aI0
assg278
(dp1344
g299
(lp1345
F0
aF0
aF0.5625
aI0
aI0
aI0
aI0
assg48
(dp1346
g299
(lp1347
F0
aF0
aF0.28977272727272729
aI0
aI0
aI0
aI0
assg234
(dp1348
g299
(lp1349
F0
aF0
aF0.16250000000000001
aI0
aI0
aI0
aI0
assg284
(dp1350
g299
(lp1351
F0
aF0
aF0.5625
aI0
aI0
aI0
aI0
assg244
(dp1352
g299
(lp1353
F0
aF0
aF0.9375
aI0
aI0
aI0
aI0
assg150
(dp1354
g299
(lp1355
F0
aF0
aF0.3125
aI0
aI0
aI0
aI0
assg204
(dp1356
g299
(lp1357
F0
aF0
aF0.3125
aI0
aI0
aI0
aI0
assg164
(dp1358
g299
(lp1359
F0
aF0
aF0.3125
aI0
aI0
aI0
aI0
assg206
(dp1360
g299
(lp1361
F0
aF0
aF0.20535714285714285
aI0
aI0
aI0
aI0
assg158
(dp1362
g299
(lp1363
F0
aF0
aF0.5625
aI0
aI0
aI0
aI0
asssg86
(dp1364
V@\u76f8\u673a
p1365
(dp1366
g299
(lp1367
I0
aI0
aI0
aI0
aI0
aF0.083333333333333329
aI0
assV@\u7535\u8bdd
p1368
(dp1369
g299
(lp1370
I0
aI0
aI0
aI0
aI0
aF0.083333333333333329
aI0
assg80
(dp1371
g299
(lp1372
F0
aF0
aF0.83333333333333326
aI0
aI0
aI0
aI0
assg278
(dp1373
g299
(lp1374
F0
aF0
aF0.66666666666666663
aI0
aI0
aI0
aI0
assV@\u76f8\u518c
p1375
(dp1376
g299
(lp1377
I0
aI0
aI0
aI0
aI0
aF0.083333333333333329
aI0
assg48
(dp1378
g299
(lp1379
F0
aF0
aF0.65151515151515149
aI0
aI0
aI0
aI0
assg234
(dp1380
g299
(lp1381
F0
aF0
aF0.6333333333333333
aI0
aI0
aI0
aI0
assV@\u7f51\u7edc\u4f4d\u7f6e
p1382
(dp1383
g299
(lp1384
I0
aI0
aI0
aI0
aI0
aF0.16666666666666666
aI0
assV@\u84dd\u7259
p1385
(dp1386
g299
(lp1387
I0
aI0
aI0
aI0
aI0
aF0.083333333333333329
aI0
assV@\u7cfb\u7edf\u8bbe\u7f6e
p1388
(dp1389
g299
(lp1390
I0
aI0
aI0
aI0
aI0
aF0.16666666666666666
aI0
assg284
(dp1391
g299
(lp1392
F0
aF0
aF0.66666666666666663
aI0
aI0
aI0
aI0
assV@\u4efb\u52a1\u7ba1\u7406\u5668
p1393
(dp1394
g299
(lp1395
I0
aI0
aI0
aI0
aI0
aF0.16666666666666666
aI0
assg108
(dp1396
g299
(lp1397
F0
aF0
aF0.66666666666666663
aI0
aI0
aI0
aI0
assg150
(dp1398
g299
(lp1399
F0
aF0
aF0.41666666666666663
aI0
aI0
aI0
aI0
assg204
(dp1400
g299
(lp1401
F0
aF0
aF0.83333333333333326
aI0
aI0
aI0
aI0
assg164
(dp1402
g299
(lp1403
F0
aF0
aF0.83333333333333326
aI0
aI0
aI0
aI0
assg206
(dp1404
g299
(lp1405
F0
aF0
aF0.61904761904761907
aI0
aI0
aI0
aI0
assg158
(dp1406
g299
(lp1407
F0
aF0
aF0.66666666666666663
aI0
aI0
aI0
aI0
assV@\u7a0b\u5e8f\u5b89\u88c5
p1408
(dp1409
g299
(lp1410
I0
aI0
aI0
aI0
aI0
aF0.083333333333333329
aI0
assV@\u5f55\u97f3\u673a
p1411
(dp1412
g299
(lp1413
I0
aI0
aI0
aI0
aI0
aF0.083333333333333329
aI0
asssg88
(dp1414
V@\u7535\u8bdd
p1415
(dp1416
g299
(lp1417
I0
aI0
aI0
aI0
aI0
aF0.22222222222222221
aI0
assg48
(dp1418
g299
(lp1419
F0
aF0
aF0.54545454545454541
aI0
aI0
aI0
aI0
assV@\u65e5\u5386
p1420
(dp1421
g299
(lp1422
I0
aI0
aI0
aI0
aI0
aF0.22222222222222221
aI0
assV@\u7f51\u7edc\u4f4d\u7f6e
p1423
(dp1424
g299
(lp1425
I0
aI0
aI0
aI0
aI0
aF0.22222222222222221
aI0
assV@\u4efb\u52a1\u7ba1\u7406\u5668
p1426
(dp1427
g299
(lp1428
I0
aI0
aI0
aI0
aI0
aF0.22222222222222221
aI0
assV@\u7cfb\u7edf\u8bbe\u7f6e
p1429
(dp1430
g299
(lp1431
I0
aI0
aI0
aI0
aI0
aF0.1111111111111111
aI0
assg206
(dp1432
g299
(lp1433
F0
aF0
aF0.5714285714285714
aI0
aI0
aI0
aI0
assV\u7238\u7238\u53bb\u54ea\u513f
p1434
(dp1435
g299
(lp1436
I0
aI0
aI0
aF1
aI0
aI0
aI0
asssg90
(dp1437
V@\u7535\u8bdd
p1438
(dp1439
g299
(lp1440
I0
aI0
aI0
aI0
aI0
aF0.5
aI0
assV@\u7f51\u7edc\u4f4d\u7f6e
p1441
(dp1442
g299
(lp1443
I0
aI0
aI0
aI0
aI0
aF0.5
aI0
asssg92
(dp1444
V@\u7535\u8bdd
p1445
(dp1446
g299
(lp1447
I0
aI0
aI0
aI0
aI0
aF0.16666666666666666
aI0
assg80
(dp1448
g299
(lp1449
F0
aF0
aF0.75
aI0
aI0
aI0
aI0
assV@\u7f51\u7edc\u4f4d\u7f6e
p1450
(dp1451
g299
(lp1452
I0
aI0
aI0
aI0
aI0
aF0.41666666666666669
aI0
assg164
(dp1453
g299
(lp1454
F0
aF0
aF0.75
aI0
aI0
aI0
aI0
assV@\u4e0b\u8f7d\u7ba1\u7406\u5668
p1455
(dp1456
g299
(lp1457
I0
aI0
aI0
aI0
aI0
aF0.083333333333333329
aI0
assg48
(dp1458
g299
(lp1459
F0
aF0
aF0.59090909090909094
aI0
aI0
aI0
aI0
assg234
(dp1460
g299
(lp1461
F0
aF0
aF0.69999999999999996
aI0
aI0
aI0
aI0
assV@\u7cfb\u7edf\u8bbe\u7f6e
p1462
(dp1463
g299
(lp1464
I0
aI0
aI0
aI0
aI0
aF0.25
aI0
assV@\u4efb\u52a1\u7ba1\u7406\u5668
p1465
(dp1466
g299
(lp1467
I0
aI0
aI0
aI0
aI0
aF0.083333333333333329
aI0
assg108
(dp1468
g299
(lp1469
F0
aF0
aF1
aI0
aI0
aI0
aI0
assg204
(dp1470
g299
(lp1471
F0
aF0
aF0.75
aI0
aI0
aI0
aI0
assg206
(dp1472
g299
(lp1473
F0
aF0
aF0.64285714285714279
aI0
aI0
aI0
aI0
asssg94
(dp1474
g184
(dp1475
g299
(lp1476
I0
aI0
aI0
aF0.25
aI0
aI0
aI0
assg80
(dp1477
g299
(lp1478
F0
aF0
aF0.5
aI0
aI0
aI0
aI0
assg162
(dp1479
g299
(lp1480
F0
aF0
aI0
aI0
aF0.72271363769225894
aI0
aI0
assg164
(dp1481
g299
(lp1482
F0
aF0
aF0.5
aI0
aI0
aI0
aI0
assV@\u7535\u8bdd
p1483
(dp1484
g299
(lp1485
I0
aI0
aI0
aI0
aI0
aF0.15384615384615385
aI0
assg48
(dp1486
g299
(lp1487
F0
aF0
aF0.34090909090909094
aI0
aI0
aI0
aI0
assg234
(dp1488
g299
(lp1489
F0
aF0
aF0.80000000000000004
aI0
aI0
aI0
aI0
assV\u6dd8\u5b9d
p1490
(dp1491
g299
(lp1492
I0
aI0
aI0
aF0.25
aI0
aI0
aI0
assg20
(dp1493
g299
(lp1494
F0
aF0
aF0.75
aI0
aI0
aI0
aI0
assV@\u901a\u8baf\u5f55
p1495
(dp1496
g299
(lp1497
I0
aI0
aI0
aI0
aI0
aF0.076923076923076927
aI0
assV@\u7cfb\u7edf\u8bbe\u7f6e
p1498
(dp1499
g299
(lp1500
I0
aI0
aI0
aI0
aI0
aF0.15384615384615385
aI0
assV@\u5f55\u97f3\u673a
p1501
(dp1502
g299
(lp1503
I0
aI0
aI0
aI0
aI0
aF0.076923076923076927
aI0
assV@\u4efb\u52a1\u7ba1\u7406\u5668
p1504
(dp1505
g299
(lp1506
I0
aI0
aI0
aI0
aI0
aF0.15384615384615385
aI0
assg108
(dp1507
g299
(lp1508
F0
aF0
aF0.75
aI0
aI0
aI0
aI0
assV@\u6587\u4ef6\u7ba1\u7406\u5668
p1509
(dp1510
g299
(lp1511
I0
aI0
aI0
aI0
aI0
aF0.076923076923076927
aI0
assV\u767e\u5ea6\u5730\u56fe
p1512
(dp1513
g299
(lp1514
I0
aI0
aI0
aF0.25
aI0
aI0
aI0
assg204
(dp1515
g299
(lp1516
F0
aF0
aF0.5
aI0
aI0
aI0
aI0
assg206
(dp1517
g299
(lp1518
F0
aF0
aF0.71428571428571419
aI0
aI0
aI0
aI0
assV\u9ad8\u5fb7\u5730\u56fe
p1519
(dp1520
g299
(lp1521
I0
aI0
aI0
aF0.25
aI0
aI0
aI0
assV@\u7f51\u7edc\u4f4d\u7f6e
p1522
(dp1523
g299
(lp1524
I0
aI0
aI0
aI0
aI0
aF0.30769230769230771
aI0
asssg96
(dp1525
sg98
(dp1526
sg100
(dp1527
sg102
(dp1528
sg104
(dp1529
sg106
(dp1530
V@\u7535\u8bdd
p1531
(dp1532
g299
(lp1533
I0
aI0
aI0
aI0
aI0
aF0.125
aI0
assg80
(dp1534
g299
(lp1535
F0
aF0
aF0.75
aI0
aI0
aI0
aI0
assg164
(dp1536
g299
(lp1537
F0
aF0
aF0.75
aI0
aI0
aI0
aI0
assg48
(dp1538
g299
(lp1539
F0
aF0
aF0.59090909090909094
aI0
aI0
aI0
aI0
assg234
(dp1540
g299
(lp1541
F0
aF0
aF0.69999999999999996
aI0
aI0
aI0
aI0
assV@\u7cfb\u7edf\u8bbe\u7f6e
p1542
(dp1543
g299
(lp1544
I0
aI0
aI0
aI0
aI0
aF0.125
aI0
assV@\u4efb\u52a1\u7ba1\u7406\u5668
p1545
(dp1546
g299
(lp1547
I0
aI0
aI0
aI0
aI0
aF0.125
aI0
assg108
(dp1548
g299
(lp1549
F0
aF0.0075187969924812026
aF1
aI0
aI0
aI0
aI0
assV\u7545\u8bfb
p1550
(dp1551
g299
(lp1552
I0
aI0
aI0
aF1
aI0
aI0
aI0
assg204
(dp1553
g299
(lp1554
F0
aF0
aF0.75
aI0
aI0
aI0
aI0
assg206
(dp1555
g299
(lp1556
F0
aF0
aF0.64285714285714279
aI0
aI0
aI0
aI0
assV@\u7a0b\u5e8f\u5b89\u88c5
p1557
(dp1558
g299
(lp1559
I0
aI0
aI0
aI0
aI0
aF0.625
aI0
asssg108
(dp1560
g210
(dp1561
g299
(lp1562
F0
aF0.010101010101010102
aI0
aI0
aI0
aI0
aI0
assg212
(dp1563
g299
(lp1564
F0
aF0.037499999999999999
aI0
aI0
aI0
aI0
aI0
assg64
(dp1565
g299
(lp1566
F0
aF0.0028490028490028491
aI0
aI0
aI0
aI0
aI0
assV@\u76f8\u673a
p1567
(dp1568
g299
(lp1569
I0
aI0
aI0
aI0
aI0
aF0.055555555555555552
aI0
assg72
(dp1570
g299
(lp1571
F0
aF0.017857142857142856
aI0
aI0
aI0
aI0
aI0
assg10
(dp1572
g299
(lp1573
F0
aF0.032786885245901641
aI0
aI0
aI0
aI0
aI0
assV@\u5f55\u97f3\u673a
p1574
(dp1575
g299
(lp1576
I0
aI0
aI0
aI0
aI0
aF0.055555555555555552
aI0
assg74
(dp1577
g299
(lp1578
F0
aF0.037499999999999999
aI0
aI0
aI0
aI0
aI0
assg80
(dp1579
g299
(lp1580
F0
aF0
aF0.75
aI0
aI0
aI0
aI0
assg164
(dp1581
g299
(lp1582
F0
aF0
aF0.75
aI0
aI0
aI0
aI0
assV@\u76f8\u518c
p1583
(dp1584
g299
(lp1585
I0
aI0
aI0
aI0
aI0
aF0.055555555555555552
aI0
assg18
(dp1586
g299
(lp1587
F0
aF0.020833333333333332
aI0
aI0
aI0
aI0
aI0
assg114
(dp1588
g299
(lp1589
F0
aF0.020408163265306121
aI0
aI0
aI0
aI0
aI0
assg234
(dp1590
g299
(lp1591
F0
aF0
aF0.69999999999999996
aI0
aI0
aI0
aI0
assV@\u4efb\u52a1\u7ba1\u7406\u5668
p1592
(dp1593
g299
(lp1594
I0
aI0
aI0
aI0
aI0
aF0.16666666666666666
aI0
assg244
(dp1595
g299
(lp1596
F0
aF0.030927835051546393
aI0
aI0
aI0
aI0
aI0
assg92
(dp1597
g299
(lp1598
F0
aF0.015873015873015872
aI0
aI0
aI0
aI0
aI0
assg176
(dp1599
g299
(lp1600
F0
aF0.024096385542168676
aI0
aI0
aI0
aI0
aI0
assg248
(dp1601
g299
(lp1602
F0
aF0.021052631578947368
aI0
aI0
aI0
aI0
aI0
assV@\u7535\u8bdd
p1603
(dp1604
g299
(lp1605
I0
aI0
aI0
aI0
aI0
aF0.1111111111111111
aI0
assg256
(dp1606
g299
(lp1607
F0
aF0.013333333333333334
aI0
aI0
aI0
aI0
aI0
assg258
(dp1608
g299
(lp1609
F0
aF0.019230769230769232
aI0
aI0
aI0
aI0
aI0
assg118
(dp1610
g299
(lp1611
I0
aI0
aI0
aF1
aI0
aI0
aI0
assV@\u7cfb\u7edf\u8bbe\u7f6e
p1612
(dp1613
g299
(lp1614
I0
aI0
aI0
aI0
aI0
aF0.27777777777777779
aI0
assg272
(dp1615
g299
(lp1616
F0
aF0.035087719298245612
aI0
aI0
aI0
aI0
aI0
assg190
(dp1617
g299
(lp1618
F0
aF0.0065359477124183009
aI0
aI0
aI0
aI0
aI0
assg274
(dp1619
g299
(lp1620
F0
aF0.0067567567567567571
aI0
aI0
aI0
aI0
aI0
assg192
(dp1621
g299
(lp1622
F0
aF0.013698630136986301
aI0
aI0
aI0
aI0
aI0
assg122
(dp1623
g299
(lp1624
F0
aF0.042105263157894736
aI0
aI0
aI0
aI0
aI0
assg48
(dp1625
g299
(lp1626
F0
aF0
aF0.59090909090909094
aI0
aI0
aI0
aI0
assV@\u7f51\u7edc\u4f4d\u7f6e
p1627
(dp1628
g299
(lp1629
I0
aI0
aI0
aI0
aI0
aF0.1111111111111111
aI0
assV@\u901a\u8baf\u5f55
p1630
(dp1631
g299
(lp1632
I0
aI0
aI0
aI0
aI0
aF0.1111111111111111
aI0
assg134
(dp1633
g299
(lp1634
F0
aF0.052631578947368418
aI0
aI0
aI0
aI0
aI0
assV@\u6587\u4ef6\u7ba1\u7406\u5668
p1635
(dp1636
g299
(lp1637
I0
aI0
aI0
aI0
aI0
aF0.055555555555555552
aI0
assg204
(dp1638
g299
(lp1639
F0
aF0
aF0.75
aI0
aI0
aI0
aI0
assg206
(dp1640
g299
(lp1641
F0
aF0
aF0.64285714285714279
aI0
aI0
aI0
aI0
assg290
(dp1642
g299
(lp1643
F0
aF0.013888888888888888
aI0
aI0
aI0
aI0
aI0
asssg110
(dp1644
sg112
(dp1645
VQQ
p1646
(dp1647
g299
(lp1648
I0
aI0
aI0
aF1
aI0
aI0
aI0
assV@\u7535\u8bdd
p1649
(dp1650
g299
(lp1651
I0
aI0
aI0
aI0
aI0
aF0.071428571428571425
aI0
assg48
(dp1652
g299
(lp1653
F0
aF0
aF0.59090909090909094
aI0
aI0
aI0
aI0
assg234
(dp1654
g299
(lp1655
F0
aF0
aF0.59999999999999998
aI0
aI0
aI0
aI0
assV@\u7f51\u7edc\u4f4d\u7f6e
p1656
(dp1657
g299
(lp1658
I0
aI0
aI0
aI0
aI0
aF0.14285714285714285
aI0
assV@\u7cfb\u7edf\u8bbe\u7f6e
p1659
(dp1660
g299
(lp1661
I0
aI0
aI0
aI0
aI0
aF0.14285714285714285
aI0
assV@\u4efb\u52a1\u7ba1\u7406\u5668
p1662
(dp1663
g299
(lp1664
I0
aI0
aI0
aI0
aI0
aF0.14285714285714285
aI0
assV@\u901a\u8baf\u5f55
p1665
(dp1666
g299
(lp1667
I0
aI0
aI0
aI0
aI0
aF0.14285714285714285
aI0
assV@\u6587\u4ef6\u7ba1\u7406\u5668
p1668
(dp1669
g299
(lp1670
I0
aI0
aI0
aI0
aI0
aF0.14285714285714285
aI0
assg150
(dp1671
g299
(lp1672
F0
aF0
aF0.75
aI0
aI0
aI0
aI0
assV@\u7a0b\u5e8f\u5b89\u88c5
p1673
(dp1674
g299
(lp1675
I0
aI0
aI0
aI0
aI0
aF0.14285714285714285
aI0
assg268
(dp1676
g299
(lp1677
F0
aF0
aF1
aI0
aI0
aI0
aI0
assg206
(dp1678
g299
(lp1679
F0
aF0
aF0.5714285714285714
aI0
aI0
aI0
aI0
assV@\u5f55\u97f3\u673a
p1680
(dp1681
g299
(lp1682
I0
aI0
aI0
aI0
aI0
aF0.071428571428571425
aI0
asssg114
(dp1683
V@\u7535\u8bdd
p1684
(dp1685
g299
(lp1686
I0
aI0
aI0
aI0
aI0
aF0.14285714285714285
aI0
assg80
(dp1687
g299
(lp1688
F0
aF0
aF0.41666666666666663
aI0
aI0
aI0
aI0
assg164
(dp1689
g299
(lp1690
F0
aF0
aF0.41666666666666663
aI0
aI0
aI0
aI0
assg48
(dp1691
g299
(lp1692
F0
aF0
aF0.68181818181818177
aI0
aI0
aI0
aI0
assg234
(dp1693
g299
(lp1694
F0
aF0
aF0.80000000000000004
aI0
aI0
aI0
aI0
assV@\u7f51\u7edc\u4f4d\u7f6e
p1695
(dp1696
g299
(lp1697
I0
aI0
aI0
aI0
aI0
aF0.7142857142857143
aI0
assg240
(dp1698
g299
(lp1699
F0
aF0.0093457943925233638
aI0
aI0
aI0
aI0
aI0
assg108
(dp1700
g299
(lp1701
F0
aF0
aF0.66666666666666663
aI0
aI0
aI0
aI0
assg150
(dp1702
g299
(lp1703
F0
aF0
aF0.58333333333333326
aI0
aI0
aI0
aI0
assg204
(dp1704
g299
(lp1705
F0
aF0
aF0.41666666666666663
aI0
aI0
aI0
aI0
assg268
(dp1706
g299
(lp1707
F0
aF0
aF0.83333333333333326
aI0
aI0
aI0
aI0
assg206
(dp1708
g299
(lp1709
F0
aF0
aF0.7142857142857143
aI0
aI0
aI0
aI0
assV@\u7a0b\u5e8f\u5b89\u88c5
p1710
(dp1711
g299
(lp1712
I0
aI0
aI0
aI0
aI0
aF0.14285714285714285
aI0
asssg116
(dp1713
VQQ
p1714
(dp1715
g299
(lp1716
I0
aI0
aI0
aF0.25
aI0
aI0
aI0
assV@\u7535\u8bdd
p1717
(dp1718
g299
(lp1719
I0
aI0
aI0
aI0
aI0
aF0.090909090909090912
aI0
assV@\u5f55\u97f3\u673a
p1720
(dp1721
g299
(lp1722
I0
aI0
aI0
aI0
aI0
aF0.090909090909090912
aI0
assV@\u76f8\u518c
p1723
(dp1724
g299
(lp1725
I0
aI0
aI0
aI0
aI0
aF0.090909090909090912
aI0
assV\u5fae\u4fe1
p1726
(dp1727
g299
(lp1728
I0
aI0
aI0
aF0.25
aI0
aI0
aI0
assg234
(dp1729
g299
(lp1730
I0
aI0
aF0.59999999999999998
aI0
aI0
aI0
aI0
assV@\u7f51\u7edc\u4f4d\u7f6e
p1731
(dp1732
g299
(lp1733
I0
aI0
aI0
aI0
aI0
aF0.27272727272727271
aI0
assg20
(dp1734
g299
(lp1735
I0
aI0
aF1
aI0
aI0
aI0
aI0
assV@\u901a\u8baf\u5f55
p1736
(dp1737
g299
(lp1738
I0
aI0
aI0
aI0
aI0
aF0.090909090909090912
aI0
assV@\u76f8\u673a
p1739
(dp1740
g299
(lp1741
I0
aI0
aI0
aI0
aI0
aF0.090909090909090912
aI0
assV@\u4efb\u52a1\u7ba1\u7406\u5668
p1742
(dp1743
g299
(lp1744
I0
aI0
aI0
aI0
aI0
aF0.090909090909090912
aI0
assV\u5fae\u535a
p1745
(dp1746
g299
(lp1747
I0
aI0
aI0
aF0.25
aI0
aI0
aI0
assV@\u6587\u4ef6\u7ba1\u7406\u5668
p1748
(dp1749
g299
(lp1750
I0
aI0
aI0
aI0
aI0
aF0.090909090909090912
aI0
assV@\u7cfb\u7edf\u8bbe\u7f6e
p1751
(dp1752
g299
(lp1753
I0
aI0
aI0
aI0
aI0
aF0.090909090909090912
aI0
assg206
(dp1754
g299
(lp1755
I0
aI0
aF0.5714285714285714
aI0
aI0
aI0
aI0
assg226
(dp1756
g299
(lp1757
I0
aI0
aI0
aF0.25
aI0
aI0
aI0
asssg118
(dp1758
sg120
(dp1759
g84
(dp1760
g299
(lp1761
I0
aF0
aF1
aI0
aI0
aI0
aI0
assV@\u7535\u8bdd
p1762
(dp1763
g299
(lp1764
I0
aI0
aI0
aI0
aI0
aF0.25
aI0
assV@\u7f51\u7edc\u4f4d\u7f6e
p1765
(dp1766
g299
(lp1767
I0
aI0
aI0
aI0
aI0
aF0.25
aI0
assg244
(dp1768
g299
(lp1769
I0
aF0
aF1
aI0
aI0
aI0
aI0
assV@\u84dd\u7259
p1770
(dp1771
g299
(lp1772
I0
aI0
aI0
aI0
aI0
aF0.5
aI0
asssg122
(dp1773
V@\u7535\u8bdd
p1774
(dp1775
g299
(lp1776
I0
aI0
aI0
aI0
aI0
aF0.20000000000000001
aI0
assg80
(dp1777
g299
(lp1778
F0
aF0
aF0.64285714285714279
aI0
aI0
aI0
aI0
assg278
(dp1779
g299
(lp1780
F0
aF0
aF0.5714285714285714
aI0
aI0
aI0
aI0
assg84
(dp1781
g299
(lp1782
F0
aF0
aF0.7142857142857143
aI0
aI0
aI0
aI0
assg48
(dp1783
g299
(lp1784
F0
aF0
aF0.74025974025974028
aI0
aI0
aI0
aI0
assg234
(dp1785
g299
(lp1786
F0
aF0
aF0.61428571428571432
aI0
aI0
aI0
aI0
assV@\u7cfb\u7edf\u8bbe\u7f6e
p1787
(dp1788
g299
(lp1789
I0
aI0
aI0
aI0
aI0
aF0.20000000000000001
aI0
assV@\u84dd\u7259
p1790
(dp1791
g299
(lp1792
I0
aI0
aI0
aI0
aI0
aF0.40000000000000002
aI0
assg268
(dp1793
g299
(lp1794
F0
aF0
aF0.5714285714285714
aI0
aI0
aI0
aI0
assg284
(dp1795
g299
(lp1796
F0
aF0
aF0.5714285714285714
aI0
aI0
aI0
aI0
assV@\u4efb\u52a1\u7ba1\u7406\u5668
p1797
(dp1798
g299
(lp1799
I0
aI0
aI0
aI0
aI0
aF0.20000000000000001
aI0
assg108
(dp1800
g299
(lp1801
F0
aF0
aF0.5714285714285714
aI0
aI0
aI0
aI0
assg244
(dp1802
g299
(lp1803
F0
aF0
aF0.7142857142857143
aI0
aI0
aI0
aI0
assg150
(dp1804
g299
(lp1805
F0
aF0
aF0.64285714285714279
aI0
aI0
aI0
aI0
assg204
(dp1806
g299
(lp1807
F0
aF0
aF0.64285714285714279
aI0
aI0
aI0
aI0
assg164
(dp1808
g299
(lp1809
F0
aF0
aF0.64285714285714279
aI0
aI0
aI0
aI0
assg206
(dp1810
g299
(lp1811
F0
aF0
aF0.7142857142857143
aI0
aI0
aI0
aI0
assg158
(dp1812
g299
(lp1813
F0
aF0
aF0.5714285714285714
aI0
aI0
aI0
aI0
asssg124
(dp1814
g214
(dp1815
g299
(lp1816
I0
aI0
aI0
aF1
aI0
aI0
aI0
assV@\u7535\u8bdd
p1817
(dp1818
g299
(lp1819
I0
aI0
aI0
aI0
aI0
aF1
aI0
asssg126
(dp1820
V@\u7535\u8bdd
p1821
(dp1822
g299
(lp1823
I0
aI0
aI0
aI0
aI0
aF0.40540540540540543
aI0
assV@\u7a0b\u5e8f\u5b89\u88c5
p1824
(dp1825
g299
(lp1826
I0
aI0
aI0
aI0
aI0
aF0.027027027027027029
aI0
assV@\u901a\u8baf\u5f55
p1827
(dp1828
g299
(lp1829
I0
aI0
aI0
aI0
aI0
aF0.027027027027027029
aI0
assV@\u7f51\u7edc\u4f4d\u7f6e
p1830
(dp1831
g299
(lp1832
I0
aI0
aI0
aI0
aI0
aF0.27027027027027029
aI0
assV@\u84dd\u7259
p1833
(dp1834
g299
(lp1835
I0
aI0
aI0
aI0
aI0
aF0.027027027027027029
aI0
assV@\u4efb\u52a1\u7ba1\u7406\u5668
p1836
(dp1837
g299
(lp1838
I0
aI0
aI0
aI0
aI0
aF0.054054054054054057
aI0
assg108
(dp1839
g299
(lp1840
F0
aF0.0072992700729927005
aI0
aI0
aI0
aI0
aI0
assV@\u6587\u4ef6\u7ba1\u7406\u5668
p1841
(dp1842
g299
(lp1843
I0
aI0
aI0
aI0
aI0
aF0.10810810810810811
aI0
assV@\u7cfb\u7edf\u8bbe\u7f6e
p1844
(dp1845
g299
(lp1846
I0
aI0
aI0
aI0
aI0
aF0.081081081081081086
aI0
asssg128
(dp1847
VQQ
p1848
(dp1849
g299
(lp1850
I0
aI0
aI0
aF0.33333333333333331
aI0
aI0
aI0
assV@\u7535\u8bdd
p1851
(dp1852
g299
(lp1853
I0
aI0
aI0
aI0
aI0
aF0.090909090909090912
aI0
assg48
(dp1854
g299
(lp1855
F0
aF0
aF0.59090909090909094
aF0.33333333333333331
aI0
aI0
aI0
assg234
(dp1856
g299
(lp1857
F0
aF0
aF0.59999999999999998
aI0
aI0
aI0
aI0
assV@\u7f51\u7edc\u4f4d\u7f6e
p1858
(dp1859
g299
(lp1860
I0
aI0
aI0
aI0
aI0
aF0.27272727272727271
aI0
assV@\u84dd\u7259
p1861
(dp1862
g299
(lp1863
I0
aI0
aI0
aI0
aI0
aF0.090909090909090912
aI0
assV@\u7cfb\u7edf\u8bbe\u7f6e
p1864
(dp1865
g299
(lp1866
I0
aI0
aI0
aI0
aI0
aF0.090909090909090912
aI0
assV@\u4efb\u52a1\u7ba1\u7406\u5668
p1867
(dp1868
g299
(lp1869
I0
aI0
aI0
aI0
aI0
aF0.18181818181818182
aI0
assV\u5fae\u535a
p1870
(dp1871
g299
(lp1872
I0
aI0
aI0
aF0.33333333333333331
aI0
aI0
aI0
assV@\u6587\u4ef6\u7ba1\u7406\u5668
p1873
(dp1874
g299
(lp1875
I0
aI0
aI0
aI0
aI0
aF0.090909090909090912
aI0
assg150
(dp1876
g299
(lp1877
F0
aF0
aF0.75
aI0
aI0
aI0
aI0
assV@\u7a0b\u5e8f\u5b89\u88c5
p1878
(dp1879
g299
(lp1880
I0
aI0
aI0
aI0
aI0
aF0.090909090909090912
aI0
assg268
(dp1881
g299
(lp1882
F0
aF0
aF1
aI0
aF0.74455409288883279
aI0
aI0
assg206
(dp1883
g299
(lp1884
F0
aF0
aF0.5714285714285714
aI0
aI0
aI0
aI0
assV@\u5f55\u97f3\u673a
p1885
(dp1886
g299
(lp1887
I0
aI0
aI0
aI0
aI0
aF0.090909090909090912
aI0
asssg130
(dp1888
V@\u76f8\u673a
p1889
(dp1890
g299
(lp1891
I0
aI0
aI0
aI0
aI0
aF0.0625
aI0
assV@\u7535\u8bdd
p1892
(dp1893
g299
(lp1894
I0
aI0
aI0
aI0
aI0
aF0.125
aI0
assg24
(dp1895
g299
(lp1896
F0.76923076923076927
aF0
aI0
aI0
aI0
aI0
aI0
assV@\u76f8\u518c
p1897
(dp1898
g299
(lp1899
I0
aI0
aI0
aI0
aI0
aF0.0625
aI0
assV@\u7a0b\u5e8f\u5b89\u88c5
p1900
(dp1901
g299
(lp1902
I0
aI0
aI0
aI0
aI0
aF0.3125
aI0
assV@\u7f51\u7edc\u4f4d\u7f6e
p1903
(dp1904
g299
(lp1905
I0
aI0
aI0
aI0
aI0
aF0.125
aI0
assV@\u4efb\u52a1\u7ba1\u7406\u5668
p1906
(dp1907
g299
(lp1908
I0
aI0
aI0
aI0
aI0
aF0.0625
aI0
assV@\u901a\u8baf\u5f55
p1909
(dp1910
g299
(lp1911
I0
aI0
aI0
aI0
aI0
aF0.0625
aI0
assV@\u6587\u4ef6\u7ba1\u7406\u5668
p1912
(dp1913
g299
(lp1914
I0
aI0
aI0
aI0
aI0
aF0.0625
aI0
assV@\u7cfb\u7edf\u8bbe\u7f6e
p1915
(dp1916
g299
(lp1917
I0
aI0
aI0
aI0
aI0
aF0.0625
aI0
assV@\u5f55\u97f3\u673a
p1918
(dp1919
g299
(lp1920
I0
aI0
aI0
aI0
aI0
aF0.0625
aI0
asssg132
(dp1921
V@\u76f8\u673a
p1922
(dp1923
g299
(lp1924
I0
aI0
aI0
aI0
aI0
aF0.083333333333333329
aI0
assV@\u7535\u8bdd
p1925
(dp1926
g299
(lp1927
I0
aI0
aI0
aI0
aI0
aF0.083333333333333329
aI0
assV@\u76f8\u518c
p1928
(dp1929
g299
(lp1930
I0
aI0
aI0
aI0
aI0
aF0.083333333333333329
aI0
assg48
(dp1931
g299
(lp1932
F0
aF0
aF0.59090909090909094
aF1
aI0
aI0
aI0
assg234
(dp1933
g299
(lp1934
F0
aF0
aF0.59999999999999998
aI0
aI0
aI0
aI0
assV@\u7f51\u7edc\u4f4d\u7f6e
p1935
(dp1936
g299
(lp1937
I0
aI0
aI0
aI0
aI0
aF0.16666666666666666
aI0
assV@\u84dd\u7259
p1938
(dp1939
g299
(lp1940
I0
aI0
aI0
aI0
aI0
aF0.16666666666666666
aI0
assV@\u4efb\u52a1\u7ba1\u7406\u5668
p1941
(dp1942
g299
(lp1943
I0
aI0
aI0
aI0
aI0
aF0.083333333333333329
aI0
assV@\u7cfb\u7edf\u8bbe\u7f6e
p1944
(dp1945
g299
(lp1946
I0
aI0
aI0
aI0
aI0
aF0.16666666666666666
aI0
assg150
(dp1947
g299
(lp1948
F0
aF0
aF0.75
aI0
aI0
aI0
aI0
assV@\u7a0b\u5e8f\u5b89\u88c5
p1949
(dp1950
g299
(lp1951
I0
aI0
aI0
aI0
aI0
aF0.083333333333333329
aI0
assg268
(dp1952
g299
(lp1953
F0
aF0
aF1
aI0
aI0
aI0
aI0
assg206
(dp1954
g299
(lp1955
F0
aF0
aF0.5714285714285714
aI0
aI0
aI0
aI0
assV@\u5f55\u97f3\u673a
p1956
(dp1957
g299
(lp1958
I0
aI0
aI0
aI0
aI0
aF0.083333333333333329
aI0
asssg134
(dp1959
VQQ
p1960
(dp1961
g299
(lp1962
I0
aI0
aI0
aF1
aI0
aI0
aI0
assV@\u7535\u8bdd
p1963
(dp1964
g299
(lp1965
I0
aI0
aI0
aI0
aI0
aF0.25
aI0
assg80
(dp1966
g299
(lp1967
F0
aF0
aF0.34999999999999998
aI0
aI0
aI0
aI0
assV@\u7f51\u7edc\u4f4d\u7f6e
p1968
(dp1969
g299
(lp1970
I0
aI0
aI0
aI0
aI0
aF0.25
aI0
assg164
(dp1971
g299
(lp1972
F0
aF0
aF0.34999999999999998
aI0
aI0
aI0
aI0
assg48
(dp1973
g299
(lp1974
F0
aF0
aF0.63636363636363646
aI0
aI0
aI0
aI0
assg234
(dp1975
g299
(lp1976
F0
aF0
aF0.30000000000000004
aI0
aI0
aI0
aI0
assV@\u7cfb\u7edf\u8bbe\u7f6e
p1977
(dp1978
g299
(lp1979
I0
aI0
aI0
aI0
aI0
aF0.25
aI0
assV@\u4efb\u52a1\u7ba1\u7406\u5668
p1980
(dp1981
g299
(lp1982
I0
aI0
aI0
aI0
aI0
aF0.25
aI0
assg108
(dp1983
g299
(lp1984
F0
aF0
aF0.59999999999999998
aI0
aI0
aI0
aI0
assg204
(dp1985
g299
(lp1986
F0
aF0
aF0.34999999999999998
aI0
aI0
aI0
aI0
assg206
(dp1987
g299
(lp1988
F0
aF0
aF0.7142857142857143
aI0
aI0
aI0
aI0
asssg136
(dp1989
V@\u7a0b\u5e8f\u5b89\u88c5
p1990
(dp1991
g299
(lp1992
I0
aI0
aI0
aI0
aI0
aF0.050000000000000003
aI0
assV@\u76f8\u673a
p1993
(dp1994
g299
(lp1995
I0
aI0
aI0
aI0
aI0
aF0.050000000000000003
aI0
assg150
(dp1996
g299
(lp1997
F0
aF0
aF1
aI0
aI0
aI0
aI0
assV@\u5f55\u97f3\u673a
p1998
(dp1999
g299
(lp2000
I0
aI0
aI0
aI0
aI0
aF0.050000000000000003
aI0
assg158
(dp2001
g299
(lp2002
F0
aF0
aF0.75
aI0
aI0
aI0
aI0
assg80
(dp2003
g299
(lp2004
F0
aF0
aF0.5
aI0
aI0
aI0
aI0
assg164
(dp2005
g299
(lp2006
F0
aF0
aF0.5
aI0
aI0
aI0
aI0
assV@\u76f8\u518c
p2007
(dp2008
g299
(lp2009
I0
aI0
aI0
aI0
aI0
aF0.050000000000000003
aI0
assg234
(dp2010
g299
(lp2011
F0
aF0
aF0.69999999999999996
aI0
aI0
aI0
aI0
assV@\u4efb\u52a1\u7ba1\u7406\u5668
p2012
(dp2013
g299
(lp2014
I0
aI0
aI0
aI0
aI0
aF0.050000000000000003
aI0
assV@\u7535\u8bdd
p2015
(dp2016
g299
(lp2017
I0
aI0
aI0
aI0
aI0
aF0.10000000000000001
aI0
assV@\u7cfb\u7edf\u8bbe\u7f6e
p2018
(dp2019
g299
(lp2020
I0
aI0
aI0
aI0
aI0
aF0.20000000000000001
aI0
assV@\u84dd\u7259
p2021
(dp2022
g299
(lp2023
I0
aI0
aI0
aI0
aI0
aF0.050000000000000003
aI0
assV@\u4fe1\u606f
p2024
(dp2025
g299
(lp2026
I0
aI0
aI0
aI0
aI0
aF0.050000000000000003
aI0
assg268
(dp2027
g299
(lp2028
F0
aF0
aF0.75
aI0
aI0
aI0
aI0
assg278
(dp2029
g299
(lp2030
F0
aF0
aF0.75
aI0
aI0
aI0
aI0
assg48
(dp2031
g299
(lp2032
F0
aF0
aF0.81818181818181823
aI0
aI0
aI0
aI0
assV@\u7f51\u7edc\u4f4d\u7f6e
p2033
(dp2034
g299
(lp2035
I0
aI0
aI0
aI0
aI0
aF0.20000000000000001
aI0
assg284
(dp2036
g299
(lp2037
F0
aF0
aF0.75
aI0
aI0
aI0
aI0
assV@\u901a\u8baf\u5f55
p2038
(dp2039
g299
(lp2040
I0
aI0
aI0
aI0
aI0
aF0.10000000000000001
aI0
assV@\u6587\u4ef6\u7ba1\u7406\u5668
p2041
(dp2042
g299
(lp2043
I0
aI0
aI0
aI0
aI0
aF0.050000000000000003
aI0
assg204
(dp2044
g299
(lp2045
F0
aF0
aF0.5
aI0
aI0
aI0
aI0
assg206
(dp2046
g299
(lp2047
F0
aF0
aF0.71428571428571419
aI0
aI0
aI0
aI0
asssg138
(dp2048
VQQ
p2049
(dp2050
g299
(lp2051
I0
aI0
aI0
aF1
aI0
aI0
aI0
assV@\u7535\u8bdd
p2052
(dp2053
g299
(lp2054
I0
aI0
aI0
aI0
aI0
aF0.076923076923076927
aI0
assg80
(dp2055
g299
(lp2056
F0
aF0
aF0.34999999999999998
aI0
aI0
aI0
aI0
assg164
(dp2057
g299
(lp2058
F0
aF0
aF0.34999999999999998
aI0
aI0
aI0
aI0
assV@\u76f8\u518c
p2059
(dp2060
g299
(lp2061
I0
aI0
aI0
aI0
aI0
aF0.076923076923076927
aI0
assg48
(dp2062
g299
(lp2063
F0
aF0
aF0.63181818181818183
aI0
aI0
aI0
aI0
assg234
(dp2064
g299
(lp2065
F0
aF0
aF0.75
aI0
aI0
aI0
aI0
assV@\u7f51\u7edc\u4f4d\u7f6e
p2066
(dp2067
g299
(lp2068
I0
aI0
aI0
aI0
aI0
aF0.15384615384615385
aI0
assV@\u84dd\u7259
p2069
(dp2070
g299
(lp2071
I0
aI0
aI0
aI0
aI0
aF0.23076923076923078
aI0
assV@\u76f8\u673a
p2072
(dp2073
g299
(lp2074
I0
aI0
aI0
aI0
aI0
aF0.076923076923076927
aI0
assV@\u7cfb\u7edf\u8bbe\u7f6e
p2075
(dp2076
g299
(lp2077
I0
aI0
aI0
aI0
aI0
aF0.15384615384615385
aI0
assV@\u4efb\u52a1\u7ba1\u7406\u5668
p2078
(dp2079
g299
(lp2080
I0
aI0
aI0
aI0
aI0
aF0.076923076923076927
aI0
assg108
(dp2081
g299
(lp2082
F0
aF0
aF0.59999999999999998
aI0
aI0
aI0
aI0
assV@\u6587\u4ef6\u7ba1\u7406\u5668
p2083
(dp2084
g299
(lp2085
I0
aI0
aI0
aI0
aI0
aF0.076923076923076927
aI0
assg150
(dp2086
g299
(lp2087
F0
aF0
aF0.59999999999999998
aI0
aI0
aI0
aI0
assg204
(dp2088
g299
(lp2089
F0
aF0
aF0.34999999999999998
aI0
aI0
aI0
aI0
assg268
(dp2090
g299
(lp2091
F0
aF0
aF0.84999999999999998
aI0
aI0
aI0
aI0
assg206
(dp2092
g299
(lp2093
F0
aF0
aF0.66428571428571426
aI0
aI0
aI0
aI0
assV@\u5f55\u97f3\u673a
p2094
(dp2095
g299
(lp2096
I0
aI0
aI0
aI0
aI0
aF0.076923076923076927
aI0
asssg140
(dp2097
VQQ
p2098
(dp2099
g299
(lp2100
I0
aI0
aI0
aF1
aI0
aI0
aI0
assV@\u7535\u8bdd
p2101
(dp2102
g299
(lp2103
I0
aI0
aI0
aI0
aI0
aF0.20000000000000001
aI0
assg80
(dp2104
g299
(lp2105
F0
aF0
aF0.58333333333333326
aI0
aI0
aI0
aI0
assg164
(dp2106
g299
(lp2107
F0
aF0
aF0.58333333333333326
aI0
aI0
aI0
aI0
assg84
(dp2108
g299
(lp2109
F0
aF0
aF0.66666666666666663
aI0
aI0
aI0
aI0
assg48
(dp2110
g299
(lp2111
F0
aF0
aF0.4242424242424242
aI0
aI0
aI0
aI0
assg234
(dp2112
g299
(lp2113
F0
aF0
aF0.53333333333333333
aI0
aI0
aI0
aI0
assV@\u7cfb\u7edf\u8bbe\u7f6e
p2114
(dp2115
g299
(lp2116
I0
aI0
aI0
aI0
aI0
aF0.20000000000000001
aI0
assV@\u4efb\u52a1\u7ba1\u7406\u5668
p2117
(dp2118
g299
(lp2119
I0
aI0
aI0
aI0
aI0
aF0.20000000000000001
aI0
assg108
(dp2120
g299
(lp2121
F0
aF0
aF0.83333333333333326
aI0
aI0
aI0
aI0
assg244
(dp2122
g299
(lp2123
F0
aF0
aF0.66666666666666663
aI0
aI0
aI0
aI0
assg204
(dp2124
g299
(lp2125
F0
aF0
aF0.58333333333333326
aI0
aI0
aI0
aI0
assV@\u6587\u4ef6\u7ba1\u7406\u5668
p2126
(dp2127
g299
(lp2128
I0
aI0
aI0
aI0
aI0
aF0.20000000000000001
aI0
assg206
(dp2129
g299
(lp2130
F0
aF0
aF0.47619047619047616
aI0
aI0
aI0
aI0
assV@\u7a0b\u5e8f\u5b89\u88c5
p2131
(dp2132
g299
(lp2133
I0
aI0
aI0
aI0
aI0
aF0.20000000000000001
aI0
asssg142
(dp2134
sg144
(dp2135
V@\u76f8\u673a
p2136
(dp2137
g299
(lp2138
I0
aI0
aI0
aI0
aI0
aF0.125
aI0
assV@\u7535\u8bdd
p2139
(dp2140
g299
(lp2141
I0
aI0
aI0
aI0
aI0
aF0.125
aI0
assg80
(dp2142
g299
(lp2143
F0
aF0
aF0.75
aI0
aI0
aI0
aI0
assg164
(dp2144
g299
(lp2145
F0
aF0
aF0.75
aI0
aI0
aI0
aI0
assV@\u76f8\u518c
p2146
(dp2147
g299
(lp2148
I0
aI0
aI0
aI0
aI0
aF0.125
aI0
assg48
(dp2149
g299
(lp2150
F0
aF0
aF0.59090909090909094
aI0
aI0
aI0
aI0
assg234
(dp2151
g299
(lp2152
F0
aF0
aF0.69999999999999996
aI0
aI0
aI0
aI0
assV@\u7f51\u7edc\u4f4d\u7f6e
p2153
(dp2154
g299
(lp2155
I0
aI0
aI0
aI0
aI0
aF0.25
aI0
assV@\u4efb\u52a1\u7ba1\u7406\u5668
p2156
(dp2157
g299
(lp2158
I0
aI0
aI0
aI0
aI0
aF0.125
aI0
assg108
(dp2159
g299
(lp2160
F0
aF0.0034482758620689655
aF1
aI0
aI0
aI0
aI0
assV@\u6587\u4ef6\u7ba1\u7406\u5668
p2161
(dp2162
g299
(lp2163
I0
aI0
aI0
aI0
aI0
aF0.125
aI0
assg204
(dp2164
g299
(lp2165
F0
aF0
aF0.75
aI0
aI0
aI0
aI0
assg206
(dp2166
g299
(lp2167
F0
aF0
aF0.64285714285714279
aI0
aI0
aI0
aI0
assg56
(dp2168
g299
(lp2169
F0
aF0
aI0
aI0
aF0.70510164780732154
aI0
aI0
assV@\u5f55\u97f3\u673a
p2170
(dp2171
g299
(lp2172
I0
aI0
aI0
aI0
aI0
aF0.125
aI0
asssg146
(dp2173
sg148
(dp2174
sg150
(dp2175
V@\u7535\u8bdd
p2176
(dp2177
g299
(lp2178
I0
aI0
aI0
aI0
aI0
aF0.13043478260869565
aI0
assg80
(dp2179
g299
(lp2180
F0
aF0
aF0.45000000000000001
aI0
aI0
aI0
aI0
assV@\u4efb\u52a1\u7ba1\u7406\u5668
p2181
(dp2182
g299
(lp2183
I0
aI0
aI0
aI0
aI0
aF0.086956521739130432
aI0
assg164
(dp2184
g299
(lp2185
F0
aF0
aF0.45000000000000001
aI0
aI0
aI0
aI0
assV@\u4e0b\u8f7d\u7ba1\u7406\u5668
p2186
(dp2187
g299
(lp2188
I0
aI0
aI0
aI0
aI0
aF0.043478260869565216
aI0
assV@\u76f8\u518c
p2189
(dp2190
g299
(lp2191
I0
aI0
aI0
aI0
aI0
aF0.086956521739130432
aI0
assg48
(dp2192
g299
(lp2193
F0
aF0
aF0.72727272727272729
aI0
aI0
aI0
aI0
assg234
(dp2194
g299
(lp2195
F0
aF0
aF0.60000000000000009
aI0
aI0
aI0
aI0
assV@\u7f51\u7edc\u4f4d\u7f6e
p2196
(dp2197
g299
(lp2198
I0
aI0
aI0
aI0
aI0
aF0.086956521739130432
aI0
assV@\u5f55\u97f3\u673a
p2199
(dp2200
g299
(lp2201
I0
aI0
aI0
aI0
aI0
aF0.086956521739130432
aI0
assV@\u84dd\u7259
p2202
(dp2203
g299
(lp2204
I0
aI0
aI0
aI0
aI0
aF0.043478260869565216
aI0
assV@\u7cfb\u7edf\u8bbe\u7f6e
p2205
(dp2206
g299
(lp2207
I0
aI0
aI0
aI0
aI0
aF0.17391304347826086
aI0
assV@\u76f8\u673a
p2208
(dp2209
g299
(lp2210
I0
aI0
aI0
aI0
aI0
aF0.086956521739130432
aI0
assg108
(dp2211
g299
(lp2212
F0
aF0
aF0.69999999999999996
aI0
aI0
aI0
aI0
assV@\u901a\u8baf\u5f55
p2213
(dp2214
g299
(lp2215
I0
aI0
aI0
aI0
aI0
aF0.086956521739130432
aI0
assg204
(dp2216
g299
(lp2217
F0
aF0
aF0.45000000000000001
aI0
aI0
aI0
aI0
assg268
(dp2218
g299
(lp2219
F0
aF0
aF0.59999999999999998
aI0
aI0
aI0
aI0
assg206
(dp2220
g299
(lp2221
F0
aF0
aF0.78571428571428581
aI0
aI0
aI0
aI0
assV@\u65e5\u5386
p2222
(dp2223
g299
(lp2224
I0
aI0
aI0
aI0
aI0
aF0.086956521739130432
aI0
asssg152
(dp2225
V@\u76f8\u673a
p2226
(dp2227
g299
(lp2228
I0
aI0
aI0
aI0
aI0
aF0.095238095238095233
aI0
assV@\u7535\u8bdd
p2229
(dp2230
g299
(lp2231
I0
aI0
aI0
aI0
aI0
aF0.14285714285714285
aI0
assV@\u76f8\u518c
p2232
(dp2233
g299
(lp2234
I0
aI0
aI0
aI0
aI0
aF0.095238095238095233
aI0
assV@\u7a0b\u5e8f\u5b89\u88c5
p2235
(dp2236
g299
(lp2237
I0
aI0
aI0
aI0
aI0
aF0.047619047619047616
aI0
assV@\u7f51\u7edc\u4f4d\u7f6e
p2238
(dp2239
g299
(lp2240
I0
aI0
aI0
aI0
aI0
aF0.14285714285714285
aI0
assV@\u4fe1\u606f
p2241
(dp2242
g299
(lp2243
I0
aI0
aI0
aI0
aI0
aF0.047619047619047616
aI0
assV@\u4efb\u52a1\u7ba1\u7406\u5668
p2244
(dp2245
g299
(lp2246
I0
aI0
aI0
aI0
aI0
aF0.047619047619047616
aI0
assV@\u901a\u8baf\u5f55
p2247
(dp2248
g299
(lp2249
I0
aI0
aI0
aI0
aI0
aF0.095238095238095233
aI0
assV@\u6587\u4ef6\u7ba1\u7406\u5668
p2250
(dp2251
g299
(lp2252
I0
aI0
aI0
aI0
aI0
aF0.095238095238095233
aI0
assV@\u7cfb\u7edf\u8bbe\u7f6e
p2253
(dp2254
g299
(lp2255
I0
aI0
aI0
aI0
aI0
aF0.14285714285714285
aI0
assV@\u5f55\u97f3\u673a
p2256
(dp2257
g299
(lp2258
I0
aI0
aI0
aI0
aI0
aF0.047619047619047616
aI0
asssg154
(dp2259
g234
(dp2260
g299
(lp2261
F0
aF0
aF0.59999999999999998
aI0
aI0
aI0
aI0
assg20
(dp2262
g299
(lp2263
F0
aF0
aF1
aI0
aI0
aI0
aI0
assg206
(dp2264
g299
(lp2265
F0
aF0
aF0.5714285714285714
aI0
aI0
aI0
aI0
asssg156
(dp2266
g210
(dp2267
g299
(lp2268
F0
aF0
aF0.625
aI0
aI0
aI0
aI0
assV@\u7a0b\u5e8f\u5b89\u88c5
p2269
(dp2270
g299
(lp2271
I0
aI0
aI0
aI0
aI0
aF0.055555555555555552
aI0
assV@\u76f8\u673a
p2272
(dp2273
g299
(lp2274
I0
aI0
aI0
aI0
aI0
aF0.055555555555555552
aI0
assg150
(dp2275
g299
(lp2276
F0
aF0
aF0.625
aI0
aI0
aI0
aI0
assV@\u5f55\u97f3\u673a
p2277
(dp2278
g299
(lp2279
I0
aI0
aI0
aI0
aI0
aF0.055555555555555552
aI0
assg158
(dp2280
g299
(lp2281
F0
aF0
aF0.5625
aI0
aI0
aI0
aI0
assg238
(dp2282
g299
(lp2283
F0
aF0
aF0.875
aI0
aI0
aI0
aI0
assg80
(dp2284
g299
(lp2285
F0
aF0
aF0.3125
aI0
aI0
aI0
aI0
assg164
(dp2286
g299
(lp2287
F0
aF0
aF0.3125
aI0
aI0
aI0
aI0
assV@\u76f8\u518c
p2288
(dp2289
g299
(lp2290
I0
aI0
aI0
aI0
aI0
aF0.055555555555555552
aI0
assg234
(dp2291
g299
(lp2292
F0
aF0
aF0.32500000000000001
aI0
aI0
aI0
aI0
assV@\u4efb\u52a1\u7ba1\u7406\u5668
p2293
(dp2294
g299
(lp2295
I0
aI0
aI0
aI0
aI0
aF0.1111111111111111
aI0
assV@\u7535\u8bdd
p2296
(dp2297
g299
(lp2298
I0
aI0
aI0
aI0
aI0
aF0.1111111111111111
aI0
assV@\u7cfb\u7edf\u8bbe\u7f6e
p2299
(dp2300
g299
(lp2301
I0
aI0
aI0
aI0
aI0
aF0.1111111111111111
aI0
assV@\u84dd\u7259
p2302
(dp2303
g299
(lp2304
I0
aI0
aI0
aI0
aI0
aF0.1111111111111111
aI0
assg268
(dp2305
g299
(lp2306
F0
aF0
aF0.5625
aI0
aI0
aI0
aI0
assg278
(dp2307
g299
(lp2308
F0
aF0
aF0.5625
aI0
aI0
aI0
aI0
assg48
(dp2309
g299
(lp2310
F0
aF0
aF0.86363636363636376
aI0
aI0
aI0
aI0
assV@\u7f51\u7edc\u4f4d\u7f6e
p2311
(dp2312
g299
(lp2313
I0
aI0
aI0
aI0
aI0
aF0.22222222222222221
aI0
assg284
(dp2314
g299
(lp2315
F0
aF0
aF0.5625
aI0
aI0
aI0
aI0
assV@\u901a\u8baf\u5f55
p2316
(dp2317
g299
(lp2318
I0
aI0
aI0
aI0
aI0
aF0.055555555555555552
aI0
assV@\u6587\u4ef6\u7ba1\u7406\u5668
p2319
(dp2320
g299
(lp2321
I0
aI0
aI0
aI0
aI0
aF0.055555555555555552
aI0
assg204
(dp2322
g299
(lp2323
F0
aF0
aF0.3125
aI0
aI0
aI0
aI0
assg206
(dp2324
g299
(lp2325
F0
aF0
aF0.3392857142857143
aI0
aI0
aI0
aI0
asssg158
(dp2326
VQQ
p2327
(dp2328
g299
(lp2329
I0
aI0
aI0
aF0.5
aI0
aI0
aI0
assV@\u7535\u8bdd
p2330
(dp2331
g299
(lp2332
I0
aI0
aI0
aI0
aI0
aF0.15384615384615385
aI0
assg80
(dp2333
g299
(lp2334
I0
aI0
aF0.58333333333333326
aI0
aI0
aI0
aI0
assV@\u5f55\u97f3\u673a
p2335
(dp2336
g299
(lp2337
I0
aI0
aI0
aI0
aI0
aF0.076923076923076927
aI0
assg164
(dp2338
g299
(lp2339
I0
aI0
aF0.58333333333333326
aI0
aI0
aI0
aI0
assg210
(dp2340
g299
(lp2341
I0
aI0
aF0.41666666666666663
aI0
aI0
aI0
aI0
assV@\u76f8\u518c
p2342
(dp2343
g299
(lp2344
I0
aI0
aI0
aI0
aI0
aF0.076923076923076927
aI0
assg48
(dp2345
g299
(lp2346
I0
aI0
aF0.63636363636363624
aF0.5
aI0
aI0
aI0
assg234
(dp2347
g299
(lp2348
I0
aI0
aF0.53333333333333333
aI0
aI0
aI0
aI0
assV@\u7f51\u7edc\u4f4d\u7f6e
p2349
(dp2350
g299
(lp2351
I0
aI0
aI0
aI0
aI0
aF0.30769230769230771
aI0
assg206
(dp2352
g299
(lp2353
I0
aI0
aF0.47619047619047616
aI0
aI0
aI0
aI0
assV@\u76f8\u673a
p2354
(dp2355
g299
(lp2356
I0
aI0
aI0
aI0
aI0
aF0.076923076923076927
aI0
assV@\u7cfb\u7edf\u8bbe\u7f6e
p2357
(dp2358
g299
(lp2359
I0
aI0
aI0
aI0
aI0
aF0.15384615384615385
aI0
assV@\u4efb\u52a1\u7ba1\u7406\u5668
p2360
(dp2361
g299
(lp2362
I0
aI0
aI0
aI0
aI0
aF0.076923076923076927
aI0
assg108
(dp2363
g299
(lp2364
I0
aI0
aF0.83333333333333326
aI0
aI0
aI0
aI0
assV@\u6587\u4ef6\u7ba1\u7406\u5668
p2365
(dp2366
g299
(lp2367
I0
aI0
aI0
aI0
aI0
aF0.076923076923076927
aI0
assg204
(dp2368
g299
(lp2369
I0
aI0
aF0.58333333333333326
aI0
aI0
aI0
aI0
assg156
(dp2370
g299
(lp2371
I0
aI0
aF0.66666666666666663
aI0
aI0
aI0
aI0
assg238
(dp2372
g299
(lp2373
I0
aI0
aF0.66666666666666663
aI0
aI0
aI0
aI0
asssg160
(dp2374
g212
(dp2375
g299
(lp2376
F0
aF0.080000000000000002
aI0
aI0
aI0
aI0
aI0
assg64
(dp2377
g299
(lp2378
F0
aF0.0062305295950155761
aI0
aI0
aI0
aI0
aI0
assV@\u76f8\u673a
p2379
(dp2380
g299
(lp2381
I0
aI0
aI0
aI0
aI0
aF0.1111111111111111
aI0
assg72
(dp2382
g299
(lp2383
F0
aF0.076923076923076927
aI0
aI0
aI0
aI0
aI0
assg150
(dp2384
g299
(lp2385
F0
aF0
aF0.65000000000000002
aI0
aI0
aI0
aI0
assg10
(dp2386
g299
(lp2387
F0
aF0.12903225806451613
aI0
aI0
aI0
aI0
aI0
assV@\u5f55\u97f3\u673a
p2388
(dp2389
g299
(lp2390
I0
aI0
aI0
aI0
aI0
aF0.1111111111111111
aI0
assg158
(dp2391
g299
(lp2392
F0
aF0
aF0.90000000000000002
aI0
aI0
aI0
aI0
assg74
(dp2393
g299
(lp2394
F0
aF0.12
aI0
aI0
aI0
aI0
aI0
assg80
(dp2395
g299
(lp2396
F0
aF0
aF1
aI0
aI0
aI0
aI0
assg164
(dp2397
g299
(lp2398
F0
aF0
aF1
aI0
aI0
aI0
aI0
assV@\u76f8\u518c
p2399
(dp2400
g299
(lp2401
I0
aI0
aI0
aI0
aI0
aF0.1111111111111111
aI0
assg18
(dp2402
g299
(lp2403
F0
aF0.060606060606060608
aI0
aI0
aI0
aI0
aI0
assg114
(dp2404
g299
(lp2405
F0
aF0.10526315789473684
aI0
aI0
aI0
aI0
aI0
assg234
(dp2406
g299
(lp2407
F0
aF0
aF0.80000000000000004
aI0
aI0
aI0
aI0
assV@\u4efb\u52a1\u7ba1\u7406\u5668
p2408
(dp2409
g299
(lp2410
I0
aI0
aI0
aI0
aI0
aF0.1111111111111111
aI0
assg244
(dp2411
g299
(lp2412
F0
aF0.089552238805970144
aI0
aI0
aI0
aI0
aI0
assg92
(dp2413
g299
(lp2414
F0
aF0.060606060606060608
aI0
aI0
aI0
aI0
aI0
assg176
(dp2415
g299
(lp2416
F0
aF0.075471698113207544
aI0
aI0
aI0
aI0
aI0
assg248
(dp2417
g299
(lp2418
F0
aF0.061538461538461542
aI0
aI0
aI0
aI0
aI0
assV@\u7535\u8bdd
p2419
(dp2420
g299
(lp2421
I0
aI0
aI0
aI0
aI0
aF0.1111111111111111
aI0
assg256
(dp2422
g299
(lp2423
F0
aF0.044444444444444446
aI0
aI0
aI0
aI0
aI0
assg258
(dp2424
g299
(lp2425
F0
aF0.054054054054054057
aI0
aI0
aI0
aI0
aI0
assg108
(dp2426
g299
(lp2427
F0
aF0
aF0.59999999999999998
aI0
aI0
aI0
aI0
assV@\u7cfb\u7edf\u8bbe\u7f6e
p2428
(dp2429
g299
(lp2430
I0
aI0
aI0
aI0
aI0
aF0.1111111111111111
aI0
assg272
(dp2431
g299
(lp2432
F0
aF0.14814814814814814
aI0
aI0
aI0
aI0
aI0
assg190
(dp2433
g299
(lp2434
F0
aF0.016260162601626018
aI0
aI0
aI0
aI0
aI0
assg274
(dp2435
g299
(lp2436
F0
aF0.016949152542372881
aI0
aF1
aI0
aI0
aI0
assg278
(dp2437
g299
(lp2438
F0
aF0
aF0.90000000000000002
aI0
aI0
aI0
aI0
assg122
(dp2439
g299
(lp2440
F0
aF0.12307692307692308
aI0
aI0
aI0
aI0
aI0
assg48
(dp2441
g299
(lp2442
F0
aF0
aF0.81818181818181823
aI0
aI0
aI0
aI0
assV@\u7f51\u7edc\u4f4d\u7f6e
p2443
(dp2444
g299
(lp2445
I0
aI0
aI0
aI0
aI0
aF0.22222222222222221
aI0
assg284
(dp2446
g299
(lp2447
F0
aF0
aF0.90000000000000002
aI0
aI0
aI0
aI0
assg134
(dp2448
g299
(lp2449
F0
aF0.22222222222222221
aI0
aI0
aI0
aI0
aI0
assV@\u6587\u4ef6\u7ba1\u7406\u5668
p2450
(dp2451
g299
(lp2452
I0
aI0
aI0
aI0
aI0
aF0.1111111111111111
aI0
assg204
(dp2453
g299
(lp2454
F0
aF0
aF1
aI0
aI0
aI0
aI0
assg206
(dp2455
g299
(lp2456
F0
aF0
aF0.78571428571428581
aI0
aI0
aI0
aI0
assg290
(dp2457
g299
(lp2458
F0
aF0.047619047619047616
aI0
aI0
aI0
aI0
aI0
asssg162
(dp2459
V@\u7535\u8bdd
p2460
(dp2461
g299
(lp2462
I0
aI0
aI0
aI0
aI0
aF0.076923076923076927
aI0
assV@\u4e0b\u8f7d\u7ba1\u7406\u5668
p2463
(dp2464
g299
(lp2465
I0
aI0
aI0
aI0
aI0
aF0.076923076923076927
aI0
assV\u5fae\u4fe1
p2466
(dp2467
g299
(lp2468
I0
aI0
aI0
aF1
aI0
aI0
aI0
assV@\u7f51\u7edc\u4f4d\u7f6e
p2469
(dp2470
g299
(lp2471
I0
aI0
aI0
aI0
aI0
aF0.15384615384615385
aI0
assV@\u7cfb\u7edf\u8bbe\u7f6e
p2472
(dp2473
g299
(lp2474
I0
aI0
aI0
aI0
aI0
aF0.23076923076923078
aI0
assV@\u4efb\u52a1\u7ba1\u7406\u5668
p2475
(dp2476
g299
(lp2477
I0
aI0
aI0
aI0
aI0
aF0.076923076923076927
aI0
assV@\u901a\u8baf\u5f55
p2478
(dp2479
g299
(lp2480
I0
aI0
aI0
aI0
aI0
aF0.076923076923076927
aI0
assV@\u6587\u4ef6\u7ba1\u7406\u5668
p2481
(dp2482
g299
(lp2483
I0
aI0
aI0
aI0
aI0
aF0.076923076923076927
aI0
assg94
(dp2484
g299
(lp2485
F0
aF0
aI0
aI0
aF0.72271363769225894
aI0
aI0
assV@\u7a0b\u5e8f\u5b89\u88c5
p2486
(dp2487
g299
(lp2488
I0
aI0
aI0
aI0
aI0
aF0.15384615384615385
aI0
assV@\u5f55\u97f3\u673a
p2489
(dp2490
g299
(lp2491
I0
aI0
aI0
aI0
aI0
aF0.076923076923076927
aI0
asssg164
(dp2492
V@\u76f8\u673a
p2493
(dp2494
g299
(lp2495
I0
aI0
aI0
aI0
aI0
aF0.1111111111111111
aI0
assV@\u7535\u8bdd
p2496
(dp2497
g299
(lp2498
I0
aI0
aI0
aI0
aI0
aF0.1111111111111111
aI0
assg80
(dp2499
g299
(lp2500
F0
aF0
aF0.75
aI0
aI0
aI0
aI0
assg278
(dp2501
g299
(lp2502
F0
aF0
aF1
aI0
aI0
aI0
aI0
assV@\u76f8\u518c
p2503
(dp2504
g299
(lp2505
I0
aI0
aI0
aI0
aI0
aF0.1111111111111111
aI0
assg48
(dp2506
g299
(lp2507
F0
aF0
aF0.72727272727272729
aF0.5
aI0
aI0
aI0
assg234
(dp2508
g299
(lp2509
F0
aF0
aF0.59999999999999998
aI0
aI0
aI0
aI0
assV@\u7f51\u7edc\u4f4d\u7f6e
p2510
(dp2511
g299
(lp2512
I0
aI0
aI0
aI0
aI0
aF0.22222222222222221
aI0
assV@\u7cfb\u7edf\u8bbe\u7f6e
p2513
(dp2514
g299
(lp2515
I0
aI0
aI0
aI0
aI0
aF0.22222222222222221
aI0
assg284
(dp2516
g299
(lp2517
F0
aF0
aF1
aI0
aI0
aI0
aI0
assV@\u4efb\u52a1\u7ba1\u7406\u5668
p2518
(dp2519
g299
(lp2520
I0
aI0
aI0
aI0
aI0
aF0.1111111111111111
aI0
assV\u5fae\u535a
p2521
(dp2522
g299
(lp2523
I0
aI0
aI0
aF0.5
aI0
aI0
aI0
assg150
(dp2524
g299
(lp2525
F0
aF0
aF0.75
aI0
aI0
aI0
aI0
assg204
(dp2526
g299
(lp2527
F0
aF0
aF0.75
aI0
aI0
aI0
aI0
assg206
(dp2528
g299
(lp2529
F0
aF0
aF0.64285714285714279
aI0
aI0
aI0
aI0
assg158
(dp2530
g299
(lp2531
F0
aF0
aF1
aI0
aI0
aI0
aI0
assV@\u5f55\u97f3\u673a
p2532
(dp2533
g299
(lp2534
I0
aI0
aI0
aI0
aI0
aF0.1111111111111111
aI0
asssg166
(dp2535
sg168
(dp2536
sg170
(dp2537
sg172
(dp2538
sg174
(dp2539
sg176
(dp2540
V@\u76f8\u673a
p2541
(dp2542
g299
(lp2543
I0
aI0
aI0
aI0
aI0
aF0.055555555555555552
aI0
assV@\u7535\u8bdd
p2544
(dp2545
g299
(lp2546
I0
aI0
aI0
aI0
aI0
aF0.1111111111111111
aI0
assV@\u5f55\u97f3\u673a
p2547
(dp2548
g299
(lp2549
I0
aI0
aI0
aI0
aI0
aF0.1111111111111111
aI0
assV@\u7f51\u7edc\u4f4d\u7f6e
p2550
(dp2551
g299
(lp2552
I0
aI0
aI0
aI0
aI0
aF0.16666666666666666
aI0
assg210
(dp2553
g299
(lp2554
F0
aF0
aF0.29545454545454547
aI0
aI0
aI0
aI0
assV@\u7cfb\u7edf\u8bbe\u7f6e
p2555
(dp2556
g299
(lp2557
I0
aI0
aI0
aI0
aI0
aF0.22222222222222221
aI0
assV@\u76f8\u518c
p2558
(dp2559
g299
(lp2560
I0
aI0
aI0
aI0
aI0
aF0.055555555555555552
aI0
assg48
(dp2561
g299
(lp2562
F0
aF0
aF0.54545454545454553
aI0
aI0
aI0
aI0
assg256
(dp2563
g299
(lp2564
F0
aF0
aI0
aF0.5
aF0.76303303885793006
aI0
aI0
assV@\u901a\u8baf\u5f55
p2565
(dp2566
g299
(lp2567
I0
aI0
aI0
aI0
aI0
aF0.055555555555555552
aI0
assg238
(dp2568
g299
(lp2569
F0
aF0
aF0.54545454545454541
aI0
aI0
aI0
aI0
assV@\u4efb\u52a1\u7ba1\u7406\u5668
p2570
(dp2571
g299
(lp2572
I0
aI0
aI0
aI0
aI0
aF0.1111111111111111
aI0
assV\u4eb2\u7231\u7684
p2573
(dp2574
g299
(lp2575
I0
aI0
aI0
aF0.5
aI0
aI0
aI0
assV@\u6587\u4ef6\u7ba1\u7406\u5668
p2576
(dp2577
g299
(lp2578
I0
aI0
aI0
aI0
aI0
aF0.055555555555555552
aI0
assV@\u7a0b\u5e8f\u5b89\u88c5
p2579
(dp2580
g299
(lp2581
I0
aI0
aI0
aI0
aI0
aF0.055555555555555552
aI0
assg156
(dp2582
g299
(lp2583
F0
aF0
aF0.54545454545454541
aI0
aI0
aI0
aI0
assg206
(dp2584
g299
(lp2585
F0
aF0
aF0.48051948051948057
aI0
aI0
aI0
aI0
asssg178
(dp2586
V@\u7535\u8bdd
p2587
(dp2588
g299
(lp2589
I0
aI0
aI0
aI0
aI0
aF0.125
aI0
assg80
(dp2590
g299
(lp2591
F0
aF0
aF0.75
aI0
aI0
aI0
aI0
assg164
(dp2592
g299
(lp2593
F0
aF0
aF0.75
aI0
aI0
aI0
aI0
assV@\u4e0b\u8f7d\u7ba1\u7406\u5668
p2594
(dp2595
g299
(lp2596
I0
aI0
aI0
aI0
aI0
aF0.25
aI0
assg48
(dp2597
g299
(lp2598
F0
aF0
aF0.59090909090909094
aI0
aI0
aI0
aI0
assg234
(dp2599
g299
(lp2600
F0
aF0
aF0.69999999999999996
aI0
aI0
aI0
aI0
assV@\u7f51\u7edc\u4f4d\u7f6e
p2601
(dp2602
g299
(lp2603
I0
aI0
aI0
aI0
aI0
aF0.375
aI0
assV@\u7cfb\u7edf\u8bbe\u7f6e
p2604
(dp2605
g299
(lp2606
I0
aI0
aI0
aI0
aI0
aF0.125
aI0
assV@\u4efb\u52a1\u7ba1\u7406\u5668
p2607
(dp2608
g299
(lp2609
I0
aI0
aI0
aI0
aI0
aF0.125
aI0
assg108
(dp2610
g299
(lp2611
F0
aF0
aF1
aI0
aI0
aI0
aI0
assg204
(dp2612
g299
(lp2613
F0
aF0
aF0.75
aI0
aI0
aI0
aI0
assg206
(dp2614
g299
(lp2615
F0
aF0
aF0.64285714285714279
aI0
aI0
aI0
aI0
asssg180
(dp2616
sg182
(dp2617
sg184
(dp2618
sg186
(dp2619
sg188
(dp2620
V@\u76f8\u673a
p2621
(dp2622
g299
(lp2623
I0
aI0
aI0
aI0
aI0
aF0.083333333333333329
aI0
assV@\u7535\u8bdd
p2624
(dp2625
g299
(lp2626
I0
aI0
aI0
aI0
aI0
aF0.16666666666666666
aI0
assg80
(dp2627
g299
(lp2628
F0
aF0
aF0.375
aI0
aI0
aI0
aI0
assV@\u5f55\u97f3\u673a
p2629
(dp2630
g299
(lp2631
I0
aI0
aI0
aI0
aI0
aF0.083333333333333329
aI0
assg164
(dp2632
g299
(lp2633
F0
aF0
aF0.375
aI0
aI0
aI0
aI0
assg210
(dp2634
g299
(lp2635
F0
aF0
aF0.625
aI0
aI0
aI0
aI0
assV@\u76f8\u518c
p2636
(dp2637
g299
(lp2638
I0
aI0
aI0
aI0
aI0
aF0.083333333333333329
aI0
assg48
(dp2639
g299
(lp2640
F0
aF0
aF0.63636363636363635
aI0
aI0
aI0
aI0
assg234
(dp2641
g299
(lp2642
F0
aF0
aF0.32500000000000001
aI0
aI0
aI0
aI0
assV@\u7f51\u7edc\u4f4d\u7f6e
p2643
(dp2644
g299
(lp2645
I0
aI0
aI0
aI0
aI0
aF0.16666666666666666
aI0
assg206
(dp2646
g299
(lp2647
F0
aF0
aF0.26785714285714285
aI0
aI0
aI0
aI0
assV@\u7cfb\u7edf\u8bbe\u7f6e
p2648
(dp2649
g299
(lp2650
I0
aI0
aI0
aI0
aI0
aF0.083333333333333329
aI0
assV@\u4efb\u52a1\u7ba1\u7406\u5668
p2651
(dp2652
g299
(lp2653
I0
aI0
aI0
aI0
aI0
aF0.083333333333333329
aI0
assg108
(dp2654
g299
(lp2655
F0
aF0
aF0.625
aI0
aI0
aI0
aI0
assV@\u901a\u8baf\u5f55
p2656
(dp2657
g299
(lp2658
I0
aI0
aI0
aI0
aI0
aF0.083333333333333329
aI0
assg204
(dp2659
g299
(lp2660
F0
aF0
aF0.375
aI0
aI0
aI0
aI0
assg156
(dp2661
g299
(lp2662
F0
aF0
aF0.875
aI0
aI0
aI0
aI0
assV@\u65e5\u5386
p2663
(dp2664
g299
(lp2665
I0
aI0
aI0
aI0
aI0
aF0.16666666666666666
aI0
assg238
(dp2666
g299
(lp2667
F0
aF0
aF0.875
aI0
aI0
aI0
aI0
asssg190
(dp2668
V@\u76f8\u673a
p2669
(dp2670
g299
(lp2671
I0
aI0
aI0
aI0
aI0
aF0.050000000000000003
aI0
assV@\u7535\u8bdd
p2672
(dp2673
g299
(lp2674
I0
aI0
aI0
aI0
aI0
aF0.14999999999999999
aI0
assg80
(dp2675
g299
(lp2676
F0
aF0
aF0.5625
aI0
aI0
aI0
aI0
assV@\u7f51\u7edc\u4f4d\u7f6e
p2677
(dp2678
g299
(lp2679
I0
aI0
aI0
aI0
aI0
aF0.10000000000000001
aI0
assg164
(dp2680
g299
(lp2681
F0
aF0
aF0.5625
aI0
aI0
aI0
aI0
assV@\u76f8\u518c
p2682
(dp2683
g299
(lp2684
I0
aI0
aI0
aI0
aI0
aF0.050000000000000003
aI0
assg48
(dp2685
g299
(lp2686
F0
aF0
aF0.72727272727272729
aI0
aI0
aI0
aI0
assg234
(dp2687
g299
(lp2688
F0
aF0
aF0.73749999999999993
aI0
aI0
aI0
aI0
assg204
(dp2689
g299
(lp2690
F0
aF0
aF0.5625
aI0
aI0
aI0
aI0
assV@\u901a\u8baf\u5f55
p2691
(dp2692
g299
(lp2693
I0
aI0
aI0
aI0
aI0
aF0.10000000000000001
aI0
assV@\u7cfb\u7edf\u8bbe\u7f6e
p2694
(dp2695
g299
(lp2696
I0
aI0
aI0
aI0
aI0
aF0.20000000000000001
aI0
assV@\u4efb\u52a1\u7ba1\u7406\u5668
p2697
(dp2698
g299
(lp2699
I0
aI0
aI0
aI0
aI0
aF0.050000000000000003
aI0
assg108
(dp2700
g299
(lp2701
F0
aF0
aF0.8125
aI0
aI0
aI0
aI0
assV@\u6587\u4ef6\u7ba1\u7406\u5668
p2702
(dp2703
g299
(lp2704
I0
aI0
aI0
aI0
aI0
aF0.10000000000000001
aI0
assg150
(dp2705
g299
(lp2706
F0
aF0
aF0.375
aI0
aI0
aI0
aI0
assg10
(dp2707
g299
(lp2708
F0.33333333333333331
aF0
aI0
aI0
aI0
aI0
aI0
assg268
(dp2709
g299
(lp2710
F0
aF0
aF0.625
aI0
aI0
aI0
aI0
assg206
(dp2711
g299
(lp2712
F0
aF0
aF0.7857142857142857
aI0
aI0
aI0
aI0
assV@\u7a0b\u5e8f\u5b89\u88c5
p2713
(dp2714
g299
(lp2715
I0
aI0
aI0
aI0
aI0
aF0.14999999999999999
aI0
assV@\u5f55\u97f3\u673a
p2716
(dp2717
g299
(lp2718
I0
aI0
aI0
aI0
aI0
aF0.050000000000000003
aI0
asssg192
(dp2719
VQQ
p2720
(dp2721
g299
(lp2722
I0
aI0
aI0
aF0.40000000000000002
aI0
aI0
aI0
assV@\u7535\u8bdd
p2723
(dp2724
g299
(lp2725
I0
aI0
aI0
aI0
aI0
aF0.14285714285714285
aI0
assg210
(dp2726
g299
(lp2727
F0
aF0.0069444444444444441
aI0
aI0
aI0
aI0
aI0
assg212
(dp2728
g299
(lp2729
F0
aF0.0080000000000000002
aI0
aI0
aI0
aI0
aI0
assV@\u76f8\u518c
p2730
(dp2731
g299
(lp2732
I0
aI0
aI0
aI0
aI0
aF0.14285714285714285
aI0
assg18
(dp2733
g299
(lp2734
F0
aF0
aI0
aI0
aF0.75329702384343133
aI0
aI0
assg48
(dp2735
g299
(lp2736
F0
aF0
aF0.54545454545454541
aF0.20000000000000001
aI0
aI0
aI0
assV@\u76f8\u673a
p2737
(dp2738
g299
(lp2739
I0
aI0
aI0
aI0
aI0
aF0.14285714285714285
aI0
assV@\u4efb\u52a1\u7ba1\u7406\u5668
p2740
(dp2741
g299
(lp2742
I0
aI0
aI0
aI0
aI0
aF0.14285714285714285
aI0
assg108
(dp2743
g299
(lp2744
F0
aF0.002967359050445104
aI0
aF0.40000000000000002
aI0
aI0
aI0
assg72
(dp2745
g299
(lp2746
F0
aF0.0099009900990099011
aI0
aI0
aI0
aI0
aI0
assV@\u7cfb\u7edf\u8bbe\u7f6e
p2747
(dp2748
g299
(lp2749
I0
aI0
aI0
aI0
aI0
aF0.2857142857142857
aI0
assg206
(dp2750
g299
(lp2751
F0
aF0
aF0.5714285714285714
aI0
aI0
aI0
aI0
assV@\u5f55\u97f3\u673a
p2752
(dp2753
g299
(lp2754
I0
aI0
aI0
aI0
aI0
aF0.14285714285714285
aI0
asssg194
(dp2755
sg196
(dp2756
V@\u7535\u8bdd
p2757
(dp2758
g299
(lp2759
I0
aI0
aI0
aI0
aI0
aF0.20000000000000001
aI0
assg80
(dp2760
g299
(lp2761
I0
aF0
aF0.5
aI0
aI0
aI0
aI0
assg164
(dp2762
g299
(lp2763
I0
aF0
aF0.5
aI0
aI0
aI0
aI0
assg48
(dp2764
g299
(lp2765
I0
aF0
aF0.34090909090909094
aI0
aI0
aI0
aI0
assg234
(dp2766
g299
(lp2767
I0
aF0
aF0.80000000000000004
aI0
aI0
aI0
aI0
assV@\u7f51\u7edc\u4f4d\u7f6e
p2768
(dp2769
g299
(lp2770
I0
aI0
aI0
aI0
aI0
aF0.20000000000000001
aI0
assg20
(dp2771
g299
(lp2772
I0
aF0
aF0.75
aI0
aI0
aI0
aI0
assV@\u901a\u8baf\u5f55
p2773
(dp2774
g299
(lp2775
I0
aI0
aI0
aI0
aI0
aF0.20000000000000001
aI0
assg32
(dp2776
g299
(lp2777
I0
aF0
aI0
aI0
aF0.70636691835406407
aI0
aI0
assg108
(dp2778
g299
(lp2779
I0
aF0
aF0.75
aI0
aI0
aI0
aI0
assV@\u6587\u4ef6\u7ba1\u7406\u5668
p2780
(dp2781
g299
(lp2782
I0
aI0
aI0
aI0
aI0
aF0.20000000000000001
aI0
assg148
(dp2783
g299
(lp2784
I0
aI0
aI0
aF1
aI0
aI0
aI0
assg204
(dp2785
g299
(lp2786
I0
aF0
aF0.5
aI0
aI0
aI0
aI0
assg206
(dp2787
g299
(lp2788
I0
aF0
aF0.71428571428571419
aI0
aI0
aI0
aI0
assV@\u7a0b\u5e8f\u5b89\u88c5
p2789
(dp2790
g299
(lp2791
I0
aI0
aI0
aI0
aI0
aF0.20000000000000001
aI0
asssg198
(dp2792
sg200
(dp2793
sg202
(dp2794
sg204
(dp2795
V@\u76f8\u673a
p2796
(dp2797
g299
(lp2798
I0
aI0
aI0
aI0
aI0
aF0.10000000000000001
aI0
assV@\u7535\u8bdd
p2799
(dp2800
g299
(lp2801
I0
aI0
aI0
aI0
aI0
aF0.10000000000000001
aI0
assg80
(dp2802
g299
(lp2803
F0
aF0
aF1
aI0
aI0
aI0
aI0
assg278
(dp2804
g299
(lp2805
F0
aF0
aF0.88888888888888884
aI0
aI0
aI0
aI0
assV@\u76f8\u518c
p2806
(dp2807
g299
(lp2808
I0
aI0
aI0
aI0
aI0
aF0.10000000000000001
aI0
assg48
(dp2809
g299
(lp2810
F0
aF0
aF0.81818181818181812
aF0.5
aI0
aI0
aI0
assg234
(dp2811
g299
(lp2812
F0
aF0
aF0.80000000000000004
aI0
aI0
aI0
aI0
assV@\u7f51\u7edc\u4f4d\u7f6e
p2813
(dp2814
g299
(lp2815
I0
aI0
aI0
aI0
aI0
aF0.29999999999999999
aI0
assV@\u901a\u8baf\u5f55
p2816
(dp2817
g299
(lp2818
I0
aI0
aI0
aI0
aI0
aF0.10000000000000001
aI0
assg284
(dp2819
g299
(lp2820
F0
aF0
aF0.88888888888888884
aI0
aI0
aI0
aI0
assV@\u4efb\u52a1\u7ba1\u7406\u5668
p2821
(dp2822
g299
(lp2823
I0
aI0
aI0
aI0
aI0
aF0.20000000000000001
aI0
assg108
(dp2824
g299
(lp2825
F0
aF0
aF0.61111111111111116
aF0.5
aI0
aI0
aI0
assg150
(dp2826
g299
(lp2827
F0
aF0
aF0.63888888888888884
aI0
aI0
aI0
aI0
assV@\u7cfb\u7edf\u8bbe\u7f6e
p2828
(dp2829
g299
(lp2830
I0
aI0
aI0
aI0
aI0
aF0.10000000000000001
aI0
assg164
(dp2831
g299
(lp2832
F0
aF0
aF1
aI0
aI0
aI0
aI0
assg206
(dp2833
g299
(lp2834
F0
aF0
aF0.7857142857142857
aI0
aI0
aI0
aI0
assg158
(dp2835
g299
(lp2836
F0
aF0
aF0.88888888888888884
aI0
aI0
aI0
aI0
asssg206
(dp2837
V@\u7535\u8bdd
p2838
(dp2839
g299
(lp2840
I0
aI0
aI0
aI0
aI0
aF0.14285714285714285
aI0
assg80
(dp2841
g299
(lp2842
F0
aF0
aF0.34999999999999998
aI0
aI0
aI0
aI0
assV@\u4efb\u52a1\u7ba1\u7406\u5668
p2843
(dp2844
g299
(lp2845
I0
aI0
aI0
aI0
aI0
aF0.071428571428571425
aI0
assg164
(dp2846
g299
(lp2847
F0
aF0
aF0.34999999999999998
aI0
aI0
aI0
aI0
assV@\u76f8\u518c
p2848
(dp2849
g299
(lp2850
I0
aI0
aI0
aI0
aI0
aF0.071428571428571425
aI0
assg48
(dp2851
g299
(lp2852
F0
aF0
aF0.6272727272727272
aI0
aI0
aI0
aI0
assg234
(dp2853
g299
(lp2854
F0
aF0
aF0.60000000000000009
aI0
aI0
aI0
aI0
assV@\u7f51\u7edc\u4f4d\u7f6e
p2855
(dp2856
g299
(lp2857
I0
aI0
aI0
aI0
aI0
aF0.21428571428571427
aI0
assV@\u84dd\u7259
p2858
(dp2859
g299
(lp2860
I0
aI0
aI0
aI0
aI0
aF0.071428571428571425
aI0
assV@\u7cfb\u7edf\u8bbe\u7f6e
p2861
(dp2862
g299
(lp2863
I0
aI0
aI0
aI0
aI0
aF0.14285714285714285
aI0
assV@\u901a\u8baf\u5f55
p2864
(dp2865
g299
(lp2866
I0
aI0
aI0
aI0
aI0
aF0.071428571428571425
aI0
assV@\u76f8\u673a
p2867
(dp2868
g299
(lp2869
I0
aI0
aI0
aI0
aI0
aF0.071428571428571425
aI0
assg108
(dp2870
g299
(lp2871
F0
aF0
aF0.59999999999999998
aI0
aI0
aI0
aI0
assg150
(dp2872
g299
(lp2873
F0
aF0
aF0.45000000000000001
aI0
aI0
aI0
aI0
assg204
(dp2874
g299
(lp2875
F0
aF0
aF0.34999999999999998
aI0
aI0
aI0
aI0
assg268
(dp2876
g299
(lp2877
F0
aF0
aF0.69999999999999996
aI0
aI0
aI0
aI0
assV@\u5f55\u97f3\u673a
p2878
(dp2879
g299
(lp2880
I0
aI0
aI0
aI0
aI0
aF0.071428571428571425
aI0
assV@\u7a0b\u5e8f\u5b89\u88c5
p2881
(dp2882
g299
(lp2883
I0
aI0
aI0
aI0
aI0
aF0.071428571428571425
aI0
asssg208
(dp2884
V@\u7535\u8bdd
p2885
(dp2886
g299
(lp2887
I0
aI0
aI0
aI0
aI0
aF0.20000000000000001
aI0
assg80
(dp2888
g299
(lp2889
F0
aF0
aF0.5
aI0
aI0
aI0
aI0
assg278
(dp2890
g299
(lp2891
F0
aF0
aF0.75
aI0
aI0
aI0
aI0
assg48
(dp2892
g299
(lp2893
F0
aF0
aF0.81818181818181823
aI0
aI0
aI0
aI0
assg234
(dp2894
g299
(lp2895
F0
aF0
aF0.69999999999999996
aI0
aI0
aI0
aI0
assV@\u7f51\u7edc\u4f4d\u7f6e
p2896
(dp2897
g299
(lp2898
I0
aI0
aI0
aI0
aI0
aF0.20000000000000001
aI0
assg268
(dp2899
g299
(lp2900
F0
aF0
aF0.75
aI0
aI0
aI0
aI0
assg284
(dp2901
g299
(lp2902
F0
aF0
aF0.75
aI0
aI0
aI0
aI0
assV@\u4efb\u52a1\u7ba1\u7406\u5668
p2903
(dp2904
g299
(lp2905
I0
aI0
aI0
aI0
aI0
aF0.20000000000000001
aI0
assV@\u7cfb\u7edf\u8bbe\u7f6e
p2906
(dp2907
g299
(lp2908
I0
aI0
aI0
aI0
aI0
aF0.20000000000000001
aI0
assg150
(dp2909
g299
(lp2910
F0
aF0
aF1
aI0
aI0
aI0
aI0
assg204
(dp2911
g299
(lp2912
F0
aF0
aF0.5
aI0
aI0
aI0
aI0
assg164
(dp2913
g299
(lp2914
F0
aF0
aF0.5
aI0
aI0
aI0
aI0
assg206
(dp2915
g299
(lp2916
F0
aF0
aF0.71428571428571419
aI0
aI0
aI0
aI0
assg158
(dp2917
g299
(lp2918
F0
aF0
aF0.75
aI0
aI0
aI0
aI0
assV@\u5f55\u97f3\u673a
p2919
(dp2920
g299
(lp2921
I0
aI0
aI0
aI0
aI0
aF0.20000000000000001
aI0
asssg210
(dp2922
V@\u76f8\u673a
p2923
(dp2924
g299
(lp2925
I0
aI0
aI0
aI0
aI0
aF0.10000000000000001
aI0
assV@\u7535\u8bdd
p2926
(dp2927
g299
(lp2928
I0
aI0
aI0
aI0
aI0
aF0.14999999999999999
aI0
assV@\u5f55\u97f3\u673a
p2929
(dp2930
g299
(lp2931
I0
aI0
aI0
aI0
aI0
aF0.050000000000000003
aI0
assV@\u7cfb\u7edf\u8bbe\u7f6e
p2932
(dp2933
g299
(lp2934
I0
aI0
aI0
aI0
aI0
aF0.10000000000000001
aI0
assV@\u76f8\u518c
p2935
(dp2936
g299
(lp2937
I0
aI0
aI0
aI0
aI0
aF0.10000000000000001
aI0
assg48
(dp2938
g299
(lp2939
F0
aF0
aF0.10795454545454546
aI0
aI0
aI0
aI0
assV@\u901a\u8baf\u5f55
p2940
(dp2941
g299
(lp2942
I0
aI0
aI0
aI0
aI0
aF0.050000000000000003
aI0
assV@\u7f51\u7edc\u4f4d\u7f6e
p2943
(dp2944
g299
(lp2945
I0
aI0
aI0
aI0
aI0
aF0.14999999999999999
aI0
assg52
(dp2946
g299
(lp2947
I0
aI0
aI0
aF0.5
aI0
aI0
aI0
assV@\u84dd\u7259
p2948
(dp2949
g299
(lp2950
I0
aI0
aI0
aI0
aI0
aF0.10000000000000001
aI0
assV@\u4efb\u52a1\u7ba1\u7406\u5668
p2951
(dp2952
g299
(lp2953
I0
aI0
aI0
aI0
aI0
aF0.10000000000000001
aI0
assV\u5fae\u535a
p2954
(dp2955
g299
(lp2956
I0
aI0
aI0
aF0.25
aI0
aI0
aI0
assV@\u6587\u4ef6\u7ba1\u7406\u5668
p2957
(dp2958
g299
(lp2959
I0
aI0
aI0
aI0
aI0
aF0.10000000000000001
aI0
assV\u6dd8\u5b9d
p2960
(dp2961
g299
(lp2962
I0
aI0
aI0
aF0.25
aI0
aI0
aI0
assg156
(dp2963
g299
(lp2964
F0
aF0
aF0.5625
aI0
aI0
aI0
aI0
assg238
(dp2965
g299
(lp2966
F0
aF0
aF0.5625
aI0
aI0
aI0
aI0
asssg212
(dp2967
V@\u76f8\u673a
p2968
(dp2969
g299
(lp2970
I0
aI0
aI0
aI0
aI0
aF0.10000000000000001
aI0
assg146
(dp2971
g299
(lp2972
I0
aI0
aI0
aF0.5
aI0
aI0
aI0
assg80
(dp2973
g299
(lp2974
I0
aI0
aF0.33333333333333331
aI0
aI0
aI0
aI0
assV@\u7f51\u7edc\u4f4d\u7f6e
p2975
(dp2976
g299
(lp2977
I0
aI0
aI0
aI0
aI0
aF0.20000000000000001
aI0
assg164
(dp2978
g299
(lp2979
I0
aI0
aF0.33333333333333331
aI0
aI0
aI0
aI0
assg210
(dp2980
g299
(lp2981
I0
aI0
aF0.33333333333333331
aI0
aI0
aI0
aI0
assV@\u7535\u8bdd
p2982
(dp2983
g299
(lp2984
I0
aI0
aI0
aI0
aI0
aF0.20000000000000001
aI0
assg48
(dp2985
g299
(lp2986
I0
aI0
aF0.68181818181818177
aI0
aI0
aI0
aI0
assg234
(dp2987
g299
(lp2988
I0
aI0
aF0.28333333333333333
aI0
aI0
aI0
aI0
assV@\u76f8\u518c
p2989
(dp2990
g299
(lp2991
I0
aI0
aI0
aI0
aI0
aF0.10000000000000001
aI0
assV@\u5f55\u97f3\u673a
p2992
(dp2993
g299
(lp2994
I0
aI0
aI0
aI0
aI0
aF0.10000000000000001
aI0
assg206
(dp2995
g299
(lp2996
I0
aI0
aF0.63095238095238093
aI0
aI0
aI0
aI0
assV@\u7cfb\u7edf\u8bbe\u7f6e
p2997
(dp2998
g299
(lp2999
I0
aI0
aI0
aI0
aI0
aF0.10000000000000001
aI0
assV@\u4efb\u52a1\u7ba1\u7406\u5668
p3000
(dp3001
g299
(lp3002
I0
aI0
aI0
aI0
aI0
aF0.10000000000000001
aI0
assg108
(dp3003
g299
(lp3004
I0
aI0
aF0.58333333333333337
aI0
aI0
aI0
aI0
assg100
(dp3005
g299
(lp3006
I0
aI0
aI0
aF0.25
aI0
aI0
aI0
assg204
(dp3007
g299
(lp3008
I0
aI0
aF0.33333333333333331
aI0
aI0
aI0
aI0
assg156
(dp3009
g299
(lp3010
I0
aI0
aF0.58333333333333337
aI0
aI0
aI0
aI0
assV@\u7a0b\u5e8f\u5b89\u88c5
p3011
(dp3012
g299
(lp3013
I0
aI0
aI0
aI0
aI0
aF0.10000000000000001
aI0
assg238
(dp3014
g299
(lp3015
I0
aI0
aF0.58333333333333337
aI0
aI0
aI0
aI0
assV\u767e\u5ea6
p3016
(dp3017
g299
(lp3018
I0
aI0
aI0
aF0.25
aI0
aI0
aI0
asssg214
(dp3019
sg216
(dp3020
V@\u7535\u8bdd
p3021
(dp3022
g299
(lp3023
I0
aI0
aI0
aI0
aI0
aF0.071428571428571425
aI0
assV@\u4efb\u52a1\u7ba1\u7406\u5668
p3024
(dp3025
g299
(lp3026
I0
aI0
aI0
aI0
aI0
aF0.071428571428571425
aI0
assg98
(dp3027
g299
(lp3028
I0
aI0
aI0
aI0
aI0
aF0.071428571428571425
aI0
assV@\u76f8\u518c
p3029
(dp3030
g299
(lp3031
I0
aI0
aI0
aI0
aI0
aF0.071428571428571425
aI0
assg48
(dp3032
g299
(lp3033
F0
aF0
aF0.63636363636363635
aI0
aI0
aI0
aI0
assg234
(dp3034
g299
(lp3035
F0
aF0
aF0.26666666666666666
aI0
aI0
aI0
aI0
assV@\u7f51\u7edc\u4f4d\u7f6e
p3036
(dp3037
g299
(lp3038
I0
aI0
aI0
aI0
aI0
aF0.21428571428571427
aI0
assV@\u84dd\u7259
p3039
(dp3040
g299
(lp3041
I0
aI0
aI0
aI0
aI0
aF0.071428571428571425
aI0
assV@\u76f8\u673a
p3042
(dp3043
g299
(lp3044
I0
aI0
aI0
aI0
aI0
aF0.071428571428571425
aI0
assV@\u901a\u8baf\u5f55
p3045
(dp3046
g299
(lp3047
I0
aI0
aI0
aI0
aI0
aF0.071428571428571425
aI0
assV@\u6587\u4ef6\u7ba1\u7406\u5668
p3048
(dp3049
g299
(lp3050
I0
aI0
aI0
aI0
aI0
aF0.071428571428571425
aI0
assg186
(dp3051
g299
(lp3052
I0
aI0
aI0
aF1
aI0
aI0
aI0
assg150
(dp3053
g299
(lp3054
F0
aF0
aF0.41666666666666663
aI0
aI0
aI0
aI0
assV@\u7cfb\u7edf\u8bbe\u7f6e
p3055
(dp3056
g299
(lp3057
I0
aI0
aI0
aI0
aI0
aF0.14285714285714285
aI0
assg268
(dp3058
g299
(lp3059
F0
aF0
aF0.66666666666666663
aI0
aI0
aI0
aI0
assg206
(dp3060
g299
(lp3061
F0
aF0
aF0.64285714285714279
aI0
aI0
aI0
aI0
assV@\u5f55\u97f3\u673a
p3062
(dp3063
g299
(lp3064
I0
aI0
aI0
aI0
aI0
aF0.071428571428571425
aI0
asssg218
(dp3065
sg220
(dp3066
V@\u7535\u8bdd
p3067
(dp3068
g299
(lp3069
I0
aI0
aI0
aI0
aI0
aF0.14285714285714285
aI0
assg80
(dp3070
g299
(lp3071
F0
aF0
aF0.63461538461538458
aI0
aI0
aI0
aI0
assg164
(dp3072
g299
(lp3073
F0
aF0
aF0.63461538461538458
aI0
aI0
aI0
aI0
assV@\u4e0b\u8f7d\u7ba1\u7406\u5668
p3074
(dp3075
g299
(lp3076
I0
aI0
aI0
aI0
aI0
aF0.14285714285714285
aI0
assV@\u76f8\u518c
p3077
(dp3078
g299
(lp3079
I0
aI0
aI0
aI0
aI0
aF0.071428571428571425
aI0
assg48
(dp3080
g299
(lp3081
F0
aF0
aF0.72727272727272729
aI0
aI0
aI0
aI0
assg234
(dp3082
g299
(lp3083
F0
aF0
aF0.76153846153846161
aI0
aI0
aI0
aI0
assV@\u7f51\u7edc\u4f4d\u7f6e
p3084
(dp3085
g299
(lp3086
I0
aI0
aI0
aI0
aI0
aF0.14285714285714285
aI0
assV@\u4efb\u52a1\u7ba1\u7406\u5668
p3087
(dp3088
g299
(lp3089
I0
aI0
aI0
aI0
aI0
aF0.071428571428571425
aI0
assV@\u7cfb\u7edf\u8bbe\u7f6e
p3090
(dp3091
g299
(lp3092
I0
aI0
aI0
aI0
aI0
aF0.14285714285714285
aI0
assV@\u76f8\u673a
p3093
(dp3094
g299
(lp3095
I0
aI0
aI0
aI0
aI0
aF0.071428571428571425
aI0
assg108
(dp3096
g299
(lp3097
F0
aF0
aF0.88461538461538458
aI0
aI0
aI0
aI0
assV@\u6587\u4ef6\u7ba1\u7406\u5668
p3098
(dp3099
g299
(lp3100
I0
aI0
aI0
aI0
aI0
aF0.14285714285714285
aI0
assg150
(dp3101
g299
(lp3102
F0
aF0
aF0.32692307692307693
aI0
aI0
aI0
aI0
assg204
(dp3103
g299
(lp3104
F0
aF0
aF0.63461538461538458
aI0
aI0
aI0
aI0
assg268
(dp3105
g299
(lp3106
F0
aF0
aF0.57692307692307687
aI0
aI0
aI0
aI0
assg206
(dp3107
g299
(lp3108
F0
aF0
aF0.7857142857142857
aI0
aI0
aI0
aI0
assV@\u7a0b\u5e8f\u5b89\u88c5
p3109
(dp3110
g299
(lp3111
I0
aI0
aI0
aI0
aI0
aF0.071428571428571425
aI0
asssg222
(dp3112
sg224
(dp3113
V@\u5f55\u97f3\u673a
p3114
(dp3115
g299
(lp3116
I0
aI0
aI0
aI0
aI0
aF0.055555555555555552
aI0
assg210
(dp3117
g299
(lp3118
F0
aF0
aF0.28333333333333333
aI0
aI0
aI0
aI0
assg86
(dp3119
g299
(lp3120
F0
aF0.0068965517241379309
aI0
aI0
aI0
aI0
aI0
assV@\u76f8\u673a
p3121
(dp3122
g299
(lp3123
I0
aI0
aI0
aI0
aI0
aF0.055555555555555552
aI0
assg72
(dp3124
g299
(lp3125
F0
aF0.015384615384615385
aI0
aI0
aI0
aI0
aI0
assg150
(dp3126
g299
(lp3127
F0
aF0.01020408163265306
aF0.31666666666666665
aI0
aI0
aI0
aI0
assg152
(dp3128
g299
(lp3129
F0
aF0.008771929824561403
aI0
aI0
aI0
aI0
aI0
assg156
(dp3130
g299
(lp3131
F0
aF0
aF0.53333333333333333
aI0
aI0
aI0
aI0
assg238
(dp3132
g299
(lp3133
F0
aF0
aF0.53333333333333333
aI0
aI0
aI0
aI0
assg230
(dp3134
g299
(lp3135
F0
aF0.0095238095238095247
aI0
aI0
aI0
aI0
aI0
assV@\u76f8\u518c
p3136
(dp3137
g299
(lp3138
I0
aI0
aI0
aI0
aI0
aF0.055555555555555552
aI0
assg234
(dp3139
g299
(lp3140
F0
aF0
aF0.66666666666666674
aI0
aI0
aI0
aI0
assg20
(dp3141
g299
(lp3142
F0
aF0
aF0.90000000000000002
aI0
aI0
aI0
aI0
assg236
(dp3143
g299
(lp3144
F0
aF0.0056497175141242938
aI0
aI0
aI0
aI0
aI0
assV@\u4efb\u52a1\u7ba1\u7406\u5668
p3145
(dp3146
g299
(lp3147
I0
aI0
aI0
aI0
aI0
aF0.055555555555555552
aI0
assg244
(dp3148
g299
(lp3149
F0
aF0.009433962264150943
aI0
aI0
aI0
aI0
aI0
assV@\u7535\u8bdd
p3150
(dp3151
g299
(lp3152
I0
aI0
aI0
aI0
aI0
aF0.16666666666666666
aI0
assg26
(dp3153
g299
(lp3154
F0
aF0.011627906976744186
aI0
aI0
aI0
aI0
aI0
assV@\u84dd\u7259
p3155
(dp3156
g299
(lp3157
I0
aI0
aI0
aI0
aI0
aF0.1111111111111111
aI0
assg108
(dp3158
g299
(lp3159
F0
aF0.0033222591362126247
aI0
aF0.5
aI0
aI0
aI0
assg268
(dp3160
g299
(lp3161
F0
aF0
aF0.56666666666666665
aI0
aI0
aI0
aI0
assV\u767e\u5ea6
p3162
(dp3163
g299
(lp3164
I0
aI0
aI0
aF0.5
aI0
aI0
aI0
assg274
(dp3165
g299
(lp3166
F0
aF0.006369426751592357
aI0
aI0
aI0
aI0
aI0
assg278
(dp3167
g299
(lp3168
F0
aF0.012345679012345678
aI0
aI0
aI0
aI0
aI0
assg48
(dp3169
g299
(lp3170
F0
aF0
aF0.23636363636363639
aI0
aI0
aI0
aI0
assV@\u7f51\u7edc\u4f4d\u7f6e
p3171
(dp3172
g299
(lp3173
I0
aI0
aI0
aI0
aI0
aF0.16666666666666666
aI0
assV@\u901a\u8baf\u5f55
p3174
(dp3175
g299
(lp3176
I0
aI0
aI0
aI0
aI0
aF0.16666666666666666
aI0
assV@\u7cfb\u7edf\u8bbe\u7f6e
p3177
(dp3178
g299
(lp3179
I0
aI0
aI0
aI0
aI0
aF0.16666666666666666
aI0
assg136
(dp3180
g299
(lp3181
F0
aF0.010309278350515464
aI0
aI0
aI0
aI0
aI0
assg206
(dp3182
g299
(lp3183
F0
aF0.011627906976744186
aF0.60952380952380958
aI0
aI0
aI0
aI0
asssg226
(dp3184
sg228
(dp3185
sg230
(dp3186
V@\u7a0b\u5e8f\u5b89\u88c5
p3187
(dp3188
g299
(lp3189
I0
aI0
aI0
aI0
aI0
aF0.076923076923076927
aI0
assg150
(dp3190
g299
(lp3191
F0
aF0
aF0.58333333333333326
aI0
aI0
aI0
aI0
assV@\u5f55\u97f3\u673a
p3192
(dp3193
g299
(lp3194
I0
aI0
aI0
aI0
aI0
aF0.076923076923076927
aI0
assg158
(dp3195
g299
(lp3196
F0
aF0
aF0.83333333333333326
aI0
aI0
aI0
aI0
assg80
(dp3197
g299
(lp3198
F0
aF0
aF0.99999999999999989
aI0
aI0
aI0
aI0
assg164
(dp3199
g299
(lp3200
F0
aF0
aF0.99999999999999989
aI0
aI0
aI0
aI0
assg254
(dp3201
g299
(lp3202
I0
aI0
aI0
aF0.22222222222222221
aI0
aI0
aI0
assg234
(dp3203
g299
(lp3204
F0
aF0
aF0.80000000000000004
aI0
aI0
aI0
aI0
assV@\u4efb\u52a1\u7ba1\u7406\u5668
p3205
(dp3206
g299
(lp3207
I0
aI0
aI0
aI0
aI0
aF0.076923076923076927
aI0
assV@\u7535\u8bdd
p3208
(dp3209
g299
(lp3210
I0
aI0
aI0
aI0
aI0
aF0.076923076923076927
aI0
assg204
(dp3211
g299
(lp3212
F0
aF0
aF0.99999999999999989
aI0
aI0
aI0
aI0
assg108
(dp3213
g299
(lp3214
F0
aF0
aF0.66666666666666663
aF0.33333333333333331
aI0
aI0
aI0
assVQQ
p3215
(dp3216
g299
(lp3217
I0
aI0
aI0
aF0.1111111111111111
aI0
aI0
aI0
assg278
(dp3218
g299
(lp3219
F0
aF0
aF0.83333333333333326
aI0
aI0
aI0
aI0
assg48
(dp3220
g299
(lp3221
F0
aF0
aF0.81818181818181812
aF0.33333333333333331
aI0
aI0
aI0
assV@\u7f51\u7edc\u4f4d\u7f6e
p3222
(dp3223
g299
(lp3224
I0
aI0
aI0
aI0
aI0
aF0.15384615384615385
aI0
assg284
(dp3225
g299
(lp3226
F0
aF0
aF0.83333333333333326
aI0
aI0
aI0
aI0
assV@\u901a\u8baf\u5f55
p3227
(dp3228
g299
(lp3229
I0
aI0
aI0
aI0
aI0
aF0.076923076923076927
aI0
assV@\u6587\u4ef6\u7ba1\u7406\u5668
p3230
(dp3231
g299
(lp3232
I0
aI0
aI0
aI0
aI0
aF0.076923076923076927
aI0
assV@\u7cfb\u7edf\u8bbe\u7f6e
p3233
(dp3234
g299
(lp3235
I0
aI0
aI0
aI0
aI0
aF0.23076923076923078
aI0
assg206
(dp3236
g299
(lp3237
F0
aF0
aF0.7857142857142857
aI0
aI0
aI0
aI0
assV@\u65e5\u5386
p3238
(dp3239
g299
(lp3240
I0
aI0
aI0
aI0
aI0
aF0.15384615384615385
aI0
asssg232
(dp3241
V@\u7535\u8bdd
p3242
(dp3243
g299
(lp3244
I0
aI0
aI0
aI0
aI0
aF0.10000000000000001
aI0
assV@\u7a0b\u5e8f\u5b89\u88c5
p3245
(dp3246
g299
(lp3247
I0
aI0
aI0
aI0
aI0
aF0.20000000000000001
aI0
assV@\u7f51\u7edc\u4f4d\u7f6e
p3248
(dp3249
g299
(lp3250
I0
aI0
aI0
aI0
aI0
aF0.10000000000000001
aI0
assV@\u84dd\u7259
p3251
(dp3252
g299
(lp3253
I0
aI0
aI0
aI0
aI0
aF0.20000000000000001
aI0
assV@\u4efb\u52a1\u7ba1\u7406\u5668
p3254
(dp3255
g299
(lp3256
I0
aI0
aI0
aI0
aI0
aF0.10000000000000001
aI0
assV@\u7cfb\u7edf\u8bbe\u7f6e
p3257
(dp3258
g299
(lp3259
I0
aI0
aI0
aI0
aI0
aF0.29999999999999999
aI0
asssg234
(dp3260
V@\u76f8\u673a
p3261
(dp3262
g299
(lp3263
I0
aI0
aI0
aI0
aI0
aF0.083333333333333329
aI0
assV@\u7535\u8bdd
p3264
(dp3265
g299
(lp3266
I0
aI0
aI0
aI0
aI0
aF0.083333333333333329
aI0
assg80
(dp3267
g299
(lp3268
F0
aF0
aF0.75
aI0
aI0
aI0
aI0
assg164
(dp3269
g299
(lp3270
F0
aF0
aF0.75
aI0
aI0
aI0
aI0
assV@\u76f8\u518c
p3271
(dp3272
g299
(lp3273
I0
aI0
aI0
aI0
aI0
aF0.083333333333333329
aI0
assg48
(dp3274
g299
(lp3275
F0
aF0
aF0.59090909090909094
aI0
aI0
aI0
aI0
assV@\u901a\u8baf\u5f55
p3276
(dp3277
g299
(lp3278
I0
aI0
aI0
aI0
aI0
aF0.083333333333333329
aI0
assV@\u7f51\u7edc\u4f4d\u7f6e
p3279
(dp3280
g299
(lp3281
I0
aI0
aI0
aI0
aI0
aF0.16666666666666666
aI0
assV@\u84dd\u7259
p3282
(dp3283
g299
(lp3284
I0
aI0
aI0
aI0
aI0
aF0.083333333333333329
aI0
assV@\u7cfb\u7edf\u8bbe\u7f6e
p3285
(dp3286
g299
(lp3287
I0
aI0
aI0
aI0
aI0
aF0.25
aI0
assV@\u4efb\u52a1\u7ba1\u7406\u5668
p3288
(dp3289
g299
(lp3290
I0
aI0
aI0
aI0
aI0
aF0.083333333333333329
aI0
assg108
(dp3291
g299
(lp3292
F0
aF0
aF1
aI0
aI0
aI0
aI0
assg204
(dp3293
g299
(lp3294
F0
aF0
aF0.75
aI0
aI0
aI0
aI0
assg206
(dp3295
g299
(lp3296
F0
aF0
aF0.64285714285714279
aI0
aI0
aI0
aI0
assV@\u5f55\u97f3\u673a
p3297
(dp3298
g299
(lp3299
I0
aI0
aI0
aI0
aI0
aF0.083333333333333329
aI0
asssg236
(dp3300
g212
(dp3301
g299
(lp3302
F0
aF0.011834319526627219
aI0
aI0
aI0
aI0
aI0
assV@\u7a0b\u5e8f\u5b89\u88c5
p3303
(dp3304
g299
(lp3305
I0
aI0
aI0
aI0
aI0
aF0.11538461538461539
aI0
assg64
(dp3306
g299
(lp3307
F0
aF0.0022727272727272726
aI0
aI0
aI0
aI0
aI0
assV@\u76f8\u673a
p3308
(dp3309
g299
(lp3310
I0
aI0
aI0
aI0
aI0
aF0.038461538461538464
aI0
assg72
(dp3311
g299
(lp3312
F0
aF0.0068965517241379309
aI0
aI0
aI0
aI0
aI0
assg10
(dp3313
g299
(lp3314
F0
aF0.013333333333333334
aI0
aI0
aI0
aI0
aI0
assV@\u5f55\u97f3\u673a
p3315
(dp3316
g299
(lp3317
I0
aI0
aI0
aI0
aI0
aF0.038461538461538464
aI0
assg74
(dp3318
g299
(lp3319
F0
aF0.017751479289940829
aI0
aI0
aI0
aI0
aI0
assg258
(dp3320
g299
(lp3321
F0
aF0.010362694300518135
aI0
aI0
aI0
aI0
aI0
assV@\u76f8\u518c
p3322
(dp3323
g299
(lp3324
I0
aI0
aI0
aI0
aI0
aF0.038461538461538464
aI0
assg18
(dp3325
g299
(lp3326
F0
aF0.010810810810810811
aI0
aI0
aI0
aI0
aI0
assg272
(dp3327
g299
(lp3328
F0
aF0.013698630136986301
aI0
aI0
aI0
aI0
aI0
assV@\u4efb\u52a1\u7ba1\u7406\u5668
p3329
(dp3330
g299
(lp3331
I0
aI0
aI0
aI0
aI0
aF0.076923076923076927
aI0
assg244
(dp3332
g299
(lp3333
F0
aF0.016129032258064516
aI0
aI0
aI0
aI0
aI0
assg92
(dp3334
g299
(lp3335
F0
aF0.0065789473684210523
aI0
aI0
aI0
aI0
aI0
assg176
(dp3336
g299
(lp3337
F0
aF0.011627906976744186
aI0
aI0
aI0
aI0
aI0
assg248
(dp3338
g299
(lp3339
F0
aF0.010869565217391304
aI0
aI0
aI0
aI0
aI0
assV@\u7535\u8bdd
p3340
(dp3341
g299
(lp3342
I0
aI0
aI0
aI0
aI0
aF0.11538461538461539
aI0
assg256
(dp3343
g299
(lp3344
F0
aF0.0060975609756097563
aI0
aI0
aI0
aI0
aI0
assV@\u84dd\u7259
p3345
(dp3346
g299
(lp3347
I0
aI0
aI0
aI0
aI0
aF0.076923076923076927
aI0
assg260
(dp3348
g299
(lp3349
I0
aI0
aI0
aI0
aI0
aF0.038461538461538464
aI0
assV\u5fae\u535a
p3350
(dp3351
g299
(lp3352
I0
aI0
aI0
aF0.125
aI0
aI0
aI0
assg114
(dp3353
g299
(lp3354
F0
aF0.007246376811594203
aI0
aI0
aI0
aI0
aI0
assg190
(dp3355
g299
(lp3356
F0
aF0.0041322314049586778
aI0
aF0.625
aI0
aI0
aI0
assg274
(dp3357
g299
(lp3358
F0
aF0.0042194092827004216
aI0
aF0.125
aI0
aI0
aI0
assg122
(dp3359
g299
(lp3360
F0
aF0.021739130434782608
aI0
aI0
aI0
aI0
aI0
assV\u5fae\u4fe1
p3361
(dp3362
g299
(lp3363
I0
aI0
aI0
aF0.125
aI0
aI0
aI0
assV@\u7f51\u7edc\u4f4d\u7f6e
p3364
(dp3365
g299
(lp3366
I0
aI0
aI0
aI0
aI0
aF0.076923076923076927
aI0
assV@\u901a\u8baf\u5f55
p3367
(dp3368
g299
(lp3369
I0
aI0
aI0
aI0
aI0
aF0.076923076923076927
aI0
assg134
(dp3370
g299
(lp3371
F0
aF0.020547945205479451
aI0
aI0
aI0
aI0
aI0
assV@\u6587\u4ef6\u7ba1\u7406\u5668
p3372
(dp3373
g299
(lp3374
I0
aI0
aI0
aI0
aI0
aF0.076923076923076927
aI0
assV@\u7cfb\u7edf\u8bbe\u7f6e
p3375
(dp3376
g299
(lp3377
I0
aI0
aI0
aI0
aI0
aF0.23076923076923078
aI0
assg290
(dp3378
g299
(lp3379
F0
aF0.0062111801242236021
aI0
aI0
aI0
aI0
aI0
asssg238
(dp3380
VQQ
p3381
(dp3382
g299
(lp3383
I0
aI0
aI0
aF0.40000000000000002
aI0
aI0
aI0
assV@\u7535\u8bdd
p3384
(dp3385
g299
(lp3386
I0
aI0
aI0
aI0
aI0
aF0.15384615384615385
aI0
assg80
(dp3387
g299
(lp3388
F0
aF0
aF0.30263157894736842
aI0
aI0
aI0
aI0
assV@\u7f51\u7edc\u4f4d\u7f6e
p3389
(dp3390
g299
(lp3391
I0
aI0
aI0
aI0
aI0
aF0.23076923076923078
aI0
assg164
(dp3392
g299
(lp3393
F0
aF0
aF0.30263157894736842
aI0
aI0
aI0
aI0
assg210
(dp3394
g299
(lp3395
F0
aF0
aF0.61842105263157898
aI0
aI0
aI0
aI0
assV@\u76f8\u518c
p3396
(dp3397
g299
(lp3398
I0
aI0
aI0
aI0
aI0
aF0.076923076923076927
aI0
assg48
(dp3399
g299
(lp3400
F0
aF0
aF0.62918660287081341
aF0.59999999999999998
aI0
aI0
aI0
assg234
(dp3401
g299
(lp3402
F0
aF0
aF0.40526315789473688
aI0
aI0
aI0
aI0
assg204
(dp3403
g299
(lp3404
F0
aF0
aF0.30263157894736842
aI0
aI0
aI0
aI0
assg20
(dp3405
g299
(lp3406
F0
aF0
aF0.55263157894736836
aI0
aI0
aI0
aI0
assV@\u901a\u8baf\u5f55
p3407
(dp3408
g299
(lp3409
I0
aI0
aI0
aI0
aI0
aF0.076923076923076927
aI0
assV@\u76f8\u673a
p3410
(dp3411
g299
(lp3412
I0
aI0
aI0
aI0
aI0
aF0.076923076923076927
aI0
assV@\u7cfb\u7edf\u8bbe\u7f6e
p3413
(dp3414
g299
(lp3415
I0
aI0
aI0
aI0
aI0
aF0.15384615384615385
aI0
assV@\u5f55\u97f3\u673a
p3416
(dp3417
g299
(lp3418
I0
aI0
aI0
aI0
aI0
aF0.076923076923076927
aI0
assV@\u4efb\u52a1\u7ba1\u7406\u5668
p3419
(dp3420
g299
(lp3421
I0
aI0
aI0
aI0
aI0
aF0.15384615384615385
aI0
assg108
(dp3422
g299
(lp3423
F0
aF0
aF0.55263157894736836
aI0
aI0
aI0
aI0
assg26
(dp3424
g299
(lp3425
F0.050000000000000003
aF0
aI0
aI0
aI0
aI0
aI0
assg156
(dp3426
g299
(lp3427
F0
aF0
aF0.86842105263157898
aI0
aI0
aI0
aI0
assg206
(dp3428
g299
(lp3429
F0
aF0
aF0.41729323308270672
aI0
aI0
aI0
aI0
asssg240
(dp3430
g80
(dp3431
g299
(lp3432
F0
aI0
aF0.86666666666666659
aI0
aI0
aI0
aI0
assg278
(dp3433
g299
(lp3434
F0
aI0
aF0.83333333333333326
aI0
aI0
aI0
aI0
assg202
(dp3435
g299
(lp3436
I0
aI0
aI0
aF1
aI0
aI0
aI0
assg84
(dp3437
g299
(lp3438
F0
aI0
aF0.56666666666666665
aI0
aI0
aI0
aI0
assg48
(dp3439
g299
(lp3440
F0
aI0
aF0.79696969696969688
aI0
aI0
aI0
aI0
assg234
(dp3441
g299
(lp3442
F0
aI0
aF0.66666666666666674
aI0
aI0
aI0
aI0
assg284
(dp3443
g299
(lp3444
F0
aI0
aF0.83333333333333326
aI0
aI0
aI0
aI0
assg108
(dp3445
g299
(lp3446
F0
aI0
aF0.53333333333333333
aI0
aI0
aI0
aI0
assg244
(dp3447
g299
(lp3448
F0
aI0
aF0.56666666666666665
aI0
aI0
aI0
aI0
assg150
(dp3449
g299
(lp3450
F0
aI0
aF0.58333333333333326
aI0
aI0
aI0
aI0
assg204
(dp3451
g299
(lp3452
F0
aI0
aF0.86666666666666659
aI0
aI0
aI0
aI0
assg164
(dp3453
g299
(lp3454
F0
aI0
aF0.86666666666666659
aI0
aI0
aI0
aI0
assg206
(dp3455
g299
(lp3456
F0
aI0
aF0.79047619047619055
aI0
aI0
aI0
aI0
assg158
(dp3457
g299
(lp3458
F0
aI0
aF0.83333333333333326
aI0
aI0
aI0
aI0
asssg242
(dp3459
sg244
(dp3460
V@\u5f55\u97f3\u673a
p3461
(dp3462
g299
(lp3463
I0
aI0
aI0
aI0
aI0
aF0.0625
aI0
assg210
(dp3464
g299
(lp3465
F0
aF0
aF0.28846153846153844
aI0
aI0
aI0
aI0
assV@\u7a0b\u5e8f\u5b89\u88c5
p3466
(dp3467
g299
(lp3468
I0
aI0
aI0
aI0
aI0
aF0.125
aI0
assV@\u76f8\u673a
p3469
(dp3470
g299
(lp3471
I0
aI0
aI0
aI0
aI0
aF0.0625
aI0
assg150
(dp3472
g299
(lp3473
F0
aF0
aF0.32692307692307693
aI0
aI0
aI0
aI0
assg156
(dp3474
g299
(lp3475
F0
aF0
aF0.53846153846153844
aI0
aI0
aI0
aI0
assg238
(dp3476
g299
(lp3477
F0
aF0
aF0.53846153846153844
aI0
aI0
aI0
aI0
assg80
(dp3478
g299
(lp3479
F0
aF0
aF0.40384615384615385
aI0
aI0
aI0
aI0
assg164
(dp3480
g299
(lp3481
F0
aF0
aF0.40384615384615385
aI0
aI0
aI0
aI0
assV@\u76f8\u518c
p3482
(dp3483
g299
(lp3484
I0
aI0
aI0
aI0
aI0
aF0.0625
aI0
assg84
(dp3485
g299
(lp3486
F0
aF0
aF0.57692307692307687
aI0
aI0
aI0
aI0
assg234
(dp3487
g299
(lp3488
F0
aF0
aF0.53076923076923077
aI0
aI0
aI0
aI0
assV@\u4efb\u52a1\u7ba1\u7406\u5668
p3489
(dp3490
g299
(lp3491
I0
aI0
aI0
aI0
aI0
aF0.0625
aI0
assV@\u7535\u8bdd
p3492
(dp3493
g299
(lp3494
I0
aI0
aI0
aI0
aI0
aF0.0625
aI0
assg26
(dp3495
g299
(lp3496
F0.5
aF0
aI0
aI0
aI0
aI0
aI0
assV@\u7cfb\u7edf\u8bbe\u7f6e
p3497
(dp3498
g299
(lp3499
I0
aI0
aI0
aI0
aI0
aF0.25
aI0
assg108
(dp3500
g299
(lp3501
F0
aF0
aF0.65384615384615385
aI0
aI0
aI0
aI0
assg268
(dp3502
g299
(lp3503
F0
aF0
aF0.57692307692307687
aI0
aI0
aI0
aI0
assg38
(dp3504
g299
(lp3505
I0
aI0
aI0
aF0.33333333333333331
aI0
aI0
aI0
assVQQ
p3506
(dp3507
g299
(lp3508
I0
aI0
aI0
aF0.33333333333333331
aI0
aI0
aI0
assg48
(dp3509
g299
(lp3510
F0
aF0
aF0.69580419580419595
aF0.33333333333333331
aI0
aI0
aI0
assV@\u7f51\u7edc\u4f4d\u7f6e
p3511
(dp3512
g299
(lp3513
I0
aI0
aI0
aI0
aI0
aF0.25
aI0
assV@\u6587\u4ef6\u7ba1\u7406\u5668
p3514
(dp3515
g299
(lp3516
I0
aI0
aI0
aI0
aI0
aF0.0625
aI0
assg204
(dp3517
g299
(lp3518
F0
aF0
aF0.40384615384615385
aI0
aI0
aI0
aI0
assg206
(dp3519
g299
(lp3520
F0
aF0
aF0.67032967032967039
aI0
aI0
aI0
aI0
asssg246
(dp3521
g48
(dp3522
g299
(lp3523
I0
aF0
aF0.54545454545454541
aI0
aI0
aI0
aI0
assg206
(dp3524
g299
(lp3525
I0
aF0
aF0.5714285714285714
aI0
aI0
aI0
aI0
asssg248
(dp3526
g252
(dp3527
g299
(lp3528
I0
aI0
aI0
aF0.5
aI0
aI0
aI0
assV@\u7535\u8bdd
p3529
(dp3530
g299
(lp3531
I0
aI0
aI0
aI0
aI0
aF0.125
aI0
assV@\u4e0b\u8f7d\u7ba1\u7406\u5668
p3532
(dp3533
g299
(lp3534
I0
aI0
aI0
aI0
aI0
aF0.125
aI0
assV@\u76f8\u518c
p3535
(dp3536
g299
(lp3537
I0
aI0
aI0
aI0
aI0
aF0.0625
aI0
assg48
(dp3538
g299
(lp3539
F0
aF0
aF0.48295454545454547
aI0
aI0
aI0
aI0
assV@\u901a\u8baf\u5f55
p3540
(dp3541
g299
(lp3542
I0
aI0
aI0
aI0
aI0
aF0.125
aI0
assV@\u7f51\u7edc\u4f4d\u7f6e
p3543
(dp3544
g299
(lp3545
I0
aI0
aI0
aI0
aI0
aF0.125
aI0
assV@\u84dd\u7259
p3546
(dp3547
g299
(lp3548
I0
aI0
aI0
aI0
aI0
aF0.125
aI0
assV@\u76f8\u673a
p3549
(dp3550
g299
(lp3551
I0
aI0
aI0
aI0
aI0
aF0.0625
aI0
assV@\u4efb\u52a1\u7ba1\u7406\u5668
p3552
(dp3553
g299
(lp3554
I0
aI0
aI0
aI0
aI0
aF0.0625
aI0
assV\u4eb2\u7231\u7684
p3555
(dp3556
g299
(lp3557
I0
aI0
aI0
aF0.5
aI0
aI0
aI0
assV@\u6587\u4ef6\u7ba1\u7406\u5668
p3558
(dp3559
g299
(lp3560
I0
aI0
aI0
aI0
aI0
aF0.0625
aI0
assV@\u7cfb\u7edf\u8bbe\u7f6e
p3561
(dp3562
g299
(lp3563
I0
aI0
aI0
aI0
aI0
aF0.0625
aI0
assg206
(dp3564
g299
(lp3565
F0
aF0
aF0.5089285714285714
aI0
aI0
aI0
aI0
assV@\u5f55\u97f3\u673a
p3566
(dp3567
g299
(lp3568
I0
aI0
aI0
aI0
aI0
aF0.0625
aI0
asssg250
(dp3569
V@\u7535\u8bdd
p3570
(dp3571
g299
(lp3572
I0
aI0
aI0
aI0
aI0
aF0.20000000000000001
aI0
assg46
(dp3573
g299
(lp3574
F0
aF0
aI0
aI0
aF0.78334748034536239
aI0
aI0
assg48
(dp3575
g299
(lp3576
F0
aF0
aF0.63636363636363635
aI0
aI0
aI0
aI0
assg234
(dp3577
g299
(lp3578
F0
aF0
aF0.31428571428571428
aI0
aI0
aI0
aI0
assV@\u4efb\u52a1\u7ba1\u7406\u5668
p3579
(dp3580
g299
(lp3581
I0
aI0
aI0
aI0
aI0
aF0.40000000000000002
aI0
assg150
(dp3582
g299
(lp3583
F0
aF0
aF0.4642857142857143
aI0
aI0
aI0
aI0
assV@\u7cfb\u7edf\u8bbe\u7f6e
p3584
(dp3585
g299
(lp3586
I0
aI0
aI0
aI0
aI0
aF0.40000000000000002
aI0
assg268
(dp3587
g299
(lp3588
F0
aF0
aF0.7142857142857143
aI0
aI0
aI0
aI0
assg206
(dp3589
g299
(lp3590
F0
aF0
aF0.64285714285714279
aI0
aI0
aI0
aI0
asssg252
(dp3591
sg254
(dp3592
sg256
(dp3593
V@\u7535\u8bdd
p3594
(dp3595
g299
(lp3596
I0
aI0
aI0
aI0
aI0
aF0.2857142857142857
aI0
assg80
(dp3597
g299
(lp3598
F0
aF0
aF0.33333333333333331
aI0
aI0
aI0
aI0
assg164
(dp3599
g299
(lp3600
F0
aF0
aF0.33333333333333331
aI0
aI0
aI0
aI0
assg48
(dp3601
g299
(lp3602
F0
aF0
aF0.63636363636363646
aI0
aI0
aI0
aI0
assg234
(dp3603
g299
(lp3604
F0
aF0
aF0.28333333333333333
aI0
aI0
aI0
aI0
assV@\u7f51\u7edc\u4f4d\u7f6e
p3605
(dp3606
g299
(lp3607
I0
aI0
aI0
aI0
aI0
aF0.2857142857142857
aI0
assV@\u7cfb\u7edf\u8bbe\u7f6e
p3608
(dp3609
g299
(lp3610
I0
aI0
aI0
aI0
aI0
aF0.14285714285714285
aI0
assV@\u4efb\u52a1\u7ba1\u7406\u5668
p3611
(dp3612
g299
(lp3613
I0
aI0
aI0
aI0
aI0
aF0.14285714285714285
aI0
assg108
(dp3614
g299
(lp3615
F0
aF0
aF0.58333333333333337
aI0
aI0
aI0
aI0
assg204
(dp3616
g299
(lp3617
F0
aF0
aF0.33333333333333331
aI0
aI0
aI0
aI0
assg176
(dp3618
g299
(lp3619
F0
aF0
aI0
aI0
aF0.76303303885793006
aI0
aI0
assg206
(dp3620
g299
(lp3621
F0
aF0
aF0.7142857142857143
aI0
aI0
aI0
aI0
assg290
(dp3622
g299
(lp3623
F0
aF0
aI0
aI0
aF0.71112001094037802
aI0
aI0
assV@\u5f55\u97f3\u673a
p3624
(dp3625
g299
(lp3626
I0
aI0
aI0
aI0
aI0
aF0.14285714285714285
aI0
asssg258
(dp3627
V@\u7535\u8bdd
p3628
(dp3629
g299
(lp3630
I0
aI0
aI0
aI0
aI0
aF0.076923076923076927
aI0
assg166
(dp3631
g299
(lp3632
I0
aI0
aI0
aI0
aI0
aF0.076923076923076927
aI0
assg48
(dp3633
g299
(lp3634
F0
aF0
aF0.54545454545454541
aI0
aI0
aI0
aI0
assV@\u7f51\u7edc\u4f4d\u7f6e
p3635
(dp3636
g299
(lp3637
I0
aI0
aI0
aI0
aI0
aF0.15384615384615385
aI0
assV@\u84dd\u7259
p3638
(dp3639
g299
(lp3640
I0
aI0
aI0
aI0
aI0
aF0.15384615384615385
aI0
assV@\u4efb\u52a1\u7ba1\u7406\u5668
p3641
(dp3642
g299
(lp3643
I0
aI0
aI0
aI0
aI0
aF0.076923076923076927
aI0
assg108
(dp3644
g299
(lp3645
F0
aF0.0028985507246376812
aI0
aI0
aI0
aI0
aI0
assV@\u6587\u4ef6\u7ba1\u7406\u5668
p3646
(dp3647
g299
(lp3648
I0
aI0
aI0
aI0
aI0
aF0.076923076923076927
aI0
assV@\u7cfb\u7edf\u8bbe\u7f6e
p3649
(dp3650
g299
(lp3651
I0
aI0
aI0
aI0
aI0
aF0.30769230769230771
aI0
assg206
(dp3652
g299
(lp3653
F0
aF0
aF0.5714285714285714
aI0
aI0
aI0
aI0
assV@\u5f55\u97f3\u673a
p3654
(dp3655
g299
(lp3656
I0
aI0
aI0
aI0
aI0
aF0.076923076923076927
aI0
asssg260
(dp3657
sg262
(dp3658
g212
(dp3659
g299
(lp3660
F0
aF0.045454545454545456
aI0
aI0
aI0
aI0
aI0
assV@\u7a0b\u5e8f\u5b89\u88c5
p3661
(dp3662
g299
(lp3663
I0
aI0
aI0
aI0
aI0
aF0.23076923076923078
aI0
assg64
(dp3664
g299
(lp3665
F0
aF0.0055710306406685237
aI0
aI0
aI0
aI0
aI0
assV@\u76f8\u673a
p3666
(dp3667
g299
(lp3668
I0
aI0
aI0
aI0
aI0
aF0.076923076923076927
aI0
assg72
(dp3669
g299
(lp3670
F0
aF0.03125
aI0
aI0
aI0
aI0
aI0
assg10
(dp3671
g299
(lp3672
F0
aF0.057971014492753624
aI0
aI0
aI0
aI0
aI0
assg74
(dp3673
g299
(lp3674
F0
aF0.068181818181818177
aI0
aI0
aI0
aI0
aI0
assg258
(dp3675
g299
(lp3676
F0
aF0.035714285714285712
aI0
aI0
aI0
aI0
aI0
assV@\u76f8\u518c
p3677
(dp3678
g299
(lp3679
I0
aI0
aI0
aI0
aI0
aF0.076923076923076927
aI0
assg18
(dp3680
g299
(lp3681
F0
aF0.038461538461538464
aI0
aI0
aI0
aI0
aI0
assg272
(dp3682
g299
(lp3683
F0
aF0.061538461538461542
aI0
aI0
aI0
aI0
aI0
assV@\u4efb\u52a1\u7ba1\u7406\u5668
p3684
(dp3685
g299
(lp3686
I0
aI0
aI0
aI0
aI0
aF0.076923076923076927
aI0
assg244
(dp3687
g299
(lp3688
F0
aF0.057142857142857141
aI0
aI0
aI0
aI0
aI0
assg92
(dp3689
g299
(lp3690
F0
aF0.028169014084507043
aI0
aI0
aI0
aI0
aI0
assg176
(dp3691
g299
(lp3692
F0
aF0.043956043956043959
aI0
aI0
aI0
aI0
aI0
assg248
(dp3693
g299
(lp3694
F0
aF0.038834951456310676
aI0
aI0
aI0
aI0
aI0
assV@\u7535\u8bdd
p3695
(dp3696
g299
(lp3697
I0
aI0
aI0
aI0
aI0
aF0.076923076923076927
aI0
assg256
(dp3698
g299
(lp3699
F0
aF0.024096385542168676
aI0
aI0
aI0
aI0
aI0
assV\u5fae\u535a
p3700
(dp3701
g299
(lp3702
I0
aI0
aI0
aF1
aI0
aI0
aI0
assg114
(dp3703
g299
(lp3704
F0
aF0.035087719298245612
aI0
aI0
aI0
aI0
aI0
assg190
(dp3705
g299
(lp3706
F0
aF0.012422360248447204
aI0
aI0
aI0
aI0
aI0
assg274
(dp3707
g299
(lp3708
F0
aF0.01282051282051282
aI0
aI0
aI0
aI0
aI0
assg122
(dp3709
g299
(lp3710
F0
aF0.077669902912621352
aI0
aI0
aI0
aI0
aI0
assV@\u7f51\u7edc\u4f4d\u7f6e
p3711
(dp3712
g299
(lp3713
I0
aI0
aI0
aI0
aI0
aF0.15384615384615385
aI0
assV@\u901a\u8baf\u5f55
p3714
(dp3715
g299
(lp3716
I0
aI0
aI0
aI0
aI0
aF0.15384615384615385
aI0
assg134
(dp3717
g299
(lp3718
F0
aF0.092307692307692313
aI0
aI0
aI0
aI0
aI0
assV@\u6587\u4ef6\u7ba1\u7406\u5668
p3719
(dp3720
g299
(lp3721
I0
aI0
aI0
aI0
aI0
aF0.076923076923076927
aI0
assV@\u7cfb\u7edf\u8bbe\u7f6e
p3722
(dp3723
g299
(lp3724
I0
aI0
aI0
aI0
aI0
aF0.076923076923076927
aI0
assg290
(dp3725
g299
(lp3726
F0
aF0.025000000000000001
aI0
aI0
aI0
aI0
aI0
asssg264
(dp3727
V@\u76f8\u673a
p3728
(dp3729
g299
(lp3730
I0
aI0
aI0
aI0
aI0
aF0.083333333333333329
aI0
assV@\u7535\u8bdd
p3731
(dp3732
g299
(lp3733
I0
aI0
aI0
aI0
aI0
aF0.083333333333333329
aI0
assg80
(dp3734
g299
(lp3735
I0
aI0
aF0.375
aI0
aI0
aI0
aI0
assg164
(dp3736
g299
(lp3737
I0
aI0
aF0.375
aI0
aI0
aI0
aI0
assV@\u76f8\u518c
p3738
(dp3739
g299
(lp3740
I0
aI0
aI0
aI0
aI0
aF0.083333333333333329
aI0
assg48
(dp3741
g299
(lp3742
I0
aI0
aF0.7272727272727274
aI0
aI0
aI0
aI0
assg234
(dp3743
g299
(lp3744
I0
aI0
aF0.67500000000000004
aI0
aI0
aI0
aI0
assV@\u7f51\u7edc\u4f4d\u7f6e
p3745
(dp3746
g299
(lp3747
I0
aI0
aI0
aI0
aI0
aF0.16666666666666666
aI0
assV@\u7cfb\u7edf\u8bbe\u7f6e
p3748
(dp3749
g299
(lp3750
I0
aI0
aI0
aI0
aI0
aF0.25
aI0
assV@\u4efb\u52a1\u7ba1\u7406\u5668
p3751
(dp3752
g299
(lp3753
I0
aI0
aI0
aI0
aI0
aF0.16666666666666666
aI0
assg108
(dp3754
g299
(lp3755
I0
aI0
aF0.625
aI0
aI0
aI0
aI0
assV@\u6587\u4ef6\u7ba1\u7406\u5668
p3756
(dp3757
g299
(lp3758
I0
aI0
aI0
aI0
aI0
aF0.083333333333333329
aI0
assg150
(dp3759
g299
(lp3760
I0
aI0
aF0.5
aI0
aI0
aI0
aI0
assg204
(dp3761
g299
(lp3762
I0
aI0
aF0.375
aI0
aI0
aI0
aI0
assg268
(dp3763
g299
(lp3764
I0
aI0
aF0.75
aI0
aI0
aI0
aI0
assg206
(dp3765
g299
(lp3766
I0
aI0
aF0.78571428571428559
aI0
aI0
aI0
aI0
assV@\u5f55\u97f3\u673a
p3767
(dp3768
g299
(lp3769
I0
aI0
aI0
aI0
aI0
aF0.083333333333333329
aI0
asssg266
(dp3770
V\u76f8\u673a
p3771
(dp3772
g299
(lp3773
I0
aI0
aI0
aF0.27272727272727271
aI0
aI0
aI0
assV\u5b89\u5353\u5e02\u573a
p3774
(dp3775
g299
(lp3776
I0
aI0
aI0
aF0.090909090909090912
aI0
aI0
aI0
assV@\u76f8\u518c
p3777
(dp3778
g299
(lp3779
I0
aI0
aI0
aI0
aI0
aF0.5
aI0
assg70
(dp3780
g299
(lp3781
I0
aI0
aI0
aF0.63636363636363635
aI0
aI0
aI0
assV@\u76f8\u673a
p3782
(dp3783
g299
(lp3784
I0
aI0
aI0
aI0
aI0
aF0.5
aI0
asssg268
(dp3785
g128
(dp3786
g299
(lp3787
F0
aF0
aI0
aI0
aF0.74455409288883279
aI0
aI0
assV@\u76f8\u673a
p3788
(dp3789
g299
(lp3790
I0
aI0
aI0
aI0
aI0
aF0.076923076923076927
aI0
assg150
(dp3791
g299
(lp3792
F0
aF0
aF1
aI0
aI0
aI0
aI0
assV@\u5f55\u97f3\u673a
p3793
(dp3794
g299
(lp3795
I0
aI0
aI0
aI0
aI0
aF0.076923076923076927
aI0
assg158
(dp3796
g299
(lp3797
F0
aF0
aF0.625
aI0
aI0
aI0
aI0
assg80
(dp3798
g299
(lp3799
F0
aF0
aF0.375
aI0
aI0
aI0
aI0
assg164
(dp3800
g299
(lp3801
F0
aF0
aF0.375
aI0
aI0
aI0
aI0
assV@\u4e0b\u8f7d\u7ba1\u7406\u5668
p3802
(dp3803
g299
(lp3804
I0
aI0
aI0
aI0
aI0
aF0.076923076923076927
aI0
assV@\u76f8\u518c
p3805
(dp3806
g299
(lp3807
I0
aI0
aI0
aI0
aI0
aF0.076923076923076927
aI0
assg234
(dp3808
g299
(lp3809
F0
aF0
aF0.69999999999999996
aI0
aI0
aI0
aI0
assV@\u4efb\u52a1\u7ba1\u7406\u5668
p3810
(dp3811
g299
(lp3812
I0
aI0
aI0
aI0
aI0
aF0.15384615384615385
aI0
assV@\u7535\u8bdd
p3813
(dp3814
g299
(lp3815
I0
aI0
aI0
aI0
aI0
aF0.076923076923076927
aI0
assg204
(dp3816
g299
(lp3817
F0
aF0
aF0.375
aI0
aI0
aI0
aI0
assV@\u84dd\u7259
p3818
(dp3819
g299
(lp3820
I0
aI0
aI0
aI0
aI0
aF0.076923076923076927
aI0
assg108
(dp3821
g299
(lp3822
F0
aF0.0061538461538461538
aI0
aI0
aI0
aI0
aI0
assg278
(dp3823
g299
(lp3824
F0
aF0
aF0.625
aI0
aI0
aI0
aI0
assg48
(dp3825
g299
(lp3826
F0
aF0
aF0.81818181818181823
aI0
aI0
aI0
aI0
assV@\u7f51\u7edc\u4f4d\u7f6e
p3827
(dp3828
g299
(lp3829
I0
aI0
aI0
aI0
aI0
aF0.076923076923076927
aI0
assg284
(dp3830
g299
(lp3831
F0
aF0
aF0.625
aI0
aI0
aI0
aI0
assV@\u6587\u4ef6\u7ba1\u7406\u5668
p3832
(dp3833
g299
(lp3834
I0
aI0
aI0
aI0
aI0
aF0.15384615384615385
aI0
assV@\u7cfb\u7edf\u8bbe\u7f6e
p3835
(dp3836
g299
(lp3837
I0
aI0
aI0
aI0
aI0
aF0.15384615384615385
aI0
assg206
(dp3838
g299
(lp3839
F0
aF0
aF0.71428571428571419
aI0
aI0
aI0
aI0
asssg270
(dp3840
sg272
(dp3841
V@\u7535\u8bdd
p3842
(dp3843
g299
(lp3844
I0
aI0
aI0
aI0
aI0
aF0.5
aI0
assg80
(dp3845
g299
(lp3846
F0
aF0
aF0.34999999999999998
aI0
aI0
aI0
aI0
assg164
(dp3847
g299
(lp3848
F0
aF0
aF0.34999999999999998
aI0
aI0
aI0
aI0
assg84
(dp3849
g299
(lp3850
F0
aF0
aF0.59999999999999998
aI0
aI0
aI0
aI0
assg48
(dp3851
g299
(lp3852
F0
aF0
aF0.62727272727272732
aI0
aI0
aI0
aI0
assg234
(dp3853
g299
(lp3854
F0
aF0
aF0.5
aI0
aI0
aI0
aI0
assV@\u7cfb\u7edf\u8bbe\u7f6e
p3855
(dp3856
g299
(lp3857
I0
aI0
aI0
aI0
aI0
aF0.5
aI0
assg108
(dp3858
g299
(lp3859
F0
aF0
aF0.59999999999999998
aI0
aI0
aI0
aI0
assg244
(dp3860
g299
(lp3861
F0
aF0
aF0.59999999999999998
aI0
aI0
aI0
aI0
assg150
(dp3862
g299
(lp3863
F0
aF0
aF0.34999999999999998
aI0
aI0
aI0
aI0
assg204
(dp3864
g299
(lp3865
F0
aF0
aF0.34999999999999998
aI0
aI0
aI0
aI0
assg268
(dp3866
g299
(lp3867
F0
aF0
aF0.59999999999999998
aI0
aI0
aI0
aI0
assg206
(dp3868
g299
(lp3869
F0
aF0
aF0.68571428571428572
aI0
aI0
aI0
aI0
assg290
(dp3870
g299
(lp3871
F0.03125
aF0
aI0
aI0
aI0
aI0
aI0
asssg274
(dp3872
V@\u7a0b\u5e8f\u5b89\u88c5
p3873
(dp3874
g299
(lp3875
I0
aI0
aI0
aI0
aI0
aF0.043478260869565216
aI0
assV@\u76f8\u673a
p3876
(dp3877
g299
(lp3878
I0
aI0
aI0
aI0
aI0
aF0.086956521739130432
aI0
assg150
(dp3879
g299
(lp3880
F0
aF0
aF0.71428571428571419
aI0
aI0
aI0
aI0
assV@\u5f55\u97f3\u673a
p3881
(dp3882
g299
(lp3883
I0
aI0
aI0
aI0
aI0
aF0.043478260869565216
aI0
assg158
(dp3884
g299
(lp3885
F0
aF0
aF0.64285714285714279
aI0
aI0
aI0
aI0
assg80
(dp3886
g299
(lp3887
F0
aF0
aF0.71428571428571419
aI0
aI0
aI0
aI0
assg164
(dp3888
g299
(lp3889
F0
aF0
aF0.71428571428571419
aI0
aI0
aI0
aI0
assV@\u76f8\u518c
p3890
(dp3891
g299
(lp3892
I0
aI0
aI0
aI0
aI0
aF0.086956521739130432
aI0
assg84
(dp3893
g299
(lp3894
F0
aF0
aF0.5714285714285714
aI0
aI0
aI0
aI0
assg234
(dp3895
g299
(lp3896
F0
aF0
aF0.85714285714285721
aI0
aI0
aI0
aI0
assg20
(dp3897
g299
(lp3898
F0
aF0
aF0.5714285714285714
aI0
aI0
aI0
aI0
assV@\u4efb\u52a1\u7ba1\u7406\u5668
p3899
(dp3900
g299
(lp3901
I0
aI0
aI0
aI0
aI0
aF0.043478260869565216
aI0
assg244
(dp3902
g299
(lp3903
F0
aF0
aF0.5714285714285714
aI0
aI0
aI0
aI0
assV@\u7535\u8bdd
p3904
(dp3905
g299
(lp3906
I0
aI0
aI0
aI0
aI0
aF0.13043478260869565
aI0
assV@\u7cfb\u7edf\u8bbe\u7f6e
p3907
(dp3908
g299
(lp3909
I0
aI0
aI0
aI0
aI0
aF0.17391304347826086
aI0
assV@\u84dd\u7259
p3910
(dp3911
g299
(lp3912
I0
aI0
aI0
aI0
aI0
aF0.086956521739130432
aI0
assg108
(dp3913
g299
(lp3914
F0
aF0
aF0.5714285714285714
aI0
aI0
aI0
aI0
assg268
(dp3915
g299
(lp3916
F0
aF0
aF0.5714285714285714
aI0
aI0
aI0
aI0
assg278
(dp3917
g299
(lp3918
F0
aF0
aF0.64285714285714279
aI0
aI0
aI0
aI0
assg48
(dp3919
g299
(lp3920
F0
aF0
aF0.81168831168831168
aI0
aI0
aI0
aI0
assV@\u7f51\u7edc\u4f4d\u7f6e
p3921
(dp3922
g299
(lp3923
I0
aI0
aI0
aI0
aI0
aF0.086956521739130432
aI0
assg284
(dp3924
g299
(lp3925
F0
aF0
aF0.64285714285714279
aI0
aI0
aI0
aI0
assV@\u901a\u8baf\u5f55
p3926
(dp3927
g299
(lp3928
I0
aI0
aI0
aI0
aI0
aF0.13043478260869565
aI0
assg204
(dp3929
g299
(lp3930
F0
aF0
aF0.71428571428571419
aI0
aI0
aI0
aI0
assg206
(dp3931
g299
(lp3932
F0
aF0
aF0.9285714285714286
aI0
aI0
aI0
aI0
assg170
(dp3933
g299
(lp3934
I0
aI0
aI0
aI0
aI0
aF0.086956521739130432
aI0
asssg276
(dp3935
V@\u7535\u8bdd
p3936
(dp3937
g299
(lp3938
I0
aI0
aI0
aI0
aI0
aF0.071428571428571425
aI0
assV@\u4e0b\u8f7d\u7ba1\u7406\u5668
p3939
(dp3940
g299
(lp3941
I0
aI0
aI0
aI0
aI0
aF0.21428571428571427
aI0
assV@\u7a0b\u5e8f\u5b89\u88c5
p3942
(dp3943
g299
(lp3944
I0
aI0
aI0
aI0
aI0
aF0.2857142857142857
aI0
assV@\u7f51\u7edc\u4f4d\u7f6e
p3945
(dp3946
g299
(lp3947
I0
aI0
aI0
aI0
aI0
aF0.14285714285714285
aI0
assV@\u4efb\u52a1\u7ba1\u7406\u5668
p3948
(dp3949
g299
(lp3950
I0
aI0
aI0
aI0
aI0
aF0.14285714285714285
aI0
assV@\u7cfb\u7edf\u8bbe\u7f6e
p3951
(dp3952
g299
(lp3953
I0
aI0
aI0
aI0
aI0
aF0.14285714285714285
aI0
asssg278
(dp3954
V@\u76f8\u673a
p3955
(dp3956
g299
(lp3957
I0
aI0
aI0
aI0
aI0
aF0.071428571428571425
aI0
assV@\u7535\u8bdd
p3958
(dp3959
g299
(lp3960
I0
aI0
aI0
aI0
aI0
aF0.071428571428571425
aI0
assg80
(dp3961
g299
(lp3962
F0
aF0
aF0.75
aI0
aI0
aI0
aI0
assg164
(dp3963
g299
(lp3964
F0
aF0
aF0.75
aI0
aI0
aI0
aI0
assV@\u76f8\u518c
p3965
(dp3966
g299
(lp3967
I0
aI0
aI0
aI0
aI0
aF0.071428571428571425
aI0
assg48
(dp3968
g299
(lp3969
F0
aF0
aF0.59090909090909094
aI0
aI0
aI0
aI0
assg234
(dp3970
g299
(lp3971
F0
aF0
aF0.69999999999999996
aI0
aI0
aI0
aI0
assV@\u7f51\u7edc\u4f4d\u7f6e
p3972
(dp3973
g299
(lp3974
I0
aI0
aI0
aI0
aI0
aF0.14285714285714285
aI0
assV@\u7cfb\u7edf\u8bbe\u7f6e
p3975
(dp3976
g299
(lp3977
I0
aI0
aI0
aI0
aI0
aF0.2857142857142857
aI0
assV@\u4efb\u52a1\u7ba1\u7406\u5668
p3978
(dp3979
g299
(lp3980
I0
aI0
aI0
aI0
aI0
aF0.14285714285714285
aI0
assg108
(dp3981
g299
(lp3982
F0
aF0
aF1
aI0
aI0
aI0
aI0
assV@\u6587\u4ef6\u7ba1\u7406\u5668
p3983
(dp3984
g299
(lp3985
I0
aI0
aI0
aI0
aI0
aF0.071428571428571425
aI0
assg204
(dp3986
g299
(lp3987
F0
aF0
aF0.75
aI0
aI0
aI0
aI0
assg206
(dp3988
g299
(lp3989
F0
aF0
aF0.64285714285714279
aI0
aI0
aI0
aI0
assV@\u7a0b\u5e8f\u5b89\u88c5
p3990
(dp3991
g299
(lp3992
I0
aI0
aI0
aI0
aI0
aF0.071428571428571425
aI0
assV@\u5f55\u97f3\u673a
p3993
(dp3994
g299
(lp3995
I0
aI0
aI0
aI0
aI0
aF0.071428571428571425
aI0
asssg280
(dp3996
V@\u7535\u8bdd
p3997
(dp3998
g299
(lp3999
I0
aI0
aI0
aI0
aI0
aF1
aI0
assV\u767e\u5ea6
p4000
(dp4001
g299
(lp4002
I0
aI0
aI0
aF1
aI0
aI0
aI0
asssg282
(dp4003
V@\u7535\u8bdd
p4004
(dp4005
g299
(lp4006
I0
aI0
aI0
aI0
aI0
aF0.80000000000000004
aI0
assg80
(dp4007
g299
(lp4008
F0
aF0
aF0.75
aI0
aI0
aI0
aI0
assg164
(dp4009
g299
(lp4010
F0
aF0
aF0.75
aI0
aI0
aI0
aI0
assg48
(dp4011
g299
(lp4012
F0
aF0
aF0.59090909090909094
aI0
aI0
aI0
aI0
assg234
(dp4013
g299
(lp4014
F0
aF0
aF0.69999999999999996
aI0
aI0
aI0
aI0
assg108
(dp4015
g299
(lp4016
F0
aF0
aF1
aI0
aI0
aI0
aI0
assV@\u6587\u4ef6\u7ba1\u7406\u5668
p4017
(dp4018
g299
(lp4019
I0
aI0
aI0
aI0
aI0
aF0.20000000000000001
aI0
assg204
(dp4020
g299
(lp4021
F0
aF0
aF0.75
aI0
aI0
aI0
aI0
assg206
(dp4022
g299
(lp4023
F0
aF0
aF0.64285714285714279
aI0
aI0
aI0
aI0
asssg284
(dp4024
V@\u76f8\u673a
p4025
(dp4026
g299
(lp4027
I0
aI0
aI0
aI0
aI0
aF0.14285714285714285
aI0
assg150
(dp4028
g299
(lp4029
F0
aF0.011904761904761904
aF0.75
aI0
aI0
aI0
aI0
assg152
(dp4030
g299
(lp4031
F0
aF0.01
aI0
aI0
aI0
aI0
aI0
assg158
(dp4032
g299
(lp4033
F0
aF0
aF1
aI0
aI0
aI0
aI0
assg80
(dp4034
g299
(lp4035
F0
aF0.008771929824561403
aF0.75
aI0
aI0
aI0
aI0
assg230
(dp4036
g299
(lp4037
F0
aF0.01098901098901099
aI0
aI0
aI0
aI0
aI0
assg164
(dp4038
g299
(lp4039
F0
aF0
aF0.75
aI0
aI0
aI0
aI0
assV@\u76f8\u518c
p4040
(dp4041
g299
(lp4042
I0
aI0
aI0
aI0
aI0
aF0.14285714285714285
aI0
assg234
(dp4043
g299
(lp4044
F0
aF0.012658227848101266
aF0.59999999999999998
aI0
aI0
aI0
aI0
assg86
(dp4045
g299
(lp4046
F0
aF0.0076335877862595417
aI0
aI0
aI0
aI0
aI0
assg240
(dp4047
g299
(lp4048
F0
aF0.017241379310344827
aI0
aI0
aI0
aI0
aI0
assV@\u4efb\u52a1\u7ba1\u7406\u5668
p4049
(dp4050
g299
(lp4051
I0
aI0
aI0
aI0
aI0
aF0.14285714285714285
aI0
assg244
(dp4052
g299
(lp4053
F0
aF0.010869565217391304
aI0
aI0
aI0
aI0
aI0
assV@\u7535\u8bdd
p4054
(dp4055
g299
(lp4056
I0
aI0
aI0
aI0
aI0
aF0.14285714285714285
aI0
assV\u76f8\u673a
p4057
(dp4058
g299
(lp4059
I0
aI0
aI0
aF0.40000000000000002
aI0
aI0
aI0
assg108
(dp4060
g299
(lp4061
F0
aF0.0034843205574912892
aI0
aF0.20000000000000001
aI0
aI0
aI0
assg274
(dp4062
g299
(lp4063
F0
aF0.02097902097902098
aI0
aF0.20000000000000001
aI0
aI0
aI0
assg278
(dp4064
g299
(lp4065
F0
aF0.014925373134328358
aF1
aI0
aI0
aI0
aI0
assg48
(dp4066
g299
(lp4067
F0
aF0.040540540540540543
aF0.72727272727272729
aF0.20000000000000001
aI0
aI0
aI0
assV@\u7f51\u7edc\u4f4d\u7f6e
p4068
(dp4069
g299
(lp4070
I0
aI0
aI0
aI0
aI0
aF0.2857142857142857
aI0
assV@\u6587\u4ef6\u7ba1\u7406\u5668
p4071
(dp4072
g299
(lp4073
I0
aI0
aI0
aI0
aI0
aF0.14285714285714285
aI0
assg204
(dp4074
g299
(lp4075
F0
aF0
aF0.75
aI0
aI0
aI0
aI0
assg136
(dp4076
g299
(lp4077
F0
aF0.012048192771084338
aI0
aI0
aI0
aI0
aI0
assg206
(dp4078
g299
(lp4079
F0
aF0.013888888888888888
aF0.64285714285714279
aI0
aI0
aI0
aI0
asssg286
(dp4080
V@\u7535\u8bdd
p4081
(dp4082
g299
(lp4083
I0
aI0
aI0
aI0
aI0
aF0.35714285714285715
aI0
assg80
(dp4084
g299
(lp4085
F0
aF0
aF0.75
aI0
aI0
aI0
aI0
assg164
(dp4086
g299
(lp4087
F0
aF0
aF0.75
aI0
aI0
aI0
aI0
assg48
(dp4088
g299
(lp4089
F0
aF0
aF0.59090909090909094
aI0
aI0
aI0
aI0
assg234
(dp4090
g299
(lp4091
F0
aF0
aF0.69999999999999996
aI0
aI0
aI0
aI0
assV@\u7f51\u7edc\u4f4d\u7f6e
p4092
(dp4093
g299
(lp4094
I0
aI0
aI0
aI0
aI0
aF0.42857142857142855
aI0
assV@\u7cfb\u7edf\u8bbe\u7f6e
p4095
(dp4096
g299
(lp4097
I0
aI0
aI0
aI0
aI0
aF0.071428571428571425
aI0
assV@\u4efb\u52a1\u7ba1\u7406\u5668
p4098
(dp4099
g299
(lp4100
I0
aI0
aI0
aI0
aI0
aF0.071428571428571425
aI0
assg108
(dp4101
g299
(lp4102
F0
aF0
aF1
aI0
aI0
aI0
aI0
assV@\u6587\u4ef6\u7ba1\u7406\u5668
p4103
(dp4104
g299
(lp4105
I0
aI0
aI0
aI0
aI0
aF0.071428571428571425
aI0
assg204
(dp4106
g299
(lp4107
F0
aF0
aF0.75
aI0
aI0
aI0
aI0
assg206
(dp4108
g299
(lp4109
F0
aF0
aF0.64285714285714279
aI0
aI0
aI0
aI0
asssg288
(dp4110
sg290
(dp4111
V@\u76f8\u673a
p4112
(dp4113
g299
(lp4114
I0
aI0
aI0
aI0
aI0
aF0.083333333333333329
aI0
assV@\u7535\u8bdd
p4115
(dp4116
g299
(lp4117
I0
aI0
aI0
aI0
aI0
aF0.083333333333333329
aI0
assg80
(dp4118
g299
(lp4119
F0
aF0
aF0.3125
aI0
aI0
aI0
aI0
assV@\u7f51\u7edc\u4f4d\u7f6e
p4120
(dp4121
g299
(lp4122
I0
aI0
aI0
aI0
aI0
aF0.16666666666666666
aI0
assg164
(dp4123
g299
(lp4124
F0
aF0
aF0.3125
aI0
aI0
aI0
aI0
assV@\u4e0b\u8f7d\u7ba1\u7406\u5668
p4125
(dp4126
g299
(lp4127
I0
aI0
aI0
aI0
aI0
aF0.16666666666666666
aI0
assV@\u76f8\u518c
p4128
(dp4129
g299
(lp4130
I0
aI0
aI0
aI0
aI0
aF0.083333333333333329
aI0
assg48
(dp4131
g299
(lp4132
F0
aF0
aF0.72727272727272729
aI0
aI0
aI0
aI0
assg234
(dp4133
g299
(lp4134
F0
aF0
aF0.42500000000000004
aI0
aI0
aI0
aI0
assg256
(dp4135
g299
(lp4136
F0
aF0
aI0
aI0
aF0.71112001094037802
aI0
aI0
assV@\u7cfb\u7edf\u8bbe\u7f6e
p4137
(dp4138
g299
(lp4139
I0
aI0
aI0
aI0
aI0
aF0.16666666666666666
aI0
assV@\u4efb\u52a1\u7ba1\u7406\u5668
p4140
(dp4141
g299
(lp4142
I0
aI0
aI0
aI0
aI0
aF0.083333333333333329
aI0
assg108
(dp4143
g299
(lp4144
F0
aF0.0031545741324921135
aF0.5625
aI0
aI0
aI0
aI0
assg150
(dp4145
g299
(lp4146
F0
aF0
aF0.3125
aI0
aI0
aI0
aI0
assg204
(dp4147
g299
(lp4148
F0
aF0
aF0.3125
aI0
aI0
aI0
aI0
assg268
(dp4149
g299
(lp4150
F0
aF0
aF0.5625
aI0
aI0
aI0
aI0
assg206
(dp4151
g299
(lp4152
F0
aF0
aF0.78571428571428559
aI0
aI0
aI0
aI0
assg270
(dp4153
g299
(lp4154
I0
aI0
aI0
aF1
aI0
aI0
aI0
assV@\u7a0b\u5e8f\u5b89\u88c5
p4155
(dp4156
g299
(lp4157
I0
aI0
aI0
aI0
aI0
aF0.083333333333333329
aI0
assV@\u5f55\u97f3\u673a
p4158
(dp4159
g299
(lp4160
I0
aI0
aI0
aI0
aI0
aF0.083333333333333329
aI0
assssS'edge'
p4161
g295
sS'pred'
p4162
(dp4163
g8
(dp4164
sg10
(dp4165
g80
g1240
sg66
g1114
sg236
g3313
sg262
g3671
sg108
g1572
sg160
g2386
sg190
g2707
ssg12
(dp4166
g268
g3794
sg210
g2930
sg212
g2993
sg144
g2171
sg10
g336
sg66
g1124
sg86
g1412
sg216
g3063
sg224
g3115
sg64
g1051
sg156
g2278
sg158
g2336
sg238
g3417
sg152
g2257
sg80
g1243
sg230
g3193
sg164
g2533
sg18
g494
sg234
g3298
sg236
g3316
sg160
g2389
sg244
g3462
sg190
g2717
sg94
g1502
sg176
g2548
sg248
g3567
sg24
g546
sg188
g2630
sg256
g3625
sg258
g3655
sg30
g670
sg108
g1575
sg162
g2490
sg112
g1681
sg192
g2753
sg40
g739
sg116
g1721
sg44
g814
sg274
g3882
sg46
g854
sg278
g3994
sg48
g865
sg128
g1886
sg264
g3768
sg130
g1919
sg132
g1957
sg54
g954
sg150
g2200
sg136
g1999
sg206
g2879
sg138
g2095
sg290
g4159
sg208
g2920
ssg14
(dp4167
sg16
(dp4168
g82
g1320
ssg18
(dp4169
g80
g1256
sg192
g2733
sg236
g3325
sg262
g3680
sg108
g1586
sg160
g2402
ssg20
(dp4170
g274
g3897
sg116
g1734
sg94
g1493
sg62
g1014
sg30
g640
sg8
g312
sg74
g1163
sg224
g3141
sg10
g349
sg154
g2262
sg196
g2771
sg42
g750
sg238
g3405
ssg22
(dp4171
g18
g483
sg176
g2574
sg248
g3556
ssg24
(dp4172
g130
g1895
ssg26
(dp4173
g244
g3495
sg238
g3424
sg224
g3153
ssg28
(dp4174
sg30
(dp4175
sg32
(dp4176
g196
g2776
ssg34
(dp4177
g20
g506
ssg36
(dp4178
g14
g418
ssg38
(dp4179
g244
g3504
sg14
g421
ssg40
(dp4180
sg42
(dp4181
sg44
(dp4182
sg46
(dp4183
g250
g3573
ssg48
(dp4184
g268
g3825
sg210
g2938
sg212
g2985
sg62
g1007
sg144
g2149
sg10
g366
sg66
g1092
sg236
g3362
sg216
g3032
sg72
g1138
sg224
g3169
sg64
g1058
sg156
g2309
sg158
g2345
sg74
g1156
sg78
g1192
sg80
g1294
sg230
g3220
sg164
g2506
sg82
g1322
sg16
g438
sg18
g469
sg114
g1691
sg234
g3274
sg86
g1378
sg88
g1418
sg238
g3399
sg240
g3439
sg244
g3509
sg92
g1458
sg94
g1486
sg246
g3522
sg176
g2561
sg178
g2597
sg248
g3538
sg250
g3575
sg220
g3080
sg160
g2441
sg26
g562
sg188
g2639
sg204
g2809
sg258
g3633
sg30
g633
sg106
g1538
sg108
g1625
sg46
g823
sg140
g2110
sg112
g1652
sg192
g2735
sg40
g710
sg272
g3851
sg116
g1727
sg44
g782
sg274
g3919
sg190
g2685
sg138
g2062
sg278
g3968
sg122
g1783
sg162
g2467
sg128
g1854
sg264
g3741
sg282
g4011
sg196
g2764
sg284
g4066
sg84
g1346
sg132
g1931
sg134
g1973
sg286
g4088
sg54
g922
sg150
g2192
sg136
g2031
sg206
g2851
sg56
g964
sg290
g4131
sg208
g2892
sg256
g3601
ssg50
(dp4185
g190
g2678
sg60
g985
sg210
g2944
sg212
g2976
sg62
g1012
sg144
g2154
sg10
g369
sg66
g1088
sg86
g1383
sg216
g3037
sg24
g528
sg28
g606
sg88
g1424
sg224
g3172
sg64
g1061
sg156
g2312
sg158
g2350
sg74
g1161
sg78
g1197
sg130
g1904
sg80
g1297
sg230
g3223
sg164
g2511
sg14
g398
sg18
g475
sg232
g3249
sg234
g3280
sg20
g504
sg236
g3365
sg8
g310
sg238
g3390
sg152
g2239
sg90
g1442
sg244
g3512
sg92
g1451
sg94
g1523
sg176
g2551
sg178
g2602
sg248
g3544
sg220
g3085
sg160
g2444
sg26
g567
sg188
g2644
sg204
g2814
sg258
g3636
sg30
g638
sg32
g677
sg108
g1628
sg162
g2470
sg120
g1766
sg112
g1657
sg268
g3828
sg40
g715
sg42
g748
sg116
g1732
sg44
g772
sg274
g3922
sg262
g3712
sg276
g3946
sg46
g826
sg278
g3973
sg114
g1696
sg48
g891
sg126
g1831
sg128
g1859
sg264
g3746
sg196
g2769
sg284
g4069
sg132
g1936
sg134
g1969
sg286
g4093
sg54
g927
sg150
g2197
sg136
g2034
sg206
g2856
sg138
g2067
sg290
g4121
sg208
g2897
sg256
g3606
ssg52
(dp4186
g210
g2946
ssg54
(dp4187
sg56
(dp4188
g144
g2168
ssg58
(dp4189
g62
g1041
ssg60
(dp4190
sg62
(dp4191
sg64
(dp4192
g80
g1231
sg210
g2961
sg236
g3306
sg262
g3664
sg108
g1565
sg94
g1491
sg160
g2377
ssg66
(dp4193
g10
g326
ssg68
(dp4194
sg70
(dp4195
g266
g3780
ssg72
(dp4196
g80
g1236
sg192
g2745
sg236
g3311
sg262
g3669
sg108
g1570
sg224
g3124
sg10
g331
sg160
g2382
ssg74
(dp4197
g262
g3673
sg80
g1247
sg160
g2393
sg108
g1577
sg236
g3318
ssg76
(dp4198
g64
g1053
ssg78
(dp4199
sg80
(dp4200
g212
g2973
sg144
g2142
sg66
g1085
sg72
g1132
sg150
g2179
sg10
g340
sg156
g2284
sg158
g2333
sg238
g3387
sg78
g1182
sg230
g3197
sg164
g2499
sg82
g1316
sg16
g432
sg84
g1342
sg114
g1687
sg234
g3267
sg86
g1371
sg160
g2395
sg240
g3431
sg244
g3478
sg92
g1448
sg94
g1477
sg178
g2590
sg190
g2675
sg220
g3070
sg26
g555
sg256
g3597
sg188
g2627
sg30
g626
sg106
g1534
sg264
g3734
sg140
g2104
sg268
g3798
sg40
g700
sg272
g3845
sg44
g769
sg274
g3886
sg138
g2055
sg278
g3961
sg122
g1777
sg48
g869
sg108
g1579
sg282
g4007
sg196
g2760
sg284
g4034
sg134
g1966
sg286
g4084
sg54
g912
sg204
g2802
sg136
g2003
sg206
g2841
sg56
g960
sg290
g4118
sg208
g2888
ssg82
(dp4201
g16
g436
ssg84
(dp4202
g274
g3893
sg120
g1760
sg122
g1781
sg240
g3437
sg72
g1136
sg244
g3485
sg140
g2108
sg272
g3849
ssg86
(dp4203
g284
g4045
sg54
g930
sg224
g3119
ssg88
(dp4204
sg90
(dp4205
sg92
(dp4206
g262
g3689
sg80
g1264
sg160
g2413
sg108
g1597
sg236
g3334
ssg94
(dp4207
g162
g2484
ssg96
(dp4208
g8
g302
sg10
g355
sg14
g386
sg16
g430
sg18
g459
sg20
g498
sg24
g516
sg26
g553
sg28
g603
sg30
g624
sg32
g674
sg40
g698
sg42
g743
sg44
g780
sg46
g818
sg48
g879
sg54
g910
sg56
g958
sg60
g979
sg62
g1000
sg64
g1048
sg66
g1083
sg68
g1128
sg74
g1154
sg78
g1180
sg80
g1271
sg82
g1314
sg86
g1369
sg88
g1416
sg90
g1439
sg92
g1446
sg94
g1484
sg106
g1532
sg108
g1604
sg140
g2102
sg112
g1650
sg114
g1685
sg116
g1718
sg120
g1763
sg122
g1775
sg124
g1818
sg126
g1822
sg128
g1852
sg130
g1893
sg132
g1926
sg134
g1964
sg136
g2016
sg138
g2053
sg144
g2140
sg150
g2177
sg152
g2230
sg156
g2297
sg158
g2331
sg160
g2420
sg162
g2461
sg164
g2497
sg176
g2545
sg178
g2588
sg278
g3959
sg190
g2673
sg192
g2724
sg196
g2758
sg204
g2800
sg206
g2839
sg208
g2886
sg210
g2927
sg212
g2983
sg216
g3022
sg220
g3068
sg224
g3151
sg230
g3209
sg232
g3243
sg234
g3265
sg236
g3341
sg238
g3385
sg244
g3493
sg248
g3530
sg250
g3571
sg256
g3595
sg258
g3629
sg262
g3696
sg264
g3732
sg268
g3814
sg272
g3843
sg274
g3905
sg276
g3937
sg188
g2625
sg280
g3998
sg282
g4005
sg284
g4055
sg286
g4082
sg290
g4116
ssg98
(dp4209
g216
g3027
ssg100
(dp4210
g106
g1551
sg212
g3005
ssg102
(dp4211
g62
g1024
ssg104
(dp4212
g210
g2949
sg224
g3156
sg66
g1099
sg86
g1386
sg216
g3040
sg150
g2203
sg64
g1064
sg156
g2303
sg78
g1200
sg258
g3639
sg14
g401
sg18
g478
sg232
g3252
sg234
g3283
sg236
g3346
sg248
g3547
sg24
g531
sg26
g570
sg268
g3819
sg274
g3911
sg120
g1771
sg46
g829
sg122
g1791
sg48
g883
sg126
g1834
sg128
g1862
sg132
g1939
sg136
g2022
sg206
g2859
sg138
g2070
ssg106
(dp4213
sg108
(dp4214
g268
g3821
sg150
g2211
sg212
g3003
sg164
g2522
sg144
g2159
sg66
g1110
sg236
g3351
sg72
g1144
sg224
g3158
sg10
g360
sg158
g2363
sg238
g3422
sg210
g2955
sg78
g1210
sg80
g1277
sg230
g3213
sg114
g1700
sg82
g1332
sg16
g445
sg272
g3858
sg234
g3291
sg44
g798
sg86
g1396
sg160
g2426
sg240
g3445
sg244
g3500
sg92
g1468
sg94
g1507
sg178
g2610
sg28
g614
sg220
g3096
sg26
g581
sg188
g2654
sg256
g3614
sg258
g3644
sg30
g654
sg106
g1548
sg264
g3754
sg140
g2120
sg192
g2743
sg40
g726
sg42
g755
sg116
g1746
sg190
g2700
sg274
g3913
sg262
g3701
sg138
g2081
sg278
g3981
sg122
g1800
sg48
g885
sg126
g1839
sg128
g1871
sg282
g4015
sg196
g2778
sg284
g4060
sg134
g1983
sg286
g4101
sg54
g940
sg204
g2824
sg206
g2870
sg56
g968
sg290
g4143
sg14
g413
ssg110
(dp4215
sg112
(dp4216
sg114
(dp4217
g262
g3703
sg80
g1258
sg160
g2404
sg108
g1588
sg236
g3353
ssg116
(dp4218
g94
g1520
ssg118
(dp4219
g284
g4058
sg108
g1610
sg266
g3772
sg44
g767
ssg120
(dp4220
sg122
(dp4221
g262
g3709
sg80
g1292
sg160
g2439
sg108
g1623
sg236
g3359
ssg124
(dp4222
sg126
(dp4223
sg128
(dp4224
g268
g3786
ssg130
(dp4225
g266
g3775
ssg132
(dp4226
sg134
(dp4227
g262
g3717
sg80
g1304
sg160
g2448
sg108
g1633
sg236
g3370
ssg136
(dp4228
g284
g4076
sg224
g3180
ssg138
(dp4229
sg140
(dp4230
sg142
(dp4231
g60
g982
sg212
g3012
sg66
g1121
sg86
g1409
sg24
g525
sg152
g2236
sg156
g2270
sg78
g1226
sg230
g3188
sg14
g392
sg232
g3246
sg236
g3304
sg244
g3467
sg176
g2580
sg220
g3110
sg26
g596
sg262
g3662
sg162
g2487
sg140
g2132
sg112
g1674
sg40
g736
sg114
g1711
sg190
g2714
sg274
g3874
sg106
g1558
sg276
g3943
sg46
g844
sg278
g3991
sg48
g859
sg126
g1825
sg128
g1879
sg196
g2790
sg130
g1901
sg132
g1950
sg136
g1991
sg206
g2882
sg290
g4156
ssg144
(dp4232
g56
g974
ssg146
(dp4233
g212
g2971
ssg148
(dp4234
g196
g2783
ssg150
(dp4235
g66
g1112
sg216
g3053
sg224
g3126
sg10
g333
sg156
g2275
sg74
g1168
sg78
g1215
sg80
g1238
sg230
g3190
sg164
g2524
sg84
g1354
sg114
g1702
sg86
g1398
sg160
g2384
sg240
g3449
sg244
g3472
sg190
g2705
sg250
g3582
sg220
g3101
sg30
g659
sg264
g3759
sg112
g1671
sg268
g3791
sg272
g3862
sg44
g803
sg274
g3879
sg122
g1804
sg48
g863
sg128
g1876
sg284
g4028
sg132
g1947
sg54
g945
sg204
g2826
sg136
g1996
sg206
g2872
sg138
g2086
sg290
g4145
sg208
g2909
ssg152
(dp4236
g284
g4030
sg224
g3128
ssg154
(dp4237
sg156
(dp4238
g188
g2661
sg210
g2963
sg212
g3009
sg62
g1034
sg244
g3474
sg224
g3130
sg64
g1075
sg176
g2582
sg158
g2370
sg238
g3426
ssg158
(dp4239
g274
g3884
sg78
g1223
sg80
g1245
sg230
g3195
sg164
g2530
sg122
g1812
sg84
g1362
sg48
g867
sg204
g2835
sg86
g1406
sg30
g667
sg268
g3796
sg284
g4032
sg240
g3457
sg10
g338
sg136
g2001
sg156
g2280
sg208
g2917
sg44
g811
sg160
g2391
ssg160
(dp4240
sg162
(dp4241
g94
g1479
ssg164
(dp4242
g212
g2978
sg144
g2144
sg66
g1090
sg72
g1134
sg150
g2184
sg10
g342
sg156
g2286
sg158
g2338
sg238
g3392
sg78
g1219
sg80
g1251
sg230
g3199
sg190
g2680
sg82
g1318
sg16
g434
sg84
g1358
sg114
g1689
sg234
g3269
sg86
g1402
sg160
g2397
sg240
g3453
sg244
g3480
sg92
g1453
sg94
g1481
sg178
g2592
sg220
g3072
sg26
g557
sg256
g3599
sg188
g2632
sg30
g663
sg106
g1536
sg264
g3736
sg140
g2106
sg268
g3800
sg40
g702
sg272
g3847
sg44
g807
sg274
g3888
sg138
g2057
sg278
g3963
sg122
g1808
sg48
g871
sg108
g1581
sg282
g4009
sg196
g2762
sg284
g4038
sg134
g1971
sg286
g4086
sg54
g917
sg204
g2831
sg136
g2005
sg206
g2846
sg56
g962
sg290
g4123
sg208
g2913
ssg166
(dp4243
g258
g3631
sg220
g3075
sg24
g519
sg18
g464
sg162
g2464
sg276
g3940
sg46
g821
sg92
g1456
sg150
g2187
sg268
g3803
sg178
g2595
sg40
g705
sg290
g4126
sg248
g3533
sg44
g777
ssg168
(dp4244
g268
g3806
sg210
g2936
sg212
g2990
sg62
g1005
sg144
g2147
sg10
g345
sg86
g1376
sg216
g3030
sg24
g522
sg224
g3137
sg64
g1056
sg156
g2289
sg158
g2343
sg238
g3397
sg78
g1190
sg130
g1898
sg80
g1254
sg150
g2190
sg164
g2504
sg14
g389
sg18
g467
sg234
g3272
sg236
g3323
sg8
g305
sg160
g2400
sg152
g2233
sg244
g3483
sg190
g2683
sg176
g2559
sg248
g3536
sg220
g3078
sg26
g560
sg188
g2637
sg30
g631
sg262
g3678
sg108
g1584
sg266
g3778
sg192
g2731
sg40
g708
sg116
g1724
sg44
g787
sg274
g3891
sg278
g3966
sg48
g873
sg264
g3739
sg284
g4041
sg132
g1929
sg54
g920
sg204
g2807
sg136
g2008
sg206
g2849
sg138
g2060
sg290
g4129
ssg170
(dp4245
g274
g3933
sg230
g3239
sg188
g2664
sg88
g1421
sg150
g2223
ssg172
(dp4246
g190
g2698
sg60
g988
sg268
g3811
sg210
g2952
sg212
g3001
sg62
g1022
sg144
g2157
sg10
g352
sg66
g1108
sg86
g1394
sg216
g3025
sg152
g2245
sg24
g534
sg88
g1427
sg224
g3146
sg64
g1067
sg156
g2294
sg158
g2361
sg238
g3420
sg78
g1208
sg130
g1907
sg258
g3642
sg230
g3206
sg164
g2519
sg82
g1330
sg16
g443
sg18
g481
sg232
g3255
sg234
g3289
sg236
g3330
sg8
g315
sg160
g2409
sg140
g2118
sg244
g3490
sg92
g1466
sg94
g1505
sg176
g2571
sg178
g2608
sg248
g3553
sg250
g3580
sg220
g3088
sg26
g579
sg28
g612
sg204
g2822
sg188
g2652
sg30
g651
sg262
g3685
sg108
g1593
sg162
g2476
sg14
g410
sg112
g1663
sg192
g2741
sg40
g724
sg42
g753
sg116
g1743
sg44
g795
sg274
g3900
sg106
g1546
sg276
g3949
sg46
g835
sg278
g3979
sg122
g1798
sg48
g877
sg126
g1837
sg128
g1868
sg264
g3752
sg284
g4050
sg132
g1942
sg134
g1981
sg286
g4099
sg54
g938
sg150
g2182
sg136
g2013
sg206
g2844
sg138
g2079
sg290
g4141
sg208
g2904
sg256
g3612
ssg174
(dp4247
g20
g508
ssg176
(dp4248
g80
g1266
sg256
g3618
sg236
g3336
sg262
g3691
sg108
g1599
sg160
g2415
ssg178
(dp4249
sg180
(dp4250
g14
g423
ssg182
(dp4251
g62
g997
ssg184
(dp4252
g94
g1475
ssg186
(dp4253
g216
g3051
ssg188
(dp4254
sg190
(dp4255
g80
g1286
sg212
g3017
sg62
g1039
sg280
g4001
sg236
g3355
sg262
g3705
sg108
g1617
sg224
g3163
sg160
g2433
ssg192
(dp4256
g18
g461
sg108
g1621
ssg194
(dp4257
g268
g3789
sg210
g2924
sg212
g2969
sg62
g1019
sg144
g2137
sg10
g329
sg86
g1366
sg216
g3043
sg24
g513
sg224
g3122
sg64
g1045
sg156
g2273
sg158
g2355
sg238
g3411
sg78
g1177
sg130
g1890
sg80
g1234
sg150
g2209
sg164
g2494
sg14
g404
sg18
g456
sg234
g3262
sg236
g3309
sg8
g298
sg160
g2380
sg152
g2227
sg244
g3470
sg190
g2670
sg176
g2542
sg248
g3550
sg220
g3094
sg26
g573
sg188
g2622
sg30
g621
sg262
g3667
sg108
g1568
sg266
g3783
sg192
g2738
sg40
g695
sg116
g1740
sg44
g764
sg274
g3877
sg278
g3956
sg48
g861
sg264
g3729
sg284
g4026
sg132
g1923
sg54
g907
sg204
g2797
sg136
g1994
sg206
g2868
sg138
g2073
sg290
g4113
ssg196
(dp4258
g32
g679
ssg198
(dp4259
g60
g991
sg210
g2941
sg64
g1070
sg66
g1105
sg216
g3046
sg224
g3175
sg10
g374
sg156
g2317
sg238
g3408
sg78
g1185
sg80
g1302
sg230
g3228
sg82
g1327
sg18
g472
sg234
g3277
sg236
g3368
sg74
g1166
sg152
g2248
sg94
g1496
sg176
g2566
sg248
g3541
sg24
g537
sg26
g589
sg28
g609
sg204
g2817
sg30
g643
sg32
g682
sg108
g1631
sg162
g2479
sg112
g1666
sg40
g718
sg116
g1737
sg190
g2692
sg274
g3927
sg262
g3715
sg46
g838
sg188
g2657
sg14
g395
sg48
g895
sg126
g1828
sg196
g2774
sg130
g1910
sg54
g915
sg150
g2214
sg136
g2039
sg206
g2865
ssg200
(dp4260
g60
g994
sg210
g2958
sg62
g1032
sg144
g2162
sg216
g3049
sg24
g540
sg152
g2251
sg156
g2320
sg158
g2366
sg160
g2451
sg78
g1213
sg130
g1913
sg258
g3647
sg230
g3231
sg82
g1335
sg16
g448
sg18
g486
sg236
g3373
sg8
g318
sg244
g3515
sg190
g2703
sg94
g1510
sg176
g2577
sg248
g3559
sg220
g3099
sg26
g586
sg30
g657
sg32
g685
sg108
g1636
sg162
g2482
sg140
g2127
sg112
g1669
sg268
g3833
sg40
g729
sg116
g1749
sg44
g801
sg262
g3720
sg46
g841
sg278
g3984
sg48
g897
sg126
g1842
sg128
g1874
sg264
g3757
sg282
g4018
sg196
g2781
sg284
g4072
sg286
g4104
sg54
g943
sg136
g2042
sg138
g2084
ssg202
(dp4261
g240
g3435
ssg204
(dp4262
g212
g3007
sg144
g2164
sg66
g1096
sg72
g1148
sg150
g2216
sg10
g376
sg156
g2322
sg158
g2368
sg238
g3403
sg78
g1217
sg80
g1306
sg230
g3211
sg164
g2526
sg82
g1337
sg16
g450
sg84
g1356
sg114
g1704
sg234
g3293
sg86
g1400
sg160
g2453
sg240
g3451
sg244
g3517
sg92
g1470
sg94
g1515
sg178
g2612
sg190
g2689
sg220
g3103
sg26
g591
sg256
g3616
sg188
g2659
sg30
g661
sg106
g1553
sg264
g3761
sg140
g2124
sg268
g3816
sg40
g731
sg272
g3864
sg44
g805
sg274
g3929
sg138
g2088
sg278
g3986
sg122
g1806
sg48
g899
sg108
g1638
sg282
g4020
sg196
g2785
sg284
g4074
sg134
g1985
sg286
g4106
sg54
g947
sg136
g2044
sg206
g2874
sg56
g970
sg290
g4147
sg208
g2911
ssg206
(dp4263
g268
g3838
sg150
g2220
sg212
g2995
sg62
g1016
sg144
g2166
sg66
g1118
sg216
g3060
sg72
g1150
sg88
g1432
sg224
g3182
sg10
g378
sg154
g2264
sg156
g2324
sg158
g2352
sg74
g1172
sg78
g1221
sg80
g1308
sg230
g3236
sg164
g2528
sg82
g1339
sg16
g452
sg18
g491
sg272
g3868
sg234
g3295
sg86
g1404
sg8
g323
sg238
g3428
sg240
g3455
sg244
g3519
sg92
g1472
sg94
g1517
sg246
g3524
sg176
g2584
sg178
g2614
sg248
g3564
sg250
g3589
sg220
g3107
sg160
g2455
sg26
g593
sg188
g2646
sg256
g3620
sg258
g3652
sg30
g665
sg106
g1555
sg108
g1640
sg46
g846
sg140
g2129
sg112
g1678
sg192
g2750
sg40
g733
sg42
g760
sg116
g1754
sg44
g809
sg274
g3931
sg190
g2711
sg138
g2092
sg278
g3988
sg122
g1810
sg114
g1708
sg48
g901
sg128
g1883
sg264
g3765
sg282
g4022
sg196
g2787
sg284
g4078
sg84
g1360
sg132
g1954
sg134
g1987
sg286
g4108
sg54
g951
sg204
g2833
sg136
g2046
sg56
g972
sg290
g4151
sg208
g2915
ssg208
(dp4264
sg210
(dp4265
g192
g2726
sg212
g2980
sg62
g1002
sg108
g1561
sg176
g2553
sg244
g3464
sg224
g3117
sg64
g1079
sg188
g2634
sg156
g2267
sg158
g2340
sg238
g3394
ssg212
(dp4266
g80
g1229
sg192
g2728
sg236
g3301
sg262
g3659
sg108
g1563
sg160
g2375
ssg214
(dp4267
g124
g1815
ssg216
(dp4268
sg218
(dp4269
sg220
(dp4270
sg222
(dp4271
g62
g1026
ssg224
(dp4272
g94
g1513
ssg226
(dp4273
g116
g1756
ssg228
(dp4274
g80
g1275
ssg230
(dp4275
g284
g4036
sg224
g3134
ssg232
(dp4276
sg234
(dp4277
g150
g2194
sg212
g2987
sg62
g1009
sg144
g2151
sg66
g1094
sg216
g3034
sg72
g1140
sg224
g3139
sg10
g347
sg154
g2260
sg156
g2291
sg158
g2347
sg74
g1158
sg78
g1194
sg80
g1260
sg230
g3203
sg164
g2508
sg82
g1324
sg16
g440
sg84
g1348
sg272
g3853
sg86
g1380
sg8
g307
sg238
g3401
sg240
g3441
sg244
g3487
sg92
g1460
sg94
g1488
sg178
g2599
sg190
g2687
sg250
g3577
sg220
g3082
sg160
g2406
sg26
g564
sg256
g3603
sg188
g2641
sg30
g635
sg106
g1540
sg264
g3743
sg140
g2112
sg112
g1654
sg268
g3808
sg40
g712
sg42
g745
sg116
g1729
sg44
g784
sg274
g3895
sg138
g2064
sg278
g3970
sg122
g1785
sg114
g1693
sg48
g875
sg128
g1856
sg108
g1590
sg282
g4013
sg196
g2766
sg284
g4043
sg132
g1933
sg134
g1975
sg286
g4090
sg54
g924
sg204
g2811
sg136
g2010
sg206
g2853
sg56
g966
sg290
g4133
sg208
g2894
ssg236
(dp4278
g224
g3143
ssg238
(dp4279
g188
g2666
sg210
g2965
sg212
g3014
sg62
g1036
sg244
g3476
sg224
g3132
sg64
g1077
sg176
g2568
sg156
g2282
sg158
g2372
ssg240
(dp4280
g284
g4047
sg72
g1142
sg114
g1698
sg54
g935
ssg242
(dp4281
g26
g583
ssg244
(dp4282
g274
g3902
sg262
g3687
sg80
g1262
sg72
g1146
sg122
g1802
sg84
g1352
sg120
g1768
sg236
g3332
sg284
g4052
sg108
g1595
sg240
g3447
sg140
g2122
sg224
g3148
sg272
g3860
sg160
g2411
ssg246
(dp4283
sg248
(dp4284
g262
g3693
sg80
g1268
sg160
g2417
sg108
g1601
sg236
g3338
ssg250
(dp4285
g46
g856
ssg252
(dp4286
g248
g3527
ssg254
(dp4287
g230
g3201
ssg256
(dp4288
g80
g1273
sg236
g3343
sg262
g3698
sg108
g1606
sg176
g2563
sg290
g4135
sg160
g2422
ssg258
(dp4289
g262
g3675
sg80
g1249
sg160
g2424
sg108
g1608
sg236
g3320
ssg260
(dp4290
g26
g576
sg152
g2242
sg236
g3348
sg14
g407
sg136
g2025
ssg262
(dp4291
sg264
(dp4292
sg266
(dp4293
sg268
(dp4294
g150
g2218
sg66
g1116
sg216
g3058
sg224
g3160
sg10
g362
sg156
g2305
sg74
g1170
sg80
g1282
sg114
g1706
sg244
g3502
sg250
g3587
sg220
g3105
sg264
g3763
sg112
g1676
sg272
g3866
sg190
g2709
sg274
g3915
sg122
g1793
sg48
g887
sg128
g1881
sg132
g1952
sg54
g949
sg136
g2027
sg206
g2876
sg138
g2090
sg290
g4149
sg208
g2899
ssg270
(dp4295
g46
g849
sg290
g4153
sg88
g1435
ssg272
(dp4296
g262
g3682
sg80
g1284
sg160
g2431
sg108
g1615
sg236
g3327
ssg274
(dp4297
g262
g3707
sg80
g1288
sg230
g3216
sg192
g2721
sg140
g2099
sg14
g383
sg16
g427
sg26
g550
sg128
g1849
sg238
g3382
sg236
g3357
sg116
g1715
sg284
g4062
sg112
g1647
sg108
g1619
sg134
g1961
sg244
g3507
sg224
g3165
sg158
g2328
sg138
g2050
sg160
g2435
ssg276
(dp4298
sg278
(dp4299
g274
g3917
sg78
g1187
sg80
g1290
sg230
g3218
sg164
g2501
sg122
g1779
sg84
g1344
sg48
g889
sg204
g2804
sg86
g1373
sg30
g628
sg268
g3823
sg284
g4064
sg240
g3433
sg224
g3167
sg10
g364
sg136
g2029
sg156
g2307
sg208
g2890
sg44
g774
sg160
g2437
ssg280
(dp4300
sg282
(dp4301
sg284
(dp4302
g274
g3924
sg78
g1205
sg80
g1299
sg230
g3225
sg164
g2516
sg122
g1795
sg84
g1350
sg48
g893
sg204
g2819
sg86
g1391
sg30
g648
sg268
g3830
sg240
g3443
sg160
g2446
sg10
g371
sg136
g2036
sg156
g2314
sg208
g2901
sg44
g792
ssg286
(dp4303
sg288
(dp4304
g190
g2695
sg268
g3836
sg210
g2933
sg212
g2998
sg62
g1029
sg10
g358
sg106
g1543
sg66
g1102
sg86
g1389
sg216
g3056
sg24
g543
sg28
g617
sg88
g1430
sg224
g3178
sg64
g1073
sg156
g2300
sg158
g2358
sg238
g3414
sg78
g1203
sg80
g1280
sg230
g3234
sg164
g2514
sg14
g416
sg18
g489
sg232
g3258
sg234
g3286
sg20
g501
sg236
g3376
sg8
g321
sg160
g2429
sg152
g2254
sg244
g3498
sg92
g1463
sg94
g1499
sg176
g2556
sg178
g2605
sg272
g3856
sg248
g3562
sg250
g3585
sg220
g3091
sg26
g599
sg188
g2649
sg204
g2829
sg258
g3650
sg30
g646
sg32
g688
sg108
g1613
sg162
g2473
sg140
g2115
sg112
g1660
sg192
g2748
sg40
g721
sg42
g758
sg116
g1752
sg44
g790
sg274
g3908
sg262
g3723
sg276
g3952
sg46
g832
sg278
g3976
sg122
g1788
sg48
g881
sg126
g1845
sg128
g1865
sg264
g3749
sg130
g1916
sg132
g1945
sg134
g1978
sg286
g4096
sg54
g933
sg150
g2206
sg136
g2019
sg206
g2862
sg138
g2076
sg290
g4138
sg208
g2907
sg256
g3609
ssg290
(dp4305
g80
g1310
sg46
g851
sg256
g3622
sg236
g3378
sg262
g3725
sg108
g1642
sg272
g3870
sg160
g2457
sssS'adj'
p4306
g295
sb.