ccopy_reg
_reconstructor
p1
(cnetworkx.classes.digraph
DiGraph
p2
c__builtin__
object
p3
NtRp4
(dp5
S'node'
p6
(dp7
Vcom.android.browser
p8
(dp9
S'weight'
p10
F0.001583117236636628
ssVcom.youku.phone
p11
(dp12
g10
F0.051813063224401497
ssVcom.ss.android.article.news
p13
(dp14
g10
F0.019219473058353271
ssVcom.wunding.kingline
p15
(dp16
g10
F0.22513216521726673
ssVcom.autonavi.minimap
p17
(dp18
g10
F0.0012679264745913265
ssVcom.alensw.PicFolder
p19
(dp20
g10
F0.00074499634665253084
ssVcom.android.deskclock
p21
(dp22
g10
F0.00027937362999469906
ssVcom.eg.android.AlipayGphone
p23
(dp24
g10
F0.0020057593948337371
ssVcom.pplive.androidphone
p25
(dp26
g10
F0.037629478932362931
ssVcom.android.dazhihui
p27
(dp28
g10
F0.047565151363200046
ssVcom.sankuai.meituan
p29
(dp30
g10
F0.0013538875915127724
ssVcom.jingdong.app.mall
p31
(dp32
g10
F0.043338729781228956
ssVcom.hexin.plat.android
p33
(dp34
g10
F0.050409031648017882
ssVme.ele
p35
(dp36
g10
F0.00083095746357397674
ssVcom.android.phone
p37
(dp38
g10
F0.10168483789166034
ssVcom.miui.gallery
p39
(dp40
g10
F0.0057593948337368731
ssVcom.tencent.mobileqq
p41
(dp42
g10
F0.32776973882147309
ssVcom.sec.spen.flashannotate
p43
(dp44
g10
F0.00070917921460192834
ssVcom.android.calculator
p45
(dp46
g10
F7.8797690511325376e-05
ssVcom.achievo.vipshop
p47
(dp48
g10
F0.00040831530537686786
ssVcom.android.fileexplorer
p49
(dp50
g10
F0.00058740096562988006
ssVcom.android.email
p51
(dp52
g10
F0.014240891703319531
ssVcn.wps.moffice_eng
p53
(dp54
g10
F0.00035100789409590394
ssVcom.miui.notes
p55
(dp56
g10
F0.00013610510179228928
ssVcom.miui.cloudservice
p57
(dp58
g10
F0.00081663061075373572
ssVcom.exam8.zhengquan
p59
(dp60
g10
F0.00015043195461253027
ssVcom.tuan800.tao800
p61
(dp62
g10
F0.00011461482256192782
ssVcom.android.calendar
p63
(dp64
g10
F3.5817132050602447e-05
ssVcom.tencent.mm
p65
(dp66
g10
F0.054556655539477646
ssVcom.android.mms
p67
(dp68
g10
F0.0046060831817074741
ssVcom.jm.android.jumei
p69
(dp70
g10
F0.0028008997263571111
ssVcom.android.settings
p71
(dp72
g10
F0.00076648662588289231
ssVcom.android.quicksearchbox
p73
(dp74
g10
F5.7307411280963908e-05
ssVcom.android.camera
p75
(dp76
g10
F0.0011103310935686758
ssVcom.xiaomi.account
p77
(dp78
g10
F8.5961116921445872e-05
sssS'node_dict_factory'
p79
c__builtin__
dict
p80
sS'edge_attr_dict_factory'
p81
g80
sS'succ'
p82
(dp83
g8
(dp84
g63
(dp85
g10
F0.90000000000000002
ssVcom.ss.android.article.news
p86
(dp87
g10
F1.3
ssg45
(dp88
g10
F1.3
ssg67
(dp89
g10
I1
ssVcom.jingdong.app.mall
p90
(dp91
g10
F1.7000000000000002
ssg33
(dp92
g10
F0.90000000000000002
ssg73
(dp93
g10
F0.90000000000000002
ssVcom.android.email
p94
(dp95
g10
I1
ssVcom.tencent.mobileqq
p96
(dp97
g10
F10.599999999999998
sssg11
(dp98
Vcom.tencent.mobileqq
p99
(dp100
g10
I1
sssg13
(dp101
g65
(dp102
g10
F0.90000000000000002
ssVcom.android.email
p103
(dp104
g10
I1
ssVcom.tencent.mobileqq
p105
(dp106
g10
F3.7000000000000002
ssVcom.android.phone
p107
(dp108
g10
I2
sssg15
(dp109
Vcom.android.dazhihui
p110
(dp111
g10
I1
ssVcom.hexin.plat.android
p112
(dp113
g10
F0.90000000000000002
ssg51
(dp114
g10
I1
sssg17
(dp115
g47
(dp116
g10
F0.90000000000000002
ssg69
(dp117
g10
I1
sssg19
(dp118
Vcom.android.fileexplorer
p119
(dp120
g10
F0.90000000000000002
ssVcom.tencent.mobileqq
p121
(dp122
g10
F1.3999999999999999
ssg31
(dp123
g10
F0.69999999999999996
sssg21
(dp124
Vcom.tencent.mobileqq
p125
(dp126
g10
I1
ssVcom.android.phone
p127
(dp128
g10
I1
sssg23
(dp129
Vcom.tencent.mm
p130
(dp131
g10
F0.90000000000000002
ssVcom.tencent.mobileqq
p132
(dp133
g10
I1
ssVcom.sec.spen.flashannotate
p134
(dp135
g10
F1.8999999999999999
sssg25
(dp136
Vcom.tencent.mobileqq
p137
(dp138
g10
I1
sssg27
(dp139
Vcom.hexin.plat.android
p140
(dp141
g10
F5.5
ssVcom.tencent.mobileqq
p142
(dp143
g10
F8.4000000000000004
ssVcom.android.mms
p144
(dp145
g10
I1
sssg29
(dp146
sg31
(dp147
Vcom.android.browser
p148
(dp149
g10
F4.0999999999999996
ssg29
(dp150
g10
I1
ssg67
(dp151
g10
F0.69999999999999996
ssVcom.android.phone
p152
(dp153
g10
I2
ssVcom.tencent.mobileqq
p154
(dp155
g10
F13.1
ssg77
(dp156
g10
F0.40000000000000002
sssg33
(dp157
Vcom.android.browser
p158
(dp159
g10
F0.90000000000000002
ssVcom.android.calculator
p160
(dp161
g10
I1
ssVcom.tencent.mobileqq
p162
(dp163
g10
F4.3000000000000007
ssVcom.jingdong.app.mall
p164
(dp165
g10
I2
ssVcom.android.dazhihui
p166
(dp167
g10
F2.7000000000000002
ssVcom.android.phone
p168
(dp169
g10
I2
ssg73
(dp170
g10
F1.3999999999999999
ssVcom.android.camera
p171
(dp172
g10
F0.40000000000000002
ssVcom.tencent.mm
p173
(dp174
g10
F0.90000000000000002
sssg35
(dp175
Vcom.tencent.mobileqq
p176
(dp177
g10
I1
sssg37
(dp178
Vcom.pplive.androidphone
p179
(dp180
g10
F0.90000000000000002
ssVcom.android.dazhihui
p181
(dp182
g10
I1
ssVcom.tencent.mm
p183
(dp184
g10
I1
ssVcom.android.mms
p185
(dp186
g10
I2
ssVcom.hexin.plat.android
p187
(dp188
g10
I1
ssVme.ele
p189
(dp190
g10
F0.90000000000000002
ssVcom.android.camera
p191
(dp192
g10
F1.8
ssVcom.tencent.mobileqq
p193
(dp194
g10
F4.9000000000000004
sssg39
(dp195
Vcom.tencent.mm
p196
(dp197
g10
F0.40000000000000002
ssVcom.tencent.mobileqq
p198
(dp199
g10
F4.0999999999999996
ssg43
(dp200
g10
F0.69999999999999996
ssVcom.miui.cloudservice
p201
(dp202
g10
F3.0999999999999996
sssg41
(dp203
g8
(dp204
g10
F10
ssg43
(dp205
g10
F5.4000000000000004
ssg55
(dp206
g10
I1
ssg59
(dp207
g10
I1
ssg13
(dp208
g10
F4.0999999999999996
ssg33
(dp209
g10
F9.8000000000000007
ssg45
(dp210
g10
I1
ssg19
(dp211
g10
F1.8999999999999999
ssVcom.android.dazhihui
p212
(dp213
g10
F4.7000000000000002
ssg67
(dp214
g10
F2.2999999999999998
ssg31
(dp215
g10
F12.5
ssg49
(dp216
g10
F3.5999999999999996
ssg189
(dp217
g10
I1
ssg57
(dp218
g10
F6.3000000000000007
ssg168
(dp219
g10
F5.7999999999999998
ssg73
(dp220
g10
F2.7000000000000002
ssg75
(dp221
g10
F15.1
ssg39
(dp222
g10
F3.7000000000000002
ssg65
(dp223
g10
F11.4
ssg77
(dp224
g10
F4
ssg23
(dp225
g10
I1
sssg43
(dp226
Vcom.tencent.mm
p227
(dp228
g10
F2.7000000000000002
ssVcom.tencent.mobileqq
p229
(dp230
g10
F3.1000000000000001
ssg71
(dp231
g10
F0.90000000000000002
sssg45
(dp232
Vcom.tencent.mobileqq
p233
(dp234
g10
I1
sssg47
(dp235
sg49
(dp236
g154
(dp237
g10
F1.3
ssg31
(dp238
g10
F1.7
sssg51
(dp239
g63
(dp240
g10
I1
ssg53
(dp241
g10
I1
ssVcom.ss.android.article.news
p242
(dp243
g10
I1
ssg11
(dp244
g10
I1
sssg53
(dp245
Vcom.android.email
p246
(dp247
g10
I1
sssg55
(dp248
Vcom.android.email
p249
(dp250
g10
I1
sssg57
(dp251
g196
(dp252
g10
F1.7
ssg39
(dp253
g10
F2.3999999999999999
ssg198
(dp254
g10
F6.2999999999999998
ssVcom.xiaomi.account
p255
(dp256
g10
F0.69999999999999996
ssg43
(dp257
g10
F1.7000000000000002
sssg59
(dp258
sg61
(dp259
Vcom.android.mms
p260
(dp261
g10
I1
sssg63
(dp262
sg65
(dp263
g55
(dp264
g10
F0.90000000000000002
ssg179
(dp265
g10
I1
ssVcom.miui.cloudservice
p266
(dp267
g10
F0.69999999999999996
ssVcom.sec.spen.flashannotate
p268
(dp269
g10
I1
ssg71
(dp270
g10
F1.7
ssVcom.sankuai.meituan
p271
(dp272
g10
I1
ssVcom.jingdong.app.mall
p273
(dp274
g10
F0.69999999999999996
ssVcom.hexin.plat.android
p275
(dp276
g10
F0.90000000000000002
ssg37
(dp277
g10
I4
ssg171
(dp278
g10
F0.90000000000000002
ssVcom.miui.gallery
p279
(dp280
g10
F0.40000000000000002
ssVcom.tencent.mobileqq
p281
(dp282
g10
F13
ssg255
(dp283
g10
F0.90000000000000002
ssg23
(dp284
g10
F1.3
sssg67
(dp285
g45
(dp286
g10
F0.69999999999999996
ssVcom.android.browser
p287
(dp288
g10
I1
ssVcom.tencent.mobileqq
p289
(dp290
g10
F2.2999999999999998
ssVcom.android.phone
p291
(dp292
g10
I1
sssg69
(dp293
g47
(dp294
g10
I1
sssg71
(dp295
Vcom.tencent.mobileqq
p296
(dp297
g10
F0.90000000000000002
ssVcom.tencent.mm
p298
(dp299
g10
I1
ssg23
(dp300
g10
F0.69999999999999996
sssg73
(dp301
Vcom.android.browser
p302
(dp303
g10
I1
ssVcom.tencent.mobileqq
p304
(dp305
g10
F1.3
ssg86
(dp306
g10
F0.69999999999999996
ssVcom.alensw.PicFolder
p307
(dp308
g10
I1
sssg75
(dp309
Vcom.miui.gallery
p310
(dp311
g10
I1
ssVcom.tencent.mobileqq
p312
(dp313
g10
I2
sssg77
(dp314
g39
(dp315
g10
F1.8
ssg198
(dp316
g10
F1.5
ssg57
(dp317
g10
F2.7000000000000002
ssssS'edge'
p318
g83
sS'graph'
p319
(dp320
sS'adjlist_dict_factory'
p321
g80
sS'adj'
p322
g83
sS'pred'
p323
(dp324
g8
(dp325
g73
g303
sg33
g159
sg67
g288
sVcom.tencent.mobileqq
p326
g204
sVcom.jingdong.app.mall
p327
g149
ssg11
(dp328
Vcom.android.email
p329
g244
ssg13
(dp330
g73
g306
sg302
g87
sVcom.android.email
p331
g243
sg41
g208
ssg15
(dp332
sg17
(dp333
sg19
(dp334
Vcom.android.quicksearchbox
p335
g308
sVcom.tencent.mobileqq
p336
g211
ssg21
(dp337
sg23
(dp338
g71
g300
sg227
g284
sg296
g225
ssg25
(dp339
g183
g265
sVcom.android.phone
p340
g180
ssg27
(dp341
Vcom.wunding.kingline
p342
g111
sVcom.hexin.plat.android
p343
g167
sVcom.tencent.mobileqq
p344
g213
sVcom.android.phone
p345
g182
ssg29
(dp346
Vcom.tencent.mm
p347
g272
sVcom.jingdong.app.mall
p348
g150
ssg31
(dp349
g148
g91
sg119
g238
sg19
g123
sVcom.hexin.plat.android
p350
g165
sVcom.tencent.mm
p351
g274
sg336
g215
ssg33
(dp352
g8
g92
sg27
g141
sg326
g209
sg342
g113
sVcom.android.phone
p353
g188
sg351
g276
ssg35
(dp354
Vcom.tencent.mobileqq
p355
g217
sVcom.android.phone
p356
g190
ssg37
(dp357
Vcom.ss.android.article.news
p358
g108
sVcom.tencent.mm
p359
g277
sVcom.android.mms
p360
g292
sVcom.jingdong.app.mall
p361
g153
sg21
g128
sVcom.hexin.plat.android
p362
g169
sVcom.tencent.mobileqq
p363
g219
ssg39
(dp364
g196
g280
sVcom.tencent.mobileqq
p365
g222
sg77
g315
sg57
g253
sVcom.android.camera
p366
g311
ssg41
(dp367
g8
g97
sVcom.youku.phone
p368
g100
sg13
g106
sg19
g122
sVcom.android.deskclock
p369
g126
sVcom.eg.android.AlipayGphone
p370
g133
sg25
g138
sVcom.android.dazhihui
p371
g143
sg31
g155
sg33
g163
sg35
g177
sVcom.android.phone
p372
g194
sg39
g199
sg65
g282
sg43
g230
sg45
g234
sg119
g237
sg57
g254
sg71
g297
sg67
g290
sg73
g305
sVcom.android.camera
p373
g313
sg77
g316
ssg43
(dp374
Vcom.tencent.mm
p375
g269
sg279
g200
sVcom.tencent.mobileqq
p376
g205
sg370
g135
sg266
g257
ssg45
(dp377
Vcom.hexin.plat.android
p378
g161
sVcom.android.browser
p379
g88
sg67
g286
sg289
g210
ssg47
(dp380
g17
g116
sg69
g294
ssg49
(dp381
g19
g120
sVcom.tencent.mobileqq
p382
g216
ssg51
(dp383
g15
g114
sVcom.android.browser
p384
g95
sVcom.miui.notes
p385
g250
sg53
g247
sVcom.ss.android.article.news
p386
g104
ssg53
(dp387
Vcom.android.email
p388
g241
ssg55
(dp389
Vcom.tencent.mobileqq
p390
g206
sVcom.tencent.mm
p391
g264
ssg57
(dp392
g196
g267
sg39
g202
sVcom.tencent.mobileqq
p393
g218
sg77
g317
ssg59
(dp394
Vcom.tencent.mobileqq
p395
g207
ssg61
(dp396
sg63
(dp397
g384
g85
sg94
g240
ssg65
(dp398
Vcom.ss.android.article.news
p399
g102
sg201
g252
sg268
g228
sg71
g299
sVcom.hexin.plat.android
p400
g174
sg340
g184
sVcom.miui.gallery
p401
g197
sVcom.tencent.mobileqq
p402
g223
sVcom.eg.android.AlipayGphone
p403
g131
ssg67
(dp404
g379
g89
sg61
g261
sVcom.android.dazhihui
p405
g145
sVcom.jingdong.app.mall
p406
g151
sg372
g186
sVcom.tencent.mobileqq
p407
g214
ssg69
(dp408
g17
g117
ssg71
(dp409
g375
g270
sg268
g231
ssg73
(dp410
g33
g170
sg162
g220
sg158
g93
ssg75
(dp411
g400
g172
sg173
g278
sVcom.tencent.mobileqq
p412
g221
sVcom.android.phone
p413
g192
ssg77
(dp414
g196
g283
sg393
g224
sVcom.jingdong.app.mall
p415
g156
sVcom.miui.cloudservice
p416
g256
sssb.