ccopy_reg
_reconstructor
p1
(cnetworkx.classes.digraph
DiGraph
p2
c__builtin__
object
p3
NtRp4
(dp5
S'node'
p6
(dp7
Vcom.android.mms
p8
(dp9
S'weight'
p10
F0.040264040412616206
ssVcom.UCMobile
p11
(dp12
g10
F0.030627838858937894
ssVcom.sec.android.app.clockpackage
p13
(dp14
g10
F0.0018678099927834613
ssVcom.sec.android.app.myfiles
p15
(dp16
g10
F0.0015069830623593836
ssVcom.android.settings
p17
(dp18
g10
F0.011928513817548924
ssVcom.android.gallery3d
p19
(dp20
g10
F0.0067071358831769746
ssVcom.baidu.BaiduMap
p21
(dp22
g10
F0.011631362227787918
ssVcom.android.connectionhandler
p23
(dp24
g10
F0.25412828458632253
ssVcom.sina.weibog3
p25
(dp26
g10
F0.028696353525491363
ssVcom.storm.smart
p27
(dp28
g10
F0.0043723733921976482
ssVcom.tencent.qqmusic
p29
(dp30
g10
F0.0085112705352973633
ssVcom.android.phone
p31
(dp32
g10
F0.028760028866154433
ssVcom.qihoo.cleandroid_cn
p33
(dp34
g10
F0.0022498620367618965
ssVcom.android.camera
p35
(dp36
g10
F0.00084900454217430067
ssVcom.infraware.polarisoffice4
p37
(dp38
g10
F0.0010824807912722333
ssVsoft.kinoko.SilentCamera
p39
(dp40
g10
F0.00025470136265229017
ssVcom.tencent.mm
p41
(dp42
g10
F0.47911448826251218
ssVcom.android.contacts
p43
(dp44
g10
F0.0083839198539712185
ssVcom.tencent.mobileqq
p45
(dp46
g10
F0.079063547989981747
sssS'node_dict_factory'
p47
c__builtin__
dict
p48
sS'edge_attr_dict_factory'
p49
g48
sS'succ'
p50
(dp51
g8
(dp52
Vcom.sina.weibog3
p53
(dp54
g10
F0.90000000000000002
ssVcom.tencent.mobileqq
p55
(dp56
g10
F1.1000000000000001
ssVcom.tencent.mm
p57
(dp58
g10
F14.299999999999999
ssVcom.android.contacts
p59
(dp60
g10
F3.7000000000000002
ssVcom.android.connectionhandler
p61
(dp62
g10
I1
sssg11
(dp63
Vcom.android.connectionhandler
p64
(dp65
g10
I1
sssg13
(dp66
Vcom.android.gallery3d
p67
(dp68
g10
F0.90000000000000002
ssVcom.tencent.mm
p69
(dp70
g10
F1.7
ssVcom.android.settings
p71
(dp72
g10
I1
sssg15
(dp73
g37
(dp74
g10
I1
sssg17
(dp75
Vcom.tencent.mobileqq
p76
(dp77
g10
I1
ssVcom.android.connectionhandler
p78
(dp79
g10
I1
ssVcom.tencent.mm
p80
(dp81
g10
F2.8999999999999999
ssVcom.baidu.BaiduMap
p82
(dp83
g10
I2
ssg33
(dp84
g10
I1
sssg19
(dp85
Vcom.tencent.mm
p86
(dp87
g10
I3
sssg21
(dp88
g17
(dp89
g10
F4.5999999999999996
ssVcom.tencent.mm
p90
(dp91
g10
I1
sssg23
(dp92
Vcom.android.mms
p93
(dp94
g10
I1
ssVcom.tencent.mm
p95
(dp96
g10
F9.8000000000000007
ssVcom.android.contacts
p97
(dp98
g10
I1
sssg25
(dp99
Vcom.android.mms
p100
(dp101
g10
F1.6000000000000001
ssg67
(dp102
g10
F0.40000000000000002
ssg13
(dp103
g10
F0.90000000000000002
ssVcom.tencent.mm
p104
(dp105
g10
F4.7000000000000002
ssVcom.android.contacts
p106
(dp107
g10
F2.2999999999999998
ssg55
(dp108
g10
F1.8999999999999999
sssg27
(dp109
Vcom.tencent.mm
p110
(dp111
g10
I1
sssg29
(dp112
Vcom.tencent.mobileqq
p113
(dp114
g10
I1
ssVcom.tencent.mm
p115
(dp116
g10
I1
sssg31
(dp117
Vcom.tencent.mm
p118
(dp119
g10
F6.8000000000000007
ssVcom.android.contacts
p120
(dp121
g10
F9.8000000000000007
ssVcom.android.connectionhandler
p122
(dp123
g10
I1
sssg33
(dp124
sg35
(dp125
g19
(dp126
g10
I1
sssg37
(dp127
Vcom.sec.android.app.myfiles
p128
(dp129
g10
I1
sssg39
(dp130
sg41
(dp131
Vcom.android.mms
p132
(dp133
g10
F12.600000000000001
ssVcom.android.settings
p134
(dp135
g10
F3.6999999999999997
ssVcom.android.gallery3d
p136
(dp137
g10
F4.7000000000000002
ssVcom.baidu.BaiduMap
p138
(dp139
g10
F3.4000000000000004
ssg23
(dp140
g10
I7
ssg25
(dp141
g10
I5
ssVcom.UCMobile
p142
(dp143
g10
I1
ssVcom.android.phone
p144
(dp145
g10
I2
ssVcom.storm.smart
p146
(dp147
g10
F1.8999999999999999
ssVcom.android.camera
p148
(dp149
g10
I1
ssg13
(dp150
g10
F1.7
ssg39
(dp151
g10
I1
ssg45
(dp152
g10
F19.899999999999999
ssg43
(dp153
g10
F8.2000000000000011
sssg43
(dp154
Vcom.android.mms
p155
(dp156
g10
F5.2999999999999998
ssVcom.android.phone
p157
(dp158
g10
I2
ssg118
(dp159
g10
F4.2999999999999998
ssVcom.tencent.mobileqq
p160
(dp161
g10
F0.90000000000000002
sssg45
(dp162
g25
(dp163
g10
F0.90000000000000002
ssVcom.android.settings
p164
(dp165
g10
I1
ssVcom.tencent.qqmusic
p166
(dp167
g10
F1.8999999999999999
ssVcom.tencent.mm
p168
(dp169
g10
F4.7000000000000002
ssVcom.android.mms
p170
(dp171
g10
F0.90000000000000002
ssssS'edge'
p172
g51
sS'graph'
p173
(dp174
sS'adjlist_dict_factory'
p175
g48
sS'adj'
p176
g51
sS'pred'
p177
(dp178
g8
(dp179
Vcom.sina.weibog3
p180
g101
sVcom.tencent.mobileqq
p181
g171
sVcom.tencent.mm
p182
g133
sVcom.android.contacts
p183
g156
sVcom.android.connectionhandler
p184
g94
ssg11
(dp185
Vcom.tencent.mm
p186
g143
ssg13
(dp187
Vcom.sina.weibog3
p188
g103
sVcom.tencent.mm
p189
g150
ssg15
(dp190
g37
g129
ssg17
(dp191
Vcom.tencent.mobileqq
p192
g165
sVcom.sec.android.app.clockpackage
p193
g72
sVcom.tencent.mm
p194
g135
sg21
g89
ssg19
(dp195
g188
g102
sg35
g126
sg13
g68
sVcom.tencent.mm
p196
g137
ssg21
(dp197
g134
g83
sg194
g139
ssg23
(dp198
g11
g65
sVcom.android.settings
p199
g79
sVcom.tencent.mm
p200
g140
sVcom.android.mms
p201
g62
sVcom.android.phone
p202
g123
ssg25
(dp203
Vcom.tencent.mm
p204
g141
sVcom.tencent.mobileqq
p205
g163
sVcom.android.mms
p206
g54
ssg27
(dp207
Vcom.tencent.mm
p208
g147
ssg29
(dp209
g113
g167
ssg31
(dp210
Vcom.tencent.mm
p211
g145
sVcom.android.contacts
p212
g158
ssg33
(dp213
Vcom.android.settings
p214
g84
ssg35
(dp215
Vcom.tencent.mm
p216
g149
ssg37
(dp217
g15
g74
ssg39
(dp218
Vcom.tencent.mm
p219
g151
ssg41
(dp220
Vcom.android.gallery3d
p221
g87
sVcom.android.settings
p222
g81
sg8
g58
sVcom.baidu.BaiduMap
p223
g91
sVcom.android.connectionhandler
p224
g96
sg25
g105
sg29
g116
sg31
g119
sg27
g111
sg13
g70
sVcom.tencent.mobileqq
p225
g169
sg120
g159
ssg43
(dp226
Vcom.sina.weibog3
p227
g107
sg132
g60
sg122
g98
sg41
g153
sg31
g121
ssg45
(dp228
g164
g77
sg206
g56
sg53
g108
sVcom.tencent.qqmusic
p229
g114
sVcom.tencent.mm
p230
g152
sVcom.android.contacts
p231
g161
sssb.