ccopy_reg
_reconstructor
p1
(cnetworkx.classes.digraph
DiGraph
p2
c__builtin__
object
p3
NtRp4
(dp5
S'node'
p6
(dp7
Vcom.android.browser
p8
(dp9
S'weight'
p10
F0.19511852008159247
ssVcom.youba.FileExplorer
p11
(dp12
g10
F0.0059435886614616308
ssVcom.handsgo.jiakao.android
p13
(dp14
g10
F0.10564816768657241
ssVcom.julyapp.julyqesbank
p15
(dp16
g10
F0.0057677428430751914
ssVcom.youdao.mrtime
p17
(dp18
g10
F0.04849827671097981
ssVcom.google.android.deskclock
p19
(dp20
g10
F0.00094956741928676938
ssVcom.mymoney
p21
(dp22
g10
F0.0023915031300555671
ssVcom.android.contacts
p23
(dp24
g10
F0.012274038123373425
ssVcom.eg.android.AlipayGphone
p25
(dp26
g10
F0.021523528170500107
ssVorg.greenvpn
p27
(dp28
g10
F0.0098825349933178586
ssVcom.android.vending
p29
(dp30
g10
F0.0069986635717802633
ssVcom.android.packageinstaller
p31
(dp32
g10
F0.098790180769501301
ssVcom.android.gallery3d
p33
(dp34
g10
F0.01016388830273616
ssVcom.google.android.googlequicksearchbox
p35
(dp36
g10
F0.0034817472040514878
ssVcom.google.android.gsf.login
p37
(dp38
g10
F0.0039741154955335164
ssVcom.android.phone
p39
(dp40
g10
F0.00031652247309558979
ssVcom.google.android.videos
p41
(dp42
g10
F0.00038686080045016529
ssVcom.android.htmlviewer
p43
(dp44
g10
F0.027045086867834283
ssVcom.tencent.mm
p45
(dp46
g10
F0.34237180839839626
ssVcom.baidu.lbs.waimai
p47
(dp48
g10
F0.048885137511429977
ssVcom.android.calculator
p49
(dp50
g10
F0.00010550749103186326
ssVcom.google.android.email
p51
(dp52
g10
F0.00014067665470915102
ssVcom.tf.thinkdroid.sg
p53
(dp54
g10
F0.013293943870014771
ssVcom.dianxing.heloandroid
p55
(dp56
g10
F0.024759091228810579
ssVcom.android.vpndialogs
p57
(dp58
g10
F0.00045719912780474079
ssVcom.google.android.gm
p59
(dp60
g10
F0.0015826123654779489
ssVcom.android.settings
p61
(dp62
g10
F0.0084757684462263491
ssVcom.android.mms
p63
(dp64
g10
F0.00049236829148202859
ssVcom.google.android.videoeditor
p65
(dp66
g10
F0.00028135330941830204
sssS'node_dict_factory'
p67
c__builtin__
dict
p68
sS'edge_attr_dict_factory'
p69
g68
sS'succ'
p70
(dp71
g8
(dp72
Vcom.android.contacts
p73
(dp74
g10
F1.7
ssVcom.android.vending
p75
(dp76
g10
F2.2000000000000002
ssVcom.android.settings
p77
(dp78
g10
F3.3999999999999999
ssVcom.android.packageinstaller
p79
(dp80
g10
F10.699999999999999
ssg47
(dp81
g10
F1.6000000000000001
ssVcom.android.gallery3d
p82
(dp83
g10
F1.3
ssg17
(dp84
g10
F2.2999999999999998
ssVcom.google.android.googlequicksearchbox
p85
(dp86
g10
F6.2999999999999998
ssg55
(dp87
g10
F0.69999999999999996
ssg21
(dp88
g10
F0.69999999999999996
ssVcom.android.vpndialogs
p89
(dp90
g10
F2.8999999999999999
ssg45
(dp91
g10
F1.3999999999999999
ssg15
(dp92
g10
F0.90000000000000002
ssg37
(dp93
g10
I1
ssVorg.greenvpn
p94
(dp95
g10
F6.4000000000000004
sssg11
(dp96
g31
(dp97
g10
I1
ssVcom.google.android.googlequicksearchbox
p98
(dp99
g10
F0.40000000000000002
ssg41
(dp100
g10
F1.6000000000000001
ssg53
(dp101
g10
I2
ssg39
(dp102
g10
F2.2999999999999998
ssg19
(dp103
g10
F1.7
ssVcom.android.htmlviewer
p104
(dp105
g10
F6.1000000000000005
ssVcom.android.contacts
p106
(dp107
g10
F3
sssg13
(dp108
sg15
(dp109
sg17
(dp110
Vcom.android.browser
p111
(dp112
g10
I1
ssVcom.android.contacts
p113
(dp114
g10
I1
sssg19
(dp115
Vcom.youba.FileExplorer
p116
(dp117
g10
F1.3
ssg49
(dp118
g10
F0.69999999999999996
ssVcom.android.mms
p119
(dp120
g10
I1
ssg33
(dp121
g10
F4.5
ssVcom.google.android.googlequicksearchbox
p122
(dp123
g10
F1.7999999999999998
ssVcom.android.htmlviewer
p124
(dp125
g10
F0.69999999999999996
ssVcom.tencent.mm
p126
(dp127
g10
I1
sssg21
(dp128
Vcom.google.android.deskclock
p129
(dp130
g10
F0.69999999999999996
ssVcom.android.packageinstaller
p131
(dp132
g10
I1
ssVcom.android.gallery3d
p133
(dp134
g10
F1.3
sssg23
(dp135
Vcom.google.android.gm
p136
(dp137
g10
F2.2999999999999998
ssg29
(dp138
g10
F0.69999999999999996
ssg116
(dp139
g10
F2.3999999999999999
ssVcom.android.settings
p140
(dp141
g10
I2
ssVcom.android.packageinstaller
p142
(dp143
g10
I1
ssVcom.baidu.lbs.waimai
p144
(dp145
g10
F1.8999999999999999
ssVcom.android.gallery3d
p146
(dp147
g10
F0.90000000000000002
ssg98
(dp148
g10
F1.6000000000000001
ssVcom.android.phone
p149
(dp150
g10
I1
ssVcom.google.android.deskclock
p151
(dp152
g10
F1.8999999999999999
ssg124
(dp153
g10
F1.1000000000000001
ssg27
(dp154
g10
F0.40000000000000002
sssg25
(dp155
g59
(dp156
g10
F0.40000000000000002
ssVcom.android.settings
p157
(dp158
g10
F0.69999999999999996
ssVcom.android.packageinstaller
p159
(dp160
g10
F1.8999999999999999
sssg27
(dp161
g8
(dp162
g10
F7.4000000000000004
ssVcom.android.vending
p163
(dp164
g10
F2.1000000000000001
ssg77
(dp165
g10
F1.1000000000000001
ssVcom.android.packageinstaller
p166
(dp167
g10
F1.3
ssVcom.google.android.googlequicksearchbox
p168
(dp169
g10
F0.40000000000000002
ssg57
(dp170
g10
F4.9000000000000004
ssVcom.android.contacts
p171
(dp172
g10
F1.3
ssg37
(dp173
g10
F1.6000000000000001
sssg29
(dp174
g8
(dp175
g10
F0.90000000000000002
ssVcom.android.settings
p176
(dp177
g10
F0.90000000000000002
ssg166
(dp178
g10
I2
ssg57
(dp179
g10
F0.90000000000000002
ssg45
(dp180
g10
F0.90000000000000002
ssVcom.android.contacts
p181
(dp182
g10
F3.1000000000000001
ssg27
(dp183
g10
F2.7999999999999998
sssg31
(dp184
g59
(dp185
g10
F1.6000000000000001
ssg8
(dp186
g10
F4.5999999999999996
ssg29
(dp187
g10
F0.90000000000000002
ssg157
(dp188
g10
F2.7999999999999998
ssg15
(dp189
g10
I1
ssg47
(dp190
g10
F1.8999999999999999
ssg146
(dp191
g10
F4.5
ssg17
(dp192
g10
F1.7
ssVcom.google.android.googlequicksearchbox
p193
(dp194
g10
I1
ssg55
(dp195
g10
I1
ssg129
(dp196
g10
F0.90000000000000002
ssg21
(dp197
g10
F0.90000000000000002
ssg57
(dp198
g10
F1.5
ssg45
(dp199
g10
I1
ssVcom.android.contacts
p200
(dp201
g10
I1
ssg27
(dp202
g10
F3.5999999999999996
sssg33
(dp203
Vcom.android.browser
p204
(dp205
g10
F2.3999999999999999
ssVcom.youba.FileExplorer
p206
(dp207
g10
F1.1000000000000001
ssg29
(dp208
g10
I1
ssg49
(dp209
g10
F1.8999999999999999
ssVcom.android.packageinstaller
p210
(dp211
g10
F1.1000000000000001
ssVcom.baidu.lbs.waimai
p212
(dp213
g10
I1
ssg122
(dp214
g10
F4.1999999999999993
ssg129
(dp215
g10
I1
ssVcom.android.htmlviewer
p216
(dp217
g10
F0.40000000000000002
ssg57
(dp218
g10
F0.69999999999999996
ssVcom.tencent.mm
p219
(dp220
g10
F6.1000000000000005
ssg27
(dp221
g10
F1.3
sssg35
(dp222
g204
(dp223
g10
F2.7000000000000002
ssVcom.android.vending
p224
(dp225
g10
I1
ssg206
(dp226
g10
F3.8000000000000003
ssVcom.android.settings
p227
(dp228
g10
F1.7
ssg131
(dp229
g10
F1.8
ssg133
(dp230
g10
F0.69999999999999996
ssVcom.google.android.deskclock
p231
(dp232
g10
F1.3999999999999999
ssg216
(dp233
g10
F1.8
ssg21
(dp234
g10
I1
ssg106
(dp235
g10
F2.7000000000000002
ssVorg.greenvpn
p236
(dp237
g10
F0.40000000000000002
sssg37
(dp238
Vcom.android.browser
p239
(dp240
g10
I1
ssg73
(dp241
g10
F0.40000000000000002
ssg224
(dp242
g10
F0.69999999999999996
ssg168
(dp243
g10
F0.90000000000000002
sssg39
(dp244
g41
(dp245
g10
I1
ssVcom.android.htmlviewer
p246
(dp247
g10
F1.6000000000000001
ssVcom.youba.FileExplorer
p248
(dp249
g10
F3
sssg41
(dp250
g246
(dp251
g10
F0.90000000000000002
ssg248
(dp252
g10
F1.7
sssg43
(dp253
Vcom.youba.FileExplorer
p254
(dp255
g10
F7.8000000000000007
ssg31
(dp256
g10
F0.90000000000000002
ssg41
(dp257
g10
F0.40000000000000002
ssg39
(dp258
g10
F0.69999999999999996
ssg151
(dp259
g10
F0.40000000000000002
ssg106
(dp260
g10
F1.6000000000000001
sssg45
(dp261
Vcom.android.browser
p262
(dp263
g10
F1.8999999999999999
ssVcom.android.settings
p264
(dp265
g10
I1
ssVcom.android.packageinstaller
p266
(dp267
g10
F2.1000000000000001
ssVcom.android.gallery3d
p268
(dp269
g10
F10
ssVcom.google.android.googlequicksearchbox
p270
(dp271
g10
F1.8999999999999999
ssg55
(dp272
g10
F1.3
sssg47
(dp273
Vcom.android.browser
p274
(dp275
g10
I1
ssg13
(dp276
g10
I1
ssg85
(dp277
g10
F0.90000000000000002
sssg49
(dp278
g216
(dp279
g10
F0.69999999999999996
ssg206
(dp280
g10
F1.3
ssg122
(dp281
g10
I1
sssg51
(dp282
Vcom.google.android.deskclock
p283
(dp284
g10
F0.90000000000000002
ssg33
(dp285
g10
F1.1000000000000001
ssg63
(dp286
g10
I1
sssg53
(dp287
g104
(dp288
g10
F0.90000000000000002
ssVcom.youba.FileExplorer
p289
(dp290
g10
F3.1000000000000001
sssg55
(dp291
sg57
(dp292
g8
(dp293
g10
F2.9999999999999996
ssg163
(dp294
g10
F1.6000000000000001
ssg77
(dp295
g10
F0.90000000000000002
ssg166
(dp296
g10
F1.1000000000000001
ssg171
(dp297
g10
F0.69999999999999996
ssg37
(dp298
g10
F0.40000000000000002
ssVorg.greenvpn
p299
(dp300
g10
F3.8999999999999999
sssg59
(dp301
Vcom.android.packageinstaller
p302
(dp303
g10
I1
sssg61
(dp304
g59
(dp305
g10
F1.7
ssVcom.android.browser
p306
(dp307
g10
I2
ssg75
(dp308
g10
I1
ssg11
(dp309
g10
I1
ssg79
(dp310
g10
F3.6000000000000001
ssg47
(dp311
g10
F1.1000000000000001
ssVcom.android.gallery3d
p312
(dp313
g10
F2.7000000000000002
ssVcom.google.android.googlequicksearchbox
p314
(dp315
g10
I1
ssg45
(dp316
g10
F0.69999999999999996
ssVcom.android.contacts
p317
(dp318
g10
F2.8999999999999999
sssg63
(dp319
g283
(dp320
g10
I2
ssg49
(dp321
g10
F0.40000000000000002
ssg33
(dp322
g10
F1.6000000000000001
sssg65
(dp323
Vcom.google.android.deskclock
p324
(dp325
g10
I1
ssssS'edge'
p326
g71
sS'graph'
p327
(dp328
sS'adjlist_dict_factory'
p329
g68
sS'adj'
p330
g71
sS'pred'
p331
(dp332
g8
(dp333
g163
g175
sVcom.android.settings
p334
g307
sg166
g186
sVcom.baidu.lbs.waimai
p335
g275
sVcom.android.gallery3d
p336
g205
sg17
g112
sVcom.google.android.googlequicksearchbox
p337
g223
sg57
g293
sVcom.tencent.mm
p338
g263
sg37
g240
sg299
g162
ssg11
(dp339
g49
g280
sg61
g309
sg33
g207
sg122
g226
sg41
g252
sg53
g290
sg39
g249
sg151
g117
sg43
g255
sg106
g139
ssg13
(dp340
Vcom.baidu.lbs.waimai
p341
g276
ssg15
(dp342
Vcom.android.browser
p343
g92
sVcom.android.packageinstaller
p344
g189
ssg17
(dp345
Vcom.android.browser
p346
g84
sVcom.android.packageinstaller
p347
g192
ssg19
(dp348
Vcom.youba.FileExplorer
p349
g103
sg133
g215
sg131
g196
sg63
g320
sg35
g232
sg51
g284
sg216
g259
sg21
g130
sg106
g152
sg65
g325
ssg21
(dp350
Vcom.android.browser
p351
g88
sVcom.android.packageinstaller
p352
g197
sg193
g234
ssg23
(dp353
g239
g74
sg206
g107
sVcom.android.vending
p354
g182
sg140
g318
sVcom.android.packageinstaller
p355
g201
sVcom.youdao.mrtime
p356
g114
sg122
g235
sg216
g260
sVcom.android.vpndialogs
p357
g297
sg37
g241
sVorg.greenvpn
p358
g172
ssg25
(dp359
sg27
(dp360
g8
g95
sg29
g183
sg142
g202
sg146
g221
sg337
g237
sg57
g300
sVcom.android.contacts
p361
g154
ssg29
(dp362
Vcom.android.browser
p363
g76
sg77
g308
sg142
g187
sg146
g208
sg168
g225
sg57
g294
sg361
g138
sg37
g242
sg27
g164
ssg31
(dp364
g59
g303
sg363
g80
sg254
g97
sg163
g178
sg77
g310
sVcom.android.gallery3d
p365
g211
sg193
g229
sg43
g256
sg21
g132
sg57
g296
sg338
g267
sg361
g143
sg25
g160
sg27
g167
ssg33
(dp366
Vcom.android.browser
p367
g83
sVcom.android.settings
p368
g313
sg142
g191
sg63
g322
sg193
g230
sg51
g285
sg283
g121
sg21
g134
sVcom.tencent.mm
p369
g269
sg361
g147
ssg35
(dp370
g274
g86
sVcom.youba.FileExplorer
p371
g99
sg49
g281
sVcom.android.settings
p372
g315
sg352
g194
sg335
g277
sg33
g214
sg283
g123
sVcom.tencent.mm
p373
g271
sg106
g148
sg37
g243
sVorg.greenvpn
p374
g169
ssg37
(dp375
Vcom.android.browser
p376
g93
sVcom.android.vpndialogs
p377
g298
sVorg.greenvpn
p378
g173
ssg39
(dp379
g124
g258
sVcom.android.contacts
p380
g150
sg116
g102
ssg41
(dp381
g124
g257
sVcom.youba.FileExplorer
p382
g100
sg39
g245
ssg43
(dp383
Vcom.youba.FileExplorer
p384
g105
sg49
g279
sVcom.android.gallery3d
p385
g217
sg122
g233
sg41
g251
sg53
g288
sg39
g247
sg151
g125
sVcom.android.contacts
p386
g153
ssg45
(dp387
g363
g91
sg75
g180
sg77
g316
sg79
g199
sg268
g220
sVcom.google.android.deskclock
p388
g127
ssg47
(dp389
g334
g311
sVcom.android.packageinstaller
p390
g190
sg82
g213
sVcom.android.contacts
p391
g145
sg306
g81
ssg49
(dp392
g283
g118
sg33
g209
sg63
g321
ssg51
(dp393
sg53
(dp394
g384
g101
ssg55
(dp395
g262
g87
sg266
g195
sVcom.tencent.mm
p396
g272
ssg57
(dp397
g8
g90
sg142
g198
sg146
g218
sg29
g179
sg27
g170
ssg59
(dp398
g157
g305
sg159
g185
sg73
g137
sg25
g156
ssg61
(dp399
g363
g78
sg224
g177
sg159
g188
sg314
g228
sg89
g295
sVcom.tencent.mm
p400
g265
sg23
g141
sg25
g158
sg94
g165
ssg63
(dp401
Vcom.google.android.deskclock
p402
g120
sg51
g286
ssg65
(dp403
ssb.