ccopy_reg
_reconstructor
p1
(cnetworkx.classes.digraph
DiGraph
p2
c__builtin__
object
p3
NtRp4
(dp5
S'node'
p6
(dp7
Vcom.baidu.resmanager.filemanager
p8
(dp9
S'weight'
p10
F9.296193289684338e-06
ssVcom.wandoujia.phoenix2
p11
(dp12
g10
F3.6376408524851755e-06
ssVcom.youku.phone
p13
(dp14
g10
F0.015282537585924108
ssVcom.ss.android.article.news
p15
(dp16
g10
F0.00015682273897380534
ssVcom.zq.Fate
p17
(dp18
g10
F0.00025018885418759152
ssVcom.xwtec.sd.mobileclient
p19
(dp20
g10
F7.6794640219131487e-06
ssVcom.picalab.comics
p21
(dp22
g10
F6.790262924638994e-05
ssVcom.qihoo.cleandroid_cn
p23
(dp24
g10
F0.0017812314707669078
ssVcom.android.deskclock
p25
(dp26
g10
F0.014503678261175337
ssVcom.clov4r.android.nil
p27
(dp28
g10
F0.0011199892002484912
ssVcom.tencent.token
p29
(dp30
g10
F0.0042402766870468867
ssVcom.tencent.android.qqdownloader
p31
(dp32
g10
F0.0043946743321190349
ssVcom.zappallas.android.app.shunsui
p33
(dp34
g10
F3.2334585355423781e-06
ssVcom.melot.game
p35
(dp36
g10
F8.0836463388559454e-07
ssVcom.android.mediacenter
p37
(dp38
g10
F0.00053271229373060686
ssVcom.feistma.appmove
p39
(dp40
g10
F0.01097395408731389
ssVcom.ifeng.news2
p41
(dp42
g10
F0.088404777273313334
ssVcom.tencent.qt.sns
p43
(dp44
g10
F0.012332410854558631
ssVyt.wnl
p45
(dp46
g10
F1.1721287191341121e-05
ssVcom.yaochufa.app
p47
(dp48
g10
F7.6794640219131487e-06
ssVcom.android.packageinstaller
p49
(dp50
g10
F0.010411736484446458
ssVcom.zappallas.android.google.plugin.fukaku
p51
(dp52
g10
F4.4460054863707701e-06
ssVcom.huawei.flashlight
p53
(dp54
g10
F0.0002554432243078479
ssVoms.mmc.fortunetelling
p55
(dp56
g10
F0.00088152163325224092
ssVsogou.mobile.explorer
p57
(dp58
g10
F0.00019158241823088591
ssVcom.tencent.mobileqq
p59
(dp60
g10
F0.023319298776014689
ssVcom.nemodigm.android.prime_fortune
p61
(dp62
g10
F0.00014631399873329262
ssVcn.taxen.ziwei
p63
(dp64
g10
F0.0003265793120897802
ssVmark.via
p65
(dp66
g10
F0.079861575640093427
ssVcom.sub.bazisuanminkan
p67
(dp68
g10
F0.0049956934374129746
ssVcom.android.systemui
p69
(dp70
g10
F0.0024065015150774149
ssVworkshop.namestroes
p71
(dp72
g10
F6.0627347541419594e-06
ssVcom.Astro.UI
p73
(dp74
g10
F0.0062769513821216419
ssVcom.tencent.tokenre07
p75
(dp76
g10
F1.7379839628540283e-05
ssVcom.android.email
p77
(dp78
g10
F1.212546950828392e-06
ssVcom.culiukeji.huanletao
p79
(dp80
g10
F3.6376408524851755e-06
ssVcom.huawei.KoBackup
p81
(dp82
g10
F8.8920109727415402e-06
ssVcom.tieyou.train.ark
p83
(dp84
g10
F9.296193289684338e-06
ssVcn.highing.hichat
p85
(dp86
g10
F3.8801502426508543e-05
ssVcom.haojiazhang.activity
p87
(dp88
g10
F2.8292762185995808e-06
ssVcom.baidu.tieba
p89
(dp90
g10
F0.088015145519780486
ssVcom.android.settings
p91
(dp92
g10
F0.0052078891538079432
ssVcom.android.calculator2
p93
(dp94
g10
F6.1031529858362392e-05
ssVcom.autohome.mycar
p95
(dp96
g10
F1.778402194548308e-05
ssVcn.wps.moffice_tpt
p97
(dp98
g10
F0.0017064577421324902
ssVcom.moxiu.launcher
p99
(dp100
g10
F5.9414800590591201e-05
ssVcom.baiyi_mobile.security
p101
(dp102
g10
F2.5059303650453433e-05
ssVcom.t66y.client.ui
p103
(dp104
g10
F0.00023482992614376523
ssVcom.shoujiduoduo.ringtone
p105
(dp106
g10
F0.0023527452669240231
ssVcom.tencent.tokenlgnl
p107
(dp108
g10
F0.00010266230850347051
ssVcom.storm.smart
p109
(dp110
g10
F7.2348634732760715e-05
ssVcom.cl.newt66y
p111
(dp112
g10
F0.0041929873559645794
ssVnet.ld.freevpn
p113
(dp114
g10
F8.0836463388559454e-07
ssVcom.baidu.trafficmonitor
p115
(dp116
g10
F2.8292762185995808e-06
ssVorg.idaxiang.android
p117
(dp118
g10
F0.00044581309558790541
ssVme.onemobile.android
p119
(dp120
g10
F0.00040054467609031212
ssVcom.android.gallery3d
p121
(dp122
g10
F0.0013051047014082924
ssVcom.taobao.taobao
p123
(dp124
g10
F0.00034032151086583529
ssVcom.eg.android.AlipayGphone
p125
(dp126
g10
F0.001914207453041088
ssVcom.android.phone
p127
(dp128
g10
F0.014652417353810288
ssVcom.amigosoftware.name7_6_web_android
p129
(dp130
g10
F0.0002077497109085978
ssVcn.ibuka.manga.ui
p131
(dp132
g10
F3.0313673770709797e-05
ssVcom.tencent.tokenqqfa
p133
(dp134
g10
F0.00014712236336717822
ssVcom.huawei.android.dsdscardmanager
p135
(dp136
g10
F2.9909491453766999e-05
ssVcom.julanling.dgq
p137
(dp138
g10
F2.4250939016567839e-06
ssVcom.mymoney.sms
p139
(dp140
g10
F2.5463485967396231e-05
ssVcom.qihoo.browser
p141
(dp142
g10
F0.0399174498035876
ssVoms.mmc.independent_gm.ebook.book121
p143
(dp144
g10
F4.769351339925008e-05
ssVcn.easymobi.entertainment.name
p145
(dp146
g10
F1.49547457268835e-05
ssVcom.nd.android.pandareader
p147
(dp148
g10
F0.05666029810062604
ssVcom.wenba.bangbang
p149
(dp150
g10
F4.8501878033135679e-06
ssVcom.baidu.input
p151
(dp152
g10
F1.212546950828392e-06
ssVfw.fourword
p153
(dp154
g10
F0.0001184254188642396
ssVcom.shawnyu.suanming
p155
(dp156
g10
F3.0717856087652595e-05
ssVorg.kde.necessitas.example.YXBaZi
p157
(dp158
g10
F1.3742198776055108e-05
ssVcom.tencent.qqlite
p159
(dp160
g10
F0.00010225812618652771
ssVcn.skyone.calendarbig5
p161
(dp162
g10
F1.333801645911231e-05
ssVcom.holiestar.flashoncall
p163
(dp164
g10
F1.0912922557455527e-05
ssVcom.yidalianke.app
p165
(dp166
g10
F0.00010751249630678408
ssVcom.ct.client
p167
(dp168
g10
F0.00027484397552110214
ssVcom.shuyi.Fate
p169
(dp170
g10
F1.6167292677711891e-06
ssVcom.amigosoftware.name7_5_web_android
p171
(dp172
g10
F6.871099388027554e-06
ssVorg.getlantern.firetweet
p173
(dp174
g10
F3.9205684743451334e-05
ssVcom.jiongji.andriod.card
p175
(dp176
g10
F0.00081725664485833615
ssVcom.simple.fortuneteller
p177
(dp178
g10
F0.00015601437433991977
ssVcom.divination.name1518
p179
(dp180
g10
F2.2634209748796647e-05
ssVim.yixin
p181
(dp182
g10
F1.333801645911231e-05
ssVcom.baidu.backuprestore
p183
(dp184
g10
F0.0018758101329315222
ssVcom.android.contacts
p185
(dp186
g10
F0.0099461184553283552
ssVcom.youdao.dict
p187
(dp188
g10
F0.0020977062249331181
ssVcom.qihoo.wifi
p189
(dp190
g10
F0.00023968011394707881
ssVcom.sankuai.meituan
p191
(dp192
g10
F0.00097205847224742751
ssVcom.android.soundrecorder
p193
(dp194
g10
F0.00049188987971938427
ssVorg.kde.necessitas.ministro
p195
(dp196
g10
F0.000147526545684121
ssVcom.amigosoftware.name7_1_web_android
p197
(dp198
g10
F2.5059303650453433e-05
ssVcom.huawei.hidisk
p199
(dp200
g10
F0.0014530354294093563
ssVcom.android.htmlviewer
p201
(dp202
g10
F0.00019602842371725668
ssVcom.ylmf.androidclient
p203
(dp204
g10
F0.010960211888537835
ssVcom.xduole.Client
p205
(dp206
g10
F1.0912922557455527e-05
ssVcom.nrop19
p207
(dp208
g10
F0.00014105962861303626
ssVcom.PEP.biaori
p209
(dp210
g10
F0.00028009834564135853
ssVcom.zappallas.android.google.cocoloni.uranaicollection
p211
(dp212
g10
F1.6571474994654687e-05
ssVcom.nuomi
p213
(dp214
g10
F6.0627347541419594e-06
ssVexample.yijing
p215
(dp216
g10
F0.00011195850179315485
ssVcom.homenetworkkeeper
p217
(dp218
g10
F0.00037710210170762988
ssVcom.huawei.android.launcher
p219
(dp220
g10
F0.37400364006594639
ssVcom.tencent.qqlive
p221
(dp222
g10
F0.0030964407300987699
ssVcom.amigo.pra6
p223
(dp224
g10
F2.4250939016567838e-05
ssVcom.yiche.price
p225
(dp226
g10
F8.4878286557987425e-06
ssVcom.kingroot.kinguser
p227
(dp228
g10
F0.0048974771343958745
ssVcom.android.calendar
p229
(dp230
g10
F2.0613298164082661e-05
ssVcom.huawei.android.totemweather
p231
(dp232
g10
F0.00072631562354620669
ssVcom.baidu.BaiduMap
p233
(dp234
g10
F0.00078815551803845471
ssVcom.SharkSoft.BirthdayCode
p235
(dp236
g10
F6.0223165224476796e-05
ssVcom.ophone.reader.ui
p237
(dp238
g10
F5.2543701202563648e-06
ssVcom.phoenix.eightwords
p239
(dp240
g10
F4.4864237180650502e-05
ssVcn.skyone.UI
p241
(dp242
g10
F2.1421662797968257e-05
ssVcom.lql.yj.bgyc
p243
(dp244
g10
F6.5881717661675965e-05
ssVcom.baidu.appsearch
p245
(dp246
g10
F0.00030717856087652596
ssVcom.lanteanstudio.compass
p247
(dp248
g10
F2.8292762185995812e-05
ssVcom.baidu.netdisk
p249
(dp250
g10
F0.014935344975670246
ssVcom.sogou.novel
p251
(dp252
g10
F1.8592386579368676e-05
ssVcom.UCMobile
p253
(dp254
g10
F7.4369546317474704e-05
ssVvStudio.Android.Camera360
p255
(dp256
g10
F0.0035147694281345652
ssVcom.drcom.Android.DrCOMWS
p257
(dp258
g10
F0.0001325717999572375
ssVcom.huawei.inputmethod.hwpal
p259
(dp260
g10
F6.1031529858362392e-05
ssVcn.mljia.o2o
p261
(dp262
g10
F1.212546950828392e-06
ssVcom.cubic.autohome
p263
(dp264
g10
F0.00010751249630678408
ssVcom.hfa.BestName
p265
(dp266
g10
F0.00012610488288615276
ssVpredictor.namer
p267
(dp268
g10
F0.00018471131884285837
ssVcom.duowan.more
p269
(dp270
g10
F2.4250939016567839e-06
ssVcn.mixiaoxiao.myappscreenmask
p271
(dp272
g10
F0.00014590981641634981
ssVyiqi.bazi
p273
(dp274
g10
F0.010804601696514857
ssVcom.android.hwcamera
p275
(dp276
g10
F0.00020370788773916985
ssVcom.pingan.papd
p277
(dp278
g10
F8.0836463388559464e-06
ssVcom.baidu.home2
p279
(dp280
g10
F0.0012165887739978198
ssVcom.nfbazi.Pibazi
p281
(dp282
g10
F9.7003756066271357e-06
ssVcom.amigosoftware.life3_3_web_android
p283
(dp284
g10
F0.0001038748554542989
ssVcom.tencent.mtt
p285
(dp286
g10
F0.00062284495040885058
ssVcom.qq.ac.android
p287
(dp288
g10
F2.0613298164082661e-05
ssVcom.tencent.mm
p289
(dp290
g10
F0.021026372491998201
ssVcom.zhenpin.luxurystore
p291
(dp292
g10
F2.8292762185995808e-06
ssVcom.mgyapp.android
p293
(dp294
g10
F0.00010064139691875653
ssVcom.yoloho.dayima
p295
(dp296
g10
F2.0209115847139866e-06
ssVcom.dp.android.elong
p297
(dp298
g10
F2.4250939016567839e-06
ssVcom.baidu.browser.apps
p299
(dp300
g10
F0.0074175538805342162
ssVcom.dendroidZ.lunarCalendarLite
p301
(dp302
g10
F5.2543701202563648e-06
ssVcom.edaixi.activity
p303
(dp304
g10
F5.2543701202563648e-06
ssVcom.anzhi.hwsettings
p305
(dp306
g10
F1.2529651825226717e-05
ssVcn.dz52pojie.www
p307
(dp308
g10
F0.00030637019624264034
ssVcom.sinovatech.unicom.ui
p309
(dp310
g10
F0.00039488612365311298
ssVcom.hotbody.fitzero
p311
(dp312
g10
F2.8292762185995808e-06
ssVcom.android.mms
p313
(dp314
g10
F0.020675542240891853
ssVcom.wandoujia.phoenix2.usbproxy
p315
(dp316
g10
F1.2933834142169513e-05
ssVcom.jswtech.numengtwo
p317
(dp318
g10
F6.4264988393904774e-05
ssVcom.yunfan.topvideo
p319
(dp320
g10
F3.0717856087652595e-05
ssVcom.mx.browser
p321
(dp322
g10
F8.8111745093529814e-05
ssVcom.android.bluetooth
p323
(dp324
g10
F0.0007008521375788105
ssVcom.android.quicksearchbox
p325
(dp326
g10
F0.00016046037982629053
ssVcom.qq.reader
p327
(dp328
g10
F6.6690082295561547e-05
sssS'graph'
p329
(dp330
sS'succ'
p331
(dp332
g8
(dp333
Vcom.baidu.home2
p334
(dp335
g10
F2.3999999999999999
ssVcn.wps.moffice_tpt
p336
(dp337
g10
I1
ssVcom.tencent.android.qqdownloader
p338
(dp339
g10
F1.3
sssg11
(dp340
sg13
(dp341
Vmark.via
p342
(dp343
g10
F1.3
ssVcom.android.packageinstaller
p344
(dp345
g10
F0.40000000000000002
ssVcom.qihoo.cleandroid_cn
p346
(dp347
g10
F0.90000000000000002
ssVcom.android.deskclock
p348
(dp349
g10
F2.3999999999999999
ssVcom.huawei.android.launcher
p350
(dp351
g10
F10.1
ssVcom.tencent.qqlive
p352
(dp353
g10
F0.69999999999999996
ssVcom.tencent.mm
p354
(dp355
g10
I1
ssVcom.ifeng.news2
p356
(dp357
g10
F2.6000000000000001
sssg15
(dp358
Vcom.android.settings
p359
(dp360
g10
F0.40000000000000002
ssVcom.huawei.hidisk
p361
(dp362
g10
F0.90000000000000002
ssVcom.huawei.android.launcher
p363
(dp364
g10
I3
ssVcom.android.bluetooth
p365
(dp366
g10
F0.69999999999999996
ssVcom.tencent.mm
p367
(dp368
g10
F0.69999999999999996
ssVcom.ifeng.news2
p369
(dp370
g10
F1.8
sssg17
(dp371
g77
(dp372
g10
I1
ssVcom.android.packageinstaller
p373
(dp374
g10
F0.69999999999999996
ssVcom.SharkSoft.BirthdayCode
p375
(dp376
g10
F1.3
ssVcom.huawei.android.launcher
p377
(dp378
g10
F3.3999999999999999
ssg169
(dp379
g10
F1.3
ssg243
(dp380
g10
F0.40000000000000002
sssg19
(dp381
Vcom.android.packageinstaller
p382
(dp383
g10
F1.3
ssVcom.huawei.android.launcher
p384
(dp385
g10
I1
ssVcom.qihoo.cleandroid_cn
p386
(dp387
g10
F0.69999999999999996
sssg21
(dp388
Vcom.android.packageinstaller
p389
(dp390
g10
F0.90000000000000002
ssVcom.huawei.android.launcher
p391
(dp392
g10
F3
ssVcom.baidu.browser.apps
p393
(dp394
g10
I1
sssg23
(dp395
Vcom.wandoujia.phoenix2
p396
(dp397
g10
I1
ssg393
(dp398
g10
F0.69999999999999996
ssg19
(dp399
g10
F0.40000000000000002
ssg21
(dp400
g10
F0.90000000000000002
ssVcom.baidu.netdisk
p401
(dp402
g10
F0.90000000000000002
ssVcom.shoujiduoduo.ringtone
p403
(dp404
g10
F1.3999999999999999
ssVcn.mixiaoxiao.myappscreenmask
p405
(dp406
g10
F0.40000000000000002
ssVcom.clov4r.android.nil
p407
(dp408
g10
F1.8
ssg31
(dp409
g10
F10.700000000000001
ssVcom.storm.smart
p410
(dp411
g10
I1
ssVcom.android.contacts
p412
(dp413
g10
F1.3
ssVcom.feistma.appmove
p414
(dp415
g10
F2.6000000000000001
ssVcom.ifeng.news2
p416
(dp417
g10
F8.9000000000000004
ssg97
(dp418
g10
F0.90000000000000002
ssVcom.tencent.qt.sns
p419
(dp420
g10
F1.7000000000000002
ssVcom.Astro.UI
p421
(dp422
g10
F3.9999999999999996
ssVcom.android.packageinstaller
p423
(dp424
g10
F21.799999999999997
ssVcom.android.gallery3d
p425
(dp426
g10
F0.90000000000000002
ssVcom.baidu.backuprestore
p427
(dp428
g10
F2.7999999999999998
ssVcom.tencent.token
p429
(dp430
g10
F2.8999999999999999
ssVyiqi.bazi
p431
(dp432
g10
F1.6000000000000001
ssVcom.huawei.hidisk
p433
(dp434
g10
F6.5000000000000009
ssVcom.tencent.mm
p435
(dp436
g10
F2.2999999999999998
ssVcom.nrop19
p437
(dp438
g10
F0.90000000000000002
ssVcn.taxen.ziwei
p439
(dp440
g10
F1.5
ssVmark.via
p441
(dp442
g10
F10.100000000000003
ssg291
(dp443
g10
F0.69999999999999996
ssVcom.cubic.autohome
p444
(dp445
g10
F0.69999999999999996
ssVcom.zappallas.android.google.cocoloni.uranaicollection
p446
(dp447
g10
F0.69999999999999996
ssg213
(dp448
g10
F0.69999999999999996
ssVcom.qihoo.browser
p449
(dp450
g10
F2
ssVcom.huawei.android.launcher
p451
(dp452
g10
F148.90000000000012
ssg221
(dp453
g10
F0.40000000000000002
ssVcom.tencent.tokenre07
p454
(dp455
g10
I1
ssVcom.nd.android.pandareader
p456
(dp457
g10
F2.2000000000000002
ssVcom.tencent.mobileqq
p458
(dp459
g10
F4.2000000000000002
ssVcom.kingroot.kinguser
p460
(dp461
g10
F4.7999999999999998
ssVcom.sinovatech.unicom.ui
p462
(dp463
g10
F0.69999999999999996
ssVcom.huawei.android.totemweather
p464
(dp465
g10
F0.40000000000000002
ssVcom.android.mms
p466
(dp467
g10
F1.8
ssVcom.baidu.BaiduMap
p468
(dp469
g10
F4.3999999999999995
ssVcom.baidu.tieba
p470
(dp471
g10
F10.300000000000002
ssVcom.android.settings
p472
(dp473
g10
F0.40000000000000002
ssVcom.autohome.mycar
p474
(dp475
g10
F0.69999999999999996
sssg25
(dp476
Vcom.youku.phone
p477
(dp478
g10
I1
ssVcom.t66y.client.ui
p479
(dp480
g10
I1
ssVcom.huawei.flashlight
p481
(dp482
g10
F0.90000000000000002
ssVcom.cl.newt66y
p483
(dp484
g10
F2.7000000000000002
ssVcom.ifeng.news2
p485
(dp486
g10
F4.2999999999999998
ssVcom.android.packageinstaller
p487
(dp488
g10
F2.2999999999999998
ssVcn.mixiaoxiao.myappscreenmask
p489
(dp490
g10
F1.6000000000000001
ssVcom.tencent.token
p491
(dp492
g10
F0.69999999999999996
ssVcom.huawei.hidisk
p493
(dp494
g10
F0.80000000000000004
ssg203
(dp495
g10
F0.69999999999999996
ssVmark.via
p496
(dp497
g10
F7.8000000000000007
ssVcom.qihoo.cleandroid_cn
p498
(dp499
g10
F0.40000000000000002
ssVcom.Astro.UI
p500
(dp501
g10
F0.90000000000000002
ssVcom.qihoo.browser
p502
(dp503
g10
F6.7000000000000002
ssVcom.huawei.android.launcher
p504
(dp505
g10
F45.799999999999997
ssVcom.nd.android.pandareader
p506
(dp507
g10
F18.999999999999996
ssVcom.kingroot.kinguser
p508
(dp509
g10
F3.7000000000000002
ssVcom.huawei.android.totemweather
p510
(dp511
g10
F4.0999999999999996
ssVcom.android.mms
p512
(dp513
g10
F2.8999999999999999
ssVcom.baidu.tieba
p514
(dp515
g10
F10.1
ssVcom.lql.yj.bgyc
p516
(dp517
g10
F0.90000000000000002
ssg315
(dp518
g10
F0.90000000000000002
sssg27
(dp519
Vcom.nrop19
p520
(dp521
g10
F45.300000000000004
ssVcom.android.gallery3d
p522
(dp523
g10
F0.90000000000000002
ssVcom.qihoo.cleandroid_cn
p524
(dp525
g10
F0.90000000000000002
ssVcom.tencent.token
p526
(dp527
g10
F3.5
ssVcom.Astro.UI
p528
(dp529
g10
F0.40000000000000002
ssVcom.huawei.hidisk
p530
(dp531
g10
I1
ssVcom.baidu.tieba
p532
(dp533
g10
F0.90000000000000002
ssVcom.tencent.android.qqdownloader
p534
(dp535
g10
F1.3
ssVcom.huawei.android.launcher
p536
(dp537
g10
F20.399999999999995
ssVcom.ylmf.androidclient
p538
(dp539
g10
F1.8
sssg29
(dp540
Vcom.mgyapp.android
p541
(dp542
g10
F0.40000000000000002
ssVmark.via
p543
(dp544
g10
F1.3
ssVcom.tencent.android.qqdownloader
p545
(dp546
g10
F1.5
ssVcom.huawei.android.totemweather
p547
(dp548
g10
F0.69999999999999996
ssVcom.android.packageinstaller
p549
(dp550
g10
F3.5
ssg466
(dp551
g10
F4.5
ssVcom.qihoo.cleandroid_cn
p552
(dp553
g10
F5.2000000000000002
ssVcom.tencent.tokenlgnl
p554
(dp555
g10
F2.2999999999999998
ssVcom.baidu.home2
p556
(dp557
g10
F1.7
ssVcom.huawei.hidisk
p558
(dp559
g10
F0.90000000000000002
ssVcom.huawei.android.launcher
p560
(dp561
g10
F41.199999999999996
ssVcom.baidu.browser.apps
p562
(dp563
g10
F0.40000000000000002
ssVcom.android.phone
p564
(dp565
g10
F0.69999999999999996
ssVcom.android.quicksearchbox
p566
(dp567
g10
I1
ssVcom.tencent.mobileqq
p568
(dp569
g10
F1.8999999999999999
ssVcom.android.contacts
p570
(dp571
g10
F6.5000000000000009
ssVcom.ifeng.news2
p572
(dp573
g10
F0.69999999999999996
ssg133
(dp574
g10
F3.5
sssg31
(dp575
g221
(dp576
g10
F1.7
ssg15
(dp577
g10
I1
ssg19
(dp578
g10
F0.90000000000000002
ssg181
(dp579
g10
F0.90000000000000002
ssVcom.qihoo.cleandroid_cn
p580
(dp581
g10
F8.5000000000000018
ssg251
(dp582
g10
F1.7
ssVcom.baidu.home2
p583
(dp584
g10
I1
ssVcom.clov4r.android.nil
p585
(dp586
g10
F0.90000000000000002
ssg255
(dp587
g10
F0.90000000000000002
ssg109
(dp588
g10
F0.40000000000000002
ssg35
(dp589
g10
I1
ssVcom.feistma.appmove
p590
(dp591
g10
F3.2999999999999998
ssVcom.eg.android.AlipayGphone
p592
(dp593
g10
F0.69999999999999996
ssg247
(dp594
g10
F1.7
ssg261
(dp595
g10
F1.7
ssVcom.tencent.qt.sns
p596
(dp597
g10
F0.90000000000000002
ssg225
(dp598
g10
F5.0999999999999996
ssg47
(dp599
g10
I1
ssg269
(dp600
g10
I1
ssVcom.android.packageinstaller
p601
(dp602
g10
F33.899999999999984
ssVcom.android.gallery3d
p603
(dp604
g10
F0.69999999999999996
ssg183
(dp605
g10
F2
ssg195
(dp606
g10
F0.40000000000000002
ssVyiqi.bazi
p607
(dp608
g10
F1.7
ssVcom.android.hwcamera
p609
(dp610
g10
F1.7000000000000002
ssg277
(dp611
g10
F1.7
ssg369
(dp612
g10
F2.9000000000000004
ssg57
(dp613
g10
I1
ssg79
(dp614
g10
I1
ssg85
(dp615
g10
F2.3999999999999999
ssVcom.tencent.mobileqq
p616
(dp617
g10
F15.5
ssVcom.cubic.autohome
p618
(dp619
g10
I1
ssVcom.youdao.dict
p620
(dp621
g10
I1
ssVcom.nrop19
p622
(dp623
g10
F0.90000000000000002
ssVcom.tencent.mm
p624
(dp625
g10
F3.4999999999999996
ssg63
(dp626
g10
F1.5
ssVmark.via
p627
(dp628
g10
F5.4000000000000004
ssVcom.baidu.netdisk
p629
(dp630
g10
I1
ssVorg.kde.necessitas.example.YXBaZi
p631
(dp632
g10
F1.7
ssg291
(dp633
g10
I1
ssg295
(dp634
g10
F1.7
ssg139
(dp635
g10
F1.7
ssg137
(dp636
g10
I1
ssg297
(dp637
g10
F1.3999999999999999
ssg213
(dp638
g10
I1
ssVcom.huawei.android.launcher
p639
(dp640
g10
F123.60000000000024
ssVcom.baidu.browser.apps
p641
(dp642
g10
F0.69999999999999996
ssVcom.nd.android.pandareader
p643
(dp644
g10
F1.8
ssg149
(dp645
g10
I1
ssg303
(dp646
g10
I1
ssg460
(dp647
g10
F22.800000000000001
ssg83
(dp648
g10
I1
ssVcom.android.mms
p649
(dp650
g10
F0.40000000000000002
ssg309
(dp651
g10
F3
ssg91
(dp652
g10
F3.6999999999999997
ssg311
(dp653
g10
F2.3999999999999999
ssg87
(dp654
g10
F1.7
ssVcom.baidu.BaiduMap
p655
(dp656
g10
F3
ssg237
(dp657
g10
I1
ssVcom.baidu.tieba
p658
(dp659
g10
F2
ssg321
(dp660
g10
F0.90000000000000002
ssg167
(dp661
g10
F1.7
ssg327
(dp662
g10
I1
ssVcn.mixiaoxiao.myappscreenmask
p663
(dp664
g10
F2.2999999999999998
ssg95
(dp665
g10
F5.4000000000000004
sssg33
(dp666
Vcom.android.packageinstaller
p667
(dp668
g10
I1
ssVcom.nemodigm.android.prime_fortune
p669
(dp670
g10
F1.7
sssg35
(dp671
Vcom.huawei.android.launcher
p672
(dp673
g10
F1.3999999999999999
ssg297
(dp674
g10
F0.69999999999999996
ssVcom.tencent.android.qqdownloader
p675
(dp676
g10
F0.90000000000000002
sssg37
(dp677
Vcom.kingroot.kinguser
p678
(dp679
g10
F0.90000000000000002
ssVcom.android.settings
p680
(dp681
g10
F0.90000000000000002
ssVcom.baidu.netdisk
p682
(dp683
g10
F0.90000000000000002
ssVcom.huawei.android.launcher
p684
(dp685
g10
F4.7000000000000002
ssVcom.android.systemui
p686
(dp687
g10
F0.69999999999999996
ssVcom.android.contacts
p688
(dp689
g10
F0.90000000000000002
sssg39
(dp690
Vcom.youdao.dict
p691
(dp692
g10
F1.8
ssg15
(dp693
g10
F0.69999999999999996
ssVcom.qihoo.cleandroid_cn
p694
(dp695
g10
F2.2999999999999998
ssVcom.android.deskclock
p696
(dp697
g10
F3.8999999999999999
ssg253
(dp698
g10
F1.3
ssVcom.tencent.android.qqdownloader
p699
(dp700
g10
F1.8
ssVcom.android.contacts
p701
(dp702
g10
F2.6000000000000001
ssVcom.ifeng.news2
p703
(dp704
g10
F2.6000000000000001
ssVme.onemobile.android
p705
(dp706
g10
F1.3
ssg317
(dp707
g10
F0.40000000000000002
ssVcom.android.packageinstaller
p708
(dp709
g10
F8.7000000000000011
ssg183
(dp710
g10
F0.40000000000000002
ssVcom.tencent.token
p711
(dp712
g10
F0.90000000000000002
ssVcom.huawei.hidisk
p713
(dp714
g10
F1.3
ssVcom.baidu.home2
p715
(dp716
g10
F4.4000000000000004
ssVcom.android.phone
p717
(dp718
g10
F1.7
ssVcom.tencent.mobileqq
p719
(dp720
g10
I1
ssVmark.via
p721
(dp722
g10
F0.90000000000000002
ssVcom.homenetworkkeeper
p723
(dp724
g10
F1.3
ssVcom.huawei.android.launcher
p725
(dp726
g10
F42.700000000000003
ssVcom.baidu.browser.apps
p727
(dp728
g10
F0.40000000000000002
ssg456
(dp729
g10
F0.69999999999999996
ssVcom.kingroot.kinguser
p730
(dp731
g10
F12
ssVcom.android.settings
p732
(dp733
g10
F6.0000000000000009
ssg233
(dp734
g10
F1.7
ssVcom.baidu.tieba
p735
(dp736
g10
F1.7
ssVcom.huawei.android.totemweather
p737
(dp738
g10
F0.40000000000000002
sssg41
(dp739
Vcom.ss.android.article.news
p740
(dp741
g10
F1.7
ssVcom.tencent.qqlite
p742
(dp743
g10
F0.90000000000000002
ssVcom.qihoo.cleandroid_cn
p744
(dp745
g10
F12.9
ssg105
(dp746
g10
F0.69999999999999996
ssVcn.mixiaoxiao.myappscreenmask
p747
(dp748
g10
F5.5
ssVcom.android.deskclock
p749
(dp750
g10
F23.999999999999996
ssVvStudio.Android.Camera360
p751
(dp752
g10
F1.8999999999999999
ssVcom.tencent.android.qqdownloader
p753
(dp754
g10
F9.7000000000000011
ssg193
(dp755
g10
I1
ssVcom.feistma.appmove
p756
(dp757
g10
F0.90000000000000002
ssVcom.android.contacts
p758
(dp759
g10
F5.7000000000000011
ssVcom.eg.android.AlipayGphone
p760
(dp761
g10
F2.3999999999999999
ssVcom.tencent.qt.sns
p762
(dp763
g10
F4.4000000000000004
ssg365
(dp764
g10
F0.40000000000000002
ssg49
(dp765
g10
F6.4000000000000004
ssg121
(dp766
g10
F1.8999999999999999
ssg53
(dp767
g10
F0.90000000000000002
ssVcom.tencent.token
p768
(dp769
g10
F0.90000000000000002
ssVyiqi.bazi
p770
(dp771
g10
F2.6000000000000001
ssg361
(dp772
g10
F3.0999999999999996
ssVcom.android.phone
p773
(dp774
g10
F5.4000000000000004
ssVcom.android.htmlviewer
p775
(dp776
g10
F0.40000000000000002
ssg131
(dp777
g10
F0.90000000000000002
ssg287
(dp778
g10
I1
ssVcom.tencent.mobileqq
p779
(dp780
g10
F15.900000000000002
ssVcom.ylmf.androidclient
p781
(dp782
g10
F3.7000000000000002
ssVcom.android.calculator2
p783
(dp784
g10
F0.69999999999999996
ssVmark.via
p785
(dp786
g10
F12.200000000000001
ssg289
(dp787
g10
F51
ssVcom.android.systemui
p788
(dp789
g10
I1
ssVcom.baidu.netdisk
p790
(dp791
g10
F1.7
ssg73
(dp792
g10
F10.1
ssVcom.qihoo.browser
p793
(dp794
g10
F15.000000000000002
ssVcom.huawei.android.launcher
p795
(dp796
g10
F191.20000000000036
ssg352
(dp797
g10
F1.7
ssVcom.nd.android.pandareader
p798
(dp799
g10
F2.6000000000000001
ssVcom.tencent.mtt
p800
(dp801
g10
F1.7
ssg227
(dp802
g10
F8.8000000000000007
ssg462
(dp803
g10
F1.7
ssVcom.huawei.android.totemweather
p804
(dp805
g10
F2.7000000000000002
ssg313
(dp806
g10
F11.300000000000001
ssVcom.baidu.tieba
p807
(dp808
g10
F68.900000000000006
ssVcom.android.settings
p809
(dp810
g10
F3.9999999999999996
ssVcom.amigosoftware.name7_5_web_android
p811
(dp812
g10
F0.69999999999999996
sssg43
(dp813
Vmark.via
p814
(dp815
g10
F1.3
ssVcom.youku.phone
p816
(dp817
g10
F0.90000000000000002
ssVcom.kingroot.kinguser
p818
(dp819
g10
I1
ssVcom.tencent.mm
p820
(dp821
g10
F0.90000000000000002
ssVcom.android.packageinstaller
p822
(dp823
g10
F1.8999999999999999
ssVcom.t66y.client.ui
p824
(dp825
g10
F0.40000000000000002
ssVcom.tencent.token
p826
(dp827
g10
F0.40000000000000002
ssVcn.mixiaoxiao.myappscreenmask
p828
(dp829
g10
F1.3
ssVcom.qihoo.browser
p830
(dp831
g10
F1.3
ssVcom.baidu.tieba
p832
(dp833
g10
F4.9000000000000004
ssg165
(dp834
g10
F0.69999999999999996
ssVcom.tencent.android.qqdownloader
p835
(dp836
g10
F0.90000000000000002
ssg223
(dp837
g10
F1.3
ssVcom.qihoo.cleandroid_cn
p838
(dp839
g10
F1.3
ssVcom.huawei.android.launcher
p840
(dp841
g10
F42.500000000000007
ssg287
(dp842
g10
F0.69999999999999996
ssVcom.tencent.mobileqq
p843
(dp844
g10
I1
ssVcom.ifeng.news2
p845
(dp846
g10
F3.1000000000000001
sssg45
(dp847
g267
(dp848
g10
F0.40000000000000002
ssVcom.android.packageinstaller
p849
(dp850
g10
F2.2000000000000002
ssVcom.huawei.android.launcher
p851
(dp852
g10
F5.1000000000000005
sssg47
(dp853
Vcom.android.packageinstaller
p854
(dp855
g10
F0.69999999999999996
ssVcom.huawei.android.launcher
p856
(dp857
g10
F1.3
ssVcom.tencent.android.qqdownloader
p858
(dp859
g10
I1
sssg49
(dp860
g177
(dp861
g10
F0.40000000000000002
ssg221
(dp862
g10
F2.7000000000000002
ssVyt.wnl
p863
(dp864
g10
F0.90000000000000002
ssg17
(dp865
g10
F0.69999999999999996
ssg181
(dp866
g10
F0.40000000000000002
ssVworkshop.namestroes
p867
(dp868
g10
I1
ssg23
(dp869
g10
F45.79999999999999
ssVcn.mixiaoxiao.myappscreenmask
p870
(dp871
g10
F3.6000000000000005
ssVcom.android.deskclock
p872
(dp873
g10
F2.6999999999999997
ssg585
(dp874
g10
F3.8999999999999999
ssg255
(dp875
g10
F0.40000000000000002
ssg179
(dp876
g10
F1.8
ssg111
(dp877
g10
F0.69999999999999996
ssg31
(dp878
g10
F24.699999999999989
ssVcom.zappallas.android.app.shunsui
p879
(dp880
g10
I1
ssVcom.storm.smart
p881
(dp882
g10
F1.3
ssVme.onemobile.android
p883
(dp884
g10
F9.6999999999999993
ssg265
(dp885
g10
F0.90000000000000002
ssVcom.feistma.appmove
p886
(dp887
g10
F5.5999999999999996
ssVcom.ifeng.news2
p888
(dp889
g10
F3.6000000000000001
ssg97
(dp890
g10
F1.7
ssg261
(dp891
g10
F0.90000000000000002
ssg419
(dp892
g10
F0.40000000000000002
ssg77
(dp893
g10
F0.40000000000000002
ssg267
(dp894
g10
F2.6000000000000001
ssVcom.android.bluetooth
p895
(dp896
g10
F1.3999999999999999
ssg51
(dp897
g10
F0.90000000000000002
ssVcom.baidu.backuprestore
p898
(dp899
g10
F1.1000000000000001
ssVcom.tencent.token
p900
(dp901
g10
F3.1999999999999997
ssVcom.huawei.hidisk
p902
(dp903
g10
F28.699999999999989
ssg592
(dp904
g10
I1
ssVcom.baidu.home2
p905
(dp906
g10
F1.7
ssg281
(dp907
g10
F1.5
ssg129
(dp908
g10
F1.1000000000000001
ssg79
(dp909
g10
F0.69999999999999996
ssVcom.tencent.tokenlgnl
p910
(dp911
g10
F0.90000000000000002
ssVcom.tencent.mobileqq
p912
(dp913
g10
F3
ssVcom.nemodigm.android.prime_fortune
p914
(dp915
g10
F2.7000000000000002
ssVcom.android.calculator2
p916
(dp917
g10
F0.69999999999999996
ssg205
(dp918
g10
F1.3999999999999999
ssVcom.nrop19
p919
(dp920
g10
I1
ssg21
(dp921
g10
F0.40000000000000002
ssVmark.via
p922
(dp923
g10
F2.2000000000000002
ssg446
(dp924
g10
F1.7000000000000002
ssg444
(dp925
g10
F1.3
ssg143
(dp926
g10
F0.90000000000000002
ssVcom.baidu.netdisk
p927
(dp928
g10
F0.69999999999999996
ssg213
(dp929
g10
F0.40000000000000002
ssg161
(dp930
g10
F2.2999999999999998
ssVcom.qihoo.browser
p931
(dp932
g10
F3.6000000000000001
ssVcom.homenetworkkeeper
p933
(dp934
g10
F2.5999999999999996
ssg451
(dp935
g10
F193.70000000000007
ssg641
(dp936
g10
I1
ssg145
(dp937
g10
F0.40000000000000002
ssg454
(dp938
g10
F0.69999999999999996
ssg147
(dp939
g10
F4.2000000000000002
ssg730
(dp940
g10
F4.7999999999999998
ssg153
(dp941
g10
F0.40000000000000002
ssg307
(dp942
g10
F0.80000000000000004
ssg155
(dp943
g10
F2.3999999999999999
ssg435
(dp944
g10
F3
ssg649
(dp945
g10
F1.8
ssVcom.baidu.BaiduMap
p946
(dp947
g10
F2.6999999999999997
ssVcom.SharkSoft.BirthdayCode
p948
(dp949
g10
I1
ssg237
(dp950
g10
F0.69999999999999996
ssg239
(dp951
g10
F1.3
ssVcom.baidu.tieba
p952
(dp953
g10
F6.5000000000000009
ssg241
(dp954
g10
F0.90000000000000002
ssVcom.android.settings
p955
(dp956
g10
F8.5
ssg171
(dp957
g10
F0.90000000000000002
ssg173
(dp958
g10
F1.3
sssg51
(dp959
Vme.onemobile.android
p960
(dp961
g10
I1
ssVcom.huawei.android.launcher
p962
(dp963
g10
F0.90000000000000002
sssg53
(dp964
Vcom.android.mms
p965
(dp966
g10
F1.3
ssVcom.android.gallery3d
p967
(dp968
g10
F0.90000000000000002
ssVcom.huawei.android.launcher
p969
(dp970
g10
F17.999999999999996
ssVcom.tencent.mobileqq
p971
(dp972
g10
F0.90000000000000002
ssVcom.android.contacts
p973
(dp974
g10
F1.8
ssVcom.ifeng.news2
p975
(dp976
g10
F0.40000000000000002
sssg55
(dp977
Vcom.huawei.android.launcher
p978
(dp979
g10
F4.5
ssVcom.feistma.appmove
p980
(dp981
g10
F1.5
sssg57
(dp982
Vcom.huawei.android.launcher
p983
(dp984
g10
F1.7
ssVyiqi.bazi
p985
(dp986
g10
F0.90000000000000002
sssg59
(dp987
Vcn.wps.moffice_tpt
p988
(dp989
g10
F5.5999999999999996
ssVcom.huawei.inputmethod.hwpal
p990
(dp991
g10
F1.7
ssVcom.tencent.qqlite
p992
(dp993
g10
F2.7000000000000002
ssVcom.qihoo.cleandroid_cn
p994
(dp995
g10
F9.6999999999999993
ssg439
(dp996
g10
F3.5
ssVcom.baidu.home2
p997
(dp998
g10
I1
ssVvStudio.Android.Camera360
p999
(dp1000
g10
F3.8999999999999995
ssVcom.tencent.android.qqdownloader
p1001
(dp1002
g10
F12.800000000000001
ssVcom.android.contacts
p1003
(dp1004
g10
F10.600000000000001
ssVcom.ifeng.news2
p1005
(dp1006
g10
F12.000000000000002
ssVcom.lanteanstudio.compass
p1007
(dp1008
g10
F0.40000000000000002
ssVcom.tencent.qt.sns
p1009
(dp1010
g10
F1.8999999999999999
ssVcom.android.packageinstaller
p1011
(dp1012
g10
F1.1000000000000001
ssVcom.android.gallery3d
p1013
(dp1014
g10
F3.2999999999999998
ssVcom.huawei.flashlight
p1015
(dp1016
g10
F0.90000000000000002
ssVcom.tencent.token
p1017
(dp1018
g10
F4
ssg607
(dp1019
g10
F1.3
ssVcom.android.hwcamera
p1020
(dp1021
g10
F6.1000000000000005
ssg433
(dp1022
g10
F2.6999999999999997
ssVcom.eg.android.AlipayGphone
p1023
(dp1024
g10
F1.7000000000000002
ssVcom.android.phone
p1025
(dp1026
g10
F0.69999999999999996
ssg285
(dp1027
g10
I2
ssVcom.tencent.tokenlgnl
p1028
(dp1029
g10
F1.3
ssVcom.tencent.mm
p1030
(dp1031
g10
F18.199999999999996
ssVcom.ylmf.androidclient
p1032
(dp1033
g10
F0.69999999999999996
ssVcom.android.calculator2
p1034
(dp1035
g10
F0.90000000000000002
ssg620
(dp1036
g10
F0.69999999999999996
ssg151
(dp1037
g10
I1
ssVcom.baidu.netdisk
p1038
(dp1039
g10
F0.69999999999999996
ssVcom.Astro.UI
p1040
(dp1041
g10
F2.7999999999999998
ssVcom.qihoo.browser
p1042
(dp1043
g10
F2.0999999999999996
ssVcom.huawei.android.launcher
p1044
(dp1045
g10
F137.8000000000001
ssVcom.baidu.browser.apps
p1046
(dp1047
g10
F0.90000000000000002
ssVcom.nd.android.pandareader
p1048
(dp1049
g10
F4.1000000000000005
ssg227
(dp1050
g10
F7.1000000000000005
ssVcn.dz52pojie.www
p1051
(dp1052
g10
F1.3
ssVcom.android.settings
p1053
(dp1054
g10
F4.9000000000000004
ssg311
(dp1055
g10
F0.40000000000000002
ssVcom.android.mms
p1056
(dp1057
g10
F3.2999999999999998
ssVcom.baidu.tieba
p1058
(dp1059
g10
F12.700000000000003
ssVcom.huawei.android.totemweather
p1060
(dp1061
g10
F0.90000000000000002
ssVcom.android.quicksearchbox
p1062
(dp1063
g10
F0.90000000000000002
ssVcom.tencent.tokenqqfa
p1064
(dp1065
g10
F0.40000000000000002
ssVcn.mixiaoxiao.myappscreenmask
p1066
(dp1067
g10
F1.3
sssg61
(dp1068
Vcom.simple.fortuneteller
p1069
(dp1070
g10
F1.7000000000000002
ssVorg.kde.necessitas.example.YXBaZi
p1071
(dp1072
g10
F1.7000000000000002
ssVorg.kde.necessitas.ministro
p1073
(dp1074
g10
F0.69999999999999996
ssVcom.huawei.android.launcher
p1075
(dp1076
g10
F10.5
ssVcom.amigosoftware.name7_6_web_android
p1077
(dp1078
g10
F0.90000000000000002
ssVcom.android.packageinstaller
p1079
(dp1080
g10
F1.3
sssg63
(dp1081
Vcom.huawei.android.launcher
p1082
(dp1083
g10
F3.5
ssg1013
(dp1084
g10
F7.0000000000000009
ssVcom.android.packageinstaller
p1085
(dp1086
g10
F1.5
ssVcom.tencent.mobileqq
p1087
(dp1088
g10
F3.5
ssVcom.qihoo.cleandroid_cn
p1089
(dp1090
g10
F1.5
sssg65
(dp1091
Vcn.wps.moffice_tpt
p1092
(dp1093
g10
F0.90000000000000002
ssVcom.qihoo.cleandroid_cn
p1094
(dp1095
g10
F9.4000000000000004
ssVcom.android.deskclock
p1096
(dp1097
g10
F15.999999999999998
ssVcom.clov4r.android.nil
p1098
(dp1099
g10
F0.40000000000000002
ssVvStudio.Android.Camera360
p1100
(dp1101
g10
F0.90000000000000002
ssVcom.tencent.android.qqdownloader
p1102
(dp1103
g10
F5
ssg35
(dp1104
g10
F0.69999999999999996
ssVcom.feistma.appmove
p1105
(dp1106
g10
F0.40000000000000002
ssVcom.android.contacts
p1107
(dp1108
g10
I2
ssVcom.ifeng.news2
p1109
(dp1110
g10
F11.200000000000003
ssVcom.android.packageinstaller
p1111
(dp1112
g10
F5.2000000000000002
ssVcn.mixiaoxiao.myappscreenmask
p1113
(dp1114
g10
I2
ssg491
(dp1115
g10
F1.3
ssVyiqi.bazi
p1116
(dp1117
g10
F3.1000000000000001
ssVcom.huawei.hidisk
p1118
(dp1119
g10
F1.7
ssVcom.android.phone
p1120
(dp1121
g10
I1
ssVcom.tencent.mm
p1122
(dp1123
g10
F3.5999999999999996
ssVcom.ylmf.androidclient
p1124
(dp1125
g10
I1
ssVcom.nrop19
p1126
(dp1127
g10
F0.69999999999999996
ssg67
(dp1128
g10
I1
ssVcom.baidu.netdisk
p1129
(dp1130
g10
F1.7
ssVcom.Astro.UI
p1131
(dp1132
g10
I1
ssVcom.qihoo.browser
p1133
(dp1134
g10
F2.2999999999999998
ssVcom.huawei.android.launcher
p1135
(dp1136
g10
F90.800000000000054
ssVcom.tencent.qqlive
p1137
(dp1138
g10
F1.3
ssVcom.nd.android.pandareader
p1139
(dp1140
g10
F7.5999999999999996
ssVcom.tencent.mobileqq
p1141
(dp1142
g10
F3.5
ssVcom.kingroot.kinguser
p1143
(dp1144
g10
F15.499999999999998
ssg464
(dp1145
g10
F0.69999999999999996
ssVcom.android.mms
p1146
(dp1147
g10
I1
ssVcom.baidu.tieba
p1148
(dp1149
g10
F20.099999999999998
ssVcom.android.settings
p1150
(dp1151
g10
F3.8999999999999999
sssg67
(dp1152
Vcom.kingroot.kinguser
p1153
(dp1154
g10
I1
ssVcom.huawei.android.launcher
p1155
(dp1156
g10
F2.7000000000000002
ssVcom.qihoo.cleandroid_cn
p1157
(dp1158
g10
F0.90000000000000002
ssVcom.tencent.android.qqdownloader
p1159
(dp1160
g10
F0.40000000000000002
sssg69
(dp1161
Vcom.android.settings
p1162
(dp1163
g10
I1
ssVcom.android.packageinstaller
p1164
(dp1165
g10
F1.3999999999999999
ssVcom.Astro.UI
p1166
(dp1167
g10
I1
ssVcom.huawei.hidisk
p1168
(dp1169
g10
F2.2000000000000002
ssVcom.homenetworkkeeper
p1170
(dp1171
g10
F0.40000000000000002
ssVcom.huawei.android.launcher
p1172
(dp1173
g10
F6.7000000000000002
ssVcom.feistma.appmove
p1174
(dp1175
g10
F2.7000000000000002
ssVcom.ifeng.news2
p1176
(dp1177
g10
I1
sssg71
(dp1178
Vcom.android.packageinstaller
p1179
(dp1180
g10
F2.2999999999999998
ssVcom.huawei.android.launcher
p1181
(dp1182
g10
F0.40000000000000002
ssg161
(dp1183
g10
F2.3999999999999999
sssg73
(dp1184
Vcom.android.mms
p1185
(dp1186
g10
F0.90000000000000002
ssVcom.qihoo.cleandroid_cn
p1187
(dp1188
g10
F4.1000000000000005
ssg749
(dp1189
g10
F1.8
ssVvStudio.Android.Camera360
p1190
(dp1191
g10
F0.40000000000000002
ssVcom.android.contacts
p1192
(dp1193
g10
F2.2000000000000002
ssVcom.ifeng.news2
p1194
(dp1195
g10
F0.90000000000000002
ssVcom.tencent.qt.sns
p1196
(dp1197
g10
F0.69999999999999996
ssVcom.android.packageinstaller
p1198
(dp1199
g10
F0.90000000000000002
ssVyiqi.bazi
p1200
(dp1201
g10
I1
ssVcom.huawei.hidisk
p1202
(dp1203
g10
F0.90000000000000002
ssg1023
(dp1204
g10
F0.90000000000000002
ssVcom.android.systemui
p1205
(dp1206
g10
F1.7
ssVcom.tencent.mm
p1207
(dp1208
g10
F1.8
ssVmark.via
p1209
(dp1210
g10
F2.1000000000000001
ssVcom.huawei.android.launcher
p1211
(dp1212
g10
F47.300000000000004
ssVcom.nd.android.pandareader
p1213
(dp1214
g10
F1.3
ssVcom.tencent.mobileqq
p1215
(dp1216
g10
F1.8
ssg508
(dp1217
g10
F0.90000000000000002
ssg464
(dp1218
g10
F2.2000000000000002
ssg159
(dp1219
g10
F0.40000000000000002
ssVcom.baidu.tieba
p1220
(dp1221
g10
F1.3
ssg1162
(dp1222
g10
F0.40000000000000002
sssg75
(dp1223
g81
(dp1224
g10
F1.3
ssVcom.huawei.android.launcher
p1225
(dp1226
g10
F4.0999999999999996
ssVcom.tencent.android.qqdownloader
p1227
(dp1228
g10
F0.69999999999999996
sssg77
(dp1229
g169
(dp1230
g10
F0.69999999999999996
ssg377
(dp1231
g10
F1.3
ssVcom.zq.Fate
p1232
(dp1233
g10
I1
sssg79
(dp1234
g91
(dp1235
g10
F0.90000000000000002
ssg601
(dp1236
g10
F0.69999999999999996
ssg639
(dp1237
g10
I1
ssVcom.qihoo.cleandroid_cn
p1238
(dp1239
g10
F0.40000000000000002
sssg81
(dp1240
Vcom.android.settings
p1241
(dp1242
g10
I1
ssVcom.huawei.android.launcher
p1243
(dp1244
g10
F2.6000000000000001
ssg1227
(dp1245
g10
I1
sssg83
(dp1246
Vcom.huawei.android.launcher
p1247
(dp1248
g10
F0.69999999999999996
ssVcom.tencent.android.qqdownloader
p1249
(dp1250
g10
F1.3999999999999999
ssg251
(dp1251
g10
F0.90000000000000002
sssg85
(dp1252
Vcom.android.packageinstaller
p1253
(dp1254
g10
F0.40000000000000002
ssVcom.huawei.android.launcher
p1255
(dp1256
g10
F3.4000000000000004
ssVcom.tencent.android.qqdownloader
p1257
(dp1258
g10
F1.3
sssg87
(dp1259
Vcom.android.packageinstaller
p1260
(dp1261
g10
F0.69999999999999996
ssVcom.huawei.android.launcher
p1262
(dp1263
g10
F1.3
ssVcom.tencent.android.qqdownloader
p1264
(dp1265
g10
I1
sssg89
(dp1266
Vcom.jiongji.andriod.card
p1267
(dp1268
g10
F0.40000000000000002
ssg1092
(dp1269
g10
F1.3
ssg259
(dp1270
g10
F1.5
ssg159
(dp1271
g10
F0.90000000000000002
ssVcom.qihoo.cleandroid_cn
p1272
(dp1273
g10
F11.900000000000002
ssg105
(dp1274
g10
F6.4000000000000004
ssVcom.huawei.android.totemweather
p1275
(dp1276
g10
F0.90000000000000002
ssVcom.android.deskclock
p1277
(dp1278
g10
F11.5
ssVvStudio.Android.Camera360
p1279
(dp1280
g10
F2.6000000000000001
ssVcom.tencent.android.qqdownloader
p1281
(dp1282
g10
F3.7999999999999998
ssVcom.huawei.flashlight
p1283
(dp1284
g10
F0.90000000000000002
ssg886
(dp1285
g10
F2
ssVcom.android.contacts
p1286
(dp1287
g10
F10.4
ssg41
(dp1288
g10
F46.799999999999955
ssg43
(dp1289
g10
F9.2000000000000011
ssg323
(dp1290
g10
F0.69999999999999996
ssg822
(dp1291
g10
F5.3000000000000007
ssVcom.android.gallery3d
p1292
(dp1293
g10
F1.1000000000000001
ssg489
(dp1294
g10
F8.9000000000000004
ssg431
(dp1295
g10
F1.7000000000000002
ssg275
(dp1296
g10
F0.90000000000000002
ssVcom.huawei.hidisk
p1297
(dp1298
g10
F2.3999999999999999
ssVcom.eg.android.AlipayGphone
p1299
(dp1300
g10
F0.90000000000000002
ssVcom.baidu.home2
p1301
(dp1302
g10
F2.3999999999999999
ssVcom.android.phone
p1303
(dp1304
g10
F8.4000000000000004
ssVcom.tencent.mtt
p1305
(dp1306
g10
F0.90000000000000002
ssVcom.tencent.mobileqq
p1307
(dp1308
g10
F10.300000000000002
ssVcom.ylmf.androidclient
p1309
(dp1310
g10
F1.1000000000000001
ssVcom.android.calculator2
p1311
(dp1312
g10
F0.40000000000000002
ssVmark.via
p1313
(dp1314
g10
F12.300000000000002
ssVcom.baidu.netdisk
p1315
(dp1316
g10
F2.6000000000000001
ssg824
(dp1317
g10
F0.90000000000000002
ssg73
(dp1318
g10
F1.3
ssVcom.qihoo.browser
p1319
(dp1320
g10
F19.299999999999994
ssg217
(dp1321
g10
F0.69999999999999996
ssVcom.huawei.android.launcher
p1322
(dp1323
g10
F299.69999999999959
ssVcom.tencent.qqlive
p1324
(dp1325
g10
F1.3
ssVcom.tencent.tokenlgnl
p1326
(dp1327
g10
F0.90000000000000002
ssVcom.kingroot.kinguser
p1328
(dp1329
g10
F8.5
ssVcom.tencent.mm
p1330
(dp1331
g10
F14.000000000000002
ssVcom.android.mms
p1332
(dp1333
g10
F11.700000000000001
ssg468
(dp1334
g10
F0.40000000000000002
ssVcom.android.settings
p1335
(dp1336
g10
F15.400000000000002
ssg325
(dp1337
g10
F1.7000000000000002
sssg91
(dp1338
Vcom.simple.fortuneteller
p1339
(dp1340
g10
F0.69999999999999996
ssg17
(dp1341
g10
F1.3
ssg1238
(dp1342
g10
F1.8
ssVcom.baidu.backuprestore
p1343
(dp1344
g10
F2.7000000000000002
ssg1301
(dp1345
g10
F1.3
ssVcom.clov4r.android.nil
p1346
(dp1347
g10
F0.69999999999999996
ssg753
(dp1348
g10
F4.1000000000000005
ssVme.onemobile.android
p1349
(dp1350
g10
F0.40000000000000002
ssVcom.feistma.appmove
p1351
(dp1352
g10
F7.8000000000000007
ssg259
(dp1353
g10
F3.5
ssVcom.ifeng.news2
p1354
(dp1355
g10
F4.0999999999999996
ssVmark.via
p1356
(dp1357
g10
F3.3999999999999999
ssg77
(dp1358
g10
F0.69999999999999996
ssVpredictor.namer
p1359
(dp1360
g10
F0.69999999999999996
ssg601
(dp1361
g10
F6.4000000000000004
ssVcn.mixiaoxiao.myappscreenmask
p1362
(dp1363
g10
F1.8
ssg607
(dp1364
g10
F0.90000000000000002
ssg1168
(dp1365
g10
F11.300000000000001
ssVcom.eg.android.AlipayGphone
p1366
(dp1367
g10
F1.3999999999999999
ssVcom.android.systemui
p1368
(dp1369
g10
F0.90000000000000002
ssg85
(dp1370
g10
F0.40000000000000002
ssVcom.tencent.mm
p1371
(dp1372
g10
F2.2999999999999998
ssVcom.ylmf.androidclient
p1373
(dp1374
g10
F3.2999999999999998
ssg916
(dp1375
g10
F1.3
ssVcom.nrop19
p1376
(dp1377
g10
F1.3
ssVcom.android.contacts
p1378
(dp1379
g10
F5.4000000000000004
ssVcom.huawei.KoBackup
p1380
(dp1381
g10
I1
ssVcom.android.phone
p1382
(dp1383
g10
F52.5
ssg135
(dp1384
g10
F10.199999999999999
ssg211
(dp1385
g10
F0.69999999999999996
ssVcom.qihoo.browser
p1386
(dp1387
g10
F8
ssg933
(dp1388
g10
F1.3999999999999999
ssVcom.huawei.android.launcher
p1389
(dp1390
g10
F76.200000000000017
ssg107
(dp1391
g10
F0.69999999999999996
ssVcom.kingroot.kinguser
p1392
(dp1393
g10
F1.3999999999999999
ssVcom.anzhi.hwsettings
p1394
(dp1395
g10
F0.40000000000000002
ssVcom.tencent.mobileqq
p1396
(dp1397
g10
F3.6999999999999997
ssVcom.android.mms
p1398
(dp1399
g10
F3.8999999999999999
ssVcom.baidu.BaiduMap
p1400
(dp1401
g10
F1.7
ssVcom.baidu.tieba
p1402
(dp1403
g10
F13.800000000000002
ssVcom.amigosoftware.name7_5_web_android
p1404
(dp1405
g10
F0.69999999999999996
sssg93
(dp1406
g1394
(dp1407
g10
F0.90000000000000002
ssVcom.android.mms
p1408
(dp1409
g10
F0.90000000000000002
ssVcom.qihoo.browser
p1410
(dp1411
g10
F1.6000000000000001
ssVcom.huawei.android.launcher
p1412
(dp1413
g10
F8.5
ssVcom.android.contacts
p1414
(dp1415
g10
F0.40000000000000002
ssVcom.ifeng.news2
p1416
(dp1417
g10
F0.90000000000000002
sssg95
(dp1418
g225
(dp1419
g10
F1.3
ssVcom.huawei.android.launcher
p1420
(dp1421
g10
F2.6999999999999997
ssVcom.qihoo.cleandroid_cn
p1422
(dp1423
g10
F0.69999999999999996
ssVcom.tencent.android.qqdownloader
p1424
(dp1425
g10
F6.7999999999999998
sssg97
(dp1426
g261
(dp1427
g10
F0.40000000000000002
ssVcom.tencent.qt.sns
p1428
(dp1429
g10
F0.40000000000000002
ssVcom.youdao.dict
p1430
(dp1431
g10
F4.2999999999999998
ssVcom.baidu.resmanager.filemanager
p1432
(dp1433
g10
I1
ssVcom.kingroot.kinguser
p1434
(dp1435
g10
F0.69999999999999996
ssVcom.tencent.mm
p1436
(dp1437
g10
F2.7000000000000002
ssVcom.android.packageinstaller
p1438
(dp1439
g10
F0.90000000000000002
ssVcom.android.mms
p1440
(dp1441
g10
F1.3999999999999999
ssVcom.qihoo.cleandroid_cn
p1442
(dp1443
g10
F0.40000000000000002
ssVyiqi.bazi
p1444
(dp1445
g10
F0.90000000000000002
ssg334
(dp1446
g10
F2.2999999999999998
ssVcom.huawei.android.launcher
p1447
(dp1448
g10
F16
ssVcom.ifeng.news2
p1449
(dp1450
g10
F1.3
ssVcom.tencent.android.qqdownloader
p1451
(dp1452
g10
F2.3999999999999999
ssVcom.baidu.tieba
p1453
(dp1454
g10
F1.3
ssg1048
(dp1455
g10
F0.90000000000000002
ssVcom.tencent.mobileqq
p1456
(dp1457
g10
F7.2000000000000011
ssg1066
(dp1458
g10
F2.7000000000000002
ssVcom.android.deskclock
p1459
(dp1460
g10
I1
sssg99
(dp1461
Vcom.android.packageinstaller
p1462
(dp1463
g10
F0.90000000000000002
ssVcom.huawei.android.launcher
p1464
(dp1465
g10
F1.7
ssVcom.qihoo.cleandroid_cn
p1466
(dp1467
g10
F0.40000000000000002
sssg101
(dp1468
g905
(dp1469
g10
F1.3
ssVcom.android.packageinstaller
p1470
(dp1471
g10
I1
ssg910
(dp1472
g10
F0.69999999999999996
sssg103
(dp1473
g207
(dp1474
g10
F0.40000000000000002
ssVcom.android.packageinstaller
p1475
(dp1476
g10
F0.90000000000000002
ssg25
(dp1477
g10
F0.90000000000000002
ssg931
(dp1478
g10
F0.40000000000000002
ssVcom.huawei.android.launcher
p1479
(dp1480
g10
F6.7999999999999998
ssg203
(dp1481
g10
F0.90000000000000002
sssg105
(dp1482
g470
(dp1483
g10
F4
ssVcom.huawei.android.launcher
p1484
(dp1485
g10
F4.7000000000000002
ssVcom.ifeng.news2
p1486
(dp1487
g10
F1.3
ssVcom.kingroot.kinguser
p1488
(dp1489
g10
F0.90000000000000002
sssg107
(dp1490
Vcom.tencent.mobileqq
p1491
(dp1492
g10
F0.90000000000000002
ssVcom.android.mms
p1493
(dp1494
g10
F0.69999999999999996
ssVcom.baidu.backuprestore
p1495
(dp1496
g10
F0.90000000000000002
ssVcom.baidu.home2
p1497
(dp1498
g10
I2
ssVcom.huawei.android.launcher
p1499
(dp1500
g10
F6.2000000000000002
ssg75
(dp1501
g10
F0.40000000000000002
ssVcom.tencent.mm
p1502
(dp1503
g10
F0.90000000000000002
ssVcom.tencent.tokenqqfa
p1504
(dp1505
g10
F1.8
sssg109
(dp1506
Vcom.android.packageinstaller
p1507
(dp1508
g10
I1
ssVcom.huawei.android.launcher
p1509
(dp1510
g10
F1.7000000000000002
ssg919
(dp1511
g10
F2.6000000000000001
ssVcom.feistma.appmove
p1512
(dp1513
g10
F0.69999999999999996
ssVcom.qihoo.cleandroid_cn
p1514
(dp1515
g10
F1.3999999999999999
sssg111
(dp1516
Vcom.android.deskclock
p1517
(dp1518
g10
F2.7000000000000002
ssVcom.kingroot.kinguser
p1519
(dp1520
g10
F1.3
ssVcom.qihoo.browser
p1521
(dp1522
g10
F1.7
ssVcom.huawei.android.launcher
p1523
(dp1524
g10
F2.1000000000000001
ssVcom.android.contacts
p1525
(dp1526
g10
F0.90000000000000002
sssg113
(dp1527
Vcom.android.settings
p1528
(dp1529
g10
I1
sssg115
(dp1530
Vcom.android.settings
p1531
(dp1532
g10
F0.90000000000000002
ssVcom.youdao.dict
p1533
(dp1534
g10
I1
sssg117
(dp1535
Vmark.via
p1536
(dp1537
g10
I1
ssVcom.huawei.android.launcher
p1538
(dp1539
g10
F1.8999999999999999
ssVcom.qihoo.cleandroid_cn
p1540
(dp1541
g10
F0.69999999999999996
sssg119
(dp1542
Vcom.kingroot.kinguser
p1543
(dp1544
g10
F4.0999999999999996
ssg179
(dp1545
g10
F0.40000000000000002
ssg317
(dp1546
g10
F0.90000000000000002
ssVcom.android.settings
p1547
(dp1548
g10
F1.3999999999999999
ssVcom.android.packageinstaller
p1549
(dp1550
g10
F11
ssg946
(dp1551
g10
F2.2999999999999998
ssVcom.qihoo.cleandroid_cn
p1552
(dp1553
g10
F0.69999999999999996
ssVcom.baidu.tieba
p1554
(dp1555
g10
F0.90000000000000002
ssg33
(dp1556
g10
F1.3
ssVcom.android.quicksearchbox
p1557
(dp1558
g10
F1.3
ssVcom.huawei.android.launcher
p1559
(dp1560
g10
F21.599999999999998
ssVcom.nd.android.pandareader
p1561
(dp1562
g10
F1.3
sssg121
(dp1563
Vcom.android.deskclock
p1564
(dp1565
g10
F1.3
ssVcom.nrop19
p1566
(dp1567
g10
F1.7
ssVcom.huawei.flashlight
p1568
(dp1569
g10
F0.90000000000000002
ssVcom.clov4r.android.nil
p1570
(dp1571
g10
F0.90000000000000002
ssVcom.tencent.mm
p1572
(dp1573
g10
F0.40000000000000002
ssVcom.android.mms
p1574
(dp1575
g10
F1.7
ssVcom.qihoo.cleandroid_cn
p1576
(dp1577
g10
F1.6000000000000001
ssVcn.taxen.ziwei
p1578
(dp1579
g10
F7.0000000000000009
ssVcom.android.hwcamera
p1580
(dp1581
g10
F2.7000000000000002
ssVcom.huawei.hidisk
p1582
(dp1583
g10
F5.4000000000000004
ssVvStudio.Android.Camera360
p1584
(dp1585
g10
F1.7
ssVcom.huawei.android.launcher
p1586
(dp1587
g10
F16.399999999999999
ssVcom.baidu.browser.apps
p1588
(dp1589
g10
F0.69999999999999996
ssVcom.baidu.tieba
p1590
(dp1591
g10
F0.90000000000000002
ssVcom.nd.android.pandareader
p1592
(dp1593
g10
F0.90000000000000002
ssVcom.tencent.mobileqq
p1594
(dp1595
g10
F1.3
ssVcom.android.contacts
p1596
(dp1597
g10
F2.2000000000000002
ssVcom.ifeng.news2
p1598
(dp1599
g10
F1.3
sssg123
(dp1600
Vcom.android.packageinstaller
p1601
(dp1602
g10
F0.90000000000000002
ssVcom.huawei.android.launcher
p1603
(dp1604
g10
F1.7
ssVcom.ifeng.news2
p1605
(dp1606
g10
F0.40000000000000002
sssg125
(dp1607
Vcom.kingroot.kinguser
p1608
(dp1609
g10
F2.0999999999999996
ssVcom.android.contacts
p1610
(dp1611
g10
F0.80000000000000004
ssg13
(dp1612
g10
I1
ssVcom.android.packageinstaller
p1613
(dp1614
g10
F0.40000000000000002
ssVcom.android.mms
p1615
(dp1616
g10
F6.8000000000000016
ssVcom.baidu.BaiduMap
p1617
(dp1618
g10
F0.69999999999999996
ssVcn.mixiaoxiao.myappscreenmask
p1619
(dp1620
g10
F3.0999999999999996
ssVcom.huawei.hidisk
p1621
(dp1622
g10
I1
ssVcom.qihoo.browser
p1623
(dp1624
g10
F1.3
ssg350
(dp1625
g10
F27.799999999999994
ssVcom.yidalianke.app
p1626
(dp1627
g10
F0.90000000000000002
ssVcom.tencent.android.qqdownloader
p1628
(dp1629
g10
F2.2000000000000002
ssVcom.qihoo.cleandroid_cn
p1630
(dp1631
g10
F2.2000000000000002
ssVcom.baidu.tieba
p1632
(dp1633
g10
F2.5
ssVcom.tencent.mm
p1634
(dp1635
g10
F3.7999999999999998
ssVcom.feistma.appmove
p1636
(dp1637
g10
F0.40000000000000002
ssVcom.ifeng.news2
p1638
(dp1639
g10
F0.90000000000000002
sssg127
(dp1640
Vcom.jiongji.andriod.card
p1641
(dp1642
g10
I1
ssVcom.qihoo.cleandroid_cn
p1643
(dp1644
g10
F4.5
ssVcom.tencent.tokenlgnl
p1645
(dp1646
g10
F0.40000000000000002
ssVcom.android.deskclock
p1647
(dp1648
g10
F2.2999999999999998
ssVvStudio.Android.Camera360
p1649
(dp1650
g10
I1
ssVcom.android.contacts
p1651
(dp1652
g10
F167.00000000000009
ssVcom.ifeng.news2
p1653
(dp1654
g10
F10.199999999999999
ssVcom.sankuai.meituan
p1655
(dp1656
g10
F3.4000000000000004
ssg271
(dp1657
g10
F2
ssVcom.tencent.token
p1658
(dp1659
g10
F2.7999999999999998
ssVcom.eg.android.AlipayGphone
p1660
(dp1661
g10
F0.69999999999999996
ssVcom.tencent.mm
p1662
(dp1663
g10
F6
ssVcom.ylmf.androidclient
p1664
(dp1665
g10
I1
ssVcom.tencent.tokenqqfa
p1666
(dp1667
g10
I1
ssVcom.kingroot.kinguser
p1668
(dp1669
g10
I3
ssg135
(dp1670
g10
F3.8999999999999999
ssg1131
(dp1671
g10
F2.7999999999999998
ssVcom.qihoo.browser
p1672
(dp1673
g10
F3
ssVcom.huawei.android.launcher
p1674
(dp1675
g10
F129.60000000000016
ssVcom.tencent.mobileqq
p1676
(dp1677
g10
F7
ssVmark.via
p1678
(dp1679
g10
F2.2999999999999998
ssVcom.anzhi.hwsettings
p1680
(dp1681
g10
F0.90000000000000002
ssVcom.sinovatech.unicom.ui
p1682
(dp1683
g10
F1.7
ssg809
(dp1684
g10
F47.899999999999999
ssVcom.android.mms
p1685
(dp1686
g10
F18.699999999999996
ssVcom.baidu.tieba
p1687
(dp1688
g10
F10.199999999999999
ssVcom.huawei.android.totemweather
p1689
(dp1690
g10
F1.3
ssg566
(dp1691
g10
F2.3999999999999999
sssg129
(dp1692
Vcom.android.mms
p1693
(dp1694
g10
F0.90000000000000002
ssVcom.android.packageinstaller
p1695
(dp1696
g10
F2.6000000000000001
ssVcom.huawei.android.launcher
p1697
(dp1698
g10
F5.1000000000000005
ssVcom.baidu.tieba
p1699
(dp1700
g10
F0.40000000000000002
sssg131
(dp1701
g49
(dp1702
g10
F0.90000000000000002
ssVcom.huawei.android.launcher
p1703
(dp1704
g10
F1.3999999999999999
ssg23
(dp1705
g10
F0.69999999999999996
sssg133
(dp1706
g541
(dp1707
g10
F0.90000000000000002
ssVcom.baidu.backuprestore
p1708
(dp1709
g10
F0.90000000000000002
ssg554
(dp1710
g10
F0.90000000000000002
ssVcom.baidu.home2
p1711
(dp1712
g10
F3.4000000000000004
ssVcom.huawei.android.launcher
p1713
(dp1714
g10
F4.4000000000000004
ssg75
(dp1715
g10
F1.3
sssg135
(dp1716
Vcom.android.settings
p1717
(dp1718
g10
F9.8000000000000007
ssVcom.qihoo.browser
p1719
(dp1720
g10
F2.6000000000000001
ssVcom.huawei.android.launcher
p1721
(dp1722
g10
F3
ssVcom.baidu.tieba
p1723
(dp1724
g10
F0.69999999999999996
ssVcom.android.phone
p1725
(dp1726
g10
F1.7
sssg137
(dp1727
Vcom.android.packageinstaller
p1728
(dp1729
g10
F0.40000000000000002
ssVcom.huawei.android.launcher
p1730
(dp1731
g10
F1.7
ssVcom.tencent.android.qqdownloader
p1732
(dp1733
g10
F0.90000000000000002
sssg139
(dp1734
Vcom.android.packageinstaller
p1735
(dp1736
g10
F0.69999999999999996
ssVcom.huawei.android.launcher
p1737
(dp1738
g10
F1.3
ssVcom.tencent.android.qqdownloader
p1739
(dp1740
g10
I1
sssg141
(dp1741
g45
(dp1742
g10
F0.69999999999999996
ssVcom.qihoo.cleandroid_cn
p1743
(dp1744
g10
F2
ssVcom.baidu.backuprestore
p1745
(dp1746
g10
F1.3
ssVcom.android.deskclock
p1747
(dp1748
g10
F24.5
ssVvStudio.Android.Camera360
p1749
(dp1750
g10
F0.69999999999999996
ssg111
(dp1751
g10
F1.3
ssVcom.tencent.android.qqdownloader
p1752
(dp1753
g10
F2.7000000000000002
ssVcom.android.contacts
p1754
(dp1755
g10
F4.0999999999999996
ssVcom.ifeng.news2
p1756
(dp1757
g10
F5.2000000000000002
ssVcom.tencent.qt.sns
p1758
(dp1759
g10
F1.3
ssVcom.android.packageinstaller
p1760
(dp1761
g10
F3.3999999999999999
ssVcn.mixiaoxiao.myappscreenmask
p1762
(dp1763
g10
F10.200000000000003
ssg826
(dp1764
g10
F1.3
ssVcom.feistma.appmove
p1765
(dp1766
g10
F1.7000000000000002
ssVcom.huawei.hidisk
p1767
(dp1768
g10
F0.40000000000000002
ssVoms.mmc.fortunetelling
p1769
(dp1770
g10
F1.7
ssVcom.android.phone
p1771
(dp1772
g10
F1.8999999999999999
ssVcom.amigosoftware.life3_3_web_android
p1773
(dp1774
g10
I1
ssVcom.tencent.mobileqq
p1775
(dp1776
g10
F6.5000000000000009
ssVcom.ylmf.androidclient
p1777
(dp1778
g10
F1.8
ssg783
(dp1779
g10
F1.8
ssVcom.kingroot.kinguser
p1780
(dp1781
g10
F5.4000000000000004
ssVcom.huawei.android.dsdscardmanager
p1782
(dp1783
g10
F1.3
ssVcom.Astro.UI
p1784
(dp1785
g10
F1.3
ssVexample.yijing
p1786
(dp1787
g10
F3.4000000000000004
ssVcom.huawei.android.launcher
p1788
(dp1789
g10
F108.00000000000004
ssVmark.via
p1790
(dp1791
g10
F3.5999999999999996
ssg1051
(dp1792
g10
F3.0999999999999996
ssVcom.tencent.mm
p1793
(dp1794
g10
F5.4000000000000004
ssVcom.android.mms
p1795
(dp1796
g10
F4.5999999999999996
ssVcom.baidu.BaiduMap
p1797
(dp1798
g10
F0.40000000000000002
ssVcom.baidu.tieba
p1799
(dp1800
g10
F21.199999999999992
ssg321
(dp1801
g10
F0.40000000000000002
ssVcom.android.settings
p1802
(dp1803
g10
F6.7999999999999998
ssVcom.android.quicksearchbox
p1804
(dp1805
g10
F1.7000000000000002
sssg143
(dp1806
g177
(dp1807
g10
F0.90000000000000002
ssg157
(dp1808
g10
F0.40000000000000002
ssVcom.android.settings
p1809
(dp1810
g10
F0.69999999999999996
ssVcom.huawei.android.launcher
p1811
(dp1812
g10
F4.4000000000000004
ssVcom.huawei.hidisk
p1813
(dp1814
g10
F1.7000000000000002
sssg145
(dp1815
Vcom.qihoo.browser
p1816
(dp1817
g10
I1
sssg147
(dp1818
Vcom.baidu.BaiduMap
p1819
(dp1820
g10
F0.69999999999999996
ssVcom.kingroot.kinguser
p1821
(dp1822
g10
F8.1999999999999993
ssVme.onemobile.android
p1823
(dp1824
g10
F1.3
ssVcn.wps.moffice_tpt
p1825
(dp1826
g10
F0.69999999999999996
ssVmark.via
p1827
(dp1828
g10
F9.4000000000000021
ssVcom.huawei.android.totemweather
p1829
(dp1830
g10
F1.3
ssVcom.android.packageinstaller
p1831
(dp1832
g10
F1.7
ssVcom.baidu.backuprestore
p1833
(dp1834
g10
F0.40000000000000002
ssg1442
(dp1835
g10
F0.90000000000000002
ssg401
(dp1836
g10
F9.8999999999999986
ssVcom.android.deskclock
p1837
(dp1838
g10
F25.099999999999994
ssVcom.huawei.hidisk
p1839
(dp1840
g10
F13
ssVcom.huawei.android.launcher
p1841
(dp1842
g10
F45.299999999999997
ssg201
(dp1843
g10
F1.6000000000000001
ssVcom.android.phone
p1844
(dp1845
g10
I1
ssVcom.baidu.tieba
p1846
(dp1847
g10
F1.3
ssg624
(dp1848
g10
F3.8999999999999999
ssg1032
(dp1849
g10
F0.90000000000000002
ssVcom.tencent.mobileqq
p1850
(dp1851
g10
F3
sssg149
(dp1852
g1737
(dp1853
g10
F0.40000000000000002
ssg139
(dp1854
g10
F0.90000000000000002
ssVcom.tencent.android.qqdownloader
p1855
(dp1856
g10
F1.7
sssg151
(dp1857
sg153
(dp1858
Vcom.lql.yj.bgyc
p1859
(dp1860
g10
F0.90000000000000002
ssg301
(dp1861
g10
F0.90000000000000002
ssVcom.huawei.android.launcher
p1862
(dp1863
g10
F3.0999999999999996
ssVcom.baidu.BaiduMap
p1864
(dp1865
g10
F0.69999999999999996
ssVcom.android.packageinstaller
p1866
(dp1867
g10
F0.40000000000000002
sssg155
(dp1868
Vcom.android.packageinstaller
p1869
(dp1870
g10
F2
ssVcom.huawei.android.launcher
p1871
(dp1872
g10
F5.6000000000000005
ssg241
(dp1873
g10
F0.40000000000000002
sssg157
(dp1874
g239
(dp1875
g10
F0.40000000000000002
ssVme.onemobile.android
p1876
(dp1877
g10
F1.3
ssVcom.android.packageinstaller
p1878
(dp1879
g10
F1.6000000000000001
ssVcom.huawei.android.launcher
p1880
(dp1881
g10
F12.4
ssg195
(dp1882
g10
F9.2000000000000011
sssg159
(dp1883
Vcom.tencent.mobileqq
p1884
(dp1885
g10
F2.2999999999999998
ssVcom.android.packageinstaller
p1886
(dp1887
g10
F1.3
ssg217
(dp1888
g10
I1
ssVcom.huawei.android.launcher
p1889
(dp1890
g10
F3.1000000000000001
ssVcom.qihoo.cleandroid_cn
p1891
(dp1892
g10
F0.69999999999999996
sssg161
(dp1893
g129
(dp1894
g10
F1.3
ssVcom.android.packageinstaller
p1895
(dp1896
g10
F1.3999999999999999
ssg1181
(dp1897
g10
F2.3999999999999999
sssg163
(dp1898
Vcom.baidu.tieba
p1899
(dp1900
g10
F0.40000000000000002
ssVcom.huawei.android.launcher
p1901
(dp1902
g10
F0.69999999999999996
ssVcom.anzhi.hwsettings
p1903
(dp1904
g10
I1
ssVcn.mixiaoxiao.myappscreenmask
p1905
(dp1906
g10
F0.90000000000000002
sssg165
(dp1907
g1613
(dp1908
g10
F0.90000000000000002
ssVcom.huawei.android.launcher
p1909
(dp1910
g10
F4.7999999999999998
ssVcom.qihoo.cleandroid_cn
p1911
(dp1912
g10
F0.40000000000000002
ssVcom.tencent.android.qqdownloader
p1913
(dp1914
g10
F1.3
ssg95
(dp1915
g10
F0.69999999999999996
sssg167
(dp1916
Vcom.kingroot.kinguser
p1917
(dp1918
g10
F0.40000000000000002
ssVcom.sinovatech.unicom.ui
p1919
(dp1920
g10
F1.6000000000000001
ssVcom.huawei.android.launcher
p1921
(dp1922
g10
F3.5
ssVcom.tencent.android.qqdownloader
p1923
(dp1924
g10
I2
ssVcom.tencent.mobileqq
p1925
(dp1926
g10
F0.40000000000000002
ssVcom.feistma.appmove
p1927
(dp1928
g10
F0.69999999999999996
sssg169
(dp1929
g243
(dp1930
g10
F0.90000000000000002
ssVcom.huawei.android.launcher
p1931
(dp1932
g10
F1.7
ssg235
(dp1933
g10
F0.40000000000000002
sssg171
(dp1934
Vme.onemobile.android
p1935
(dp1936
g10
F0.90000000000000002
ssVcom.android.packageinstaller
p1937
(dp1938
g10
F0.90000000000000002
ssg145
(dp1939
g10
F0.90000000000000002
ssg1816
(dp1940
g10
F1.1000000000000001
ssVcom.huawei.android.launcher
p1941
(dp1942
g10
F4.4000000000000004
ssg33
(dp1943
g10
F0.40000000000000002
sssg173
(dp1944
Vcom.android.settings
p1945
(dp1946
g10
F1.7
ssVcom.android.packageinstaller
p1947
(dp1948
g10
F1.3
ssg933
(dp1949
g10
F0.40000000000000002
ssVcom.huawei.android.launcher
p1950
(dp1951
g10
F1.7
sssg175
(dp1952
g691
(dp1953
g10
F0.40000000000000002
ssVcom.feistma.appmove
p1954
(dp1955
g10
F0.90000000000000002
ssVcom.baidu.home2
p1956
(dp1957
g10
F1.7
ssVcom.qihoo.browser
p1958
(dp1959
g10
F0.90000000000000002
ssVcom.huawei.android.launcher
p1960
(dp1961
g10
F3.1000000000000001
ssVcom.android.phone
p1962
(dp1963
g10
F1.7
ssVcom.android.contacts
p1964
(dp1965
g10
F0.90000000000000002
sssg177
(dp1966
g157
(dp1967
g10
F0.90000000000000002
ssVcom.huawei.android.launcher
p1968
(dp1969
g10
F5.4000000000000004
ssVcom.android.packageinstaller
p1970
(dp1971
g10
F1.3
ssg914
(dp1972
g10
F0.40000000000000002
sssg179
(dp1973
Vcom.android.packageinstaller
p1974
(dp1975
g10
F0.90000000000000002
ssg171
(dp1976
g10
F0.40000000000000002
ssVcom.huawei.android.launcher
p1977
(dp1978
g10
F2.7000000000000002
sssg181
(dp1979
Vcom.android.packageinstaller
p1980
(dp1981
g10
F1.3
ssVcom.huawei.android.launcher
p1982
(dp1983
g10
I1
ssVcom.qihoo.cleandroid_cn
p1984
(dp1985
g10
F0.69999999999999996
sssg183
(dp1986
Vcom.kingroot.kinguser
p1987
(dp1988
g10
I1
ssg1376
(dp1989
g10
F0.40000000000000002
ssVcom.android.contacts
p1990
(dp1991
g10
F1.8999999999999999
ssg229
(dp1992
g10
F1.3
ssVcom.android.settings
p1993
(dp1994
g10
F3.2999999999999998
ssg549
(dp1995
g10
F0.80000000000000004
ssVcom.qihoo.cleandroid_cn
p1996
(dp1997
g10
F1.7
ssg429
(dp1998
g10
F4.7999999999999998
ssg107
(dp1999
g10
F2
ssVcom.baidu.home2
p2000
(dp2001
g10
F4.7000000000000002
ssVcom.qihoo.browser
p2002
(dp2003
g10
F0.90000000000000002
ssVcom.huawei.android.launcher
p2004
(dp2005
g10
F25.399999999999991
ssVcom.tencent.mm
p2006
(dp2007
g10
I2
ssg414
(dp2008
g10
F0.90000000000000002
ssVcom.eg.android.AlipayGphone
p2009
(dp2010
g10
F0.90000000000000002
ssVcom.tencent.tokenqqfa
p2011
(dp2012
g10
F0.90000000000000002
sssg185
(dp2013
g1129
(dp2014
g10
F0.90000000000000002
ssVcom.huawei.flashlight
p2015
(dp2016
g10
F1.8
ssVcom.android.deskclock
p2017
(dp2018
g10
F4.2999999999999998
ssVcom.eg.android.AlipayGphone
p2019
(dp2020
g10
F1.3
ssVcom.sankuai.meituan
p2021
(dp2022
g10
I2
ssVcom.android.gallery3d
p2023
(dp2024
g10
F0.69999999999999996
ssg271
(dp2025
g10
F2.5
ssg1658
(dp2026
g10
F3.0999999999999996
ssVcom.huawei.hidisk
p2027
(dp2028
g10
F1.3
ssVcom.ifeng.news2
p2029
(dp2030
g10
F3.6000000000000001
ssVcom.baidu.home2
p2031
(dp2032
g10
F3.6000000000000001
ssg127
(dp2033
g10
F79.900000000000006
ssVcom.tencent.mm
p2034
(dp2035
g10
F10.800000000000001
ssVmark.via
p2036
(dp2037
g10
F3.6999999999999997
ssVcom.qihoo.cleandroid_cn
p2038
(dp2039
g10
F2.7000000000000002
ssVcom.Astro.UI
p2040
(dp2041
g10
F2.6000000000000001
ssVcom.qihoo.browser
p2042
(dp2043
g10
F1.7
ssVcom.huawei.android.launcher
p2044
(dp2045
g10
F133.50000000000017
ssVcom.tencent.tokenlgnl
p2046
(dp2047
g10
F0.90000000000000002
ssVcom.tencent.mobileqq
p2048
(dp2049
g10
F4.0999999999999996
ssg99
(dp2050
g10
F0.69999999999999996
ssg1680
(dp2051
g10
F0.69999999999999996
ssg1682
(dp2052
g10
F1.3
ssg547
(dp2053
g10
F3
ssVcom.android.mms
p2054
(dp2055
g10
F23.499999999999993
ssVcom.baidu.tieba
p2056
(dp2057
g10
F8.3000000000000007
ssVcom.android.settings
p2058
(dp2059
g10
F4.3999999999999995
ssg566
(dp2060
g10
F2.7999999999999998
ssg516
(dp2061
g10
F0.40000000000000002
ssVcom.kingroot.kinguser
p2062
(dp2063
g10
F0.40000000000000002
sssg187
(dp2064
Vcom.kingroot.kinguser
p2065
(dp2066
g10
F0.69999999999999996
ssVcom.android.contacts
p2067
(dp2068
g10
I1
ssVcn.wps.moffice_tpt
p2069
(dp2070
g10
F1.8999999999999999
ssg1531
(dp2071
g10
F1.7
ssVcom.feistma.appmove
p2072
(dp2073
g10
F1.3
ssVcom.baidu.home2
p2074
(dp2075
g10
F7.4000000000000004
ssVcom.huawei.android.launcher
p2076
(dp2077
g10
F4.5999999999999996
ssg727
(dp2078
g10
F1.8
ssVcom.baidu.tieba
p2079
(dp2080
g10
F0.90000000000000002
ssg115
(dp2081
g10
I1
ssg1459
(dp2082
g10
F0.69999999999999996
sssg189
(dp2083
Vcom.huawei.android.launcher
p2084
(dp2085
g10
I1
sssg191
(dp2086
g804
(dp2087
g10
F0.69999999999999996
ssVcom.huawei.android.launcher
p2088
(dp2089
g10
F2.7000000000000002
ssVcom.android.contacts
p2090
(dp2091
g10
F5.0999999999999996
ssVcom.ifeng.news2
p2092
(dp2093
g10
F1.7000000000000002
ssVcom.android.phone
p2094
(dp2095
g10
I2
sssg193
(dp2096
Vcom.Astro.UI
p2097
(dp2098
g10
F0.90000000000000002
ssg1215
(dp2099
g10
F0.40000000000000002
ssVcom.huawei.android.launcher
p2100
(dp2101
g10
F2.7000000000000002
sssg195
(dp2102
g1876
(dp2103
g10
F0.69999999999999996
ssVorg.kde.necessitas.example.YXBaZi
p2104
(dp2105
g10
F9.3000000000000007
ssVcom.huawei.android.launcher
p2106
(dp2107
g10
F6.7000000000000011
ssg1878
(dp2108
g10
F1.1000000000000001
sssg197
(dp2109
Vcom.amigosoftware.life3_3_web_android
p2110
(dp2111
g10
F0.90000000000000002
ssVcom.android.packageinstaller
p2112
(dp2113
g10
F0.40000000000000002
ssVcom.huawei.android.launcher
p2114
(dp2115
g10
F1.7
sssg199
(dp2116
g1339
(dp2117
g10
F1.3
ssg1825
(dp2118
g10
F1.8
ssg211
(dp2119
g10
F1.3
ssVcom.android.deskclock
p2120
(dp2121
g10
F1.3
ssg1102
(dp2122
g10
F0.40000000000000002
ssVcom.feistma.appmove
p2123
(dp2124
g10
F0.90000000000000002
ssg41
(dp2125
g10
F1.7000000000000002
ssVme.onemobile.android
p2126
(dp2127
g10
F0.80000000000000004
ssg1359
(dp2128
g10
F0.90000000000000002
ssg323
(dp2129
g10
I5
ssg1011
(dp2130
g10
F27.799999999999994
ssg2023
(dp2131
g10
F5.4000000000000004
ssVcn.mixiaoxiao.myappscreenmask
p2132
(dp2133
g10
F0.69999999999999996
ssVcom.android.contacts
p2134
(dp2135
g10
F1.3
ssVcom.eg.android.AlipayGphone
p2136
(dp2137
g10
F3.1000000000000001
ssg1205
(dp2138
g10
I1
ssg201
(dp2139
g10
F5.4000000000000004
ssg912
(dp2140
g10
F3.0999999999999996
ssg543
(dp2141
g10
F3.6000000000000005
ssg1634
(dp2142
g10
F4.2999999999999998
ssg71
(dp2143
g10
F0.40000000000000002
ssg1170
(dp2144
g10
F1.3
ssg219
(dp2145
g10
F52.900000000000006
ssg147
(dp2146
g10
F13.1
ssVcom.kingroot.kinguser
p2147
(dp2148
g10
F1.7
ssVfw.fourword
p2149
(dp2150
g10
F0.40000000000000002
ssg307
(dp2151
g10
F2.8999999999999999
ssVcom.huawei.android.totemweather
p2152
(dp2153
g10
F1.7
ssVcom.android.mms
p2154
(dp2155
g10
F0.69999999999999996
ssVcom.baidu.BaiduMap
p2156
(dp2157
g10
F1.3
ssg89
(dp2158
g10
F1.8
ssVcom.android.settings
p2159
(dp2160
g10
F11.6
ssVcom.android.quicksearchbox
p2161
(dp2162
g10
F0.40000000000000002
ssg1404
(dp2163
g10
F0.90000000000000002
ssVcom.qihoo.cleandroid_cn
p2164
(dp2165
g10
F0.40000000000000002
sssg201
(dp2166
Vcn.dz52pojie.www
p2167
(dp2168
g10
F0.69999999999999996
ssVcom.huawei.android.totemweather
p2169
(dp2170
g10
F0.40000000000000002
ssg2120
(dp2171
g10
F0.69999999999999996
ssVcom.huawei.hidisk
p2172
(dp2173
g10
F4.7000000000000002
ssVcom.huawei.android.launcher
p2174
(dp2175
g10
F3.8999999999999999
ssg2134
(dp2176
g10
F0.69999999999999996
sssg203
(dp2177
g207
(dp2178
g10
F2.6000000000000001
ssg229
(dp2179
g10
F0.40000000000000002
ssg231
(dp2180
g10
F0.90000000000000002
ssVcom.android.packageinstaller
p2181
(dp2182
g10
F0.69999999999999996
ssVcom.android.phone
p2183
(dp2184
g10
I1
ssVcom.android.mms
p2185
(dp2186
g10
F0.90000000000000002
ssg790
(dp2187
g10
F0.40000000000000002
ssg1833
(dp2188
g10
F0.90000000000000002
ssg27
(dp2189
g10
F1.3999999999999999
ssVcom.qihoo.browser
p2190
(dp2191
g10
F1.3
ssVcom.huawei.android.launcher
p2192
(dp2193
g10
F27.29999999999999
ssVcom.eg.android.AlipayGphone
p2194
(dp2195
g10
F1.3
ssVcom.android.settings
p2196
(dp2197
g10
F7.6000000000000005
ssVcom.baidu.tieba
p2198
(dp2199
g10
F4
ssVcom.tencent.mm
p2200
(dp2201
g10
F0.69999999999999996
ssVcom.android.contacts
p2202
(dp2203
g10
F0.40000000000000002
ssVcom.ifeng.news2
p2204
(dp2205
g10
F4.2999999999999998
ssVcom.tencent.mobileqq
p2206
(dp2207
g10
F0.40000000000000002
sssg205
(dp2208
Vcom.android.quicksearchbox
p2209
(dp2210
g10
F1.3999999999999999
ssVcom.android.packageinstaller
p2211
(dp2212
g10
F1.7
ssVcom.huawei.android.launcher
p2213
(dp2214
g10
F2.6999999999999997
ssg870
(dp2215
g10
F0.90000000000000002
ssg173
(dp2216
g10
F0.69999999999999996
sssg207
(dp2217
g253
(dp2218
g10
F0.40000000000000002
ssg231
(dp2219
g10
F0.40000000000000002
ssg1507
(dp2220
g10
F0.69999999999999996
ssg522
(dp2221
g10
F1.7
ssg1514
(dp2222
g10
F0.90000000000000002
ssg1512
(dp2223
g10
F0.90000000000000002
ssg27
(dp2224
g10
F47.000000000000007
ssg2198
(dp2225
g10
F0.40000000000000002
ssg534
(dp2226
g10
F0.69999999999999996
ssg109
(dp2227
g10
F2.5999999999999996
ssg536
(dp2228
g10
F18.699999999999999
ssg538
(dp2229
g10
F3.5
sssg209
(dp2230
Vcom.huawei.android.launcher
p2231
(dp2232
g10
I2
sssg211
(dp2233
g1179
(dp2234
g10
F0.69999999999999996
ssVcom.huawei.android.launcher
p2235
(dp2236
g10
F4.4000000000000004
ssg71
(dp2237
g10
F1.3
ssVcom.nemodigm.android.prime_fortune
p2238
(dp2239
g10
F1.7000000000000002
sssg213
(dp2240
Vcom.android.packageinstaller
p2241
(dp2242
g10
F0.40000000000000002
ssVcom.huawei.android.launcher
p2243
(dp2244
g10
F1.7
ssVcom.tencent.android.qqdownloader
p2245
(dp2246
g10
F0.90000000000000002
sssg215
(dp2247
Vcom.qihoo.browser
p2248
(dp2249
g10
F2.7000000000000002
ssVcom.huawei.android.launcher
p2250
(dp2251
g10
F4.0999999999999996
ssVcom.android.packageinstaller
p2252
(dp2253
g10
F1.7000000000000002
sssg217
(dp2254
Vcom.android.packageinstaller
p2255
(dp2256
g10
F1.8
ssVcom.huawei.android.launcher
p2257
(dp2258
g10
F5.4000000000000004
ssVcom.qihoo.cleandroid_cn
p2259
(dp2260
g10
F0.40000000000000002
sssg219
(dp2261
g11
(dp2262
g10
I1
ssVcom.youku.phone
p2263
(dp2264
g10
I3
ssg15
(dp2265
g10
F2.2999999999999998
ssg17
(dp2266
g10
F2.0999999999999996
ssg19
(dp2267
g10
F1.7
ssg21
(dp2268
g10
F3.1000000000000001
ssg23
(dp2269
g10
F186.70000000000002
ssg25
(dp2270
g10
F96.600000000000037
ssg27
(dp2271
g10
F17.599999999999998
ssg31
(dp2272
g10
F115.20000000000014
ssg33
(dp2273
g10
F2.3999999999999999
ssg35
(dp2274
g10
F1.3
ssg37
(dp2275
g10
I2
ssg39
(dp2276
g10
F48.100000000000001
ssg41
(dp2277
g10
F193.09999999999999
ssg43
(dp2278
g10
F29.199999999999996
ssg45
(dp2279
g10
F4.7999999999999998
ssg47
(dp2280
g10
F1.3
ssg49
(dp2281
g10
F201.00000000000006
ssg51
(dp2282
g10
F1.3999999999999999
ssg53
(dp2283
g10
F28.699999999999996
ssg57
(dp2284
g10
F2.6000000000000001
ssg779
(dp2285
g10
F122.3000000000001
ssVcom.nemodigm.android.prime_fortune
p2286
(dp2287
g10
F9.2000000000000011
ssg441
(dp2288
g10
F114.30000000000014
ssg291
(dp2289
g10
F1.3
ssg69
(dp2290
g10
F9.5
ssg71
(dp2291
g10
F2.3999999999999999
ssg73
(dp2292
g10
F46.499999999999993
ssg75
(dp2293
g10
F4.7000000000000002
ssg77
(dp2294
g10
F0.90000000000000002
ssg79
(dp2295
g10
F1.3
ssg81
(dp2296
g10
F1.7
ssVcn.highing.hichat
p2297
(dp2298
g10
I1
ssg87
(dp2299
g10
F0.40000000000000002
ssg89
(dp2300
g10
F238.69999999999996
ssg91
(dp2301
g10
F74.200000000000017
ssg93
(dp2302
g10
F10.200000000000001
ssg95
(dp2303
g10
F4.7000000000000002
ssg97
(dp2304
g10
F12.9
ssg99
(dp2305
g10
I1
ssg103
(dp2306
g10
F3.5999999999999996
ssg105
(dp2307
g10
F3.5999999999999996
ssg107
(dp2308
g10
F7.8000000000000007
ssg109
(dp2309
g10
F2.1000000000000001
ssg111
(dp2310
g10
I1
ssg113
(dp2311
g10
F1.3
ssg293
(dp2312
g10
I1
ssg119
(dp2313
g10
F22.79999999999999
ssg121
(dp2314
g10
F16.099999999999998
ssg29
(dp2315
g10
F26.999999999999993
ssg592
(dp2316
g10
F19.499999999999996
ssVcom.android.phone
p2317
(dp2318
g10
F66.599999999999952
ssg129
(dp2319
g10
F2.7000000000000002
ssg131
(dp2320
g10
I1
ssg133
(dp2321
g10
F6.7999999999999998
ssVcom.huawei.android.dsdscardmanager
p2322
(dp2323
g10
F1.3
ssg143
(dp2324
g10
F4.7999999999999998
ssg161
(dp2325
g10
F0.40000000000000002
ssg1133
(dp2326
g10
F79.30000000000004
ssg145
(dp2327
g10
F1.7
ssVcom.nd.android.pandareader
p2328
(dp2329
g10
F41.79999999999999
ssg189
(dp2330
g10
I1
ssg153
(dp2331
g10
F3.3999999999999999
ssg155
(dp2332
g10
F5.2000000000000002
ssg157
(dp2333
g10
F11.500000000000002
ssg159
(dp2334
g10
F5.1000000000000005
ssg163
(dp2335
g10
F1.3
ssg165
(dp2336
g10
F5.7999999999999998
ssVcom.ct.client
p2337
(dp2338
g10
F0.90000000000000002
ssg169
(dp2339
g10
I1
ssg171
(dp2340
g10
F3.7000000000000002
ssg173
(dp2341
g10
F2.7000000000000002
ssg177
(dp2342
g10
F6.1000000000000005
ssg179
(dp2343
g10
F3.3999999999999999
ssg181
(dp2344
g10
F1.7
ssg183
(dp2345
g10
F17.699999999999996
ssVcom.android.contacts
p2346
(dp2347
g10
F204.5
ssVcom.youdao.dict
p2348
(dp2349
g10
F1.8999999999999999
ssg195
(dp2350
g10
F7.5
ssg197
(dp2351
g10
F1.7
ssg433
(dp2352
g10
F61.200000000000017
ssg201
(dp2353
g10
F2.6000000000000001
ssg203
(dp2354
g10
F14.5
ssg205
(dp2355
g10
F2.2000000000000002
ssg207
(dp2356
g10
F16.399999999999999
ssg209
(dp2357
g10
I1
ssg211
(dp2358
g10
F3.7000000000000002
ssg213
(dp2359
g10
F0.90000000000000002
ssVexample.yijing
p2360
(dp2361
g10
I1
ssg217
(dp2362
g10
F5.2999999999999998
ssg221
(dp2363
g10
F8.3000000000000007
ssg223
(dp2364
g10
F1.7
ssg225
(dp2365
g10
F0.40000000000000002
ssg227
(dp2366
g10
F90.600000000000037
ssg229
(dp2367
g10
F3.3999999999999999
ssg231
(dp2368
g10
F29.799999999999994
ssVcom.baidu.BaiduMap
p2369
(dp2370
g10
F32.79999999999999
ssg235
(dp2371
g10
F3.4000000000000004
ssg237
(dp2372
g10
F1.3
ssg239
(dp2373
g10
F3.3999999999999999
ssg241
(dp2374
g10
F1.7
ssg243
(dp2375
g10
F5.0999999999999996
ssg247
(dp2376
g10
F3.0999999999999996
ssg249
(dp2377
g10
F15.300000000000001
ssg63
(dp2378
g10
F3.5
ssg253
(dp2379
g10
F4.4000000000000004
ssg255
(dp2380
g10
F29.399999999999995
ssg990
(dp2381
g10
F1.3
ssg444
(dp2382
g10
I1
ssg265
(dp2383
g10
F2.7000000000000002
ssg267
(dp2384
g10
F7.8000000000000007
ssg269
(dp2385
g10
F0.90000000000000002
ssg271
(dp2386
g10
F32.299999999999983
ssg431
(dp2387
g10
F9.4000000000000004
ssg275
(dp2388
g10
F4.7000000000000002
ssg281
(dp2389
g10
F3.5
ssVcom.amigosoftware.life3_3_web_android
p2390
(dp2391
g10
F4
ssg1305
(dp2392
g10
F1.3999999999999999
ssg287
(dp2393
g10
F0.90000000000000002
ssg289
(dp2394
g10
F130.70000000000013
ssg295
(dp2395
g10
F2.2999999999999998
ssg297
(dp2396
g10
F0.90000000000000002
ssg562
(dp2397
g10
F6.5
ssg301
(dp2398
g10
F3.1000000000000001
ssg303
(dp2399
g10
F0.69999999999999996
ssg305
(dp2400
g10
F6.8000000000000007
ssg307
(dp2401
g10
F7
ssg462
(dp2402
g10
F5.4000000000000004
ssVcom.hotbody.fitzero
p2403
(dp2404
g10
I1
ssVcom.android.mms
p2405
(dp2406
g10
F140.80000000000015
ssg317
(dp2407
g10
F1.7
ssg321
(dp2408
g10
F1.7
ssg323
(dp2409
g10
F5.7000000000000011
ssg325
(dp2410
g10
F23.699999999999992
ssg315
(dp2411
g10
I4
sssg221
(dp2412
g1328
(dp2413
g10
F2.3999999999999999
ssg344
(dp2414
g10
I2
ssg927
(dp2415
g10
F1.3
ssVcom.baidu.tieba
p2416
(dp2417
g10
F1.3
ssVcom.yidalianke.app
p2418
(dp2419
g10
F0.40000000000000002
ssVcom.tencent.android.qqdownloader
p2420
(dp2421
g10
F2.6999999999999997
ssVcom.huawei.android.launcher
p2422
(dp2423
g10
F11.899999999999999
ssVcom.ylmf.androidclient
p2424
(dp2425
g10
F0.69999999999999996
ssVcom.ifeng.news2
p2426
(dp2427
g10
F0.90000000000000002
sssg223
(dp2428
Vcom.android.packageinstaller
p2429
(dp2430
g10
F1.3
ssVcom.huawei.android.launcher
p2431
(dp2432
g10
F1.7
sssg225
(dp2433
Vcom.android.packageinstaller
p2434
(dp2435
g10
F1.3
ssVcom.huawei.android.launcher
p2436
(dp2437
g10
F2.3999999999999999
ssVcom.qihoo.cleandroid_cn
p2438
(dp2439
g10
F0.40000000000000002
ssVcom.tencent.android.qqdownloader
p2440
(dp2441
g10
F2.7000000000000002
sssg227
(dp2442
g1267
(dp2443
g10
F0.90000000000000002
ssg247
(dp2444
g10
F0.90000000000000002
ssVcom.android.mms
p2445
(dp2446
g10
F2.2000000000000002
ssVcom.qihoo.cleandroid_cn
p2447
(dp2448
g10
F4.8999999999999995
ssVcom.baidu.backuprestore
p2449
(dp2450
g10
I1
ssVcom.android.deskclock
p2451
(dp2452
g10
F1.7000000000000002
ssVcom.tencent.android.qqdownloader
p2453
(dp2454
g10
F22.599999999999998
ssVcom.feistma.appmove
p2455
(dp2456
g10
F7
ssVcom.ifeng.news2
p2457
(dp2458
g10
I1
ssVcom.tencent.qt.sns
p2459
(dp2460
g10
F0.69999999999999996
ssVcom.android.packageinstaller
p2461
(dp2462
g10
F7.6000000000000014
ssg603
(dp2463
g10
F0.40000000000000002
ssg405
(dp2464
g10
F0.90000000000000002
ssg985
(dp2465
g10
F0.40000000000000002
ssg609
(dp2466
g10
F0.69999999999999996
ssVcom.eg.android.AlipayGphone
p2467
(dp2468
g10
I1
ssg1769
(dp2469
g10
F0.90000000000000002
ssVsogou.mobile.explorer
p2470
(dp2471
g10
F1.3
ssVcom.tencent.mobileqq
p2472
(dp2473
g10
F3.1999999999999993
ssVcom.android.contacts
p2474
(dp2475
g10
F0.40000000000000002
ssVme.onemobile.android
p2476
(dp2477
g10
F3.7000000000000002
ssVcom.android.phone
p2478
(dp2479
g10
I1
ssVcom.baidu.netdisk
p2480
(dp2481
g10
F1.3
ssVcom.Astro.UI
p2482
(dp2483
g10
F0.90000000000000002
ssg167
(dp2484
g10
F0.90000000000000002
ssVcom.qihoo.browser
p2485
(dp2486
g10
F2.7000000000000002
ssg723
(dp2487
g10
F0.69999999999999996
ssVcom.huawei.android.launcher
p2488
(dp2489
g10
F47.199999999999989
ssVcom.tencent.qqlive
p2490
(dp2491
g10
I1
ssVcom.nd.android.pandareader
p2492
(dp2493
g10
F6.1000000000000005
ssVcom.baidu.home2
p2494
(dp2495
g10
I1
ssg303
(dp2496
g10
F0.90000000000000002
ssg627
(dp2497
g10
F6.3000000000000007
ssg309
(dp2498
g10
F0.90000000000000002
ssVcom.huawei.android.totemweather
p2499
(dp2500
g10
F1.1000000000000001
ssg311
(dp2501
g10
F1.3
ssg87
(dp2502
g10
F0.90000000000000002
ssg113
(dp2503
g10
I1
ssVcom.baidu.tieba
p2504
(dp2505
g10
F3.2999999999999998
ssg165
(dp2506
g10
F1.3
ssg1528
(dp2507
g10
F2
ssVcom.android.quicksearchbox
p2508
(dp2509
g10
F1.6000000000000001
sssg229
(dp2510
Vcom.huawei.android.launcher
p2511
(dp2512
g10
F3.4000000000000004
ssVcom.baidu.backuprestore
p2513
(dp2514
g10
F1.3
ssg2009
(dp2515
g10
F0.40000000000000002
sssg231
(dp2516
Vmark.via
p2517
(dp2518
g10
F1.3
ssVcom.tencent.android.qqdownloader
p2519
(dp2520
g10
F0.40000000000000002
ssg2062
(dp2521
g10
F0.90000000000000002
ssVcom.tencent.mm
p2522
(dp2523
g10
F0.90000000000000002
ssVcom.android.gallery3d
p2524
(dp2525
g10
F0.90000000000000002
ssVcom.qihoo.cleandroid_cn
p2526
(dp2527
g10
F3.1000000000000001
ssg1564
(dp2528
g10
F1.7000000000000002
ssVcom.huawei.hidisk
p2529
(dp2530
g10
F0.90000000000000002
ssVcom.qihoo.browser
p2531
(dp2532
g10
F0.40000000000000002
ssVcom.baidu.tieba
p2533
(dp2534
g10
F3.6000000000000001
ssg562
(dp2535
g10
I1
ssVcom.android.settings
p2536
(dp2537
g10
I1
ssVcom.android.quicksearchbox
p2538
(dp2539
g10
F1.3
ssVcom.huawei.android.launcher
p2540
(dp2541
g10
F26.599999999999994
ssg1307
(dp2542
g10
F0.40000000000000002
ssVcom.android.mms
p2543
(dp2544
g10
F1.1000000000000001
ssVcom.ifeng.news2
p2545
(dp2546
g10
F2.2999999999999998
sssg233
(dp2547
g119
(dp2548
g10
F5.5
ssg197
(dp2549
g10
F1.3
ssg1543
(dp2550
g10
F1.8
ssg1528
(dp2551
g10
F1.3999999999999999
ssg1549
(dp2552
g10
F4.2999999999999998
ssVcom.tencent.mm
p2553
(dp2554
g10
F3.5
ssg1398
(dp2555
g10
F1.7
ssg2132
(dp2556
g10
I2
ssg113
(dp2557
g10
F0.69999999999999996
ssVcom.huawei.hidisk
p2558
(dp2559
g10
F0.40000000000000002
ssVcom.huawei.android.launcher
p2560
(dp2561
g10
F37.699999999999996
ssVcom.eg.android.AlipayGphone
p2562
(dp2563
g10
F0.40000000000000002
ssVcom.tencent.android.qqdownloader
p2564
(dp2565
g10
F0.69999999999999996
ssg2110
(dp2566
g10
F0.40000000000000002
ssVcom.dendroidZ.lunarCalendarLite
p2567
(dp2568
g10
F0.90000000000000002
ssVcom.qihoo.cleandroid_cn
p2569
(dp2570
g10
F4.0999999999999996
ssVcom.ifeng.news2
p2571
(dp2572
g10
F0.80000000000000004
ssVcom.tencent.mobileqq
p2573
(dp2574
g10
F0.90000000000000002
sssg235
(dp2575
Vcom.huawei.hidisk
p2576
(dp2577
g10
F0.40000000000000002
ssVcom.android.packageinstaller
p2578
(dp2579
g10
F3.1999999999999997
ssVcom.huawei.android.launcher
p2580
(dp2581
g10
F4.0999999999999996
ssVcom.baidu.BaiduMap
p2582
(dp2583
g10
F0.40000000000000002
sssg237
(dp2584
Vcom.android.packageinstaller
p2585
(dp2586
g10
F0.69999999999999996
ssVcom.huawei.android.launcher
p2587
(dp2588
g10
F0.90000000000000002
ssg592
(dp2589
g10
F0.40000000000000002
ssVcom.tencent.android.qqdownloader
p2590
(dp2591
g10
I1
sssg239
(dp2592
Vme.onemobile.android
p2593
(dp2594
g10
F0.40000000000000002
ssVcom.android.packageinstaller
p2595
(dp2596
g10
F1.3
ssVcom.huawei.android.launcher
p2597
(dp2598
g10
F3.4000000000000004
sssg241
(dp2599
g960
(dp2600
g10
F0.40000000000000002
ssVcom.android.packageinstaller
p2601
(dp2602
g10
I1
ssg51
(dp2603
g10
F0.69999999999999996
ssVcom.huawei.android.launcher
p2604
(dp2605
g10
F0.90000000000000002
sssg243
(dp2606
Vcom.android.settings
p2607
(dp2608
g10
F0.40000000000000002
ssg2578
(dp2609
g10
F1.3
ssg235
(dp2610
g10
F0.90000000000000002
ssg493
(dp2611
g10
F0.90000000000000002
ssVcom.huawei.android.launcher
p2612
(dp2613
g10
F4.4000000000000004
ssVcom.android.bluetooth
p2614
(dp2615
g10
F0.69999999999999996
ssg265
(dp2616
g10
F0.40000000000000002
sssg245
(dp2617
Vcom.baidu.home2
p2618
(dp2619
g10
F1.7
ssVcn.wps.moffice_tpt
p2620
(dp2621
g10
F0.90000000000000002
sssg247
(dp2622
Vcom.huawei.android.launcher
p2623
(dp2624
g10
F1.8999999999999999
ssVcom.tencent.android.qqdownloader
p2625
(dp2626
g10
I1
sssg249
(dp2627
Vcom.baidu.BaiduMap
p2628
(dp2629
g10
F0.40000000000000002
ssVmark.via
p2630
(dp2631
g10
F2.6000000000000001
ssVcom.kingroot.kinguser
p2632
(dp2633
g10
F2.8999999999999999
ssVcom.android.settings
p2634
(dp2635
g10
F0.40000000000000002
ssVcom.android.packageinstaller
p2636
(dp2637
g10
F1.3999999999999999
ssVcom.android.phone
p2638
(dp2639
g10
I1
ssg103
(dp2640
g10
F0.90000000000000002
ssg1309
(dp2641
g10
F0.90000000000000002
ssVcom.android.deskclock
p2642
(dp2643
g10
I3
ssVcom.huawei.hidisk
p2644
(dp2645
g10
F1.3
ssVcom.huawei.android.launcher
p2646
(dp2647
g10
F14.499999999999998
ssg2418
(dp2648
g10
F0.90000000000000002
ssg686
(dp2649
g10
I1
ssVcom.baidu.tieba
p2650
(dp2651
g10
F1.8
ssg643
(dp2652
g10
F8.8000000000000007
ssVcom.qihoo.cleandroid_cn
p2653
(dp2654
g10
F0.90000000000000002
ssVcom.android.contacts
p2655
(dp2656
g10
F0.69999999999999996
ssVcom.ifeng.news2
p2657
(dp2658
g10
I2
sssg251
(dp2659
Vcom.android.packageinstaller
p2660
(dp2661
g10
F0.40000000000000002
ssg1247
(dp2662
g10
F1.7
ssVcom.tencent.android.qqdownloader
p2663
(dp2664
g10
F0.90000000000000002
sssg253
(dp2665
Vcom.huawei.android.launcher
p2666
(dp2667
g10
F6.1000000000000005
ssVcom.feistma.appmove
p2668
(dp2669
g10
F1.7000000000000002
sssg255
(dp2670
Vcom.kingroot.kinguser
p2671
(dp2672
g10
I1
ssg1007
(dp2673
g10
F0.90000000000000002
ssVcom.tencent.mobileqq
p2674
(dp2675
g10
F5.6000000000000005
ssVcom.android.gallery3d
p2676
(dp2677
g10
F1.7
ssVcom.qihoo.cleandroid_cn
p2678
(dp2679
g10
F0.90000000000000002
ssVcom.android.contacts
p2680
(dp2681
g10
F3.3999999999999995
ssVcom.baidu.tieba
p2682
(dp2683
g10
F1.8
ssg163
(dp2684
g10
F0.69999999999999996
ssVcom.tencent.android.qqdownloader
p2685
(dp2686
g10
F0.40000000000000002
ssVcom.android.phone
p2687
(dp2688
g10
I1
ssVcom.huawei.android.launcher
p2689
(dp2690
g10
F33.399999999999984
ssVcom.nd.android.pandareader
p2691
(dp2692
g10
F0.69999999999999996
ssVcom.tencent.mm
p2693
(dp2694
g10
F18.799999999999997
ssVcom.android.mms
p2695
(dp2696
g10
F1.3
ssVcom.ifeng.news2
p2697
(dp2698
g10
F0.40000000000000002
ssVcom.anzhi.hwsettings
p2699
(dp2700
g10
F1.7000000000000002
sssg257
(dp2701
Vcom.android.packageinstaller
p2702
(dp2703
g10
F0.90000000000000002
ssVcom.huawei.android.launcher
p2704
(dp2705
g10
F1.7
sssg259
(dp2706
Vcom.huawei.android.launcher
p2707
(dp2708
g10
F0.40000000000000002
ssVcom.android.settings
p2709
(dp2710
g10
F4.4000000000000004
ssVcom.baidu.tieba
p2711
(dp2712
g10
F1.5
ssVcom.tencent.mobileqq
p2713
(dp2714
g10
F1.7
sssg261
(dp2715
Vcom.huawei.android.launcher
p2716
(dp2717
g10
F1.3999999999999999
ssVcn.mixiaoxiao.myappscreenmask
p2718
(dp2719
g10
F0.69999999999999996
ssVcom.tencent.android.qqdownloader
p2720
(dp2721
g10
F0.90000000000000002
sssg263
(dp2722
g277
(dp2723
g10
F1.3
ssVcom.huawei.android.launcher
p2724
(dp2725
g10
F1.3999999999999999
ssVcom.android.packageinstaller
p2726
(dp2727
g10
F0.90000000000000002
ssVcom.tencent.android.qqdownloader
p2728
(dp2729
g10
F3.4000000000000004
ssVcom.qihoo.cleandroid_cn
p2730
(dp2731
g10
F0.69999999999999996
sssg265
(dp2732
Vcom.qihoo.browser
p2733
(dp2734
g10
F0.90000000000000002
ssVcom.huawei.android.launcher
p2735
(dp2736
g10
F4.4000000000000004
ssVcom.android.packageinstaller
p2737
(dp2738
g10
F1.3
ssVcom.divination.name1518
p2739
(dp2740
g10
F0.40000000000000002
sssg267
(dp2741
g153
(dp2742
g10
F1.8
ssg301
(dp2743
g10
F0.40000000000000002
ssVcom.huawei.android.launcher
p2744
(dp2745
g10
F8.5
ssVoms.mmc.independent_gm.ebook.book121
p2746
(dp2747
g10
F1.7000000000000002
ssg1859
(dp2748
g10
F0.40000000000000002
sssg269
(dp2749
Vcom.android.packageinstaller
p2750
(dp2751
g10
F0.90000000000000002
ssVcom.huawei.android.launcher
p2752
(dp2753
g10
F1.3999999999999999
ssg580
(dp2754
g10
F0.69999999999999996
sssg271
(dp2755
Vcn.wps.moffice_tpt
p2756
(dp2757
g10
F2.7000000000000002
ssVcom.qihoo.cleandroid_cn
p2758
(dp2759
g10
F1.3
ssVcom.android.deskclock
p2760
(dp2761
g10
F0.90000000000000002
ssVcom.tencent.android.qqdownloader
p2762
(dp2763
g10
F1.3
ssVcom.feistma.appmove
p2764
(dp2765
g10
F3.1999999999999997
ssVcom.eg.android.AlipayGphone
p2766
(dp2767
g10
F2.7000000000000002
ssg1349
(dp2768
g10
F0.90000000000000002
ssg2211
(dp2769
g10
F1.7000000000000002
ssVcom.android.gallery3d
p2770
(dp2771
g10
F0.80000000000000004
ssg1116
(dp2772
g10
F0.90000000000000002
ssVcom.ifeng.news2
p2773
(dp2774
g10
F3.4000000000000004
ssVcom.tencent.mm
p2775
(dp2776
g10
F1.7000000000000002
ssg1777
(dp2777
g10
F0.40000000000000002
ssVcom.xduole.Client
p2778
(dp2779
g10
F1.7
ssVcom.kingroot.kinguser
p2780
(dp2781
g10
F0.40000000000000002
ssVcom.qihoo.browser
p2782
(dp2783
g10
F5.7000000000000002
ssVcom.huawei.android.launcher
p2784
(dp2785
g10
F37.799999999999997
ssg798
(dp2786
g10
F0.40000000000000002
ssVmark.via
p2787
(dp2788
g10
F2.6999999999999997
ssVcom.sinovatech.unicom.ui
p2789
(dp2790
g10
I1
ssVcom.tencent.mobileqq
p2791
(dp2792
g10
F1.3
ssVcom.android.mms
p2793
(dp2794
g10
F0.90000000000000002
ssVcom.baidu.BaiduMap
p2795
(dp2796
g10
F3
ssVcom.baidu.tieba
p2797
(dp2798
g10
F9.5999999999999996
ssVcom.huawei.android.totemweather
p2799
(dp2800
g10
F0.90000000000000002
ssg2209
(dp2801
g10
F0.90000000000000002
sssg273
(dp2802
Vmark.via
p2803
(dp2804
g10
F3.8999999999999999
ssg1428
(dp2805
g10
F0.90000000000000002
ssg1150
(dp2806
g10
F0.69999999999999996
ssg1292
(dp2807
g10
F0.90000000000000002
ssg1113
(dp2808
g10
F0.69999999999999996
ssg1020
(dp2809
g10
F0.69999999999999996
ssVcom.huawei.android.launcher
p2810
(dp2811
g10
F17.099999999999998
ssVcom.tencent.android.qqdownloader
p2812
(dp2813
g10
I1
ssVcom.android.phone
p2814
(dp2815
g10
I1
ssVcom.baidu.tieba
p2816
(dp2817
g10
F0.90000000000000002
ssg85
(dp2818
g10
F1.3
ssVcom.tencent.mobileqq
p2819
(dp2820
g10
F1.3
ssg1598
(dp2821
g10
F2
sssg275
(dp2822
g603
(dp2823
g10
F2.7000000000000002
ssg29
(dp2824
g10
F0.69999999999999996
ssVcom.huawei.android.launcher
p2825
(dp2826
g10
F3.4000000000000004
ssg1588
(dp2827
g10
F1.3
ssg325
(dp2828
g10
F0.90000000000000002
ssVcom.tencent.mobileqq
p2829
(dp2830
g10
F4.8000000000000007
ssg570
(dp2831
g10
F0.40000000000000002
sssg277
(dp2832
Vcom.tencent.android.qqdownloader
p2833
(dp2834
g10
I1
sssg279
(dp2835
g541
(dp2836
g10
F1.7
ssVcom.kingroot.kinguser
p2837
(dp2838
g10
F2.2999999999999998
ssg1267
(dp2839
g10
F2.7000000000000002
ssg336
(dp2840
g10
F1.8999999999999999
ssg8
(dp2841
g10
F1.7
ssg727
(dp2842
g10
F2.7000000000000002
ssVcom.youdao.dict
p2843
(dp2844
g10
F3.7000000000000002
ssg1708
(dp2845
g10
F1.7
ssVcom.tencent.token
p2846
(dp2847
g10
I2
ssVcom.tencent.tokenlgnl
p2848
(dp2849
g10
F3.6000000000000001
ssVcom.baidu.tieba
p2850
(dp2851
g10
I2
ssg338
(dp2852
g10
I1
ssg1025
(dp2853
g10
F1.8
ssg151
(dp2854
g10
F0.90000000000000002
ssVcom.tencent.mobileqq
p2855
(dp2856
g10
F2.7000000000000002
ssVcom.android.contacts
p2857
(dp2858
g10
F5.7000000000000002
ssg2072
(dp2859
g10
F3.3999999999999999
ssVcom.tencent.tokenqqfa
p2860
(dp2861
g10
F2.7000000000000002
sssg281
(dp2862
Vcom.android.packageinstaller
p2863
(dp2864
g10
F3.5
ssVcom.huawei.android.launcher
p2865
(dp2866
g10
F1.5
sssg283
(dp2867
Vcom.qihoo.browser
p2868
(dp2869
g10
F1.3
ssVcom.huawei.android.launcher
p2870
(dp2871
g10
F6.5
ssg2112
(dp2872
g10
F1.3
ssg45
(dp2873
g10
F1.3
sssg285
(dp2874
Vcom.kingroot.kinguser
p2875
(dp2876
g10
F0.40000000000000002
ssVcom.baidu.netdisk
p2877
(dp2878
g10
F0.90000000000000002
ssVcom.huawei.android.launcher
p2879
(dp2880
g10
F5.7000000000000002
ssVcom.nd.android.pandareader
p2881
(dp2882
g10
F0.69999999999999996
ssVcom.tencent.mobileqq
p2883
(dp2884
g10
F0.90000000000000002
ssVcom.ifeng.news2
p2885
(dp2886
g10
F0.90000000000000002
sssg287
(dp2887
Vcom.android.packageinstaller
p2888
(dp2889
g10
F0.90000000000000002
ssVcom.huawei.android.launcher
p2890
(dp2891
g10
F1.7
ssVcom.qihoo.cleandroid_cn
p2892
(dp2893
g10
F0.40000000000000002
sssg289
(dp2894
Vcn.wps.moffice_tpt
p2895
(dp2896
g10
F4.2999999999999998
ssg740
(dp2897
g10
F1.8999999999999999
ssVcom.baidu.netdisk
p2898
(dp2899
g10
F1.8
ssVcn.mixiaoxiao.myappscreenmask
p2900
(dp2901
g10
F1.3999999999999999
ssg872
(dp2902
g10
F2.2000000000000002
ssg999
(dp2903
g10
F20.399999999999995
ssVcom.cl.newt66y
p2904
(dp2905
g10
F1.7
ssVcom.tencent.android.qqdownloader
p2906
(dp2907
g10
F4.9000000000000004
ssVcom.android.contacts
p2908
(dp2909
g10
F17.200000000000003
ssg1366
(dp2910
g10
F8.8000000000000007
ssVcom.tencent.qt.sns
p2911
(dp2912
g10
F2.9000000000000004
ssg47
(dp2913
g10
F0.69999999999999996
ssg1937
(dp2914
g10
F0.40000000000000002
ssVcom.android.gallery3d
p2915
(dp2916
g10
F0.69999999999999996
ssVcom.huawei.flashlight
p2917
(dp2918
g10
F0.90000000000000002
ssVyiqi.bazi
p2919
(dp2920
g10
F0.40000000000000002
ssg2644
(dp2921
g10
F6.0000000000000009
ssVcom.ifeng.news2
p2922
(dp2923
g10
F37.59999999999998
ssVcom.baidu.home2
p2924
(dp2925
g10
F2.7000000000000002
ssg57
(dp2926
g10
F0.69999999999999996
ssg779
(dp2927
g10
F13.100000000000001
ssg93
(dp2928
g10
F1.8
ssg814
(dp2929
g10
F0.40000000000000002
ssVcom.android.phone
p2930
(dp2931
g10
F3.4000000000000004
ssVcom.baidu.backuprestore
p2932
(dp2933
g10
F1.8999999999999999
ssVcom.qihoo.cleandroid_cn
p2934
(dp2935
g10
F2.7999999999999998
ssg1040
(dp2936
g10
F0.40000000000000002
ssVcom.qihoo.browser
p2937
(dp2938
g10
F5.3000000000000007
ssVcom.huawei.android.launcher
p2939
(dp2940
g10
F158.50000000000006
ssVcom.nd.android.pandareader
p2941
(dp2942
g10
F6.5
ssg227
(dp2943
g10
F1.3
ssVcom.sinovatech.unicom.ui
p2944
(dp2945
g10
F2.2999999999999998
ssVcom.android.settings
p2946
(dp2947
g10
F4.7000000000000002
ssVcom.android.mms
p2948
(dp2949
g10
F18.800000000000001
ssg1617
(dp2950
g10
F1.7000000000000002
ssVcom.baidu.tieba
p2951
(dp2952
g10
F14.600000000000003
ssg811
(dp2953
g10
F1.3
sssg291
(dp2954
Vcom.android.packageinstaller
p2955
(dp2956
g10
F0.40000000000000002
ssVcom.huawei.android.launcher
p2957
(dp2958
g10
F1.7
ssVcom.tencent.android.qqdownloader
p2959
(dp2960
g10
F0.90000000000000002
sssg293
(dp2961
Vcom.baidu.home2
p2962
(dp2963
g10
I1
ssVcom.kingroot.kinguser
p2964
(dp2965
g10
I2
sssg295
(dp2966
Vcom.android.packageinstaller
p2967
(dp2968
g10
F0.69999999999999996
ssVcom.huawei.android.launcher
p2969
(dp2970
g10
F2.2999999999999998
ssVcom.qihoo.cleandroid_cn
p2971
(dp2972
g10
F0.40000000000000002
ssVcom.tencent.android.qqdownloader
p2973
(dp2974
g10
F1.7
sssg297
(dp2975
Vcom.huawei.android.launcher
p2976
(dp2977
g10
I1
sssg299
(dp2978
Vcom.baidu.home2
p2979
(dp2980
g10
I2
ssg389
(dp2981
g10
F2.3999999999999999
ssVcom.picalab.comics
p2982
(dp2983
g10
F0.90000000000000002
ssVcom.qihoo.cleandroid_cn
p2984
(dp2985
g10
F0.69999999999999996
ssVcom.android.deskclock
p2986
(dp2987
g10
I2
ssVcom.huawei.android.launcher
p2988
(dp2989
g10
F10.700000000000001
ssVcom.baidu.tieba
p2990
(dp2991
g10
F0.69999999999999996
ssVcom.tencent.mobileqq
p2992
(dp2993
g10
F0.90000000000000002
ssg888
(dp2994
g10
F0.69999999999999996
sssg301
(dp2995
Vcom.android.packageinstaller
p2996
(dp2997
g10
F1.3999999999999999
ssVcom.huawei.android.launcher
p2998
(dp2999
g10
F2.2000000000000002
ssg1864
(dp3000
g10
I1
ssg143
(dp3001
g10
F0.69999999999999996
sssg303
(dp3002
sg305
(dp3003
g2058
(dp3004
g10
F0.69999999999999996
ssg1905
(dp3005
g10
F1.7
ssg1899
(dp3006
g10
F0.69999999999999996
ssVcom.huawei.android.launcher
p3007
(dp3008
g10
F5.2999999999999998
ssg1382
(dp3009
g10
F0.40000000000000002
ssVcom.android.quicksearchbox
p3010
(dp3011
g10
F1.7
ssg163
(dp3012
g10
I1
ssVcom.android.contacts
p3013
(dp3014
g10
F0.90000000000000002
ssVcom.android.calculator2
p3015
(dp3016
g10
F0.90000000000000002
sssg307
(dp3017
Vcom.qihoo.browser
p3018
(dp3019
g10
F4.4000000000000004
ssg2126
(dp3020
g10
F0.90000000000000002
ssg1554
(dp3021
g10
F0.40000000000000002
ssVcom.huawei.android.launcher
p3022
(dp3023
g10
F5.7000000000000011
ssg2164
(dp3024
g10
F0.90000000000000002
sssg309
(dp3025
g1925
(dp3026
g10
F0.90000000000000002
ssVcom.android.mms
p3027
(dp3028
g10
I1
ssVcom.baidu.BaiduMap
p3029
(dp3030
g10
F0.69999999999999996
ssVcn.mixiaoxiao.myappscreenmask
p3031
(dp3032
g10
F2.3999999999999999
ssg2337
(dp3033
g10
I1
ssVcom.qihoo.browser
p3034
(dp3035
g10
F1.3
ssVcom.huawei.android.launcher
p3036
(dp3037
g10
F7.1000000000000005
ssVcom.tencent.android.qqdownloader
p3038
(dp3039
g10
F1.8999999999999999
ssVcom.android.phone
p3040
(dp3041
g10
F0.90000000000000002
ssVcom.android.quicksearchbox
p3042
(dp3043
g10
F0.40000000000000002
ssVcom.qihoo.cleandroid_cn
p3044
(dp3045
g10
F0.69999999999999996
ssVcom.tencent.mm
p3046
(dp3047
g10
F2.6000000000000001
ssVcom.android.contacts
p3048
(dp3049
g10
I1
ssg1927
(dp3050
g10
F0.40000000000000002
sssg311
(dp3051
Vcom.android.packageinstaller
p3052
(dp3053
g10
F0.69999999999999996
ssVcom.huawei.android.launcher
p3054
(dp3055
g10
F2.6999999999999997
ssVcom.tencent.android.qqdownloader
p3056
(dp3057
g10
F1.7
sssg313
(dp3058
g620
(dp3059
g10
F0.40000000000000002
ssVmark.via
p3060
(dp3061
g10
F7.9000000000000004
ssVcom.qihoo.cleandroid_cn
p3062
(dp3063
g10
F6.9000000000000012
ssVcom.huawei.flashlight
p3064
(dp3065
g10
F0.90000000000000002
ssg1277
(dp3066
g10
F3.7000000000000002
ssVcom.tencent.android.qqdownloader
p3067
(dp3068
g10
F3.2999999999999998
ssg1286
(dp3069
g10
F41.499999999999979
ssg2136
(dp3070
g10
F3
ssg1462
(dp3071
g10
F3.5
ssg1619
(dp3072
g10
F2.1000000000000001
ssVcom.tencent.token
p3073
(dp3074
g10
I2
ssVcom.huawei.hidisk
p3075
(dp3076
g10
F1.7
ssVcom.ifeng.news2
p3077
(dp3078
g10
F7.8000000000000007
ssVcom.android.phone
p3079
(dp3080
g10
F20.499999999999993
ssg2034
(dp3081
g10
F13.600000000000003
ssg1124
(dp3082
g10
F0.69999999999999996
ssVcom.android.calculator2
p3083
(dp3084
g10
F0.40000000000000002
ssVcom.kingroot.kinguser
p3085
(dp3086
g10
F2.5999999999999996
ssg2040
(dp3087
g10
F0.69999999999999996
ssVcom.qihoo.browser
p3088
(dp3089
g10
F2.2000000000000002
ssVcom.huawei.android.launcher
p3090
(dp3091
g10
F123.80000000000011
ssVcom.nd.android.pandareader
p3092
(dp3093
g10
F0.40000000000000002
ssg1141
(dp3094
g10
F3.3999999999999999
ssg99
(dp3095
g10
F1.3
ssVcom.sinovatech.unicom.ui
p3096
(dp3097
g10
F1.7
ssg955
(dp3098
g10
F6.4000000000000012
ssg742
(dp3099
g10
F0.40000000000000002
ssg1797
(dp3100
g10
F4.2999999999999998
ssVcom.baidu.tieba
p3101
(dp3102
g10
F9.0000000000000018
ssVcom.android.quicksearchbox
p3103
(dp3104
g10
F0.90000000000000002
sssg315
(dp3105
sg317
(dp3106
Vcom.android.settings
p3107
(dp3108
g10
F0.69999999999999996
ssVcom.android.packageinstaller
p3109
(dp3110
g10
F0.90000000000000002
ssVcom.huawei.android.launcher
p3111
(dp3112
g10
F1.3999999999999999
sssg319
(dp3113
Vcom.android.packageinstaller
p3114
(dp3115
g10
F1.3
ssVcom.huawei.android.launcher
p3116
(dp3117
g10
I1
ssVcom.qihoo.cleandroid_cn
p3118
(dp3119
g10
F0.69999999999999996
sssg321
(dp3120
Vcom.android.settings
p3121
(dp3122
g10
F0.90000000000000002
ssVcom.huawei.android.launcher
p3123
(dp3124
g10
F0.40000000000000002
ssVcom.baidu.backuprestore
p3125
(dp3126
g10
F1.7
sssg323
(dp3127
g1359
(dp3128
g10
F0.40000000000000002
ssg2159
(dp3129
g10
F5.5999999999999996
ssVcom.android.packageinstaller
p3130
(dp3131
g10
F1.3
ssVcom.huawei.hidisk
p3132
(dp3133
g10
F5
ssVcom.huawei.android.launcher
p3134
(dp3135
g10
F3.0999999999999996
ssg1404
(dp3136
g10
F0.40000000000000002
sssg325
(dp3137
Vcom.xduole.Client
p3138
(dp3139
g10
I1
ssg305
(dp3140
g10
F1.7
ssg547
(dp3141
g10
F1.8
ssg2211
(dp3142
g10
F0.90000000000000002
ssg1552
(dp3143
g10
I1
ssg29
(dp3144
g10
I1
ssg173
(dp3145
g10
F0.40000000000000002
ssVcom.qihoo.browser
p3146
(dp3147
g10
F0.40000000000000002
ssg560
(dp3148
g10
F16.899999999999999
ssg562
(dp3149
g10
F0.69999999999999996
ssVcom.android.phone
p3150
(dp3151
g10
F0.69999999999999996
ssVcom.baidu.tieba
p3152
(dp3153
g10
F1.3
ssVcom.tencent.mm
p3154
(dp3155
g10
F0.90000000000000002
ssg570
(dp3156
g10
F5.2000000000000002
ssVcom.ifeng.news2
p3157
(dp3158
g10
F0.69999999999999996
ssVcom.tencent.mobileqq
p3159
(dp3160
g10
F0.90000000000000002
sssg327
(dp3161
Vcom.android.packageinstaller
p3162
(dp3163
g10
F0.90000000000000002
ssVcom.huawei.android.launcher
p3164
(dp3165
g10
F1.7
ssVcom.qihoo.cleandroid_cn
p3166
(dp3167
g10
F0.40000000000000002
ssssS'edge'
p3168
g332
sS'pred'
p3169
(dp3170
g8
(dp3171
Vcom.baidu.home2
p3172
g2841
sg336
g1433
ssg11
(dp3173
Vcom.huawei.android.launcher
p3174
g2262
sVcom.qihoo.cleandroid_cn
p3175
g397
ssg13
(dp3176
g348
g478
sVcom.tencent.qt.sns
p3177
g817
sVcom.huawei.android.launcher
p3178
g2264
sg125
g1612
ssg15
(dp3179
Vcom.tencent.mm
p3180
g2897
sVcom.ifeng.news2
p3181
g741
sVcom.huawei.android.launcher
p3182
g2265
sg1351
g693
sVcom.tencent.android.qqdownloader
p3183
g577
ssg17
(dp3184
g3107
g1341
sg3109
g865
sg77
g1233
sg3111
g2266
ssg19
(dp3185
Vcom.huawei.android.launcher
p3186
g2267
sg580
g399
sVcom.tencent.android.qqdownloader
p3187
g578
ssg21
(dp3188
g1462
g921
sVcom.huawei.android.launcher
p3189
g2268
sg1466
g400
sg393
g2983
ssg23
(dp3190
Vcom.youku.phone
p3191
g347
sg441
g1095
sg19
g387
sg181
g1985
sg1038
g2654
sg663
g2759
sVcom.android.deskclock
p3192
g499
sg407
g525
sg255
g2679
sVcom.tencent.qqlite
p3193
g1892
sVcom.tencent.android.qqdownloader
p3194
g581
sg109
g1515
sVme.onemobile.android
p3195
g1553
sVcom.feistma.appmove
p3196
g695
sg1598
g745
sg988
g1443
sg117
g1541
sVcom.tencent.qt.sns
p3197
g839
sVcom.yiche.price
p3198
g2439
sg269
g2754
sg49
g869
sVcom.android.gallery3d
p3199
g1577
sg1495
g1997
sg429
g553
sVcom.android.contacts
p3200
g2039
sg2172
g2165
sg2562
g1631
sVcom.android.phone
p3201
g1644
sg131
g1705
sg287
g2893
sg2992
g995
sg919
g2222
sg63
g1090
sVcom.kingroot.kinguser
p3202
g2448
sVcom.sub.bazisuanminkan
p3203
g1158
sVcom.yoloho.dayima
p3204
g2972
sg444
g2731
sVcom.Astro.UI
p3205
g1188
sVcom.qihoo.browser
p3206
g1744
sg933
g2260
sVcom.huawei.android.launcher
p3207
g2269
sg641
g2985
sg1048
g1835
sg79
g1239
sg99
g1467
sg2167
g3024
sVcom.sinovatech.unicom.ui
p3208
g3045
sg91
g1342
sVcom.tencent.mm
p3209
g2935
sg1685
g3063
sg655
g2570
sg319
g3119
sVcom.baidu.tieba
p3210
g1273
sg1626
g1912
sg1689
g2527
sg1557
g3143
sg327
g3167
sVcom.autohome.mycar
p3211
g1423
ssg25
(dp3212
Vcom.youku.phone
p3213
g349
sVcom.baidu.netdisk
p3214
g2643
sg2904
g1518
sVcom.feistma.appmove
p3215
g697
sg485
g750
sVcom.youdao.dict
p3216
g2082
sVcom.android.packageinstaller
p3217
g873
sg2524
g1565
sg489
g2761
sVcom.android.contacts
p3218
g2018
sg2069
g1460
sVcom.huawei.hidisk
p3219
g2121
sVcom.android.phone
p3220
g1648
sg775
g2171
sg435
g2902
sVcom.kingroot.kinguser
p3221
g2452
sVcom.t66y.client.ui
p3222
g1477
sg73
g1189
sVcom.qihoo.browser
p3223
g1748
sVcom.huawei.android.launcher
p3224
g2270
sVcom.baidu.browser.apps
p3225
g2987
sVcom.nd.android.pandareader
p3226
g1838
sVmark.via
p3227
g1097
sg2799
g2528
sg2405
g3066
sg3101
g1278
ssg27
(dp3228
Vmark.via
p3229
g1099
sg207
g2224
sVcom.android.settings
p3230
g1347
sVcom.android.packageinstaller
p3231
g874
sg522
g1571
sVcom.qihoo.cleandroid_cn
p3232
g408
sg504
g2271
sVcom.tencent.android.qqdownloader
p3233
g586
sg203
g2189
ssg29
(dp3234
Vmark.via
p3235
g1115
sg279
g2847
sVcom.tencent.qt.sns
p3236
g827
sg1111
g901
sVcom.android.mms
p3237
g3074
sVcom.baidu.backuprestore
p3238
g1998
sVcom.qihoo.cleandroid_cn
p3239
g430
sg275
g2824
sVcom.clov4r.android.nil
p3240
g527
sg830
g1764
sVcom.huawei.android.launcher
p3241
g2315
sVcom.ifeng.news2
p3242
g769
sVcom.android.deskclock
p3243
g492
sVcom.android.phone
p3244
g1659
sg325
g3144
sVcom.tencent.mobileqq
p3245
g1018
sVcom.android.contacts
p3246
g2026
sg414
g712
ssg31
(dp3247
g8
g339
sg97
g1452
sg543
g1103
sVcom.android.mms
p3248
g3068
sg2447
g409
sg251
g2664
sg334
g2852
sVcom.clov4r.android.nil
p3249
g535
sVvStudio.Android.Camera360
p3250
g2686
sg35
g676
sg39
g700
sg1653
g754
sg247
g2626
sg261
g2721
sVcom.tencent.qt.sns
p3251
g836
sg47
g859
sVcom.android.packageinstaller
p3252
g878
sg828
g2763
sg526
g546
sg607
g2813
sg558
g2122
sg277
g2834
sg263
g2729
sg592
g1629
sg85
g1258
sVcom.tencent.mm
p3253
g2907
sg3203
g1160
sVcom.nrop19
p3254
g2226
sg81
g1245
sg291
g2960
sg295
g2974
sg139
g1740
sg137
g1733
sg213
g2246
sVcom.qihoo.browser
p3255
g1753
sVcom.huawei.android.launcher
p3256
g2272
sg221
g2421
sVcom.tencent.tokenre07
p3257
g1228
sg225
g2441
sg149
g1856
sVcom.tencent.mobileqq
p3258
g1002
sVcom.kingroot.kinguser
p3259
g2454
sg83
g1250
sg309
g3039
sg809
g1348
sg311
g3057
sg87
g1265
sVcom.baidu.BaiduMap
p3260
g2565
sg237
g2591
sVcom.baidu.tieba
p3261
g1282
sg165
g1914
sg1829
g2520
sg167
g1924
sg95
g1425
ssg33
(dp3262
g1935
g1556
sg667
g880
sg1404
g1943
sVcom.huawei.android.launcher
p3263
g2273
ssg35
(dp3264
Vmark.via
p3265
g1104
sVcom.huawei.android.launcher
p3266
g2274
sVcom.tencent.android.qqdownloader
p3267
g589
ssg37
(dp3268
Vcom.huawei.android.launcher
p3269
g2275
ssg39
(dp3270
Vcom.jiongji.andriod.card
p3271
g1955
sg187
g2073
sVcom.qihoo.cleandroid_cn
p3272
g415
sVcom.baidu.backuprestore
p3273
g2008
sg2074
g2859
sg253
g2669
sVcom.tencent.android.qqdownloader
p3274
g591
sg410
g1513
sVcom.eg.android.AlipayGphone
p3275
g1637
sVcom.android.packageinstaller
p3276
g887
sVcn.mixiaoxiao.myappscreenmask
p3277
g2765
sVcom.huawei.hidisk
p3278
g2124
sVcom.ifeng.news2
p3279
g757
sg55
g981
sVcom.android.systemui
p3280
g1175
sg437
g2223
sVmark.via
p3281
g1106
sg3146
g1766
sVcom.huawei.android.launcher
p3282
g2276
sg730
g2456
sg1919
g3050
sg955
g1352
sg658
g1285
sg2337
g1928
ssg41
(dp3283
g3213
g357
sg15
g370
sg744
g417
sVcom.shoujiduoduo.ringtone
p3284
g1487
sg1015
g976
sg1277
g486
sg751
g2698
sVcom.tencent.token
p3285
g573
sg3183
g612
sVcom.feistma.appmove
p3286
g704
sVcom.android.contacts
p3287
g2030
sVcom.eg.android.AlipayGphone
p3288
g1639
sVcn.wps.moffice_tpt
p3289
g1450
sg762
g846
sg1137
g2427
sVcom.android.packageinstaller
p3290
g889
sVcom.sankuai.meituan
p3291
g2093
sg1292
g1599
sg828
g2774
sg123
g1606
sg431
g2821
sg199
g2125
sVcom.android.phone
p3292
g1654
sVcom.tencent.mtt
p3293
g2886
sVcom.tencent.mobileqq
p3294
g1006
sg781
g2205
sg1311
g1417
sVcom.kingroot.kinguser
p3295
g2458
sVcom.tencent.mm
p3296
g2923
sg788
g1177
sg790
g2658
sVcom.Astro.UI
p3297
g1195
sg793
g1757
sg219
g2277
sVcom.baidu.browser.apps
p3298
g2994
sg1313
g1110
sg804
g2546
sVcom.android.mms
p3299
g3078
sVcom.baidu.BaiduMap
p3300
g2572
sg89
g1288
sg809
g1355
sVcom.android.quicksearchbox
p3301
g3158
ssg43
(dp3302
g1328
g2460
sg1092
g1429
sVcom.tencent.mm
p3303
g2912
sVcom.android.packageinstaller
p3304
g892
sg2984
g420
sg1444
g2805
sg3297
g1197
sVcom.qihoo.browser
p3305
g1759
sVcom.huawei.android.launcher
p3306
g2278
sVcom.tencent.android.qqdownloader
p3307
g597
sg2056
g1289
sg843
g1010
sVcom.ifeng.news2
p3308
g763
ssg45
(dp3309
g1773
g2873
sg2868
g1742
sVcom.huawei.android.launcher
p3310
g2279
sg849
g864
ssg47
(dp3311
g2522
g2913
sVcom.huawei.android.launcher
p3312
g2280
sg2519
g599
ssg49
(dp3313
Vcom.youku.phone
p3314
g345
sg45
g850
sVcom.zq.Fate
p3315
g374
sg19
g383
sg2982
g390
sg71
g1180
sVcom.android.deskclock
p3316
g488
sg123
g1602
sg31
g602
sg33
g668
sg109
g1508
sg414
g709
sVcom.ifeng.news2
p3317
g765
sVcom.tencent.qt.sns
p3318
g823
sVcom.yiche.price
p3319
g2435
sg47
g855
sg427
g1995
sVcom.tencent.mobileqq
p3320
g1012
sg914
g1080
sg99
g1463
sg291
g2956
sg3118
g424
sVcom.Astro.UI
p3321
g1199
sg441
g1112
sg2297
g1254
sg87
g1261
sVcom.baidu.tieba
p3322
g1291
sg97
g1439
sg101
g1471
sVcom.t66y.client.ui
p3323
g1476
sVcom.hfa.BestName
p3324
g2738
sg119
g1550
sg429
g550
sVcom.eg.android.AlipayGphone
p3325
g1614
sg1205
g1165
sg129
g1696
sg131
g1702
sg137
g1729
sg161
g1896
sVcom.qihoo.browser
p3326
g1761
sVcom.nd.android.pandareader
p3327
g1832
sg2149
g1867
sg155
g1870
sVorg.kde.necessitas.example.YXBaZi
p3328
g1879
sg992
g1887
sg1626
g1908
sg811
g1938
sg173
g1948
sg1069
g1971
sg2739
g1975
sg181
g1981
sVorg.kde.necessitas.ministro
p3329
g2108
sg197
g2113
sg433
g2130
sVcom.ylmf.androidclient
p3330
g2182
sg2778
g2212
sg622
g2220
sg2898
g2637
sg213
g2242
sVexample.yijing
p3331
g2253
sg933
g2256
sg3207
g2281
sg352
g2414
sg223
g2430
sg251
g2661
sg3202
g2462
sg91
g1361
sVcom.baidu.BaiduMap
p3332
g2552
sg235
g2579
sg237
g2586
sg239
g2596
sg241
g2602
sg243
g2609
sg211
g2234
sVcn.taxen.ziwei
p3333
g1086
sg257
g2703
sg444
g2727
sg317
g3110
sg269
g2751
sg870
g2769
sg281
g2864
sg2110
g2872
sg79
g1236
sg287
g2889
sVcom.tencent.mm
p3334
g2914
sg3204
g2968
sg139
g1736
sg393
g2981
sg301
g2997
sg2403
g3053
sVcom.android.mms
p3335
g3071
sg319
g3115
sVcom.android.bluetooth
p3336
g3131
sg2209
g3142
sg327
g3163
ssg51
(dp3337
g2601
g897
sVcom.huawei.android.launcher
p3338
g2282
sg241
g2603
ssg53
(dp3339
g967
g1569
sVcom.tencent.mm
p3340
g2918
sg965
g3065
sVcom.android.deskclock
p3341
g482
sVcom.huawei.android.launcher
p3342
g2283
sVcom.baidu.tieba
p3343
g1284
sVcom.tencent.mobileqq
p3344
g1016
sg973
g2016
sVcom.ifeng.news2
p3345
g767
ssg55
(dp3346
Vcom.kingroot.kinguser
p3347
g2469
sVcom.qihoo.browser
p3348
g1770
ssg57
(dp3349
Vcom.huawei.android.launcher
p3350
g2284
sg3253
g2926
sg2906
g613
sVcom.kingroot.kinguser
p3351
g2471
ssg59
(dp3352
Vcom.android.gallery3d
p3353
g1595
sg988
g1457
sg990
g2714
sVcom.android.mms
p3354
g3094
sg1089
g459
sg63
g1088
sVcom.baidu.home2
p3355
g2856
sVvStudio.Android.Camera360
p3356
g2675
sg2453
g617
sg590
g720
sVcom.ifeng.news2
p3357
g780
sVcom.tencent.qt.sns
p3358
g844
sVcom.android.packageinstaller
p3359
g913
sVcom.android.soundrecorder
p3360
g2099
sg1015
g972
sg1017
g569
sg273
g2820
sg1020
g2830
sVcom.huawei.hidisk
p3361
g2140
sVcom.android.phone
p3362
g1677
sg800
g2884
sg910
g1492
sg3296
g2927
sVcom.ylmf.androidclient
p3363
g2207
sg1003
g2049
sVmark.via
p3364
g1142
sg2097
g1216
sVcom.android.quicksearchbox
p3365
g3160
sVcom.qihoo.browser
p3366
g1776
sg2939
g2285
sg1588
g2993
sVcom.nd.android.pandareader
p3367
g1851
sg227
g2473
sg3208
g3026
sg804
g2542
sg742
g1885
sVcom.baidu.BaiduMap
p3368
g2574
sg2533
g1308
sVcom.android.settings
p3369
g1397
sVcom.ct.client
p3370
g1926
sg1066
g2792
ssg61
(dp3371
Vcom.simple.fortuneteller
p3372
g1972
sg1970
g915
sg1075
g2287
sg446
g2239
sg33
g670
ssg63
(dp3373
g458
g996
sg1013
g1579
sVcom.huawei.android.launcher
p3374
g2378
sg1089
g440
sVcom.tencent.android.qqdownloader
p3375
g626
ssg65
(dp3376
g816
g343
sg1315
g2631
sVcom.android.deskclock
p3377
g497
sg1102
g628
sg756
g722
sVcom.ifeng.news2
p3378
g786
sg117
g1537
sg2911
g815
sVcom.android.packageinstaller
p3379
g923
sg1113
g2788
sg900
g544
sg770
g2804
sg558
g2141
sg3201
g1679
sg3303
g2929
sg1107
g2037
sVcom.qihoo.cleandroid_cn
p3380
g442
sVcom.Astro.UI
p3381
g1210
sg141
g1791
sVcom.huawei.android.launcher
p3382
g2288
sVcom.nd.android.pandareader
p3383
g1828
sg1143
g2497
sg464
g2518
sVcom.android.mms
p3384
g3061
sVcom.baidu.tieba
p3385
g1314
sg1150
g1357
ssg67
(dp3386
Vmark.via
p3387
g1128
ssg69
(dp3388
Vcom.android.settings
p3389
g1369
sg682
g2649
sVcom.Astro.UI
p3390
g1206
sg1202
g2138
sVcom.huawei.android.launcher
p3391
g2290
sg37
g687
sVcom.ifeng.news2
p3392
g789
ssg71
(dp3393
Vcom.huawei.hidisk
p3394
g2143
sg1179
g868
sVcom.huawei.android.launcher
p3395
g2291
sg211
g2237
ssg73
(dp3396
g1678
g1132
sVcom.android.mms
p3397
g3087
sg3295
g2483
sVcom.tencent.mobileqq
p3398
g1041
sVcom.android.systemui
p3399
g1167
sg3360
g2098
sVcom.qihoo.cleandroid_cn
p3400
g422
sVcom.android.deskclock
p3401
g501
sg585
g529
sVcom.qihoo.browser
p3402
g1785
sVcom.huawei.android.launcher
p3403
g2292
sg3201
g1671
sg514
g1318
sVcom.tencent.mm
p3404
g2936
sg412
g2041
sg485
g792
ssg75
(dp3405
g487
g938
sg1504
g1715
sVcom.huawei.android.launcher
p3406
g2293
sg498
g455
sg554
g1501
ssg77
(dp3407
g3107
g1358
sg3109
g893
sVcom.huawei.android.launcher
p3408
g2294
sg17
g372
ssg79
(dp3409
g3252
g909
sg3256
g2295
sg31
g614
ssg81
(dp3410
g1241
g1381
sg75
g1224
sg1225
g2296
ssg83
(dp3411
Vcom.tencent.android.qqdownloader
p3412
g648
ssg85
(dp3413
Vcom.android.settings
p3414
g1370
sg1255
g2298
sVcom.tencent.android.qqdownloader
p3415
g615
sg607
g2818
ssg87
(dp3416
g460
g2502
sVcom.huawei.android.launcher
p3417
g2299
sVcom.tencent.android.qqdownloader
p3418
g654
ssg89
(dp3419
Vcom.tencent.qqlive
p3420
g2417
sg259
g2712
sg1272
g471
sg403
g1483
sg1277
g515
sg585
g533
sVvStudio.Android.Camera360
p3421
g2683
sVcom.tencent.android.qqdownloader
p3422
g659
sg2126
g1555
sVcom.feistma.appmove
p3423
g736
sVcom.android.contacts
p3424
g2057
sg41
g808
sVcn.wps.moffice_tpt
p3425
g1454
sg2459
g833
sVcom.android.packageinstaller
p3426
g953
sg2770
g1591
sg747
g2798
sVyiqi.bazi
p3427
g2817
sg199
g2158
sVcom.eg.android.AlipayGphone
p3428
g1633
sg997
g2851
sVcom.android.phone
p3429
g1688
sVcom.amigosoftware.name7_6_web_android
p3430
g1700
sg1122
g2952
sg3330
g2199
sg620
g2080
sVcom.nrop19
p3431
g2225
sg785
g1149
sVcom.huawei.android.dsdscardmanager
p3432
g1724
sg1129
g2651
sVcom.Astro.UI
p3433
g1221
sg2190
g1800
sg219
g2300
sg1588
g2991
sg456
g1847
sVcom.tencent.mobileqq
p3434
g1059
sg1328
g2505
sg1903
g3006
sVcn.dz52pojie.www
p3435
g3021
sg804
g2534
sg2405
g3102
sg163
g1900
sVcom.android.settings
p3436
g1403
sg3042
g3153
ssg91
(dp3437
Vcom.youdao.dict
p3438
g2071
sg740
g360
sVcom.baidu.netdisk
p3439
g2635
sg321
g3122
sg31
g652
sVcom.android.mediacenter
p3440
g681
sg756
g733
sg259
g2710
sg1653
g810
sVme.onemobile.android
p3441
g1548
sg317
g3108
sg323
g3129
sVcom.android.packageinstaller
p3442
g956
sg183
g1994
sg2919
g2806
sg1297
g2160
sg1205
g1163
sg79
g1235
sVcom.tencent.mobileqq
p3443
g1054
sVcom.ylmf.androidclient
p3444
g2197
sg3013
g2059
sVmark.via
p3445
g1151
sg3292
g1684
sg135
g1718
sVoms.mmc.independent_gm.ebook.book121
p3446
g1810
sg1630
g473
sg3390
g1222
sVcom.qihoo.browser
p3447
g1803
sVcom.huawei.android.launcher
p3448
g2301
sg1543
g2507
sVcom.huawei.KoBackup
p3449
g1242
sg1680
g3004
sVcom.tencent.mm
p3450
g2947
sg649
g3098
sg946
g2551
sg113
g1529
sg115
g1532
sVcom.baidu.tieba
p3451
g1336
sVcom.huawei.android.totemweather
p3452
g2537
sg516
g2608
sg173
g1946
ssg93
(dp3453
g1394
g3016
sg472
g1375
sVcom.android.packageinstaller
p3454
g917
sVcom.android.mms
p3455
g3084
sVcom.qihoo.browser
p3456
g1779
sVcom.baidu.tieba
p3457
g1312
sVcom.huawei.android.launcher
p3458
g2302
sVcom.tencent.mm
p3459
g2928
sg1416
g784
sVcom.tencent.mobileqq
p3460
g1035
ssg95
(dp3461
g1909
g2303
sVcom.yidalianke.app
p3462
g1915
sg1913
g665
sg1422
g475
ssg97
(dp3463
g8
g337
sVmark.via
p3464
g1093
sg245
g2621
sg1436
g2896
sg1253
g890
sVcom.qihoo.cleandroid_cn
p3465
g418
sg1066
g2757
sg3172
g2840
sVcom.huawei.hidisk
p3466
g2118
sVcom.baidu.tieba
p3467
g1269
sVcom.huawei.android.launcher
p3468
g2304
sVcom.nd.android.pandareader
p3469
g1826
sVcom.tencent.mobileqq
p3470
g989
sg3216
g2070
ssg99
(dp3471
Vcom.huawei.android.launcher
p3472
g2305
sVcom.android.mms
p3473
g3095
sVcom.android.contacts
p3474
g2050
ssg101
(dp3475
sg103
(dp3476
g25
g480
sg2459
g825
sg832
g1317
sVcom.huawei.android.launcher
p3477
g2306
sVcom.baidu.netdisk
p3478
g2640
ssg105
(dp3479
Vcom.huawei.android.launcher
p3480
g2307
sVcom.baidu.tieba
p3481
g1274
sg1272
g404
sVcom.ifeng.news2
p3482
g746
ssg107
(dp3483
g1993
g1391
sg1470
g911
sg183
g1999
sVcom.tencent.token
p3484
g555
sg101
g1472
sVcom.baidu.home2
p3485
g2849
sg2004
g2308
sVcom.android.phone
p3486
g1646
sVcom.baidu.tieba
p3487
g1327
sVcom.tencent.mobileqq
p3488
g1029
sg2857
g2047
sg133
g1710
ssg109
(dp3489
g622
g2227
sVcom.huawei.android.launcher
p3490
g2309
sg1507
g882
sg534
g588
sg1514
g411
ssg111
(dp3491
g1517
g484
sVcom.tencent.mm
p3492
g2905
sVcom.qihoo.browser
p3493
g1751
sVcom.huawei.android.launcher
p3494
g2310
sVcom.android.packageinstaller
p3495
g877
ssg113
(dp3496
g1543
g2503
sg1559
g2311
sg946
g2557
ssg115
(dp3497
g3438
g2081
ssg117
(dp3498
sg119
(dp3499
Vcom.kingroot.kinguser
p3500
g2477
sg1404
g1936
sg3435
g3020
sg1547
g1350
sg1549
g884
sg51
g961
sg2369
g2548
sVorg.kde.necessitas.ministro
p3501
g2103
sg1362
g2768
sVcom.phoenix.eightwords
p3502
g2594
sg2558
g2127
sVcom.huawei.android.launcher
p3503
g2313
sg241
g2600
sVorg.kde.necessitas.example.YXBaZi
p3504
g1877
sg1561
g1824
sVcom.feistma.appmove
p3505
g706
ssg121
(dp3506
g1392
g2463
sg1376
g2221
sVcom.huawei.flashlight
p3507
g968
sg1346
g523
sVcom.tencent.mm
p3508
g2916
sVcn.mixiaoxiao.myappscreenmask
p3509
g2771
sg431
g2807
sg609
g2823
sg2027
g2131
sVvStudio.Android.Camera360
p3510
g2677
sVcom.baidu.tieba
p3511
g1293
sVcom.tencent.android.qqdownloader
p3512
g604
sg2799
g2525
sVcom.qihoo.cleandroid_cn
p3513
g426
sVcom.huawei.android.launcher
p3514
g2314
sg439
g1084
sg458
g1014
sVcom.android.contacts
p3515
g2024
sVcom.ifeng.news2
p3516
g766
ssg123
(dp3517
sg125
(dp3518
Vcom.kingroot.kinguser
p3519
g2468
sVcom.android.contacts
p3520
g2020
sVcom.android.calendar
p3521
g2515
sg2946
g1367
sg2585
g904
sVcom.android.phone
p3522
g1661
sVcom.android.mms
p3523
g3070
sg2513
g2010
sg237
g2589
sg1040
g1204
sg3075
g2137
sg2587
g2316
sVcom.ifeng.news2
p3524
g761
sg2590
g593
sVcom.baidu.BaiduMap
p3525
g2563
sVcom.baidu.tieba
p3526
g1300
sVcom.tencent.mm
p3527
g2910
sg3444
g2195
sg2900
g2767
sg3398
g1024
ssg127
(dp3528
g1641
g1963
sVcom.baidu.netdisk
p3529
g2639
sg997
g2853
sVvStudio.Android.Camera360
p3530
g2688
sVcom.feistma.appmove
p3531
g718
sVcom.ifeng.news2
p3532
g774
sVcom.sankuai.meituan
p3533
g2095
sVcom.tencent.token
p3534
g565
sVyiqi.bazi
p3535
g2815
sVcom.tencent.mm
p3536
g2931
sVcom.ylmf.androidclient
p3537
g2184
sg185
g2033
sg1668
g2479
sg135
g1726
sVcom.qihoo.browser
p3538
g1772
sg2044
g2318
sVcom.nd.android.pandareader
p3539
g1845
sVcom.tencent.mobileqq
p3540
g1026
sVmark.via
p3541
g1121
sg1680
g3009
sVcom.sinovatech.unicom.ui
p3542
g3041
sg2058
g1383
sVcom.android.mms
p3543
g3080
sVcom.baidu.tieba
p3544
g1304
sVcom.android.quicksearchbox
p3545
g3151
ssg129
(dp3546
g1895
g908
sg1181
g2319
sg914
g1078
sg161
g1894
ssg131
(dp3547
g3207
g2320
sg3317
g777
ssg133
(dp3548
Vcom.baidu.backuprestore
p3549
g2012
sVcom.tencent.token
p3550
g574
sg554
g1505
sg279
g2861
sVcom.huawei.android.launcher
p3551
g2321
sVcom.android.phone
p3552
g1667
sVcom.tencent.mobileqq
p3553
g1065
ssg135
(dp3554
Vcom.android.settings
p3555
g1384
sg1719
g1783
sVcom.huawei.android.launcher
p3556
g2323
sVcom.android.phone
p3557
g1670
ssg137
(dp3558
Vcom.tencent.android.qqdownloader
p3559
g636
ssg139
(dp3560
g149
g1854
sVcom.tencent.android.qqdownloader
p3561
g635
ssg141
(dp3562
g175
g1959
sg3323
g1478
sg2932
g2003
sVcom.android.deskclock
p3563
g503
sg111
g1522
sg265
g2734
sVcom.android.contacts
p3564
g2043
sVcom.ifeng.news2
p3565
g794
sg3236
g831
sg1475
g932
sg1762
g2783
sVcom.eg.android.AlipayGphone
p3566
g1624
sVcom.android.phone
p3567
g1673
sg283
g2869
sVcom.tencent.mm
p3568
g2938
sg1777
g2191
sg93
g1411
sg3347
g2486
sVcom.huawei.android.dsdscardmanager
p3569
g1720
sVcom.qihoo.cleandroid_cn
p3570
g450
sg215
g2249
sg1788
g2326
sg145
g1817
sVcom.tencent.mobileqq
p3571
g1043
sg1790
g1134
sg1051
g3019
sg3096
g3035
sg1275
g2532
sVcom.android.mms
p3572
g3089
sVcom.baidu.tieba
p3573
g1320
sVcom.android.settings
p3574
g1387
sg3301
g3147
sg171
g1940
ssg143
(dp3575
Vpredictor.namer
p3576
g2747
sg2996
g926
sg2567
g3001
sg2998
g2324
ssg145
(dp3577
g1974
g937
sg171
g1939
sVcom.huawei.android.launcher
p3578
g2327
ssg147
(dp3579
g1821
g2493
sVcom.android.gallery3d
p3580
g1593
sg988
g1455
sg1827
g1140
sVcom.Astro.UI
p3581
g1214
sg624
g2942
sVcom.android.packageinstaller
p3582
g939
sVcom.android.mms
p3583
g3093
sg694
g457
sg629
g2652
sg1837
g507
sVcom.huawei.hidisk
p3584
g2146
sg3356
g2692
sg1841
g2329
sVcom.ifeng.news2
p3585
g799
sVcom.tencent.android.qqdownloader
p3586
g644
sVme.onemobile.android
p3587
g1562
sg1305
g2882
sg3470
g1049
sg3196
g729
sVcn.mixiaoxiao.myappscreenmask
p3588
g2786
ssg149
(dp3589
g3561
g645
ssg151
(dp3590
g3355
g2854
sg2855
g1037
ssg153
(dp3591
g267
g2742
sVcom.huawei.hidisk
p3592
g2150
sVcom.android.packageinstaller
p3593
g941
sVcom.huawei.android.launcher
p3594
g2331
ssg155
(dp3595
g2863
g943
sg2865
g2332
ssg157
(dp3596
g177
g1967
sg195
g2105
sg1811
g2333
sg143
g1808
sVcom.tencent.android.qqdownloader
p3597
g632
sg61
g1072
ssg159
(dp3598
Vcom.android.mms
p3599
g3099
sg3433
g1219
sg1220
g1271
sVcom.huawei.android.launcher
p3600
g2334
sg1884
g993
sVcom.ifeng.news2
p3601
g743
ssg161
(dp3602
g1179
g930
sg2235
g2325
sg71
g1183
ssg163
(dp3603
VvStudio.Android.Camera360
p3604
g2684
sVcom.huawei.android.launcher
p3605
g2335
sg2699
g3012
ssg165
(dp3606
g596
g834
sg818
g2506
sg927
g2648
sVcom.huawei.android.launcher
p3607
g2336
sVcom.tencent.qqlive
p3608
g2419
sg3325
g1627
ssg167
(dp3609
g1919
g3033
sVcom.kingroot.kinguser
p3610
g2484
sg1921
g2338
sVcom.tencent.android.qqdownloader
p3611
g661
ssg169
(dp3612
g77
g1230
sg377
g2339
sg17
g379
ssg171
(dp3613
g2739
g1976
sVcom.android.bluetooth
p3614
g3136
sg1974
g957
sVcom.huawei.hidisk
p3615
g2163
sVcom.huawei.android.launcher
p3616
g2340
sVcom.android.settings
p3617
g1405
sVcom.tencent.mm
p3618
g2953
sVcom.ifeng.news2
p3619
g812
ssg173
(dp3620
g2209
g3145
sg3138
g2216
sg2211
g958
sVcom.huawei.android.launcher
p3621
g2341
ssg175
(dp3622
g1301
g2839
sg2837
g2443
sVcom.baidu.tieba
p3623
g1268
sVcom.android.phone
p3624
g1642
ssg177
(dp3625
Vcom.android.settings
p3626
g1340
sg2996
g861
sg143
g1807
sVcom.huawei.hidisk
p3627
g2117
sVcom.huawei.android.launcher
p3628
g2342
sg2238
g1070
ssg179
(dp3629
Vme.onemobile.android
p3630
g1545
sVcom.android.packageinstaller
p3631
g876
sVcom.hfa.BestName
p3632
g2740
sVcom.huawei.android.launcher
p3633
g2343
ssg181
(dp3634
g1260
g866
sVcom.huawei.android.launcher
p3635
g2344
sVcom.tencent.android.qqdownloader
p3636
g579
ssg183
(dp3637
g321
g3126
sg1987
g2450
sg229
g2514
sg1993
g1344
sVcom.android.packageinstaller
p3638
g899
sg3239
g428
sg107
g1496
sg2000
g2845
sg2002
g1746
sg725
g2345
sg1032
g2188
sg699
g605
sVcom.nd.android.pandareader
p3639
g1834
sg2006
g2933
sg39
g710
sg2011
g1709
ssg185
(dp3640
Vcom.jiongji.andriod.card
p3641
g1965
sVcom.youdao.dict
p3642
g2068
sg1315
g2656
sVcom.baidu.backuprestore
p3643
g1991
sVcom.baidu.home2
p3644
g2858
sVvStudio.Android.Camera360
p3645
g2681
sg111
g1526
sVcom.android.mediacenter
p3646
g689
sVcom.feistma.appmove
p3647
g702
sVcom.eg.android.AlipayGphone
p3648
g1611
sg3533
g2091
sVcom.android.gallery3d
p3649
g1597
sVcom.huawei.flashlight
p3650
g974
sg29
g571
sg275
g2831
sVcom.huawei.hidisk
p3651
g2135
sg3532
g759
sg773
g1652
sVcom.android.htmlviewer
p3652
g2176
sVcom.tencent.mm
p3653
g2909
sVcom.ylmf.androidclient
p3654
g2203
sg3083
g1415
sg2062
g2475
sVcom.qihoo.cleandroid_cn
p3655
g413
sVcom.Astro.UI
p3656
g1193
sVcom.qihoo.browser
p3657
g1755
sg2044
g2347
sVmark.via
p3658
g1108
sg1680
g3014
sg3542
g3049
sVcom.tencent.mobileqq
p3659
g1004
sg1332
g3069
sVcom.baidu.tieba
p3660
g1287
sVcom.android.settings
p3661
g1379
sg325
g3156
ssg187
(dp3662
g3271
g1953
sVcn.wps.moffice_tpt
p3663
g1431
sVcom.android.mms
p3664
g3059
sg115
g1534
sg2074
g2844
sVcom.huawei.android.launcher
p3665
g2349
sVcom.tencent.android.qqdownloader
p3666
g621
sVcom.tencent.mobileqq
p3667
g1036
sg1954
g692
ssg189
(dp3668
Vcom.huawei.android.launcher
p3669
g2330
ssg191
(dp3670
g2090
g2022
sg2094
g1656
ssg193
(dp3671
Vcom.ifeng.news2
p3672
g755
ssg195
(dp3673
g631
g1882
sg1880
g2350
sg2286
g1074
sg3597
g606
ssg197
(dp3674
Vcom.huawei.android.launcher
p3675
g2351
sVcom.baidu.BaiduMap
p3676
g2549
ssg199
(dp3677
g740
g362
sg994
g434
sg737
g2530
sVcom.android.deskclock
p3678
g494
sVcom.clov4r.android.nil
p3679
g531
sVcom.feistma.appmove
p3680
g714
sVcom.ifeng.news2
p3681
g772
sg323
g3133
sg1011
g903
sg2023
g1583
sg900
g559
sg3515
g2028
sg2136
g1622
sg1205
g1169
sg201
g2173
sVcom.tencent.mm
p3682
g2921
sg2746
g1814
sg2898
g2645
sg3390
g1203
sg1042
g1768
sVcom.huawei.android.launcher
p3683
g2352
sg147
g1840
sVmark.via
p3684
g1119
sg3320
g1022
sg3523
g3076
sg468
g2559
sg948
g2577
sVcom.baidu.tieba
p3685
g1298
sg1162
g1365
sg516
g2611
ssg201
(dp3686
Vcom.huawei.hidisk
p3687
g2139
sVcom.nd.android.pandareader
p3688
g1843
sVcom.huawei.android.launcher
p3689
g2353
sVcom.ifeng.news2
p3690
g776
ssg203
(dp3691
g3229
g1125
sVcom.nrop19
p3692
g2229
sg1762
g2777
sg2183
g1665
sg466
g3082
sg479
g1481
sg790
g2641
sg25
g495
sVcom.clov4r.android.nil
p3693
g539
sg2782
g1778
sg3224
g2354
sg1137
g2425
sg2196
g1374
sVcom.baidu.tieba
p3694
g1310
sg3639
g1849
sVcom.tencent.mobileqq
p3695
g1033
sVcom.ifeng.news2
p3696
g782
ssg205
(dp3697
g2209
g3139
sVcom.android.packageinstaller
p3698
g918
sVcom.huawei.android.launcher
p3699
g2355
sg870
g2779
ssg207
(dp3700
g3229
g1127
sg3230
g1377
sg1507
g920
sg522
g1567
sg479
g1474
sg2449
g1989
sg27
g521
sg504
g2356
sg534
g623
sg109
g1511
sg1514
g438
sg203
g2178
ssg209
(dp3701
Vcom.huawei.android.launcher
p3702
g2357
ssg211
(dp3703
Vcom.huawei.hidisk
p3704
g2119
sVcom.android.packageinstaller
p3705
g924
sg3395
g2358
sVcom.qihoo.cleandroid_cn
p3706
g447
sVcom.android.settings
p3707
g1385
ssg213
(dp3708
g2967
g929
sVcom.huawei.android.launcher
p3709
g2359
sg2971
g448
sVcom.tencent.android.qqdownloader
p3710
g638
ssg215
(dp3711
g2248
g1787
sg2250
g2361
ssg217
(dp3712
g730
g2487
sg1945
g1388
sg1947
g934
sg159
g1888
sg886
g724
sg1168
g2144
sg1220
g1321
sg1205
g1171
sg3600
g2362
sVorg.getlantern.firetweet
p3713
g1949
ssg219
(dp3714
g13
g351
sg15
g364
sg17
g378
sg19
g385
sg21
g392
sg23
g452
sg25
g505
sVcom.clov4r.android.nil
p3715
g537
sg1658
g561
sg31
g640
sg35
g673
sg37
g685
sg39
g726
sg3532
g796
sg762
g841
sg45
g852
sg47
g857
sg49
g935
sg51
g963
sg183
g2005
sg55
g979
sg2470
g984
sg59
g1045
sg61
g1076
sg3333
g1083
sg65
g1136
sg67
g1156
sVcom.android.systemui
p3716
g1173
sg867
g1182
sg73
g1212
sg75
g1226
sg77
g1231
sg79
g1237
sg81
g1244
sg83
g1248
sg85
g1256
sg87
g1263
sg89
g1323
sg91
g1390
sg93
g1413
sg95
g1421
sg988
g1448
sg99
g1465
sg103
g1480
sVcom.shoujiduoduo.ringtone
p3717
g1485
sg107
g1500
sg881
g1510
sg111
g1524
sg265
g2736
sg117
g1539
sg119
g1560
sg3199
g1587
sg123
g1604
sg125
g1625
sg773
g1675
sg129
g1698
sg131
g1704
sg133
g1714
sVcom.huawei.android.dsdscardmanager
p3718
g1722
sg137
g1731
sg297
g2977
sg141
g1789
sg143
g1812
sg147
g1842
sg149
g1853
sg153
g1863
sg155
g1872
sg631
g1881
sg742
g1890
sg161
g1897
sg163
g1902
sg165
g1910
sg167
g1922
sg169
g1932
sg171
g1942
sg173
g1951
sg175
g1961
sg177
g1969
sg179
g1978
sg181
g1983
sg1015
g970
sVcom.android.contacts
p3719
g2045
sg3216
g2077
sg189
g2085
sg191
g2089
sg193
g2101
sg195
g2107
sg197
g2115
sg199
g2145
sg201
g2175
sg203
g2193
sg205
g2214
sVcom.nrop19
p3720
g2228
sg209
g2232
sg211
g2236
sg213
g2244
sg1786
g2251
sg933
g2258
sg3420
g2423
sg223
g2432
sg3319
g2437
sg227
g2489
sg229
g2512
sg547
g2541
sg233
g2561
sg235
g2581
sg237
g2588
sg239
g2598
sg241
g2605
sg243
g2613
sg247
g2624
sg249
g2647
sg251
g2662
sg253
g2667
sg255
g2690
sg257
g2705
sg990
g2708
sg261
g2717
sg444
g2725
sg267
g2745
sg269
g2753
sg828
g2785
sg273
g2811
sg275
g2826
sg281
g2866
sg283
g2871
sVcom.tencent.mtt
p3721
g2880
sg287
g2891
sg3296
g2940
sg291
g2958
sg295
g2970
sg139
g1738
sg299
g2989
sg301
g2999
sg305
g3008
sg307
g3023
sg309
g3037
sg311
g3055
sg2405
g3091
sg317
g3112
sg319
g3117
sg321
g3124
sg3336
g3135
sg566
g3148
sg327
g3165
ssg221
(dp3722
g3259
g2491
sg3314
g353
sVmark.via
p3723
g1138
sVcom.android.packageinstaller
p3724
g862
sg386
g453
sVcom.baidu.tieba
p3725
g1325
sVcom.tencent.android.qqdownloader
p3726
g576
sVcom.huawei.android.launcher
p3727
g2363
sVcom.ifeng.news2
p3728
g797
ssg223
(dp3729
Vcom.tencent.qt.sns
p3730
g837
sVcom.huawei.android.launcher
p3731
g2364
ssg225
(dp3732
Vcom.huawei.android.launcher
p3733
g2365
sVcom.tencent.android.qqdownloader
p3734
g598
sg474
g1419
ssg227
(dp3735
g3425
g1435
sVcom.baidu.netdisk
p3736
g2633
sVcom.shoujiduoduo.ringtone
p3737
g1489
sVcom.baidu.backuprestore
p3738
g1988
sg3401
g509
sVvStudio.Android.Camera360
p3739
g2672
sg483
g1520
sg3418
g647
sVcom.android.mediacenter
p3740
g679
sg886
g731
sg592
g1609
sg2843
g2066
sg293
g2965
sg596
g819
sg3276
g940
sVcn.mixiaoxiao.myappscreenmask
p3741
g2781
sVcom.android.contacts
p3742
g2063
sVcom.huawei.hidisk
p3743
g2148
sg2922
g802
sg1301
g2838
sVcom.android.phone
p3744
g1669
sg1305
g2876
sg779
g1050
sg883
g1544
sVcom.sub.bazisuanminkan
p3745
g1154
sg3296
g2943
sVcom.qihoo.cleandroid_cn
p3746
g461
sg500
g1217
sg931
g1781
sg2939
g2366
sg3420
g2413
sVcom.nd.android.pandareader
p3747
g1822
sg543
g1144
sVcom.android.settings
p3748
g1393
sVcom.android.mms
p3749
g3086
sg946
g2550
sg2416
g1329
sVcom.huawei.android.totemweather
p3750
g2521
sg2337
g1918
ssg229
(dp3751
Vcom.huawei.android.launcher
p3752
g2367
sg1032
g2179
sg1833
g1992
ssg231
(dp3753
Vcom.kingroot.kinguser
p3754
g2500
sg3692
g2219
sg1678
g1145
sVcn.mixiaoxiao.myappscreenmask
p3755
g2800
sVcom.sankuai.meituan
p3756
g2087
sg1643
g465
sg1658
g548
sg3246
g2053
sg1131
g1218
sVcom.huawei.hidisk
p3757
g2153
sg775
g2170
sVcom.huawei.android.launcher
p3758
g2368
sVcom.feistma.appmove
p3759
g738
sVcom.android.deskclock
p3760
g511
sVcom.android.phone
p3761
g1690
sg566
g3141
sVcom.baidu.tieba
p3762
g1276
sg2941
g1830
sVcom.tencent.mobileqq
p3763
g1061
sg538
g2180
sg2092
g805
ssg233
(dp3764
g119
g1551
sg153
g1865
sg1561
g1820
sg309
g3030
sg1038
g2629
sVcom.android.settings
p3765
g1401
sg1549
g947
sg1795
g3100
sg1743
g469
sg235
g2583
sg2132
g2796
sVcom.huawei.hidisk
p3766
g2157
sVcom.qihoo.browser
p3767
g1798
sVcom.baidu.tieba
p3768
g1334
sVcom.tencent.android.qqdownloader
p3769
g656
sg2560
g2370
sg301
g3000
sVcom.tencent.mm
p3770
g2950
sVcom.feistma.appmove
p3771
g734
sVcom.eg.android.AlipayGphone
p3772
g1618
ssg235
(dp3773
g169
g1933
sg373
g949
sg243
g2610
sg1931
g2371
sg3315
g376
ssg237
(dp3774
Vcom.android.packageinstaller
p3775
g950
sVcom.huawei.android.launcher
p3776
g2372
sVcom.tencent.android.qqdownloader
p3777
g657
ssg239
(dp3778
g3328
g1875
sVcom.huawei.android.launcher
p3779
g2373
sg1878
g951
ssg241
(dp3780
Vcom.android.packageinstaller
p3781
g954
sVcom.huawei.android.launcher
p3782
g2374
sVcom.shawnyu.suanming
p3783
g1873
ssg243
(dp3784
g2149
g1860
sg1232
g380
sg1359
g2748
sg3678
g517
sg377
g2375
sg169
g1930
sVcom.android.contacts
p3785
g2061
ssg245
(dp3786
sg247
(dp3787
Vcom.kingroot.kinguser
p3788
g2444
sVvStudio.Android.Camera360
p3789
g2673
sVcom.huawei.android.launcher
p3790
g2376
sg2685
g594
sVcom.tencent.mobileqq
p3791
g1008
ssg249
(dp3792
g2630
g1130
sVcom.tencent.qqlive
p3793
g2415
sg2875
g2481
sVcom.tencent.mobileqq
p3794
g1039
sVcom.android.packageinstaller
p3795
g928
sg1442
g402
sg1305
g2878
sg1846
g1316
sg781
g2187
sg3586
g630
sVcom.huawei.android.launcher
p3796
g2377
sg37
g683
sg1048
g1836
sg3682
g2899
sg2655
g2014
sg2204
g791
ssg251
(dp3797
g83
g1251
sg3412
g582
ssg253
(dp3798
g437
g2218
sg1509
g2379
sg1512
g698
ssg255
(dp3799
Vmark.via
p3800
g1101
sg1030
g2903
sVcom.android.packageinstaller
p3801
g875
sg2676
g1585
sVcom.Astro.UI
p3802
g1191
sg2937
g1750
sVcom.huawei.android.launcher
p3803
g2380
sVcom.tencent.android.qqdownloader
p3804
g587
sVcom.android.phone
p3805
g1650
sVcom.baidu.tieba
p3806
g1280
sg971
g1000
sVcom.ifeng.news2
p3807
g752
ssg257
(dp3808
sg259
(dp3809
Vcom.huawei.android.launcher
p3810
g2381
sVcom.android.settings
p3811
g1353
sVcom.baidu.tieba
p3812
g1270
sVcom.tencent.mobileqq
p3813
g991
ssg261
(dp3814
g1438
g891
sg97
g1427
sg1451
g595
ssg263
(dp3815
Vcom.android.packageinstaller
p3816
g925
sVcom.huawei.android.launcher
p3817
g2382
sVcom.qihoo.cleandroid_cn
p3818
g445
sg2728
g619
ssg265
(dp3819
g1866
g885
sg1859
g2616
sVcom.huawei.android.launcher
p3820
g2383
ssg267
(dp3821
g863
g848
sg2614
g3128
sg3593
g894
sg3592
g2128
sVcom.huawei.android.launcher
p3822
g2384
sg2607
g1360
ssg269
(dp3823
Vcom.huawei.android.launcher
p3824
g2385
sg3194
g600
ssg271
(dp3825
Vcn.wps.moffice_tpt
p3826
g1458
sVcom.qihoo.cleandroid_cn
p3827
g406
sVcom.android.deskclock
p3828
g490
sVcom.tencent.android.qqdownloader
p3829
g664
sVcom.android.contacts
p3830
g2025
sg3772
g1620
sg261
g2719
sVcom.tencent.qt.sns
p3831
g829
sg3698
g871
sVyiqi.bazi
p3832
g2808
sVcom.huawei.hidisk
p3833
g2133
sVcom.ifeng.news2
p3834
g748
sVcom.android.phone
p3835
g1657
sg163
g1906
sVcom.tencent.mm
p3836
g2901
sg205
g2215
sVcom.kingroot.kinguser
p3837
g2464
sVcom.qihoo.browser
p3838
g1763
sVcom.huawei.android.launcher
p3839
g2386
sVcom.tencent.mobileqq
p3840
g1067
sVmark.via
p3841
g1114
sg2699
g3005
sVcom.sinovatech.unicom.ui
p3842
g3032
sg1547
g1363
sVcom.android.mms
p3843
g3072
sg2156
g2556
sVcom.baidu.tieba
p3844
g1294
ssg273
(dp3845
Vcom.kingroot.kinguser
p3846
g2465
sg1092
g1445
sg3841
g1117
sVcom.tencent.mobileqq
p3847
g1019
sVcom.qihoo.cleandroid_cn
p3848
g432
sg1113
g2772
sVcom.Astro.UI
p3849
g1201
sVcom.huawei.android.launcher
p3850
g2387
sVcom.tencent.android.qqdownloader
p3851
g608
sg2470
g986
sg952
g1295
sVcom.tencent.mm
p3852
g2920
sVcom.ifeng.news2
p3853
g771
sg3414
g1364
ssg275
(dp3854
g1392
g2466
sg603
g1581
sg273
g2809
sVcom.baidu.tieba
p3855
g1296
sVcom.tencent.android.qqdownloader
p3856
g610
sVcom.huawei.android.launcher
p3857
g2388
sg2819
g1021
ssg277
(dp3858
g263
g2723
sg2728
g611
ssg279
(dp3859
g541
g2963
sg2837
g2495
sg3271
g1957
sg336
g1446
sg8
g335
sg727
g2980
sg101
g1469
sVcom.android.settings
p3860
g1345
sg1470
g906
sg187
g2075
sg3549
g2001
sg2846
g557
sg2046
g1498
sg245
g2619
sVcom.baidu.tieba
p3861
g1302
sg338
g584
sVcom.tencent.mm
p3862
g2925
sg3540
g998
sg2857
g2032
sVcom.feistma.appmove
p3863
g716
sg2860
g1712
ssg281
(dp3864
g1085
g907
sVcom.huawei.android.launcher
p3865
g2389
ssg283
(dp3866
g2868
g1774
sg2870
g2391
sVcom.baidu.BaiduMap
p3867
g2566
sg197
g2111
ssg285
(dp3868
Vcom.huawei.android.launcher
p3869
g2392
sVcom.baidu.tieba
p3870
g1306
sVcom.tencent.mobileqq
p3871
g1027
sVcom.ifeng.news2
p3872
g801
ssg287
(dp3873
Vcom.tencent.qt.sns
p3874
g842
sVcom.huawei.android.launcher
p3875
g2393
sVcom.ifeng.news2
p3876
g778
ssg289
(dp3877
Vcom.youku.phone
p3878
g355
sVcom.ss.android.article.news
p3879
g368
sg1984
g436
sg1028
g1503
sVvStudio.Android.Camera360
p3880
g2694
sVcom.tencent.android.qqdownloader
p3881
g625
sVcom.android.contacts
p3882
g2035
sg2136
g1635
sg1825
g1437
sVcom.tencent.qt.sns
p3883
g821
sg1980
g944
sg3580
g1573
sg2900
g2776
sg3075
g2142
sVcom.ifeng.news2
p3884
g787
sg2930
g1663
sg971
g1031
sVcom.ylmf.androidclient
p3885
g2201
sVcom.baidu.backuprestore
p3886
g2007
sVcom.Astro.UI
p3887
g1208
sVcom.qihoo.browser
p3888
g1794
sVcom.huawei.android.launcher
p3889
g2394
sVcom.nd.android.pandareader
p3890
g1848
sg3060
g1123
sg462
g3047
sg3436
g1372
sVcom.android.mms
p3891
g3081
sVcom.baidu.BaiduMap
p3892
g2554
sVcom.baidu.tieba
p3893
g1331
sg1829
g2523
sg1804
g3155
ssg291
(dp3894
Vcom.huawei.android.launcher
p3895
g2289
sg2758
g443
sVcom.tencent.android.qqdownloader
p3896
g633
ssg293
(dp3897
g556
g2836
sVcom.huawei.android.launcher
p3898
g2312
sg2846
g542
sg2860
g1707
ssg295
(dp3899
Vcom.huawei.android.launcher
p3900
g2395
sVcom.tencent.android.qqdownloader
p3901
g634
ssg297
(dp3902
g35
g674
sg672
g2396
sg3267
g637
ssg299
(dp3903
Vcom.baidu.home2
p3904
g2842
sVcom.youdao.dict
p3905
g2078
sg547
g2535
sg2241
g936
sg21
g394
sVcom.android.gallery3d
p3906
g1589
sg1466
g398
sg1658
g563
sg1580
g2827
sg560
g2397
sg2245
g642
sg566
g3149
sVcom.tencent.mobileqq
p3907
g1047
sVcom.feistma.appmove
p3908
g728
ssg301
(dp3909
g267
g2743
sg153
g1861
sg2744
g2398
sg1864
g2568
ssg303
(dp3910
Vcom.kingroot.kinguser
p3911
g2496
sVcom.huawei.android.launcher
p3912
g2399
sVcom.tencent.android.qqdownloader
p3913
g646
ssg305
(dp3914
Vcom.android.settings
p3915
g1395
sg1190
g2700
sVcom.huawei.android.launcher
p3916
g2400
sVcom.android.phone
p3917
g1681
sg2538
g3140
sg163
g1904
sVcom.android.contacts
p3918
g2051
sg916
g1407
ssg307
(dp3919
Vcom.android.packageinstaller
p3920
g942
sVcom.huawei.hidisk
p3921
g2151
sVcom.qihoo.browser
p3922
g1792
sVcom.huawei.android.launcher
p3923
g2401
sg201
g2168
sVcom.tencent.mobileqq
p3924
g1052
ssg309
(dp3925
Vcom.kingroot.kinguser
p3926
g2498
sg3027
g3097
sVcom.qihoo.cleandroid_cn
p3927
g463
sVcn.mixiaoxiao.myappscreenmask
p3928
g2790
sVcom.huawei.android.launcher
p3929
g2402
sVcom.tencent.android.qqdownloader
p3930
g651
sg3040
g1683
sg167
g1920
sVcom.tencent.mm
p3931
g2945
sg3048
g2052
sVcom.ifeng.news2
p3932
g803
ssg311
(dp3933
g3054
g2404
sVcom.kingroot.kinguser
p3934
g2501
sg3258
g1055
sg1001
g653
ssg313
(dp3935
g3289
g1441
sVcom.qihoo.cleandroid_cn
p3936
g467
sVcom.huawei.flashlight
p3937
g966
sVcom.android.deskclock
p3938
g513
sg1584
g2696
sg858
g650
sg1286
g2055
sg1366
g1616
sg854
g945
sg3649
g1575
sg3741
g2794
sg491
g551
sg1621
g2155
sVcom.ifeng.news2
p3939
g806
sVcom.android.phone
p3940
g1686
sg3430
g1694
sVcom.tencent.mm
p3941
g2949
sg3654
g2186
sg3083
g1409
sg2780
g2446
sVcom.Astro.UI
p3942
g1186
sg3767
g1796
sVcom.huawei.android.launcher
p3943
g2406
sg1028
g1494
sVcom.tencent.mobileqq
p3944
g1057
sVmark.via
p3945
g1147
sg2944
g3028
sg3765
g1399
sg1797
g2555
sg3660
g1333
sVcom.huawei.android.totemweather
p3946
g2544
ssg315
(dp3947
Vcom.android.deskclock
p3948
g518
sVcom.huawei.android.launcher
p3949
g2411
ssg317
(dp3950
g705
g1546
sVcom.huawei.android.launcher
p3951
g2407
sVcom.feistma.appmove
p3952
g707
ssg319
(dp3953
sg321
(dp3954
Vcom.qihoo.browser
p3955
g1801
sVcom.huawei.android.launcher
p3956
g2408
sVcom.tencent.android.qqdownloader
p3957
g660
ssg323
(dp3958
g740
g366
sVcom.android.packageinstaller
p3959
g896
sg1297
g2129
sVcom.huawei.android.launcher
p3960
g2409
sg3685
g1290
sg516
g2615
sg3681
g764
ssg325
(dp3961
g205
g2210
sg3754
g2509
sg305
g3011
sVme.onemobile.android
p3962
g1558
sVcom.sinovatech.unicom.ui
p3963
g3043
sg2499
g2539
sVcom.android.mms
p3964
g3104
sg870
g2801
sg1658
g567
sg275
g2828
sVcom.huawei.hidisk
p3965
g2162
sVcom.qihoo.browser
p3966
g1805
sg3241
g2410
sg3244
g1691
sg3855
g1337
sVcom.tencent.mobileqq
p3967
g1063
sg3246
g2060
ssg327
(dp3968
Vcom.tencent.android.qqdownloader
p3969
g662
sssS'adj'
p3970
g332
sb.