ccopy_reg
_reconstructor
p1
(cnetworkx.classes.digraph
DiGraph
p2
c__builtin__
object
p3
NtRp4
(dp5
S'node'
p6
(dp7
Vcom.android.browser
p8
(dp9
S'weight'
p10
F0.0088844734601192174
ssVcom.lingan.seeyou
p11
(dp12
g10
F0.00033674812272598253
ssVcom.youdao.dict
p13
(dp14
g10
F0.0056111784894072713
ssVcom.suning.mobile.ebuy
p15
(dp16
g10
F0.00038319613965370422
ssVone.hh.oneclient
p17
(dp18
g10
F0.0016927721724769695
ssVcom.oppo.flashlight
p19
(dp20
g10
F0.00047222150543183754
ssVcom.qiyi.video
p21
(dp22
g10
F0.03335741749025882
ssVcom.tengchong.juhuiwan
p23
(dp24
g10
F3.8706680773101438e-06
ssVcom.oppo.launcher
p25
(dp26
g10
F0.49161355249916133
ssVcom.douban.daily
p27
(dp28
g10
F9.0315588470570015e-06
ssVcom.taobao.taobao
p29
(dp30
g10
F0.010480478930663433
ssVcom.sankuai.meituan
p31
(dp32
g10
F0.00021417696694449461
ssVcom.oppo.gallery3d
p33
(dp34
g10
F0.00057930998890408489
ssVcom.sina.weibo
p35
(dp36
g10
F0.038226717931514977
ssVcom.eg.android.AlipayGphone
p37
(dp38
g10
F0.00179857043325678
ssVcn.dxy.android.aspirin
p39
(dp40
g10
F8.9025365778133309e-05
ssVcom.oppo.preventmode
p41
(dp42
g10
F0.0025417387041003275
ssVcom.zhihu.android
p43
(dp44
g10
F0.0056743994013366706
ssVcom.ywqc.three
p45
(dp46
g10
F0.021702835909477976
ssVcn.wps.moffice_eng
p47
(dp48
g10
F0.0013650556085980439
ssVcom.qihoo.freewifi
p49
(dp50
g10
F0.0031907207183959952
ssVcom.android.packageinstaller
p51
(dp52
g10
F7.3542693468892737e-05
ssVcom.oppo.camera
p53
(dp54
g10
F0.00048770417774107809
ssVme.ele
p55
(dp56
g10
F0.01057982607798106
ssVcom.qihoo360.mobilesafe
p57
(dp58
g10
F0.016574200707042037
ssVcom.tencent.tmgp.qjnn
p59
(dp60
g10
F0.079244187546770567
ssVcom.android.phone
p61
(dp62
g10
F0.022378912600314816
ssVcom.tencent.mobileqq
p63
(dp64
g10
F0.046244161742316721
ssVcom.duomi.android
p65
(dp66
g10
F0.00745748716228421
ssVcom.android.calculator2
p67
(dp68
g10
F0.001057982607798106
ssVcom.oppo.filemanager
p69
(dp70
g10
F5.5479575774778728e-05
ssVcom.qihoo.secstore
p71
(dp72
g10
F0.00078316517430908577
ssVcn.ledongli.ldl
p73
(dp74
g10
F0.0010025030320233272
ssVfm.xiami.main
p75
(dp76
g10
F0.0014940778778417155
ssVcom.nearme.themespace
p77
(dp78
g10
F0.00048125306427889455
ssVcom.qihoo360.contacts
p79
(dp80
g10
F0.036971331251774056
ssVcom.oppo.weather
p81
(dp82
g10
F0.0017921193197945966
ssVcom.android.dialer
p83
(dp84
g10
F7.4832916161329449e-05
ssVcom.Qunar
p85
(dp86
g10
F0.00029417077387557095
ssVcom.jzyd.BanTang
p87
(dp88
g10
F0.00023353030733104535
ssVcom.dianping.v1
p89
(dp90
g10
F0.00047222150543183754
ssVcom.MobileTicket
p91
(dp92
g10
F0.00055479575774778722
ssVcom.douban.frodo
p93
(dp94
g10
F0.00022836941656129847
ssVcom.kibey.echo
p95
(dp96
g10
F0.012006812375816066
ssVcom.android.calendar
p97
(dp98
g10
F5.2899130389905297e-05
ssVcom.tencent.mm
p99
(dp100
g10
F0.093600495445513895
ssVcom.oppo.market
p101
(dp102
g10
F5.1608907697468585e-06
ssVcom.android.mms
p103
(dp104
g10
F0.0068781771733801254
ssVcom.shanbay.words
p105
(dp106
g10
F0.020751941785152116
ssVcom.xiaoenai.app
p107
(dp108
g10
F0.006706577555286042
ssVcom.greenpoint.android.mc10086.activity
p109
(dp110
g10
F0.00073671715738136403
ssVcom.android.settings
p111
(dp112
g10
F9.8056924625190307e-05
ssVcom.oppo.alarmclock
p113
(dp114
g10
F0.00053028152659148967
ssVcom.sankuai.meituan.takeoutnew
p115
(dp116
g10
F0.0018630815678786158
ssVcom.oppo.speechassist
p117
(dp118
g10
F6.4511134621835731e-06
sssS'graph'
p119
(dp120
sS'succ'
p121
(dp122
g8
(dp123
Vcom.android.dialer
p124
(dp125
g10
F0.90000000000000002
ssg15
(dp126
g10
F3.6000000000000001
ssVcom.qihoo.freewifi
p127
(dp128
g10
F2.7999999999999998
ssVcn.ledongli.ldl
p129
(dp130
g10
F0.90000000000000002
ssVcom.tencent.mobileqq
p131
(dp132
g10
F5
ssVcom.sina.weibo
p133
(dp134
g10
F1.3
ssVcom.android.mms
p135
(dp136
g10
F3.3999999999999999
ssVme.ele
p137
(dp138
g10
I1
ssVcom.qihoo360.contacts
p139
(dp140
g10
F16.5
ssVcom.oppo.launcher
p141
(dp142
g10
F51.5
ssVcom.tencent.tmgp.qjnn
p143
(dp144
g10
F1.8999999999999999
ssVcom.ywqc.three
p145
(dp146
g10
F0.90000000000000002
ssVcom.qihoo360.mobilesafe
p147
(dp148
g10
F5.5
ssVcom.oppo.alarmclock
p149
(dp150
g10
F0.90000000000000002
ssVcom.tencent.mm
p151
(dp152
g10
F14.300000000000004
ssVcom.duomi.android
p153
(dp154
g10
F0.90000000000000002
ssVcom.eg.android.AlipayGphone
p155
(dp156
g10
F0.69999999999999996
sssg11
(dp157
Vcom.oppo.launcher
p158
(dp159
g10
F5.0000000000000009
ssVcom.tencent.mm
p160
(dp161
g10
F4.1000000000000005
ssVcom.qihoo360.contacts
p162
(dp163
g10
F3.2999999999999998
sssg13
(dp164
Vcom.android.browser
p165
(dp166
g10
F1.8
ssVcom.qihoo.secstore
p167
(dp168
g10
F0.69999999999999996
ssVcom.qihoo.freewifi
p169
(dp170
g10
F0.40000000000000002
ssVcom.tencent.mobileqq
p171
(dp172
g10
F0.90000000000000002
ssVcom.qihoo360.mobilesafe
p173
(dp174
g10
F1.7000000000000002
ssVcom.oppo.launcher
p175
(dp176
g10
F9.7999999999999989
ssVcom.tencent.mm
p177
(dp178
g10
F1.1000000000000001
ssVcom.shanbay.words
p179
(dp180
g10
F1.3
sssg15
(dp181
Vcom.oppo.launcher
p182
(dp183
g10
F1.3
ssVcom.android.browser
p184
(dp185
g10
F3.1000000000000001
ssg135
(dp186
g10
F2.7000000000000002
sssg17
(dp187
Vcom.oppo.launcher
p188
(dp189
g10
F2.8999999999999999
ssVcom.android.browser
p190
(dp191
g10
I1
ssVcom.kibey.echo
p192
(dp193
g10
I1
ssVcom.tencent.mobileqq
p194
(dp195
g10
F0.90000000000000002
sssg19
(dp196
Vcom.oppo.launcher
p197
(dp198
g10
F3.7000000000000002
ssVcom.tencent.mm
p199
(dp200
g10
F3.2000000000000002
ssVcom.tencent.mobileqq
p201
(dp202
g10
F0.90000000000000002
sssg21
(dp203
Vcom.oppo.preventmode
p204
(dp205
g10
I2
ssVcom.xiaoenai.app
p206
(dp207
g10
F1.8999999999999999
ssVcom.android.dialer
p208
(dp209
g10
F0.90000000000000002
ssVcn.ledongli.ldl
p210
(dp211
g10
F1.7
ssVcom.sina.weibo
p212
(dp213
g10
F1.7000000000000002
ssVcom.qihoo360.contacts
p214
(dp215
g10
F3.5
ssVcom.oppo.launcher
p216
(dp217
g10
F22.599999999999994
ssVcom.tencent.tmgp.qjnn
p218
(dp219
g10
F0.90000000000000002
ssVcom.qihoo360.mobilesafe
p220
(dp221
g10
F2.7999999999999998
ssVcom.android.phone
p222
(dp223
g10
F2.3999999999999999
ssVcom.oppo.alarmclock
p224
(dp225
g10
F0.69999999999999996
ssVcom.tencent.mm
p226
(dp227
g10
F4.8000000000000007
ssVcom.tencent.mobileqq
p228
(dp229
g10
F0.40000000000000002
sssg23
(dp230
Vcom.oppo.launcher
p231
(dp232
g10
I1
sssg25
(dp233
g8
(dp234
g10
F55.199999999999996
ssg11
(dp235
g10
F7.7000000000000011
ssg13
(dp236
g10
F8.4000000000000004
ssg15
(dp237
g10
F2.0999999999999996
ssg17
(dp238
g10
F3.3999999999999999
ssg19
(dp239
g10
F5.7000000000000002
ssg21
(dp240
g10
F22.899999999999995
ssg23
(dp241
g10
F3.3999999999999999
ssg27
(dp242
g10
F1.7
ssg29
(dp243
g10
F15.799999999999999
ssg31
(dp244
g10
I1
ssg33
(dp245
g10
F8.0999999999999996
ssVcom.sina.weibo
p246
(dp247
g10
F64.800000000000026
ssg37
(dp248
g10
F18.799999999999997
ssg39
(dp249
g10
F1.7
ssVcom.oppo.preventmode
p250
(dp251
g10
F47.299999999999997
ssVcom.zhihu.android
p252
(dp253
g10
F6.7000000000000002
ssVcom.ywqc.three
p254
(dp255
g10
F20.199999999999999
ssVcn.wps.moffice_eng
p256
(dp257
g10
F4.7000000000000002
ssg49
(dp258
g10
F22.199999999999992
ssg51
(dp259
g10
F1.6000000000000001
ssVcom.oppo.camera
p260
(dp261
g10
F3.3999999999999999
ssg55
(dp262
g10
F23.999999999999993
ssg57
(dp263
g10
F40.799999999999997
ssg59
(dp264
g10
F67.900000000000006
ssg61
(dp265
g10
F67.999999999999972
ssg63
(dp266
g10
F107.00000000000004
ssg65
(dp267
g10
F15.700000000000001
ssg115
(dp268
g10
F13.899999999999999
ssg69
(dp269
g10
F1.7
ssVcom.qihoo.secstore
p270
(dp271
g10
F6.6000000000000014
ssg73
(dp272
g10
F27.199999999999996
ssg75
(dp273
g10
I1
ssg77
(dp274
g10
F6.0999999999999996
ssg79
(dp275
g10
F172.70000000000007
ssg81
(dp276
g10
F21.899999999999999
ssg83
(dp277
g10
F28.799999999999994
ssVcom.Qunar
p278
(dp279
g10
F2.7000000000000002
ssg87
(dp280
g10
I2
ssg89
(dp281
g10
F5.2999999999999998
ssg91
(dp282
g10
F1.7
ssg93
(dp283
g10
I1
ssVcom.kibey.echo
p284
(dp285
g10
F13.000000000000002
ssg97
(dp286
g10
F3.7000000000000002
ssVcom.tencent.mm
p287
(dp288
g10
F426.99999999999909
ssg101
(dp289
g10
I2
ssg103
(dp290
g10
F50.499999999999993
ssg105
(dp291
g10
F16.299999999999997
ssg107
(dp292
g10
F21.499999999999996
ssg111
(dp293
g10
F9.5
ssg113
(dp294
g10
F13.4
ssVcom.android.calculator2
p295
(dp296
g10
F2.7000000000000002
ssg117
(dp297
g10
F0.90000000000000002
sssg27
(dp298
sg29
(dp299
Vcom.android.browser
p300
(dp301
g10
F0.90000000000000002
ssVcom.android.settings
p302
(dp303
g10
F0.90000000000000002
ssVcom.android.mms
p304
(dp305
g10
F3.5999999999999996
ssg77
(dp306
g10
F0.40000000000000002
ssVcom.qihoo360.contacts
p307
(dp308
g10
F2.7000000000000002
ssVcom.oppo.launcher
p309
(dp310
g10
F16.199999999999996
ssVcom.tencent.tmgp.qjnn
p311
(dp312
g10
F0.90000000000000002
ssVcom.android.phone
p313
(dp314
g10
F0.69999999999999996
ssVcom.oppo.gallery3d
p315
(dp316
g10
I1
ssVcom.tencent.mm
p317
(dp318
g10
F7.0999999999999996
ssVcom.eg.android.AlipayGphone
p319
(dp320
g10
F1.3
ssg117
(dp321
g10
I1
sssg31
(dp322
Vcom.oppo.launcher
p323
(dp324
g10
F1.8999999999999999
ssVcom.tencent.mm
p325
(dp326
g10
F1.8999999999999999
sssg33
(dp327
Vcom.oppo.preventmode
p328
(dp329
g10
F0.90000000000000002
ssVcom.xiaoenai.app
p330
(dp331
g10
F1.3
ssVcom.tencent.mobileqq
p332
(dp333
g10
F1.3999999999999999
ssVcom.taobao.taobao
p334
(dp335
g10
I1
ssVcom.oppo.launcher
p336
(dp337
g10
F8.7000000000000011
ssVcom.tencent.tmgp.qjnn
p338
(dp339
g10
F1.3
ssVcom.tencent.mm
p340
(dp341
g10
F0.90000000000000002
sssg35
(dp342
Vcom.zhihu.android
p343
(dp344
g10
F0.90000000000000002
ssVcom.android.dialer
p345
(dp346
g10
F1.8
ssVcom.kibey.echo
p347
(dp348
g10
F3.5999999999999996
ssVcom.qihoo.freewifi
p349
(dp350
g10
F1.3
ssVcom.tencent.mobileqq
p351
(dp352
g10
F9.1999999999999993
ssVcom.qihoo360.mobilesafe
p353
(dp354
g10
F3.4000000000000004
ssVcom.android.mms
p355
(dp356
g10
F4.0999999999999996
ssVcom.tencent.tmgp.qjnn
p357
(dp358
g10
F1.7
ssg79
(dp359
g10
F2.5999999999999996
ssVcom.taobao.taobao
p360
(dp361
g10
F1.3
ssVcom.oppo.launcher
p362
(dp363
g10
F67.800000000000026
ssVme.ele
p364
(dp365
g10
F2.2999999999999998
ssVcom.ywqc.three
p366
(dp367
g10
F1.8
ssVcom.qiyi.video
p368
(dp369
g10
F2.5
ssVcom.android.phone
p370
(dp371
g10
F3.3999999999999999
ssg224
(dp372
g10
I1
ssVcom.oppo.gallery3d
p373
(dp374
g10
F0.90000000000000002
ssVcom.tencent.mm
p375
(dp376
g10
F79.300000000000054
ssVcom.duomi.android
p377
(dp378
g10
I1
ssVcom.oppo.flashlight
p379
(dp380
g10
F0.90000000000000002
sssg37
(dp381
Vcom.android.browser
p382
(dp383
g10
F0.69999999999999996
ssVcom.android.mms
p384
(dp385
g10
I2
ssVcom.tencent.tmgp.qjnn
p386
(dp387
g10
F1.3999999999999999
ssVcom.qihoo360.contacts
p388
(dp389
g10
F5.1000000000000005
ssVcom.oppo.launcher
p390
(dp391
g10
F10.4
ssVme.ele
p392
(dp393
g10
F5
ssVcom.taobao.taobao
p394
(dp395
g10
F1.3
ssVcom.tencent.mm
p396
(dp397
g10
F7.8000000000000016
ssVcom.shanbay.words
p398
(dp399
g10
F0.90000000000000002
ssg117
(dp400
g10
F0.69999999999999996
sssg39
(dp401
Vcom.oppo.launcher
p402
(dp403
g10
F1.7
ssVcom.qihoo.secstore
p404
(dp405
g10
I1
sssg41
(dp406
Vcom.android.dialer
p407
(dp408
g10
F1.3
ssVcom.kibey.echo
p409
(dp410
g10
I1
ssVcom.qihoo.freewifi
p411
(dp412
g10
F0.69999999999999996
ssVcom.android.calendar
p413
(dp414
g10
I1
ssVcom.tencent.mm
p415
(dp416
g10
F5.3000000000000007
ssVcom.android.settings
p417
(dp418
g10
F0.69999999999999996
ssVcom.android.mms
p419
(dp420
g10
F2.2000000000000002
ssVcom.qihoo360.contacts
p421
(dp422
g10
F13.100000000000001
ssVcom.oppo.weather
p423
(dp424
g10
F2.6000000000000001
ssVcom.oppo.launcher
p425
(dp426
g10
F26.099999999999998
ssVcom.tencent.tmgp.qjnn
p427
(dp428
g10
I1
ssVcom.ywqc.three
p429
(dp430
g10
I1
ssVcom.oppo.camera
p431
(dp432
g10
I1
ssVcom.android.phone
p433
(dp434
g10
F0.69999999999999996
ssg246
(dp435
g10
F1.1000000000000001
ssVcom.oppo.flashlight
p436
(dp437
g10
F0.90000000000000002
ssVcom.tencent.mobileqq
p438
(dp439
g10
F3.6000000000000001
sssg43
(dp440
Vcom.tencent.mobileqq
p441
(dp442
g10
F2.2999999999999998
ssVcom.android.mms
p443
(dp444
g10
F0.90000000000000002
ssg21
(dp445
g10
F0.90000000000000002
ssVcom.oppo.launcher
p446
(dp447
g10
F7.8000000000000007
ssVcom.qihoo360.contacts
p448
(dp449
g10
F4.7999999999999998
ssVcom.tencent.mm
p450
(dp451
g10
F11.5
sssg45
(dp452
Vcom.oppo.preventmode
p453
(dp454
g10
I2
ssVcom.android.browser
p455
(dp456
g10
F0.90000000000000002
ssVcom.android.dialer
p457
(dp458
g10
F0.90000000000000002
ssVcom.qihoo.secstore
p459
(dp460
g10
F0.90000000000000002
ssVcom.qihoo.freewifi
p461
(dp462
g10
F1.3
ssVcom.tencent.mobileqq
p463
(dp464
g10
F1.8999999999999999
ssVcom.android.mms
p465
(dp466
g10
I1
ssg57
(dp467
g10
F4.5
ssg81
(dp468
g10
F0.40000000000000002
ssVcom.oppo.launcher
p469
(dp470
g10
F25.499999999999993
ssg59
(dp471
g10
F0.80000000000000004
ssVcom.qihoo360.contacts
p472
(dp473
g10
F3.5
ssVcom.android.phone
p474
(dp475
g10
F0.90000000000000002
ssVcom.tencent.mm
p476
(dp477
g10
F7.0000000000000009
sssg47
(dp478
Vcom.oppo.filemanager
p479
(dp480
g10
F6.1000000000000005
ssVcom.android.browser
p481
(dp482
g10
F0.90000000000000002
ssVcom.tencent.mobileqq
p483
(dp484
g10
F4.4000000000000004
ssVcom.qihoo360.contacts
p485
(dp486
g10
F0.69999999999999996
ssVcom.oppo.launcher
p487
(dp488
g10
F7.6000000000000014
ssVcom.oppo.alarmclock
p489
(dp490
g10
I1
ssVcom.tencent.mm
p491
(dp492
g10
F5.7000000000000002
sssg49
(dp493
Vcom.android.browser
p494
(dp495
g10
F2.8999999999999999
ssVcom.tencent.mobileqq
p496
(dp497
g10
F0.90000000000000002
ssVcom.qiyi.video
p498
(dp499
g10
F0.90000000000000002
ssVcom.oppo.launcher
p500
(dp501
g10
F16.899999999999999
ssVcom.tencent.tmgp.qjnn
p502
(dp503
g10
F3.7000000000000002
ssVcom.tencent.mm
p504
(dp505
g10
F1.3
sssg51
(dp506
Vcom.tencent.mm
p507
(dp508
g10
F1.3999999999999999
ssVcom.qihoo.secstore
p509
(dp510
g10
F1.8999999999999999
ssVcom.qihoo360.mobilesafe
p511
(dp512
g10
F1.7
sssg53
(dp513
Vcom.oppo.preventmode
p514
(dp515
g10
I1
ssVcom.xiaoenai.app
p516
(dp517
g10
F0.90000000000000002
ssVcom.tencent.mobileqq
p518
(dp519
g10
F1.7
ssVcom.oppo.launcher
p520
(dp521
g10
F7.1000000000000005
ssVcom.oppo.gallery3d
p522
(dp523
g10
F0.40000000000000002
ssVcom.tencent.mm
p524
(dp525
g10
F2.2000000000000002
sssg55
(dp526
Vcom.android.browser
p527
(dp528
g10
I1
ssg93
(dp529
g10
F0.90000000000000002
ssVcom.qihoo360.contacts
p530
(dp531
g10
F1.3
ssVcom.qihoo.freewifi
p532
(dp533
g10
F0.90000000000000002
ssVone.hh.oneclient
p534
(dp535
g10
F0.40000000000000002
ssVcom.android.mms
p536
(dp537
g10
F3.2999999999999998
ssVcom.qihoo360.mobilesafe
p538
(dp539
g10
F1.7
ssVcom.taobao.taobao
p540
(dp541
g10
F0.40000000000000002
ssVcom.oppo.launcher
p542
(dp543
g10
F26.199999999999992
ssg498
(dp544
g10
F0.40000000000000002
ssVcom.oppo.weather
p545
(dp546
g10
F0.40000000000000002
ssVcom.tencent.mm
p547
(dp548
g10
F28.199999999999992
ssVcom.eg.android.AlipayGphone
p549
(dp550
g10
F4.9000000000000004
ssVcom.sankuai.meituan.takeoutnew
p551
(dp552
g10
F3.5
sssg57
(dp553
Vcom.android.browser
p554
(dp555
g10
F2.2999999999999998
ssVcom.kibey.echo
p556
(dp557
g10
F4.0999999999999996
ssg71
(dp558
g10
F16.199999999999999
ssg15
(dp559
g10
F1.7
ssg540
(dp560
g10
F0.69999999999999996
ssVcn.ledongli.ldl
p561
(dp562
g10
F0.90000000000000002
ssVcom.tencent.mm
p563
(dp564
g10
F9.8000000000000007
ssg51
(dp565
g10
F2.5999999999999996
ssg135
(dp566
g10
F2.3999999999999999
ssVcom.qihoo360.contacts
p567
(dp568
g10
F4
ssg81
(dp569
g10
F0.90000000000000002
ssVcom.oppo.launcher
p570
(dp571
g10
F31.499999999999993
ssVcom.sina.weibo
p572
(dp573
g10
I1
ssVcom.tencent.tmgp.qjnn
p574
(dp575
g10
F0.90000000000000002
ssg85
(dp576
g10
F1.7
ssVcom.android.phone
p577
(dp578
g10
F1.7
ssVcom.qiyi.video
p579
(dp580
g10
I1
ssVcom.tencent.mobileqq
p581
(dp582
g10
I1
ssVcom.eg.android.AlipayGphone
p583
(dp584
g10
F2.7000000000000002
ssg39
(dp585
g10
F0.69999999999999996
sssg59
(dp586
Vcom.android.browser
p587
(dp588
g10
F1.8
ssg11
(dp589
g10
F0.40000000000000002
ssVcom.suning.mobile.ebuy
p590
(dp591
g10
I1
ssVcom.qiyi.video
p592
(dp593
g10
I2
ssVcom.oppo.launcher
p594
(dp595
g10
F111.50000000000009
ssVcom.taobao.taobao
p596
(dp597
g10
F0.40000000000000002
ssVcom.oppo.gallery3d
p598
(dp599
g10
F0.40000000000000002
ssVcom.sina.weibo
p600
(dp601
g10
F4
ssVcom.oppo.preventmode
p602
(dp603
g10
F2.8999999999999999
ssg345
(dp604
g10
F1.3
ssVcn.wps.moffice_eng
p605
(dp606
g10
F0.69999999999999996
ssVcom.qihoo.freewifi
p607
(dp608
g10
F2.7999999999999998
ssVcom.qihoo360.mobilesafe
p609
(dp610
g10
F7.2000000000000011
ssVme.ele
p611
(dp612
g10
F0.90000000000000002
ssVcom.android.phone
p613
(dp614
g10
F7.3999999999999995
ssVcom.tencent.mobileqq
p615
(dp616
g10
F6.8000000000000007
ssVcom.shanbay.words
p617
(dp618
g10
F0.90000000000000002
ssg71
(dp619
g10
F0.40000000000000002
ssVcn.ledongli.ldl
p620
(dp621
g10
I1
ssVcom.qihoo360.contacts
p622
(dp623
g10
F1.8
ssVcom.oppo.weather
p624
(dp625
g10
F0.90000000000000002
ssVcom.ywqc.three
p626
(dp627
g10
F0.90000000000000002
ssg206
(dp628
g10
F2.5
ssVcom.android.calendar
p629
(dp630
g10
F0.90000000000000002
ssVcom.tencent.mm
p631
(dp632
g10
F36.999999999999972
ssVcom.android.mms
p633
(dp634
g10
F2.2000000000000002
ssVcom.android.settings
p635
(dp636
g10
F0.90000000000000002
ssVcom.oppo.alarmclock
p637
(dp638
g10
F1.3
sssg61
(dp639
Vcom.android.browser
p640
(dp641
g10
F0.90000000000000002
ssVcom.xiaoenai.app
p642
(dp643
g10
F0.90000000000000002
ssVcom.android.dialer
p644
(dp645
g10
F6.5000000000000009
ssg71
(dp646
g10
F1.3
ssVcom.tencent.mm
p647
(dp648
g10
F9.1000000000000014
ssVcom.sina.weibo
p649
(dp650
g10
F4.4000000000000004
ssVcom.android.mms
p651
(dp652
g10
F3
ssg55
(dp653
g10
F0.40000000000000002
ssVcom.qihoo360.contacts
p654
(dp655
g10
F31.499999999999996
ssVcom.oppo.weather
p656
(dp657
g10
F0.69999999999999996
ssVcom.oppo.launcher
p658
(dp659
g10
F39.399999999999991
ssVcom.tencent.tmgp.qjnn
p660
(dp661
g10
F3.7000000000000002
ssVcom.qihoo360.mobilesafe
p662
(dp663
g10
F8.4000000000000004
ssVcom.oppo.alarmclock
p664
(dp665
g10
F0.90000000000000002
ssVcom.jzyd.BanTang
p666
(dp667
g10
I1
ssVcom.qiyi.video
p668
(dp669
g10
F1.8999999999999999
ssVcom.tencent.mobileqq
p670
(dp671
g10
F3.6000000000000001
ssVcom.eg.android.AlipayGphone
p672
(dp673
g10
F1.3
ssg115
(dp674
g10
F2.2000000000000002
sssg63
(dp675
Vcom.android.browser
p676
(dp677
g10
F2.7000000000000002
ssg19
(dp678
g10
F0.90000000000000002
ssg469
(dp679
g10
F75.800000000000011
ssVcom.oppo.gallery3d
p680
(dp681
g10
I1
ssVcom.sina.weibo
p682
(dp683
g10
F9.4000000000000004
ssVcom.oppo.preventmode
p684
(dp685
g10
F0.90000000000000002
ssVcom.zhihu.android
p686
(dp687
g10
F1.3999999999999999
ssVcom.ywqc.three
p688
(dp689
g10
F1.3999999999999999
ssg256
(dp690
g10
F4.4000000000000004
ssg360
(dp691
g10
F0.69999999999999996
ssVcom.tencent.tmgp.qjnn
p692
(dp693
g10
F2.7999999999999998
ssVcom.android.phone
p694
(dp695
g10
F1.3999999999999999
ssg476
(dp696
g10
F31.299999999999994
ssVcom.shanbay.words
p697
(dp698
g10
F0.69999999999999996
ssVcom.qihoo360.contacts
p699
(dp700
g10
F5.6000000000000005
ssVcom.oppo.weather
p701
(dp702
g10
I1
ssVcom.android.dialer
p703
(dp704
g10
F3.1000000000000001
ssVcom.dianping.v1
p705
(dp706
g10
F1.7000000000000002
ssVcom.xiaoenai.app
p707
(dp708
g10
F1.6000000000000001
ssVcom.android.calendar
p709
(dp710
g10
F2.7000000000000002
ssVcom.android.mms
p711
(dp712
g10
F2.2000000000000002
ssg489
(dp713
g10
F0.90000000000000002
sssg65
(dp714
g8
(dp715
g10
F1.6000000000000001
ssVcom.qihoo.freewifi
p716
(dp717
g10
I1
ssVcn.ledongli.ldl
p718
(dp719
g10
I1
ssVcom.sina.weibo
p720
(dp721
g10
F2.2999999999999998
ssVcom.qihoo360.contacts
p722
(dp723
g10
F0.40000000000000002
ssVcom.oppo.launcher
p724
(dp725
g10
F10.4
ssVcom.oppo.alarmclock
p726
(dp727
g10
F2.7000000000000002
ssVcom.tencent.mm
p728
(dp729
g10
F7.2000000000000002
sssg67
(dp730
Vcom.oppo.launcher
p731
(dp732
g10
I2
sssg69
(dp733
Vcom.oppo.launcher
p734
(dp735
g10
F1.7
ssVcn.wps.moffice_eng
p736
(dp737
g10
F4.4000000000000004
sssg71
(dp738
g556
(dp739
g10
F2.2000000000000002
ssVcom.android.packageinstaller
p740
(dp741
g10
F1.8999999999999999
ssVcom.qihoo360.mobilesafe
p742
(dp743
g10
F9.7999999999999989
ssVcom.oppo.launcher
p744
(dp745
g10
F7
ssg85
(dp746
g10
F0.90000000000000002
ssVcom.tencent.mm
p747
(dp748
g10
F2.6000000000000001
ssg39
(dp749
g10
F2.2999999999999998
sssg73
(dp750
Vcom.ywqc.three
p751
(dp752
g10
F0.90000000000000002
ssVcom.android.mms
p753
(dp754
g10
F0.40000000000000002
ssg29
(dp755
g10
F0.90000000000000002
ssg89
(dp756
g10
I1
ssVcom.oppo.launcher
p757
(dp758
g10
F14.4
ssVcom.tencent.tmgp.qjnn
p759
(dp760
g10
F0.69999999999999996
ssVcom.tencent.mm
p761
(dp762
g10
F11.100000000000001
sssg75
(dp763
Vcom.oppo.launcher
p764
(dp765
g10
F3.7000000000000002
ssVcom.tencent.mobileqq
p766
(dp767
g10
F0.40000000000000002
ssVcom.sina.weibo
p768
(dp769
g10
F0.90000000000000002
sssg77
(dp770
Vcom.oppo.launcher
p771
(dp772
g10
I1
sssg79
(dp773
g676
(dp774
g10
F18.600000000000001
ssVcom.lingan.seeyou
p775
(dp776
g10
F1.8
ssg21
(dp777
g10
F3.5
ssVcom.oppo.launcher
p778
(dp779
g10
F110.2000000000001
ssg147
(dp780
g10
F2.2000000000000002
ssg33
(dp781
g10
F0.90000000000000002
ssVcom.sina.weibo
p782
(dp783
g10
F1.6000000000000001
ssVcom.eg.android.AlipayGphone
p784
(dp785
g10
F3.3999999999999999
ssVcom.oppo.preventmode
p786
(dp787
g10
F5.9000000000000004
ssVcom.zhihu.android
p788
(dp789
g10
I3
ssVcom.ywqc.three
p790
(dp791
g10
F2.2999999999999998
ssg411
(dp792
g10
F2.5
ssVme.ele
p793
(dp794
g10
F2.7000000000000002
ssVcom.taobao.taobao
p795
(dp796
g10
F1.8999999999999999
ssVcom.tencent.tmgp.qjnn
p797
(dp798
g10
F3.5
ssg61
(dp799
g10
F34.499999999999993
ssg131
(dp800
g10
F6.5000000000000009
ssVcom.shanbay.words
p801
(dp802
g10
F0.90000000000000002
ssVcom.sankuai.meituan.takeoutnew
p803
(dp804
g10
I1
ssVcn.ledongli.ldl
p805
(dp806
g10
F0.90000000000000002
ssg151
(dp807
g10
F28.599999999999987
ssg656
(dp808
g10
F1.3
ssg278
(dp809
g10
F0.90000000000000002
ssVcom.kibey.echo
p810
(dp811
g10
F0.69999999999999996
ssg111
(dp812
g10
F1.8
ssVcom.android.mms
p813
(dp814
g10
F3.2999999999999998
ssVcom.duomi.android
p815
(dp816
g10
F1.7000000000000002
ssg224
(dp817
g10
F2.1000000000000001
sssg81
(dp818
Vcom.oppo.launcher
p819
(dp820
g10
F7.7000000000000002
ssVcn.ledongli.ldl
p821
(dp822
g10
F0.90000000000000002
ssVcom.tencent.mobileqq
p823
(dp824
g10
F2.7000000000000002
sssg83
(dp825
Vcom.tencent.mobileqq
p826
(dp827
g10
F1.3999999999999999
ssg353
(dp828
g10
F0.90000000000000002
ssVcom.oppo.launcher
p829
(dp830
g10
F11.900000000000002
ssVcom.qihoo360.contacts
p831
(dp832
g10
F12.399999999999999
ssVcom.android.phone
p833
(dp834
g10
F10.199999999999999
ssVcom.tencent.mm
p835
(dp836
g10
F0.69999999999999996
sssg85
(dp837
Vcom.oppo.launcher
p838
(dp839
g10
F2.7000000000000002
ssVcom.tencent.mm
p840
(dp841
g10
F1.3
ssVcom.qihoo.secstore
p842
(dp843
g10
F0.90000000000000002
ssVcom.qihoo360.mobilesafe
p844
(dp845
g10
F0.69999999999999996
sssg87
(dp846
sg89
(dp847
Vcom.oppo.launcher
p848
(dp849
g10
F2.7000000000000002
ssg759
(dp850
g10
F0.90000000000000002
ssVcom.tencent.mm
p851
(dp852
g10
F4.5999999999999996
ssVcom.qihoo360.contacts
p853
(dp854
g10
F0.40000000000000002
sssg91
(dp855
Vcom.oppo.launcher
p856
(dp857
g10
I2
sssg93
(dp858
Vcom.oppo.launcher
p859
(dp860
g10
I1
ssg534
(dp861
g10
F0.90000000000000002
ssg190
(dp862
g10
F0.69999999999999996
sssg95
(dp863
Vcom.oppo.preventmode
p864
(dp865
g10
I2
ssg17
(dp866
g10
F0.40000000000000002
ssVcom.qihoo.secstore
p867
(dp868
g10
F0.90000000000000002
ssVcom.tencent.mm
p869
(dp870
g10
F14.700000000000001
ssg355
(dp871
g10
F0.40000000000000002
ssVcom.qihoo360.contacts
p872
(dp873
g10
F0.90000000000000002
ssVcom.oppo.launcher
p874
(dp875
g10
F19.699999999999999
ssVcom.qihoo360.mobilesafe
p876
(dp877
g10
I4
ssVcom.sina.weibo
p878
(dp879
g10
F1.7
ssVcom.duomi.android
p880
(dp881
g10
F1.8
ssVcom.oppo.flashlight
p882
(dp883
g10
F0.90000000000000002
sssg97
(dp884
Vcom.oppo.launcher
p885
(dp886
g10
F1.8999999999999999
ssg684
(dp887
g10
I1
ssVcom.tencent.mobileqq
p888
(dp889
g10
I1
sssg99
(dp890
Vcom.android.browser
p891
(dp892
g10
F13.800000000000002
ssg11
(dp893
g10
F5.5000000000000009
ssg15
(dp894
g10
F0.69999999999999996
ssg17
(dp895
g10
F0.90000000000000002
ssVcom.qiyi.video
p896
(dp897
g10
F2.7999999999999998
ssg23
(dp898
g10
F1.3
ssVcom.oppo.launcher
p899
(dp900
g10
F323.89999999999935
ssg27
(dp901
g10
F0.90000000000000002
ssVcom.qihoo360.mobilesafe
p902
(dp903
g10
F12.500000000000002
ssVcom.oppo.gallery3d
p904
(dp905
g10
F3.5
ssg246
(dp906
g10
F75.900000000000048
ssg37
(dp907
g10
F5.8000000000000007
ssg41
(dp908
g10
F7.3000000000000007
ssg252
(dp909
g10
F11.199999999999999
ssVcom.ywqc.three
p910
(dp911
g10
F1.8
ssg256
(dp912
g10
F2.3999999999999999
ssVcom.qihoo.freewifi
p913
(dp914
g10
F1.8
ssVcom.android.packageinstaller
p915
(dp916
g10
I1
ssg260
(dp917
g10
F1.8
ssg59
(dp918
g10
F19.5
ssVcom.taobao.taobao
p919
(dp920
g10
F11.9
ssVme.ele
p921
(dp922
g10
F25.599999999999991
ssVcom.android.phone
p923
(dp924
g10
F4.1000000000000005
ssVcom.tencent.mobileqq
p925
(dp926
g10
F39.79999999999999
ssVcom.shanbay.words
p927
(dp928
g10
F21.699999999999996
ssVcom.sankuai.meituan.takeoutnew
p929
(dp930
g10
F6.4000000000000004
ssVcom.qihoo.secstore
p931
(dp932
g10
F1.7
ssVcn.ledongli.ldl
p933
(dp934
g10
F11.4
ssg79
(dp935
g10
F32.899999999999977
ssVcom.dianping.v1
p936
(dp937
g10
F5.2999999999999998
ssVcom.android.dialer
p938
(dp939
g10
F2.6000000000000001
ssg278
(dp940
g10
F1.3
ssg545
(dp941
g10
F0.90000000000000002
ssg91
(dp942
g10
F0.90000000000000002
ssVcom.xiaoenai.app
p943
(dp944
g10
F7.9000000000000012
ssg284
(dp945
g10
F15.299999999999999
ssg111
(dp946
g10
F4.5
ssg711
(dp947
g10
F15.900000000000002
ssVcom.duomi.android
p948
(dp949
g10
F6.9000000000000004
ssg113
(dp950
g10
F2.2000000000000002
sssg101
(dp951
Vcom.oppo.launcher
p952
(dp953
g10
F2.7000000000000002
ssVcom.nearme.themespace
p954
(dp955
g10
F0.90000000000000002
ssVcom.qihoo360.contacts
p956
(dp957
g10
F0.90000000000000002
sssg103
(dp958
g676
(dp959
g10
F6.3999999999999995
ssVcom.xiaoenai.app
p960
(dp961
g10
F0.90000000000000002
ssVcom.kibey.echo
p962
(dp963
g10
F0.90000000000000002
ssVcom.youdao.dict
p964
(dp965
g10
I1
ssVcom.suning.mobile.ebuy
p966
(dp967
g10
F3.1000000000000001
ssVcom.tencent.mobileqq
p968
(dp969
g10
F2.6000000000000001
ssVcom.sina.weibo
p970
(dp971
g10
F2.7000000000000002
ssg417
(dp972
g10
I1
ssVcom.tencent.tmgp.qjnn
p973
(dp974
g10
I1
ssVcom.taobao.taobao
p975
(dp976
g10
F2.6000000000000001
ssVcom.oppo.weather
p977
(dp978
g10
F1.7
ssVcom.oppo.launcher
p979
(dp980
g10
F32.899999999999991
ssVme.ele
p981
(dp982
g10
F2.2999999999999998
ssg699
(dp983
g10
F14
ssVcom.qihoo360.mobilesafe
p984
(dp985
g10
F2.6000000000000001
ssg313
(dp986
g10
F2.2999999999999998
ssVcom.qiyi.video
p987
(dp988
g10
I1
ssVcom.tencent.mm
p989
(dp990
g10
F9.9000000000000004
ssVcom.shanbay.words
p991
(dp992
g10
F2.1000000000000001
ssg37
(dp993
g10
F4
ssg117
(dp994
g10
F0.40000000000000002
sssg105
(dp995
Vcom.oppo.preventmode
p996
(dp997
g10
I2
ssg91
(dp998
g10
F0.40000000000000002
ssVcom.zhihu.android
p999
(dp1000
g10
F1.3
ssVcom.tencent.mobileqq
p1001
(dp1002
g10
F0.90000000000000002
ssVcom.android.mms
p1003
(dp1004
g10
F3.1999999999999997
ssVcom.qihoo360.contacts
p1005
(dp1006
g10
F0.40000000000000002
ssVcom.oppo.launcher
p1007
(dp1008
g10
F19.899999999999999
ssVcom.taobao.taobao
p1009
(dp1010
g10
F0.40000000000000002
ssVcom.android.phone
p1011
(dp1012
g10
I1
ssg904
(dp1013
g10
F1.7
ssVcom.tencent.mm
p1014
(dp1015
g10
F25.299999999999997
sssg107
(dp1016
g69
(dp1017
g10
F0.90000000000000002
ssVcom.android.dialer
p1018
(dp1019
g10
F0.90000000000000002
ssVcom.tencent.mobileqq
p1020
(dp1021
g10
F2.2999999999999998
ssVcom.android.mms
p1022
(dp1023
g10
F1.6000000000000001
ssVcom.qiyi.video
p1024
(dp1025
g10
F1.8999999999999999
ssVcom.oppo.launcher
p1026
(dp1027
g10
F19.100000000000001
ssVcom.android.phone
p1028
(dp1029
g10
F0.69999999999999996
ssVcom.tencent.mm
p1030
(dp1031
g10
F5.5
sssg109
(dp1032
Vcom.oppo.launcher
p1033
(dp1034
g10
I1
ssVcom.android.browser
p1035
(dp1036
g10
F0.69999999999999996
ssVcom.qihoo360.contacts
p1037
(dp1038
g10
F2.2999999999999998
sssg111
(dp1039
Vcom.qihoo.freewifi
p1040
(dp1041
g10
I2
ssVcom.tencent.mm
p1042
(dp1043
g10
F2.2999999999999998
ssVcom.android.mms
p1044
(dp1045
g10
I1
ssg77
(dp1046
g10
F1.3
ssVcom.oppo.launcher
p1047
(dp1048
g10
F4.7000000000000002
ssVcom.sina.weibo
p1049
(dp1050
g10
F0.90000000000000002
sssg113
(dp1051
Vcom.kibey.echo
p1052
(dp1053
g10
I1
ssVcn.wps.moffice_eng
p1054
(dp1055
g10
I1
ssVcom.tencent.mm
p1056
(dp1057
g10
F1.3
ssVcom.oppo.launcher
p1058
(dp1059
g10
F5
ssVcom.sina.weibo
p1060
(dp1061
g10
I1
ssVcom.duomi.android
p1062
(dp1063
g10
F3.3999999999999999
ssVcom.tencent.mobileqq
p1064
(dp1065
g10
F0.90000000000000002
sssg115
(dp1066
g532
(dp1067
g10
F0.40000000000000002
ssg538
(dp1068
g10
F1.7
ssVcom.oppo.launcher
p1069
(dp1070
g10
F10.5
ssg55
(dp1071
g10
F4
ssVcom.qihoo360.contacts
p1072
(dp1073
g10
I1
ssg547
(dp1074
g10
F5.5000000000000009
sssg117
(dp1075
ssS'edge'
p1076
g122
sS'pred'
p1077
(dp1078
g8
(dp1079
g534
g191
sg93
g862
sVcom.ywqc.three
p1080
g456
sVcn.wps.moffice_eng
p1081
g482
sVcom.qihoo.freewifi
p1082
g495
sVcom.tencent.mm
p1083
g892
sg966
g185
sg711
g959
sVme.ele
p1084
g528
sg699
g774
sVcom.taobao.taobao
p1085
g301
sVcom.oppo.launcher
p1086
g234
sVcom.tencent.tmgp.qjnn
p1087
g588
sg147
g555
sVcom.greenpoint.android.mc10086.activity
p1088
g1036
sVcom.android.phone
p1089
g641
sVcom.tencent.mobileqq
p1090
g677
sg65
g715
sVcom.eg.android.AlipayGphone
p1091
g383
sVcom.youdao.dict
p1092
g166
ssg11
(dp1093
Vcom.oppo.launcher
p1094
g235
sVcom.tencent.tmgp.qjnn
p1095
g589
sVcom.tencent.mm
p1096
g893
sg162
g776
ssg13
(dp1097
Vcom.oppo.launcher
p1098
g236
sVcom.android.mms
p1099
g965
ssg15
(dp1100
Vcom.android.browser
p1101
g126
sg135
g967
sVcom.qihoo360.mobilesafe
p1102
g559
sVcom.oppo.launcher
p1103
g237
sVcom.tencent.tmgp.qjnn
p1104
g591
sVcom.tencent.mm
p1105
g894
ssg17
(dp1106
Vcom.oppo.launcher
p1107
g238
sVcom.tencent.mm
p1108
g895
sVme.ele
p1109
g535
sVcom.kibey.echo
p1110
g866
sg93
g861
ssg19
(dp1111
Vcom.oppo.launcher
p1112
g239
sVcom.sina.weibo
p1113
g380
sVcom.oppo.preventmode
p1114
g437
sVcom.tencent.mobileqq
p1115
g678
sVcom.kibey.echo
p1116
g883
ssg21
(dp1117
Vcom.zhihu.android
p1118
g445
sVcom.xiaoenai.app
p1119
g1025
sg532
g499
sVcom.tencent.mm
p1120
g897
sVcom.android.mms
p1121
g988
sVcom.tencent.tmgp.qjnn
p1122
g593
sVcom.qihoo360.contacts
p1123
g777
sVcom.oppo.launcher
p1124
g240
sg55
g544
sVcom.qihoo360.mobilesafe
p1125
g580
sVcom.android.phone
p1126
g669
sVcom.sina.weibo
p1127
g369
ssg23
(dp1128
Vcom.oppo.launcher
p1129
g241
sVcom.tencent.mm
p1130
g898
ssg25
(dp1131
g8
g142
sVcom.lingan.seeyou
p1132
g159
sVcom.youdao.dict
p1133
g176
sg966
g183
sg17
g189
sg19
g198
sg21
g217
sg23
g232
sVcom.taobao.taobao
p1134
g310
sg31
g324
sg33
g337
sg35
g363
sg37
g391
sg39
g403
sVcom.oppo.preventmode
p1135
g426
sg43
g447
sg45
g470
sg1081
g488
sg49
g501
sg53
g521
sg55
g543
sg57
g571
sg59
g595
sg613
g659
sVcom.tencent.mm
p1136
g900
sg65
g725
sg115
g1070
sVcom.oppo.filemanager
p1137
g735
sg71
g745
sg73
g758
sg75
g765
sg77
g772
sg79
g779
sVcom.oppo.weather
p1138
g820
sg345
g830
sg85
g839
sg89
g849
sg91
g857
sg93
g860
sg95
g875
sg709
g886
sg463
g679
sg101
g953
sg711
g980
sVcom.shanbay.words
p1139
g1008
sg107
g1027
sg1088
g1034
sg111
g1048
sg113
g1059
sg67
g732
ssg27
(dp1140
Vcom.oppo.launcher
p1141
g242
sVcom.tencent.mm
p1142
g901
ssg29
(dp1143
Vcn.ledongli.ldl
p1144
g755
sVcom.sina.weibo
p1145
g361
sg304
g976
sVcom.tencent.tmgp.qjnn
p1146
g597
sVcom.qihoo360.contacts
p1147
g796
sVcom.oppo.launcher
p1148
g243
sVme.ele
p1149
g541
sVcom.qihoo360.mobilesafe
p1150
g560
sg315
g335
sVcom.tencent.mm
p1151
g920
sg697
g1010
sg37
g395
sVcom.tencent.mobileqq
p1152
g691
ssg31
(dp1153
Vcom.oppo.launcher
p1154
g244
ssg33
(dp1155
Vcom.sina.weibo
p1156
g374
sVcom.oppo.camera
p1157
g523
sVcom.qihoo360.contacts
p1158
g781
sVcom.oppo.launcher
p1159
g245
sVcom.tencent.tmgp.qjnn
p1160
g599
sVcom.taobao.taobao
p1161
g316
sVcom.tencent.mm
p1162
g905
sVcom.shanbay.words
p1163
g1013
sVcom.tencent.mobileqq
p1164
g681
ssg35
(dp1165
g1135
g435
sVcom.android.browser
p1166
g134
sg284
g879
sVcom.tencent.mobileqq
p1167
g683
sVcom.android.phone
p1168
g650
sg355
g971
sVcom.qihoo360.mobilesafe
p1169
g573
sVcom.qihoo360.contacts
p1170
g783
sg425
g247
sVcom.tencent.tmgp.qjnn
p1171
g601
sVcom.qiyi.video
p1172
g213
sVfm.xiami.main
p1173
g769
sg224
g1061
sg415
g906
sVcom.duomi.android
p1174
g721
sg635
g1050
ssg37
(dp1175
Vcom.android.browser
p1176
g156
sVcom.android.mms
p1177
g993
sg388
g785
sg596
g320
sVcom.oppo.launcher
p1178
g248
sVme.ele
p1179
g550
sVcom.qihoo360.mobilesafe
p1180
g584
sVcom.android.phone
p1181
g673
sVcom.tencent.mm
p1182
g907
ssg39
(dp1183
Vcom.oppo.launcher
p1184
g249
sVcom.qihoo.secstore
p1185
g749
sVcom.qihoo360.mobilesafe
p1186
g585
ssg41
(dp1187
Vcom.ywqc.three
p1188
g454
sVcom.kibey.echo
p1189
g865
sVcom.android.calendar
p1190
g887
sVcom.tencent.mobileqq
p1191
g685
sVcom.oppo.camera
p1192
g515
sVcom.qihoo360.contacts
p1193
g787
sVcom.oppo.launcher
p1194
g251
sVcom.tencent.tmgp.qjnn
p1195
g603
sg592
g205
sg522
g329
sg99
g908
sVcom.shanbay.words
p1196
g997
ssg43
(dp1197
Vcom.sina.weibo
p1198
g344
sVcom.qihoo360.contacts
p1199
g789
sg446
g253
sg450
g909
sVcom.shanbay.words
p1200
g1000
sg441
g687
ssg45
(dp1201
g453
g430
sVcom.android.browser
p1202
g146
sVcn.ledongli.ldl
p1203
g752
sg463
g689
sVcom.sina.weibo
p1204
g367
sg472
g791
sVcom.oppo.launcher
p1205
g255
sVcom.tencent.tmgp.qjnn
p1206
g627
sVcom.tencent.mm
p1207
g911
ssg47
(dp1208
g479
g737
sVcom.tencent.mm
p1209
g912
sVcom.oppo.launcher
p1210
g257
sg218
g606
sg489
g1055
sVcom.tencent.mobileqq
p1211
g690
ssg49
(dp1212
Vcom.oppo.preventmode
p1213
g412
sVcom.android.browser
p1214
g128
sVcom.ywqc.three
p1215
g462
sVcom.youdao.dict
p1216
g170
sVcom.sina.weibo
p1217
g350
sVcom.tencent.tmgp.qjnn
p1218
g608
sg421
g792
sVcom.oppo.launcher
p1219
g258
sg55
g533
sVcom.android.settings
p1220
g1041
sVcom.tencent.mm
p1221
g914
sVcom.duomi.android
p1222
g717
sg115
g1067
ssg51
(dp1223
Vcom.oppo.launcher
p1224
g259
sg747
g916
sVcom.qihoo.secstore
p1225
g741
sVcom.qihoo360.mobilesafe
p1226
g565
ssg53
(dp1227
Vcom.oppo.launcher
p1228
g261
sg514
g432
sVcom.tencent.mm
p1229
g917
ssg55
(dp1230
g527
g138
sVcom.sina.weibo
p1231
g365
sVcom.android.mms
p1232
g982
sVcom.qihoo360.contacts
p1233
g794
sVcom.oppo.launcher
p1234
g262
sVcom.tencent.tmgp.qjnn
p1235
g612
sVcom.android.phone
p1236
g653
sVcom.tencent.mm
p1237
g922
sg549
g393
sg115
g1071
ssg57
(dp1238
g1133
g174
sVcom.android.browser
p1239
g148
sVcom.ywqc.three
p1240
g467
sg556
g877
sg71
g743
sVcom.tencent.mm
p1241
g903
sg51
g512
sVcom.android.mms
p1242
g985
sVme.ele
p1243
g539
sVcom.qihoo360.contacts
p1244
g780
sVcom.oppo.launcher
p1245
g263
sVcom.tencent.tmgp.qjnn
p1246
g610
sg345
g828
sg85
g845
sg577
g663
sVcom.qiyi.video
p1247
g221
sVcom.sina.weibo
p1248
g354
sg551
g1068
ssg59
(dp1249
g602
g428
sVcom.android.browser
p1250
g144
sg688
g471
sg461
g503
sVcn.ledongli.ldl
p1251
g760
sVcom.tencent.mobileqq
p1252
g693
sVcom.sina.weibo
p1253
g358
sVcom.qihoo360.mobilesafe
p1254
g575
sVcom.qiyi.video
p1255
g219
sg1242
g974
sg622
g798
sg89
g850
sg469
g264
sVcom.taobao.taobao
p1256
g312
sg613
g661
sVcom.oppo.gallery3d
p1257
g339
sg476
g918
sVcom.eg.android.AlipayGphone
p1258
g387
ssg61
(dp1259
Vcom.oppo.preventmode
p1260
g434
sVcom.xiaoenai.app
p1261
g1029
sg83
g834
sVcom.tencent.mm
p1262
g924
sVcom.sina.weibo
p1263
g371
sVcom.qihoo360.mobilesafe
p1264
g578
sg304
g986
sVcom.qihoo360.contacts
p1265
g799
sg975
g314
sVcom.oppo.launcher
p1266
g265
sVcom.tencent.tmgp.qjnn
p1267
g614
sVcom.ywqc.three
p1268
g475
sVcom.qiyi.video
p1269
g223
sVcom.tencent.mobileqq
p1270
g695
sVcom.shanbay.words
p1271
g1012
ssg63
(dp1272
g1035
g132
sVcom.youdao.dict
p1273
g172
sVone.hh.oneclient
p1274
g195
sg19
g202
sg1255
g229
sg25
g266
sg522
g333
sg35
g352
sVcom.oppo.preventmode
p1275
g439
sg43
g442
sg45
g464
sg47
g484
sg1082
g497
sg1192
g519
sVcom.qihoo360.mobilesafe
p1276
g582
sVcom.tencent.tmgp.qjnn
p1277
g616
sg474
g671
sVcom.tencent.mm
p1278
g926
sVcom.shanbay.words
p1279
g1002
sVcom.qihoo360.contacts
p1280
g800
sg977
g824
sg703
g827
sVcom.xiaoenai.app
p1281
g1021
sg709
g889
sVcom.android.mms
p1282
g969
sg1173
g767
sg489
g1065
ssg65
(dp1283
g8
g154
sVcom.kibey.echo
p1284
g881
sg720
g378
sVcom.qihoo360.contacts
p1285
g816
sg1086
g267
sVcom.oppo.alarmclock
p1286
g1063
sVcom.tencent.mm
p1287
g949
ssg67
(dp1288
Vcom.oppo.launcher
p1289
g296
ssg69
(dp1290
Vcom.oppo.launcher
p1291
g269
sg107
g1017
sVcn.wps.moffice_eng
p1292
g480
ssg71
(dp1293
Vcom.ywqc.three
p1294
g460
sg556
g868
sVcom.youdao.dict
p1295
g168
sg740
g510
sg1264
g558
sg744
g271
sVcom.tencent.tmgp.qjnn
p1296
g619
sg85
g843
sg577
g646
sg747
g932
sg39
g405
ssg73
(dp1297
Vcom.android.browser
p1298
g130
sVcom.qihoo360.mobilesafe
p1299
g562
sVcom.qiyi.video
p1300
g211
sVcom.oppo.weather
p1301
g822
sVcom.oppo.launcher
p1302
g272
sVcom.tencent.tmgp.qjnn
p1303
g621
sVcom.qihoo360.contacts
p1304
g806
sg226
g934
sVcom.duomi.android
p1305
g719
ssg75
(dp1306
Vcom.oppo.launcher
p1307
g273
ssg77
(dp1308
Vcom.oppo.launcher
p1309
g274
sg302
g1046
sg101
g955
sVcom.taobao.taobao
p1310
g306
ssg79
(dp1311
g676
g140
sVcom.lingan.seeyou
p1312
g163
sg21
g215
sVcom.oppo.launcher
p1313
g275
sg1134
g308
sg246
g359
sVcom.eg.android.AlipayGphone
p1314
g389
sg1213
g422
sVcom.zhihu.android
p1315
g449
sVcom.ywqc.three
p1316
g473
sVcn.wps.moffice_eng
p1317
g486
sVme.ele
p1318
g531
sg147
g568
sVcom.tencent.tmgp.qjnn
p1319
g623
sg61
g655
sg415
g935
sVcom.shanbay.words
p1320
g1006
sVcom.sankuai.meituan.takeoutnew
p1321
g1073
sg89
g854
sg208
g832
sg95
g873
sg1090
g700
sVcom.oppo.market
p1322
g957
sg711
g983
sVcom.duomi.android
p1323
g723
sg109
g1038
ssg81
(dp1324
Vcom.oppo.preventmode
p1325
g424
sg1240
g468
sVcom.tencent.mm
p1326
g941
sVcom.android.mms
p1327
g978
sVme.ele
p1328
g546
sVcom.qihoo360.contacts
p1329
g808
sg1245
g276
sVcom.tencent.tmgp.qjnn
p1330
g625
sg57
g569
sVcom.android.phone
p1331
g657
sg823
g702
ssg83
(dp1332
g1260
g408
sg640
g125
sg1261
g1019
sVcom.ywqc.three
p1333
g458
sVcom.tencent.mobileqq
p1334
g704
sVcom.tencent.mm
p1335
g939
sg1269
g209
sVcom.oppo.launcher
p1336
g277
sVcom.tencent.tmgp.qjnn
p1337
g604
sg833
g645
sg1248
g346
ssg85
(dp1338
Vcom.oppo.launcher
p1339
g279
sVcom.qihoo360.contacts
p1340
g809
sVcom.tencent.mm
p1341
g940
sVcom.qihoo.secstore
p1342
g746
sVcom.qihoo360.mobilesafe
p1343
g576
ssg87
(dp1344
Vcom.oppo.launcher
p1345
g280
sVcom.android.phone
p1346
g667
ssg89
(dp1347
Vcom.oppo.launcher
p1348
g281
sg1251
g756
sg851
g937
sVcom.tencent.mobileqq
p1349
g706
ssg91
(dp1350
g1007
g282
sVcom.tencent.mm
p1351
g942
sg1139
g998
ssg93
(dp1352
Vcom.oppo.launcher
p1353
g283
sg1109
g529
ssg95
(dp1354
g864
g410
sg17
g193
sg167
g739
sVcom.sina.weibo
p1355
g348
sg355
g963
sVcom.qihoo360.mobilesafe
p1356
g557
sVcom.oppo.launcher
p1357
g285
sVcom.qihoo360.contacts
p1358
g811
sg1286
g1053
sVcom.tencent.mm
p1359
g945
ssg97
(dp1360
Vcom.oppo.launcher
p1361
g286
sg684
g414
sVcom.tencent.tmgp.qjnn
p1362
g630
sVcom.tencent.mobileqq
p1363
g710
ssg99
(dp1364
Vcom.android.browser
p1365
g152
sg1132
g161
sg1092
g178
sg19
g200
sg1300
g227
sVcom.oppo.launcher
p1366
g288
sg540
g318
sg31
g326
sVcom.oppo.gallery3d
p1367
g341
sVcom.sina.weibo
p1368
g376
sg1314
g397
sg1135
g416
sg43
g451
sg45
g477
sg1081
g492
sg716
g505
sg915
g508
sg53
g525
sVme.ele
p1369
g548
sVcom.qihoo360.mobilesafe
p1370
g564
sVcom.tencent.tmgp.qjnn
p1371
g632
sg474
g648
sg463
g696
sVcom.shanbay.words
p1372
g1015
sVcom.sankuai.meituan.takeoutnew
p1373
g1074
sVcom.qihoo.secstore
p1374
g748
sg73
g762
sVcom.qihoo360.contacts
p1375
g807
sVcom.dianping.v1
p1376
g852
sVcom.android.dialer
p1377
g836
sVcom.Qunar
p1378
g841
sVcom.xiaoenai.app
p1379
g1031
sVcom.kibey.echo
p1380
g870
sVcom.android.settings
p1381
g1043
sg753
g990
sg948
g729
sVcom.oppo.alarmclock
p1382
g1057
ssg101
(dp1383
Vcom.oppo.launcher
p1384
g289
ssg103
(dp1385
Vcom.oppo.preventmode
p1386
g420
sVcom.zhihu.android
p1387
g444
sVcom.xiaoenai.app
p1388
g1023
sVcom.ywqc.three
p1389
g466
sg284
g871
sg15
g186
sg1101
g136
sg73
g754
sVcom.tencent.mm
p1390
g947
sg878
g356
sg1102
g566
sVme.ele
p1391
g537
sVcom.qihoo360.contacts
p1392
g814
sVcom.oppo.launcher
p1393
g290
sVcom.tencent.tmgp.qjnn
p1394
g634
sVcom.android.phone
p1395
g652
sg1134
g305
sg417
g1045
sg1090
g712
sg1372
g1004
sg37
g385
ssg105
(dp1396
Vcom.youdao.dict
p1397
g180
sVcom.tencent.mobileqq
p1398
g698
sg1003
g992
sg1005
g802
sVcom.oppo.launcher
p1399
g291
sVcom.tencent.tmgp.qjnn
p1400
g618
sg1014
g928
sVcom.eg.android.AlipayGphone
p1401
g399
ssg107
(dp1402
Vcom.tencent.mm
p1403
g944
sVcom.oppo.camera
p1404
g517
sVcom.android.mms
p1405
g961
sVcom.qiyi.video
p1406
g207
sg1291
g292
sVcom.tencent.tmgp.qjnn
p1407
g628
sVcom.android.phone
p1408
g643
sg598
g331
sVcom.tencent.mobileqq
p1409
g708
ssg109
(dp1410
sg111
(dp1411
Vcom.oppo.preventmode
p1412
g418
sVcom.android.mms
p1413
g972
sg1310
g303
sVcom.oppo.launcher
p1414
g293
sVcom.tencent.tmgp.qjnn
p1415
g636
sVcom.qihoo360.contacts
p1416
g812
sVcom.tencent.mm
p1417
g946
ssg113
(dp1418
g891
g150
sg605
g490
sg212
g372
sVcom.qihoo360.contacts
p1419
g817
sVcom.oppo.launcher
p1420
g294
sVcom.tencent.tmgp.qjnn
p1421
g638
sVcom.qiyi.video
p1422
g225
sVcom.android.phone
p1423
g665
sg1136
g950
sVcom.duomi.android
p1424
g727
sg228
g713
ssg115
(dp1425
g1234
g268
sg1243
g552
sg547
g930
sg1072
g804
sg1236
g674
ssg117
(dp1426
g390
g297
sg384
g994
sg394
g321
sVcom.eg.android.AlipayGphone
p1427
g400
sssS'adj'
p1428
g122
sb.