ccopy_reg
_reconstructor
p1
(cnetworkx.classes.digraph
DiGraph
p2
c__builtin__
object
p3
NtRp4
(dp5
S'node'
p6
(dp7
Vcom.android.browser
p8
(dp9
S'weight'
p10
F6.5008516115611142e-06
ssVcom.huawei.camera
p11
(dp12
g10
F2.7860792620976206e-05
ssVcom.autonavi.minimap
p13
(dp14
g10
F0.00068258941921391699
ssVim.yixin
p15
(dp16
g10
F2.4146020271512712e-05
ssVcom.huawei.android.totemweather
p17
(dp18
g10
F0.00027210707459820094
ssVcom.android.deskclock
p19
(dp20
g10
F0.01161052097824815
ssVcom.UCMobile
p21
(dp22
g10
F0.018336116316951808
ssVcom.sina.weibo
p23
(dp24
g10
F0.0027498602316903516
ssVcom.android.contacts
p25
(dp26
g10
F0.0053845625205473343
ssVcom.eg.android.AlipayGphone
p27
(dp28
g10
F0.00027303576768556679
ssVcom.dangdang.buy2
p29
(dp30
g10
F0.00062965391323406225
ssVcn.wps.moffice_eng
p31
(dp32
g10
F0.00023403065801620013
ssVcom.estrongs.android.pop
p33
(dp34
g10
F0.0054607153537113359
ssVcom.huawei.android.thememanager
p35
(dp36
g10
F1.5787782485219848e-05
ssVcom.android.packageinstaller
p37
(dp38
g10
F2.0431247922049218e-05
ssVcom.android.gallery3d
p39
(dp40
g10
F0.0006890902708254781
ssVcom.jingdong.app.mall
p41
(dp42
g10
F0.00043277097871249708
ssVcom.tencent.game.SSGame
p43
(dp44
g10
F0.00011422924974600244
ssVcom.huawei.systemmanager
p45
(dp46
g10
F8.5439764037660362e-05
ssVcom.android.phone
p47
(dp48
g10
F0.0001718082211626866
ssVcom.vmall.client
p49
(dp50
g10
F6.6865902290342896e-05
ssVcom.tencent.mm
p51
(dp52
g10
F0.0089043093216639949
ssVcom.ylmf.androidclient
p53
(dp54
g10
F0.00027953661929712794
ssVcom.android.settings
p55
(dp56
g10
F0.00020059770687102867
ssVcom.huawei.KoBackup
p57
(dp58
g10
F4.6434654368293673e-06
ssVcom.huawei.phoneservice
p59
(dp60
g10
F2.7860792620976204e-06
ssVcom.android.systemui
p61
(dp62
g10
F0.00052935505979854786
ssVcom.mxtech.videoplayer.ad
p63
(dp64
g10
F0.0027702914796124008
ssVcom.huawei.android.launcher
p65
(dp66
g10
F0.73677866086171573
ssVcom.chaozh.iReaderFree15
p67
(dp68
g10
F0.14020293801345118
ssVcom.android.email
p69
(dp70
g10
F1.2073010135756356e-05
ssVcom.dining
p71
(dp72
g10
F3.5290337319903193e-05
ssVcom.doupo.zhangyue.zy
p73
(dp74
g10
F0.00026560622298663983
ssVcom.MobileTicket
p75
(dp76
g10
F0.0001439474285417104
ssVcom.huawei.hwvplayer
p77
(dp78
g10
F9.8441467260782585e-05
ssVcom.huawei.gamebox
p79
(dp80
g10
F0.00048013432616815662
ssVcom.cyou.cx.mtlbb.huawei
p81
(dp82
g10
F0.00023867412345302948
ssVcom.android.calendar
p83
(dp84
g10
F2.6003406446244457e-05
ssVcom.tencent.mobileqq
p85
(dp86
g10
F0.048962556952103581
ssVcom.tencent.pao
p87
(dp88
g10
F0.0046964009428092221
ssVnet.csdn.csdnplus
p89
(dp90
g10
F5.5721585241952408e-06
ssVcom.huawei.hwid
p91
(dp92
g10
F2.0431247922049218e-05
ssVcom.huawei.appmarket
p93
(dp94
g10
F0.0052703332708013322
ssVcc.thedream.qinsmoon.HUAWEI
p95
(dp96
g10
F0.00012630225988175878
ssVcom.sohu.sohuvideo
p97
(dp98
g10
F0.0026569909229537639
sssS'graph'
p99
(dp100
sS'succ'
p101
(dp102
g8
(dp103
sg11
(dp104
Vcom.tencent.mobileqq
p105
(dp106
g10
F0.90000000000000002
ssVcom.huawei.android.launcher
p107
(dp108
g10
F2.3999999999999999
ssVcom.chaozh.iReaderFree15
p109
(dp110
g10
F0.69999999999999996
ssVcom.android.systemui
p111
(dp112
g10
F0.90000000000000002
sssg13
(dp113
Vcom.huawei.android.launcher
p114
(dp115
g10
F4.5999999999999996
ssVcom.android.gallery3d
p116
(dp117
g10
I1
ssVcom.android.contacts
p118
(dp119
g10
F0.90000000000000002
ssVcom.tencent.mobileqq
p120
(dp121
g10
F2.2999999999999998
sssg15
(dp122
Vcom.estrongs.android.pop
p123
(dp124
g10
F0.90000000000000002
ssVcom.huawei.android.launcher
p125
(dp126
g10
I1
sssg17
(dp127
Vcom.android.settings
p128
(dp129
g10
F0.90000000000000002
ssVcom.huawei.android.launcher
p130
(dp131
g10
F2.7000000000000002
ssVcom.android.systemui
p132
(dp133
g10
F0.40000000000000002
sssg19
(dp134
Vcom.chaozh.iReaderFree15
p135
(dp136
g10
F5.1000000000000005
ssVcom.estrongs.android.pop
p137
(dp138
g10
F1.3
ssVcom.tencent.mm
p139
(dp140
g10
F0.40000000000000002
ssVcom.huawei.android.launcher
p141
(dp142
g10
F18.199999999999999
ssg11
(dp143
g10
F0.90000000000000002
ssVcom.android.systemui
p144
(dp145
g10
F5.8000000000000007
ssVcom.tencent.mobileqq
p146
(dp147
g10
F2.7000000000000002
sssg21
(dp148
g77
(dp149
g10
F0.90000000000000002
ssVcom.android.contacts
p150
(dp151
g10
F2.2000000000000002
ssg79
(dp152
g10
F0.69999999999999996
ssg83
(dp153
g10
F0.90000000000000002
ssVcom.tencent.mobileqq
p154
(dp155
g10
F6.6000000000000005
ssVcom.tencent.mm
p156
(dp157
g10
F3
ssVcom.android.systemui
p158
(dp159
g10
F4.5
ssg39
(dp160
g10
F0.90000000000000002
ssVcom.estrongs.android.pop
p161
(dp162
g10
F2.7999999999999998
ssg91
(dp163
g10
F0.40000000000000002
ssVcom.huawei.android.launcher
p164
(dp165
g10
F32.299999999999997
ssVcom.chaozh.iReaderFree15
p166
(dp167
g10
F1.1000000000000001
ssg93
(dp168
g10
F0.90000000000000002
ssg23
(dp169
g10
F1.3
ssVcom.ylmf.androidclient
p170
(dp171
g10
F0.90000000000000002
ssg71
(dp172
g10
F0.90000000000000002
sssg23
(dp173
Vcom.estrongs.android.pop
p174
(dp175
g10
F0.90000000000000002
ssVcom.huawei.android.totemweather
p176
(dp177
g10
F0.69999999999999996
ssVcom.UCMobile
p178
(dp179
g10
F0.90000000000000002
ssVcom.huawei.systemmanager
p180
(dp181
g10
F0.40000000000000002
ssVcom.huawei.android.launcher
p182
(dp183
g10
F33.499999999999993
ssVcom.chaozh.iReaderFree15
p184
(dp185
g10
F0.90000000000000002
ssVcom.android.systemui
p186
(dp187
g10
F8.2000000000000011
ssVcom.tencent.mm
p188
(dp189
g10
F6.4000000000000012
ssVcom.tencent.mobileqq
p190
(dp191
g10
F13.000000000000004
sssg25
(dp192
g8
(dp193
g10
F0.69999999999999996
ssVcom.UCMobile
p194
(dp195
g10
F3
ssg174
(dp196
g10
F0.40000000000000002
ssVcom.tencent.mobileqq
p197
(dp198
g10
F8.9000000000000021
ssVcom.sina.weibo
p199
(dp200
g10
F1.8
ssVcom.android.systemui
p201
(dp202
g10
F6.2000000000000011
ssVcom.huawei.hwid
p203
(dp204
g10
F0.69999999999999996
ssVcom.huawei.android.launcher
p205
(dp206
g10
F45.600000000000009
ssVcom.chaozh.iReaderFree15
p207
(dp208
g10
F2.7999999999999998
ssVcom.huawei.appmarket
p209
(dp210
g10
F0.90000000000000002
ssVcom.tencent.mm
p211
(dp212
g10
F2.6000000000000001
ssVcom.eg.android.AlipayGphone
p213
(dp214
g10
I1
ssVcom.android.settings
p215
(dp216
g10
F0.90000000000000002
sssg27
(dp217
Vcom.tencent.mobileqq
p218
(dp219
g10
F2.2999999999999998
ssVcom.huawei.android.launcher
p220
(dp221
g10
F2.7000000000000002
ssVcom.android.contacts
p222
(dp223
g10
I1
ssVcom.android.systemui
p224
(dp225
g10
F0.90000000000000002
sssg29
(dp226
Vcom.tencent.mobileqq
p227
(dp228
g10
F1.7
ssVcom.huawei.android.launcher
p229
(dp230
g10
F2.2999999999999998
ssVcom.chaozh.iReaderFree15
p231
(dp232
g10
F0.90000000000000002
sssg31
(dp233
Vcom.estrongs.android.pop
p234
(dp235
g10
I1
ssVcom.huawei.android.launcher
p236
(dp237
g10
I1
ssVcom.android.contacts
p238
(dp239
g10
F0.90000000000000002
sssg33
(dp240
g39
(dp241
g10
F1.7
ssg31
(dp242
g10
I1
ssVcom.sohu.sohuvideo
p243
(dp244
g10
F1.3
ssVcom.tencent.mm
p245
(dp246
g10
F1.3
ssg63
(dp247
g10
F38.299999999999997
ssVcom.android.deskclock
p248
(dp249
g10
I3
ssVcom.UCMobile
p250
(dp251
g10
F3.7000000000000002
ssVcom.huawei.android.launcher
p252
(dp253
g10
F35.599999999999994
ssVcom.chaozh.iReaderFree15
p254
(dp255
g10
F6.3000000000000007
ssg61
(dp256
g10
F11.400000000000004
ssVcom.tencent.mobileqq
p257
(dp258
g10
F5.0999999999999996
ssVcom.android.settings
p259
(dp260
g10
F1.8
sssg35
(dp261
sg37
(dp262
Vcom.huawei.gamebox
p263
(dp264
g10
F0.40000000000000002
ssVcom.chaozh.iReaderFree15
p265
(dp266
g10
F0.90000000000000002
ssVcom.doupo.zhangyue.zy
p267
(dp268
g10
F1.7
sssg39
(dp269
g105
(dp270
g10
F0.40000000000000002
ssVcom.huawei.android.launcher
p271
(dp272
g10
F2.7000000000000002
ssVcom.huawei.camera
p273
(dp274
g10
F0.90000000000000002
sssg41
(dp275
Vcom.huawei.android.launcher
p276
(dp277
g10
F4.7000000000000002
ssVcom.android.contacts
p278
(dp279
g10
F0.90000000000000002
ssVcom.android.systemui
p280
(dp281
g10
F0.90000000000000002
sssg43
(dp282
g87
(dp283
g10
F0.40000000000000002
ssVcom.huawei.android.launcher
p284
(dp285
g10
F1.7
ssVcom.android.systemui
p286
(dp287
g10
F0.90000000000000002
sssg45
(dp288
g19
(dp289
g10
F0.69999999999999996
ssVcom.android.settings
p290
(dp291
g10
F0.90000000000000002
ssVcom.huawei.android.launcher
p292
(dp293
g10
F3.6999999999999997
ssVcom.chaozh.iReaderFree15
p294
(dp295
g10
F2.7000000000000002
ssVcom.android.systemui
p296
(dp297
g10
F0.90000000000000002
sssg47
(dp298
Vcom.huawei.android.launcher
p299
(dp300
g10
F1.3
ssVcom.android.contacts
p301
(dp302
g10
F5.7000000000000002
sssg49
(dp303
g59
(dp304
g10
F0.90000000000000002
ssg21
(dp305
g10
F0.40000000000000002
ssVcom.huawei.android.launcher
p306
(dp307
g10
F1.7
sssg51
(dp308
g8
(dp309
g10
I1
ssg77
(dp310
g10
F1.3
ssVcom.huawei.hwid
p311
(dp312
g10
F0.69999999999999996
ssVcom.estrongs.android.pop
p313
(dp314
g10
F0.80000000000000004
ssVcom.android.settings
p315
(dp316
g10
F0.69999999999999996
ssVcom.sina.weibo
p317
(dp318
g10
F10.300000000000002
ssVcom.huawei.appmarket
p319
(dp320
g10
F1.7000000000000002
ssg41
(dp321
g10
F0.40000000000000002
ssVcom.UCMobile
p322
(dp323
g10
F2.2000000000000002
ssVcom.huawei.android.launcher
p324
(dp325
g10
F87.100000000000065
ssVcom.chaozh.iReaderFree15
p326
(dp327
g10
F2.7999999999999998
ssVcom.android.systemui
p328
(dp329
g10
F21.699999999999999
ssVcom.tencent.mobileqq
p330
(dp331
g10
F28.399999999999981
ssVcom.android.contacts
p332
(dp333
g10
F10.200000000000003
sssg53
(dp334
Vcom.tencent.mobileqq
p335
(dp336
g10
F0.69999999999999996
ssVcom.huawei.android.launcher
p337
(dp338
g10
F0.90000000000000002
ssVcom.huawei.appmarket
p339
(dp340
g10
I1
sssg55
(dp341
Vcom.estrongs.android.pop
p342
(dp343
g10
F2.2000000000000002
ssVcom.tencent.mobileqq
p344
(dp345
g10
F0.40000000000000002
ssVcom.mxtech.videoplayer.ad
p346
(dp347
g10
F0.69999999999999996
ssg43
(dp348
g10
F0.90000000000000002
ssVcom.huawei.systemmanager
p349
(dp350
g10
I1
ssVcom.huawei.android.launcher
p351
(dp352
g10
F12.399999999999999
ssVcom.chaozh.iReaderFree15
p353
(dp354
g10
F1.1000000000000001
ssg286
(dp355
g10
F4.2000000000000002
ssVcom.tencent.mm
p356
(dp357
g10
F0.90000000000000002
sssg57
(dp358
Vcom.sina.weibo
p359
(dp360
g10
F0.90000000000000002
ssVcom.huawei.android.launcher
p361
(dp362
g10
I1
sssg59
(dp363
g21
(dp364
g10
F0.90000000000000002
ssVcom.huawei.android.launcher
p365
(dp366
g10
I1
sssg61
(dp367
Vcom.estrongs.android.pop
p368
(dp369
g10
F3.9999999999999996
ssg55
(dp370
g10
F2.7999999999999998
ssVcom.sina.weibo
p371
(dp372
g10
I2
ssg87
(dp373
g10
F1.8999999999999999
ssg63
(dp374
g10
F1.3
ssVcom.jingdong.app.mall
p375
(dp376
g10
F0.40000000000000002
ssg43
(dp377
g10
F0.40000000000000002
ssVcom.android.deskclock
p378
(dp379
g10
F0.90000000000000002
ssVcom.UCMobile
p380
(dp381
g10
F2.3999999999999999
ssg180
(dp382
g10
F0.69999999999999996
ssVcom.huawei.android.launcher
p383
(dp384
g10
F40.79999999999999
ssg326
(dp385
g10
F37
ssg176
(dp386
g10
F0.90000000000000002
ssg51
(dp387
g10
F4.7999999999999998
ssVcom.tencent.mobileqq
p388
(dp389
g10
F7.6000000000000005
sssg63
(dp390
Vcom.estrongs.android.pop
p391
(dp392
g10
F32.499999999999993
ssg243
(dp393
g10
F0.69999999999999996
ssVcom.huawei.android.launcher
p394
(dp395
g10
F3.5
ssVcom.android.systemui
p396
(dp397
g10
F1.3999999999999999
sssg65
(dp398
g8
(dp399
g10
F1.3
ssg11
(dp400
g10
F4.4000000000000004
ssVcom.autonavi.minimap
p401
(dp402
g10
F3.7000000000000002
ssg15
(dp403
g10
I1
ssg17
(dp404
g10
F2.3999999999999999
ssg19
(dp405
g10
F13.899999999999999
ssg21
(dp406
g10
F44.400000000000006
ssg23
(dp407
g10
F61.700000000000031
ssg25
(dp408
g10
F89.300000000000054
ssg27
(dp409
g10
F6.1000000000000005
ssg29
(dp410
g10
I1
ssg31
(dp411
g10
F0.90000000000000002
ssg33
(dp412
g10
F59.10000000000003
ssg35
(dp413
g10
I1
ssVcom.android.packageinstaller
p414
(dp415
g10
F0.69999999999999996
ssg39
(dp416
g10
F1.3
ssg41
(dp417
g10
F6.1000000000000005
ssg43
(dp418
g10
F1.7
ssg45
(dp419
g10
F3.8999999999999999
ssg61
(dp420
g10
F124.90000000000018
ssg49
(dp421
g10
F1.8999999999999999
ssg51
(dp422
g10
F165.19999999999993
ssg170
(dp423
g10
F1.7
ssg55
(dp424
g10
F15.299999999999997
ssg59
(dp425
g10
F2.1000000000000001
ssg63
(dp426
g10
F9.4000000000000021
ssg67
(dp427
g10
F76.400000000000034
ssg69
(dp428
g10
I2
ssg71
(dp429
g10
F1.7
ssg73
(dp430
g10
F2.3999999999999999
ssg57
(dp431
g10
I1
ssg77
(dp432
g10
F3.3999999999999999
ssg79
(dp433
g10
F4.4000000000000004
ssg83
(dp434
g10
F3.3999999999999999
ssg85
(dp435
g10
F324.69999999999948
ssg87
(dp436
g10
F11
ssg89
(dp437
g10
I1
ssg91
(dp438
g10
F7.700000000000002
ssg93
(dp439
g10
F18.699999999999996
ssg97
(dp440
g10
I2
sssg67
(dp441
g263
(dp442
g10
F0.90000000000000002
ssVcom.estrongs.android.pop
p443
(dp444
g10
F6.2000000000000011
ssg259
(dp445
g10
F1.6000000000000001
ssVcom.sina.weibo
p446
(dp447
g10
F1.1000000000000001
ssVcom.huawei.appmarket
p448
(dp449
g10
F0.40000000000000002
ssVcom.jingdong.app.mall
p450
(dp451
g10
F0.90000000000000002
ssVcom.tencent.mm
p452
(dp453
g10
F0.80000000000000004
ssg19
(dp454
g10
F15.200000000000001
ssVcom.UCMobile
p455
(dp456
g10
F1.8
ssg45
(dp457
g10
F2.8999999999999999
ssg292
(dp458
g10
F59.300000000000026
ssg144
(dp459
g10
F11.700000000000003
ssg146
(dp460
g10
F10.600000000000001
ssVcom.android.contacts
p461
(dp462
g10
F3.5
ssVcom.doupo.zhangyue.zy
p463
(dp464
g10
I1
sssg69
(dp465
g33
(dp466
g10
F2.2000000000000002
ssVcom.mxtech.videoplayer.ad
p467
(dp468
g10
F0.69999999999999996
ssVcom.huawei.android.launcher
p469
(dp470
g10
I2
sssg71
(dp471
Vcom.huawei.android.launcher
p472
(dp473
g10
I1
sssg73
(dp474
Vcom.huawei.gamebox
p475
(dp476
g10
F2.3999999999999999
ssg414
(dp477
g10
F0.40000000000000002
ssVcom.huawei.hwid
p478
(dp479
g10
F0.69999999999999996
ssVcom.huawei.android.launcher
p480
(dp481
g10
F3.6999999999999997
ssg265
(dp482
g10
I1
ssVcom.huawei.appmarket
p483
(dp484
g10
F2.9000000000000004
sssg75
(dp485
sg77
(dp486
g154
(dp487
g10
F0.90000000000000002
ssVcom.tencent.mm
p488
(dp489
g10
F0.40000000000000002
ssVcom.huawei.android.launcher
p490
(dp491
g10
F3.4000000000000004
ssg41
(dp492
g10
F0.90000000000000002
ssg280
(dp493
g10
F0.40000000000000002
sssg79
(dp494
g81
(dp495
g10
F2.3999999999999999
ssg414
(dp496
g10
I1
ssVcom.android.systemui
p497
(dp498
g10
F0.40000000000000002
ssg91
(dp499
g10
F3.2999999999999998
ssVcom.huawei.android.launcher
p500
(dp501
g10
F6.7999999999999998
ssg265
(dp502
g10
F0.69999999999999996
ssVcom.huawei.appmarket
p503
(dp504
g10
F1.3
ssVcom.doupo.zhangyue.zy
p505
(dp506
g10
F2.6000000000000001
sssg81
(dp507
Vcom.huawei.hwid
p508
(dp509
g10
I1
ssg497
(dp510
g10
F1.7
sssg83
(dp511
g23
(dp512
g10
F1.3
ssVcom.huawei.android.launcher
p513
(dp514
g10
F2.7000000000000002
ssVcom.tencent.mobileqq
p515
(dp516
g10
F0.90000000000000002
sssg85
(dp517
g135
(dp518
g10
F6.9000000000000012
ssVcom.android.deskclock
p519
(dp520
g10
F0.69999999999999996
ssVcom.UCMobile
p521
(dp522
g10
F14.000000000000004
ssVcom.sina.weibo
p523
(dp524
g10
F16.100000000000005
ssVcom.android.contacts
p525
(dp526
g10
F14.800000000000004
ssVcom.eg.android.AlipayGphone
p527
(dp528
g10
F2.2999999999999998
ssVcom.estrongs.android.pop
p529
(dp530
g10
F7.8000000000000016
ssVcom.android.gallery3d
p531
(dp532
g10
I1
ssg450
(dp533
g10
F1.3
ssVcom.android.systemui
p534
(dp535
g10
F19.999999999999993
ssg97
(dp536
g10
F0.90000000000000002
ssVcom.android.settings
p537
(dp538
g10
F1.3
ssVcom.tencent.mm
p539
(dp540
g10
F73.899999999999991
ssVcom.mxtech.videoplayer.ad
p541
(dp542
g10
F0.69999999999999996
ssVcom.huawei.android.launcher
p543
(dp544
g10
F257.39999999999952
ssg273
(dp545
g10
F0.69999999999999996
ssVcom.huawei.hwvplayer
p546
(dp547
g10
F0.40000000000000002
ssg83
(dp548
g10
F1.7000000000000002
ssg17
(dp549
g10
F0.90000000000000002
ssVcom.tencent.pao
p550
(dp551
g10
F2.7000000000000002
ssVcom.huawei.hwid
p552
(dp553
g10
F1.3999999999999999
ssg209
(dp554
g10
F4.2999999999999998
sssg87
(dp555
Vcom.tencent.mobileqq
p556
(dp557
g10
F1.8999999999999999
ssVcom.huawei.android.launcher
p558
(dp559
g10
I3
ssg534
(dp560
g10
F0.90000000000000002
sssg89
(dp561
sg91
(dp562
Vcom.huawei.gamebox
p563
(dp564
g10
F3.2999999999999998
ssg81
(dp565
g10
F2.2999999999999998
ssVcom.tencent.mm
p566
(dp567
g10
F0.40000000000000002
ssg55
(dp568
g10
F0.40000000000000002
ssg37
(dp569
g10
F0.90000000000000002
ssg497
(dp570
g10
F1.8
ssVcom.sina.weibo
p571
(dp572
g10
F0.69999999999999996
ssVcom.huawei.android.launcher
p573
(dp574
g10
F8.0000000000000018
ssVcom.huawei.appmarket
p575
(dp576
g10
F6.6000000000000005
ssVcc.thedream.qinsmoon.HUAWEI
p577
(dp578
g10
I1
ssVcom.tencent.mobileqq
p579
(dp580
g10
F1.3
ssg505
(dp581
g10
F0.69999999999999996
sssg93
(dp582
g75
(dp583
g10
I1
ssg79
(dp584
g10
F5.0999999999999996
ssg81
(dp585
g10
F0.40000000000000002
ssg571
(dp586
g10
F2.2000000000000002
ssg37
(dp587
g10
F2.6000000000000001
ssg91
(dp588
g10
F12.100000000000001
ssg573
(dp589
g10
F14.199999999999998
ssg265
(dp590
g10
F0.80000000000000004
ssVcom.android.systemui
p591
(dp592
g10
F1.1000000000000001
ssg95
(dp593
g10
F1.7
ssg579
(dp594
g10
F4.2000000000000002
ssg267
(dp595
g10
F0.69999999999999996
sssg95
(dp596
Vcom.huawei.hwid
p597
(dp598
g10
I1
ssVcom.huawei.android.launcher
p599
(dp600
g10
F1.7000000000000002
ssVcom.tencent.mobileqq
p601
(dp602
g10
F0.69999999999999996
ssVcom.huawei.appmarket
p603
(dp604
g10
F1.7
sssg97
(dp605
Vcom.estrongs.android.pop
p606
(dp607
g10
F1.3
ssVcom.mxtech.videoplayer.ad
p608
(dp609
g10
F0.69999999999999996
ssVcom.huawei.android.launcher
p610
(dp611
g10
I1
ssssS'edge'
p612
g102
sS'pred'
p613
(dp614
g8
(dp615
g211
g309
sVcom.huawei.android.launcher
p616
g399
sVcom.android.contacts
p617
g193
ssg11
(dp618
Vcom.android.deskclock
p619
g143
sVcom.tencent.mobileqq
p620
g545
sg531
g274
sVcom.huawei.android.launcher
p621
g400
ssg13
(dp622
Vcom.huawei.android.launcher
p623
g402
ssg15
(dp624
Vcom.huawei.android.launcher
p625
g403
ssg17
(dp626
Vcom.huawei.android.launcher
p627
g404
sVcom.sina.weibo
p628
g177
sVcom.tencent.mobileqq
p629
g549
sVcom.android.systemui
p630
g386
ssg19
(dp631
Vcom.estrongs.android.pop
p632
g249
sg45
g289
sg292
g405
sVcom.chaozh.iReaderFree15
p633
g454
sVcom.android.systemui
p634
g379
sVcom.tencent.mobileqq
p635
g520
ssg21
(dp636
g59
g364
sVcom.tencent.mobileqq
p637
g522
sVcom.sina.weibo
p638
g179
sVcom.estrongs.android.pop
p639
g251
sg306
g406
sVcom.chaozh.iReaderFree15
p640
g456
sVcom.android.systemui
p641
g381
sg49
g305
sVcom.tencent.mm
p642
g323
sVcom.android.contacts
p643
g195
ssg23
(dp644
g57
g360
sg311
g572
sg83
g512
sVcom.tencent.mm
p645
g318
sVcom.android.systemui
p646
g372
sg521
g169
sVcom.huawei.android.launcher
p647
g407
sVcom.chaozh.iReaderFree15
p648
g447
sg319
g586
sVcom.tencent.mobileqq
p649
g524
sVcom.android.contacts
p650
g200
ssg25
(dp651
Vcn.wps.moffice_eng
p652
g239
sVcom.tencent.mobileqq
p653
g526
sg375
g279
sVcom.UCMobile
p654
g151
sVcom.huawei.android.launcher
p655
g408
sVcom.chaozh.iReaderFree15
p656
g462
sg47
g302
sVcom.autonavi.minimap
p657
g119
sVcom.tencent.mm
p658
g333
sVcom.eg.android.AlipayGphone
p659
g223
ssg27
(dp660
Vcom.tencent.mobileqq
p661
g528
sVcom.huawei.android.launcher
p662
g409
sg222
g214
ssg29
(dp663
Vcom.huawei.android.launcher
p664
g410
ssg31
(dp665
Vcom.estrongs.android.pop
p666
g242
sVcom.huawei.android.launcher
p667
g411
ssg33
(dp668
Vcom.android.deskclock
p669
g138
sg31
g235
sVcom.tencent.mm
p670
g314
sVcom.sina.weibo
p671
g175
sg15
g124
sg63
g392
sg259
g343
sg250
g162
sg65
g412
sVcom.chaozh.iReaderFree15
p672
g444
sg61
g369
sg69
g466
sVcom.tencent.mobileqq
p673
g530
sVcom.android.contacts
p674
g196
sg97
g607
ssg35
(dp675
Vcom.huawei.android.launcher
p676
g413
ssg37
(dp677
Vcom.huawei.hwid
p678
g569
sg505
g477
sVcom.huawei.android.launcher
p679
g415
sg475
g496
sVcom.huawei.appmarket
p680
g587
ssg39
(dp681
Vcom.estrongs.android.pop
p682
g241
sg250
g160
sVcom.huawei.android.launcher
p683
g416
sg620
g532
sg13
g117
ssg41
(dp684
g546
g492
sg601
g533
sVcom.huawei.android.launcher
p685
g417
sVcom.chaozh.iReaderFree15
p686
g451
sVcom.android.systemui
p687
g376
sg488
g321
ssg43
(dp688
g55
g348
sVcom.huawei.android.launcher
p689
g418
sg591
g377
ssg45
(dp690
g371
g181
sg290
g350
sVcom.huawei.android.launcher
p691
g419
sg633
g457
sVcom.android.systemui
p692
g382
ssg47
(dp693
sg49
(dp694
Vcom.huawei.android.launcher
p695
g421
ssg51
(dp696
g77
g489
sVcom.UCMobile
p697
g157
sVcom.estrongs.android.pop
p698
g246
sg571
g189
sVcom.android.deskclock
p699
g140
sVcom.huawei.hwid
p700
g567
sg383
g422
sVcom.chaozh.iReaderFree15
p701
g453
sVcom.android.systemui
p702
g387
sVcom.tencent.mobileqq
p703
g540
sg617
g212
sg537
g357
ssg53
(dp704
Vcom.UCMobile
p705
g171
sVcom.huawei.android.launcher
p706
g423
ssg55
(dp707
Vcom.estrongs.android.pop
p708
g260
sVcom.huawei.android.totemweather
p709
g129
sVcom.huawei.hwid
p710
g568
sg180
g291
sg573
g424
sVcom.chaozh.iReaderFree15
p711
g445
sg591
g370
sVcom.tencent.mm
p712
g316
sVcom.android.contacts
p713
g216
sVcom.tencent.mobileqq
p714
g538
ssg57
(dp715
Vcom.huawei.android.launcher
p716
g431
ssg59
(dp717
g49
g304
sg695
g425
ssg61
(dp718
g11
g112
sVcom.android.deskclock
p719
g145
sg380
g159
sg571
g187
sg461
g202
sg27
g225
sVcom.estrongs.android.pop
p720
g256
sg41
g281
sg43
g287
sg349
g297
sg51
g329
sVcom.huawei.appmarket
p721
g592
sg346
g397
sVcom.huawei.android.launcher
p722
g420
sVcom.chaozh.iReaderFree15
p723
g459
sVcom.tencent.mobileqq
p724
g535
sg546
g493
sg563
g498
sg81
g510
sg709
g133
sg550
g560
sg508
g570
sg55
g355
ssg63
(dp725
g720
g247
sg97
g609
sg722
g426
sg61
g374
sVcom.android.email
p726
g468
sVcom.tencent.mobileqq
p727
g542
sVcom.android.settings
p728
g347
ssg65
(dp729
g11
g108
sg401
g115
sg15
g126
sVcom.estrongs.android.pop
p730
g253
sg19
g142
sVcom.UCMobile
p731
g165
sg23
g183
sg332
g206
sg27
g221
sg17
g131
sg652
g237
sg29
g230
sVcom.android.gallery3d
p732
g272
sg41
g277
sg43
g285
sg45
g293
sg702
g384
sg49
g307
sg146
g544
sg53
g338
sg55
g352
sg59
g366
sVcom.android.phone
p733
g300
sVcom.mxtech.videoplayer.ad
p734
g395
sg633
g458
sg69
g470
sg71
g473
sg73
g481
sg57
g362
sg77
g491
sVcom.huawei.gamebox
p735
g501
sg83
g514
sg51
g325
sg550
g559
sg710
g574
sg721
g589
sg95
g600
sg97
g611
ssg67
(dp736
g371
g185
sg475
g502
sg380
g167
sg29
g232
sg146
g518
sg414
g266
sg503
g590
sg19
g136
sVcom.estrongs.android.pop
p737
g255
sg45
g295
sVcom.huawei.android.launcher
p738
g427
sg11
g110
sg328
g385
sg290
g354
sg51
g327
sVcom.android.contacts
p739
g208
sg267
g482
ssg69
(dp740
g65
g428
ssg71
(dp741
Vcom.UCMobile
p742
g172
sVcom.huawei.android.launcher
p743
g429
ssg73
(dp744
g735
g506
sg414
g268
sVcom.huawei.hwid
p745
g581
sVcom.huawei.android.launcher
p746
g430
sg265
g464
sg503
g595
ssg75
(dp747
Vcom.huawei.appmarket
p748
g583
ssg77
(dp749
Vcom.huawei.android.launcher
p750
g432
sg642
g310
sg154
g547
sg322
g149
ssg79
(dp751
g731
g152
sg414
g264
sg91
g564
sVcom.huawei.android.launcher
p752
g433
sg265
g442
sg93
g584
sg505
g476
ssg81
(dp753
g91
g565
sg79
g495
sg93
g585
ssg83
(dp754
Vcom.huawei.android.launcher
p755
g434
sg637
g548
sg521
g153
ssg85
(dp756
g294
g460
sg401
g121
sg19
g147
sg322
g155
sg446
g191
sVcom.android.contacts
p757
g198
sg527
g219
sVcom.dangdang.buy2
p758
g228
sg529
g258
sg531
g270
sg111
g389
sg539
g331
sg53
g336
sVcom.huawei.android.launcher
p759
g435
sg273
g106
sg77
g487
sVcom.android.calendar
p760
g516
sg537
g345
sVcom.tencent.pao
p761
g557
sg700
g580
sVcom.huawei.appmarket
p762
g594
sg577
g602
ssg87
(dp763
g724
g551
sg286
g373
sg284
g436
sg43
g283
ssg89
(dp764
Vcom.huawei.android.launcher
p765
g437
ssg91
(dp766
g79
g499
sg81
g509
sVcom.tencent.mobileqq
p767
g553
sg731
g163
sg164
g438
sg93
g588
sg95
g598
sVcom.tencent.mm
p768
g312
sVcom.android.contacts
p769
g204
sg73
g479
ssg93
(dp770
Vcom.huawei.gamebox
p771
g504
sg731
g168
sVcom.tencent.mobileqq
p772
g554
sg53
g340
sg678
g576
sg752
g439
sg265
g449
sg95
g604
sg768
g320
sg769
g210
sg73
g484
ssg95
(dp773
g597
g578
sVcom.huawei.appmarket
p774
g593
ssg97
(dp775
Vcom.estrongs.android.pop
p776
g244
sVcom.huawei.android.launcher
p777
g440
sVcom.tencent.mobileqq
p778
g536
sVcom.mxtech.videoplayer.ad
p779
g393
sssS'adj'
p780
g102
sb.