ccopy_reg
_reconstructor
p1
(cnetworkx.classes.digraph
DiGraph
p2
c__builtin__
object
p3
NtRp4
(dp5
S'node'
p6
(dp7
Vim.naodong.gaonengfun
p8
(dp9
S'weight'
p10
F0.0023310495804110755
ssVcom.kenai.liuliang
p11
(dp12
g10
F8.107998540560263e-05
ssVcom.baidu.netdisk
p13
(dp14
g10
F0.011478609362421743
ssVcom.android.deskclock
p15
(dp16
g10
F6.3705702818687784e-05
ssVcom.UCMobile
p17
(dp18
g10
F0.0080327099826836314
ssVcom.sohu.inputmethod.sogou
p19
(dp20
g10
F4.9227133996258738e-05
ssVcom.blizzard.wtcg.hearthstone
p21
(dp22
g10
F0.00060809989054201965
ssVcom.meizu.media.painter
p23
(dp24
g10
F2.3165710115886465e-05
ssVcom.fotoable.helpr
p25
(dp26
g10
F8.107998540560263e-05
ssVcom.mymoney
p27
(dp28
g10
F0.0011003712305046071
ssVcom.eg.android.AlipayGphone
p29
(dp30
g10
F0.0012509483462578692
ssVcom.estrongs.android.pop
p31
(dp32
g10
F5.2122847760744546e-05
ssVcom.android.packageinstaller
p33
(dp34
g10
F0.00025192709751026531
ssVcom.jingdong.app.mall
p35
(dp36
g10
F0.0052441376274837987
ssVcom.taobao.taobao
p37
(dp38
g10
F0.016954404091064405
ssVcom.astrogame.sherman
p39
(dp40
g10
F0.17882190781205659
ssVcom.android.phone
p41
(dp42
g10
F0.010560668099079741
ssVcom.meizu.media.gallery
p43
(dp44
g10
F0.0013001754802541279
ssVcom.icbc
p45
(dp46
g10
F0.00037065136185418344
ssVcom.tencent.mm
p47
(dp48
g10
F0.062168078809745814
ssVtv.danmaku.bili
p49
(dp50
g10
F0.016905176957068148
ssVcom.meizu.mstore
p51
(dp52
g10
F0.00026930138009718013
ssVcom.meizu.flyme.weather
p53
(dp54
g10
F4.0539992702801315e-05
ssVcom.meizu.media.camera
p55
(dp56
g10
F0.00073840700994388107
ssVcom.android.fileexplorer
p57
(dp58
g10
F8.9767126699060053e-05
ssVcom.kingreader.framework
p59
(dp60
g10
F0.29283774157492082
ssVcom.tencent.mobileqq
p61
(dp62
g10
F0.30901030294957404
ssVcom.meizu.notepaper
p63
(dp64
g10
F0.0005009584812560448
ssVcom.meizu.cloud
p65
(dp66
g10
F2.6061423880372273e-05
ssVcom.gonlan.iplaymtg
p67
(dp68
g10
F0.0012770097701382413
ssVcom.android.calendar
p69
(dp70
g10
F8.3975699170088438e-05
ssVcom.android.settings
p71
(dp72
g10
F0.0038570907342950966
ssVcom.tencent.qt.qtl
p73
(dp74
g10
F0.014944778738511256
ssVcom.android.mms
p75
(dp76
g10
F0.00058782989419061901
ssVcom.qzone
p77
(dp78
g10
F0.0063821531369267215
ssVcom.baidu.tieba
p79
(dp80
g10
F0.036155882063369803
ssVcom.xiaoji.emulator
p81
(dp82
g10
F0.014802888764051451
ssVcom.tencent.djcity
p83
(dp84
g10
F0.00049516705372707316
ssVcom.sohu.sohuvideo
p85
(dp86
g10
F0.00017084711210466267
sssS'node_dict_factory'
p87
c__builtin__
dict
p88
sS'edge_attr_dict_factory'
p89
g88
sS'succ'
p90
(dp91
g8
(dp92
Vcom.tencent.mobileqq
p93
(dp94
g10
I1
ssVcom.astrogame.sherman
p95
(dp96
g10
F2.2999999999999998
sssg11
(dp97
Vcom.astrogame.sherman
p98
(dp99
g10
F1.1000000000000001
ssVcom.baidu.tieba
p100
(dp101
g10
F0.90000000000000002
ssVcom.tencent.mobileqq
p102
(dp103
g10
I1
ssVcom.kingreader.framework
p104
(dp105
g10
I2
ssVcom.baidu.netdisk
p106
(dp107
g10
F0.90000000000000002
sssg13
(dp108
Vcom.tencent.mobileqq
p109
(dp110
g10
I1
ssVcom.astrogame.sherman
p111
(dp112
g10
I1
sssg15
(dp113
Vcom.tencent.mobileqq
p114
(dp115
g10
I1
sssg17
(dp116
Vcom.meizu.media.camera
p117
(dp118
g10
F1.7
ssVcom.android.settings
p119
(dp120
g10
F0.90000000000000002
ssVcom.android.packageinstaller
p121
(dp122
g10
I1
ssVcom.android.mms
p123
(dp124
g10
I1
ssg8
(dp125
g10
F2.7999999999999998
ssVcom.baidu.tieba
p126
(dp127
g10
I2
ssVcom.tencent.mm
p128
(dp129
g10
F5.3999999999999995
ssVcom.tencent.djcity
p130
(dp131
g10
F0.90000000000000002
ssVcom.tencent.mobileqq
p132
(dp133
g10
F12.900000000000002
sssg19
(dp134
sg21
(dp135
Vcom.tencent.mobileqq
p136
(dp137
g10
I1
sssg23
(dp138
Vcom.meizu.media.gallery
p139
(dp140
g10
I1
sssg25
(dp141
g139
(dp142
g10
F0.90000000000000002
ssg23
(dp143
g10
I1
sssg27
(dp144
Vcom.tencent.mobileqq
p145
(dp146
g10
F1.7000000000000002
ssVcom.jingdong.app.mall
p147
(dp148
g10
F1.8999999999999999
ssVcom.icbc
p149
(dp150
g10
F7.8000000000000007
ssVcom.tencent.mm
p151
(dp152
g10
I1
ssVcom.eg.android.AlipayGphone
p153
(dp154
g10
F3.3999999999999999
ssg53
(dp155
g10
F0.69999999999999996
sssg29
(dp156
g145
(dp157
g10
F1.7
ssVcom.mymoney
p158
(dp159
g10
I1
ssVcom.astrogame.sherman
p160
(dp161
g10
I1
sssg31
(dp162
Vcom.android.fileexplorer
p163
(dp164
g10
I1
sssg33
(dp165
g8
(dp166
g10
F0.40000000000000002
ssVcom.gonlan.iplaymtg
p167
(dp168
g10
I1
ssVcom.tencent.mobileqq
p169
(dp170
g10
F0.90000000000000002
ssVcom.UCMobile
p171
(dp172
g10
F1.7
ssVcom.baidu.tieba
p173
(dp174
g10
F0.90000000000000002
ssVcom.astrogame.sherman
p175
(dp176
g10
F1.1000000000000001
ssVcom.tencent.mm
p177
(dp178
g10
F0.90000000000000002
ssVcom.tencent.djcity
p179
(dp180
g10
I1
ssVtv.danmaku.bili
p181
(dp182
g10
I1
sssg35
(dp183
Vcom.meizu.notepaper
p184
(dp185
g10
F2.7000000000000002
ssg27
(dp186
g10
F2.6000000000000001
ssVcom.meizu.media.camera
p187
(dp188
g10
F0.40000000000000002
ssg53
(dp189
g10
I1
ssVcom.tencent.mm
p190
(dp191
g10
F3.4000000000000004
ssVcom.tencent.mobileqq
p192
(dp193
g10
F2.5999999999999996
sssg37
(dp194
g19
(dp195
g10
F0.69999999999999996
ssVcom.meizu.notepaper
p196
(dp197
g10
F1.8999999999999999
ssVcom.tencent.mobileqq
p198
(dp199
g10
F10.600000000000001
ssVcom.astrogame.sherman
p200
(dp201
g10
F1.7
ssVcom.kingreader.framework
p202
(dp203
g10
F0.90000000000000002
sssg39
(dp204
Vcom.meizu.notepaper
p205
(dp206
g10
F1.3
ssg51
(dp207
g10
F1.7
ssVcom.kenai.liuliang
p208
(dp209
g10
I1
ssVcom.tencent.mm
p210
(dp211
g10
F13.300000000000001
ssg121
(dp212
g10
F0.40000000000000002
ssg13
(dp213
g10
I1
ssg15
(dp214
g10
I1
ssVcom.UCMobile
p215
(dp216
g10
F4.5999999999999996
ssVcom.baidu.tieba
p217
(dp218
g10
F2.8999999999999999
ssVcom.kingreader.framework
p219
(dp220
g10
F1.7
ssVcom.android.phone
p221
(dp222
g10
I1
ssg19
(dp223
g10
F0.90000000000000002
ssVcom.xiaoji.emulator
p224
(dp225
g10
F0.90000000000000002
ssVcom.tencent.mobileqq
p226
(dp227
g10
F71.600000000000023
ssg29
(dp228
g10
F5.2000000000000002
sssg41
(dp229
Vcom.kenai.liuliang
p230
(dp231
g10
F0.40000000000000002
ssVcom.tencent.mobileqq
p232
(dp233
g10
F6.1000000000000005
ssVcom.tencent.qt.qtl
p234
(dp235
g10
F1.7
ssVcom.android.mms
p236
(dp237
g10
F3.7000000000000002
ssVcom.baidu.tieba
p238
(dp239
g10
F0.69999999999999996
ssVcom.astrogame.sherman
p240
(dp241
g10
F1.7
ssVcom.tencent.mm
p242
(dp243
g10
F5.7999999999999998
sssg43
(dp244
Vcom.tencent.mobileqq
p245
(dp246
g10
F5.9000000000000004
ssVcom.astrogame.sherman
p247
(dp248
g10
F0.90000000000000002
ssVcom.kingreader.framework
p249
(dp250
g10
F0.90000000000000002
sssg45
(dp251
Vcom.mymoney
p252
(dp253
g10
F10.199999999999999
ssg153
(dp254
g10
F1.7000000000000002
sssg47
(dp255
g8
(dp256
g10
F1.3
ssg11
(dp257
g10
F1.8
ssg106
(dp258
g10
F0.40000000000000002
ssVcom.android.deskclock
p259
(dp260
g10
I2
ssVcom.UCMobile
p261
(dp262
g10
F4.5999999999999996
ssg21
(dp263
g10
F0.69999999999999996
ssg23
(dp264
g10
F0.90000000000000002
ssg25
(dp265
g10
I1
ssg27
(dp266
g10
F1.8999999999999999
ssVcom.android.packageinstaller
p267
(dp268
g10
F1.6000000000000001
ssVcom.jingdong.app.mall
p269
(dp270
g10
F3.3999999999999999
ssVcom.astrogame.sherman
p271
(dp272
g10
F22.199999999999996
ssg41
(dp273
g10
F3.8999999999999999
ssg43
(dp274
g10
F2.2999999999999998
ssVcom.tencent.mobileqq
p275
(dp276
g10
F82.800000000000054
ssVtv.danmaku.bili
p277
(dp278
g10
F3.5
ssVcom.android.fileexplorer
p279
(dp280
g10
I1
ssVcom.kingreader.framework
p281
(dp282
g10
F11.600000000000001
ssg63
(dp283
g10
F2.3999999999999999
ssVcom.android.settings
p284
(dp285
g10
F2.2000000000000002
ssVcom.tencent.qt.qtl
p286
(dp287
g10
I1
ssVcom.android.mms
p288
(dp289
g10
F3
ssg79
(dp290
g10
F9.6000000000000014
ssg224
(dp291
g10
F0.40000000000000002
ssg130
(dp292
g10
F1.7
ssg53
(dp293
g10
F1.3
sssg49
(dp294
Vcom.tencent.mobileqq
p295
(dp296
g10
F6.4000000000000004
ssg267
(dp297
g10
I2
ssVcom.tencent.mm
p298
(dp299
g10
F3.2999999999999998
ssVcom.astrogame.sherman
p300
(dp301
g10
F3
sssg51
(dp302
Vcom.tencent.mobileqq
p303
(dp304
g10
I1
sssg53
(dp305
Vcom.android.deskclock
p306
(dp307
g10
F0.90000000000000002
ssg187
(dp308
g10
F0.69999999999999996
ssVcom.tencent.mm
p309
(dp310
g10
I1
ssVcom.tencent.mobileqq
p311
(dp312
g10
F3
sssg55
(dp313
Vcom.UCMobile
p314
(dp315
g10
I1
ssVcom.tencent.mm
p316
(dp317
g10
F0.69999999999999996
ssVcom.tencent.mobileqq
p318
(dp319
g10
F7.8000000000000007
ssVcom.astrogame.sherman
p320
(dp321
g10
I1
sssg57
(dp322
g31
(dp323
g10
I1
ssVcom.android.settings
p324
(dp325
g10
I1
sssg59
(dp326
g11
(dp327
g10
I1
ssVcom.tencent.mm
p328
(dp329
g10
F14.900000000000002
ssVcom.android.phone
p330
(dp331
g10
I1
ssg13
(dp332
g10
F2.6000000000000001
ssVcom.taobao.taobao
p333
(dp334
g10
I1
ssVcom.qzone
p335
(dp336
g10
I1
ssg39
(dp337
g10
I2
ssVcom.android.settings
p338
(dp339
g10
F1.7
ssVcom.meizu.media.gallery
p340
(dp341
g10
F1.8
ssg224
(dp342
g10
I1
ssVcom.tencent.mobileqq
p343
(dp344
g10
F70.000000000000043
ssVcom.eg.android.AlipayGphone
p345
(dp346
g10
I1
sssg61
(dp347
Vim.naodong.gaonengfun
p348
(dp349
g10
F1.8999999999999999
ssg11
(dp350
g10
F0.69999999999999996
ssg215
(dp351
g10
F17.199999999999999
ssg19
(dp352
g10
I1
ssg21
(dp353
g10
F1.8999999999999999
ssVcom.mymoney
p354
(dp355
g10
F0.69999999999999996
ssg29
(dp356
g10
F2
ssg267
(dp357
g10
F1.6000000000000001
ssg35
(dp358
g10
F8.1000000000000014
ssg37
(dp359
g10
F6.5000000000000009
ssVcom.astrogame.sherman
p360
(dp361
g10
F76.30000000000004
ssg41
(dp362
g10
F7.3000000000000007
ssg43
(dp363
g10
F4.0999999999999996
ssg85
(dp364
g10
I1
ssVtv.danmaku.bili
p365
(dp366
g10
F5.9000000000000004
ssg51
(dp367
g10
F1.3
ssg47
(dp368
g10
F105.40000000000012
ssVcom.meizu.media.camera
p369
(dp370
g10
F6.3000000000000007
ssg279
(dp371
g10
F0.90000000000000002
ssVcom.kingreader.framework
p372
(dp373
g10
F73.700000000000045
ssg63
(dp374
g10
F10.700000000000001
ssg284
(dp375
g10
F4.2999999999999998
ssg73
(dp376
g10
F5.5
ssVcom.android.mms
p377
(dp378
g10
F3
ssg77
(dp379
g10
F3.8999999999999999
ssg79
(dp380
g10
F19.399999999999995
ssg224
(dp381
g10
F0.69999999999999996
sssg63
(dp382
Vcom.astrogame.sherman
p383
(dp384
g10
F2.2999999999999998
ssg27
(dp385
g10
F0.40000000000000002
ssg35
(dp386
g10
F5.1000000000000005
ssVcom.taobao.taobao
p387
(dp388
g10
I1
ssVcom.kingreader.framework
p389
(dp390
g10
F0.40000000000000002
ssg190
(dp391
g10
F3.6999999999999997
ssVcom.tencent.mobileqq
p392
(dp393
g10
F8.9000000000000004
sssg65
(dp394
Vcom.tencent.mobileqq
p395
(dp396
g10
F0.90000000000000002
ssVcom.tencent.mm
p397
(dp398
g10
I1
ssg21
(dp399
g10
F0.40000000000000002
ssg284
(dp400
g10
F0.69999999999999996
sssg67
(dp401
Vcom.android.packageinstaller
p402
(dp403
g10
I1
ssg173
(dp404
g10
F1.7
sssg69
(dp405
g25
(dp406
g10
F0.90000000000000002
ssg139
(dp407
g10
F0.40000000000000002
ssVcom.tencent.mm
p408
(dp409
g10
I1
ssg23
(dp410
g10
F0.69999999999999996
sssg71
(dp411
Vcom.tencent.mobileqq
p412
(dp413
g10
F5.5000000000000009
ssVcom.android.fileexplorer
p414
(dp415
g10
I1
ssVcom.kingreader.framework
p416
(dp417
g10
I1
ssg21
(dp418
g10
I1
ssg41
(dp419
g10
F0.40000000000000002
ssVcom.tencent.mm
p420
(dp421
g10
F3.5999999999999996
sssg73
(dp422
Vcom.tencent.mm
p423
(dp424
g10
F2.2999999999999998
ssVcom.tencent.mobileqq
p425
(dp426
g10
F5.7000000000000002
ssVcom.kingreader.framework
p427
(dp428
g10
F1.7
sssg75
(dp429
g230
(dp430
g10
F1.7
ssg102
(dp431
g10
F1.3
ssg234
(dp432
g10
F0.90000000000000002
ssVcom.UCMobile
p433
(dp434
g10
I1
ssg100
(dp435
g10
F0.69999999999999996
ssg98
(dp436
g10
F0.40000000000000002
ssVcom.android.phone
p437
(dp438
g10
I1
ssVcom.tencent.mm
p439
(dp440
g10
F2.7000000000000002
sssg77
(dp441
Vcom.tencent.mobileqq
p442
(dp443
g10
F4.5999999999999996
ssVcom.tencent.mm
p444
(dp445
g10
F3.6000000000000001
ssVcom.astrogame.sherman
p446
(dp447
g10
F0.90000000000000002
ssVcom.kingreader.framework
p448
(dp449
g10
F1.3
sssg79
(dp450
g128
(dp451
g10
F6.1000000000000005
ssg73
(dp452
g10
F1.7000000000000002
ssg98
(dp453
g10
F1.8999999999999999
ssg119
(dp454
g10
I1
ssVcom.tencent.mobileqq
p455
(dp456
g10
F15.9
ssVcom.eg.android.AlipayGphone
p457
(dp458
g10
F0.69999999999999996
ssVcom.kingreader.framework
p459
(dp460
g10
F2.2999999999999998
sssg81
(dp461
Vcom.tencent.mm
p462
(dp463
g10
F0.90000000000000002
ssVcom.tencent.mobileqq
p464
(dp465
g10
I2
sssg83
(dp466
g33
(dp467
g10
I1
sssg85
(dp468
Vcom.tencent.mm
p469
(dp470
g10
F0.90000000000000002
ssVcom.baidu.tieba
p471
(dp472
g10
F0.69999999999999996
ssVcom.tencent.mobileqq
p473
(dp474
g10
I1
ssssS'edge'
p475
g91
sS'graph'
p476
(dp477
sS'adjlist_dict_factory'
p478
g88
sS'adj'
p479
g91
sS'pred'
p480
(dp481
g8
(dp482
g171
g125
sg121
g166
sg177
g256
sg93
g349
ssg11
(dp483
Vcom.tencent.mobileqq
p484
g350
sg236
g430
sVcom.astrogame.sherman
p485
g209
sVcom.android.phone
p486
g231
sVcom.tencent.mm
p487
g257
sVcom.kingreader.framework
p488
g327
ssg13
(dp489
g487
g258
sg59
g332
sg11
g107
sg39
g213
ssg15
(dp490
Vcom.tencent.mm
p491
g260
sVcom.astrogame.sherman
p492
g214
sVcom.meizu.flyme.weather
p493
g307
ssg17
(dp494
g75
g434
sg121
g172
sg369
g315
sVcom.astrogame.sherman
p495
g216
sVcom.tencent.mm
p496
g262
sVcom.tencent.mobileqq
p497
g351
ssg19
(dp498
Vcom.tencent.mobileqq
p499
g352
sVcom.astrogame.sherman
p500
g223
sVcom.taobao.taobao
p501
g195
ssg21
(dp502
g395
g353
sg65
g399
sg397
g263
sg284
g418
ssg23
(dp503
g69
g410
sg25
g143
sg408
g264
ssg25
(dp504
g69
g406
sg408
g265
ssg27
(dp505
Vcom.meizu.notepaper
p506
g385
sg190
g266
sVcom.jingdong.app.mall
p507
g186
sg45
g253
sVcom.tencent.mobileqq
p508
g355
sg153
g159
ssg29
(dp509
Vcom.tencent.mobileqq
p510
g356
sg100
g458
sg360
g228
sVcom.icbc
p511
g254
sVcom.mymoney
p512
g154
sVcom.kingreader.framework
p513
g346
ssg31
(dp514
g57
g323
ssg33
(dp515
g67
g403
sVcom.tencent.mm
p516
g268
sVcom.UCMobile
p517
g122
sVcom.astrogame.sherman
p518
g212
sVcom.tencent.mobileqq
p519
g357
sg83
g467
sVtv.danmaku.bili
p520
g297
ssg35
(dp521
g190
g270
sVcom.meizu.notepaper
p522
g386
sg27
g148
sVcom.tencent.mobileqq
p523
g358
ssg37
(dp524
g196
g388
sVcom.tencent.mobileqq
p525
g359
sVcom.kingreader.framework
p526
g334
ssg39
(dp527
g63
g384
sg55
g321
sg230
g99
sg510
g361
sVcom.android.packageinstaller
p528
g176
sg221
g241
sg288
g436
sVcom.baidu.netdisk
p529
g112
sVcom.taobao.taobao
p530
g201
sg77
g447
sg100
g453
sg59
g337
sg49
g301
sVcom.meizu.media.gallery
p531
g248
sg8
g96
sVcom.tencent.mm
p532
g272
sg29
g161
ssg41
(dp533
g71
g419
sg377
g438
sVcom.astrogame.sherman
p534
g222
sVcom.kingreader.framework
p535
g331
sg420
g273
sg412
g362
ssg43
(dp536
g69
g407
sVcom.tencent.mobileqq
p537
g363
sVcom.kingreader.framework
p538
g341
sg23
g140
sg25
g142
sVcom.tencent.mm
p539
g274
ssg45
(dp540
g252
g150
ssg47
(dp541
g184
g391
sg65
g398
sg286
g424
sg69
g409
sg71
g421
sVcom.meizu.media.camera
p542
g317
sg493
g310
sg75
g440
sVcom.jingdong.app.mall
p543
g191
sg85
g470
sg17
g129
sg77
g445
sg126
g451
sg281
g329
sg486
g243
sg354
g152
sg224
g463
sg61
g368
sg121
g178
sVtv.danmaku.bili
p544
g299
sVcom.astrogame.sherman
p545
g211
ssg49
(dp546
Vcom.tencent.mobileqq
p547
g366
sg528
g182
sVcom.tencent.mm
p548
g278
ssg51
(dp549
Vcom.tencent.mobileqq
p550
g367
sVcom.astrogame.sherman
p551
g207
ssg53
(dp552
g354
g155
sVcom.tencent.mm
p553
g293
sVcom.jingdong.app.mall
p554
g189
ssg55
(dp555
g314
g118
sVcom.tencent.mobileqq
p556
g370
sg554
g188
sg53
g308
ssg57
(dp557
g31
g164
sVcom.android.settings
p558
g415
sVcom.tencent.mm
p559
g280
sVcom.tencent.mobileqq
p560
g371
ssg59
(dp561
g205
g390
sg11
g105
sVcom.tencent.mm
p562
g282
sVcom.tencent.qt.qtl
p563
g428
sg333
g203
sVcom.qzone
p564
g449
sVcom.baidu.tieba
p565
g460
sVcom.astrogame.sherman
p566
g220
sVcom.android.settings
p567
g417
sVcom.meizu.media.gallery
p568
g250
sVcom.tencent.mobileqq
p569
g373
ssg61
(dp570
g8
g94
sg230
g103
sVcom.baidu.netdisk
p571
g110
sg306
g115
sg215
g133
sVcom.blizzard.wtcg.hearthstone
p572
g137
sVcom.mymoney
p573
g146
sg153
g157
sg528
g170
sg35
g193
sg37
g199
sVcom.astrogame.sherman
p574
g227
sVcom.android.phone
p575
g233
sg43
g246
sg85
g474
sg544
g296
sg51
g304
sg420
g276
sg369
g319
sVcom.kingreader.framework
p576
g344
sg63
g393
sg65
g396
sg71
g413
sg73
g426
sg236
g431
sg335
g443
sVcom.baidu.tieba
p577
g456
sg81
g465
sg53
g312
ssg63
(dp578
Vcom.tencent.mm
p579
g283
sVcom.tencent.mobileqq
p580
g374
sVcom.jingdong.app.mall
p581
g185
sVcom.taobao.taobao
p582
g197
sVcom.astrogame.sherman
p583
g206
ssg65
(dp584
sg67
(dp585
g402
g168
ssg69
(dp586
sg71
(dp587
g65
g400
sg279
g325
sg397
g285
sVcom.UCMobile
p588
g120
sVcom.baidu.tieba
p589
g454
sVcom.kingreader.framework
p590
g339
sg395
g375
ssg73
(dp591
Vcom.tencent.mobileqq
p592
g376
sVcom.tencent.mm
p593
g287
sVcom.baidu.tieba
p594
g452
sg377
g432
sVcom.android.phone
p595
g235
ssg75
(dp596
g433
g124
sg242
g289
sVcom.tencent.mobileqq
p597
g378
sg486
g237
ssg77
(dp598
Vcom.tencent.mobileqq
p599
g379
sVcom.kingreader.framework
p600
g336
ssg79
(dp601
g67
g404
sg230
g101
sVcom.tencent.mobileqq
p602
g380
sg402
g174
sg288
g435
sg17
g127
sVcom.astrogame.sherman
p603
g218
sg575
g239
sVcom.tencent.mm
p604
g290
sg85
g472
ssg81
(dp605
Vcom.tencent.mobileqq
p606
g381
sVcom.tencent.mm
p607
g291
sVcom.astrogame.sherman
p608
g225
sg389
g342
ssg83
(dp609
g261
g131
sg33
g180
sg496
g292
ssg85
(dp610
Vcom.tencent.mobileqq
p611
g364
sssb.