ccopy_reg
_reconstructor
p1
(cnetworkx.classes.digraph
DiGraph
p2
c__builtin__
object
p3
NtRp4
(dp5
S'node'
p6
(dp7
Vcom.android.browser
p8
(dp9
S'weight'
p10
F1.341021858656296e-05
ssVcom.baidu.appsearch
p11
(dp12
g10
F0.0068995574627866438
ssVzte.com.cn.cmmb
p13
(dp14
g10
F2.6820437173125921e-05
ssVcom.android.settings
p15
(dp16
g10
F0.0013007912028966072
ssVcom.tencent.mm
p17
(dp18
g10
F0.022602923427651869
ssVair.tv.douyu.android
p19
(dp20
g10
F0.0017165079790800589
ssVcom.android.mms
p21
(dp22
g10
F0.024346251843905056
ssVcom.UCMobile
p23
(dp24
g10
F0.085134772696794953
ssVcom.android.launcher
p25
(dp26
g10
F0.62911358455142818
ssVcom.android.phone
p27
(dp28
g10
F0.0015622904653345849
ssVcom.tencent.mobileqq
p29
(dp30
g10
F0.22386348397478878
ssVcom.android.contacts
p31
(dp32
g10
F0.0027356845916588438
ssVcom.eg.android.AlipayGphone
p33
(dp34
g10
F0.00068392114791471096
sssS'node_dict_factory'
p35
c__builtin__
dict
p36
sS'edge_attr_dict_factory'
p37
g36
sS'succ'
p38
(dp39
g8
(dp40
Vcom.android.settings
p41
(dp42
g10
F0.90000000000000002
ssVcom.android.launcher
p43
(dp44
g10
F1.7
ssVcom.UCMobile
p45
(dp46
g10
F0.40000000000000002
sssg11
(dp47
Vcom.UCMobile
p48
(dp49
g10
I1
ssVcom.android.launcher
p50
(dp51
g10
F1.3
ssVcom.android.settings
p52
(dp53
g10
F0.69999999999999996
sssg13
(dp54
Vcom.android.settings
p55
(dp56
g10
F0.90000000000000002
ssVcom.android.launcher
p57
(dp58
g10
I1
sssg15
(dp59
g45
(dp60
g10
F0.90000000000000002
ssVcom.android.launcher
p61
(dp62
g10
I7
sssg17
(dp63
Vcom.UCMobile
p64
(dp65
g10
I1
ssVcom.android.contacts
p66
(dp67
g10
I1
ssVcom.android.launcher
p68
(dp69
g10
I1
sssg19
(dp70
sg21
(dp71
Vcom.android.settings
p72
(dp73
g10
F1.3
ssVcom.android.launcher
p74
(dp75
g10
F6.7000000000000002
ssVcom.android.phone
p76
(dp77
g10
I2
ssVcom.tencent.mm
p78
(dp79
g10
F0.90000000000000002
ssVcom.android.contacts
p80
(dp81
g10
I1
ssVcom.tencent.mobileqq
p82
(dp83
g10
I1
sssg23
(dp84
Vcom.android.settings
p85
(dp86
g10
F6.2000000000000002
ssVcom.tencent.mm
p87
(dp88
g10
F1.3999999999999999
ssVcom.tencent.mobileqq
p89
(dp90
g10
I1
ssVcom.android.mms
p91
(dp92
g10
F0.90000000000000002
ssVcom.android.launcher
p93
(dp94
g10
F10.699999999999999
sssg25
(dp95
g8
(dp96
g10
I1
ssg13
(dp97
g10
I1
ssg15
(dp98
g10
F15.499999999999996
ssVcom.tencent.mm
p99
(dp100
g10
F2.7000000000000002
ssg19
(dp101
g10
I1
ssVcom.android.mms
p102
(dp103
g10
I6
ssg23
(dp104
g10
F3.7000000000000002
ssVcom.android.phone
p105
(dp106
g10
F4.7999999999999998
ssg29
(dp107
g10
F9.6999999999999993
ssg31
(dp108
g10
F4.5999999999999996
ssg33
(dp109
g10
I2
sssg27
(dp110
Vcom.android.mms
p111
(dp112
g10
F0.90000000000000002
ssVcom.android.contacts
p113
(dp114
g10
I3
ssVcom.android.launcher
p115
(dp116
g10
I1
sssg29
(dp117
Vcom.android.settings
p118
(dp119
g10
F0.90000000000000002
ssVcom.android.mms
p120
(dp121
g10
I1
ssVcom.android.contacts
p122
(dp123
g10
I1
ssVcom.android.launcher
p124
(dp125
g10
I4
ssVcom.android.phone
p126
(dp127
g10
F0.90000000000000002
sssg31
(dp128
g111
(dp129
g10
I1
ssVcom.tencent.mm
p130
(dp131
g10
I1
ssVcom.android.phone
p132
(dp133
g10
I1
sssg33
(dp134
Vcom.android.settings
p135
(dp136
g10
F0.90000000000000002
ssVcom.android.launcher
p137
(dp138
g10
I2
ssssS'edge'
p139
g39
sS'graph'
p140
(dp141
sS'adjlist_dict_factory'
p142
g36
sS'adj'
p143
g39
sS'pred'
p144
(dp145
g8
(dp146
Vcom.android.launcher
p147
g96
ssg11
(dp148
sg13
(dp149
Vcom.android.launcher
p150
g97
ssg15
(dp151
g8
g42
sg13
g56
sg11
g53
sVcom.android.mms
p152
g73
sVcom.UCMobile
p153
g86
sVcom.android.launcher
p154
g98
sg89
g119
sg33
g136
ssg17
(dp155
Vcom.UCMobile
p156
g88
sg91
g79
sg66
g131
sg68
g100
ssg19
(dp157
g25
g101
ssg21
(dp158
Vcom.UCMobile
p159
g92
sg82
g121
sVcom.android.contacts
p160
g129
sVcom.android.launcher
p161
g103
sVcom.android.phone
p162
g112
ssg23
(dp163
g8
g46
sg87
g65
sg11
g49
sVcom.android.launcher
p164
g104
sg41
g60
ssg25
(dp165
g8
g44
sg13
g58
sg15
g62
sVcom.tencent.mm
p166
g69
sVcom.android.mms
p167
g75
sg153
g94
sVcom.android.phone
p168
g116
sg11
g51
sg33
g138
sVcom.tencent.mobileqq
p169
g125
ssg27
(dp170
Vcom.android.mms
p171
g77
sg169
g127
sVcom.android.contacts
p172
g133
sVcom.android.launcher
p173
g106
ssg29
(dp174
Vcom.UCMobile
p175
g90
sg21
g83
sVcom.android.launcher
p176
g107
ssg31
(dp177
g17
g67
sVcom.tencent.mobileqq
p178
g123
sVcom.android.mms
p179
g81
sVcom.android.launcher
p180
g108
sg27
g114
ssg33
(dp181
Vcom.android.launcher
p182
g109
sssb.