ccopy_reg
_reconstructor
p1
(cnetworkx.classes.digraph
DiGraph
p2
c__builtin__
object
p3
NtRp4
(dp5
S'node'
p6
(dp7
Vcom.android.browser
p8
(dp9
S'weight'
p10
F5.6543993616811385e-05
ssVcom.wandoujia.phoenix2
p11
(dp12
g10
F2.7951107955741592e-06
ssVcom.suning.mobile.ebuy
p13
(dp14
g10
F0.00012849909660499087
ssVme.rgmmpk.jshkjv.ksprvropjqtm
p15
(dp16
g10
F2.8711107869946046e-07
ssVcom.android.deskclock
p17
(dp18
g10
F1.6002220415749339e-05
ssVcom.sohu.inputmethod.sogou
p19
(dp20
g10
F1.1822220887624842e-07
ssVcom.meizu.media.painter
p21
(dp22
g10
F3.7999995710222705e-07
ssVcom.eg.android.AlipayGphone
p23
(dp24
g10
F4.3649328405809147e-05
ssVcn.wps.moffice_eng
p25
(dp26
g10
F3.3777773964642403e-08
ssVcom.meizu.weathersearch
p27
(dp28
g10
F2.7951107955741592e-06
ssVcom.android.packageinstaller
p29
(dp30
g10
F9.6266655799230866e-07
ssVcom.sankuai.meituan
p31
(dp32
g10
F8.123554638496499e-06
ssVcom.android.gallery3d
p33
(dp34
g10
F7.6759991334649872e-06
ssVme.ele
p35
(dp36
g10
F4.1799995281244977e-05
ssVcom.taobao.taobao
p37
(dp38
g10
F9.7279989018170124e-06
ssVcom.mfw.roadbook
p39
(dp40
g10
F2.2757775208677821e-05
ssVcom.android.video
p41
(dp42
g10
F1.12311098432436e-06
ssVcom.android.phone
p43
(dp44
g10
F0.00032661418535110976
ssVcom.tencent.mobileqq
p45
(dp46
g10
F0.0017136224732177297
ssVtv.danmaku.bili
p47
(dp48
g10
F0.00021688708662696889
ssVcom.sankuai.meituan.takeoutnew
p49
(dp50
g10
F7.2199991849423139e-06
ssVcom.xuxian.market
p51
(dp52
g10
F4.1825328611718457e-05
ssVcom.sogou.xiaop_android
p53
(dp54
g10
F3.1919996396587072e-06
ssVcom.meizu.mstore
p55
(dp56
g10
F5.9111104438124211e-08
ssVcom.android.calculator
p57
(dp58
g10
F8.4444434911606012e-08
ssVcom.ziroom.ziroomcustomer
p59
(dp60
g10
F7.0257769846456198e-05
ssVcom.dianping.v1
p61
(dp62
g10
F4.2391106325626215e-06
ssVcom.nuomi
p63
(dp64
g10
F0.00035177862695476834
ssVcom.android.fileexplorer
p65
(dp66
g10
F9.5422211450114797e-07
ssVcom.android.email
p67
(dp68
g10
F2.5333330473481804e-08
ssVcom.kaola
p69
(dp70
g10
F7.3551102808008842e-06
ssVcom.MobileTicket
p71
(dp72
g10
F6.8256436739051138e-05
ssVcom.android.calendar
p73
(dp74
g10
F1.2497776366917689e-06
ssVcom.tencent.mm
p75
(dp76
g10
F0.0017629971343105456
ssVcom.android.mms
p77
(dp78
g10
F0.0001041030993590279
ssVcom.baidu.BaiduMap
p79
(dp80
g10
F0.00012559420804403163
ssVcom.baidu.tieba
p81
(dp82
g10
F3.7011995821756919e-05
ssVcom.privatekitchen.huijia
p83
(dp84
g10
F7.4142213852390082e-06
ssVcom.android.settings
p85
(dp86
g10
F0.9948056961419347
ssVcom.meizu.media.music
p87
(dp88
g10
F2.5333330473481804e-08
ssVcn.opda.a.phonoalbumshoushou
p89
(dp90
g10
F2.6177774822597864e-07
sssS'node_dict_factory'
p91
c__builtin__
dict
p92
sS'edge_attr_dict_factory'
p93
g92
sS'succ'
p94
(dp95
g8
(dp96
Vcom.MobileTicket
p97
(dp98
g10
F2.6000000000000001
ssg53
(dp99
g10
F0.90000000000000002
ssVcom.suning.mobile.ebuy
p100
(dp101
g10
F2.0999999999999996
ssVcom.xuxian.market
p102
(dp103
g10
F1.8999999999999999
ssVcom.tencent.mm
p104
(dp105
g10
F12.199999999999999
ssg29
(dp106
g10
F4.7999999999999998
ssVcom.android.phone
p107
(dp108
g10
I2
ssVcom.baidu.BaiduMap
p109
(dp110
g10
F7.8000000000000007
ssVcom.dianping.v1
p111
(dp112
g10
F2.3999999999999999
ssg17
(dp113
g10
F0.90000000000000002
ssg81
(dp114
g10
F0.90000000000000002
ssg83
(dp115
g10
F1.1000000000000001
ssVcom.android.settings
p116
(dp117
g10
F2.3999999999999999
ssVcom.tencent.mobileqq
p118
(dp119
g10
F2.7000000000000002
ssg69
(dp120
g10
F0.69999999999999996
ssVcom.eg.android.AlipayGphone
p121
(dp122
g10
F1.3
ssg49
(dp123
g10
F0.90000000000000002
sssg11
(dp124
Vcom.android.browser
p125
(dp126
g10
F2.2000000000000002
ssg55
(dp127
g10
I1
ssg15
(dp128
g10
F3.3999999999999999
ssVcom.android.settings
p129
(dp130
g10
F2.7000000000000002
ssg29
(dp131
g10
F1.1000000000000001
ssVcom.baidu.BaiduMap
p132
(dp133
g10
F1.7
ssg59
(dp134
g10
F2.6000000000000001
ssg81
(dp135
g10
F0.40000000000000002
ssVcom.tencent.mm
p136
(dp137
g10
F3.7999999999999998
ssVcn.opda.a.phonoalbumshoushou
p138
(dp139
g10
I1
sssg13
(dp140
g63
(dp141
g10
F0.69999999999999996
ssVcom.android.browser
p142
(dp143
g10
I1
ssVcom.tencent.mm
p144
(dp145
g10
F5.2000000000000002
ssg17
(dp146
g10
F1.7
ssVme.ele
p147
(dp148
g10
I1
ssVcom.android.phone
p149
(dp150
g10
F1.8999999999999999
ssVcom.tencent.mobileqq
p151
(dp152
g10
I1
ssVcom.eg.android.AlipayGphone
p153
(dp154
g10
I1
sssg15
(dp155
Vcom.wandoujia.phoenix2
p156
(dp157
g10
F4.7000000000000002
ssg59
(dp158
g10
F0.40000000000000002
sssg17
(dp159
Vcom.tencent.mm
p160
(dp161
g10
F1.8999999999999999
ssVcom.android.phone
p162
(dp163
g10
F1.8999999999999999
sssg19
(dp164
Vcom.tencent.mobileqq
p165
(dp166
g10
F1.3
ssVcom.tencent.mm
p167
(dp168
g10
F6.5000000000000009
ssVtv.danmaku.bili
p169
(dp170
g10
F0.90000000000000002
sssg21
(dp171
Vcom.sankuai.meituan
p172
(dp173
g10
I1
sssg23
(dp174
Vcom.android.browser
p175
(dp176
g10
F0.90000000000000002
ssg25
(dp177
g10
I1
ssVcom.xuxian.market
p178
(dp179
g10
F3.2999999999999998
ssVcom.android.calculator
p180
(dp181
g10
F0.90000000000000002
ssVcom.android.packageinstaller
p182
(dp183
g10
F0.40000000000000002
ssg77
(dp184
g10
F1.8999999999999999
ssVcom.taobao.taobao
p185
(dp186
g10
F1.3999999999999999
ssVcom.dianping.v1
p187
(dp188
g10
F1.7
ssg65
(dp189
g10
F1.8999999999999999
ssVme.ele
p190
(dp191
g10
F4.7999999999999998
ssg149
(dp192
g10
F3.8999999999999999
ssVcom.tencent.mm
p193
(dp194
g10
F32.79999999999999
sssg25
(dp195
Vcom.tencent.mm
p196
(dp197
g10
I1
ssVcom.eg.android.AlipayGphone
p198
(dp199
g10
F0.90000000000000002
sssg27
(dp200
Vcom.android.gallery3d
p201
(dp202
g10
I1
ssVme.ele
p203
(dp204
g10
I1
ssVcom.tencent.mm
p205
(dp206
g10
F8.4000000000000004
ssVcom.android.mms
p207
(dp208
g10
F1.3999999999999999
sssg29
(dp209
Vcom.android.browser
p210
(dp211
g10
F0.90000000000000002
ssg53
(dp212
g10
F1.3999999999999999
ssVcom.android.settings
p213
(dp214
g10
F0.69999999999999996
ssg81
(dp215
g10
I1
ssg83
(dp216
g10
F1.8999999999999999
ssVcom.tencent.mm
p217
(dp218
g10
F2.9000000000000004
ssg69
(dp219
g10
F1.7
ssg49
(dp220
g10
I1
sssg31
(dp221
Vcom.xuxian.market
p222
(dp223
g10
F1.7
ssVcom.android.settings
p224
(dp225
g10
F1.1000000000000001
ssVcom.dianping.v1
p226
(dp227
g10
F2
ssVcom.nuomi
p228
(dp229
g10
F4
ssVcom.tencent.mm
p230
(dp231
g10
F7.1000000000000005
ssVcom.eg.android.AlipayGphone
p232
(dp233
g10
F0.90000000000000002
sssg33
(dp234
Vcom.tencent.mm
p235
(dp236
g10
F20.399999999999999
ssVcom.android.phone
p237
(dp238
g10
I1
sssg35
(dp239
Vcom.android.calculator
p240
(dp241
g10
I1
ssVcom.android.settings
p242
(dp243
g10
I1
ssVcom.android.video
p244
(dp245
g10
F0.90000000000000002
ssVcom.android.phone
p246
(dp247
g10
F3.3999999999999999
ssVcom.tencent.mm
p248
(dp249
g10
F12.000000000000002
ssg23
(dp250
g10
F3.7000000000000002
sssg37
(dp251
Vcom.tencent.mm
p252
(dp253
g10
F4.9000000000000004
ssVcom.eg.android.AlipayGphone
p254
(dp255
g10
F0.90000000000000002
ssVcom.android.phone
p256
(dp257
g10
I1
sssg39
(dp258
Vcom.xuxian.market
p259
(dp260
g10
I1
ssVcom.tencent.mm
p261
(dp262
g10
I1
sssg41
(dp263
Vcom.android.settings
p264
(dp265
g10
F0.90000000000000002
ssVcom.tencent.mm
p266
(dp267
g10
F1.7
sssg43
(dp268
Vcom.MobileTicket
p269
(dp270
g10
F5.5999999999999996
ssVcom.suning.mobile.ebuy
p271
(dp272
g10
I1
ssVcom.android.browser
p273
(dp274
g10
I1
ssVcom.android.settings
p275
(dp276
g10
F3.6999999999999997
ssVcom.android.mms
p277
(dp278
g10
F11.5
ssg244
(dp279
g10
I1
ssVcom.baidu.BaiduMap
p280
(dp281
g10
F3.3999999999999999
ssVcom.nuomi
p282
(dp283
g10
F0.90000000000000002
ssVme.ele
p284
(dp285
g10
F2.8999999999999999
ssVtv.danmaku.bili
p286
(dp287
g10
F1.7
ssVcom.dianping.v1
p288
(dp289
g10
F0.69999999999999996
ssVcom.tencent.mm
p290
(dp291
g10
F82.100000000000051
ssVcom.kaola
p292
(dp293
g10
F0.40000000000000002
ssVcom.eg.android.AlipayGphone
p294
(dp295
g10
F2.5999999999999996
ssVcom.tencent.mobileqq
p296
(dp297
g10
F7.2000000000000011
sssg45
(dp298
Vtv.danmaku.bili
p299
(dp300
g10
F4
ssVcom.xuxian.market
p301
(dp302
g10
F1.3999999999999999
ssVcom.suning.mobile.ebuy
p303
(dp304
g10
F2.0999999999999996
ssVcom.android.browser
p305
(dp306
g10
F2.3999999999999999
ssVcom.android.calendar
p307
(dp308
g10
I1
ssVcom.android.settings
p309
(dp310
g10
I2
ssVcom.android.mms
p311
(dp312
g10
I2
ssVcom.baidu.BaiduMap
p313
(dp314
g10
F0.40000000000000002
ssVcom.ziroom.ziroomcustomer
p315
(dp316
g10
I1
ssg63
(dp317
g10
F0.90000000000000002
ssg180
(dp318
g10
F0.69999999999999996
ssVcom.privatekitchen.huijia
p319
(dp320
g10
I1
ssg43
(dp321
g10
F11.900000000000002
ssg87
(dp322
g10
F0.90000000000000002
ssg67
(dp323
g10
I1
ssVcom.tencent.mm
p324
(dp325
g10
F80.400000000000034
ssVcom.eg.android.AlipayGphone
p326
(dp327
g10
F5.5
ssVcom.MobileTicket
p328
(dp329
g10
F1.8999999999999999
sssg47
(dp330
Vcom.tencent.mobileqq
p331
(dp332
g10
F2.6000000000000001
ssVcom.tencent.mm
p333
(dp334
g10
F9.5999999999999996
ssVcom.android.browser
p335
(dp336
g10
F0.90000000000000002
ssVcom.android.phone
p337
(dp338
g10
I1
sssg49
(dp339
Vcom.tencent.mm
p340
(dp341
g10
F2.8999999999999999
sssg51
(dp342
Vcom.MobileTicket
p343
(dp344
g10
I1
ssVcom.suning.mobile.ebuy
p345
(dp346
g10
F0.90000000000000002
ssVcom.android.browser
p347
(dp348
g10
I1
ssVcom.tencent.mm
p349
(dp350
g10
F15.4
ssVcom.sankuai.meituan
p351
(dp352
g10
I1
ssg41
(dp353
g10
I1
ssg264
(dp354
g10
F0.69999999999999996
ssVcom.tencent.mobileqq
p355
(dp356
g10
I1
ssVcom.eg.android.AlipayGphone
p357
(dp358
g10
F2.7000000000000002
sssg53
(dp359
Vcom.tencent.mm
p360
(dp361
g10
F3.2999999999999998
sssg55
(dp362
Vcom.android.browser
p363
(dp364
g10
F0.69999999999999996
ssVcom.android.packageinstaller
p365
(dp366
g10
F0.40000000000000002
ssVcom.wandoujia.phoenix2
p367
(dp368
g10
I1
ssg132
(dp369
g10
F0.90000000000000002
sssg57
(dp370
g244
(dp371
g10
F0.40000000000000002
ssg65
(dp372
g10
F0.69999999999999996
ssVme.ele
p373
(dp374
g10
F0.90000000000000002
ssg246
(dp375
g10
F0.69999999999999996
ssVcom.tencent.mm
p376
(dp377
g10
I2
ssVcom.eg.android.AlipayGphone
p378
(dp379
g10
F2.2999999999999998
sssg59
(dp380
Vcom.tencent.mm
p381
(dp382
g10
F9.5999999999999996
ssVcom.MobileTicket
p383
(dp384
g10
F1.8999999999999999
ssVcom.wandoujia.phoenix2
p385
(dp386
g10
I1
ssVcom.android.browser
p387
(dp388
g10
F0.90000000000000002
ssVcom.tencent.mobileqq
p389
(dp390
g10
F3.7999999999999998
sssg61
(dp391
Vcom.android.browser
p392
(dp393
g10
F2.3999999999999999
ssg224
(dp394
g10
F2.2999999999999998
ssVcom.sankuai.meituan
p395
(dp396
g10
I1
ssVcom.baidu.BaiduMap
p397
(dp398
g10
I1
ssVcom.nuomi
p399
(dp400
g10
F2.5999999999999996
ssVcom.tencent.mm
p401
(dp402
g10
F9.5000000000000018
ssg121
(dp403
g10
I1
sssg63
(dp404
g392
(dp405
g10
F1.3999999999999999
ssVcom.android.settings
p406
(dp407
g10
F1.8999999999999999
ssg31
(dp408
g10
F2.7000000000000002
ssg313
(dp409
g10
F5.9000000000000004
ssg61
(dp410
g10
F4.2999999999999998
ssVcom.tencent.mm
p411
(dp412
g10
F22.399999999999991
sssg65
(dp413
Vcom.tencent.mm
p414
(dp415
g10
F0.90000000000000002
ssVcom.eg.android.AlipayGphone
p416
(dp417
g10
I1
sssg67
(dp418
sg69
(dp419
Vcom.android.mms
p420
(dp421
g10
F5
ssg217
(dp422
g10
F8.8000000000000007
ssVcom.baidu.BaiduMap
p423
(dp424
g10
I1
ssVcom.xuxian.market
p425
(dp426
g10
F1.7
ssVcom.MobileTicket
p427
(dp428
g10
I1
sssg71
(dp429
Vcom.android.browser
p430
(dp431
g10
F4
ssg345
(dp432
g10
I1
ssg102
(dp433
g10
F1.6000000000000001
ssVcom.android.mms
p434
(dp435
g10
I1
ssVcom.baidu.BaiduMap
p436
(dp437
g10
F1.7
ssVcom.kaola
p438
(dp439
g10
F0.90000000000000002
ssVcom.android.phone
p440
(dp441
g10
I1
ssVcom.tencent.mm
p442
(dp443
g10
F9.5999999999999996
ssVcom.eg.android.AlipayGphone
p444
(dp445
g10
F1.8999999999999999
sssg73
(dp446
Vcom.tencent.mm
p447
(dp448
g10
I3
ssg87
(dp449
g10
I1
ssVcom.android.mms
p450
(dp451
g10
F1.7
ssVcom.tencent.mobileqq
p452
(dp453
g10
F0.90000000000000002
ssVcom.android.phone
p454
(dp455
g10
F0.90000000000000002
sssg75
(dp456
g430
(dp457
g10
F25.599999999999994
ssVcom.wandoujia.phoenix2
p458
(dp459
g10
I1
ssVcom.suning.mobile.ebuy
p460
(dp461
g10
F10.1
ssg19
(dp462
g10
F7.6000000000000005
ssg21
(dp463
g10
F0.90000000000000002
ssg23
(dp464
g10
F34.899999999999991
ssg25
(dp465
g10
F0.90000000000000002
ssg27
(dp466
g10
F8.4000000000000004
ssg29
(dp467
g10
F6.6000000000000005
ssg31
(dp468
g10
F8.5999999999999996
ssVcom.android.gallery3d
p469
(dp470
g10
F21.099999999999998
ssVme.ele
p471
(dp472
g10
F9.3000000000000007
ssg185
(dp473
g10
F3.8999999999999999
ssg244
(dp474
g10
F0.69999999999999996
ssVcom.android.phone
p475
(dp476
g10
F80.600000000000023
ssVcom.tencent.mobileqq
p477
(dp478
g10
F74.700000000000031
ssg47
(dp479
g10
F14.9
ssg49
(dp480
g10
F3
ssg51
(dp481
g10
F14.699999999999999
ssg53
(dp482
g10
F4.9000000000000004
ssg57
(dp483
g10
I2
ssVcom.ziroom.ziroomcustomer
p484
(dp485
g10
I2
ssg61
(dp486
g10
F7.7000000000000011
ssg63
(dp487
g10
F23.799999999999994
ssg65
(dp488
g10
F0.40000000000000002
ssg67
(dp489
g10
F1.6000000000000001
ssg69
(dp490
g10
F7.9000000000000004
ssg71
(dp491
g10
F16
ssg73
(dp492
g10
F7.1000000000000005
ssVcom.android.settings
p493
(dp494
g10
F17
ssVcom.android.mms
p495
(dp496
g10
F33.099999999999987
ssg313
(dp497
g10
F15.1
ssg83
(dp498
g10
F2.8999999999999999
ssg87
(dp499
g10
F1.1000000000000001
ssVcn.opda.a.phonoalbumshoushou
p500
(dp501
g10
F2
sssg77
(dp502
Vcom.xuxian.market
p503
(dp504
g10
F2.3999999999999999
ssVcom.sogou.xiaop_android
p505
(dp506
g10
F3.5
ssVcom.MobileTicket
p507
(dp508
g10
F1.8999999999999999
ssVcom.android.settings
p509
(dp510
g10
F4.7999999999999998
ssVcom.sohu.inputmethod.sogou
p511
(dp512
g10
F0.90000000000000002
ssVcom.eg.android.AlipayGphone
p513
(dp514
g10
F3
ssVcom.android.phone
p515
(dp516
g10
F12.5
ssVcom.tencent.mm
p517
(dp518
g10
F35.5
ssg500
(dp519
g10
F2.0999999999999996
ssVcom.kaola
p520
(dp521
g10
F2.2999999999999998
sssg79
(dp522
Vcom.android.browser
p523
(dp524
g10
F6.1000000000000005
ssVcom.android.settings
p525
(dp526
g10
F0.40000000000000002
ssg365
(dp527
g10
F0.90000000000000002
ssg395
(dp528
g10
F0.90000000000000002
ssVcom.android.mms
p529
(dp530
g10
F0.90000000000000002
ssg288
(dp531
g10
F1.8999999999999999
ssVcom.nuomi
p532
(dp533
g10
I2
ssg81
(dp534
g10
F0.69999999999999996
ssg438
(dp535
g10
I1
ssVcom.tencent.mm
p536
(dp537
g10
F16.799999999999997
ssg47
(dp538
g10
F0.90000000000000002
sssg81
(dp539
g210
(dp540
g10
I1
ssg213
(dp541
g10
F0.90000000000000002
sssg83
(dp542
sg85
(dp543
g392
(dp544
g10
F3.2999999999999998
ssg172
(dp545
g10
F0.90000000000000002
ssVcom.wandoujia.phoenix2
p546
(dp547
g10
F2.7000000000000002
ssVcom.suning.mobile.ebuy
p548
(dp549
g10
F0.69999999999999996
ssg427
(dp550
g10
F0.69999999999999996
ssg15
(dp551
g10
F1.3
ssVcom.tencent.mobileqq
p552
(dp553
g10
F1.8999999999999999
ssg21
(dp554
g10
I1
ssg495
(dp555
g10
F8.0000000000000018
ssVcom.dianping.v1
p556
(dp557
g10
F2.2999999999999998
ssVcom.nuomi
p558
(dp559
g10
F2.7000000000000002
ssVme.ele
p560
(dp561
g10
I1
ssg292
(dp562
g10
F2.5999999999999996
ssVtv.danmaku.bili
p563
(dp564
g10
I1
ssVcom.android.phone
p565
(dp566
g10
F3.7999999999999998
ssVcom.android.gallery3d
p567
(dp568
g10
F0.90000000000000002
ssVcom.tencent.mm
p569
(dp570
g10
F14.6
ssVcn.opda.a.phonoalbumshoushou
p571
(dp572
g10
F2.8999999999999999
ssVcom.eg.android.AlipayGphone
p573
(dp574
g10
F1.7
sssg87
(dp575
sg89
(dp576
Vcom.MobileTicket
p577
(dp578
g10
I1
ssVcom.wandoujia.phoenix2
p579
(dp580
g10
F1.7
ssg102
(dp581
g10
F0.40000000000000002
ssg15
(dp582
g10
F0.40000000000000002
ssVcom.android.settings
p583
(dp584
g10
F2.8999999999999999
ssVcom.android.browser
p585
(dp586
g10
F1.6000000000000001
ssVcom.android.mms
p587
(dp588
g10
F1.7
ssVcom.tencent.mm
p589
(dp590
g10
F2
ssssS'edge'
p591
g95
sS'graph'
p592
(dp593
sS'adjlist_dict_factory'
p594
g92
sS'adj'
p595
g95
sS'pred'
p596
(dp597
g8
(dp598
Vcom.MobileTicket
p599
g431
sg458
g126
sg55
g364
sVcom.suning.mobile.ebuy
p600
g143
sVcom.xuxian.market
p601
g348
sVcom.tencent.mobileqq
p602
g306
sg365
g211
sVcom.android.phone
p603
g274
sVcom.baidu.BaiduMap
p604
g524
sVcom.ziroom.ziroomcustomer
p605
g388
sg226
g393
sVcom.nuomi
p606
g405
sg81
g540
sVtv.danmaku.bili
p607
g336
sg224
g544
sVcom.tencent.mm
p608
g457
sg89
g586
sg444
g176
ssg11
(dp609
g55
g368
sg15
g157
sg129
g547
sg59
g386
sVcom.tencent.mm
p610
g459
sg138
g580
ssg13
(dp611
g142
g101
sg102
g346
sVcom.android.settings
p612
g549
sVcom.android.phone
p613
g272
sg343
g432
sVcom.tencent.mm
p614
g461
sVcom.tencent.mobileqq
p615
g304
ssg15
(dp616
Vcom.android.settings
p617
g551
sg579
g128
sg138
g582
ssg17
(dp618
g142
g113
sg600
g146
ssg19
(dp619
Vcom.android.mms
p620
g512
sVcom.tencent.mm
p621
g462
ssg21
(dp622
Vcom.android.settings
p623
g554
sVcom.tencent.mm
p624
g463
ssg23
(dp625
g392
g122
sg25
g199
sg13
g154
sg328
g445
sg57
g379
sVcom.android.settings
p626
g574
sg351
g233
sVcom.android.mms
p627
g514
sg185
g255
sg111
g403
sg65
g417
sg471
g250
sVcom.android.phone
p628
g295
sg248
g464
sg178
g358
sVcom.tencent.mobileqq
p629
g327
ssg25
(dp630
Vcom.tencent.mm
p631
g465
sVcom.eg.android.AlipayGphone
p632
g177
ssg27
(dp633
Vcom.tencent.mm
p634
g466
ssg29
(dp635
g125
g106
sg458
g131
sg55
g366
sg132
g527
sg136
g467
sg444
g183
ssg31
(dp636
Vcom.xuxian.market
p637
g352
sg623
g545
sVcom.baidu.BaiduMap
p638
g528
sVcom.dianping.v1
p639
g396
sVcom.nuomi
p640
g408
sg21
g173
sVcom.tencent.mm
p641
g468
ssg33
(dp642
Vcom.meizu.weathersearch
p643
g202
sVcom.android.settings
p644
g568
sg235
g470
ssg35
(dp645
Vcom.suning.mobile.ebuy
p646
g148
sg240
g374
sg242
g561
sVcom.meizu.weathersearch
p647
g204
sVcom.android.phone
p648
g285
sg248
g472
sg23
g191
ssg37
(dp649
Vcom.tencent.mm
p650
g473
sVcom.eg.android.AlipayGphone
p651
g186
ssg39
(dp652
sg41
(dp653
g240
g371
sVcom.xuxian.market
p654
g353
sg373
g245
sg376
g474
sg246
g279
ssg43
(dp655
Vcom.MobileTicket
p656
g441
sVcom.android.gallery3d
p657
g238
sg13
g150
sVcom.android.browser
p658
g108
sVcom.android.calendar
p659
g455
sg85
g566
sVcom.android.mms
p660
g516
sg37
g257
sVcom.android.deskclock
p661
g163
sg240
g375
sVme.ele
p662
g247
sVtv.danmaku.bili
p663
g338
sg517
g476
sg153
g192
sg45
g321
ssg45
(dp664
g301
g356
sVcom.suning.mobile.ebuy
p665
g152
sg8
g119
sVcom.android.calendar
p666
g453
sg309
g553
sVcom.ziroom.ziroomcustomer
p667
g390
sg19
g166
sVcom.android.phone
p668
g297
sVcom.tencent.mm
p669
g478
sVtv.danmaku.bili
p670
g332
ssg47
(dp671
Vcom.android.settings
p672
g564
sg536
g479
sg79
g538
sVcom.sohu.inputmethod.sogou
p673
g170
sg337
g287
sVcom.tencent.mobileqq
p674
g300
ssg49
(dp675
Vcom.android.browser
p676
g123
sVcom.android.packageinstaller
p677
g220
sVcom.tencent.mm
p678
g480
ssg51
(dp679
g585
g103
sg577
g433
sVcom.tencent.mm
p680
g481
sg351
g223
sVcom.android.mms
p681
g504
sg39
g260
sg292
g426
sg477
g302
sg89
g581
sVcom.eg.android.AlipayGphone
p682
g179
ssg53
(dp683
Vcom.android.browser
p684
g99
sVcom.android.packageinstaller
p685
g212
sVcom.tencent.mm
p686
g482
sVcom.android.mms
p687
g506
ssg55
(dp688
Vcom.wandoujia.phoenix2
p689
g127
ssg57
(dp690
Vcom.tencent.mobileqq
p691
g318
sg662
g241
sVcom.tencent.mm
p692
g483
sVcom.eg.android.AlipayGphone
p693
g181
ssg59
(dp694
Vme.rgmmpk.jshkjv.ksprvropjqtm
p695
g158
sVcom.tencent.mm
p696
g485
sVcom.wandoujia.phoenix2
p697
g134
sVcom.tencent.mobileqq
p698
g316
ssg61
(dp699
g392
g112
sg224
g557
sVcom.sankuai.meituan
p700
g227
sVcom.baidu.BaiduMap
p701
g531
sVcom.nuomi
p702
g410
sVcom.android.phone
p703
g289
sVcom.tencent.mm
p704
g486
sg121
g188
ssg63
(dp705
g665
g141
sVcom.tencent.mm
p706
g487
sVcom.sankuai.meituan
p707
g229
sVcom.baidu.BaiduMap
p708
g533
sg61
g400
sVcom.android.settings
p709
g559
sg151
g317
sg703
g283
ssg65
(dp710
g57
g372
sg692
g488
sg378
g189
ssg67
(dp711
Vcom.tencent.mobileqq
p712
g323
sVcom.tencent.mm
p713
g489
ssg69
(dp714
g175
g120
sVcom.MobileTicket
p715
g439
sVcom.android.settings
p716
g562
sg182
g219
sVcom.android.mms
p717
g521
sg436
g535
sVcom.android.phone
p718
g293
sVcom.tencent.mm
p719
g490
ssg71
(dp720
g430
g98
sg102
g344
sVcom.tencent.mm
p721
g491
sg434
g508
sg484
g384
sVcom.android.phone
p722
g270
sVcom.tencent.mobileqq
p723
g329
sg89
g578
sg292
g428
sg716
g550
ssg73
(dp724
Vcom.tencent.mobileqq
p725
g308
sg75
g492
ssg75
(dp726
g125
g105
sg458
g137
sVcom.suning.mobile.ebuy
p727
g145
sVcom.android.deskclock
p728
g161
sg19
g168
sg23
g194
sg25
g197
sVcom.meizu.weathersearch
p729
g206
sg182
g218
sg31
g231
sg33
g236
sg35
g249
sg37
g253
sVcom.mfw.roadbook
p730
g262
sg41
g267
sVcom.android.phone
p731
g291
sVcom.tencent.mobileqq
p732
g325
sVtv.danmaku.bili
p733
g334
sVcom.sankuai.meituan.takeoutnew
p734
g341
sg51
g350
sg53
g361
sg240
g377
sg59
g382
sg61
g402
sg63
g412
sg65
g415
sg69
g422
sVcom.MobileTicket
p735
g443
sVcom.android.calendar
p736
g448
sVcom.android.settings
p737
g570
sg660
g518
sg79
g537
sg500
g590
ssg77
(dp738
Vcom.MobileTicket
p739
g435
sg659
g451
sg493
g555
sg280
g530
sVcom.meizu.weathersearch
p740
g208
sg69
g421
sVcom.android.phone
p741
g278
sVcom.tencent.mm
p742
g496
sg500
g588
sVcom.eg.android.AlipayGphone
p743
g184
sVcom.tencent.mobileqq
p744
g312
ssg79
(dp745
Vcom.android.browser
p746
g110
sg689
g133
sg55
g369
sg715
g437
sg151
g314
sg288
g398
sg63
g409
sVcom.android.phone
p747
g281
sVcom.tencent.mm
p748
g497
sg438
g424
ssg81
(dp749
g363
g114
sg365
g215
sg367
g135
sg132
g534
ssg83
(dp750
g125
g115
sg29
g216
sg136
g498
sVcom.tencent.mobileqq
p751
g320
ssg85
(dp752
Vcom.baidu.BaiduMap
p753
g526
sg654
g354
sg11
g130
sg392
g117
sVcom.tencent.mobileqq
p754
g310
sg365
g214
sg700
g225
sg495
g510
sVme.ele
p755
g243
sg226
g394
sg558
g407
sg41
g265
sg81
g541
sVcom.android.phone
p756
g276
sg742
g494
sg571
g584
ssg87
(dp757
g307
g449
sg725
g322
sVcom.tencent.mm
p758
g499
ssg89
(dp759
Vcom.android.settings
p760
g572
sVcom.tencent.mm
p761
g501
sVcom.wandoujia.phoenix2
p762
g139
sVcom.android.mms
p763
g519
sssb.