ccopy_reg
_reconstructor
p1
(cnetworkx.classes.digraph
DiGraph
p2
c__builtin__
object
p3
NtRp4
(dp5
S'node'
p6
(dp7
Vcom.android.browser
p8
(dp9
S'weight'
p10
F3.2549389047967571e-05
ssVcom.htc.video
p11
(dp12
g10
F4.5569144667154595e-05
ssVcom.vlocker.locker
p13
(dp14
g10
F0.58390628007912293
ssVcom.nd.desktopcontacts
p15
(dp16
g10
F0.020993425953394856
ssVcom.jingdong.app.mall
p17
(dp18
g10
F0.0029815240367938294
ssVcom.sina.weibog3
p19
(dp20
g10
F0.027099691338793572
ssVcom.UCMobile
p21
(dp22
g10
F0.020259669725999244
ssVcom.sohu.inputmethod.sogou
p23
(dp24
g10
F6.0448865374796915e-05
ssVcom.smp.musicspeed
p25
(dp26
g10
F0.0096969279886616536
ssVcom.sankuai.movie
p27
(dp28
g10
F0.00045941137684845653
ssVcom.sina.weibo
p29
(dp30
g10
F0.036312098421912624
ssVcom.htc.photoenhancer
p31
(dp32
g10
F0.00011996774820536618
ssVcom.eg.android.AlipayGphone
p33
(dp34
g10
F0.0018692649138975662
ssVcom.sogou.androidtool
p35
(dp36
g10
F0.00017948663103593544
ssVcom.qihoo360.ludashi.cooling
p37
(dp38
g10
F7.4398603538211583e-05
ssVcom.changba
p39
(dp40
g10
F0.0034753447677787087
ssVcom.android.packageinstaller
p41
(dp42
g10
F0.00042686198780048898
ssVcom.android.documentsui
p43
(dp44
g10
F0.00010136809732081328
ssVcom.taobao.taobao
p45
(dp46
g10
F0.0099182638341878317
ssVcom.infraware.docmaster
p47
(dp48
g10
F0.00011159790530731739
ssVcom.android.systemui
p49
(dp50
g10
F0.002676489762287162
ssVcom.htc.contacts
p51
(dp52
g10
F0.0011085391927193526
ssVcom.htc.htcpowermanager
p53
(dp54
g10
F0.00013298750382455322
ssVcom.android.phone
p55
(dp56
g10
F0.019684940513666559
ssVcom.android.settings
p57
(dp58
g10
F0.0055240963127122103
ssVcom.tudou.android
p59
(dp60
g10
F0.0016507190160040695
ssVcom.htc.calendar
p61
(dp62
g10
F0.00011810778311691089
ssVcom.tencent.mm
p63
(dp64
g10
F0.17399508411227121
ssVcom.dianping.v1
p65
(dp66
g10
F0.001062970048052198
ssVcom.htc.soundrecorder
p67
(dp68
g10
F0.00045941137684845653
ssVcom.htc.album
p69
(dp70
g10
F0.002893175695092203
ssVcom.htc.android.worldclock
p71
(dp72
g10
F0.00034409354136422858
ssVcom.youku.smart.assistant
p73
(dp74
g10
F1.6739685796097608e-05
ssVcom.htc.music
p75
(dp76
g10
F0.00015995699760715492
ssVcom.tencent.mobileqq
p77
(dp78
g10
F0.011512253914994016
ssVcom.nd.android.pandahome2
p79
(dp80
g10
F0.039633066087349539
ssVcom.htc.home.personalize
p81
(dp82
g10
F5.5798952653658689e-06
ssVcom.htc.wifidisplay
p83
(dp84
g10
F1.3949738163414674e-05
ssVcom.baidu.tieba
p85
(dp86
g10
F0.0020310818765931762
ssVcom.htc.flashlight
p87
(dp88
g10
F0.00018134659612439074
ssVfm.xiami.main
p89
(dp90
g10
F0.01299092616031597
ssVcom.autonavi.minimap
p91
(dp92
g10
F0.0011745679533595155
ssVcom.android.camera
p93
(dp94
g10
F0.0019743529413952898
ssVcom.mt.mtxx.mtxx
p95
(dp96
g10
F0.00088255343447203496
ssVcom.yy.yymeet
p97
(dp98
g10
F0.0015679505695678092
ssVcom.htc.backupreset
p99
(dp100
g10
F4.6499127211382239e-06
ssVcom.hunantv.imgo.activity
p101
(dp102
g10
F7.6258568626666871e-05
sssS'graph'
p103
(dp104
sS'succ'
p105
(dp106
g8
(dp107
Vcom.tencent.mm
p108
(dp109
g10
F1.6000000000000001
ssVcom.nd.android.pandahome2
p110
(dp111
g10
F2.6000000000000001
ssVcom.UCMobile
p112
(dp113
g10
I1
sssg11
(dp114
Vcom.android.camera
p115
(dp116
g10
I1
ssVcom.htc.album
p117
(dp118
g10
F0.90000000000000002
sssg13
(dp119
Vcom.tencent.mm
p120
(dp121
g10
F330.59999999999951
ssVcom.nd.desktopcontacts
p122
(dp123
g10
F76.600000000000037
ssg17
(dp124
g10
F1.7000000000000002
ssVcom.sina.weibog3
p125
(dp126
g10
F23.999999999999993
ssg21
(dp127
g10
F84.300000000000111
ssVcom.sohu.inputmethod.sogou
p128
(dp129
g10
I1
ssVcom.smp.musicspeed
p130
(dp131
g10
F25.799999999999994
ssVcom.sankuai.movie
p132
(dp133
g10
F1.8
ssVcom.sina.weibo
p134
(dp135
g10
F35.499999999999993
ssg33
(dp136
g10
F4.9000000000000004
ssg37
(dp137
g10
F1.7000000000000002
ssg39
(dp138
g10
F6.7000000000000002
ssg41
(dp139
g10
F1.9000000000000001
ssVcom.android.documentsui
p140
(dp141
g10
F7.9000000000000021
ssVcom.taobao.taobao
p142
(dp143
g10
F27.299999999999997
ssVcom.infraware.docmaster
p144
(dp145
g10
F1.3
ssVcom.android.phone
p146
(dp147
g10
F21.999999999999996
ssg51
(dp148
g10
F14.200000000000001
ssVcom.htc.htcpowermanager
p149
(dp150
g10
F0.90000000000000002
ssVcom.htc.calendar
p151
(dp152
g10
F0.90000000000000002
ssg49
(dp153
g10
F17.700000000000003
ssVcom.dianping.v1
p154
(dp155
g10
F4.2999999999999998
ssg67
(dp156
g10
F0.69999999999999996
ssVcom.htc.album
p157
(dp158
g10
F9.5999999999999996
ssVcom.tencent.mobileqq
p159
(dp160
g10
F107.90000000000011
ssg71
(dp161
g10
F14.499999999999998
ssVcom.htc.music
p162
(dp163
g10
F1.7999999999999998
ssg57
(dp164
g10
F53.099999999999966
ssVcom.nd.android.pandahome2
p165
(dp166
g10
F652.8999999999977
ssVcom.baidu.tieba
p167
(dp168
g10
F1.3999999999999999
ssVfm.xiami.main
p169
(dp170
g10
F14.700000000000003
ssVcom.autonavi.minimap
p171
(dp172
g10
F1.3
ssVcom.android.camera
p173
(dp174
g10
F5.2000000000000002
ssVcom.mt.mtxx.mtxx
p175
(dp176
g10
F1.3
ssVcom.yy.yymeet
p177
(dp178
g10
F0.69999999999999996
sssg15
(dp179
Vcom.htc.contacts
p180
(dp181
g10
F4
ssVcom.changba
p182
(dp183
g10
I1
ssVcom.vlocker.locker
p184
(dp185
g10
F18.699999999999999
ssVcom.android.settings
p186
(dp187
g10
F11.4
ssVcom.sina.weibo
p188
(dp189
g10
F6.9000000000000004
ssVcom.android.systemui
p190
(dp191
g10
F13.700000000000001
ssVcom.nd.android.pandahome2
p192
(dp193
g10
F168.80000000000015
ssg81
(dp194
g10
F0.40000000000000002
ssVcom.taobao.taobao
p195
(dp196
g10
F4.7999999999999998
ssVcom.dianping.v1
p197
(dp198
g10
F0.90000000000000002
ssVcom.sina.weibog3
p199
(dp200
g10
F3.5999999999999996
ssVcom.UCMobile
p201
(dp202
g10
F12.5
ssVcom.htc.album
p203
(dp204
g10
F1.3
ssVcom.android.phone
p205
(dp206
g10
F61.100000000000009
ssVfm.xiami.main
p207
(dp208
g10
I3
ssVcom.yy.yymeet
p209
(dp210
g10
F1.8999999999999999
ssVcom.tencent.mm
p211
(dp212
g10
F66.099999999999994
ssVcom.eg.android.AlipayGphone
p213
(dp214
g10
F4.2999999999999998
ssVcom.tencent.mobileqq
p215
(dp216
g10
F7.8000000000000007
sssg17
(dp217
Vcom.UCMobile
p218
(dp219
g10
F0.90000000000000002
ssVcom.baidu.tieba
p220
(dp221
g10
F0.90000000000000002
ssVcom.tencent.mm
p222
(dp223
g10
I1
ssVcom.nd.android.pandahome2
p224
(dp225
g10
F4.9000000000000004
ssVcom.android.systemui
p226
(dp227
g10
F0.69999999999999996
sssg19
(dp228
Vcom.sina.weibo
p229
(dp230
g10
F0.90000000000000002
ssVcom.htc.android.worldclock
p231
(dp232
g10
F0.90000000000000002
ssVcom.taobao.taobao
p233
(dp234
g10
F1.3
ssVcom.vlocker.locker
p235
(dp236
g10
F26.699999999999999
ssVcom.android.packageinstaller
p237
(dp238
g10
F0.69999999999999996
ssVcom.android.systemui
p239
(dp240
g10
F8.0999999999999996
ssVcom.nd.android.pandahome2
p241
(dp242
g10
F80.100000000000051
ssg15
(dp243
g10
F1.8999999999999999
ssg65
(dp244
g10
I1
ssVcom.UCMobile
p245
(dp246
g10
F12.799999999999999
ssg23
(dp247
g10
F1.3
ssVcom.smp.musicspeed
p248
(dp249
g10
F0.40000000000000002
ssVcom.tencent.mobileqq
p250
(dp251
g10
F2.8999999999999999
ssVfm.xiami.main
p252
(dp253
g10
F1.8
ssg91
(dp254
g10
F0.69999999999999996
ssVcom.yy.yymeet
p255
(dp256
g10
F1.3
ssVcom.tencent.mm
p257
(dp258
g10
F166.60000000000002
ssVcom.android.phone
p259
(dp260
g10
I1
ssVcom.eg.android.AlipayGphone
p261
(dp262
g10
F0.40000000000000002
ssVcom.android.settings
p263
(dp264
g10
F3.1999999999999997
sssg21
(dp265
Vcom.android.browser
p266
(dp267
g10
F0.90000000000000002
ssVcom.vlocker.locker
p268
(dp269
g10
F17.199999999999999
ssVcom.nd.desktopcontacts
p270
(dp271
g10
F6.1000000000000005
ssVcom.jingdong.app.mall
p272
(dp273
g10
F0.90000000000000002
ssVcom.sina.weibog3
p274
(dp275
g10
F3.9999999999999996
ssg25
(dp276
g10
F3.7000000000000002
ssVcom.sina.weibo
p277
(dp278
g10
F6.0000000000000009
ssVcom.eg.android.AlipayGphone
p279
(dp280
g10
F2.6000000000000001
ssg37
(dp281
g10
F0.69999999999999996
ssVcom.changba
p282
(dp283
g10
F0.90000000000000002
ssVcom.android.packageinstaller
p284
(dp285
g10
F4.5
ssg43
(dp286
g10
F1.5
ssg45
(dp287
g10
F5.2000000000000002
ssg47
(dp288
g10
F3.7000000000000002
ssg146
(dp289
g10
F2.7999999999999998
ssVcom.tencent.mobileqq
p290
(dp291
g10
F6.2000000000000002
ssVcom.android.settings
p292
(dp293
g10
F24.399999999999991
ssVcom.tudou.android
p294
(dp295
g10
F0.40000000000000002
ssg49
(dp296
g10
F43.5
ssVcom.htc.album
p297
(dp298
g10
F4.2999999999999998
ssVcom.htc.android.worldclock
p299
(dp300
g10
F2.2000000000000002
ssg257
(dp301
g10
F47.69999999999996
ssVcom.nd.android.pandahome2
p302
(dp303
g10
F213.09999999999985
ssg85
(dp304
g10
F1.3
ssVfm.xiami.main
p305
(dp306
g10
F6.9000000000000012
ssVcom.yy.yymeet
p307
(dp308
g10
F0.40000000000000002
ssg101
(dp309
g10
F0.90000000000000002
sssg23
(dp310
g35
(dp311
g10
F1.3
ssg41
(dp312
g10
F1.7
ssVcom.nd.android.pandahome2
p313
(dp314
g10
F3
ssVcom.nd.desktopcontacts
p315
(dp316
g10
F0.90000000000000002
ssVcom.sina.weibog3
p317
(dp318
g10
I1
ssVcom.smp.musicspeed
p319
(dp320
g10
F1.7
ssg239
(dp321
g10
F0.90000000000000002
ssVcom.tencent.mm
p322
(dp323
g10
F3.4000000000000004
sssg25
(dp324
g35
(dp325
g10
F0.69999999999999996
ssg8
(dp326
g10
F0.69999999999999996
ssVcom.mt.mtxx.mtxx
p327
(dp328
g10
I1
ssg75
(dp329
g10
F12.000000000000004
ssVcom.vlocker.locker
p330
(dp331
g10
I47
ssg41
(dp332
g10
F2.2000000000000002
ssVcom.android.systemui
p333
(dp334
g10
F6.5
ssVcom.nd.android.pandahome2
p335
(dp336
g10
F21.599999999999998
ssg43
(dp337
g10
F28.499999999999989
ssVcom.nd.desktopcontacts
p338
(dp339
g10
F1.3999999999999999
ssVcom.UCMobile
p340
(dp341
g10
F3.7000000000000002
ssg128
(dp342
g10
F0.90000000000000002
ssVfm.xiami.main
p343
(dp344
g10
F2.2000000000000002
ssg67
(dp345
g10
F1.3
ssVcom.htc.contacts
p346
(dp347
g10
F1.7000000000000002
ssVcom.tencent.mm
p348
(dp349
g10
F8.2000000000000011
ssVcom.android.phone
p350
(dp351
g10
F0.69999999999999996
ssVcom.android.settings
p352
(dp353
g10
F3
sssg27
(dp354
Vcom.tencent.mm
p355
(dp356
g10
F4.9000000000000004
ssVcom.sina.weibo
p357
(dp358
g10
F0.40000000000000002
ssVcom.nd.android.pandahome2
p359
(dp360
g10
F3.7000000000000002
sssg29
(dp361
Vcom.htc.android.worldclock
p362
(dp363
g10
F3.1999999999999997
ssVfm.xiami.main
p364
(dp365
g10
F0.40000000000000002
ssVcom.vlocker.locker
p366
(dp367
g10
F40.699999999999996
ssVcom.htc.album
p368
(dp369
g10
F0.69999999999999996
ssVcom.android.phone
p370
(dp371
g10
F8
ssVcom.nd.android.pandahome2
p372
(dp373
g10
F115.20000000000007
ssVcom.jingdong.app.mall
p374
(dp375
g10
F0.40000000000000002
ssVcom.nd.desktopcontacts
p376
(dp377
g10
F13.300000000000002
ssg154
(dp378
g10
F2.2000000000000002
ssVcom.sina.weibog3
p379
(dp380
g10
F1.7000000000000002
ssVcom.UCMobile
p381
(dp382
g10
F12.200000000000001
ssVcom.baidu.tieba
p383
(dp384
g10
F0.40000000000000002
ssVcom.infraware.docmaster
p385
(dp386
g10
F0.40000000000000002
ssVcom.tencent.mobileqq
p387
(dp388
g10
F1.8
ssVcom.android.systemui
p389
(dp390
g10
F17.800000000000001
ssg171
(dp391
g10
F0.69999999999999996
ssVcom.tencent.mm
p392
(dp393
g10
F81.100000000000065
ssVcom.android.packageinstaller
p394
(dp395
g10
F1.3
ssVcom.eg.android.AlipayGphone
p396
(dp397
g10
F0.90000000000000002
ssVcom.android.settings
p398
(dp399
g10
F4.3000000000000007
sssg31
(dp400
Vcom.vlocker.locker
p401
(dp402
g10
I1
ssVcom.tencent.mm
p403
(dp404
g10
F0.69999999999999996
ssVcom.htc.album
p405
(dp406
g10
I2
ssVcom.nd.android.pandahome2
p407
(dp408
g10
F0.90000000000000002
ssVcom.android.systemui
p409
(dp410
g10
F0.40000000000000002
sssg33
(dp411
Vcom.tencent.mobileqq
p412
(dp413
g10
F6.6000000000000005
ssVcom.sina.weibo
p414
(dp415
g10
F0.90000000000000002
ssVcom.android.phone
p416
(dp417
g10
F0.90000000000000002
ssVcom.nd.android.pandahome2
p418
(dp419
g10
F24.499999999999996
ssVcom.nd.desktopcontacts
p420
(dp421
g10
F4.5999999999999996
ssVcom.sina.weibog3
p422
(dp423
g10
F0.90000000000000002
ssVcom.UCMobile
p424
(dp425
g10
F1.1000000000000001
ssVcom.android.systemui
p426
(dp427
g10
F1.3
ssVcom.autonavi.minimap
p428
(dp429
g10
I1
ssVcom.tencent.mm
p430
(dp431
g10
F6.2000000000000011
ssVcom.android.settings
p432
(dp433
g10
F0.90000000000000002
sssg35
(dp434
Vcom.nd.android.pandahome2
p435
(dp436
g10
F0.90000000000000002
ssVcom.android.packageinstaller
p437
(dp438
g10
F2.3999999999999999
ssVcom.sohu.inputmethod.sogou
p439
(dp440
g10
F0.90000000000000002
ssVcom.smp.musicspeed
p441
(dp442
g10
I1
ssg8
(dp443
g10
F0.40000000000000002
sssg37
(dp444
Vcom.UCMobile
p445
(dp446
g10
F1.3
ssVcom.nd.android.pandahome2
p447
(dp448
g10
F2.7000000000000002
ssVcom.android.systemui
p449
(dp450
g10
F0.90000000000000002
sssg39
(dp451
Vfm.xiami.main
p452
(dp453
g10
F0.90000000000000002
ssVcom.vlocker.locker
p454
(dp455
g10
I4
ssVcom.tencent.mm
p456
(dp457
g10
F2.6000000000000001
ssVcom.nd.android.pandahome2
p458
(dp459
g10
F12.100000000000001
ssVcom.android.documentsui
p460
(dp461
g10
F0.69999999999999996
ssVcom.smp.musicspeed
p462
(dp463
g10
F0.90000000000000002
ssVcom.android.systemui
p464
(dp465
g10
F1.7
ssVcom.sina.weibo
p466
(dp467
g10
F1.7
ssVcom.android.phone
p468
(dp469
g10
F0.90000000000000002
ssVcom.tencent.mobileqq
p470
(dp471
g10
F0.90000000000000002
sssg41
(dp472
g35
(dp473
g10
F2.7000000000000002
ssg8
(dp474
g10
I1
ssVcom.vlocker.locker
p475
(dp476
g10
I1
ssg435
(dp477
g10
F9.4000000000000021
ssVcom.UCMobile
p478
(dp479
g10
F2.2999999999999998
ssg439
(dp480
g10
F1.7
ssg441
(dp481
g10
F1.3
ssVcom.android.systemui
p482
(dp483
g10
F1.7
ssg85
(dp484
g10
F1.7
ssg108
(dp485
g10
F2.6999999999999997
sssg43
(dp486
g75
(dp487
g10
F13.600000000000001
ssVcom.tencent.mm
p488
(dp489
g10
F1.1000000000000001
ssVcom.nd.android.pandahome2
p490
(dp491
g10
F2.7000000000000002
ssVcom.smp.musicspeed
p492
(dp493
g10
F10.600000000000001
ssg338
(dp494
g10
F0.69999999999999996
sssg45
(dp495
Vcom.vlocker.locker
p496
(dp497
g10
F10.699999999999999
ssVcom.android.systemui
p498
(dp499
g10
F6.4000000000000004
ssVcom.nd.android.pandahome2
p500
(dp501
g10
F47.600000000000009
ssVcom.jingdong.app.mall
p502
(dp503
g10
F0.90000000000000002
ssg270
(dp504
g10
F7.8000000000000016
ssVcom.UCMobile
p505
(dp506
g10
F4.1999999999999993
ssg220
(dp507
g10
F0.40000000000000002
ssg27
(dp508
g10
F1.3
ssVcom.android.settings
p509
(dp510
g10
F1.7000000000000002
ssVcom.tencent.mm
p511
(dp512
g10
F8.9000000000000004
ssg416
(dp513
g10
F0.40000000000000002
ssVcom.eg.android.AlipayGphone
p514
(dp515
g10
F3.7999999999999998
ssVcom.tencent.mobileqq
p516
(dp517
g10
F0.90000000000000002
sssg47
(dp518
Vcom.UCMobile
p519
(dp520
g10
F3.7000000000000002
ssVcom.nd.android.pandahome2
p521
(dp522
g10
F0.90000000000000002
sssg49
(dp523
Vcom.vlocker.locker
p524
(dp525
g10
I3
ssVcom.nd.desktopcontacts
p526
(dp527
g10
F13.400000000000002
ssVcom.sina.weibog3
p528
(dp529
g10
F4.7000000000000002
ssVcom.UCMobile
p530
(dp531
g10
F18.100000000000001
ssVcom.sohu.inputmethod.sogou
p532
(dp533
g10
F0.90000000000000002
ssg248
(dp534
g10
F1.7
ssVcom.sina.weibo
p535
(dp536
g10
F10.800000000000001
ssg514
(dp537
g10
F2.5999999999999996
ssVcom.qihoo360.ludashi.cooling
p538
(dp539
g10
F0.90000000000000002
ssg282
(dp540
g10
I1
ssVcom.android.packageinstaller
p541
(dp542
g10
F1.3999999999999999
ssVcom.android.documentsui
p543
(dp544
g10
F1.3
ssVcom.taobao.taobao
p545
(dp546
g10
F5.9000000000000004
ssVcom.android.phone
p547
(dp548
g10
F3.1999999999999997
ssg346
(dp549
g10
F1.7
ssg322
(dp550
g10
F27.79999999999999
ssVcom.htc.album
p551
(dp552
g10
F5.3999999999999995
ssVcom.tencent.mobileqq
p553
(dp554
g10
F0.90000000000000002
ssg299
(dp555
g10
F2.7000000000000002
ssVcom.htc.music
p556
(dp557
g10
F0.69999999999999996
ssVcom.android.settings
p558
(dp559
g10
F5.1000000000000005
ssVcom.nd.android.pandahome2
p560
(dp561
g10
F90.600000000000136
ssg383
(dp562
g10
F0.69999999999999996
ssVfm.xiami.main
p563
(dp564
g10
F1.7
ssVcom.android.camera
p565
(dp566
g10
F4.4000000000000004
sssg51
(dp567
Vcom.htc.music
p568
(dp569
g10
F0.40000000000000002
ssVcom.vlocker.locker
p570
(dp571
g10
I4
ssVcom.nd.android.pandahome2
p572
(dp573
g10
F23.999999999999993
ssVcom.android.documentsui
p574
(dp575
g10
F0.69999999999999996
ssVcom.nd.desktopcontacts
p576
(dp577
g10
F2.6000000000000001
ssVcom.smp.musicspeed
p578
(dp579
g10
F1.3
ssVcom.android.phone
p580
(dp581
g10
F36.299999999999997
ssVcom.tencent.mm
p582
(dp583
g10
F4.2999999999999998
ssVcom.tencent.mobileqq
p584
(dp585
g10
F0.90000000000000002
sssg53
(dp586
Vcom.android.settings
p587
(dp588
g10
F1.7
ssVcom.nd.android.pandahome2
p589
(dp590
g10
F2.7000000000000002
ssVcom.eg.android.AlipayGphone
p591
(dp592
g10
F0.40000000000000002
ssVcom.UCMobile
p593
(dp594
g10
F0.90000000000000002
sssg55
(dp595
Vcom.htc.contacts
p596
(dp597
g10
F32.299999999999997
ssg578
(dp598
g10
F0.69999999999999996
ssVcom.tudou.android
p599
(dp600
g10
I1
ssVcom.android.settings
p601
(dp602
g10
F3.9999999999999996
ssVcom.sina.weibo
p603
(dp604
g10
F10.199999999999999
ssVcom.android.systemui
p605
(dp606
g10
F4.7000000000000002
ssVcom.nd.android.pandahome2
p607
(dp608
g10
F82.700000000000003
ssg574
(dp609
g10
F0.40000000000000002
ssVcom.nd.desktopcontacts
p610
(dp611
g10
F74.700000000000045
ssVcom.dianping.v1
p612
(dp613
g10
F1.7
ssVcom.sina.weibog3
p614
(dp615
g10
F1.7
ssVcom.UCMobile
p616
(dp617
g10
F1.8999999999999999
ssVcom.htc.album
p618
(dp619
g10
F2.6000000000000001
ssVcom.taobao.taobao
p620
(dp621
g10
F0.69999999999999996
ssVcom.vlocker.locker
p622
(dp623
g10
F3.1000000000000001
ssVfm.xiami.main
p624
(dp625
g10
I1
ssg93
(dp626
g10
F3
ssVcom.yy.yymeet
p627
(dp628
g10
I2
ssVcom.tencent.mm
p629
(dp630
g10
F29.699999999999989
ssg213
(dp631
g10
F1.8999999999999999
ssVcom.tencent.mobileqq
p632
(dp633
g10
F3.2999999999999998
sssg57
(dp634
g83
(dp635
g10
I1
ssVcom.smp.musicspeed
p636
(dp637
g10
F1.8999999999999999
ssg101
(dp638
g10
F0.40000000000000002
ssVcom.vlocker.locker
p639
(dp640
g10
F2.3999999999999999
ssVcom.htc.htcpowermanager
p641
(dp642
g10
I1
ssVcom.sina.weibo
p643
(dp644
g10
F3.6999999999999997
ssVcom.android.systemui
p645
(dp646
g10
F17.100000000000001
ssVcom.nd.android.pandahome2
p647
(dp648
g10
F109.50000000000018
ssg81
(dp649
g10
F2.7000000000000002
ssg45
(dp650
g10
F1.8
ssg19
(dp651
g10
F1.1000000000000001
ssg201
(dp652
g10
F72.600000000000023
ssVcom.android.camera
p653
(dp654
g10
F0.90000000000000002
ssVcom.htc.album
p655
(dp656
g10
F4.3999999999999995
ssg15
(dp657
g10
F8.6000000000000014
ssVcom.android.phone
p658
(dp659
g10
F4.2000000000000002
ssVfm.xiami.main
p660
(dp661
g10
F2.1000000000000001
ssg99
(dp662
g10
F1.7
ssVcom.tencent.mm
p663
(dp664
g10
F32.899999999999991
ssVcom.tudou.android
p665
(dp666
g10
F1.3999999999999999
ssVcom.tencent.mobileqq
p667
(dp668
g10
F2.0999999999999996
sssg59
(dp669
Vcom.sina.weibo
p670
(dp671
g10
F0.40000000000000002
ssVcom.android.phone
p672
(dp673
g10
F0.90000000000000002
ssVcom.nd.android.pandahome2
p674
(dp675
g10
F8.5
ssVcom.android.systemui
p676
(dp677
g10
I1
ssVcom.UCMobile
p678
(dp679
g10
F1.8
ssVcom.android.settings
p680
(dp681
g10
F1.3
ssVcom.tencent.mm
p682
(dp683
g10
F1.8999999999999999
sssg61
(dp684
Vcom.nd.android.pandahome2
p685
(dp686
g10
I2
sssg63
(dp687
g13
(dp688
g10
F309.69999999999993
ssg15
(dp689
g10
F76.099999999999994
ssg19
(dp690
g10
F158.70000000000007
ssg21
(dp691
g10
F83.600000000000094
ssg23
(dp692
g10
F3
ssVcom.smp.musicspeed
p693
(dp694
g10
F10.300000000000001
ssg27
(dp695
g10
F3.7999999999999998
ssg29
(dp696
g10
F107.50000000000011
ssg33
(dp697
g10
F8.7000000000000011
ssg37
(dp698
g10
F0.90000000000000002
ssVcom.changba
p699
(dp700
g10
F1.8
ssg284
(dp701
g10
F2.8999999999999999
ssg543
(dp702
g10
F2.0999999999999996
ssVcom.taobao.taobao
p703
(dp704
g10
F18.5
ssg47
(dp705
g10
F3.0999999999999996
ssg49
(dp706
g10
F34.79999999999999
ssg51
(dp707
g10
F16.700000000000003
ssg53
(dp708
g10
F3
ssg151
(dp709
g10
F0.69999999999999996
ssVcom.tudou.android
p710
(dp711
g10
F1.8999999999999999
ssVcom.android.phone
p712
(dp713
g10
F30.699999999999989
ssg197
(dp714
g10
F2.2999999999999998
ssVcom.htc.album
p715
(dp716
g10
F3.6000000000000001
ssg159
(dp717
g10
F64.300000000000011
ssg71
(dp718
g10
F6.6000000000000014
ssg73
(dp719
g10
F1.3
ssg75
(dp720
g10
F0.80000000000000004
ssg57
(dp721
g10
F48.599999999999987
ssg165
(dp722
g10
F661.49999999999852
ssg83
(dp723
g10
F1.6000000000000001
ssg383
(dp724
g10
F1.8999999999999999
ssg169
(dp725
g10
F14.5
ssg91
(dp726
g10
F4.5999999999999996
ssVcom.android.camera
p727
(dp728
g10
F1.7000000000000002
ssVcom.mt.mtxx.mtxx
p729
(dp730
g10
F0.90000000000000002
ssg177
(dp731
g10
F3.2999999999999998
ssVcom.htc.backupreset
p732
(dp733
g10
I1
sssg65
(dp734
g171
(dp735
g10
I1
ssVcom.sina.weibo
p736
(dp737
g10
F0.90000000000000002
ssVcom.android.phone
p738
(dp739
g10
F0.90000000000000002
ssVcom.nd.android.pandahome2
p740
(dp741
g10
F10.800000000000001
ssg233
(dp742
g10
F0.69999999999999996
ssVcom.sina.weibog3
p743
(dp744
g10
I1
ssVcom.vlocker.locker
p745
(dp746
g10
I2
ssVcom.tencent.mm
p747
(dp748
g10
F3.2000000000000002
sssg67
(dp749
sg69
(dp750
g266
(dp751
g10
F0.40000000000000002
ssVcom.vlocker.locker
p752
(dp753
g10
I4
ssVcom.htc.video
p754
(dp755
g10
I1
ssVcom.tencent.mobileqq
p756
(dp757
g10
F1.3999999999999999
ssVcom.android.systemui
p758
(dp759
g10
F1.3999999999999999
ssVcom.nd.android.pandahome2
p760
(dp761
g10
F29.899999999999995
ssVcom.taobao.taobao
p762
(dp763
g10
F0.90000000000000002
ssVcom.UCMobile
p764
(dp765
g10
F2.7999999999999998
ssVcom.android.settings
p766
(dp767
g10
F2.7000000000000002
ssVcom.android.camera
p768
(dp769
g10
F16.800000000000001
ssg175
(dp770
g10
F0.90000000000000002
ssVcom.tencent.mm
p771
(dp772
g10
F6.8000000000000007
sssg71
(dp773
Vcom.vlocker.locker
p774
(dp775
g10
I1
ssVcom.nd.android.pandahome2
p776
(dp777
g10
F19.499999999999996
ssVcom.UCMobile
p778
(dp779
g10
F2.2999999999999998
ssVcom.sankuai.movie
p780
(dp781
g10
F0.90000000000000002
ssVcom.android.systemui
p782
(dp783
g10
F2.2999999999999998
ssVcom.tencent.mm
p784
(dp785
g10
F5.7000000000000011
ssVcom.android.settings
p786
(dp787
g10
F1.3999999999999999
sssg73
(dp788
Vcom.nd.android.pandahome2
p789
(dp790
g10
F3.4000000000000004
ssVcom.android.systemui
p791
(dp792
g10
F1.7000000000000002
sssg75
(dp793
g488
(dp794
g10
F1.6000000000000001
ssVcom.nd.android.pandahome2
p795
(dp796
g10
F2.5
ssVcom.smp.musicspeed
p797
(dp798
g10
F10.300000000000002
ssg338
(dp799
g10
F0.90000000000000002
ssVcom.android.documentsui
p800
(dp801
g10
F4
sssg77
(dp802
Vcom.vlocker.locker
p803
(dp804
g10
F86.400000000000048
ssVcom.nd.desktopcontacts
p805
(dp806
g10
F8.4000000000000021
ssVcom.android.documentsui
p807
(dp808
g10
F0.69999999999999996
ssVcom.sina.weibog3
p809
(dp810
g10
F0.69999999999999996
ssVcom.UCMobile
p811
(dp812
g10
F3.6000000000000001
ssVcom.sohu.inputmethod.sogou
p813
(dp814
g10
F0.40000000000000002
ssVcom.smp.musicspeed
p815
(dp816
g10
F0.90000000000000002
ssVcom.sina.weibo
p817
(dp818
g10
F2.7000000000000002
ssVcom.eg.android.AlipayGphone
p819
(dp820
g10
F1.6000000000000001
ssVcom.changba
p821
(dp822
g10
F2.2999999999999998
ssg374
(dp823
g10
F0.90000000000000002
ssVcom.taobao.taobao
p824
(dp825
g10
F2.2999999999999998
ssVcom.android.systemui
p826
(dp827
g10
I2
ssVcom.tencent.mm
p828
(dp829
g10
F54.200000000000003
ssVcom.android.phone
p830
(dp831
g10
F1.6000000000000001
ssg655
(dp832
g10
F1.7000000000000002
ssg556
(dp833
g10
F0.40000000000000002
ssVcom.android.settings
p834
(dp835
g10
F7.7999999999999998
ssg79
(dp836
g10
F85.000000000000071
ssg81
(dp837
g10
F0.69999999999999996
ssg167
(dp838
g10
F0.90000000000000002
ssVcom.yy.yymeet
p839
(dp840
g10
F0.40000000000000002
ssg732
(dp841
g10
F0.90000000000000002
sssg79
(dp842
g8
(dp843
g10
F2.6000000000000001
ssVcom.vlocker.locker
p844
(dp845
g10
F307.49999999999983
ssg15
(dp846
g10
F163.40000000000018
ssg17
(dp847
g10
F7.1000000000000005
ssg19
(dp848
g10
F49.20000000000001
ssg21
(dp849
g10
F206.79999999999998
ssg23
(dp850
g10
F4.7999999999999998
ssg25
(dp851
g10
F15.1
ssVcom.sankuai.movie
p852
(dp853
g10
F7
ssg134
(dp854
g10
F57.900000000000013
ssg33
(dp855
g10
F20.999999999999993
ssg35
(dp856
g10
F0.90000000000000002
ssg37
(dp857
g10
F4.7000000000000002
ssVcom.changba
p858
(dp859
g10
F4.2999999999999998
ssg41
(dp860
g10
F12.199999999999999
ssg43
(dp861
g10
F7.6000000000000014
ssg45
(dp862
g10
F34.399999999999984
ssg47
(dp863
g10
F3.1000000000000001
ssg49
(dp864
g10
F106.70000000000023
ssg51
(dp865
g10
F34.5
ssg53
(dp866
g10
F3.4000000000000004
ssg205
(dp867
g10
F89.500000000000071
ssg151
(dp868
g10
I1
ssg599
(dp869
g10
F5.5999999999999996
ssVcom.tencent.mm
p870
(dp871
g10
F477.19999999999789
ssg154
(dp872
g10
F10.100000000000001
ssg67
(dp873
g10
I1
ssg715
(dp874
g10
F24.899999999999999
ssg290
(dp875
g10
F86.300000000000068
ssg71
(dp876
g10
F23.499999999999996
ssg73
(dp877
g10
F2.7000000000000002
ssg75
(dp878
g10
F3.5
ssg57
(dp879
g10
F114.50000000000014
ssg81
(dp880
g10
F1.3
ssg167
(dp881
g10
F5.7000000000000011
ssg252
(dp882
g10
F24.799999999999997
ssg91
(dp883
g10
F6.9000000000000004
ssg93
(dp884
g10
F8.8000000000000007
ssg729
(dp885
g10
F4.4000000000000004
ssg97
(dp886
g10
F10.799999999999999
ssg101
(dp887
g10
F1.7
sssg81
(dp888
Vcom.android.settings
p889
(dp890
g10
F2.7000000000000002
ssg99
(dp891
g10
F1.3
sssg83
(dp892
Vcom.android.settings
p893
(dp894
g10
I1
ssVcom.tencent.mm
p895
(dp896
g10
F0.69999999999999996
ssVcom.nd.android.pandahome2
p897
(dp898
g10
F0.90000000000000002
sssg85
(dp899
Vcom.vlocker.locker
p900
(dp901
g10
I1
ssVcom.tencent.mm
p902
(dp903
g10
F1.3
ssVcom.nd.android.pandahome2
p904
(dp905
g10
F5.0999999999999996
ssVcom.UCMobile
p906
(dp907
g10
I1
ssVcom.android.systemui
p908
(dp909
g10
F1.7
ssg535
(dp910
g10
F0.90000000000000002
sssg87
(dp911
Vcom.vlocker.locker
p912
(dp913
g10
I1
sssg89
(dp914
Vcom.htc.android.worldclock
p915
(dp916
g10
F0.40000000000000002
ssVcom.vlocker.locker
p917
(dp918
g10
F16.800000000000001
ssVcom.android.systemui
p919
(dp920
g10
F4.2999999999999998
ssVcom.nd.android.pandahome2
p921
(dp922
g10
F47.800000000000004
ssVcom.nd.desktopcontacts
p923
(dp924
g10
F4.7999999999999998
ssVcom.dianping.v1
p925
(dp926
g10
F0.69999999999999996
ssVcom.sina.weibog3
p927
(dp928
g10
I1
ssVcom.UCMobile
p929
(dp930
g10
F8.2000000000000011
ssVcom.htc.album
p931
(dp932
g10
F0.90000000000000002
ssVcom.android.settings
p933
(dp934
g10
F6.6000000000000005
ssVcom.tencent.mm
p935
(dp936
g10
F9.5999999999999996
sssg91
(dp937
Vcom.tencent.mm
p938
(dp939
g10
F5.2999999999999998
ssVcom.nd.android.pandahome2
p940
(dp941
g10
F5
ssVcom.eg.android.AlipayGphone
p942
(dp943
g10
I1
sssg93
(dp944
Vcom.vlocker.locker
p945
(dp946
g10
F1.8999999999999999
ssg618
(dp947
g10
F22.599999999999998
ssVcom.android.settings
p948
(dp949
g10
F1.1000000000000001
ssVcom.nd.android.pandahome2
p950
(dp951
g10
F20.899999999999999
ssVcom.nd.desktopcontacts
p952
(dp953
g10
F0.40000000000000002
ssg11
(dp954
g10
F1.8999999999999999
ssVcom.android.systemui
p955
(dp956
g10
F3.8999999999999999
ssg771
(dp957
g10
F4.9000000000000004
ssVcom.tencent.mobileqq
p958
(dp959
g10
F5.2000000000000002
sssg95
(dp960
Vcom.tencent.mm
p961
(dp962
g10
F5.9000000000000004
ssVcom.nd.android.pandahome2
p963
(dp964
g10
I8
ssVcom.tencent.mobileqq
p965
(dp966
g10
F0.69999999999999996
sssg97
(dp967
g263
(dp968
g10
I1
ssVcom.nd.android.pandahome2
p969
(dp970
g10
F7
ssVcom.nd.desktopcontacts
p971
(dp972
g10
F3.8999999999999995
ssVcom.android.phone
p973
(dp974
g10
F3.7000000000000002
sssg99
(dp975
Vcom.android.settings
p976
(dp977
g10
I1
ssVcom.tencent.mm
p978
(dp979
g10
F0.69999999999999996
ssVcom.nd.android.pandahome2
p980
(dp981
g10
F1.3
sssg101
(dp982
g294
(dp983
g10
F0.90000000000000002
ssg680
(dp984
g10
F0.40000000000000002
ssVcom.nd.android.pandahome2
p985
(dp986
g10
F1.7
ssssS'edge'
p987
g106
sS'pred'
p988
(dp989
g8
(dp990
Vcom.sogou.androidtool
p991
g443
sVcom.android.packageinstaller
p992
g474
sg435
g843
sVcom.UCMobile
p993
g267
sg441
g326
sVcom.htc.album
p994
g751
ssg11
(dp995
Vcom.android.camera
p996
g954
sVcom.htc.album
p997
g755
ssg13
(dp998
g63
g688
sVcom.nd.desktopcontacts
p999
g185
sVcom.sina.weibog3
p1000
g236
sVcom.UCMobile
p1001
g269
sg31
g402
sVcom.sina.weibo
p1002
g367
sVcom.changba
p1003
g455
sVcom.android.packageinstaller
p1004
g476
sg87
g913
sVcom.taobao.taobao
p1005
g497
sVcom.android.phone
p1006
g623
sVcom.htc.contacts
p1007
g571
sVcom.tencent.mobileqq
p1008
g804
sVcom.android.systemui
p1009
g525
sVcom.dianping.v1
p1010
g746
sVcom.htc.album
p1011
g753
sVcom.htc.android.worldclock
p1012
g775
sVcom.android.settings
p1013
g640
sVcom.nd.android.pandahome2
p1014
g845
sVcom.baidu.tieba
p1015
g901
sg89
g918
sVcom.android.camera
p1016
g946
sVcom.smp.musicspeed
p1017
g331
ssg15
(dp1018
g180
g577
sVfm.xiami.main
p1019
g924
sg57
g657
sVcom.sina.weibo
p1020
g377
sg55
g611
sg647
g846
sg605
g527
sg45
g504
sVcom.android.documentsui
p1021
g494
sg19
g243
sg201
g271
sVcom.android.camera
p1022
g953
sg813
g316
sVcom.smp.musicspeed
p1023
g339
sVcom.vlocker.locker
p1024
g123
sg162
g799
sg97
g972
sg663
g689
sg396
g421
sg632
g806
ssg17
(dp1025
Vcom.vlocker.locker
p1026
g124
sVcom.nd.android.pandahome2
p1027
g847
sVcom.taobao.taobao
p1028
g503
sVcom.UCMobile
p1029
g273
sVcom.sina.weibo
p1030
g375
sg387
g823
ssg19
(dp1031
g235
g126
sg57
g651
sVcom.sina.weibo
p1032
g380
sg239
g529
sg647
g848
sg15
g200
sg65
g744
sVcom.UCMobile
p1033
g275
sg23
g318
sVfm.xiami.main
p1034
g928
sg870
g690
sg658
g615
sVcom.eg.android.AlipayGphone
p1035
g423
sVcom.tencent.mobileqq
p1036
g810
ssg21
(dp1037
g266
g113
sg13
g127
sg122
g202
sg1000
g246
sVcom.smp.musicspeed
p1038
g341
sVcom.sina.weibo
p1039
g382
sg1035
g425
sVcom.qihoo360.ludashi.cooling
p1040
g446
sg284
g479
sg17
g219
sVcom.taobao.taobao
p1041
g506
sg47
g520
sVcom.android.systemui
p1042
g531
sg149
g594
sVcom.android.phone
p1043
g617
sg665
g679
sg63
g691
sg297
g765
sg290
g812
sVcom.htc.android.worldclock
p1044
g779
sg186
g652
sg165
g849
sg85
g907
sg169
g930
ssg23
(dp1045
g35
g440
sVcom.vlocker.locker
p1046
g129
sg41
g480
sVcom.nd.android.pandahome2
p1047
g850
sVcom.sina.weibog3
p1048
g247
sVcom.smp.musicspeed
p1049
g342
sVcom.android.systemui
p1050
g533
sVcom.tencent.mm
p1051
g692
sVcom.tencent.mobileqq
p1052
g814
ssg25
(dp1053
g991
g442
sg39
g463
sg352
g637
sg75
g798
sg330
g131
sg437
g481
sg350
g598
sVcom.nd.android.pandahome2
p1054
g851
sg140
g493
sVcom.sina.weibog3
p1055
g249
sVcom.UCMobile
p1056
g276
sg128
g320
sVcom.android.systemui
p1057
g534
sg346
g579
sVcom.tencent.mm
p1058
g694
sVcom.tencent.mobileqq
p1059
g816
ssg27
(dp1060
g359
g853
sVcom.tencent.mm
p1061
g695
sVcom.htc.android.worldclock
p1062
g781
sVcom.taobao.taobao
p1063
g508
sVcom.vlocker.locker
p1064
g133
ssg29
(dp1065
g780
g358
sVcom.changba
p1066
g467
sg665
g671
sVcom.vlocker.locker
p1067
g135
sVcom.android.phone
p1068
g604
sVcom.nd.android.pandahome2
p1069
g854
sg376
g189
sg612
g737
sVcom.sina.weibog3
p1070
g230
sVcom.UCMobile
p1071
g278
sVcom.baidu.tieba
p1072
g910
sVcom.tencent.mobileqq
p1073
g818
sg908
g536
sVcom.tencent.mm
p1074
g696
sVcom.eg.android.AlipayGphone
p1075
g415
sg398
g644
ssg31
(dp1076
sg33
(dp1077
Vcom.vlocker.locker
p1078
g136
sVcom.sina.weibo
p1079
g397
sg149
g592
sVcom.nd.android.pandahome2
p1080
g855
sVcom.taobao.taobao
p1081
g515
sg743
g262
sVcom.UCMobile
p1082
g280
sVcom.nd.desktopcontacts
p1083
g214
sVcom.android.systemui
p1084
g537
sg428
g943
sVcom.tencent.mm
p1085
g697
sg830
g631
sVcom.tencent.mobileqq
p1086
g820
ssg35
(dp1087
Vcom.nd.android.pandahome2
p1088
g856
sg41
g473
sg128
g311
sg319
g325
ssg37
(dp1089
Vcom.vlocker.locker
p1090
g137
sVcom.android.systemui
p1091
g539
sVcom.tencent.mm
p1092
g698
sVcom.nd.android.pandahome2
p1093
g857
sVcom.UCMobile
p1094
g281
ssg39
(dp1095
Vcom.vlocker.locker
p1096
g138
sVcom.nd.android.pandahome2
p1097
g859
sVcom.nd.desktopcontacts
p1098
g183
sVcom.UCMobile
p1099
g283
sVcom.android.systemui
p1100
g540
sVcom.tencent.mm
p1101
g700
sVcom.tencent.mobileqq
p1102
g822
ssg41
(dp1103
g35
g438
sg1046
g139
sVcom.sina.weibo
p1104
g395
sg1088
g860
sVcom.sina.weibog3
p1105
g238
sVcom.UCMobile
p1106
g285
sg128
g312
sg319
g332
sg482
g542
sVcom.tencent.mm
p1107
g701
ssg43
(dp1108
g39
g461
sVcom.htc.music
p1109
g801
sVcom.vlocker.locker
p1110
g141
sg350
g609
sg1054
g861
sg1056
g286
sg25
g337
sg1057
g544
sVcom.htc.contacts
p1111
g575
sVcom.tencent.mm
p1112
g702
sg1059
g808
ssg45
(dp1113
Vcom.vlocker.locker
p1114
g143
sg498
g546
sg192
g862
sVcom.nd.desktopcontacts
p1115
g196
sg65
g742
sVcom.sina.weibog3
p1116
g234
sg201
g287
sg297
g763
sg186
g650
sVcom.tencent.mm
p1117
g704
sVcom.android.phone
p1118
g621
sVcom.tencent.mobileqq
p1119
g825
ssg47
(dp1120
Vcom.vlocker.locker
p1121
g145
sVcom.tencent.mm
p1122
g705
sVcom.sina.weibo
p1123
g386
sVcom.nd.android.pandahome2
p1124
g863
sVcom.UCMobile
p1125
g288
ssg49
(dp1126
g13
g153
sVcom.nd.desktopcontacts
p1127
g191
sVcom.sina.weibog3
p1128
g240
sg21
g296
sg23
g321
sVcom.smp.musicspeed
p1129
g334
sg535
g390
sg514
g427
sVcom.qihoo360.ludashi.cooling
p1130
g450
sg699
g465
sg394
g483
sg17
g227
sVcom.taobao.taobao
p1131
g499
sVcom.android.phone
p1132
g606
sVcom.tencent.mobileqq
p1133
g827
sVcom.tudou.android
p1134
g677
sg120
g706
sg297
g759
sg1044
g783
sg73
g792
sVcom.android.settings
p1135
g646
sg165
g864
sg1072
g909
sVfm.xiami.main
p1136
g920
sVcom.android.camera
p1137
g956
sVcom.htc.photoenhancer
p1138
g410
ssg51
(dp1139
Vcom.vlocker.locker
p1140
g148
sVcom.android.systemui
p1141
g549
sVcom.nd.android.pandahome2
p1142
g865
sVcom.nd.desktopcontacts
p1143
g181
sVcom.smp.musicspeed
p1144
g347
sg580
g597
sVcom.tencent.mm
p1145
g707
ssg53
(dp1146
Vcom.vlocker.locker
p1147
g150
sVcom.nd.android.pandahome2
p1148
g866
sVcom.tencent.mm
p1149
g708
sg587
g642
ssg55
(dp1150
Vcom.htc.contacts
p1151
g581
sVcom.smp.musicspeed
p1152
g351
sVcom.changba
p1153
g469
sg59
g673
sg268
g147
sVcom.sina.weibo
p1154
g371
sVcom.android.systemui
p1155
g548
sVcom.nd.android.pandahome2
p1156
g867
sVcom.nd.desktopcontacts
p1157
g206
sVcom.dianping.v1
p1158
g739
sVcom.sina.weibog3
p1159
g260
sVcom.UCMobile
p1160
g289
sVcom.taobao.taobao
p1161
g513
sg263
g659
sg177
g974
sVcom.tencent.mm
p1162
g713
sVcom.eg.android.AlipayGphone
p1163
g417
sVcom.tencent.mobileqq
p1164
g831
ssg57
(dp1165
g844
g164
sg122
g187
sVcom.sina.weibog3
p1166
g264
sVcom.UCMobile
p1167
g293
sg101
g984
sVcom.sina.weibo
p1168
g399
sVcom.eg.android.AlipayGphone
p1169
g433
sg1041
g510
sg146
g602
sg53
g588
sg294
g681
sVcom.android.systemui
p1170
g559
sVcom.htc.album
p1171
g767
sVcom.tencent.mobileqq
p1172
g835
sg915
g787
sg870
g721
sg1014
g879
sg81
g890
sg83
g894
sVfm.xiami.main
p1173
g934
sg768
g949
sg255
g968
sg732
g977
sVcom.smp.musicspeed
p1174
g353
ssg59
(dp1175
g680
g666
sg674
g869
sVcom.UCMobile
p1176
g295
sg101
g983
sg672
g600
sVcom.tencent.mm
p1177
g711
ssg61
(dp1178
Vcom.vlocker.locker
p1179
g152
sVcom.tencent.mm
p1180
g709
sVcom.nd.android.pandahome2
p1181
g868
ssg63
(dp1182
g8
g109
sg13
g121
sVcom.nd.desktopcontacts
p1183
g212
sVcom.jingdong.app.mall
p1184
g223
sg125
g258
sg245
g301
sg23
g323
sVcom.smp.musicspeed
p1185
g349
sg27
g356
sVcom.sina.weibo
p1186
g393
sg33
g431
sg1003
g457
sg992
g485
sVcom.android.documentsui
p1187
g489
sg142
g512
sg239
g550
sVcom.htc.contacts
p1188
g583
sg159
g829
sVcom.tudou.android
p1189
g683
sVcom.android.phone
p1190
g630
sg197
g748
sg618
g772
sg71
g785
sg75
g794
sg57
g664
sg1014
g871
sg83
g896
sg1072
g903
sVfm.xiami.main
p1191
g936
sg428
g939
sg93
g957
sg95
g962
sg732
g979
sg1138
g404
ssg65
(dp1192
Vcom.vlocker.locker
p1193
g155
sVcom.sina.weibo
p1194
g378
sVfm.xiami.main
p1195
g926
sVcom.nd.android.pandahome2
p1196
g872
sVcom.nd.desktopcontacts
p1197
g198
sg1116
g244
sVcom.android.phone
p1198
g613
sVcom.tencent.mm
p1199
g714
ssg67
(dp1200
Vcom.vlocker.locker
p1201
g156
sVcom.nd.android.pandahome2
p1202
g873
sVcom.smp.musicspeed
p1203
g345
ssg69
(dp1204
g11
g118
sVcom.vlocker.locker
p1205
g158
sVcom.sina.weibo
p1206
g369
sVcom.android.phone
p1207
g619
sVcom.nd.android.pandahome2
p1208
g874
sVcom.nd.desktopcontacts
p1209
g204
sg766
g656
sVcom.UCMobile
p1210
g298
sVcom.htc.photoenhancer
p1211
g406
sg955
g552
sVfm.xiami.main
p1212
g932
sg93
g947
sVcom.tencent.mm
p1213
g716
sVcom.tencent.mobileqq
p1214
g832
ssg71
(dp1215
Vfm.xiami.main
p1216
g916
sVcom.vlocker.locker
p1217
g161
sVcom.tencent.mm
p1218
g718
sVcom.nd.android.pandahome2
p1219
g876
sVcom.sina.weibog3
p1220
g232
sg778
g300
sg782
g555
sVcom.sina.weibo
p1221
g363
ssg73
(dp1222
Vcom.nd.android.pandahome2
p1223
g877
sVcom.tencent.mm
p1224
g719
ssg75
(dp1225
Vcom.vlocker.locker
p1226
g163
sg1059
g833
sVcom.nd.android.pandahome2
p1227
g878
sg1187
g487
sVcom.smp.musicspeed
p1228
g329
sVcom.android.systemui
p1229
g557
sg1111
g569
sVcom.tencent.mm
p1230
g720
ssg77
(dp1231
g821
g471
sVcom.vlocker.locker
p1232
g160
sg1030
g388
sVcom.android.systemui
p1233
g554
sVcom.nd.android.pandahome2
p1234
g875
sVcom.nd.desktopcontacts
p1235
g216
sVcom.sina.weibog3
p1236
g251
sVcom.UCMobile
p1237
g291
sVcom.htc.album
p1238
g757
sVcom.taobao.taobao
p1239
g517
sg1190
g633
sVcom.android.camera
p1240
g959
sg95
g966
sVcom.htc.contacts
p1241
g585
sVcom.tencent.mm
p1242
g717
sVcom.eg.android.AlipayGphone
p1243
g413
sg766
g668
ssg79
(dp1244
g8
g111
sg13
g166
sg122
g193
sg17
g225
sg1000
g242
sg201
g303
sg23
g314
sg1017
g336
sg27
g360
sVcom.sina.weibo
p1245
g373
sg1138
g408
sg33
g419
sg991
g436
sg1130
g448
sg39
g459
sVcom.android.packageinstaller
p1246
g477
sVcom.android.documentsui
p1247
g491
sg45
g501
sg385
g522
sg498
g561
sVcom.htc.contacts
p1248
g573
sg53
g590
sg55
g608
sg61
g686
sg59
g675
sg63
g722
sg65
g741
sg69
g761
sg77
g836
sg71
g777
sg73
g790
sg75
g796
sg57
g648
sg83
g898
sVcom.baidu.tieba
p1249
g905
sVfm.xiami.main
p1250
g922
sVcom.autonavi.minimap
p1251
g941
sg93
g951
sg95
g964
sg97
g970
sg732
g981
sg101
g986
ssg81
(dp1252
Vcom.nd.android.pandahome2
p1253
g880
sVcom.tencent.mobileqq
p1254
g837
sVcom.nd.desktopcontacts
p1255
g194
sVcom.android.settings
p1256
g649
ssg83
(dp1257
Vcom.android.settings
p1258
g635
sVcom.tencent.mm
p1259
g723
ssg85
(dp1260
g535
g384
sVcom.vlocker.locker
p1261
g168
sg284
g484
sg902
g724
sVcom.nd.android.pandahome2
p1262
g881
sg502
g221
sg1028
g507
sg1106
g304
sg389
g562
sVcom.tencent.mobileqq
p1263
g838
ssg87
(dp1264
sg89
(dp1265
g282
g453
sVcom.vlocker.locker
p1266
g170
sVcom.sina.weibo
p1267
g365
sVcom.android.systemui
p1268
g564
sVcom.nd.android.pandahome2
p1269
g882
sVcom.nd.desktopcontacts
p1270
g208
sg927
g253
sVcom.UCMobile
p1271
g306
sVcom.smp.musicspeed
p1272
g344
sVcom.android.phone
p1273
g625
sVcom.tencent.mm
p1274
g725
sVcom.android.settings
p1275
g661
ssg91
(dp1276
Vcom.tencent.mm
p1277
g726
sVcom.nd.android.pandahome2
p1278
g883
sg154
g735
sVcom.sina.weibog3
p1279
g254
sg1193
g172
sVcom.sina.weibo
p1280
g391
sVcom.eg.android.AlipayGphone
p1281
g429
ssg93
(dp1282
g11
g116
sVcom.vlocker.locker
p1283
g174
sVcom.tencent.mm
p1284
g728
sg1207
g626
sVcom.nd.android.pandahome2
p1285
g884
sg955
g566
sg618
g769
sVcom.android.settings
p1286
g654
ssg95
(dp1287
Vcom.nd.android.pandahome2
p1288
g885
sg157
g770
sVcom.tencent.mm
p1289
g730
sVcom.smp.musicspeed
p1290
g328
sg1205
g176
ssg97
(dp1291
Vcom.vlocker.locker
p1292
g178
sVcom.nd.android.pandahome2
p1293
g886
sg971
g210
sVcom.sina.weibog3
p1294
g256
sVcom.UCMobile
p1295
g308
sg973
g628
sVcom.tencent.mm
p1296
g731
sVcom.tencent.mobileqq
p1297
g840
ssg99
(dp1298
g889
g662
sVcom.tencent.mm
p1299
g733
sVcom.tencent.mobileqq
p1300
g841
sg81
g891
ssg101
(dp1301
Vcom.android.settings
p1302
g638
sVcom.nd.android.pandahome2
p1303
g887
sg1176
g309
sssS'adj'
p1304
g106
sb.