ccopy_reg
_reconstructor
p1
(cnetworkx.classes.digraph
DiGraph
p2
c__builtin__
object
p3
NtRp4
(dp5
S'node'
p6
(dp7
Vcom.android.browser
p8
(dp9
S'weight'
p10
F0.0010091919155001644
ssVcom.bestpay.creditcard
p11
(dp12
g10
F2.558386023902635e-05
ssVcom.sankuai.meituan
p13
(dp14
g10
F0.0074389642191440373
ssVcom.youku.phone
p15
(dp16
g10
F0.032085815576916046
ssVcom.android.updater
p17
(dp18
g10
F6.3959650597565874e-06
ssVcom.comingx.athit
p19
(dp20
g10
F0.001830159716384635
ssVcom.android.deskclock
p21
(dp22
g10
F0.049596140491941082
ssVcom.UCMobile
p23
(dp24
g10
F0.069677186506341138
ssVcom.hunantv.imgo.activity
p25
(dp26
g10
F0.0053963670918460585
ssVcom.android.launcher
p27
(dp28
g10
F0.19303707832316069
ssVcom.eg.android.AlipayGphone
p29
(dp30
g10
F0.0098749131976170468
ssVcom.youdao.dict
p31
(dp32
g10
F0.0017113775081320126
ssVcom.zhihu.android
p33
(dp34
g10
F0.0022628010672124557
ssVcom.chinamworld.main
p35
(dp36
g10
F8.8629801542341284e-05
ssVcn.wps.moffice_eng
p37
(dp38
g10
F0.0013175688023098571
ssVcom.TianYi
p39
(dp40
g10
F0.00010279229560323087
ssVcom.android.bluetooth
p41
(dp42
g10
F4.5685464712547055e-07
ssVcom.android.packageinstaller
p43
(dp44
g10
F0.0023272175724571471
ssVcom.moji.mjweather
p45
(dp46
g10
F0.0053059098717152149
ssVcom.taobao.taobao
p47
(dp48
g10
F0.0094902415847374008
ssVcom.android.calculator
p49
(dp50
g10
F0.0030175249442637329
ssVme.ele
p51
(dp52
g10
F0.0010813749497459888
ssVcom.android.phone
p53
(dp54
g10
F0.046664047366689811
ssVcom.miui.gallery
p55
(dp56
g10
F0.00088355688754066007
ssVcom.tencent.mm
p57
(dp58
g10
F0.12936753042651949
ssVcom.miui.antispam
p59
(dp60
g10
F3.8832645005664998e-05
ssVcom.xindaoapp.miaodaiepay
p61
(dp62
g10
F5.2538284419429114e-05
ssVcom.sankuai.meituan.takeoutnew
p63
(dp64
g10
F0.00047284455977486203
ssVcom.netease.mobimail
p65
(dp66
g10
F0.0030993019260991922
ssVcom.tencent.androidqqmail
p67
(dp68
g10
F8.1320127188333759e-05
ssVcom.youdao.bigbang
p69
(dp70
g10
F0.0001690362194364241
ssVcom.baidu.lbs.waimai
p71
(dp72
g10
F0.00035908775264061987
ssVcom.baidu.input
p73
(dp74
g10
F2.0101604473520706e-05
ssVcom.yipiao
p75
(dp76
g10
F0.0022267095500895437
ssVcom.android.fileexplorer
p77
(dp78
g10
F0.00054137275684368259
ssVcom.tuniu.app.ui
p79
(dp80
g10
F4.3858046124045175e-05
ssVcom.android.camera
p81
(dp82
g10
F0.010964054676364169
ssVcom.happyelements.AndroidAnimal
p83
(dp84
g10
F0.00054685501260918828
ssVcom.tencent.mobileqq
p85
(dp86
g10
F0.31362751726910565
ssVcom.kingroot.kinguser
p87
(dp88
g10
F0.010098771974708527
ssVcom.miui.notes
p89
(dp90
g10
F0.0037777310770805159
ssVcom.android.calendar
p91
(dp92
g10
F0.0019270129015752349
ssVcom.android.settings
p93
(dp94
g10
F0.0024569642922407805
ssVcom.android.mms
p95
(dp96
g10
F0.060604053214429299
ssVcom.miui.voiceassist
p97
(dp98
g10
F4.5685464712547054e-06
ssVcom.miui.networkassistant
p99
(dp100
g10
F0.012459796791052958
ssVcn.chinabus.main
p101
(dp102
g10
F1.5076203355140528e-05
ssVcom.edooon.gps
p103
(dp104
g10
F5.4822557655056469e-06
ssVcom.android.quicksearchbox
p105
(dp106
g10
F5.4822557655056469e-06
ssVcom.miui.yellowpage
p107
(dp108
g10
F0.00016264025437666752
ssVcom.innorz.venus
p109
(dp110
g10
F0.0017849311063192134
ssVcom.chinatelecom.bestpayclient
p111
(dp112
g10
F0.00085523189941888087
sssS'node_dict_factory'
p113
c__builtin__
dict
p114
sS'edge_attr_dict_factory'
p115
g114
sS'succ'
p116
(dp117
g8
(dp118
Vcom.kingroot.kinguser
p119
(dp120
g10
F4.4000000000000004
ssVcom.miui.notes
p121
(dp122
g10
F0.90000000000000002
ssVcom.netease.mobimail
p123
(dp124
g10
I1
ssVcom.tencent.mobileqq
p125
(dp126
g10
F5.3000000000000007
ssVcom.android.packageinstaller
p127
(dp128
g10
F1.3
ssVcom.android.mms
p129
(dp130
g10
F2.6000000000000001
ssVcom.UCMobile
p131
(dp132
g10
F3
ssVcom.android.launcher
p133
(dp134
g10
F25.499999999999993
ssg105
(dp135
g10
F0.40000000000000002
ssVcom.miui.yellowpage
p136
(dp137
g10
I1
ssVcom.tencent.mm
p138
(dp139
g10
F3.8999999999999999
sssg11
(dp140
Vcom.android.packageinstaller
p141
(dp142
g10
F1.3
ssVcom.android.mms
p143
(dp144
g10
F0.40000000000000002
ssVcom.android.launcher
p145
(dp146
g10
F0.90000000000000002
ssVcom.chinatelecom.bestpayclient
p147
(dp148
g10
F3.4000000000000004
sssg13
(dp149
Vcom.kingroot.kinguser
p150
(dp151
g10
F6.4000000000000004
ssVcom.tencent.mobileqq
p152
(dp153
g10
F39.799999999999983
ssVcom.android.mms
p154
(dp155
g10
I2
ssVcom.UCMobile
p156
(dp157
g10
F1.3
ssVcom.android.launcher
p158
(dp159
g10
F26.399999999999995
ssVcom.android.phone
p160
(dp161
g10
F1.8999999999999999
ssVcom.android.camera
p162
(dp163
g10
F0.90000000000000002
ssVcom.tencent.mm
p164
(dp165
g10
F1.7000000000000002
ssVcom.eg.android.AlipayGphone
p166
(dp167
g10
F2.2999999999999998
sssg15
(dp168
Vcom.android.browser
p169
(dp170
g10
I1
ssVcom.netease.mobimail
p171
(dp172
g10
F2.7000000000000002
ssVcom.kingroot.kinguser
p173
(dp174
g10
F40.100000000000001
ssVcom.tencent.mobileqq
p175
(dp176
g10
F86.000000000000028
ssVcom.android.packageinstaller
p177
(dp178
g10
F3.8000000000000003
ssVcom.android.mms
p179
(dp180
g10
F3.6000000000000001
ssVcom.yipiao
p181
(dp182
g10
F2.5
ssVcom.taobao.taobao
p183
(dp184
g10
F1.3
ssVcom.android.deskclock
p185
(dp186
g10
F0.40000000000000002
ssVcom.UCMobile
p187
(dp188
g10
F4.7999999999999998
ssVcom.hunantv.imgo.activity
p189
(dp190
g10
F1.6000000000000001
ssg27
(dp191
g10
F94.500000000000028
ssVcom.android.phone
p192
(dp193
g10
I2
ssVcom.android.camera
p194
(dp195
g10
F1.3
ssVcom.tencent.mm
p196
(dp197
g10
F14.800000000000004
ssVcom.eg.android.AlipayGphone
p198
(dp199
g10
F1.7
ssVcom.android.settings
p200
(dp201
g10
F10.699999999999999
sssg17
(dp202
sg19
(dp203
Vcom.kingroot.kinguser
p204
(dp205
g10
F6.2000000000000002
ssVcom.android.browser
p206
(dp207
g10
F0.90000000000000002
ssVcom.android.settings
p208
(dp209
g10
F1.3
ssVcom.tencent.mm
p210
(dp211
g10
F0.40000000000000002
ssVcom.android.mms
p212
(dp213
g10
I1
ssVcom.android.deskclock
p214
(dp215
g10
F0.90000000000000002
ssVcom.android.fileexplorer
p216
(dp217
g10
F0.90000000000000002
ssVcom.android.launcher
p218
(dp219
g10
F15.899999999999999
ssVcom.tencent.mobileqq
p220
(dp221
g10
F18.499999999999993
sssg21
(dp222
Vcom.kingroot.kinguser
p223
(dp224
g10
F37
ssVcom.moji.mjweather
p225
(dp226
g10
F1.7
ssVcom.chinamworld.main
p227
(dp228
g10
F1.3
ssVcom.netease.mobimail
p229
(dp230
g10
F1.8999999999999999
ssVcom.android.fileexplorer
p231
(dp232
g10
F0.90000000000000002
ssVcom.android.calendar
p233
(dp234
g10
F0.90000000000000002
ssVcom.tencent.mobileqq
p235
(dp236
g10
F22.199999999999992
ssVcom.android.phone
p237
(dp238
g10
I4
ssVcom.android.mms
p239
(dp240
g10
F11.4
ssVcom.youku.phone
p241
(dp242
g10
F0.90000000000000002
ssVcom.UCMobile
p243
(dp244
g10
F0.40000000000000002
ssVcom.android.launcher
p245
(dp246
g10
F46.899999999999999
ssVcom.android.settings
p247
(dp248
g10
F2.7000000000000002
ssVcom.tencent.mm
p249
(dp250
g10
F3.1000000000000001
ssVcom.youdao.dict
p251
(dp252
g10
F0.90000000000000002
sssg23
(dp253
Vcom.android.browser
p254
(dp255
g10
F5.6000000000000005
ssVcom.moji.mjweather
p256
(dp257
g10
I1
ssVcom.youdao.dict
p258
(dp259
g10
F3.6000000000000001
ssVcom.comingx.athit
p260
(dp261
g10
F2.2000000000000002
ssg214
(dp262
g10
F0.40000000000000002
ssVcom.android.launcher
p263
(dp264
g10
F337.29999999999916
ssVcom.eg.android.AlipayGphone
p265
(dp266
g10
F0.69999999999999996
ssVcom.youku.phone
p267
(dp268
g10
F2.2000000000000002
ssVcom.zhihu.android
p269
(dp270
g10
F4.5999999999999996
ssg37
(dp271
g10
I1
ssg41
(dp272
g10
I1
ssg43
(dp273
g10
F11
ssVcom.sankuai.meituan
p274
(dp275
g10
F0.90000000000000002
ssVcom.taobao.taobao
p276
(dp277
g10
F1.8
ssg51
(dp278
g10
F1.7000000000000002
ssVcom.android.phone
p279
(dp280
g10
F24.699999999999992
ssVcom.miui.gallery
p281
(dp282
g10
F0.90000000000000002
ssVcom.tencent.mm
p283
(dp284
g10
F75.600000000000051
ssg59
(dp285
g10
F1.3
ssVcom.netease.mobimail
p286
(dp287
g10
F1.3
ssVcom.android.calculator
p288
(dp289
g10
F2.6000000000000001
ssg71
(dp290
g10
F1.3
ssVcom.baidu.input
p291
(dp292
g10
I1
ssVcom.yipiao
p293
(dp294
g10
F6.5000000000000009
ssVcom.android.fileexplorer
p295
(dp296
g10
F0.40000000000000002
ssg79
(dp297
g10
F0.90000000000000002
ssVcom.tencent.mobileqq
p298
(dp299
g10
F347.69999999999902
ssVcom.kingroot.kinguser
p300
(dp301
g10
F182.2000000000001
ssVcom.miui.notes
p302
(dp303
g10
F12.800000000000004
ssVcom.miui.networkassistant
p304
(dp305
g10
F3
ssVcom.android.settings
p306
(dp307
g10
F16.700000000000003
ssVcom.android.mms
p308
(dp309
g10
F47.899999999999991
ssg97
(dp310
g10
F1.7
ssg101
(dp311
g10
F1.7000000000000002
ssVcom.android.camera
p312
(dp313
g10
F4.7000000000000002
ssg111
(dp314
g10
F1.3
sssg25
(dp315
Vcom.kingroot.kinguser
p316
(dp317
g10
F4.5
ssVcom.youku.phone
p318
(dp319
g10
F0.90000000000000002
ssVcom.UCMobile
p320
(dp321
g10
F0.90000000000000002
ssVcom.tencent.mobileqq
p322
(dp323
g10
F104.40000000000013
ssVcom.android.mms
p324
(dp325
g10
F0.40000000000000002
ssVcom.baidu.input
p326
(dp327
g10
I1
ssVcom.taobao.taobao
p328
(dp329
g10
F0.90000000000000002
ssVcom.android.fileexplorer
p330
(dp331
g10
F1.3
ssVcom.yipiao
p332
(dp333
g10
I1
ssVcom.android.launcher
p334
(dp335
g10
F19.399999999999999
ssVcom.android.settings
p336
(dp337
g10
F0.40000000000000002
ssVcom.tencent.mm
p338
(dp339
g10
F3.2999999999999998
sssg27
(dp340
g169
(dp341
g10
F19.899999999999999
ssg13
(dp342
g10
F19.299999999999997
ssVcom.youku.phone
p343
(dp344
g10
F72.000000000000028
ssg17
(dp345
g10
F3.3999999999999999
ssg260
(dp346
g10
F11.899999999999999
ssg185
(dp347
g10
F17.100000000000001
ssVcom.UCMobile
p348
(dp349
g10
F284.79999999999939
ssVcom.hunantv.imgo.activity
p350
(dp351
g10
F14.9
ssg65
(dp352
g10
F27.699999999999992
ssg29
(dp353
g10
F57.600000000000023
ssg39
(dp354
g10
F0.40000000000000002
ssVcom.zhihu.android
p355
(dp356
g10
F21.399999999999995
ssg35
(dp357
g10
F7.1000000000000005
ssg37
(dp358
g10
F3.5
ssg43
(dp359
g10
F8.5000000000000018
ssg45
(dp360
g10
F22.899999999999995
ssg47
(dp361
g10
F45.500000000000007
ssg288
(dp362
g10
F6.1000000000000005
ssVcom.android.phone
p363
(dp364
g10
F81.600000000000023
ssg55
(dp365
g10
F5.2999999999999998
ssVcom.tencent.mm
p366
(dp367
g10
F788.00000000000318
ssVcom.miui.antispam
p368
(dp369
g10
F1.8999999999999999
ssg258
(dp370
g10
F7.1000000000000005
ssg67
(dp371
g10
F7.8000000000000007
ssg69
(dp372
g10
F2.7000000000000002
ssg73
(dp373
g10
F3.9999999999999996
ssVcom.yipiao
p374
(dp375
g10
F37.499999999999993
ssg295
(dp376
g10
F23.299999999999997
ssg79
(dp377
g10
F0.69999999999999996
ssg81
(dp378
g10
F73.500000000000028
ssVcom.happyelements.AndroidAnimal
p379
(dp380
g10
F5.4000000000000004
ssg85
(dp381
g10
F1171.7000000000064
ssg87
(dp382
g10
F668.79999999999416
ssg89
(dp383
g10
F35.399999999999991
ssg99
(dp384
g10
F17.599999999999998
ssg93
(dp385
g10
F80.500000000000043
ssVcom.android.mms
p386
(dp387
g10
F180.50000000000009
ssVcom.miui.voiceassist
p388
(dp389
g10
F0.40000000000000002
ssg91
(dp390
g10
F13.999999999999998
ssVcn.chinabus.main
p391
(dp392
g10
I1
ssg103
(dp393
g10
F1.7
ssg105
(dp394
g10
F3.3999999999999999
ssg107
(dp395
g10
F2.7000000000000002
ssVcom.innorz.venus
p396
(dp397
g10
F5.4000000000000004
ssVcom.chinatelecom.bestpayclient
p398
(dp399
g10
F1.7
sssg29
(dp400
Vcom.kingroot.kinguser
p401
(dp402
g10
F28.999999999999996
ssVcom.android.fileexplorer
p403
(dp404
g10
F1.3
ssVcom.tencent.mm
p405
(dp406
g10
F7.8000000000000016
ssVcom.android.mms
p407
(dp408
g10
F15.1
ssVcom.yipiao
p409
(dp410
g10
F0.40000000000000002
ssVcom.taobao.taobao
p411
(dp412
g10
F3.3999999999999999
ssVcom.android.deskclock
p413
(dp414
g10
F0.90000000000000002
ssVcom.UCMobile
p415
(dp416
g10
F2.4000000000000004
ssg350
(dp417
g10
F1.3
ssVcom.android.launcher
p418
(dp419
g10
F60.300000000000018
ssVcom.android.phone
p420
(dp421
g10
F3.6000000000000001
ssg322
(dp422
g10
F21.699999999999996
sssg31
(dp423
Vcom.kingroot.kinguser
p424
(dp425
g10
F6.8000000000000007
ssVcom.tencent.mm
p426
(dp427
g10
F1.8
ssVcom.android.mms
p428
(dp429
g10
I1
ssVcom.UCMobile
p430
(dp431
g10
F2.7000000000000002
ssVcom.android.launcher
p432
(dp433
g10
F12.899999999999999
ssVcom.android.phone
p434
(dp435
g10
F1.8999999999999999
ssVcom.android.camera
p436
(dp437
g10
F0.40000000000000002
ssVcom.tencent.mobileqq
p438
(dp439
g10
F0.40000000000000002
sssg33
(dp440
Vcom.kingroot.kinguser
p441
(dp442
g10
F6.5999999999999996
ssVcom.netease.mobimail
p443
(dp444
g10
F0.90000000000000002
ssVcom.miui.networkassistant
p445
(dp446
g10
F1.1000000000000001
ssVcom.android.settings
p447
(dp448
g10
F1.3
ssVcom.android.mms
p449
(dp450
g10
F1.7
ssVcom.taobao.taobao
p451
(dp452
g10
F0.90000000000000002
ssVcom.UCMobile
p453
(dp454
g10
F2.6000000000000001
ssVcom.android.launcher
p455
(dp456
g10
F30.599999999999991
ssVcom.tencent.mm
p457
(dp458
g10
F6.6000000000000014
ssVcom.tencent.mobileqq
p459
(dp460
g10
F6.2000000000000011
sssg35
(dp461
Vcom.android.mms
p462
(dp463
g10
F1.3999999999999999
ssVcom.tencent.mm
p464
(dp465
g10
F1.3
ssVcom.tencent.mobileqq
p466
(dp467
g10
F1.8
ssVcom.eg.android.AlipayGphone
p468
(dp469
g10
F1.7000000000000002
ssVcom.android.launcher
p470
(dp471
g10
F7.4000000000000004
sssg37
(dp472
Vcom.kingroot.kinguser
p473
(dp474
g10
F3.6000000000000001
ssVcom.netease.mobimail
p475
(dp476
g10
I3
ssVcom.android.fileexplorer
p477
(dp478
g10
F1.3
ssVcom.android.mms
p479
(dp480
g10
I1
ssVcom.UCMobile
p481
(dp482
g10
I1
ssVcom.android.launcher
p483
(dp484
g10
I3
ssVcom.tencent.mobileqq
p485
(dp486
g10
F5.5999999999999996
sssg39
(dp487
Vcom.kingroot.kinguser
p488
(dp489
g10
F1.3
ssVcom.android.packageinstaller
p490
(dp491
g10
F1.3
ssVcom.android.mms
p492
(dp493
g10
F0.40000000000000002
ssVcom.chinatelecom.bestpayclient
p494
(dp495
g10
F5.1000000000000005
sssg41
(dp496
Vcom.android.settings
p497
(dp498
g10
F1.7
ssVcom.UCMobile
p499
(dp500
g10
F0.90000000000000002
sssg43
(dp501
Vcom.kingroot.kinguser
p502
(dp503
g10
F6.7000000000000011
ssg71
(dp504
g10
F1.7
ssVcom.youku.phone
p505
(dp506
g10
F2.7000000000000002
ssg101
(dp507
g10
F1.7
ssg306
(dp508
g10
F2.7999999999999998
ssg265
(dp509
g10
F1.3
ssg19
(dp510
g10
F1.7
ssg492
(dp511
g10
F1.8
ssVcom.UCMobile
p512
(dp513
g10
F3.8999999999999999
ssg51
(dp514
g10
F2.3999999999999999
ssg79
(dp515
g10
I1
ssg63
(dp516
g10
F1.7
ssVcom.android.launcher
p517
(dp518
g10
F3.8999999999999999
ssg41
(dp519
g10
F0.69999999999999996
ssg109
(dp520
g10
F1.7
ssg39
(dp521
g10
F1.3
ssVcom.tencent.mm
p522
(dp523
g10
I1
ssg111
(dp524
g10
F7.4000000000000004
ssVcom.tencent.mobileqq
p525
(dp526
g10
F1.3
sssg45
(dp527
Vcom.kingroot.kinguser
p528
(dp529
g10
F15.499999999999998
ssVcom.netease.mobimail
p530
(dp531
g10
F1.7
ssVcom.miui.networkassistant
p532
(dp533
g10
I1
ssVcom.tencent.mobileqq
p534
(dp535
g10
F15.199999999999998
ssVcom.android.packageinstaller
p536
(dp537
g10
I1
ssVcom.android.mms
p538
(dp539
g10
F0.40000000000000002
ssVcom.taobao.taobao
p540
(dp541
g10
F1.3
ssVcom.yipiao
p542
(dp543
g10
I1
ssVcom.android.launcher
p544
(dp545
g10
F36.199999999999989
ssVcom.android.phone
p546
(dp547
g10
F1.8999999999999999
ssVcom.android.camera
p548
(dp549
g10
F0.90000000000000002
ssg63
(dp550
g10
F1.3
ssVcom.tencent.mm
p551
(dp552
g10
F6.1000000000000005
ssVcom.android.settings
p553
(dp554
g10
I1
sssg47
(dp555
Vcom.kingroot.kinguser
p556
(dp557
g10
F31.699999999999999
ssVcom.sankuai.meituan
p558
(dp559
g10
F1.3
ssVcom.youku.phone
p560
(dp561
g10
F1.3
ssVcom.tencent.mm
p562
(dp563
g10
F4.2000000000000002
ssVcom.moji.mjweather
p564
(dp565
g10
F0.90000000000000002
ssg154
(dp566
g10
F0.69999999999999996
ssVcom.UCMobile
p567
(dp568
g10
F1.8
ssVcom.android.launcher
p569
(dp570
g10
F61.000000000000036
ssVcom.android.phone
p571
(dp572
g10
F3.2000000000000002
ssVcom.android.camera
p573
(dp574
g10
F7
ssVcom.tencent.mobileqq
p575
(dp576
g10
F62.600000000000016
ssVcom.eg.android.AlipayGphone
p577
(dp578
g10
F3
ssVcom.android.settings
p579
(dp580
g10
F0.90000000000000002
sssg49
(dp581
Vcom.kingroot.kinguser
p582
(dp583
g10
F3.7000000000000002
ssVcom.miui.networkassistant
p584
(dp585
g10
F0.69999999999999996
ssVcom.tencent.mobileqq
p586
(dp587
g10
F3.3999999999999999
ssVcom.comingx.athit
p588
(dp589
g10
F0.40000000000000002
ssVcom.UCMobile
p590
(dp591
g10
F1.8
ssVcom.android.launcher
p592
(dp593
g10
F14.799999999999999
ssVcom.android.settings
p594
(dp595
g10
F0.90000000000000002
ssVcom.tencent.mm
p596
(dp597
g10
F1.3
ssVcom.eg.android.AlipayGphone
p598
(dp599
g10
F0.90000000000000002
sssg51
(dp600
Vcom.kingroot.kinguser
p601
(dp602
g10
F7.3000000000000007
ssVcom.android.launcher
p603
(dp604
g10
F2.7000000000000002
sssg53
(dp605
Vcom.sankuai.meituan
p606
(dp607
g10
F1.3999999999999999
ssVcom.youku.phone
p608
(dp609
g10
F2.3999999999999999
ssVcom.android.deskclock
p610
(dp611
g10
F5.7000000000000002
ssVcom.UCMobile
p612
(dp613
g10
F13.899999999999999
ssVcom.hunantv.imgo.activity
p614
(dp615
g10
F1.7
ssVcom.netease.mobimail
p616
(dp617
g10
F3
ssVcom.eg.android.AlipayGphone
p618
(dp619
g10
F3.8000000000000003
ssVcom.chinamworld.main
p620
(dp621
g10
F0.69999999999999996
ssVcom.moji.mjweather
p622
(dp623
g10
F2.8999999999999999
ssVcom.taobao.taobao
p624
(dp625
g10
F1.7000000000000002
ssVcom.tencent.mm
p626
(dp627
g10
F42.699999999999982
ssVcom.miui.antispam
p628
(dp629
g10
F0.69999999999999996
ssVcom.baidu.input
p630
(dp631
g10
F1.7
ssVcom.android.camera
p632
(dp633
g10
F1.8
ssVcom.tencent.mobileqq
p634
(dp635
g10
F95.700000000000102
ssVcom.kingroot.kinguser
p636
(dp637
g10
F162.60000000000008
ssVcom.android.calendar
p638
(dp639
g10
I1
ssVcom.android.settings
p640
(dp641
g10
F14.1
ssVcom.android.mms
p642
(dp643
g10
F49.199999999999996
ssg532
(dp644
g10
F3.1000000000000001
ssVcom.android.launcher
p645
(dp646
g10
F185.70000000000022
ssVcom.miui.yellowpage
p647
(dp648
g10
I1
sssg55
(dp649
Vcom.kingroot.kinguser
p650
(dp651
g10
F3.1000000000000001
ssVcom.youku.phone
p652
(dp653
g10
F0.69999999999999996
ssVcom.tencent.mobileqq
p654
(dp655
g10
F6.7000000000000011
ssVcom.yipiao
p656
(dp657
g10
F1.3
ssVcom.android.fileexplorer
p658
(dp659
g10
I1
ssVcom.android.launcher
p660
(dp661
g10
F7.0000000000000009
ssVcom.android.camera
p662
(dp663
g10
I2
ssVcom.tencent.mm
p664
(dp665
g10
F1.6000000000000001
sssg57
(dp666
g169
(dp667
g10
F2.1000000000000001
ssg13
(dp668
g10
F3.5
ssVcom.youku.phone
p669
(dp670
g10
F14.200000000000003
ssg17
(dp671
g10
F1.3
ssVcom.comingx.athit
p672
(dp673
g10
F3.8999999999999999
ssVcom.android.deskclock
p674
(dp675
g10
F3.2999999999999998
ssg348
(dp676
g10
F64.099999999999994
ssVcom.hunantv.imgo.activity
p677
(dp678
g10
F3.3999999999999999
ssVcom.android.launcher
p679
(dp680
g10
F907.600000000004
ssVcom.eg.android.AlipayGphone
p681
(dp682
g10
F19.599999999999994
ssg355
(dp683
g10
F5.5000000000000009
ssg620
(dp684
g10
F2.2000000000000002
ssg43
(dp685
g10
F4.0999999999999996
ssVcom.moji.mjweather
p686
(dp687
g10
F9.3000000000000025
ssg47
(dp688
g10
F2.2000000000000002
ssVcom.android.phone
p689
(dp690
g10
F32.099999999999994
ssg55
(dp691
g10
F1.8999999999999999
ssVcom.tencent.mobileqq
p692
(dp693
g10
F813.29999999999882
ssVcom.miui.antispam
p694
(dp695
g10
F1.7
ssVcom.netease.mobimail
p696
(dp697
g10
F1.5
ssg67
(dp698
g10
F0.90000000000000002
ssg69
(dp699
g10
F2.6000000000000001
ssVcom.baidu.input
p700
(dp701
g10
F1.7
ssg374
(dp702
g10
F5.3000000000000007
ssVcom.android.fileexplorer
p703
(dp704
g10
F2.5
ssVcom.happyelements.AndroidAnimal
p705
(dp706
g10
F2.2999999999999998
ssVcom.kingroot.kinguser
p707
(dp708
g10
F472.8999999999989
ssg89
(dp709
g10
F2.5
ssVcom.android.calendar
p710
(dp711
g10
F1.7000000000000002
ssVcom.android.settings
p712
(dp713
g10
F22.299999999999997
ssVcom.android.mms
p714
(dp715
g10
F49.799999999999997
ssg436
(dp716
g10
F10.200000000000001
ssg109
(dp717
g10
F1.3
sssg59
(dp718
Vcom.kingroot.kinguser
p719
(dp720
g10
I2
ssVcom.miui.networkassistant
p721
(dp722
g10
F0.90000000000000002
ssVcom.android.settings
p723
(dp724
g10
I1
ssg558
(dp725
g10
F0.40000000000000002
ssVcom.android.mms
p726
(dp727
g10
F2.6000000000000001
ssVcom.taobao.taobao
p728
(dp729
g10
F2.6000000000000001
ssVcom.UCMobile
p730
(dp731
g10
F1.3
ssVcom.android.launcher
p732
(dp733
g10
F6.1000000000000005
ssVcom.android.camera
p734
(dp735
g10
F0.69999999999999996
ssVcom.tencent.mobileqq
p736
(dp737
g10
F3.3999999999999999
ssVcom.eg.android.AlipayGphone
p738
(dp739
g10
F0.40000000000000002
sssg61
(dp740
Vcom.kingroot.kinguser
p741
(dp742
g10
I1
ssVcom.bestpay.creditcard
p743
(dp744
g10
F1.3
ssVcom.chinatelecom.bestpayclient
p745
(dp746
g10
F1.7
sssg63
(dp747
Vcom.UCMobile
p748
(dp749
g10
F1.3
ssVcom.kingroot.kinguser
p750
(dp751
g10
F2.7000000000000002
ssVcom.android.packageinstaller
p752
(dp753
g10
F0.69999999999999996
ssVcom.android.launcher
p754
(dp755
g10
I1
ssVcom.android.settings
p756
(dp757
g10
I1
sssg65
(dp758
Vcom.kingroot.kinguser
p759
(dp760
g10
F12.4
ssVcom.miui.notes
p761
(dp762
g10
F0.90000000000000002
ssVcom.youku.phone
p763
(dp764
g10
I2
ssVcom.android.browser
p765
(dp766
g10
I1
ssVcom.miui.networkassistant
p767
(dp768
g10
F0.90000000000000002
ssVcom.tencent.mm
p769
(dp770
g10
F2.7999999999999998
ssVcom.moji.mjweather
p771
(dp772
g10
F2.3999999999999999
ssVcom.android.mms
p773
(dp774
g10
I1
ssVcom.android.deskclock
p775
(dp776
g10
I1
ssVcom.UCMobile
p777
(dp778
g10
F0.40000000000000002
ssVcom.android.launcher
p779
(dp780
g10
F25.199999999999992
ssVcom.android.phone
p781
(dp782
g10
I2
ssVcom.android.calculator
p783
(dp784
g10
F0.90000000000000002
ssVcom.tencent.mobileqq
p785
(dp786
g10
F13.100000000000003
ssVcn.wps.moffice_eng
p787
(dp788
g10
F3.6999999999999997
ssVcom.android.settings
p789
(dp790
g10
F1.3999999999999999
sssg67
(dp791
Vcom.kingroot.kinguser
p792
(dp793
g10
I1
ssVcom.tencent.mobileqq
p794
(dp795
g10
F3.3999999999999999
ssg669
(dp796
g10
F0.90000000000000002
ssVcom.android.launcher
p797
(dp798
g10
F6.7999999999999998
sssg69
(dp799
Vcom.kingroot.kinguser
p800
(dp801
g10
I1
ssVcom.android.launcher
p802
(dp803
g10
I1
sssg71
(dp804
Vcom.kingroot.kinguser
p805
(dp806
g10
F0.90000000000000002
ssVcom.android.launcher
p807
(dp808
g10
F1.7
ssg265
(dp809
g10
I1
sssg73
(dp810
Vcom.miui.notes
p811
(dp812
g10
F0.69999999999999996
ssVcom.tencent.mobileqq
p813
(dp814
g10
F4.5999999999999996
ssVcom.android.mms
p815
(dp816
g10
F0.90000000000000002
ssVcom.UCMobile
p817
(dp818
g10
I1
ssVcom.hunantv.imgo.activity
p819
(dp820
g10
F1.7
ssVcom.android.launcher
p821
(dp822
g10
F4.5999999999999996
ssVcom.android.phone
p823
(dp824
g10
I1
ssVcom.tencent.mm
p825
(dp826
g10
F1.1000000000000001
ssg618
(dp827
g10
F0.90000000000000002
sssg75
(dp828
Vcom.kingroot.kinguser
p829
(dp830
g10
F6.2000000000000011
ssVcom.youku.phone
p831
(dp832
g10
F1.3
ssVcom.android.calendar
p833
(dp834
g10
F0.90000000000000002
ssVcom.tencent.mobileqq
p835
(dp836
g10
F22.099999999999994
ssVcom.android.packageinstaller
p837
(dp838
g10
F0.69999999999999996
ssVcom.moji.mjweather
p839
(dp840
g10
F0.90000000000000002
ssg324
(dp841
g10
F0.69999999999999996
ssVcom.UCMobile
p842
(dp843
g10
F4.5999999999999996
ssg79
(dp844
g10
F0.40000000000000002
ssVcom.android.launcher
p845
(dp846
g10
F33.699999999999996
ssVcom.android.camera
p847
(dp848
g10
F0.90000000000000002
ssVcom.miui.gallery
p849
(dp850
g10
F1.7
ssVcom.tencent.mm
p851
(dp852
g10
F4.9000000000000004
sssg77
(dp853
Vcom.kingroot.kinguser
p854
(dp855
g10
F6.4000000000000004
ssVcn.wps.moffice_eng
p856
(dp857
g10
F1.3999999999999999
ssVcom.android.settings
p858
(dp859
g10
F2.5
ssVcom.youku.phone
p860
(dp861
g10
F0.40000000000000002
ssVcom.android.launcher
p862
(dp863
g10
F22.599999999999998
ssVcom.miui.gallery
p864
(dp865
g10
F2.7000000000000002
ssVcom.tencent.mm
p866
(dp867
g10
F2.1000000000000001
ssg29
(dp868
g10
F0.40000000000000002
ssVcom.tencent.mobileqq
p869
(dp870
g10
F12.700000000000001
sssg79
(dp871
Vcom.tencent.mm
p872
(dp873
g10
F0.40000000000000002
ssVcom.tencent.mobileqq
p874
(dp875
g10
F0.90000000000000002
ssVcom.android.launcher
p876
(dp877
g10
F1.7
sssg81
(dp878
Vcom.kingroot.kinguser
p879
(dp880
g10
F62.600000000000009
ssVcom.miui.notes
p881
(dp882
g10
F0.90000000000000002
ssVcom.youku.phone
p883
(dp884
g10
F1.3999999999999999
ssVcom.netease.mobimail
p885
(dp886
g10
F1.3
ssVcom.android.browser
p887
(dp888
g10
F1.7
ssVcom.tencent.mm
p889
(dp890
g10
F10.400000000000002
ssVcom.android.mms
p891
(dp892
g10
F4.2999999999999998
ssVcom.taobao.taobao
p893
(dp894
g10
F2.7000000000000002
ssVcom.UCMobile
p895
(dp896
g10
F2.3999999999999999
ssVcom.android.launcher
p897
(dp898
g10
F71.400000000000034
ssVcom.android.settings
p899
(dp900
g10
F0.69999999999999996
ssVcom.android.fileexplorer
p901
(dp902
g10
F0.69999999999999996
ssVcom.miui.gallery
p903
(dp904
g10
F1.3999999999999999
ssVcom.tencent.mobileqq
p905
(dp906
g10
F17.100000000000001
sssg83
(dp907
Vcom.tencent.mobileqq
p908
(dp909
g10
F1.3999999999999999
ssVcom.tencent.mm
p910
(dp911
g10
F3.2000000000000002
ssVcom.youku.phone
p912
(dp913
g10
F1.3
ssVcom.android.launcher
p914
(dp915
g10
F6.1000000000000005
ssg169
(dp916
g10
F0.69999999999999996
sssg85
(dp917
Vcom.android.browser
p918
(dp919
g10
F5.5000000000000009
ssVcom.moji.mjweather
p920
(dp921
g10
F17.000000000000004
ssVcom.youku.phone
p922
(dp923
g10
F82.000000000000028
ssg260
(dp924
g10
F20.399999999999995
ssg21
(dp925
g10
F9.9000000000000004
ssVcom.UCMobile
p926
(dp927
g10
F323.59999999999911
ssg677
(dp928
g10
F96.200000000000102
ssVcom.android.launcher
p929
(dp930
g10
F1630.6000000000211
ssVcom.eg.android.AlipayGphone
p931
(dp932
g10
F21.999999999999993
ssVcom.youdao.dict
p933
(dp934
g10
F1.8999999999999999
ssVcom.zhihu.android
p935
(dp936
g10
F5.5999999999999996
ssg35
(dp937
g10
F1.3
ssg37
(dp938
g10
F6.5
ssg177
(dp939
g10
F0.69999999999999996
ssg13
(dp940
g10
F41
ssVcom.taobao.taobao
p941
(dp942
g10
F63.800000000000018
ssVcom.android.phone
p943
(dp944
g10
F83.800000000000026
ssVcom.miui.gallery
p945
(dp946
g10
F4.9000000000000004
ssg57
(dp947
g10
F934.79999999999802
ssg59
(dp948
g10
F3.4000000000000004
ssg65
(dp949
g10
F17.300000000000001
ssg67
(dp950
g10
F3.7999999999999998
ssVcom.android.calculator
p951
(dp952
g10
F3.9999999999999996
ssg73
(dp953
g10
F4.5999999999999996
ssg374
(dp954
g10
F26.199999999999999
ssg330
(dp955
g10
F9.5000000000000018
ssg107
(dp956
g10
F2.6000000000000001
ssVcom.happyelements.AndroidAnimal
p957
(dp958
g10
F2.6000000000000001
ssg707
(dp959
g10
F682.59999999999968
ssVcom.miui.notes
p960
(dp961
g10
F6.3000000000000007
ssg91
(dp962
g10
F5.4000000000000004
ssVcom.android.settings
p963
(dp964
g10
F39.799999999999997
ssVcom.android.mms
p965
(dp966
g10
F132.10000000000025
ssg388
(dp967
g10
F0.90000000000000002
ssVcom.miui.networkassistant
p968
(dp969
g10
F4.4000000000000004
ssg105
(dp970
g10
F1.3
ssVcom.android.camera
p971
(dp972
g10
F25.899999999999995
ssg396
(dp973
g10
F4.9000000000000004
sssg87
(dp974
g887
(dp975
g10
F6.5000000000000009
ssg743
(dp976
g10
F0.69999999999999996
ssVcom.sankuai.meituan
p977
(dp978
g10
F4.4000000000000004
ssVcom.youku.phone
p979
(dp980
g10
F19.899999999999999
ssVcom.android.updater
p981
(dp982
g10
F0.90000000000000002
ssg19
(dp983
g10
F1.8999999999999999
ssVcom.android.deskclock
p984
(dp985
g10
F8.9000000000000004
ssVcom.UCMobile
p986
(dp987
g10
F54.700000000000003
ssVcom.hunantv.imgo.activity
p988
(dp989
g10
F1.8999999999999999
ssg65
(dp990
g10
F7
ssVcom.eg.android.AlipayGphone
p991
(dp992
g10
F11.799999999999999
ssg933
(dp993
g10
F0.69999999999999996
ssVcom.zhihu.android
p994
(dp995
g10
I2
ssg227
(dp996
g10
F0.69999999999999996
ssg127
(dp997
g10
F3.2999999999999998
ssg45
(dp998
g10
F4
ssVcom.taobao.taobao
p999
(dp1000
g10
F13.9
ssVcom.android.calculator
p1001
(dp1002
g10
I2
ssVme.ele
p1003
(dp1004
g10
F4.4000000000000004
ssg53
(dp1005
g10
F38.899999999999991
ssVcom.xindaoapp.miaodaiepay
p1006
(dp1007
g10
I1
ssVcom.tencent.mm
p1008
(dp1009
g10
F214.79999999999998
ssVcom.miui.antispam
p1010
(dp1011
g10
F2.7000000000000002
ssVcom.sankuai.meituan.takeoutnew
p1012
(dp1013
g10
I1
ssVcom.tencent.androidqqmail
p1014
(dp1015
g10
F1.7
ssg69
(dp1016
g10
F1.7
ssg700
(dp1017
g10
F2.5
ssVcom.yipiao
p1018
(dp1019
g10
F3.6000000000000001
ssVcom.android.fileexplorer
p1020
(dp1021
g10
F4.7999999999999998
ssg107
(dp1022
g10
F0.69999999999999996
ssg957
(dp1023
g10
F0.69999999999999996
ssVcom.tencent.mobileqq
p1024
(dp1025
g10
F267.19999999999999
ssg864
(dp1026
g10
F1.3
ssg960
(dp1027
g10
F5.5
ssVcom.android.calendar
p1028
(dp1029
g10
I2
ssVcom.android.settings
p1030
(dp1031
g10
F24.999999999999993
ssVcom.android.mms
p1032
(dp1033
g10
F73.800000000000011
ssg99
(dp1034
g10
F1.8999999999999999
ssg101
(dp1035
g10
F0.69999999999999996
ssVcom.android.launcher
p1036
(dp1037
g10
F425.19999999999703
ssVcom.android.camera
p1038
(dp1039
g10
F18.699999999999999
ssg396
(dp1040
g10
F2.6000000000000001
ssVcom.chinatelecom.bestpayclient
p1041
(dp1042
g10
F8
sssg89
(dp1043
Vcom.kingroot.kinguser
p1044
(dp1045
g10
F14.700000000000001
ssVcom.android.browser
p1046
(dp1047
g10
F0.40000000000000002
ssVcom.tencent.mobileqq
p1048
(dp1049
g10
F4.9000000000000004
ssVcom.android.mms
p1050
(dp1051
g10
F2.7999999999999998
ssVcom.UCMobile
p1052
(dp1053
g10
F10.800000000000002
ssVcom.android.launcher
p1054
(dp1055
g10
F38.999999999999993
ssVcom.android.phone
p1056
(dp1057
g10
I1
ssg281
(dp1058
g10
F0.40000000000000002
ssVcom.tencent.mm
p1059
(dp1060
g10
F1.7000000000000002
sssg91
(dp1061
Vcom.kingroot.kinguser
p1062
(dp1063
g10
F8.9000000000000021
ssVcom.tencent.mobileqq
p1064
(dp1065
g10
F2.2000000000000002
ssg926
(dp1066
g10
F1.3
ssVcom.android.launcher
p1067
(dp1068
g10
F15.1
ssVcom.android.phone
p1069
(dp1070
g10
I1
ssVcom.tencent.mm
p1071
(dp1072
g10
F2.7000000000000002
ssg681
(dp1073
g10
F0.40000000000000002
sssg93
(dp1074
g87
(dp1075
g10
F23.999999999999996
ssg89
(dp1076
g10
F0.90000000000000002
ssg616
(dp1077
g10
F1.8
ssg1052
(dp1078
g10
F18.199999999999999
ssg99
(dp1079
g10
F16.199999999999999
ssVcom.tencent.mobileqq
p1080
(dp1081
g10
F26.79999999999999
ssVcom.android.packageinstaller
p1082
(dp1083
g10
I1
ssg45
(dp1084
g10
F0.69999999999999996
ssVcom.android.mms
p1085
(dp1086
g10
F1.1000000000000001
ssVcom.android.deskclock
p1087
(dp1088
g10
I1
ssg295
(dp1089
g10
F2.7000000000000002
ssVcom.zhihu.android
p1090
(dp1091
g10
F1.1000000000000001
ssg1036
(dp1092
g10
F105.10000000000007
ssVcom.android.phone
p1093
(dp1094
g10
F9.6000000000000014
ssg41
(dp1095
g10
F1.3
ssVcom.innorz.venus
p1096
(dp1097
g10
F0.90000000000000002
ssVcom.tencent.mm
p1098
(dp1099
g10
F16.600000000000001
ssg628
(dp1100
g10
I1
ssg29
(dp1101
g10
F4.5999999999999996
ssg860
(dp1102
g10
F7.9000000000000004
sssg95
(dp1103
Vcom.android.browser
p1104
(dp1105
g10
F4.7999999999999998
ssVcom.bestpay.creditcard
p1106
(dp1107
g10
F1.3
ssVcom.moji.mjweather
p1108
(dp1109
g10
F1.3
ssVcom.android.launcher
p1110
(dp1111
g10
F248.00000000000006
ssVcom.comingx.athit
p1112
(dp1113
g10
I1
ssVcom.android.deskclock
p1114
(dp1115
g10
F4.0999999999999996
ssVcom.UCMobile
p1116
(dp1117
g10
F28.899999999999988
ssVcom.netease.mobimail
p1118
(dp1119
g10
F3.1999999999999997
ssg931
(dp1120
g10
F8.6999999999999993
ssVcom.youku.phone
p1121
(dp1122
g10
I1
ssg269
(dp1123
g10
F0.40000000000000002
ssVcom.android.packageinstaller
p1124
(dp1125
g10
F2.1000000000000001
ssVcom.sankuai.meituan
p1126
(dp1127
g10
F2.8999999999999999
ssVcom.taobao.taobao
p1128
(dp1129
g10
F0.69999999999999996
ssVcom.android.phone
p1130
(dp1131
g10
F13.5
ssVcom.tencent.mm
p1132
(dp1133
g10
F29.699999999999989
ssVcom.miui.antispam
p1134
(dp1135
g10
I1
ssVcom.baidu.input
p1136
(dp1137
g10
F0.90000000000000002
ssVcom.tencent.mobileqq
p1138
(dp1139
g10
F104.30000000000014
ssg87
(dp1140
g10
F160.60000000000014
ssVcom.miui.notes
p1141
(dp1142
g10
F1.1000000000000001
ssVcom.miui.networkassistant
p1143
(dp1144
g10
I1
ssg93
(dp1145
g10
F7.1000000000000005
ssg388
(dp1146
g10
I1
ssVcom.android.calendar
p1147
(dp1148
g10
F1.8999999999999999
ssg103
(dp1149
g10
F0.90000000000000002
ssg81
(dp1150
g10
F3.7000000000000002
ssVcom.chinatelecom.bestpayclient
p1151
(dp1152
g10
F6.1000000000000005
sssg97
(dp1153
Vcom.UCMobile
p1154
(dp1155
g10
F1.7
ssVcom.android.mms
p1156
(dp1157
g10
I1
ssVcom.android.launcher
p1158
(dp1159
g10
F1.3
sssg99
(dp1160
Vcom.kingroot.kinguser
p1161
(dp1162
g10
F6.5999999999999996
ssg443
(dp1163
g10
F0.40000000000000002
ssVcom.zhihu.android
p1164
(dp1165
g10
F0.90000000000000002
ssVcom.android.settings
p1166
(dp1167
g10
F4.7000000000000002
ssg981
(dp1168
g10
F0.40000000000000002
ssg45
(dp1169
g10
F0.90000000000000002
ssVcom.UCMobile
p1170
(dp1171
g10
F0.69999999999999996
ssg988
(dp1172
g10
F0.40000000000000002
ssg1036
(dp1173
g10
F20.099999999999998
ssVcom.android.phone
p1174
(dp1175
g10
F2
ssVcom.tencent.mobileqq
p1176
(dp1177
g10
F1.6000000000000001
ssg738
(dp1178
g10
F0.90000000000000002
sssg101
(dp1179
Vcom.zhihu.android
p1180
(dp1181
g10
F1.3
ssVcom.tencent.mobileqq
p1182
(dp1183
g10
F0.40000000000000002
ssVcom.android.launcher
p1184
(dp1185
g10
F3.4000000000000004
sssg103
(dp1186
sg105
(dp1187
Vcom.android.launcher
p1188
(dp1189
g10
I1
sssg107
(dp1190
Vcom.miui.notes
p1191
(dp1192
g10
F0.40000000000000002
ssVcom.android.browser
p1193
(dp1194
g10
I1
ssVcom.tencent.mm
p1195
(dp1196
g10
F0.40000000000000002
ssVcom.tencent.mobileqq
p1197
(dp1198
g10
F3.1999999999999997
ssVcom.android.launcher
p1199
(dp1200
g10
F5
sssg109
(dp1201
Vcom.kingroot.kinguser
p1202
(dp1203
g10
F2.8999999999999999
ssVcom.sankuai.meituan
p1204
(dp1205
g10
F0.90000000000000002
ssg525
(dp1206
g10
F2.7000000000000002
ssVcom.android.launcher
p1207
(dp1208
g10
F6.6000000000000005
ssVcom.android.settings
p1209
(dp1210
g10
I1
sssg111
(dp1211
Vcom.kingroot.kinguser
p1212
(dp1213
g10
F13.300000000000001
ssg11
(dp1214
g10
F3.7000000000000002
ssg1124
(dp1215
g10
F11.199999999999999
ssVcom.android.mms
p1216
(dp1217
g10
F9.5
ssg145
(dp1218
g10
F3.4000000000000004
ssVcom.tencent.mobileqq
p1219
(dp1220
g10
F0.40000000000000002
ssg39
(dp1221
g10
F3.3999999999999999
ssssS'edge'
p1222
g117
sS'graph'
p1223
(dp1224
sS'adjlist_dict_factory'
p1225
g114
sS'adj'
p1226
g117
sS'pred'
p1227
(dp1228
g8
(dp1229
Vcom.kingroot.kinguser
p1230
g975
sg121
g1047
sg912
g170
sVcom.netease.mobimail
p1231
g766
sVcom.tencent.mobileqq
p1232
g919
sVcom.comingx.athit
p1233
g207
sg1050
g1105
sg131
g255
sVcom.android.launcher
p1234
g341
sVcom.miui.yellowpage
p1235
g1194
sVcom.happyelements.AndroidAnimal
p1236
g916
sg194
g888
sVcom.tencent.mm
p1237
g667
ssg11
(dp1238
g741
g976
sVcom.android.mms
p1239
g1107
sVcom.chinatelecom.bestpayclient
p1240
g1214
sg61
g744
ssg13
(dp1241
g150
g978
sVcom.tencent.mm
p1242
g668
sVcom.android.mms
p1243
g1127
sVcom.taobao.taobao
p1244
g559
sVcom.UCMobile
p1245
g275
sVcom.android.launcher
p1246
g342
sVcom.android.phone
p1247
g607
sg396
g1205
sVcom.tencent.mobileqq
p1248
g940
sVcom.miui.antispam
p1249
g725
ssg15
(dp1250
Vcom.UCMobile
p1251
g268
sVcom.kingroot.kinguser
p1252
g980
sVcom.yipiao
p1253
g832
sVcom.netease.mobimail
p1254
g764
sg67
g796
sg175
g923
sg177
g506
sVcom.android.mms
p1255
g1122
sVcom.taobao.taobao
p1256
g561
sVcom.android.deskclock
p1257
g242
sVcom.android.fileexplorer
p1258
g861
sVcom.hunantv.imgo.activity
p1259
g319
sVcom.android.launcher
p1260
g344
sVcom.android.phone
p1261
g609
sVcom.happyelements.AndroidAnimal
p1262
g913
sVcom.android.camera
p1263
g884
sVcom.miui.gallery
p1264
g653
sVcom.tencent.mm
p1265
g670
sg336
g1102
ssg17
(dp1266
Vcom.miui.networkassistant
p1267
g1168
sVcom.kingroot.kinguser
p1268
g982
sVcom.tencent.mm
p1269
g671
sVcom.android.launcher
p1270
g345
ssg19
(dp1271
g502
g983
sVcom.android.calculator
p1272
g589
sVcom.tencent.mm
p1273
g673
sVcom.android.packageinstaller
p1274
g510
sVcom.android.mms
p1275
g1113
sVcom.UCMobile
p1276
g261
sVcom.android.launcher
p1277
g346
sVcom.tencent.mobileqq
p1278
g924
ssg21
(dp1279
Vcom.kingroot.kinguser
p1280
g985
sVcom.comingx.athit
p1281
g215
sVcom.youku.phone
p1282
g186
sVcom.netease.mobimail
p1283
g776
sg247
g1088
sVcom.tencent.mm
p1284
g675
sVcom.android.mms
p1285
g1115
sVcom.UCMobile
p1286
g262
sVcom.android.launcher
p1287
g347
sVcom.android.phone
p1288
g611
sVcom.tencent.mobileqq
p1289
g925
sVcom.eg.android.AlipayGphone
p1290
g414
ssg23
(dp1291
Vcom.android.browser
p1292
g132
sVcom.youku.phone
p1293
g188
sVcom.android.deskclock
p1294
g244
sVcom.hunantv.imgo.activity
p1295
g321
sVcom.netease.mobimail
p1296
g778
sVcom.eg.android.AlipayGphone
p1297
g416
sVcom.youdao.dict
p1298
g431
sVcom.zhihu.android
p1299
g454
sg37
g482
sg41
g500
sg43
g513
sg274
g157
sVcom.taobao.taobao
p1300
g568
sVcom.android.phone
p1301
g613
sVcom.tencent.mm
p1302
g676
sg59
g731
sVcom.sankuai.meituan.takeoutnew
p1303
g749
sg288
g591
sg291
g818
sVcom.yipiao
p1304
g843
sg300
g987
sg89
g1053
sg710
g1066
sg1064
g927
sVcom.android.mms
p1305
g1117
sg97
g1155
sVcom.miui.networkassistant
p1306
g1171
sVcom.android.launcher
p1307
g349
sVcom.android.settings
p1308
g1078
sVcom.android.camera
p1309
g896
ssg25
(dp1310
Vcom.kingroot.kinguser
p1311
g989
sVcom.youku.phone
p1312
g190
sVcom.miui.networkassistant
p1313
g1172
sVcom.tencent.mm
p1314
g678
sg326
g820
sVcom.android.launcher
p1315
g351
sVcom.android.phone
p1316
g615
sVcom.tencent.mobileqq
p1317
g928
sVcom.eg.android.AlipayGphone
p1318
g417
ssg27
(dp1319
g8
g134
sg11
g146
sVcom.sankuai.meituan
p1320
g159
sg15
g191
sg19
g219
sVcom.android.deskclock
p1321
g246
sg23
g264
sg25
g335
sg1254
g780
sg29
g419
sVcom.youdao.dict
p1322
g433
sg33
g456
sg35
g471
sg856
g484
sg43
g518
sg45
g545
sg1300
g570
sg49
g593
sVme.ele
p1323
g604
sg943
g646
sg55
g661
sg366
g680
sg368
g733
sg1303
g755
sg67
g798
sg69
g803
sVcom.baidu.lbs.waimai
p1324
g808
sg73
g822
sVcom.yipiao
p1325
g846
sg77
g863
sVcom.tuniu.app.ui
p1326
g877
sVcom.miui.yellowpage
p1327
g1200
sg83
g915
sg85
g930
sg87
g1037
sg89
g1055
sg710
g1068
sg93
g1092
sg95
g1111
sg97
g1159
sg99
g1173
sg101
g1185
sg105
g1189
sVcom.android.camera
p1328
g898
sVcom.innorz.venus
p1329
g1208
sg1240
g1218
ssg29
(dp1330
Vcom.youku.phone
p1331
g199
sVcom.kingroot.kinguser
p1332
g992
sg71
g809
sg620
g469
sg721
g1178
sVcom.UCMobile
p1333
g266
sg833
g1073
sg858
g1101
sVcom.android.packageinstaller
p1334
g509
sVcom.sankuai.meituan
p1335
g167
sVcom.android.mms
p1336
g1120
sg630
g827
sVcom.taobao.taobao
p1337
g578
sg295
g868
sVcom.android.launcher
p1338
g353
sVcom.android.phone
p1339
g619
sVcom.android.calculator
p1340
g599
sg1071
g682
sg628
g739
sVcom.tencent.mobileqq
p1341
g932
ssg31
(dp1342
Vcom.android.deskclock
p1343
g252
sVcom.UCMobile
p1344
g259
sVcom.tencent.mobileqq
p1345
g934
sVcom.android.launcher
p1346
g370
sVcom.kingroot.kinguser
p1347
g993
ssg33
(dp1348
Vcom.kingroot.kinguser
p1349
g995
sVcom.miui.networkassistant
p1350
g1165
sg1166
g1091
sVcom.tencent.mm
p1351
g683
sg1305
g1123
sg1116
g270
sg101
g1181
sVcom.android.launcher
p1352
g356
sVcom.tencent.mobileqq
p1353
g936
ssg35
(dp1354
Vcom.kingroot.kinguser
p1355
g996
sVcom.tencent.mobileqq
p1356
g937
sVcom.android.deskclock
p1357
g228
sVcom.android.launcher
p1358
g357
sVcom.android.phone
p1359
g621
sVcom.tencent.mm
p1360
g684
ssg37
(dp1361
g777
g271
sVcom.tencent.mobileqq
p1362
g938
sVcom.netease.mobimail
p1363
g788
sVcom.android.launcher
p1364
g358
sg1020
g857
ssg39
(dp1365
g141
g521
sg398
g1221
sg145
g354
ssg41
(dp1366
Vcom.android.settings
p1367
g1095
sg1082
g519
sVcom.UCMobile
p1368
g272
ssg43
(dp1369
Vcom.kingroot.kinguser
p1370
g997
sg11
g142
sVcom.youku.phone
p1371
g178
sVcom.android.browser
p1372
g128
sVcom.tencent.mobileqq
p1373
g939
sVcom.moji.mjweather
p1374
g537
sg1216
g1125
sg409
g838
sVcom.UCMobile
p1375
g273
sVcom.android.launcher
p1376
g359
sg1367
g1083
sg1303
g753
sVcom.tencent.mm
p1377
g685
sg1151
g1215
sg39
g491
ssg45
(dp1378
g87
g998
sVcom.netease.mobimail
p1379
g772
sg99
g1169
sVcom.tencent.mm
p1380
g687
sVcom.android.phone
p1381
g623
sVcom.android.mms
p1382
g1109
sVcom.taobao.taobao
p1383
g565
sVcom.android.deskclock
p1384
g226
sVcom.UCMobile
p1385
g257
sVcom.yipiao
p1386
g840
sg1036
g360
sg1030
g1084
sVcom.tencent.mobileqq
p1387
g921
ssg47
(dp1388
Vcom.zhihu.android
p1389
g452
sVcom.youku.phone
p1390
g184
sVcom.kingroot.kinguser
p1391
g1000
sVcom.tencent.mm
p1392
g688
sVcom.moji.mjweather
p1393
g541
sVcom.android.mms
p1394
g1129
sVcom.UCMobile
p1395
g277
sVcom.hunantv.imgo.activity
p1396
g329
sVcom.android.launcher
p1397
g361
sVcom.android.phone
p1398
g625
sg734
g894
sVcom.tencent.mobileqq
p1399
g942
sVcom.miui.antispam
p1400
g729
sVcom.eg.android.AlipayGphone
p1401
g412
ssg49
(dp1402
Vcom.UCMobile
p1403
g289
sg586
g952
sVcom.netease.mobimail
p1404
g784
sVcom.android.launcher
p1405
g362
sVcom.kingroot.kinguser
p1406
g1002
ssg51
(dp1407
g748
g278
sg752
g514
sg601
g1004
ssg53
(dp1408
Vcom.youku.phone
p1409
g193
sVcom.kingroot.kinguser
p1410
g1005
sVcom.sankuai.meituan
p1411
g161
sVcom.miui.notes
p1412
g1057
sVcom.netease.mobimail
p1413
g782
sVcom.android.calendar
p1414
g1070
sVcom.tencent.mobileqq
p1415
g944
sVcom.moji.mjweather
p1416
g547
sVcom.android.mms
p1417
g1131
sg630
g824
sVcom.taobao.taobao
p1418
g572
sVcom.android.deskclock
p1419
g238
sVcom.UCMobile
p1420
g280
sVcom.miui.networkassistant
p1421
g1175
sVcom.android.launcher
p1422
g364
sVcom.android.settings
p1423
g1094
sVcom.tencent.mm
p1424
g690
sVcom.eg.android.AlipayGphone
p1425
g421
sVcom.youdao.dict
p1426
g435
ssg55
(dp1427
Vcom.kingroot.kinguser
p1428
g1026
sVcom.miui.notes
p1429
g1058
sg901
g865
sVcom.tencent.mm
p1430
g691
sVcom.yipiao
p1431
g850
sVcom.UCMobile
p1432
g282
sVcom.android.launcher
p1433
g365
sVcom.android.camera
p1434
g904
sVcom.tencent.mobileqq
p1435
g946
ssg57
(dp1436
Vcom.android.browser
p1437
g139
sg1320
g165
sVcom.youku.phone
p1438
g197
sVcom.comingx.athit
p1439
g211
sg1321
g250
sVcom.UCMobile
p1440
g284
sVcom.hunantv.imgo.activity
p1441
g339
sVcom.android.launcher
p1442
g367
sVcom.eg.android.AlipayGphone
p1443
g406
sg1322
g427
sg33
g458
sVcom.chinamworld.main
p1444
g465
sg127
g523
sVcom.moji.mjweather
p1445
g552
sVcom.taobao.taobao
p1446
g563
sg689
g627
sVcom.miui.gallery
p1447
g665
sVcom.tencent.mobileqq
p1448
g947
sg696
g770
sVcom.android.calculator
p1449
g597
sg73
g826
sVcom.yipiao
p1450
g852
sg330
g867
sg1326
g873
sg647
g1196
sg83
g911
sg707
g1009
sg89
g1060
sg833
g1072
sVcom.android.settings
p1451
g1099
sVcom.android.mms
p1452
g1133
sVcom.android.camera
p1453
g890
ssg59
(dp1454
g719
g1011
sVcom.android.settings
p1455
g1100
sVcom.tencent.mm
p1456
g695
sVcom.android.mms
p1457
g1135
sVcom.UCMobile
p1458
g285
sVcom.android.launcher
p1459
g369
sVcom.android.phone
p1460
g629
sVcom.tencent.mobileqq
p1461
g948
ssg61
(dp1462
g741
g1007
ssg63
(dp1463
g750
g1013
sg536
g516
sg1374
g550
ssg65
(dp1464
Vcom.UCMobile
p1465
g287
sVcom.kingroot.kinguser
p1466
g990
sVcom.moji.mjweather
p1467
g531
sVcom.youku.phone
p1468
g172
sg765
g124
sg1350
g1163
sg1423
g1077
sVcom.tencent.mm
p1469
g697
sVcom.android.mms
p1470
g1119
sg775
g230
sg1164
g444
sVcom.android.launcher
p1471
g352
sVcom.android.phone
p1472
g617
sVcom.android.camera
p1473
g886
sVcom.tencent.mobileqq
p1474
g949
sVcn.wps.moffice_eng
p1475
g476
ssg67
(dp1476
g1265
g698
sVcom.tencent.mobileqq
p1477
g950
sVcom.android.launcher
p1478
g371
sg792
g1015
ssg69
(dp1479
Vcom.kingroot.kinguser
p1480
g1016
sVcom.tencent.mm
p1481
g699
sVcom.android.launcher
p1482
g372
ssg71
(dp1483
Vcom.UCMobile
p1484
g290
sg1334
g504
ssg73
(dp1485
Vcom.kingroot.kinguser
p1486
g1017
sVcom.tencent.mobileqq
p1487
g953
sVcom.android.mms
p1488
g1137
sVcom.UCMobile
p1489
g292
sVcom.hunantv.imgo.activity
p1490
g327
sVcom.android.launcher
p1491
g373
sVcom.android.phone
p1492
g631
sVcom.tencent.mm
p1493
g701
ssg75
(dp1494
Vcom.kingroot.kinguser
p1495
g1019
sVcom.youku.phone
p1496
g182
sVcom.tencent.mm
p1497
g702
sg839
g543
sVcom.UCMobile
p1498
g294
sg988
g333
sVcom.android.launcher
p1499
g375
sg849
g657
sVcom.tencent.mobileqq
p1500
g954
sg681
g410
ssg77
(dp1501
Vcom.kingroot.kinguser
p1502
g1021
sg856
g478
sVcom.tencent.mobileqq
p1503
g955
sg672
g217
sVcom.android.deskclock
p1504
g232
sg512
g296
sVcom.hunantv.imgo.activity
p1505
g331
sg517
g376
sg306
g1089
sVcom.android.camera
p1506
g902
sg864
g659
sVcom.tencent.mm
p1507
g704
sVcom.eg.android.AlipayGphone
p1508
g404
ssg79
(dp1509
Vcom.UCMobile
p1510
g297
sg837
g515
sVcom.android.launcher
p1511
g377
sg409
g844
ssg81
(dp1512
g1230
g1039
sVcom.sankuai.meituan
p1513
g163
sVcom.youku.phone
p1514
g195
sVcom.tencent.mobileqq
p1515
g972
sVcom.moji.mjweather
p1516
g549
sVcom.android.mms
p1517
g1150
sVcom.taobao.taobao
p1518
g574
sVcom.UCMobile
p1519
g313
sVcom.yipiao
p1520
g848
sVcom.android.launcher
p1521
g378
sVcom.android.phone
p1522
g633
sVcom.miui.gallery
p1523
g663
sg426
g716
sg1400
g735
sg1322
g437
ssg83
(dp1524
Vcom.tencent.mobileqq
p1525
g958
sVcom.tencent.mm
p1526
g706
sg914
g380
sVcom.kingroot.kinguser
p1527
g1023
ssg85
(dp1528
g8
g126
sVcom.moji.mjweather
p1529
g535
sVcom.youku.phone
p1530
g176
sg1112
g221
sVcom.android.deskclock
p1531
g236
sVcom.UCMobile
p1532
g299
sg350
g323
sVcom.android.launcher
p1533
g381
sVcom.eg.android.AlipayGphone
p1534
g422
sVcom.youdao.dict
p1535
g439
sVcom.zhihu.android
p1536
g460
sg227
g467
sg856
g486
sg127
g526
sg13
g153
sg451
g576
sg689
g635
sg55
g655
sVcom.tencent.mm
p1537
g693
sg59
g737
sVcom.netease.mobimail
p1538
g786
sVcom.tencent.androidqqmail
p1539
g795
sVcom.android.calculator
p1540
g587
sg73
g814
sg374
g836
sg330
g870
sg1326
g875
sg1327
g1198
sg379
g909
sVcom.kingroot.kinguser
p1541
g1025
sg960
g1049
sg710
g1065
sVcom.android.settings
p1542
g1081
sVcom.android.mms
p1543
g1139
sg445
g1177
sg391
g1183
sVcom.android.camera
p1544
g906
sg109
g1206
sVcom.chinatelecom.bestpayclient
p1545
g1220
ssg87
(dp1546
g1437
g120
sVcom.sankuai.meituan
p1547
g151
sVcom.youku.phone
p1548
g174
sg19
g205
sg21
g224
sg23
g301
sVcom.hunantv.imgo.activity
p1549
g317
sg171
g760
sVcom.eg.android.AlipayGphone
p1550
g402
sg31
g425
sg33
g442
sVcn.wps.moffice_eng
p1551
g474
sg1274
g503
sVcom.moji.mjweather
p1552
g529
sg1300
g557
sVcom.android.calculator
p1553
g583
sg51
g602
sg53
g637
sVcom.miui.gallery
p1554
g651
sg57
g708
sVcom.miui.antispam
p1555
g720
sg61
g742
sg63
g751
sg1539
g793
sVcom.youdao.bigbang
p1556
g801
sg1324
g806
sg75
g830
sVcom.android.fileexplorer
p1557
g855
sVcom.TianYi
p1558
g489
sg1448
g959
sVcom.miui.notes
p1559
g1045
sg91
g1063
sg93
g1075
sg95
g1140
sVcom.miui.networkassistant
p1560
g1162
sg1110
g382
sg81
g880
sVcom.innorz.venus
p1561
g1203
sg111
g1213
ssg89
(dp1562
Vcom.kingroot.kinguser
p1563
g1027
sVcom.android.launcher
p1564
g383
sg254
g122
sg1308
g1076
sVcom.android.mms
p1565
g1142
sg291
g812
sVcom.UCMobile
p1566
g303
sVcom.netease.mobimail
p1567
g762
sVcom.android.camera
p1568
g882
sg136
g1192
sVcom.tencent.mm
p1569
g709
sVcom.tencent.mobileqq
p1570
g961
ssg91
(dp1571
g1062
g1029
sVcom.tencent.mobileqq
p1572
g962
sVcom.android.mms
p1573
g1148
sVcom.yipiao
p1574
g834
sg185
g234
sVcom.android.launcher
p1575
g390
sVcom.android.phone
p1576
g639
sVcom.tencent.mm
p1577
g711
ssg93
(dp1578
g1110
g385
sg19
g209
sVcom.android.deskclock
p1579
g248
sg1375
g307
sVcom.hunantv.imgo.activity
p1580
g337
sVcom.netease.mobimail
p1581
g790
sg267
g201
sVcom.zhihu.android
p1582
g448
sg41
g498
sg43
g508
sVcom.moji.mjweather
p1583
g554
sVcom.taobao.taobao
p1584
g580
sVcom.android.phone
p1585
g641
sVcom.tencent.mm
p1586
g713
sg628
g724
sVcom.sankuai.meituan.takeoutnew
p1587
g757
sg783
g595
sg295
g859
sg87
g1031
sg445
g1167
sVcom.tencent.mobileqq
p1588
g964
sg95
g1145
sg1309
g900
sVcom.innorz.venus
p1589
g1210
ssg95
(dp1590
g1104
g130
sg1106
g144
sg558
g155
sVcom.youku.phone
p1591
g180
sVcom.comingx.athit
p1592
g213
sVcom.android.deskclock
p1593
g240
sVcom.UCMobile
p1594
g309
sg988
g325
sVcom.android.launcher
p1595
g387
sVcom.eg.android.AlipayGphone
p1596
g408
sVcom.TianYi
p1597
g493
sVcom.zhihu.android
p1598
g450
sVcom.chinamworld.main
p1599
g463
sVcn.wps.moffice_eng
p1600
g480
sg490
g511
sg1108
g539
sg1244
g566
sg1130
g643
sg1138
g966
sg368
g727
sg1535
g429
sVcom.netease.mobimail
p1601
g774
sVcom.tencent.mm
p1602
g715
sg1136
g816
sg332
g841
sVcom.kingroot.kinguser
p1603
g1033
sVcom.miui.notes
p1604
g1051
sVcom.android.settings
p1605
g1086
sg388
g1157
sVcom.android.camera
p1606
g892
sVcom.chinatelecom.bestpayclient
p1607
g1217
ssg97
(dp1608
Vcom.UCMobile
p1609
g310
sVcom.tencent.mobileqq
p1610
g967
sVcom.android.mms
p1611
g1146
sVcom.android.launcher
p1612
g389
ssg99
(dp1613
g87
g1034
sg443
g768
sg1582
g446
sg783
g585
sg93
g1079
sg622
g533
sVcom.android.mms
p1614
g1144
sg895
g305
sg1110
g384
sg1381
g644
sVcom.tencent.mobileqq
p1615
g969
sg628
g722
ssg101
(dp1616
Vcom.UCMobile
p1617
g311
sVcom.android.packageinstaller
p1618
g507
sg1184
g392
sVcom.kingroot.kinguser
p1619
g1035
ssg103
(dp1620
Vcom.android.mms
p1621
g1149
sVcom.android.launcher
p1622
g393
ssg105
(dp1623
g8
g135
sg125
g970
sg133
g394
ssg107
(dp1624
Vcom.kingroot.kinguser
p1625
g1022
sVcom.android.phone
p1626
g648
sVcom.tencent.mobileqq
p1627
g956
sVcom.android.launcher
p1628
g395
sg1193
g137
ssg109
(dp1629
Vcom.kingroot.kinguser
p1630
g1040
sg1209
g1097
sg127
g520
sVcom.tencent.mm
p1631
g717
sVcom.android.launcher
p1632
g397
sVcom.tencent.mobileqq
p1633
g973
ssg111
(dp1634
g1212
g1042
sg11
g148
sVcom.android.packageinstaller
p1635
g524
sg1216
g1152
sVcom.UCMobile
p1636
g314
sg145
g399
sg61
g746
sg39
g495
sssb.