ccopy_reg
_reconstructor
p1
(cnetworkx.classes.digraph
DiGraph
p2
c__builtin__
object
p3
NtRp4
(dp5
S'node'
p6
(dp7
Vcom.android.browser
p8
(dp9
S'weight'
p10
F0.00048098830438965114
ssVcom.android.calendar
p11
(dp12
g10
F2.5315173915244799e-05
ssVcom.youku.phone
p13
(dp14
g10
F0.0043592729482051541
ssVcom.ea.game.pvz2_row
p15
(dp16
g10
F0.0039390410612120908
ssVcom.android.updater
p17
(dp18
g10
F0.0070047086223482356
ssVcom.miui.weather2
p19
(dp20
g10
F1.26575869576224e-05
ssVcom.qiyi.video
p21
(dp22
g10
F0.012819604070679965
ssVcom.evernote
p23
(dp24
g10
F9.3666143486405748e-05
ssVcom.xiaomi.smarthome
p25
(dp26
g10
F1.26575869576224e-05
ssVcom.UCMobile
p27
(dp28
g10
F0.0092172548225406305
ssVcom.duowan.mobile
p29
(dp30
g10
F0.00095185053921320443
ssVcom.taobao.taobao
p31
(dp32
g10
F0.012384183079337755
ssVcom.android.launcher
p33
(dp34
g10
F0.29297250772112804
ssVcn.kidstone.cartoon
p35
(dp36
g10
F0.015490354918738292
ssVcom.sina.weibo
p37
(dp38
g10
F0.0036605741481443976
ssVcom.eg.android.AlipayGphone
p39
(dp40
g10
F0.001503721330565541
ssVcom.anzogame.game
p41
(dp42
g10
F0.020006581945217965
ssVcom.gameloft.android.ANMP.GloftA8HM
p43
(dp44
g10
F0.0085337451268290218
ssVcn.wps.moffice_eng
p45
(dp46
g10
F0.00015442256088299327
ssVcom.alibaba.mobileim
p47
(dp48
g10
F0.0047997569743304137
ssVcom.android.packageinstaller
p49
(dp50
g10
F0.00066832059136246271
ssVcom.sankuai.meituan
p51
(dp52
g10
F0.00057718596526758138
ssVcom.tencent.token
p53
(dp54
g10
F0.015406814844817984
ssVcom.ximalaya.ting.android
p55
(dp56
g10
F0.0075768315528327683
ssVme.ele
p57
(dp58
g10
F0.0018302870740721988
ssVcom.xiaomi.shop
p59
(dp60
g10
F3.2909726089818234e-05
ssVcom.android.phone
p61
(dp62
g10
F0.02579616221963445
ssVcom.miui.gallery
p63
(dp64
g10
F0.00022783656523720319
ssVcom.tencent.mm
p65
(dp66
g10
F0.035570350868310466
ssVcom.miui.antispam
p67
(dp68
g10
F4.0504278264391676e-05
ssVtv.danmaku.bili
p69
(dp70
g10
F0.0024327882132550251
ssVcom.miui.mipub
p71
(dp72
g10
F7.5945521745734392e-06
ssVcom.tencent.news
p73
(dp74
g10
F0.054597235583008455
ssVcom.netease.cloudmusic
p75
(dp76
g10
F0.059488127183433749
ssVcom.android.calculator
p77
(dp78
g10
F0.0059110931092096605
ssVcom.baidu.input
p79
(dp80
g10
F5.0630347830489595e-06
ssVcom.cootek.smartdialer
p81
(dp82
g10
F0.00094425598703863091
ssVcom.android.fileexplorer
p83
(dp84
g10
F0.00011644980001012607
ssVcom.example.app_log_dhao
p85
(dp86
g10
F3.5441243481342715e-05
ssVcom.miui.yellowpage
p87
(dp88
g10
F2.0252139132195838e-05
ssVcom.chinamworld.main
p89
(dp90
g10
F8.8603108703356787e-05
ssVcom.android.email
p91
(dp92
g10
F0.045043288947395066
ssVcom.duokan.reader
p93
(dp94
g10
F0.002769480026327781
ssVcom.tencent.mobileqq
p95
(dp96
g10
F0.16419168649688623
ssVcom.miui.player
p97
(dp98
g10
F7.5945521745734392e-06
ssVcom.android.deskclock
p99
(dp100
g10
F0.064267632018631962
ssVcom.sankuai.meituan.takeoutnew
p101
(dp102
g10
F0.0013366411827249254
ssVcom.miui.notes
p103
(dp104
g10
F6.3287934788111994e-05
ssVcom.netease.mail
p105
(dp106
g10
F0.0010657688218318061
ssVcom.tuan800.tao800
p107
(dp108
g10
F0.047969723051997371
ssVcom.sinovatech.unicom.ui
p109
(dp110
g10
F0.0051465748569692674
ssVcom.android.settings
p111
(dp112
g10
F0.023882335071641943
ssVcom.tencent.android.qqdownloader
p113
(dp114
g10
F0.00023543111741177662
ssVcom.tencent.reading
p115
(dp116
g10
F0.020649587362665183
ssVcom.android.mms
p117
(dp118
g10
F0.0085438711963951187
ssVcom.miui.video
p119
(dp120
g10
F0.00034175484785580476
ssVcom.miui.securitycenter
p121
(dp122
g10
F5.5693382613538553e-05
ssVcom.qzone
p123
(dp124
g10
F4.8098830438965118e-05
ssVde.hs_osnabrueck.asta.sensorlog
p125
(dp126
g10
F4.8098830438965118e-05
ssVcom.android.camera
p127
(dp128
g10
F6.3287934788111994e-05
ssVcom.xiaoji.emulator
p129
(dp130
g10
F0.0044276239177763153
ssVcom.xiaomi.account
p131
(dp132
g10
F7.5945521745734392e-06
ssVcom.miui.networkassistant
p133
(dp134
g10
F3.7972760872867195e-05
sssS'node_dict_factory'
p135
c__builtin__
dict
p136
sS'edge_attr_dict_factory'
p137
g136
sS'succ'
p138
(dp139
g8
(dp140
Vcom.tencent.mobileqq
p141
(dp142
g10
F0.90000000000000002
ssVcom.android.launcher
p143
(dp144
g10
F1.7
sssg11
(dp145
Vcom.android.launcher
p146
(dp147
g10
I1
sssg13
(dp148
Vcom.tencent.mobileqq
p149
(dp150
g10
F2.2999999999999998
ssg49
(dp151
g10
F1.7
ssg21
(dp152
g10
F0.40000000000000002
ssVcom.UCMobile
p153
(dp154
g10
F0.90000000000000002
ssg29
(dp155
g10
F0.90000000000000002
ssVcom.android.launcher
p156
(dp157
g10
F6.2999999999999998
ssVcom.android.settings
p158
(dp159
g10
F1.3
ssVcn.kidstone.cartoon
p160
(dp161
g10
F0.40000000000000002
ssVcom.tencent.mm
p162
(dp163
g10
F0.69999999999999996
sssg15
(dp164
Vcom.android.browser
p165
(dp166
g10
I1
ssVcom.tencent.mobileqq
p167
(dp168
g10
F0.90000000000000002
ssVcom.android.launcher
p169
(dp170
g10
F2.7000000000000002
ssVcom.android.settings
p171
(dp172
g10
F0.40000000000000002
sssg17
(dp173
Vcom.tencent.reading
p174
(dp175
g10
I1
ssg77
(dp176
g10
F0.90000000000000002
ssVcom.android.settings
p177
(dp178
g10
F0.90000000000000002
ssVcom.android.mms
p179
(dp180
g10
F0.40000000000000002
ssVcom.android.launcher
p181
(dp182
g10
F6.1000000000000005
ssVcom.tencent.mobileqq
p183
(dp184
g10
F1.7000000000000002
ssVcom.sankuai.meituan.takeoutnew
p185
(dp186
g10
F0.90000000000000002
sssg19
(dp187
sg21
(dp188
g103
(dp189
g10
F0.40000000000000002
ssVcom.android.settings
p190
(dp191
g10
F1.8999999999999999
ssVcom.taobao.taobao
p192
(dp193
g10
F3.1000000000000001
ssVcom.android.launcher
p194
(dp195
g10
F14.199999999999999
ssVcom.android.phone
p196
(dp197
g10
F0.90000000000000002
ssVcom.tencent.mobileqq
p198
(dp199
g10
F4.5
ssg131
(dp200
g10
I1
sssg23
(dp201
Vcom.android.launcher
p202
(dp203
g10
I1
sssg25
(dp204
Vcom.android.launcher
p205
(dp206
g10
F0.90000000000000002
ssVcom.taobao.taobao
p207
(dp208
g10
I1
sssg27
(dp209
Vcom.sinovatech.unicom.ui
p210
(dp211
g10
F0.90000000000000002
ssVcom.android.settings
p212
(dp213
g10
F1.8999999999999999
ssg49
(dp214
g10
I1
ssVcom.android.mms
p215
(dp216
g10
F0.80000000000000004
ssg21
(dp217
g10
F1.3
ssVcom.android.deskclock
p218
(dp219
g10
F0.90000000000000002
ssVme.ele
p220
(dp221
g10
F0.90000000000000002
ssVcom.android.launcher
p222
(dp223
g10
F9.0999999999999996
ssVcom.tencent.mobileqq
p224
(dp225
g10
F1.8999999999999999
ssg131
(dp226
g10
F0.69999999999999996
sssg29
(dp227
Vcn.kidstone.cartoon
p228
(dp229
g10
I1
ssVcom.android.launcher
p230
(dp231
g10
I1
sssg31
(dp232
g103
(dp233
g10
F0.90000000000000002
ssVcom.tuan800.tao800
p234
(dp235
g10
F0.90000000000000002
ssVcom.android.settings
p236
(dp237
g10
F0.90000000000000002
ssVcom.tencent.reading
p238
(dp239
g10
F0.40000000000000002
ssVcom.qiyi.video
p240
(dp241
g10
F0.80000000000000004
ssg25
(dp242
g10
I1
ssVcom.tencent.token
p243
(dp244
g10
F0.90000000000000002
ssVcom.android.launcher
p245
(dp246
g10
F16.399999999999999
ssVcom.tencent.mobileqq
p247
(dp248
g10
F6.1000000000000005
sssg33
(dp249
Vcom.android.browser
p250
(dp251
g10
F2.2999999999999998
ssg11
(dp252
g10
I1
ssg13
(dp253
g10
F1.8999999999999999
ssg15
(dp254
g10
F2.7000000000000002
ssg101
(dp255
g10
F6.8000000000000007
ssg21
(dp256
g10
F7.7000000000000002
ssg23
(dp257
g10
I1
ssg218
(dp258
g10
F4.3000000000000007
ssg27
(dp259
g10
F8.4000000000000004
ssg29
(dp260
g10
F1.8999999999999999
ssg31
(dp261
g10
F14.300000000000001
ssg113
(dp262
g10
F3.4000000000000004
ssg35
(dp263
g10
F9.8000000000000007
ssVcom.eg.android.AlipayGphone
p264
(dp265
g10
F11.5
ssg41
(dp266
g10
F14.799999999999999
ssg89
(dp267
g10
F1.7
ssg45
(dp268
g10
F2.6000000000000001
ssg49
(dp269
g10
F4.0999999999999996
ssg53
(dp270
g10
F3.7000000000000002
ssg55
(dp271
g10
F0.40000000000000002
ssg57
(dp272
g10
F10.899999999999999
ssg59
(dp273
g10
I1
ssVcom.android.phone
p274
(dp275
g10
F12.200000000000003
ssg63
(dp276
g10
F4.4000000000000004
ssg162
(dp277
g10
F19.599999999999994
ssg67
(dp278
g10
F4.2999999999999998
ssg125
(dp279
g10
F1.3999999999999999
ssg71
(dp280
g10
F0.90000000000000002
ssVcom.gameloft.android.ANMP.GloftA8HM
p281
(dp282
g10
I1
ssg73
(dp283
g10
F13.5
ssVcom.netease.cloudmusic
p284
(dp285
g10
F17.799999999999997
ssg77
(dp286
g10
I4
ssg81
(dp287
g10
F13.5
ssg83
(dp288
g10
F2.7000000000000002
ssg85
(dp289
g10
F1.7
ssg127
(dp290
g10
F0.90000000000000002
ssg19
(dp291
g10
F1.7
ssg91
(dp292
g10
F4.7000000000000002
ssg93
(dp293
g10
F1.7
ssVcom.tencent.mobileqq
p294
(dp295
g10
F190.40000000000003
ssg103
(dp296
g10
F1.7
ssVcom.netease.mail
p297
(dp298
g10
F1.7
ssVcom.tuan800.tao800
p299
(dp300
g10
F7.7999999999999998
ssVcom.sinovatech.unicom.ui
p301
(dp302
g10
F6.1000000000000005
ssg177
(dp303
g10
F49.800000000000004
ssg115
(dp304
g10
F21.199999999999992
ssVcom.android.mms
p305
(dp306
g10
F24.499999999999993
ssg119
(dp307
g10
F1.8
ssVcom.miui.securitycenter
p308
(dp309
g10
I1
ssg123
(dp310
g10
I1
ssg87
(dp311
g10
F1.7
ssg129
(dp312
g10
I2
ssg131
(dp313
g10
F0.40000000000000002
ssVcom.miui.networkassistant
p314
(dp315
g10
F1.3
sssg35
(dp316
Vcom.anzogame.game
p317
(dp318
g10
F0.90000000000000002
ssg13
(dp319
g10
F0.69999999999999996
ssg115
(dp320
g10
F0.90000000000000002
ssVcom.android.packageinstaller
p321
(dp322
g10
F0.69999999999999996
ssVcom.duowan.mobile
p323
(dp324
g10
I1
ssVcom.android.launcher
p325
(dp326
g10
F12.200000000000001
ssVcom.xiaoji.emulator
p327
(dp328
g10
F0.90000000000000002
ssVcom.tencent.mobileqq
p329
(dp330
g10
F3.5
ssVcom.tencent.news
p331
(dp332
g10
F0.90000000000000002
sssg37
(dp333
g127
(dp334
g10
F0.69999999999999996
ssVcom.tencent.mobileqq
p335
(dp336
g10
F0.90000000000000002
ssVcom.android.launcher
p337
(dp338
g10
I1
sssg39
(dp339
Vcom.sinovatech.unicom.ui
p340
(dp341
g10
I1
ssg89
(dp342
g10
F0.90000000000000002
ssVme.ele
p343
(dp344
g10
I1
ssVcom.tencent.mobileqq
p345
(dp346
g10
F5.7000000000000002
ssVcom.android.launcher
p347
(dp348
g10
F10.699999999999999
sssg41
(dp349
g19
(dp350
g10
F0.40000000000000002
ssVcom.tencent.news
p351
(dp352
g10
F0.40000000000000002
ssVcom.tuan800.tao800
p353
(dp354
g10
F0.90000000000000002
ssVcom.tencent.reading
p355
(dp356
g10
F0.90000000000000002
ssg117
(dp357
g10
F1.7
ssVcom.tencent.token
p358
(dp359
g10
F0.90000000000000002
ssg99
(dp360
g10
I1
ssVcom.android.launcher
p361
(dp362
g10
F13.5
ssg61
(dp363
g10
F0.69999999999999996
ssVcom.tencent.mobileqq
p364
(dp365
g10
F8.3000000000000007
sssg43
(dp366
Vcom.android.settings
p367
(dp368
g10
F0.69999999999999996
ssg129
(dp369
g10
F0.90000000000000002
ssVcom.tencent.mobileqq
p370
(dp371
g10
F0.90000000000000002
ssVcom.android.launcher
p372
(dp373
g10
I4
sssg45
(dp374
Vcom.tencent.mm
p375
(dp376
g10
F0.90000000000000002
ssVme.ele
p377
(dp378
g10
F0.69999999999999996
ssVcom.tencent.mobileqq
p379
(dp380
g10
F0.90000000000000002
ssVcom.netease.mail
p381
(dp382
g10
I1
ssVcom.android.launcher
p383
(dp384
g10
F1.3999999999999999
sssg47
(dp385
Vcom.android.launcher
p386
(dp387
g10
I1
sssg49
(dp388
Vcom.tencent.android.qqdownloader
p389
(dp390
g10
I1
ssg21
(dp391
g10
F1.7
ssg55
(dp392
g10
F1.8
ssg194
(dp393
g10
F3.0999999999999996
ssVcom.miui.gallery
p394
(dp395
g10
F2.3999999999999999
ssVcom.tencent.mobileqq
p396
(dp397
g10
F1.3
ssg131
(dp398
g10
F0.90000000000000002
sssg51
(dp399
Vcom.android.settings
p400
(dp401
g10
I1
ssVcom.android.launcher
p402
(dp403
g10
F1.7
sssg53
(dp404
Vcom.android.email
p405
(dp406
g10
F0.90000000000000002
ssVcom.tencent.mobileqq
p407
(dp408
g10
F1.7
ssVcom.tencent.news
p409
(dp410
g10
I1
ssVcom.android.launcher
p411
(dp412
g10
F8.2000000000000011
sssg55
(dp413
Vcom.youku.phone
p414
(dp415
g10
F0.90000000000000002
ssVcom.android.settings
p416
(dp417
g10
F1.3999999999999999
ssVcom.android.packageinstaller
p418
(dp419
g10
F0.90000000000000002
ssg57
(dp420
g10
F1.3
ssVcom.android.launcher
p421
(dp422
g10
F4.0999999999999996
ssVcom.android.phone
p423
(dp424
g10
I1
ssg394
(dp425
g10
F2.7000000000000002
ssVcom.tencent.mobileqq
p426
(dp427
g10
F0.40000000000000002
sssg57
(dp428
Vcom.android.settings
p429
(dp430
g10
F1.8
ssVcom.android.mms
p431
(dp432
g10
F2.7999999999999998
ssVcom.eg.android.AlipayGphone
p433
(dp434
g10
I1
ssVcom.android.launcher
p435
(dp436
g10
F11.199999999999999
ssVcom.UCMobile
p437
(dp438
g10
F1.3
sssg59
(dp439
Vcom.android.launcher
p440
(dp441
g10
I1
sssg61
(dp442
Vcom.tencent.news
p443
(dp444
g10
I1
ssVcom.netease.cloudmusic
p445
(dp446
g10
I4
ssVcom.tencent.reading
p447
(dp448
g10
I1
ssVcom.android.settings
p449
(dp450
g10
F0.69999999999999996
ssg305
(dp451
g10
F0.90000000000000002
ssVcom.qiyi.video
p452
(dp453
g10
I1
ssVcom.cootek.smartdialer
p454
(dp455
g10
F8.8000000000000007
ssVcom.ximalaya.ting.android
p456
(dp457
g10
I1
ssg57
(dp458
g10
F0.69999999999999996
ssVcom.android.launcher
p459
(dp460
g10
F10.700000000000003
ssg87
(dp461
g10
F0.90000000000000002
ssg97
(dp462
g10
F0.90000000000000002
ssVcom.tencent.mobileqq
p463
(dp464
g10
F3
ssg93
(dp465
g10
F0.40000000000000002
sssg63
(dp466
g418
(dp467
g10
I1
ssVcom.miui.video
p468
(dp469
g10
I1
ssVcom.ximalaya.ting.android
p470
(dp471
g10
F1.7
ssVcom.android.launcher
p472
(dp473
g10
F2.2999999999999998
ssVcom.tencent.mobileqq
p474
(dp475
g10
F1.7
ssg125
(dp476
g10
F0.69999999999999996
sssg65
(dp477
Vcom.android.deskclock
p478
(dp479
g10
I1
ssVcom.anzogame.game
p480
(dp481
g10
F0.40000000000000002
ssVcom.netease.mail
p482
(dp483
g10
F2.2999999999999998
ssg234
(dp484
g10
F0.40000000000000002
ssVcom.android.settings
p485
(dp486
g10
I1
ssVcom.tencent.reading
p487
(dp488
g10
F0.90000000000000002
ssVcom.android.mms
p489
(dp490
g10
F1.6000000000000001
ssg79
(dp491
g10
F0.90000000000000002
ssVcom.taobao.taobao
p492
(dp493
g10
F1.3
ssg81
(dp494
g10
F1.3
ssg377
(dp495
g10
I1
ssVcom.android.launcher
p496
(dp497
g10
F34.79999999999999
ssVcom.tencent.mobileqq
p498
(dp499
g10
F14.700000000000003
ssVcn.wps.moffice_eng
p500
(dp501
g10
F0.69999999999999996
ssVcom.sankuai.meituan.takeoutnew
p502
(dp503
g10
F4.0999999999999996
sssg67
(dp504
Vcom.tencent.mobileqq
p505
(dp506
g10
F3.3999999999999999
ssVcom.android.mms
p507
(dp508
g10
F3.7000000000000002
ssVcom.tencent.news
p509
(dp510
g10
F1.7
ssVcom.android.launcher
p511
(dp512
g10
F4.1000000000000005
ssVcom.android.settings
p513
(dp514
g10
F1.3
sssg69
(dp515
Vcom.android.settings
p516
(dp517
g10
F0.90000000000000002
ssVcom.tencent.mobileqq
p518
(dp519
g10
F1.3
ssVcom.android.launcher
p520
(dp521
g10
F2.7000000000000002
sssg71
(dp522
sg73
(dp523
g8
(dp524
g10
I1
ssg299
(dp525
g10
F1.7000000000000002
ssVcom.android.settings
p526
(dp527
g10
F4.2999999999999998
ssg321
(dp528
g10
I1
ssVcom.android.mms
p529
(dp530
g10
F0.90000000000000002
ssVcom.taobao.taobao
p531
(dp532
g10
F0.40000000000000002
ssVcom.android.deskclock
p533
(dp534
g10
I1
ssVcom.android.launcher
p535
(dp536
g10
F23.399999999999995
ssVcom.android.phone
p537
(dp538
g10
I1
ssVcom.tencent.mobileqq
p539
(dp540
g10
F13.5
ssVcom.miui.antispam
p541
(dp542
g10
F1.7
sssg75
(dp543
g165
(dp544
g10
F0.69999999999999996
ssg281
(dp545
g10
F0.90000000000000002
ssVcom.tencent.reading
p546
(dp547
g10
F0.40000000000000002
ssVcom.android.settings
p548
(dp549
g10
F5.9000000000000004
ssVcom.tencent.mm
p550
(dp551
g10
F0.69999999999999996
ssg15
(dp552
g10
F0.90000000000000002
ssVcom.taobao.taobao
p553
(dp554
g10
F0.90000000000000002
ssVcom.android.deskclock
p555
(dp556
g10
I1
ssVcom.cootek.smartdialer
p557
(dp558
g10
F0.90000000000000002
ssg468
(dp559
g10
F0.69999999999999996
ssVcom.android.launcher
p560
(dp561
g10
F33.899999999999991
ssVcom.android.phone
p562
(dp563
g10
F0.69999999999999996
ssVcom.miui.gallery
p564
(dp565
g10
F1.3
ssVcom.tencent.mobileqq
p566
(dp567
g10
F20.5
ssVcom.duokan.reader
p568
(dp569
g10
I1
sssg77
(dp570
g301
(dp571
g10
F0.90000000000000002
ssg183
(dp572
g10
F1.8
ssVcom.android.launcher
p573
(dp574
g10
F6.4000000000000004
sssg79
(dp575
sg81
(dp576
Vcom.tencent.mm
p577
(dp578
g10
F0.40000000000000002
ssVcom.android.mms
p579
(dp580
g10
I1
ssVcom.android.launcher
p581
(dp582
g10
F8.5
ssVcom.android.phone
p583
(dp584
g10
F11.1
ssg97
(dp585
g10
I1
ssVcom.tencent.mobileqq
p586
(dp587
g10
F1.3
sssg83
(dp588
g379
(dp589
g10
F0.40000000000000002
ssg45
(dp590
g10
F0.90000000000000002
ssVcom.android.launcher
p591
(dp592
g10
F2.7000000000000002
sssg85
(dp593
sg87
(dp594
g93
(dp595
g10
F0.90000000000000002
ssVcom.android.launcher
p596
(dp597
g10
F1.7
ssVcom.android.phone
p598
(dp599
g10
F0.40000000000000002
sssg89
(dp600
Vcom.eg.android.AlipayGphone
p601
(dp602
g10
F0.90000000000000002
ssVcom.android.launcher
p603
(dp604
g10
I1
sssg91
(dp605
Vcom.android.deskclock
p606
(dp607
g10
I1
ssVcom.tencent.mobileqq
p608
(dp609
g10
F1.3
ssVcom.android.launcher
p610
(dp611
g10
F4.7000000000000002
sssg93
(dp612
Vcom.netease.cloudmusic
p613
(dp614
g10
I3
ssVcom.android.launcher
p615
(dp616
g10
F3.7000000000000002
ssg598
(dp617
g10
F0.90000000000000002
sssg95
(dp618
g13
(dp619
g10
I1
ssg15
(dp620
g10
F0.40000000000000002
ssg240
(dp621
g10
F2.2000000000000002
ssg218
(dp622
g10
F6.4000000000000004
ssg27
(dp623
g10
F2.7000000000000002
ssVcom.duowan.mobile
p624
(dp625
g10
I1
ssVcom.tencent.token
p626
(dp627
g10
I1
ssg33
(dp628
g10
F214.69999999999993
ssg35
(dp629
g10
F4
ssg264
(dp630
g10
F4.2999999999999998
ssg41
(dp631
g10
F12.900000000000002
ssg45
(dp632
g10
F0.40000000000000002
ssg531
(dp633
g10
F5.2000000000000002
ssg61
(dp634
g10
F2.3999999999999999
ssg162
(dp635
g10
F15.800000000000002
ssg67
(dp636
g10
F2.3999999999999999
ssg125
(dp637
g10
F1.8999999999999999
ssg71
(dp638
g10
I1
ssg73
(dp639
g10
F9.9000000000000021
ssVcom.netease.cloudmusic
p640
(dp641
g10
F19.099999999999998
ssg79
(dp642
g10
I1
ssg83
(dp643
g10
F1.3
ssg85
(dp644
g10
F0.90000000000000002
ssg91
(dp645
g10
F1.8
ssg299
(dp646
g10
F2.5
ssg133
(dp647
g10
F2.7000000000000002
ssVcom.android.settings
p648
(dp649
g10
F11.100000000000001
ssg113
(dp650
g10
F1.3
ssVcom.tencent.reading
p651
(dp652
g10
F13
ssg117
(dp653
g10
F6.7000000000000011
ssg119
(dp654
g10
I1
ssg11
(dp655
g10
F0.90000000000000002
ssg127
(dp656
g10
F4.7000000000000002
sssg97
(dp657
Vcom.cootek.smartdialer
p658
(dp659
g10
I1
ssg586
(dp660
g10
F0.69999999999999996
ssVcom.android.launcher
p661
(dp662
g10
F1.3
sssg99
(dp663
Vcom.tencent.news
p664
(dp665
g10
F0.40000000000000002
ssVcom.tuan800.tao800
p666
(dp667
g10
I1
ssVcom.android.settings
p668
(dp669
g10
F0.90000000000000002
ssVcom.tencent.reading
p670
(dp671
g10
F2.2999999999999998
ssg308
(dp672
g10
F0.90000000000000002
ssVcom.android.launcher
p673
(dp674
g10
F14.999999999999998
ssVcom.android.phone
p675
(dp676
g10
I1
ssVcom.android.email
p677
(dp678
g10
I1
ssg608
(dp679
g10
F8
sssg101
(dp680
g179
(dp681
g10
F0.90000000000000002
ssVcom.tencent.mm
p682
(dp683
g10
F7.1000000000000005
ssVcom.tencent.mobileqq
p684
(dp685
g10
F1.8
ssVcom.android.launcher
p686
(dp687
g10
F5
sssg103
(dp688
Vcom.qiyi.video
p689
(dp690
g10
F0.90000000000000002
ssVcom.android.launcher
p691
(dp692
g10
F1.7
ssVcom.taobao.taobao
p693
(dp694
g10
F0.40000000000000002
sssg105
(dp695
g500
(dp696
g10
I1
ssVcom.tencent.mobileqq
p697
(dp698
g10
F2.3999999999999999
ssVcom.UCMobile
p699
(dp700
g10
I1
ssg377
(dp701
g10
F1.3
ssVcom.android.launcher
p702
(dp703
g10
F2.9000000000000004
ssVcom.tencent.mm
p704
(dp705
g10
F2.7000000000000002
sssg107
(dp706
Vcom.android.deskclock
p707
(dp708
g10
I1
ssg27
(dp709
g10
F0.40000000000000002
ssVcom.tencent.mobileqq
p710
(dp711
g10
F2.2000000000000002
ssg351
(dp712
g10
F0.90000000000000002
ssVcom.android.launcher
p713
(dp714
g10
F8.1000000000000014
sssg109
(dp715
Vcom.android.calculator
p716
(dp717
g10
F0.90000000000000002
ssVcom.android.settings
p718
(dp719
g10
F0.90000000000000002
ssVcom.android.mms
p720
(dp721
g10
F2.6000000000000001
ssg59
(dp722
g10
F0.90000000000000002
ssVcom.android.launcher
p723
(dp724
g10
F11.899999999999999
ssg345
(dp725
g10
F1.3
ssg39
(dp726
g10
I1
sssg111
(dp727
Vcom.UCMobile
p728
(dp729
g10
I1
ssVcom.anzogame.game
p730
(dp731
g10
F0.80000000000000004
ssg89
(dp732
g10
F0.40000000000000002
ssVcom.tencent.news
p733
(dp734
g10
F1.3999999999999999
ssVcom.netease.cloudmusic
p735
(dp736
g10
F0.90000000000000002
ssVcom.tencent.reading
p737
(dp738
g10
I3
ssVcom.sinovatech.unicom.ui
p739
(dp740
g10
F1.3
ssVcom.sankuai.meituan
p741
(dp742
g10
I1
ssVcom.android.mms
p743
(dp744
g10
F1.3999999999999999
ssVcom.qiyi.video
p745
(dp746
g10
F0.90000000000000002
ssVcom.android.calculator
p747
(dp748
g10
F0.90000000000000002
ssVme.ele
p749
(dp750
g10
F2.2000000000000002
ssVcom.taobao.taobao
p751
(dp752
g10
F0.90000000000000002
ssVcom.android.launcher
p753
(dp754
g10
F56.300000000000004
ssVcn.kidstone.cartoon
p755
(dp756
g10
F0.90000000000000002
ssVcom.tencent.mobileqq
p757
(dp758
g10
F15.800000000000002
ssVcom.eg.android.AlipayGphone
p759
(dp760
g10
F1.6000000000000001
sssg113
(dp761
g55
(dp762
g10
F1.7
ssVcom.android.packageinstaller
p763
(dp764
g10
F1.7
ssg394
(dp765
g10
F1.7000000000000002
ssVcom.android.launcher
p766
(dp767
g10
I1
sssg115
(dp768
g19
(dp769
g10
F0.90000000000000002
ssVcom.android.settings
p770
(dp771
g10
F3.6999999999999997
ssVcom.android.mms
p772
(dp773
g10
I1
ssVcom.android.launcher
p774
(dp775
g10
F16.5
ssVcom.tencent.mobileqq
p776
(dp777
g10
F6.7999999999999998
ssg264
(dp778
g10
F0.90000000000000002
sssg117
(dp779
g509
(dp780
g10
F0.90000000000000002
ssVcom.tencent.reading
p781
(dp782
g10
I1
ssg513
(dp783
g10
F1.6000000000000001
ssg682
(dp784
g10
F1.3999999999999999
ssVcom.cootek.smartdialer
p785
(dp786
g10
F1.7
ssg437
(dp787
g10
F0.69999999999999996
ssVme.ele
p788
(dp789
g10
F3.1999999999999997
ssVcom.android.launcher
p790
(dp791
g10
F23.999999999999996
ssg61
(dp792
g10
F0.90000000000000002
ssVcom.tencent.mobileqq
p793
(dp794
g10
F5.3999999999999995
ssVcom.miui.antispam
p795
(dp796
g10
I3
ssVcom.sankuai.meituan.takeoutnew
p797
(dp798
g10
F2.6000000000000001
sssg119
(dp799
Vcom.miui.gallery
p800
(dp801
g10
I1
sssg121
(dp802
Vcom.android.launcher
p803
(dp804
g10
I2
sssg123
(dp805
Vcom.sinovatech.unicom.ui
p806
(dp807
g10
F0.90000000000000002
ssVcom.android.launcher
p808
(dp809
g10
I1
sssg125
(dp810
Vcom.tencent.mobileqq
p811
(dp812
g10
F0.90000000000000002
ssVcom.android.launcher
p813
(dp814
g10
I1
sssg127
(dp815
Vcom.tencent.mobileqq
p816
(dp817
g10
I1
sssg129
(dp818
g367
(dp819
g10
I1
ssVcom.android.launcher
p820
(dp821
g10
I1
sssg131
(dp822
g194
(dp823
g10
F1.3
ssVcom.qiyi.video
p824
(dp825
g10
I1
ssg192
(dp826
g10
F0.69999999999999996
sssg133
(dp827
ssS'edge'
p828
g139
sS'graph'
p829
(dp830
sS'adjlist_dict_factory'
p831
g136
sS'adj'
p832
g139
sS'pred'
p833
(dp834
g8
(dp835
Vcom.netease.cloudmusic
p836
g544
sg15
g166
sVcom.tencent.news
p837
g524
sVcom.android.launcher
p838
g251
ssg11
(dp839
Vcom.tencent.mobileqq
p840
g655
sVcom.android.launcher
p841
g252
ssg13
(dp842
Vcom.ximalaya.ting.android
p843
g415
sVcn.kidstone.cartoon
p844
g319
sVcom.tencent.mobileqq
p845
g619
sVcom.android.launcher
p846
g253
ssg15
(dp847
Vcom.tencent.mobileqq
p848
g620
sg836
g552
sVcom.android.launcher
p849
g254
ssg17
(dp850
sg19
(dp851
g480
g350
sVcom.android.launcher
p852
g291
sg355
g769
ssg21
(dp853
g103
g690
sVcom.youku.phone
p854
g152
sg190
g746
sg49
g391
sg192
g241
sg153
g217
sVcom.android.launcher
p855
g256
sg196
g453
sg198
g621
sg131
g825
ssg23
(dp856
Vcom.android.launcher
p857
g257
ssg25
(dp858
Vcom.taobao.taobao
p859
g242
ssg27
(dp860
Vcom.netease.mail
p861
g700
sg107
g709
sVcom.android.settings
p862
g729
sVcom.android.mms
p863
g787
sg788
g438
sg713
g259
sg710
g623
sg854
g154
ssg29
(dp864
Vcn.kidstone.cartoon
p865
g324
sVcom.tencent.mobileqq
p866
g625
sVcom.youku.phone
p867
g155
sVcom.android.launcher
p868
g260
ssg31
(dp869
g103
g694
sVcom.tencent.news
p870
g532
sVcom.netease.cloudmusic
p871
g554
sVcom.tencent.mm
p872
g493
sg21
g193
sg25
g208
sVcom.android.launcher
p873
g261
sg236
g752
sVcom.tencent.mobileqq
p874
g633
sg131
g826
ssg33
(dp875
g250
g144
sg11
g147
sg13
g157
sVcom.ea.game.pvz2_row
p876
g170
sg17
g182
sg21
g195
sg23
g203
sg25
g206
sg27
g223
sg624
g231
sg31
g246
sg113
g767
sg35
g326
sg37
g338
sg39
g348
sVcom.anzogame.game
p877
g362
sg43
g373
sg45
g384
sg47
g387
sg49
g393
sg51
g403
sVcom.tencent.token
p878
g412
sVcom.ximalaya.ting.android
p879
g422
sg57
g436
sg59
g441
sVcom.android.phone
p880
g460
sg63
g473
sg65
g497
sg67
g512
sg69
g521
sg101
g687
sg73
g536
sg75
g561
sg77
g574
sg81
g582
sg83
g592
sg89
g604
sg91
g611
sg93
g616
sg95
g628
sg606
g674
sg97
g662
sg103
g692
sg861
g703
sg107
g714
sg109
g724
sg111
g754
sg115
g775
sVcom.android.mms
p881
g791
sg121
g804
sg123
g809
sVde.hs_osnabrueck.asta.sensorlog
p882
g814
sg87
g597
sVcom.xiaoji.emulator
p883
g821
sg131
g823
ssg35
(dp884
Vcom.android.settings
p885
g756
sg323
g229
sVcom.tencent.mobileqq
p886
g629
sg414
g161
sVcom.android.launcher
p887
g263
ssg37
(dp888
sg39
(dp889
g89
g602
sVcom.tencent.reading
p890
g778
sVcom.sinovatech.unicom.ui
p891
g726
sVcom.android.settings
p892
g760
sVme.ele
p893
g434
sVcom.android.launcher
p894
g265
sVcom.tencent.mobileqq
p895
g630
ssg41
(dp896
g668
g731
sVcom.tencent.mm
p897
g481
sg755
g318
sVcom.tencent.mobileqq
p898
g631
sVcom.android.launcher
p899
g266
ssg43
(dp900
Vcom.android.launcher
p901
g282
sVcom.netease.cloudmusic
p902
g545
ssg45
(dp903
g83
g590
sVcom.tencent.mm
p904
g501
sg294
g632
sg297
g696
sVcom.android.launcher
p905
g268
ssg47
(dp906
sg49
(dp907
g160
g322
sg854
g151
sg55
g419
sg855
g269
sg153
g214
sVcom.tencent.android.qqdownloader
p908
g764
sg394
g467
sg331
g528
ssg51
(dp909
g400
g742
ssg53
(dp910
Vcom.anzogame.game
p911
g359
sVcom.tencent.mobileqq
p912
g627
sg31
g244
sVcom.android.launcher
p913
g270
ssg55
(dp914
g763
g392
sg394
g471
sg908
g762
sVcom.android.launcher
p915
g271
sg423
g457
ssg57
(dp916
g297
g701
sg879
g420
sg429
g750
sg431
g789
sg437
g221
sg421
g272
sg423
g458
sg375
g495
sg433
g344
sg500
g378
ssg59
(dp917
Vcom.sinovatech.unicom.ui
p918
g722
sVcom.android.launcher
p919
g273
ssg61
(dp920
Vcom.cootek.smartdialer
p921
g584
sVcom.anzogame.game
p922
g363
sVcom.tencent.news
p923
g538
sVcom.netease.cloudmusic
p924
g563
sg117
g792
sVcom.qiyi.video
p925
g197
sVcom.android.deskclock
p926
g676
sg879
g424
sVcom.android.launcher
p927
g275
sg87
g599
sVcom.tencent.mobileqq
p928
g634
sg93
g617
ssg63
(dp929
Vcom.android.launcher
p930
g276
sVcom.netease.cloudmusic
p931
g565
sg763
g395
sg468
g801
sg55
g425
sg908
g765
ssg65
(dp932
g13
g163
sVcom.netease.cloudmusic
p933
g551
sg179
g784
sg658
g578
sg156
g277
sg797
g683
sg845
g635
sg500
g376
sg482
g705
ssg67
(dp934
g507
g796
sVcom.tencent.mobileqq
p935
g636
sVcom.tencent.news
p936
g542
sVcom.android.launcher
p937
g278
ssg69
(dp938
sg71
(dp939
Vcom.tencent.mobileqq
p940
g638
sVcom.android.launcher
p941
g280
ssg73
(dp942
Vcom.anzogame.game
p943
g352
sg353
g712
sg516
g734
sg529
g780
sVcom.tencent.token
p944
g410
sVcom.android.deskclock
p945
g665
sVcom.android.launcher
p946
g283
sg537
g444
sg160
g332
sVcom.tencent.mobileqq
p947
g639
sg541
g510
ssg75
(dp948
Vcom.android.settings
p949
g736
sg566
g641
sVcom.duokan.reader
p950
g614
sVcom.android.launcher
p951
g285
sVcom.android.phone
p952
g446
ssg77
(dp953
Vcom.sinovatech.unicom.ui
p954
g717
sVcom.android.settings
p955
g748
sg17
g176
sg181
g286
ssg79
(dp956
Vcom.tencent.mobileqq
p957
g642
sVcom.tencent.mm
p958
g491
ssg81
(dp959
g924
g558
sg579
g786
sVcom.android.launcher
p960
g287
sVcom.android.phone
p961
g455
sg97
g659
sVcom.tencent.mm
p962
g494
ssg83
(dp963
g95
g643
sg33
g288
ssg85
(dp964
Vcom.tencent.mobileqq
p965
g644
sVcom.android.launcher
p966
g289
ssg87
(dp967
Vcom.android.launcher
p968
g311
sVcom.android.phone
p969
g461
ssg89
(dp970
g892
g732
sg759
g342
sVcom.android.launcher
p971
g267
ssg91
(dp972
g606
g678
sVcom.tencent.mobileqq
p973
g645
sg878
g406
sVcom.android.launcher
p974
g292
ssg93
(dp975
g87
g595
sVcom.netease.cloudmusic
p976
g569
sVcom.android.launcher
p977
g293
sg969
g465
ssg95
(dp978
g250
g142
sg13
g150
sg876
g168
sg17
g184
sg824
g199
sg606
g679
sVcom.UCMobile
p979
g225
sg944
g408
sg33
g295
sg35
g330
sg37
g336
sg39
g346
sVcom.anzogame.game
p980
g365
sVcom.gameloft.android.ANMP.GloftA8HM
p981
g371
sg45
g380
sg321
g397
sg531
g248
sg843
g427
sg196
g464
sg63
g475
sg162
g499
sg67
g506
sg69
g519
sg101
g685
sVcom.tencent.news
p982
g540
sVcom.netease.cloudmusic
p983
g567
sg77
g572
sVcom.cootek.smartdialer
p984
g587
sg83
g589
sVcom.android.email
p985
g609
sg97
g660
sg105
g698
sg107
g711
sg891
g725
sg177
g758
sg115
g777
sg117
g794
sg882
g812
sVcom.android.camera
p986
g817
ssg97
(dp987
g984
g585
sVcom.android.phone
p988
g462
ssg99
(dp989
Vcom.anzogame.game
p990
g360
sVcom.tencent.news
p991
g534
sVcom.netease.cloudmusic
p992
g556
sVcom.tuan800.tao800
p993
g708
sVcom.tencent.mm
p994
g479
sVcom.UCMobile
p995
g219
sVcom.android.launcher
p996
g258
sg985
g607
sVcom.tencent.mobileqq
p997
g622
ssg101
(dp998
g682
g503
sVcom.android.updater
p999
g186
sg179
g798
sVcom.android.launcher
p1000
g255
ssg103
(dp1001
Vcom.android.launcher
p1002
g296
sg240
g189
sVcom.taobao.taobao
p1003
g233
ssg105
(dp1004
Vcom.tencent.mm
p1005
g483
sg500
g382
sVcom.android.launcher
p1006
g298
ssg107
(dp1007
g943
g354
sVcom.tencent.news
p1008
g525
sVcom.tencent.mobileqq
p1009
g646
sg492
g235
sg707
g667
sVcom.android.launcher
p1010
g300
sVcom.tencent.mm
p1011
g484
ssg109
(dp1012
g716
g571
sg158
g740
sVcom.UCMobile
p1013
g211
sg123
g807
sVcom.android.launcher
p1014
g302
sg39
g341
ssg111
(dp1015
Vcom.youku.phone
p1016
g159
sg876
g172
sVcom.android.updater
p1017
g178
sVcom.qiyi.video
p1018
g191
sVcom.android.deskclock
p1019
g669
sVcom.UCMobile
p1020
g213
sVcom.android.launcher
p1021
g303
sVcom.gameloft.android.ANMP.GloftA8HM
p1022
g368
sg51
g401
sg553
g237
sVcom.ximalaya.ting.android
p1023
g417
sg57
g430
sg196
g450
sVcom.tencent.mobileqq
p1024
g649
sVcom.miui.antispam
p1025
g514
sg69
g517
sVcom.tencent.news
p1026
g527
sVcom.netease.cloudmusic
p1027
g549
sg651
g771
sVcom.sinovatech.unicom.ui
p1028
g719
sVcom.tencent.mm
p1029
g486
sVcom.android.mms
p1030
g783
sg129
g819
ssg113
(dp1031
g763
g390
sVcom.tencent.mobileqq
p1032
g650
sVcom.android.launcher
p1033
g262
ssg115
(dp1034
g480
g356
sVcom.netease.cloudmusic
p1035
g547
sVcom.android.settings
p1036
g738
sVcom.android.updater
p1037
g175
sVcom.tencent.mm
p1038
g488
sg772
g782
sVcom.taobao.taobao
p1039
g239
sVcom.android.deskclock
p1040
g671
sVcom.android.launcher
p1041
g304
sVcom.android.phone
p1042
g448
sVcn.kidstone.cartoon
p1043
g320
sg776
g652
ssg117
(dp1044
Vcom.anzogame.game
p1045
g357
sg936
g530
sVcom.tencent.reading
p1046
g773
sg109
g721
sVcom.android.settings
p1047
g744
sg999
g180
sVcom.tencent.mm
p1048
g490
sVcom.cootek.smartdialer
p1049
g580
sg1013
g216
sg749
g432
sg459
g306
sg880
g451
sVcom.tencent.mobileqq
p1050
g653
sg67
g508
sg185
g681
ssg119
(dp1051
g564
g469
sVcom.tencent.mobileqq
p1052
g654
sg931
g559
sVcom.android.launcher
p1053
g307
ssg121
(dp1054
Vcom.android.deskclock
p1055
g672
sVcom.android.launcher
p1056
g309
ssg123
(dp1057
Vcom.android.launcher
p1058
g310
ssg125
(dp1059
Vcom.miui.gallery
p1060
g476
sg474
g637
sg472
g279
ssg127
(dp1061
g335
g656
sg37
g334
sg337
g290
ssg129
(dp1062
Vcn.kidstone.cartoon
p1063
g328
sg1022
g369
sVcom.android.launcher
p1064
g312
ssg131
(dp1065
g153
g226
sg49
g398
sg21
g200
sg855
g313
ssg133
(dp1066
Vcom.tencent.mobileqq
p1067
g647
sVcom.android.launcher
p1068
g315
sssb.