ccopy_reg
_reconstructor
p1
(cnetworkx.classes.digraph
DiGraph
p2
c__builtin__
object
p3
NtRp4
(dp5
S'node'
p6
(dp7
Vcom.meizu.media.reader
p8
(dp9
S'weight'
p10
F0.0015371214838346056
ssVcom.sankuai.movie
p11
(dp12
g10
F0.0065583849976943174
ssVcom.suning.mobile.ebuy
p13
(dp14
g10
F0.0057898242557770149
ssVcom.autonavi.minimap
p15
(dp16
g10
F0.011272224214787109
ssVcom.android.deskclock
p17
(dp18
g10
F0.00015371214838346057
ssVcom.UCMobile
p19
(dp20
g10
F0.0055848747245990675
ssVcom.em.mobile
p21
(dp22
g10
F0.00097351027309525032
ssVco.runner.app
p23
(dp24
g10
F0.020443715735000256
ssVcom.sina.weibo
p25
(dp26
g10
F0.042014653891479223
ssVcom.eg.android.AlipayGphone
p27
(dp28
g10
F0.054362863144950556
ssVcom.wandoujia.eyepetizer
p29
(dp30
g10
F0.019572680227493981
ssVcom.cmbchina.ccd.pluto.cmbActivity
p31
(dp32
g10
F0.0040989906235589487
ssVcom.android.packageinstaller
p33
(dp34
g10
F0.0017420710150125533
ssVcom.android.soundrecorder
p35
(dp36
g10
F0.0023056822257519088
ssVcom.taobao.taobao
p37
(dp38
g10
F0.0033304298816416457
ssVcom.android.video
p39
(dp40
g10
F0.00635343546651637
ssVcom.android.safe
p41
(dp42
g10
F0.0051237382794486856
ssVcom.android.phone
p43
(dp44
g10
F0.049597786545063277
ssVcom.meizu.media.gallery
p45
(dp46
g10
F0.014346467182456321
ssVcom.tencent.mm
p47
(dp48
g10
F0.53625044832709945
ssVcom.youdao.note
p49
(dp50
g10
F0.00030742429676692114
ssVcom.sankuai.meituan.takeoutnew
p51
(dp52
g10
F0.028641696982118152
ssVcom.netease.mobimail
p53
(dp54
g10
F0.00087103550750627663
ssVcom.meizu.mstore
p55
(dp56
g10
F0.010042527027719425
ssVcom.netease.cloudmusic
p57
(dp58
g10
F0.033406773582005431
ssVcom.meizu.media.camera
p59
(dp60
g10
F0.019521442844699494
ssVcom.android.fileexplorer
p61
(dp62
g10
F0.0024593943741353691
ssVcom.whatsapp
p63
(dp64
g10
F0.006968284060050213
ssVcom.tencent.mobileqq
p65
(dp66
g10
F0.02546497924885997
ssVcom.MobileTicket
p67
(dp68
g10
F0.035609981042168365
ssVcom.meizu.cloud
p69
(dp70
g10
F0.00015371214838346057
ssVcom.android.calendar
p71
(dp72
g10
F0.005328687810626633
ssVcom.android.settings
p73
(dp74
g10
F0.0067120971460777785
ssVcom.android.mms
p75
(dp76
g10
F0.0098888148793359627
ssVcom.sinovatech.unicom.ui
p77
(dp78
g10
F0.0096326279653635299
ssVcom.liwushuo.gifttalk
p79
(dp80
g10
F0.01157964851155403
ssVcom.meizu.flyme.weather
p81
(dp82
g10
F0.0019982579289849873
sssS'node_dict_factory'
p83
c__builtin__
dict
p84
sS'edge_attr_dict_factory'
p85
g84
sS'succ'
p86
(dp87
g8
(dp88
Vcom.tencent.mm
p89
(dp90
g10
I1
sssg11
(dp91
sg13
(dp92
g77
(dp93
g10
F1.1000000000000001
ssVcom.tencent.mm
p94
(dp95
g10
F1.8999999999999999
sssg15
(dp96
Vcom.android.mms
p97
(dp98
g10
F1.3
ssg33
(dp99
g10
F1.7
ssVcom.tencent.mm
p100
(dp101
g10
F14.1
ssg27
(dp102
g10
F0.69999999999999996
sssg17
(dp103
Vcom.tencent.mm
p104
(dp105
g10
F2.8999999999999999
ssVcom.android.soundrecorder
p106
(dp107
g10
I1
ssVcom.meizu.flyme.weather
p108
(dp109
g10
I1
sssg19
(dp110
Vcom.android.fileexplorer
p111
(dp112
g10
F2.7000000000000002
ssVcom.tencent.mm
p113
(dp114
g10
F4.2000000000000002
ssVcom.whatsapp
p115
(dp116
g10
F1.6000000000000001
ssg11
(dp117
g10
F0.40000000000000002
ssVcom.tencent.mobileqq
p118
(dp119
g10
F1.1000000000000001
sssg21
(dp120
Vcom.tencent.mm
p121
(dp122
g10
I1
sssg23
(dp123
Vcom.netease.cloudmusic
p124
(dp125
g10
I2
sssg25
(dp126
Vcom.tencent.mm
p127
(dp128
g10
I3
sssg27
(dp129
Vcom.meizu.mstore
p130
(dp131
g10
I1
ssg57
(dp132
g10
I1
ssVcom.tencent.mm
p133
(dp134
g10
F17.199999999999999
ssVcom.whatsapp
p135
(dp136
g10
I1
ssVcom.android.phone
p137
(dp138
g10
F3.5999999999999996
ssVcom.tencent.mobileqq
p139
(dp140
g10
F0.90000000000000002
sssg29
(dp141
Vcom.tencent.mm
p142
(dp143
g10
F4.0999999999999996
ssg49
(dp144
g10
F0.40000000000000002
ssg79
(dp145
g10
F1.8999999999999999
sssg31
(dp146
Vcom.UCMobile
p147
(dp148
g10
F1.8999999999999999
ssVcom.tencent.mm
p149
(dp150
g10
F0.69999999999999996
ssg115
(dp151
g10
F0.40000000000000002
sssg33
(dp152
Vcom.autonavi.minimap
p153
(dp154
g10
F1.3
ssVcom.tencent.mm
p155
(dp156
g10
F0.69999999999999996
ssg97
(dp157
g10
I1
sssg35
(dp158
g17
(dp159
g10
I1
ssg104
(dp160
g10
F4.1000000000000005
sssg37
(dp161
Vcom.tencent.mm
p162
(dp163
g10
F5.7000000000000011
ssVcom.netease.cloudmusic
p164
(dp165
g10
F1.8999999999999999
ssVcom.eg.android.AlipayGphone
p166
(dp167
g10
F2
ssVcom.android.phone
p168
(dp169
g10
F0.40000000000000002
sssg39
(dp170
Vcom.meizu.media.gallery
p171
(dp172
g10
I2
ssVcom.tencent.mm
p173
(dp174
g10
F1.1000000000000001
ssVcom.meizu.media.camera
p175
(dp176
g10
F1.8
ssVcom.netease.cloudmusic
p177
(dp178
g10
F0.69999999999999996
sssg41
(dp179
Vcom.tencent.mm
p180
(dp181
g10
F2.7000000000000002
sssg43
(dp182
Vcom.netease.cloudmusic
p183
(dp184
g10
F0.90000000000000002
ssVcom.tencent.mobileqq
p185
(dp186
g10
F0.69999999999999996
ssVcom.tencent.mm
p187
(dp188
g10
F4.2999999999999998
ssg53
(dp189
g10
F1.7
ssVcom.eg.android.AlipayGphone
p190
(dp191
g10
I1
sssg45
(dp192
Vcom.MobileTicket
p193
(dp194
g10
F1.3
ssg177
(dp195
g10
F3.1999999999999997
ssg187
(dp196
g10
F11.699999999999998
ssVcom.meizu.media.camera
p197
(dp198
g10
F3.7000000000000002
ssg39
(dp199
g10
F1.7
ssg43
(dp200
g10
I1
ssg185
(dp201
g10
F0.80000000000000004
ssVcom.eg.android.AlipayGphone
p202
(dp203
g10
F0.40000000000000002
sssg47
(dp204
g8
(dp205
g10
F2.1000000000000001
ssg11
(dp206
g10
F1.1000000000000001
ssg13
(dp207
g10
F0.40000000000000002
ssg15
(dp208
g10
F13.399999999999999
ssVcom.UCMobile
p209
(dp210
g10
F3
ssg21
(dp211
g10
F3
ssVcom.sina.weibo
p212
(dp213
g10
I2
ssg27
(dp214
g10
F19.599999999999998
ssg29
(dp215
g10
F2.2999999999999998
ssg33
(dp216
g10
F1.3
ssVcom.taobao.taobao
p217
(dp218
g10
F2.8999999999999999
ssg41
(dp219
g10
F4.7000000000000002
ssg43
(dp220
g10
F4
ssg45
(dp221
g10
F11.000000000000002
ssg139
(dp222
g10
F13.700000000000001
ssg49
(dp223
g10
F2.6000000000000001
ssg55
(dp224
g10
F7.2999999999999998
ssVcom.netease.cloudmusic
p225
(dp226
g10
F9.4000000000000004
ssVcom.meizu.media.camera
p227
(dp228
g10
F2.7000000000000002
ssVcom.android.fileexplorer
p229
(dp230
g10
F3.7000000000000002
ssVcom.whatsapp
p231
(dp232
g10
F2.7000000000000002
ssg67
(dp233
g10
F5.7000000000000002
ssg69
(dp234
g10
F1.6000000000000001
ssg77
(dp235
g10
F3.8999999999999999
ssg73
(dp236
g10
F9.2000000000000011
ssg75
(dp237
g10
F6.7000000000000011
ssg79
(dp238
g10
F4.3999999999999995
ssg81
(dp239
g10
F3.6000000000000001
sssg49
(dp240
Vcom.tencent.mm
p241
(dp242
g10
I1
sssg51
(dp243
g229
(dp244
g10
F1.3
ssg137
(dp245
g10
F0.90000000000000002
ssVcom.tencent.mm
p246
(dp247
g10
I1
ssVcom.eg.android.AlipayGphone
p248
(dp249
g10
F1.7
ssg209
(dp250
g10
F0.69999999999999996
sssg53
(dp251
g183
(dp252
g10
I1
ssVcom.android.phone
p253
(dp254
g10
I1
sssg55
(dp255
g139
(dp256
g10
F1.3999999999999999
ssVcom.tencent.mm
p257
(dp258
g10
F6.2999999999999998
ssVcom.eg.android.AlipayGphone
p259
(dp260
g10
F0.90000000000000002
ssVcom.autonavi.minimap
p261
(dp262
g10
F1.7000000000000002
sssg57
(dp263
g69
(dp264
g10
F0.40000000000000002
ssg8
(dp265
g10
F0.90000000000000002
ssVcom.android.settings
p266
(dp267
g10
F2.0999999999999996
ssVcom.meizu.media.camera
p268
(dp269
g10
I1
ssg231
(dp270
g10
F0.90000000000000002
ssVcom.netease.mobimail
p271
(dp272
g10
I1
ssg168
(dp273
g10
F3.1000000000000001
ssVcom.meizu.media.gallery
p274
(dp275
g10
F2.7000000000000002
ssVco.runner.app
p276
(dp277
g10
I3
ssVcom.tencent.mm
p278
(dp279
g10
F17.099999999999998
ssVcom.eg.android.AlipayGphone
p280
(dp281
g10
F3.7999999999999998
sssg59
(dp282
Vcom.meizu.media.gallery
p283
(dp284
g10
F3.4000000000000004
ssg39
(dp285
g10
F1.3
ssVcom.tencent.mm
p286
(dp287
g10
F5.5
ssg177
(dp288
g10
F2.3999999999999999
sssg61
(dp289
g19
(dp290
g10
F3.7000000000000002
ssg113
(dp291
g10
F4.7000000000000002
sssg63
(dp292
g11
(dp293
g10
F1.6000000000000001
ssg118
(dp294
g10
I1
ssVcom.tencent.mm
p295
(dp296
g10
F2.7000000000000002
ssVcom.netease.cloudmusic
p297
(dp298
g10
F0.90000000000000002
ssVcom.eg.android.AlipayGphone
p299
(dp300
g10
F2.7000000000000002
sssg65
(dp301
g13
(dp302
g10
F0.90000000000000002
ssg19
(dp303
g10
F1.8
ssg61
(dp304
g10
I1
ssg11
(dp305
g10
F1.8999999999999999
ssVcom.tencent.mm
p306
(dp307
g10
F10.100000000000001
ssVcom.liwushuo.gifttalk
p308
(dp309
g10
I1
sssg67
(dp310
Vcom.tencent.mobileqq
p311
(dp312
g10
F0.90000000000000002
ssVcom.tencent.mm
p313
(dp314
g10
F5.1000000000000005
sssg69
(dp315
Vcom.tencent.mm
p316
(dp317
g10
F2.9999999999999996
sssg71
(dp318
Vcom.tencent.mm
p319
(dp320
g10
F1.8999999999999999
sssg73
(dp321
g69
(dp322
g10
I1
ssVcom.tencent.mm
p323
(dp324
g10
F5.7000000000000011
sssg75
(dp325
Vcom.sinovatech.unicom.ui
p326
(dp327
g10
I1
ssg15
(dp328
g10
F3.3999999999999999
ssVcom.tencent.mm
p329
(dp330
g10
F5.2000000000000002
ssVcom.netease.cloudmusic
p331
(dp332
g10
F0.40000000000000002
sssg77
(dp333
Vcom.android.mms
p334
(dp335
g10
F1.8999999999999999
sssg79
(dp336
g77
(dp337
g10
F0.40000000000000002
ssVcom.wandoujia.eyepetizer
p338
(dp339
g10
I1
ssg142
(dp340
g10
F4
ssg13
(dp341
g10
F1.7
ssVcom.tencent.mobileqq
p342
(dp343
g10
I1
sssg81
(dp344
Vcom.meizu.media.gallery
p345
(dp346
g10
F2.2000000000000002
ssVcom.tencent.mm
p347
(dp348
g10
F3.7000000000000002
ssVcom.netease.cloudmusic
p349
(dp350
g10
I1
ssssS'edge'
p351
g87
sS'graph'
p352
(dp353
sS'adjlist_dict_factory'
p354
g84
sS'adj'
p355
g87
sS'pred'
p356
(dp357
g8
(dp358
Vcom.tencent.mm
p359
g205
sg225
g265
ssg11
(dp360
Vcom.UCMobile
p361
g117
sg149
g206
sg115
g293
sg118
g305
ssg13
(dp362
g342
g302
sVcom.tencent.mm
p363
g207
sVcom.liwushuo.gifttalk
p364
g341
ssg15
(dp365
g75
g328
sg33
g154
sg47
g208
sVcom.meizu.mstore
p366
g262
ssg17
(dp367
g35
g159
ssg19
(dp368
g61
g290
sg246
g210
sg65
g303
sg31
g148
sg51
g250
ssg21
(dp369
g316
g211
ssg23
(dp370
Vcom.netease.cloudmusic
p371
g277
ssg25
(dp372
Vcom.tencent.mm
p373
g213
ssg27
(dp374
g55
g260
sg57
g281
sVcom.autonavi.minimap
p375
g102
sg37
g167
sg63
g300
sg137
g191
sg274
g203
sVcom.tencent.mm
p376
g214
sVcom.sankuai.meituan.takeoutnew
p377
g249
ssg29
(dp378
Vcom.tencent.mm
p379
g215
sg79
g339
ssg31
(dp380
sg33
(dp381
g15
g99
sg329
g216
ssg35
(dp382
g17
g107
ssg37
(dp383
g162
g218
ssg39
(dp384
g283
g199
sg227
g285
ssg41
(dp385
Vcom.tencent.mm
p386
g219
ssg43
(dp387
g164
g273
sVcom.taobao.taobao
p388
g169
sVcom.netease.mobimail
p389
g254
sVcom.meizu.media.gallery
p390
g200
sVcom.tencent.mm
p391
g220
sg248
g138
sg377
g245
ssg45
(dp392
g227
g284
sg39
g172
sVcom.tencent.mm
p393
g221
sVcom.netease.cloudmusic
p394
g275
sg81
g346
ssg47
(dp395
g8
g90
sg13
g95
sg15
g101
sg17
g105
sg209
g114
sg21
g122
sg25
g128
sg27
g134
sg29
g143
sg31
g150
sg33
g156
sg35
g160
sg37
g163
sg39
g174
sg41
g181
sg43
g188
sg390
g196
sg139
g307
sg49
g242
sg51
g247
sg55
g258
sg57
g279
sg59
g287
sg111
g291
sVcom.whatsapp
p396
g296
sg67
g314
sg69
g317
sg71
g320
sg73
g324
sg75
g330
sg79
g340
sg81
g348
ssg49
(dp397
g338
g144
sg142
g223
ssg51
(dp398
sg53
(dp399
g183
g272
sVcom.android.phone
p400
g189
ssg55
(dp401
Vcom.tencent.mm
p402
g224
sg259
g131
ssg57
(dp403
g23
g125
sVcom.android.mms
p404
g332
sVcom.meizu.media.camera
p405
g288
sg388
g165
sVcom.android.video
p406
g178
sg396
g298
sg53
g252
sg400
g184
sVcom.meizu.media.gallery
p407
g195
sg359
g226
sVcom.eg.android.AlipayGphone
p408
g132
sVcom.meizu.flyme.weather
p409
g350
ssg59
(dp410
g283
g198
sg39
g176
sVcom.tencent.mm
p411
g228
sVcom.netease.cloudmusic
p412
g269
ssg61
(dp413
g209
g112
sg246
g230
sg65
g304
sg51
g244
ssg63
(dp414
g147
g116
sg295
g232
sg297
g270
sg299
g136
sg31
g151
ssg65
(dp415
g193
g312
sg55
g256
sg364
g343
sg147
g119
sg115
g294
sg43
g186
sg390
g201
sg257
g222
sg259
g140
ssg67
(dp416
Vcom.meizu.media.gallery
p417
g194
sVcom.tencent.mm
p418
g233
ssg69
(dp419
Vcom.android.settings
p420
g322
sVcom.tencent.mm
p421
g234
sVcom.netease.cloudmusic
p422
g264
ssg71
(dp423
sg73
(dp424
Vcom.tencent.mm
p425
g236
sg177
g267
ssg75
(dp426
g77
g335
sg15
g98
sg33
g157
sg47
g237
ssg77
(dp427
g334
g327
sg94
g235
sg13
g93
sg308
g337
ssg79
(dp428
g29
g145
sg379
g238
sg342
g309
ssg81
(dp429
Vcom.android.deskclock
p430
g109
sVcom.tencent.mm
p431
g239
sssb.