ccopy_reg
_reconstructor
p1
(cnetworkx.classes.digraph
DiGraph
p2
c__builtin__
object
p3
NtRp4
(dp5
S'node'
p6
(dp7
Vcom.android.browser
p8
(dp9
S'weight'
p10
F0.0088844734601192174
ssVcom.lingan.seeyou
p11
(dp12
g10
F0.00033674812272598253
ssVcom.youdao.dict
p13
(dp14
g10
F0.0056111784894072713
ssVcom.suning.mobile.ebuy
p15
(dp16
g10
F0.00038319613965370422
ssVone.hh.oneclient
p17
(dp18
g10
F0.0016927721724769695
ssVcom.qiyi.video
p19
(dp20
g10
F0.03335741749025882
ssVcom.tengchong.juhuiwan
p21
(dp22
g10
F3.8706680773101438e-06
ssVcom.douban.daily
p23
(dp24
g10
F9.0315588470570015e-06
ssVcom.taobao.taobao
p25
(dp26
g10
F0.010480478930663433
ssVcom.android.launcher
p27
(dp28
g10
F0.49161355249916133
ssVcom.sankuai.meituan
p29
(dp30
g10
F0.00021417696694449461
ssVcom.sina.weibo
p31
(dp32
g10
F0.038226717931514977
ssVcom.eg.android.AlipayGphone
p33
(dp34
g10
F0.00179857043325678
ssVcn.dxy.android.aspirin
p35
(dp36
g10
F8.9025365778133309e-05
ssVcom.oppo.preventmode
p37
(dp38
g10
F0.0025417387041003275
ssVcom.zhihu.android
p39
(dp40
g10
F0.0056743994013366706
ssVcom.ywqc.three
p41
(dp42
g10
F0.021702835909477976
ssVcn.wps.moffice_eng
p43
(dp44
g10
F0.0013650556085980439
ssVcom.qihoo.freewifi
p45
(dp46
g10
F0.0031907207183959952
ssVcom.android.packageinstaller
p47
(dp48
g10
F7.3542693468892737e-05
ssVcom.oppo.camera
p49
(dp50
g10
F0.00048770417774107809
ssVcom.android.gallery3d
p51
(dp52
g10
F0.00057930998890408489
ssVme.ele
p53
(dp54
g10
F0.01057982607798106
ssVcom.qihoo360.mobilesafe
p55
(dp56
g10
F0.016574200707042037
ssVcn.ledongli.ldl
p57
(dp58
g10
F0.0010025030320233272
ssVcom.tencent.tmgp.qjnn
p59
(dp60
g10
F0.079244187546770567
ssVcom.android.phone
p61
(dp62
g10
F0.022453745516476144
ssVcom.tencent.mobileqq
p63
(dp64
g10
F0.046244161742316721
ssVcom.duomi.android
p65
(dp66
g10
F0.00745748716228421
ssVcom.sankuai.meituan.takeoutnew
p67
(dp68
g10
F0.0018630815678786158
ssVcom.android.flashlight
p69
(dp70
g10
F0.00047222150543183754
ssVcom.qihoo.secstore
p71
(dp72
g10
F0.00078316517430908577
ssVcom.android.calculator
p73
(dp74
g10
F0.001057982607798106
ssVfm.xiami.main
p75
(dp76
g10
F0.0014940778778417155
ssVcom.nearme.themespace
p77
(dp78
g10
F0.00048125306427889455
ssVcom.qihoo360.contacts
p79
(dp80
g10
F0.036971331251774056
ssVcom.oppo.weather
p81
(dp82
g10
F0.0017921193197945966
ssVcom.android.fileexplorer
p83
(dp84
g10
F5.5479575774778728e-05
ssVcom.Qunar
p85
(dp86
g10
F0.00029417077387557095
ssVcom.jzyd.BanTang
p87
(dp88
g10
F0.00023353030733104535
ssVcom.dianping.v1
p89
(dp90
g10
F0.00047222150543183754
ssVcom.MobileTicket
p91
(dp92
g10
F0.00055479575774778722
ssVcom.douban.frodo
p93
(dp94
g10
F0.00022836941656129847
ssVcom.kibey.echo
p95
(dp96
g10
F0.012006812375816066
ssVcom.android.calendar
p97
(dp98
g10
F5.2899130389905297e-05
ssVcom.tencent.mm
p99
(dp100
g10
F0.093600495445513895
ssVcom.oppo.market
p101
(dp102
g10
F5.1608907697468585e-06
ssVcom.android.mms
p103
(dp104
g10
F0.0068781771733801254
ssVcom.shanbay.words
p105
(dp106
g10
F0.020751941785152116
ssVcom.xiaoenai.app
p107
(dp108
g10
F0.006706577555286042
ssVcom.greenpoint.android.mc10086.activity
p109
(dp110
g10
F0.00073671715738136403
ssVcom.android.settings
p111
(dp112
g10
F9.8056924625190307e-05
ssVcom.oppo.alarmclock
p113
(dp114
g10
F0.00053028152659148967
ssVcom.oppo.speechassist
p115
(dp116
g10
F6.4511134621835731e-06
sssS'node_dict_factory'
p117
c__builtin__
dict
p118
sS'edge_attr_dict_factory'
p119
g118
sS'succ'
p120
(dp121
g8
(dp122
Vcom.ywqc.three
p123
(dp124
g10
F0.90000000000000002
ssg15
(dp125
g10
F3.6000000000000001
ssVcom.qihoo.freewifi
p126
(dp127
g10
F2.7999999999999998
ssVcn.ledongli.ldl
p128
(dp129
g10
F0.90000000000000002
ssVcom.tencent.mobileqq
p130
(dp131
g10
F5
ssVcom.sina.weibo
p132
(dp133
g10
F1.3
ssVcom.android.mms
p134
(dp135
g10
F3.3999999999999999
ssVme.ele
p136
(dp137
g10
I1
ssVcom.qihoo360.contacts
p138
(dp139
g10
F16.5
ssVcom.tencent.tmgp.qjnn
p140
(dp141
g10
F1.8999999999999999
ssVcom.qihoo360.mobilesafe
p142
(dp143
g10
F5.5
ssVcom.android.launcher
p144
(dp145
g10
F51.5
ssVcom.android.phone
p146
(dp147
g10
F0.90000000000000002
ssVcom.oppo.alarmclock
p148
(dp149
g10
F0.90000000000000002
ssVcom.tencent.mm
p150
(dp151
g10
F14.300000000000004
ssVcom.duomi.android
p152
(dp153
g10
F0.90000000000000002
ssVcom.eg.android.AlipayGphone
p154
(dp155
g10
F0.69999999999999996
sssg11
(dp156
Vcom.tencent.mm
p157
(dp158
g10
F4.1000000000000005
ssVcom.qihoo360.contacts
p159
(dp160
g10
F3.2999999999999998
ssVcom.android.launcher
p161
(dp162
g10
F5.0000000000000009
sssg13
(dp163
Vcom.android.browser
p164
(dp165
g10
F1.8
ssVcom.qihoo.secstore
p166
(dp167
g10
F0.69999999999999996
ssVcom.qihoo.freewifi
p168
(dp169
g10
F0.40000000000000002
ssVcom.tencent.mobileqq
p170
(dp171
g10
F0.90000000000000002
ssVcom.qihoo360.mobilesafe
p172
(dp173
g10
F1.7000000000000002
ssVcom.android.launcher
p174
(dp175
g10
F9.7999999999999989
ssVcom.tencent.mm
p176
(dp177
g10
F1.1000000000000001
ssVcom.shanbay.words
p178
(dp179
g10
F1.3
sssg15
(dp180
Vcom.android.browser
p181
(dp182
g10
F3.1000000000000001
ssg134
(dp183
g10
F2.7000000000000002
ssVcom.android.launcher
p184
(dp185
g10
F1.3
sssg17
(dp186
Vcom.android.browser
p187
(dp188
g10
I1
ssVcom.kibey.echo
p189
(dp190
g10
I1
ssVcom.android.launcher
p191
(dp192
g10
F2.8999999999999999
ssVcom.tencent.mobileqq
p193
(dp194
g10
F0.90000000000000002
sssg19
(dp195
Vcom.oppo.preventmode
p196
(dp197
g10
I2
ssVcom.xiaoenai.app
p198
(dp199
g10
F1.8999999999999999
ssVcn.ledongli.ldl
p200
(dp201
g10
F1.7
ssVcom.sina.weibo
p202
(dp203
g10
F1.7000000000000002
ssVcom.qihoo360.contacts
p204
(dp205
g10
F3.5
ssVcom.tencent.tmgp.qjnn
p206
(dp207
g10
F0.90000000000000002
ssVcom.qihoo360.mobilesafe
p208
(dp209
g10
F2.7999999999999998
ssVcom.android.launcher
p210
(dp211
g10
F22.599999999999994
ssVcom.android.phone
p212
(dp213
g10
F3.2999999999999998
ssVcom.oppo.alarmclock
p214
(dp215
g10
F0.69999999999999996
ssVcom.tencent.mm
p216
(dp217
g10
F4.8000000000000007
ssVcom.tencent.mobileqq
p218
(dp219
g10
F0.40000000000000002
sssg21
(dp220
Vcom.android.launcher
p221
(dp222
g10
I1
sssg23
(dp223
sg25
(dp224
Vcom.android.browser
p225
(dp226
g10
F0.90000000000000002
ssVcom.android.gallery3d
p227
(dp228
g10
I1
ssVcom.android.settings
p229
(dp230
g10
F0.90000000000000002
ssVcom.android.mms
p231
(dp232
g10
F3.5999999999999996
ssg77
(dp233
g10
F0.40000000000000002
ssVcom.qihoo360.contacts
p234
(dp235
g10
F2.7000000000000002
ssVcom.tencent.tmgp.qjnn
p236
(dp237
g10
F0.90000000000000002
ssVcom.android.launcher
p238
(dp239
g10
F16.199999999999996
ssVcom.android.phone
p240
(dp241
g10
F0.69999999999999996
ssVcom.tencent.mm
p242
(dp243
g10
F7.0999999999999996
ssVcom.eg.android.AlipayGphone
p244
(dp245
g10
F1.3
ssg115
(dp246
g10
I1
sssg27
(dp247
g8
(dp248
g10
F55.199999999999996
ssg11
(dp249
g10
F7.7000000000000011
ssg13
(dp250
g10
F8.4000000000000004
ssg15
(dp251
g10
F2.0999999999999996
ssg17
(dp252
g10
F3.3999999999999999
ssg19
(dp253
g10
F22.899999999999995
ssg21
(dp254
g10
F3.3999999999999999
ssg23
(dp255
g10
F1.7
ssg25
(dp256
g10
F15.799999999999999
ssg29
(dp257
g10
I1
ssVcom.sina.weibo
p258
(dp259
g10
F64.800000000000026
ssg33
(dp260
g10
F18.799999999999997
ssg35
(dp261
g10
F1.7
ssVcom.oppo.preventmode
p262
(dp263
g10
F47.299999999999997
ssVcom.zhihu.android
p264
(dp265
g10
F6.7000000000000002
ssVcom.ywqc.three
p266
(dp267
g10
F20.199999999999999
ssVcn.wps.moffice_eng
p268
(dp269
g10
F4.7000000000000002
ssg45
(dp270
g10
F22.199999999999992
ssg47
(dp271
g10
F1.6000000000000001
ssVcom.oppo.camera
p272
(dp273
g10
F3.3999999999999999
ssg51
(dp274
g10
F8.0999999999999996
ssg53
(dp275
g10
F23.999999999999993
ssg55
(dp276
g10
F40.799999999999997
ssVcom.android.calculator
p277
(dp278
g10
F2.7000000000000002
ssg59
(dp279
g10
F67.900000000000006
ssg61
(dp280
g10
F96.800000000000082
ssg63
(dp281
g10
F107.00000000000004
ssg65
(dp282
g10
F15.700000000000001
ssg67
(dp283
g10
F13.899999999999999
ssg69
(dp284
g10
F5.7000000000000002
ssVcom.qihoo.secstore
p285
(dp286
g10
F6.6000000000000014
ssg57
(dp287
g10
F27.199999999999996
ssg75
(dp288
g10
I1
ssg77
(dp289
g10
F6.0999999999999996
ssg79
(dp290
g10
F172.70000000000007
ssg81
(dp291
g10
F21.899999999999999
ssg83
(dp292
g10
F1.7
ssVcom.Qunar
p293
(dp294
g10
F2.7000000000000002
ssg87
(dp295
g10
I2
ssg89
(dp296
g10
F5.2999999999999998
ssg91
(dp297
g10
F1.7
ssg93
(dp298
g10
I1
ssVcom.kibey.echo
p299
(dp300
g10
F13.000000000000002
ssg97
(dp301
g10
F3.7000000000000002
ssVcom.tencent.mm
p302
(dp303
g10
F426.99999999999909
ssg101
(dp304
g10
I2
ssg103
(dp305
g10
F50.499999999999993
ssg105
(dp306
g10
F16.299999999999997
ssg107
(dp307
g10
F21.499999999999996
ssg111
(dp308
g10
F9.5
ssg113
(dp309
g10
F13.4
ssg115
(dp310
g10
F0.90000000000000002
sssg29
(dp311
Vcom.tencent.mm
p312
(dp313
g10
F1.8999999999999999
ssVcom.android.launcher
p314
(dp315
g10
F1.8999999999999999
sssg31
(dp316
Vcom.zhihu.android
p317
(dp318
g10
F0.90000000000000002
ssVcom.android.flashlight
p319
(dp320
g10
F0.90000000000000002
ssVcom.android.gallery3d
p321
(dp322
g10
F0.90000000000000002
ssVcom.kibey.echo
p323
(dp324
g10
F3.5999999999999996
ssVcom.qihoo.freewifi
p325
(dp326
g10
F1.3
ssVcom.tencent.mobileqq
p327
(dp328
g10
F9.1999999999999993
ssVcom.qihoo360.mobilesafe
p329
(dp330
g10
F3.4000000000000004
ssVcom.android.mms
p331
(dp332
g10
F4.0999999999999996
ssVcom.tencent.tmgp.qjnn
p333
(dp334
g10
F1.7
ssg79
(dp335
g10
F2.5999999999999996
ssVcom.taobao.taobao
p336
(dp337
g10
F1.3
ssVme.ele
p338
(dp339
g10
F2.2999999999999998
ssVcom.ywqc.three
p340
(dp341
g10
F1.8
ssVcom.qiyi.video
p342
(dp343
g10
F2.5
ssVcom.android.launcher
p344
(dp345
g10
F67.800000000000026
ssVcom.android.phone
p346
(dp347
g10
F5.2000000000000002
ssg214
(dp348
g10
I1
ssVcom.tencent.mm
p349
(dp350
g10
F79.300000000000054
ssVcom.duomi.android
p351
(dp352
g10
I1
sssg33
(dp353
Vcom.android.browser
p354
(dp355
g10
F0.69999999999999996
ssVcom.android.mms
p356
(dp357
g10
I2
ssVcom.tencent.tmgp.qjnn
p358
(dp359
g10
F1.3999999999999999
ssVcom.qihoo360.contacts
p360
(dp361
g10
F5.1000000000000005
ssVme.ele
p362
(dp363
g10
F5
ssVcom.taobao.taobao
p364
(dp365
g10
F1.3
ssVcom.android.launcher
p366
(dp367
g10
F10.4
ssVcom.tencent.mm
p368
(dp369
g10
F7.8000000000000016
ssVcom.shanbay.words
p370
(dp371
g10
F0.90000000000000002
ssg115
(dp372
g10
F0.69999999999999996
sssg35
(dp373
Vcom.qihoo.secstore
p374
(dp375
g10
I1
ssVcom.android.launcher
p376
(dp377
g10
F1.7
sssg37
(dp378
Vcom.android.flashlight
p379
(dp380
g10
F0.90000000000000002
ssVcom.ywqc.three
p381
(dp382
g10
I1
ssVcom.kibey.echo
p383
(dp384
g10
I1
ssVcom.qihoo.freewifi
p385
(dp386
g10
F0.69999999999999996
ssVcom.android.calendar
p387
(dp388
g10
I1
ssVcom.tencent.mobileqq
p389
(dp390
g10
F3.6000000000000001
ssVcom.tencent.mm
p391
(dp392
g10
F5.3000000000000007
ssVcom.android.mms
p393
(dp394
g10
F2.2000000000000002
ssVcom.qihoo360.contacts
p395
(dp396
g10
F13.100000000000001
ssVcom.oppo.weather
p397
(dp398
g10
F2.6000000000000001
ssVcom.tencent.tmgp.qjnn
p399
(dp400
g10
I1
ssVcom.oppo.camera
p401
(dp402
g10
I1
ssVcom.android.launcher
p403
(dp404
g10
F26.099999999999998
ssVcom.android.phone
p405
(dp406
g10
F2
ssg258
(dp407
g10
F1.1000000000000001
ssVcom.android.settings
p408
(dp409
g10
F0.69999999999999996
sssg39
(dp410
Vcom.tencent.mobileqq
p411
(dp412
g10
F2.2999999999999998
ssVcom.android.mms
p413
(dp414
g10
F0.90000000000000002
ssg19
(dp415
g10
F0.90000000000000002
ssVcom.qihoo360.contacts
p416
(dp417
g10
F4.7999999999999998
ssVcom.android.launcher
p418
(dp419
g10
F7.8000000000000007
ssVcom.tencent.mm
p420
(dp421
g10
F11.5
sssg41
(dp422
Vcom.oppo.preventmode
p423
(dp424
g10
I2
ssVcom.android.browser
p425
(dp426
g10
F0.90000000000000002
ssVcom.qihoo.secstore
p427
(dp428
g10
F0.90000000000000002
ssVcom.qihoo.freewifi
p429
(dp430
g10
F1.3
ssVcom.tencent.mobileqq
p431
(dp432
g10
F1.8999999999999999
ssVcom.android.mms
p433
(dp434
g10
I1
ssg55
(dp435
g10
F4.5
ssg81
(dp436
g10
F0.40000000000000002
ssg59
(dp437
g10
F0.80000000000000004
ssVcom.qihoo360.contacts
p438
(dp439
g10
F3.5
ssVcom.android.launcher
p440
(dp441
g10
F25.499999999999993
ssVcom.android.phone
p442
(dp443
g10
F1.8
ssVcom.tencent.mm
p444
(dp445
g10
F7.0000000000000009
sssg43
(dp446
Vcom.android.browser
p447
(dp448
g10
F0.90000000000000002
ssVcom.tencent.mobileqq
p449
(dp450
g10
F4.4000000000000004
ssVcom.qihoo360.contacts
p451
(dp452
g10
F0.69999999999999996
ssVcom.android.fileexplorer
p453
(dp454
g10
F6.1000000000000005
ssVcom.android.launcher
p455
(dp456
g10
F7.6000000000000014
ssVcom.oppo.alarmclock
p457
(dp458
g10
I1
ssVcom.tencent.mm
p459
(dp460
g10
F5.7000000000000002
sssg45
(dp461
Vcom.android.browser
p462
(dp463
g10
F2.8999999999999999
ssVcom.tencent.mobileqq
p464
(dp465
g10
F0.90000000000000002
ssVcom.qiyi.video
p466
(dp467
g10
F0.90000000000000002
ssVcom.tencent.tmgp.qjnn
p468
(dp469
g10
F3.7000000000000002
ssVcom.android.launcher
p470
(dp471
g10
F16.899999999999999
ssVcom.tencent.mm
p472
(dp473
g10
F1.3
sssg47
(dp474
Vcom.tencent.mm
p475
(dp476
g10
F1.3999999999999999
ssVcom.qihoo.secstore
p477
(dp478
g10
F1.8999999999999999
ssVcom.qihoo360.mobilesafe
p479
(dp480
g10
F1.7
sssg49
(dp481
Vcom.oppo.preventmode
p482
(dp483
g10
I1
ssVcom.xiaoenai.app
p484
(dp485
g10
F0.90000000000000002
ssVcom.tencent.mobileqq
p486
(dp487
g10
F1.7
ssVcom.android.gallery3d
p488
(dp489
g10
F0.40000000000000002
ssVcom.android.launcher
p490
(dp491
g10
F7.1000000000000005
ssVcom.tencent.mm
p492
(dp493
g10
F2.2000000000000002
sssg51
(dp494
Vcom.oppo.preventmode
p495
(dp496
g10
F0.90000000000000002
ssVcom.xiaoenai.app
p497
(dp498
g10
F1.3
ssVcom.tencent.mm
p499
(dp500
g10
F0.90000000000000002
ssVcom.taobao.taobao
p501
(dp502
g10
I1
ssVcom.tencent.tmgp.qjnn
p503
(dp504
g10
F1.3
ssVcom.android.launcher
p505
(dp506
g10
F8.7000000000000011
ssVcom.tencent.mobileqq
p507
(dp508
g10
F1.3999999999999999
sssg53
(dp509
Vcom.android.browser
p510
(dp511
g10
I1
ssg93
(dp512
g10
F0.90000000000000002
ssVcom.qihoo360.contacts
p513
(dp514
g10
F1.3
ssVcom.qihoo.freewifi
p515
(dp516
g10
F0.90000000000000002
ssVone.hh.oneclient
p517
(dp518
g10
F0.40000000000000002
ssVcom.android.mms
p519
(dp520
g10
F3.2999999999999998
ssg466
(dp521
g10
F0.40000000000000002
ssVcom.taobao.taobao
p522
(dp523
g10
F0.40000000000000002
ssVcom.qihoo360.mobilesafe
p524
(dp525
g10
F1.7
ssVcom.android.launcher
p526
(dp527
g10
F26.199999999999992
ssVcom.oppo.weather
p528
(dp529
g10
F0.40000000000000002
ssVcom.tencent.mm
p530
(dp531
g10
F28.199999999999992
ssVcom.eg.android.AlipayGphone
p532
(dp533
g10
F4.9000000000000004
ssVcom.sankuai.meituan.takeoutnew
p534
(dp535
g10
F3.5
sssg55
(dp536
Vcom.android.browser
p537
(dp538
g10
F2.2999999999999998
ssVcom.kibey.echo
p539
(dp540
g10
F4.0999999999999996
ssg71
(dp541
g10
F16.199999999999999
ssg15
(dp542
g10
F1.7
ssg522
(dp543
g10
F0.69999999999999996
ssVcn.ledongli.ldl
p544
(dp545
g10
F0.90000000000000002
ssVcom.tencent.mm
p546
(dp547
g10
F9.8000000000000007
ssg47
(dp548
g10
F2.5999999999999996
ssg134
(dp549
g10
F2.3999999999999999
ssVcom.qihoo360.contacts
p550
(dp551
g10
F4
ssg81
(dp552
g10
F0.90000000000000002
ssVcom.sina.weibo
p553
(dp554
g10
I1
ssVcom.tencent.tmgp.qjnn
p555
(dp556
g10
F0.90000000000000002
ssg85
(dp557
g10
F1.7
ssVcom.android.launcher
p558
(dp559
g10
F31.499999999999993
ssVcom.android.phone
p560
(dp561
g10
F1.7
ssVcom.qiyi.video
p562
(dp563
g10
I1
ssVcom.tencent.mobileqq
p564
(dp565
g10
I1
ssVcom.eg.android.AlipayGphone
p566
(dp567
g10
F2.7000000000000002
ssg35
(dp568
g10
F0.69999999999999996
sssg57
(dp569
Vcom.ywqc.three
p570
(dp571
g10
F0.90000000000000002
ssVcom.android.mms
p572
(dp573
g10
F0.40000000000000002
ssg25
(dp574
g10
F0.90000000000000002
ssg89
(dp575
g10
I1
ssVcom.tencent.tmgp.qjnn
p576
(dp577
g10
F0.69999999999999996
ssVcom.android.launcher
p578
(dp579
g10
F14.4
ssVcom.tencent.mm
p580
(dp581
g10
F11.100000000000001
sssg59
(dp582
Vcom.android.browser
p583
(dp584
g10
F1.8
ssg11
(dp585
g10
F0.40000000000000002
ssVcom.suning.mobile.ebuy
p586
(dp587
g10
I1
ssVcom.qiyi.video
p588
(dp589
g10
I2
ssVcom.taobao.taobao
p590
(dp591
g10
F0.40000000000000002
ssVcom.android.launcher
p592
(dp593
g10
F111.50000000000009
ssVcom.sina.weibo
p594
(dp595
g10
F4
ssVcom.oppo.preventmode
p596
(dp597
g10
F2.8999999999999999
ssVcom.ywqc.three
p598
(dp599
g10
F0.90000000000000002
ssVcn.wps.moffice_eng
p600
(dp601
g10
F0.69999999999999996
ssVcom.qihoo.freewifi
p602
(dp603
g10
F2.7999999999999998
ssVcom.android.gallery3d
p604
(dp605
g10
F0.40000000000000002
ssVcom.qihoo360.mobilesafe
p606
(dp607
g10
F7.2000000000000011
ssVme.ele
p608
(dp609
g10
F0.90000000000000002
ssVcom.android.phone
p610
(dp611
g10
F8.6999999999999993
ssVcom.tencent.mobileqq
p612
(dp613
g10
F6.8000000000000007
ssVcom.shanbay.words
p614
(dp615
g10
F0.90000000000000002
ssg71
(dp616
g10
F0.40000000000000002
ssVcn.ledongli.ldl
p617
(dp618
g10
I1
ssVcom.qihoo360.contacts
p619
(dp620
g10
F1.8
ssVcom.oppo.weather
p621
(dp622
g10
F0.90000000000000002
ssg198
(dp623
g10
F2.5
ssVcom.android.calendar
p624
(dp625
g10
F0.90000000000000002
ssVcom.tencent.mm
p626
(dp627
g10
F36.999999999999972
ssVcom.android.mms
p628
(dp629
g10
F2.2000000000000002
ssVcom.android.settings
p630
(dp631
g10
F0.90000000000000002
ssVcom.oppo.alarmclock
p632
(dp633
g10
F1.3
sssg61
(dp634
Vcom.android.browser
p635
(dp636
g10
F0.90000000000000002
ssVcom.xiaoenai.app
p637
(dp638
g10
F0.90000000000000002
ssg71
(dp639
g10
F1.3
ssVcom.tencent.mm
p640
(dp641
g10
F9.8000000000000007
ssVcom.sina.weibo
p642
(dp643
g10
F4.4000000000000004
ssVcom.android.mms
p644
(dp645
g10
F3
ssg53
(dp646
g10
F0.40000000000000002
ssVcom.qihoo360.contacts
p647
(dp648
g10
F43.900000000000006
ssVcom.oppo.weather
p649
(dp650
g10
F0.69999999999999996
ssVcom.tencent.tmgp.qjnn
p651
(dp652
g10
F3.7000000000000002
ssVcom.qihoo360.mobilesafe
p653
(dp654
g10
F9.3000000000000007
ssVcom.android.launcher
p655
(dp656
g10
F51.29999999999999
ssVcom.oppo.alarmclock
p657
(dp658
g10
F0.90000000000000002
ssVcom.jzyd.BanTang
p659
(dp660
g10
I1
ssVcom.qiyi.video
p661
(dp662
g10
F1.8999999999999999
ssVcom.tencent.mobileqq
p663
(dp664
g10
F5.0000000000000009
ssVcom.eg.android.AlipayGphone
p665
(dp666
g10
F1.3
ssg67
(dp667
g10
F2.2000000000000002
sssg63
(dp668
Vcom.oppo.preventmode
p669
(dp670
g10
F0.90000000000000002
ssVcom.zhihu.android
p671
(dp672
g10
F1.3999999999999999
ssg69
(dp673
g10
F0.90000000000000002
ssVcom.ywqc.three
p674
(dp675
g10
F1.3999999999999999
ssg268
(dp676
g10
F4.4000000000000004
ssVcom.android.browser
p677
(dp678
g10
F2.7000000000000002
ssVcom.android.calendar
p679
(dp680
g10
F2.7000000000000002
ssVcom.sina.weibo
p681
(dp682
g10
F9.4000000000000004
ssVcom.android.mms
p683
(dp684
g10
F2.2000000000000002
ssVcom.xiaoenai.app
p685
(dp686
g10
F1.6000000000000001
ssVcom.qihoo360.contacts
p687
(dp688
g10
F5.6000000000000005
ssVcom.oppo.weather
p689
(dp690
g10
I1
ssVcom.tencent.tmgp.qjnn
p691
(dp692
g10
F2.7999999999999998
ssg336
(dp693
g10
F0.69999999999999996
ssg440
(dp694
g10
F75.800000000000011
ssVcom.android.phone
p695
(dp696
g10
F4.5
ssg457
(dp697
g10
F0.90000000000000002
ssVcom.android.gallery3d
p698
(dp699
g10
I1
ssVcom.dianping.v1
p700
(dp701
g10
F1.7000000000000002
ssg444
(dp702
g10
F31.299999999999994
ssVcom.shanbay.words
p703
(dp704
g10
F0.69999999999999996
sssg65
(dp705
g8
(dp706
g10
F1.6000000000000001
ssVcom.qihoo.freewifi
p707
(dp708
g10
I1
ssVcn.ledongli.ldl
p709
(dp710
g10
I1
ssVcom.sina.weibo
p711
(dp712
g10
F2.2999999999999998
ssVcom.qihoo360.contacts
p713
(dp714
g10
F0.40000000000000002
ssVcom.android.launcher
p715
(dp716
g10
F10.4
ssVcom.oppo.alarmclock
p717
(dp718
g10
F2.7000000000000002
ssVcom.tencent.mm
p719
(dp720
g10
F7.2000000000000002
sssg67
(dp721
g515
(dp722
g10
F0.40000000000000002
ssg524
(dp723
g10
F1.7
ssg53
(dp724
g10
F4
ssVcom.qihoo360.contacts
p725
(dp726
g10
I1
ssVcom.android.launcher
p727
(dp728
g10
F10.5
ssg530
(dp729
g10
F5.5000000000000009
sssg69
(dp730
Vcom.tencent.mm
p731
(dp732
g10
F3.2000000000000002
ssVcom.tencent.mobileqq
p733
(dp734
g10
F0.90000000000000002
ssVcom.android.launcher
p735
(dp736
g10
F3.7000000000000002
sssg71
(dp737
g539
(dp738
g10
F2.2000000000000002
ssVcom.android.packageinstaller
p739
(dp740
g10
F1.8999999999999999
ssVcom.qihoo360.mobilesafe
p741
(dp742
g10
F9.7999999999999989
ssg85
(dp743
g10
F0.90000000000000002
ssVcom.android.launcher
p744
(dp745
g10
F7
ssVcom.tencent.mm
p746
(dp747
g10
F2.6000000000000001
ssg35
(dp748
g10
F2.2999999999999998
sssg73
(dp749
Vcom.android.launcher
p750
(dp751
g10
I2
sssg75
(dp752
Vcom.tencent.mobileqq
p753
(dp754
g10
F0.40000000000000002
ssVcom.sina.weibo
p755
(dp756
g10
F0.90000000000000002
ssVcom.android.launcher
p757
(dp758
g10
F3.7000000000000002
sssg77
(dp759
Vcom.android.launcher
p760
(dp761
g10
I1
sssg79
(dp762
g677
(dp763
g10
F18.600000000000001
ssVcom.lingan.seeyou
p764
(dp765
g10
F1.8
ssg19
(dp766
g10
F3.5
ssg142
(dp767
g10
F2.2000000000000002
ssVcom.android.launcher
p768
(dp769
g10
F110.2000000000001
ssVcom.sina.weibo
p770
(dp771
g10
F1.6000000000000001
ssVcom.eg.android.AlipayGphone
p772
(dp773
g10
F3.3999999999999999
ssVcom.oppo.preventmode
p774
(dp775
g10
F5.9000000000000004
ssVcom.zhihu.android
p776
(dp777
g10
I3
ssVcom.ywqc.three
p778
(dp779
g10
F2.2999999999999998
ssg385
(dp780
g10
F2.5
ssg51
(dp781
g10
F0.90000000000000002
ssVme.ele
p782
(dp783
g10
F2.7000000000000002
ssVcom.taobao.taobao
p784
(dp785
g10
F1.8999999999999999
ssVcom.tencent.tmgp.qjnn
p786
(dp787
g10
F3.5
ssg61
(dp788
g10
F34.499999999999993
ssg130
(dp789
g10
F6.5000000000000009
ssVcom.shanbay.words
p790
(dp791
g10
F0.90000000000000002
ssVcom.sankuai.meituan.takeoutnew
p792
(dp793
g10
I1
ssVcn.ledongli.ldl
p794
(dp795
g10
F0.90000000000000002
ssg150
(dp796
g10
F28.599999999999987
ssg649
(dp797
g10
F1.3
ssg293
(dp798
g10
F0.90000000000000002
ssVcom.kibey.echo
p799
(dp800
g10
F0.69999999999999996
ssg111
(dp801
g10
F1.8
ssVcom.android.mms
p802
(dp803
g10
F3.2999999999999998
ssVcom.duomi.android
p804
(dp805
g10
F1.7000000000000002
ssg214
(dp806
g10
F2.1000000000000001
sssg81
(dp807
Vcn.ledongli.ldl
p808
(dp809
g10
F0.90000000000000002
ssVcom.tencent.mobileqq
p810
(dp811
g10
F2.7000000000000002
ssVcom.android.launcher
p812
(dp813
g10
F7.7000000000000002
sssg83
(dp814
Vcn.wps.moffice_eng
p815
(dp816
g10
F4.4000000000000004
ssVcom.android.launcher
p817
(dp818
g10
F1.7
sssg85
(dp819
Vcom.qihoo360.mobilesafe
p820
(dp821
g10
F0.69999999999999996
ssVcom.tencent.mm
p822
(dp823
g10
F1.3
ssVcom.qihoo.secstore
p824
(dp825
g10
F0.90000000000000002
ssVcom.android.launcher
p826
(dp827
g10
F2.7000000000000002
sssg87
(dp828
sg89
(dp829
g576
(dp830
g10
F0.90000000000000002
ssVcom.tencent.mm
p831
(dp832
g10
F4.5999999999999996
ssVcom.qihoo360.contacts
p833
(dp834
g10
F0.40000000000000002
ssVcom.android.launcher
p835
(dp836
g10
F2.7000000000000002
sssg91
(dp837
Vcom.android.launcher
p838
(dp839
g10
I2
sssg93
(dp840
g517
(dp841
g10
F0.90000000000000002
ssVcom.android.launcher
p842
(dp843
g10
I1
ssg187
(dp844
g10
F0.69999999999999996
sssg95
(dp845
Vcom.oppo.preventmode
p846
(dp847
g10
I2
ssg17
(dp848
g10
F0.40000000000000002
ssVcom.android.flashlight
p849
(dp850
g10
F0.90000000000000002
ssVcom.qihoo.secstore
p851
(dp852
g10
F0.90000000000000002
ssVcom.tencent.mm
p853
(dp854
g10
F14.700000000000001
ssg331
(dp855
g10
F0.40000000000000002
ssVcom.qihoo360.contacts
p856
(dp857
g10
F0.90000000000000002
ssVcom.qihoo360.mobilesafe
p858
(dp859
g10
I4
ssVcom.android.launcher
p860
(dp861
g10
F19.699999999999999
ssVcom.sina.weibo
p862
(dp863
g10
F1.7
ssVcom.duomi.android
p864
(dp865
g10
F1.8
sssg97
(dp866
g669
(dp867
g10
I1
ssVcom.tencent.mobileqq
p868
(dp869
g10
I1
ssVcom.android.launcher
p870
(dp871
g10
F1.8999999999999999
sssg99
(dp872
Vcom.android.browser
p873
(dp874
g10
F13.800000000000002
ssg11
(dp875
g10
F5.5000000000000009
ssg15
(dp876
g10
F0.69999999999999996
ssg17
(dp877
g10
F0.90000000000000002
ssVcom.qiyi.video
p878
(dp879
g10
F2.7999999999999998
ssg21
(dp880
g10
F1.3
ssg23
(dp881
g10
F0.90000000000000002
ssVcom.qihoo360.mobilesafe
p882
(dp883
g10
F12.500000000000002
ssVcom.android.launcher
p884
(dp885
g10
F323.89999999999935
ssg258
(dp886
g10
F75.900000000000048
ssg33
(dp887
g10
F5.8000000000000007
ssg37
(dp888
g10
F7.3000000000000007
ssg264
(dp889
g10
F11.199999999999999
ssVcom.ywqc.three
p890
(dp891
g10
F1.8
ssg268
(dp892
g10
F2.3999999999999999
ssVcom.qihoo.freewifi
p893
(dp894
g10
F1.8
ssVcom.android.packageinstaller
p895
(dp896
g10
I1
ssg272
(dp897
g10
F1.8
ssVcom.android.gallery3d
p898
(dp899
g10
F3.5
ssg59
(dp900
g10
F19.5
ssVcom.taobao.taobao
p901
(dp902
g10
F11.9
ssVme.ele
p903
(dp904
g10
F25.599999999999991
ssVcom.android.phone
p905
(dp906
g10
F6.7000000000000011
ssVcom.tencent.mobileqq
p907
(dp908
g10
F39.79999999999999
ssVcom.shanbay.words
p909
(dp910
g10
F21.699999999999996
ssVcom.sankuai.meituan.takeoutnew
p911
(dp912
g10
F6.4000000000000004
ssVcom.qihoo.secstore
p913
(dp914
g10
F1.7
ssVcn.ledongli.ldl
p915
(dp916
g10
F11.4
ssg79
(dp917
g10
F32.899999999999977
ssVcom.dianping.v1
p918
(dp919
g10
F5.2999999999999998
ssg293
(dp920
g10
F1.3
ssg528
(dp921
g10
F0.90000000000000002
ssg91
(dp922
g10
F0.90000000000000002
ssVcom.xiaoenai.app
p923
(dp924
g10
F7.9000000000000012
ssg299
(dp925
g10
F15.299999999999999
ssg111
(dp926
g10
F4.5
ssg683
(dp927
g10
F15.900000000000002
ssVcom.duomi.android
p928
(dp929
g10
F6.9000000000000004
ssg113
(dp930
g10
F2.2000000000000002
sssg101
(dp931
Vcom.qihoo360.contacts
p932
(dp933
g10
F0.90000000000000002
ssVcom.nearme.themespace
p934
(dp935
g10
F0.90000000000000002
ssVcom.android.launcher
p936
(dp937
g10
F2.7000000000000002
sssg103
(dp938
Vcom.youdao.dict
p939
(dp940
g10
I1
ssg677
(dp941
g10
F6.3999999999999995
ssVcom.xiaoenai.app
p942
(dp943
g10
F0.90000000000000002
ssVcom.kibey.echo
p944
(dp945
g10
F0.90000000000000002
ssVcom.qihoo360.mobilesafe
p946
(dp947
g10
F2.6000000000000001
ssVcom.suning.mobile.ebuy
p948
(dp949
g10
F3.1000000000000001
ssVcom.tencent.mobileqq
p950
(dp951
g10
F2.6000000000000001
ssVcom.sina.weibo
p952
(dp953
g10
F2.7000000000000002
ssg408
(dp954
g10
I1
ssVcom.tencent.tmgp.qjnn
p955
(dp956
g10
I1
ssg687
(dp957
g10
F14
ssVcom.oppo.weather
p958
(dp959
g10
F1.7
ssVme.ele
p960
(dp961
g10
F2.2999999999999998
ssVcom.taobao.taobao
p962
(dp963
g10
F2.6000000000000001
ssVcom.android.launcher
p964
(dp965
g10
F32.899999999999991
ssg240
(dp966
g10
F2.2999999999999998
ssVcom.qiyi.video
p967
(dp968
g10
I1
ssVcom.tencent.mm
p969
(dp970
g10
F9.9000000000000004
ssVcom.shanbay.words
p971
(dp972
g10
F2.1000000000000001
ssg33
(dp973
g10
F4
ssg115
(dp974
g10
F0.40000000000000002
sssg105
(dp975
Vcom.oppo.preventmode
p976
(dp977
g10
I2
ssg91
(dp978
g10
F0.40000000000000002
ssVcom.zhihu.android
p979
(dp980
g10
F1.3
ssg898
(dp981
g10
F1.7
ssVcom.android.mms
p982
(dp983
g10
F3.1999999999999997
ssVcom.qihoo360.contacts
p984
(dp985
g10
F0.40000000000000002
ssVcom.taobao.taobao
p986
(dp987
g10
F0.40000000000000002
ssVcom.android.launcher
p988
(dp989
g10
F19.899999999999999
ssVcom.android.phone
p990
(dp991
g10
I1
ssVcom.tencent.mm
p992
(dp993
g10
F25.299999999999997
ssVcom.tencent.mobileqq
p994
(dp995
g10
F0.90000000000000002
sssg107
(dp996
Vcom.tencent.mobileqq
p997
(dp998
g10
F2.2999999999999998
ssVcom.android.mms
p999
(dp1000
g10
F1.6000000000000001
ssVcom.qiyi.video
p1001
(dp1002
g10
F1.8999999999999999
ssg83
(dp1003
g10
F0.90000000000000002
ssVcom.android.launcher
p1004
(dp1005
g10
F19.100000000000001
ssVcom.android.phone
p1006
(dp1007
g10
F1.6000000000000001
ssVcom.tencent.mm
p1008
(dp1009
g10
F5.5
sssg109
(dp1010
Vcom.android.browser
p1011
(dp1012
g10
F0.69999999999999996
ssVcom.android.launcher
p1013
(dp1014
g10
I1
ssVcom.qihoo360.contacts
p1015
(dp1016
g10
F2.2999999999999998
sssg111
(dp1017
Vcom.qihoo.freewifi
p1018
(dp1019
g10
I2
ssVcom.tencent.mm
p1020
(dp1021
g10
F2.2999999999999998
ssVcom.android.mms
p1022
(dp1023
g10
I1
ssg77
(dp1024
g10
F1.3
ssVcom.android.launcher
p1025
(dp1026
g10
F4.7000000000000002
ssVcom.sina.weibo
p1027
(dp1028
g10
F0.90000000000000002
sssg113
(dp1029
Vcom.kibey.echo
p1030
(dp1031
g10
I1
ssVcn.wps.moffice_eng
p1032
(dp1033
g10
I1
ssVcom.tencent.mm
p1034
(dp1035
g10
F1.3
ssVcom.android.launcher
p1036
(dp1037
g10
F5
ssVcom.sina.weibo
p1038
(dp1039
g10
I1
ssVcom.duomi.android
p1040
(dp1041
g10
F3.3999999999999999
ssVcom.tencent.mobileqq
p1042
(dp1043
g10
F0.90000000000000002
sssg115
(dp1044
ssS'edge'
p1045
g121
sS'graph'
p1046
(dp1047
sS'adjlist_dict_factory'
p1048
g118
sS'adj'
p1049
g121
sS'pred'
p1050
(dp1051
g8
(dp1052
Vcom.youdao.dict
p1053
g165
sg517
g188
sg93
g844
sVcom.ywqc.three
p1054
g426
sVcom.greenpoint.android.mc10086.activity
p1055
g1012
sVcom.qihoo.freewifi
p1056
g463
sVcom.tencent.mm
p1057
g874
sg948
g182
sg683
g941
sVme.ele
p1058
g511
sg687
g763
sVcom.taobao.taobao
p1059
g226
sVcom.tencent.tmgp.qjnn
p1060
g584
sg142
g538
sVcom.android.launcher
p1061
g248
sVcom.android.phone
p1062
g636
sVcom.tencent.mobileqq
p1063
g678
sg65
g706
sVcom.eg.android.AlipayGphone
p1064
g355
sVcn.wps.moffice_eng
p1065
g448
ssg11
(dp1066
Vcom.tencent.tmgp.qjnn
p1067
g585
sVcom.tencent.mm
p1068
g875
sg159
g765
sVcom.android.launcher
p1069
g249
ssg13
(dp1070
Vcom.android.mms
p1071
g940
sVcom.android.launcher
p1072
g250
ssg15
(dp1073
Vcom.android.browser
p1074
g125
sg134
g949
sVcom.qihoo360.mobilesafe
p1075
g542
sVcom.tencent.tmgp.qjnn
p1076
g587
sVcom.android.launcher
p1077
g251
sVcom.tencent.mm
p1078
g876
ssg17
(dp1079
Vcom.tencent.mm
p1080
g877
sVme.ele
p1081
g518
sVcom.kibey.echo
p1082
g848
sg93
g841
sVcom.android.launcher
p1083
g252
ssg19
(dp1084
Vcom.zhihu.android
p1085
g415
sVcom.xiaoenai.app
p1086
g1002
sg515
g467
sVcom.tencent.mm
p1087
g879
sVcom.android.mms
p1088
g968
sVcom.tencent.tmgp.qjnn
p1089
g589
sVcom.qihoo360.contacts
p1090
g766
sg53
g521
sVcom.qihoo360.mobilesafe
p1091
g563
sVcom.android.launcher
p1092
g253
sVcom.android.phone
p1093
g662
sVcom.sina.weibo
p1094
g343
ssg21
(dp1095
Vcom.tencent.mm
p1096
g880
sVcom.android.launcher
p1097
g254
ssg23
(dp1098
Vcom.tencent.mm
p1099
g881
sVcom.android.launcher
p1100
g255
ssg25
(dp1101
g227
g502
sVcn.ledongli.ldl
p1102
g574
sVcom.sina.weibo
p1103
g337
sg231
g963
sVcom.tencent.tmgp.qjnn
p1104
g591
sVcom.qihoo360.contacts
p1105
g785
sVme.ele
p1106
g523
sVcom.qihoo360.mobilesafe
p1107
g543
sVcom.android.launcher
p1108
g256
sVcom.tencent.mm
p1109
g902
sg703
g987
sg33
g365
sVcom.tencent.mobileqq
p1110
g693
ssg27
(dp1111
g8
g145
sVcom.lingan.seeyou
p1112
g162
sVcom.youdao.dict
p1113
g175
sg948
g185
sg17
g192
sg19
g211
sg21
g222
sVcom.taobao.taobao
p1114
g239
sg29
g315
sg31
g345
sg33
g367
sg35
g377
sVcom.oppo.preventmode
p1115
g404
sg39
g419
sg41
g441
sg1065
g456
sg45
g471
sg49
g491
sg51
g506
sg53
g527
sg55
g559
sg57
g579
sg59
g593
sg610
g656
sVcom.tencent.mm
p1116
g885
sg65
g716
sg67
g728
sg69
g736
sg71
g745
sg73
g751
sg75
g758
sg77
g761
sg79
g769
sVcom.oppo.weather
p1117
g813
sVcom.android.fileexplorer
p1118
g818
sg85
g827
sg89
g836
sg91
g839
sg93
g843
sg95
g861
sg679
g871
sg431
g694
sg101
g937
sg683
g965
sVcom.shanbay.words
p1119
g989
sg107
g1005
sg1055
g1014
sg111
g1026
sg113
g1037
ssg29
(dp1120
Vcom.android.launcher
p1121
g257
ssg31
(dp1122
g1115
g407
sVcom.android.browser
p1123
g133
sg299
g863
sVcom.tencent.mobileqq
p1124
g682
sVcom.android.phone
p1125
g643
sg331
g953
sVcom.qihoo360.mobilesafe
p1126
g554
sVcom.qihoo360.contacts
p1127
g771
sVcom.tencent.tmgp.qjnn
p1128
g595
sVcom.qiyi.video
p1129
g203
sg403
g259
sVfm.xiami.main
p1130
g756
sg214
g1039
sg391
g886
sVcom.duomi.android
p1131
g712
sg630
g1028
ssg33
(dp1132
Vcom.android.browser
p1133
g155
sVcom.android.mms
p1134
g973
sg360
g773
sg590
g245
sVme.ele
p1135
g533
sVcom.qihoo360.mobilesafe
p1136
g567
sVcom.android.launcher
p1137
g260
sVcom.android.phone
p1138
g666
sVcom.tencent.mm
p1139
g887
ssg35
(dp1140
Vcom.android.launcher
p1141
g261
sVcom.qihoo.secstore
p1142
g748
sVcom.qihoo360.mobilesafe
p1143
g568
ssg37
(dp1144
Vcom.ywqc.three
p1145
g424
sVcom.kibey.echo
p1146
g847
sVcom.android.calendar
p1147
g867
sVcom.tencent.mobileqq
p1148
g670
sVcom.oppo.camera
p1149
g483
sg488
g496
sVcom.qihoo360.contacts
p1150
g775
sVcom.tencent.tmgp.qjnn
p1151
g597
sg588
g197
sVcom.android.launcher
p1152
g263
sg99
g888
sVcom.shanbay.words
p1153
g977
ssg39
(dp1154
Vcom.sina.weibo
p1155
g318
sVcom.qihoo360.contacts
p1156
g777
sg418
g265
sg420
g889
sVcom.shanbay.words
p1157
g980
sg411
g672
ssg41
(dp1158
g423
g382
sVcom.android.browser
p1159
g124
sVcn.ledongli.ldl
p1160
g571
sg431
g675
sVcom.sina.weibo
p1161
g341
sg438
g779
sVcom.tencent.tmgp.qjnn
p1162
g599
sVcom.android.launcher
p1163
g267
sVcom.tencent.mm
p1164
g891
ssg43
(dp1165
Vcom.tencent.mm
p1166
g892
sg453
g816
sg206
g601
sVcom.android.launcher
p1167
g269
sg457
g1033
sVcom.tencent.mobileqq
p1168
g676
ssg45
(dp1169
Vcom.oppo.preventmode
p1170
g386
sVcom.android.browser
p1171
g127
sVcom.ywqc.three
p1172
g430
sVcom.youdao.dict
p1173
g169
sVcom.sina.weibo
p1174
g326
sVcom.tencent.tmgp.qjnn
p1175
g603
sg395
g780
sg53
g516
sVcom.android.launcher
p1176
g270
sVcom.android.settings
p1177
g1019
sVcom.tencent.mm
p1178
g894
sVcom.duomi.android
p1179
g708
sg67
g722
ssg47
(dp1180
g746
g896
sVcom.qihoo360.mobilesafe
p1181
g548
sVcom.android.launcher
p1182
g271
sVcom.qihoo.secstore
p1183
g740
ssg49
(dp1184
g482
g402
sVcom.tencent.mm
p1185
g897
sVcom.android.launcher
p1186
g273
ssg51
(dp1187
Vcom.sina.weibo
p1188
g322
sVcom.oppo.camera
p1189
g489
sVcom.qihoo360.contacts
p1190
g781
sVcom.tencent.tmgp.qjnn
p1191
g605
sVcom.taobao.taobao
p1192
g228
sVcom.android.launcher
p1193
g274
sVcom.tencent.mm
p1194
g899
sVcom.shanbay.words
p1195
g981
sVcom.tencent.mobileqq
p1196
g699
ssg53
(dp1197
g510
g137
sVcom.sina.weibo
p1198
g339
sVcom.android.mms
p1199
g961
sVcom.qihoo360.contacts
p1200
g783
sVcom.tencent.tmgp.qjnn
p1201
g609
sVcom.android.launcher
p1202
g275
sVcom.android.phone
p1203
g646
sVcom.tencent.mm
p1204
g904
sg532
g363
sg67
g724
ssg55
(dp1205
g1113
g173
sVcom.android.browser
p1206
g143
sVcom.ywqc.three
p1207
g435
sg539
g859
sg71
g742
sVcom.tencent.mm
p1208
g883
sg47
g480
sVcom.android.mms
p1209
g947
sVme.ele
p1210
g525
sVcom.qihoo360.contacts
p1211
g767
sVcom.tencent.tmgp.qjnn
p1212
g607
sg85
g821
sVcom.android.launcher
p1213
g276
sg560
g654
sVcom.qiyi.video
p1214
g209
sVcom.sina.weibo
p1215
g330
sg534
g723
ssg57
(dp1216
Vcom.android.browser
p1217
g129
sVcom.qihoo360.mobilesafe
p1218
g545
sVcom.qiyi.video
p1219
g201
sVcom.oppo.weather
p1220
g809
sVcom.tencent.tmgp.qjnn
p1221
g618
sVcom.qihoo360.contacts
p1222
g795
sVcom.android.launcher
p1223
g287
sg216
g916
sVcom.duomi.android
p1224
g710
ssg59
(dp1225
g596
g400
sVcom.android.browser
p1226
g141
sg674
g437
sg429
g469
sVcn.ledongli.ldl
p1227
g577
sVcom.tencent.mobileqq
p1228
g692
sVcom.sina.weibo
p1229
g334
sVcom.qihoo360.mobilesafe
p1230
g556
sVcom.android.gallery3d
p1231
g504
sg1209
g956
sg619
g787
sg89
g830
sVcom.taobao.taobao
p1232
g237
sg440
g279
sg610
g652
sVcom.qiyi.video
p1233
g207
sg444
g900
sVcom.eg.android.AlipayGphone
p1234
g359
ssg61
(dp1235
Vcom.oppo.preventmode
p1236
g406
sg635
g147
sVcom.xiaoenai.app
p1237
g1007
sVcom.ywqc.three
p1238
g443
sVcom.tencent.mobileqq
p1239
g696
sVcom.tencent.mm
p1240
g906
sVcom.qihoo360.mobilesafe
p1241
g561
sg231
g966
sVcom.qiyi.video
p1242
g213
sg962
g241
sVcom.tencent.tmgp.qjnn
p1243
g611
sVcom.qihoo360.contacts
p1244
g788
sVcom.android.launcher
p1245
g280
sg1215
g347
sVcom.shanbay.words
p1246
g991
ssg63
(dp1247
g1011
g131
sVcom.youdao.dict
p1248
g171
sVone.hh.oneclient
p1249
g194
sg1233
g219
sg27
g281
sg31
g328
sVcom.oppo.preventmode
p1250
g390
sg39
g412
sg41
g432
sg43
g450
sg1056
g465
sg1149
g487
sg488
g508
sVcom.qihoo360.mobilesafe
p1251
g565
sVcom.tencent.tmgp.qjnn
p1252
g613
sg442
g664
sVcom.tencent.mm
p1253
g908
sVcom.shanbay.words
p1254
g995
sg69
g734
sVcom.qihoo360.contacts
p1255
g789
sg958
g811
sVcom.xiaoenai.app
p1256
g998
sg679
g869
sVcom.android.mms
p1257
g951
sg1130
g754
sg457
g1043
ssg65
(dp1258
g8
g153
sVcom.kibey.echo
p1259
g865
sg711
g352
sVcom.qihoo360.contacts
p1260
g805
sg1061
g282
sVcom.oppo.alarmclock
p1261
g1041
sVcom.tencent.mm
p1262
g929
ssg67
(dp1263
g1210
g535
sg530
g912
sg725
g793
sg1202
g283
sg1203
g667
ssg69
(dp1264
Vcom.oppo.preventmode
p1265
g380
sVcom.sina.weibo
p1266
g320
sVcom.tencent.mobileqq
p1267
g673
sVcom.android.launcher
p1268
g284
sVcom.kibey.echo
p1269
g850
ssg71
(dp1270
Vcom.ywqc.three
p1271
g428
sg539
g852
sVcom.youdao.dict
p1272
g167
sg739
g478
sg1241
g541
sVcom.tencent.tmgp.qjnn
p1273
g616
sg85
g825
sg744
g286
sg560
g639
sg746
g914
sg35
g375
ssg73
(dp1274
Vcom.android.launcher
p1275
g278
ssg75
(dp1276
Vcom.android.launcher
p1277
g288
ssg77
(dp1278
g229
g1024
sg101
g935
sVcom.android.launcher
p1279
g289
sVcom.taobao.taobao
p1280
g233
ssg79
(dp1281
g677
g139
sVcom.lingan.seeyou
p1282
g160
sg19
g205
sg1114
g235
sVcom.android.launcher
p1283
g290
sg258
g335
sVcom.eg.android.AlipayGphone
p1284
g361
sg1170
g396
sVcom.zhihu.android
p1285
g417
sVcom.ywqc.three
p1286
g439
sVcn.wps.moffice_eng
p1287
g452
sVme.ele
p1288
g514
sg142
g551
sVcom.tencent.tmgp.qjnn
p1289
g620
sg61
g648
sg1063
g688
sVcom.shanbay.words
p1290
g985
sVcom.sankuai.meituan.takeoutnew
p1291
g726
sg89
g834
sg95
g857
sg391
g917
sVcom.oppo.market
p1292
g933
sg683
g957
sVcom.duomi.android
p1293
g714
sg109
g1016
ssg81
(dp1294
Vcom.oppo.preventmode
p1295
g398
sg1207
g436
sVcom.tencent.mm
p1296
g921
sVcom.android.mms
p1297
g959
sVme.ele
p1298
g529
sVcom.qihoo360.contacts
p1299
g797
sVcom.tencent.tmgp.qjnn
p1300
g622
sg55
g552
sg1213
g291
sVcom.android.phone
p1301
g650
sg810
g690
ssg83
(dp1302
g107
g1003
sVcn.wps.moffice_eng
p1303
g454
sVcom.android.launcher
p1304
g292
ssg85
(dp1305
Vcom.android.launcher
p1306
g294
sVcom.qihoo360.contacts
p1307
g798
sVcom.tencent.mm
p1308
g920
sVcom.qihoo.secstore
p1309
g743
sVcom.qihoo360.mobilesafe
p1310
g557
ssg87
(dp1311
Vcom.android.launcher
p1312
g295
sVcom.android.phone
p1313
g660
ssg89
(dp1314
g1227
g575
sVcom.tencent.mobileqq
p1315
g701
sg831
g919
sVcom.android.launcher
p1316
g296
ssg91
(dp1317
Vcom.tencent.mm
p1318
g922
sg1119
g978
sg988
g297
ssg93
(dp1319
g1081
g512
sVcom.android.launcher
p1320
g298
ssg95
(dp1321
g846
g384
sg17
g190
sg166
g738
sVcom.sina.weibo
p1322
g324
sg331
g945
sVcom.qihoo360.mobilesafe
p1323
g540
sVcom.qihoo360.contacts
p1324
g800
sVcom.android.launcher
p1325
g300
sg1261
g1031
sVcom.tencent.mm
p1326
g925
ssg97
(dp1327
g669
g388
sVcom.tencent.tmgp.qjnn
p1328
g625
sVcom.tencent.mobileqq
p1329
g680
sVcom.android.launcher
p1330
g301
ssg99
(dp1331
Vcom.android.browser
p1332
g151
sg1112
g158
sg1053
g177
sg1219
g217
sg522
g243
sVcom.android.launcher
p1333
g303
sg29
g313
sVcom.sina.weibo
p1334
g350
sg1284
g369
sg1115
g392
sg39
g421
sg41
g445
sg1065
g460
sg707
g473
sg895
g476
sg49
g493
sVcom.android.gallery3d
p1335
g500
sVme.ele
p1336
g531
sVcom.qihoo360.mobilesafe
p1337
g547
sVcom.tencent.tmgp.qjnn
p1338
g627
sg442
g641
sg431
g702
sVcom.shanbay.words
p1339
g993
sVcom.sankuai.meituan.takeoutnew
p1340
g729
sg69
g732
sVcom.qihoo.secstore
p1341
g747
sg57
g581
sVcom.qihoo360.contacts
p1342
g796
sVcom.dianping.v1
p1343
g832
sVcom.Qunar
p1344
g823
sVcom.xiaoenai.app
p1345
g1009
sVcom.kibey.echo
p1346
g854
sVcom.android.settings
p1347
g1021
sg572
g970
sg928
g720
sVcom.oppo.alarmclock
p1348
g1035
ssg101
(dp1349
Vcom.android.launcher
p1350
g304
ssg103
(dp1351
Vcom.oppo.preventmode
p1352
g394
sVcom.zhihu.android
p1353
g414
sVcom.xiaoenai.app
p1354
g1000
sVcom.ywqc.three
p1355
g434
sg299
g855
sg15
g183
sg1074
g135
sg57
g573
sVcom.tencent.mm
p1356
g927
sg862
g332
sg1075
g549
sVme.ele
p1357
g520
sVcom.qihoo360.contacts
p1358
g803
sVcom.tencent.tmgp.qjnn
p1359
g629
sVcom.android.phone
p1360
g645
sg1114
g232
sVcom.android.launcher
p1361
g305
sg408
g1023
sg1063
g684
sg1339
g983
sg33
g357
ssg105
(dp1362
Vcom.youdao.dict
p1363
g179
sVcom.tencent.mobileqq
p1364
g704
sg982
g972
sg984
g791
sVcom.tencent.tmgp.qjnn
p1365
g615
sVcom.android.launcher
p1366
g306
sg992
g910
sVcom.eg.android.AlipayGphone
p1367
g371
ssg107
(dp1368
Vcom.tencent.mm
p1369
g924
sVcom.oppo.camera
p1370
g485
sg604
g498
sVcom.android.mms
p1371
g943
sVcom.qiyi.video
p1372
g199
sVcom.tencent.tmgp.qjnn
p1373
g623
sg1304
g307
sVcom.android.phone
p1374
g638
sVcom.tencent.mobileqq
p1375
g686
ssg109
(dp1376
sg111
(dp1377
Vcom.oppo.preventmode
p1378
g409
sVcom.android.mms
p1379
g954
sVcom.qihoo360.contacts
p1380
g801
sVcom.tencent.tmgp.qjnn
p1381
g631
sg1280
g230
sVcom.android.launcher
p1382
g308
sVcom.tencent.mm
p1383
g926
ssg113
(dp1384
g873
g149
sg600
g458
sg202
g348
sVcom.qihoo360.contacts
p1385
g806
sVcom.tencent.tmgp.qjnn
p1386
g633
sVcom.qiyi.video
p1387
g215
sVcom.android.launcher
p1388
g309
sVcom.android.phone
p1389
g658
sg1116
g930
sVcom.duomi.android
p1390
g718
sg218
g697
ssg115
(dp1391
g356
g974
sg366
g310
sVcom.eg.android.AlipayGphone
p1392
g372
sg364
g246
sssb.