ccopy_reg
_reconstructor
p1
(cnetworkx.classes.digraph
DiGraph
p2
c__builtin__
object
p3
NtRp4
(dp5
S'node'
p6
(dp7
Vcom.android.browser
p8
(dp9
S'weight'
p10
F0.0048845798183458234
ssVcom.android.updater
p11
(dp12
g10
F4.3639594553254923e-07
ssVcom.xiaomi.smarthome
p13
(dp14
g10
F3.272969591494119e-05
ssVcom.duowan.mobile
p15
(dp16
g10
F0.00013440995122402516
ssVcom.snda.wifilocating
p17
(dp18
g10
F6.6332183720947487e-05
ssVcom.tencent.token
p19
(dp20
g10
F0.00037311853343032961
ssVcom.eg.android.AlipayGphone
p21
(dp22
g10
F0.0010307672233478813
ssVcn.wps.moffice_eng
p23
(dp24
g10
F0.0025638261800037267
ssVcom.android.packageinstaller
p25
(dp26
g10
F1.8765025657899617e-05
ssVcom.baidu.searchbox
p27
(dp28
g10
F0.3358568656210329
ssVcom.taobao.taobao
p29
(dp30
g10
F4.3639594553254923e-07
ssVcom.android.incallui
p31
(dp32
g10
F0.004951784793957836
ssVcom.android.phone
p33
(dp34
g10
F2.6620152677485505e-05
ssVcom.miui.gallery
p35
(dp36
g10
F7.6369290468196113e-05
ssVcom.tencent.mobileqq
p37
(dp38
g10
F0.30945491091631366
ssVcom.miui.antispam
p39
(dp40
g10
F2.6183756731952957e-06
ssVcom.kugou.android
p41
(dp42
g10
F0.016536787960010423
ssVcom.cootek.smartdialer
p43
(dp44
g10
F0.0048383218481193738
ssVcom.android.fileexplorer
p45
(dp46
g10
F3.7093655370266687e-05
ssVcom.changyou.zzb
p47
(dp48
g10
F0.027609025890062262
ssVcom.miui.home
p49
(dp50
g10
F0.25779435888417046
ssVcom.android.calendar
p51
(dp52
g10
F4.800355400858042e-05
ssVcom.tencent.mm
p53
(dp54
g10
F0.014125263964997555
ssVorg.zywx.wbpalmstar.widgetone.uex11368919
p55
(dp56
g10
F1.3528274311509027e-05
ssVcom.android.mms
p57
(dp58
g10
F0.00097098097880992209
ssVcom.baidu.BaiduMap
p59
(dp60
g10
F0.00034257081724305117
ssVcom.qzone
p61
(dp62
g10
F0.00030591355781831703
ssVcom.duowan.lolbox
p63
(dp64
g10
F0.0031568882699824614
ssVcom.android.settings
p65
(dp66
g10
F0.013159519737534023
ssVcom.android.quicksearchbox
p67
(dp68
g10
F1.7455837821301969e-06
ssVcom.android.camera
p69
(dp70
g10
F0.00010473502692781182
ssVcom.tencent.qt.qtl
p71
(dp72
g10
F0.0014806914431919397
sssS'graph'
p73
(dp74
sS'succ'
p75
(dp76
g8
(dp77
g23
(dp78
g10
F3.6000000000000001
ssVcom.tencent.mm
p79
(dp80
g10
F3.1000000000000001
ssg25
(dp81
g10
F0.90000000000000002
ssVcom.android.mms
p82
(dp83
g10
I1
ssVcom.baidu.searchbox
p84
(dp85
g10
F3.7999999999999998
ssVcom.android.incallui
p86
(dp87
g10
F1.7
ssVcom.android.settings
p88
(dp89
g10
F0.40000000000000002
ssVcom.android.camera
p90
(dp91
g10
F0.69999999999999996
ssVcom.miui.home
p92
(dp93
g10
F31.499999999999993
ssVcom.tencent.mobileqq
p94
(dp95
g10
F8.7000000000000011
ssg55
(dp96
g10
F0.69999999999999996
sssg11
(dp97
Vcom.tencent.mm
p98
(dp99
g10
I1
sssg13
(dp100
Vcom.android.settings
p101
(dp102
g10
F0.40000000000000002
ssVcom.kugou.android
p103
(dp104
g10
F3.7999999999999998
ssVcom.baidu.searchbox
p105
(dp106
g10
I1
ssVcom.android.quicksearchbox
p107
(dp108
g10
I1
ssVcom.miui.home
p109
(dp110
g10
F7.1000000000000005
ssVcom.tencent.mm
p111
(dp112
g10
F1.8
ssVcom.eg.android.AlipayGphone
p113
(dp114
g10
F2.6000000000000001
ssVcom.tencent.mobileqq
p115
(dp116
g10
F1.8
sssg15
(dp117
Vcom.tencent.mm
p118
(dp119
g10
F0.40000000000000002
ssVcom.miui.home
p120
(dp121
g10
F2.7000000000000002
ssVcom.tencent.mobileqq
p122
(dp123
g10
F1.8
sssg17
(dp124
Vcom.android.settings
p125
(dp126
g10
F0.40000000000000002
ssVcom.miui.home
p127
(dp128
g10
F5.4000000000000004
ssVcom.tencent.mobileqq
p129
(dp130
g10
F1.3
ssVcom.baidu.searchbox
p131
(dp132
g10
F0.90000000000000002
ssVcom.android.browser
p133
(dp134
g10
F0.90000000000000002
sssg19
(dp135
Vcom.tencent.mobileqq
p136
(dp137
g10
F0.69999999999999996
ssVcom.miui.home
p138
(dp139
g10
I4
ssVcom.tencent.mm
p140
(dp141
g10
F1.3
ssVcom.baidu.searchbox
p142
(dp143
g10
F0.90000000000000002
sssg21
(dp144
Vcom.miui.gallery
p145
(dp146
g10
F0.90000000000000002
ssVcom.android.mms
p147
(dp148
g10
F9.4000000000000004
ssVcom.kugou.android
p149
(dp150
g10
F2.3999999999999999
ssVcom.xiaomi.smarthome
p151
(dp152
g10
F2.3999999999999999
ssVcom.changyou.zzb
p153
(dp154
g10
F1.3
ssVcom.miui.home
p155
(dp156
g10
F10.6
sssg23
(dp157
Vcom.android.browser
p158
(dp159
g10
F4.2999999999999998
ssVcom.tencent.mobileqq
p160
(dp161
g10
F2.6000000000000001
ssg57
(dp162
g10
F0.90000000000000002
ssg84
(dp163
g10
F4.4000000000000004
ssVcom.snda.wifilocating
p164
(dp165
g10
F0.40000000000000002
ssVcom.miui.home
p166
(dp167
g10
F19.699999999999996
ssg79
(dp168
g10
F1.8
sssg25
(dp169
Vcom.android.browser
p170
(dp171
g10
F0.90000000000000002
ssVcom.tencent.mobileqq
p172
(dp173
g10
I1
ssg55
(dp174
g10
I1
ssVcom.baidu.searchbox
p175
(dp176
g10
F0.69999999999999996
ssVcom.miui.home
p177
(dp178
g10
F1.8
ssVcom.tencent.mm
p179
(dp180
g10
F1.7
sssg27
(dp181
g8
(dp182
g10
F14.000000000000005
ssVcom.xiaomi.smarthome
p183
(dp184
g10
F2.8999999999999999
ssg164
(dp185
g10
F0.90000000000000002
ssVcom.eg.android.AlipayGphone
p186
(dp187
g10
F0.90000000000000002
ssg23
(dp188
g10
F2.6000000000000001
ssVcom.android.packageinstaller
p189
(dp190
g10
F1.7
ssVcom.tencent.token
p191
(dp192
g10
F1.3
ssVcom.android.incallui
p193
(dp194
g10
F28.999999999999989
ssVcom.android.phone
p195
(dp196
g10
F4.7000000000000002
ssg145
(dp197
g10
F0.40000000000000002
ssVcom.tencent.mobileqq
p198
(dp199
g10
F646.90000000000066
ssVcom.tencent.mm
p200
(dp201
g10
F75.80000000000004
ssVcom.kugou.android
p202
(dp203
g10
F9.9000000000000021
ssVcom.cootek.smartdialer
p204
(dp205
g10
F16.899999999999999
ssVcom.android.fileexplorer
p206
(dp207
g10
F2.2000000000000002
ssVcom.changyou.zzb
p208
(dp209
g10
F4.4000000000000004
ssVcom.miui.home
p210
(dp211
g10
F274.89999999999941
ssVcom.android.calendar
p212
(dp213
g10
F4.4000000000000004
ssVcom.android.settings
p214
(dp215
g10
F15.799999999999999
ssVcom.android.mms
p216
(dp217
g10
F14.4
ssVcom.qzone
p218
(dp219
g10
F9.2000000000000011
ssg107
(dp220
g10
F0.69999999999999996
ssVcom.android.camera
p221
(dp222
g10
F3.2999999999999998
sssg29
(dp223
Vcom.tencent.mm
p224
(dp225
g10
F0.69999999999999996
ssVcom.miui.home
p226
(dp227
g10
F1.3999999999999999
ssVcom.tencent.mobileqq
p228
(dp229
g10
F0.90000000000000002
sssg31
(dp230
Vcom.android.browser
p231
(dp232
g10
I1
ssVcom.tencent.mm
p233
(dp234
g10
F7.4000000000000012
ssg11
(dp235
g10
F0.40000000000000002
ssg216
(dp236
g10
F2
ssVcom.baidu.BaiduMap
p237
(dp238
g10
I1
ssVcom.baidu.searchbox
p239
(dp240
g10
F8.9000000000000004
ssVcom.cootek.smartdialer
p241
(dp242
g10
F70.000000000000014
ssVcom.android.phone
p243
(dp244
g10
F14.400000000000004
ssVcom.miui.home
p245
(dp246
g10
F39.099999999999973
ssVcom.tencent.mobileqq
p247
(dp248
g10
F19.199999999999999
ssg21
(dp249
g10
F0.69999999999999996
ssVcom.android.settings
p250
(dp251
g10
F2.5999999999999996
sssg33
(dp252
Vcom.tencent.mobileqq
p253
(dp254
g10
F2.6999999999999997
ssVcom.android.mms
p255
(dp256
g10
F0.40000000000000002
ssVcom.baidu.searchbox
p257
(dp258
g10
F1.1000000000000001
ssVcom.cootek.smartdialer
p259
(dp260
g10
F25.999999999999986
ssVcom.android.incallui
p261
(dp262
g10
F54.999999999999993
ssVcom.miui.home
p263
(dp264
g10
F10.299999999999999
ssVcom.tencent.mm
p265
(dp266
g10
F1.5
sssg35
(dp267
Vcom.miui.home
p268
(dp269
g10
I3
ssVcom.tencent.mobileqq
p270
(dp271
g10
F0.90000000000000002
sssg37
(dp272
Vcom.android.browser
p273
(dp274
g10
F7.8000000000000016
ssVcom.xiaomi.smarthome
p275
(dp276
g10
F2.7000000000000002
ssg17
(dp277
g10
F2.6000000000000001
ssVcom.tencent.token
p278
(dp279
g10
F4.0999999999999996
ssVcom.eg.android.AlipayGphone
p280
(dp281
g10
F0.40000000000000002
ssVcom.android.packageinstaller
p282
(dp283
g10
I1
ssVcom.baidu.searchbox
p284
(dp285
g10
F656.69999999999993
ssVcom.android.incallui
p286
(dp287
g10
F29.999999999999982
ssVcom.android.phone
p288
(dp289
g10
F9.0000000000000018
ssVcom.miui.home
p290
(dp291
g10
F485.29999999999774
ssg200
(dp292
g10
F123.8000000000002
ssg39
(dp293
g10
F1.3
ssVcom.kugou.android
p294
(dp295
g10
F27.699999999999999
ssVcom.cootek.smartdialer
p296
(dp297
g10
F46.299999999999969
ssg206
(dp298
g10
F0.40000000000000002
ssg208
(dp299
g10
F3.6000000000000001
ssVcom.miui.gallery
p300
(dp301
g10
F0.90000000000000002
ssg51
(dp302
g10
F4.5999999999999996
ssVcom.android.settings
p303
(dp304
g10
F26.799999999999994
ssVcom.tencent.qt.qtl
p305
(dp306
g10
F2.2999999999999998
ssVcom.android.mms
p307
(dp308
g10
F24.699999999999999
ssVcom.baidu.BaiduMap
p309
(dp310
g10
I2
ssg218
(dp311
g10
F11.399999999999999
ssVcom.duowan.lolbox
p312
(dp313
g10
I2
ssVcom.android.camera
p314
(dp315
g10
F13.699999999999999
sssg39
(dp316
Vcom.tencent.mm
p317
(dp318
g10
F0.69999999999999996
ssVcom.miui.home
p319
(dp320
g10
F1.7000000000000002
ssVcom.android.mms
p321
(dp322
g10
F4.4000000000000004
sssg41
(dp323
Vcom.cootek.smartdialer
p324
(dp325
g10
F1.7000000000000002
ssVcom.tencent.mobileqq
p326
(dp327
g10
F35.29999999999999
ssg189
(dp328
g10
F0.69999999999999996
ssVcom.android.mms
p329
(dp330
g10
F1.7
ssVcom.baidu.searchbox
p331
(dp332
g10
F5.2000000000000002
ssVcom.xiaomi.smarthome
p333
(dp334
g10
F4.0999999999999996
ssVcom.android.incallui
p335
(dp336
g10
F0.69999999999999996
ssVcom.qzone
p337
(dp338
g10
F3
ssVcom.miui.home
p339
(dp340
g10
F27.099999999999991
ssVcom.tencent.mm
p341
(dp342
g10
F3.5999999999999996
ssg113
(dp343
g10
F3.9999999999999996
sssg43
(dp344
Vcom.android.calendar
p345
(dp346
g10
F0.40000000000000002
ssVcom.tencent.mobileqq
p347
(dp348
g10
F22.199999999999996
ssg11
(dp349
g10
F0.69999999999999996
ssVcom.changyou.zzb
p350
(dp351
g10
I1
ssg147
(dp352
g10
F1.3
ssg257
(dp353
g10
F7.5
ssVcom.android.incallui
p354
(dp355
g10
F95.000000000000071
ssVcom.qzone
p356
(dp357
g10
F1.3
ssg33
(dp358
g10
F57.499999999999986
ssVcom.android.camera
p359
(dp360
g10
F0.69999999999999996
ssVcom.miui.home
p361
(dp362
g10
F78.80000000000004
ssVcom.tencent.mm
p363
(dp364
g10
F8.1000000000000014
ssg21
(dp365
g10
F0.90000000000000002
ssVcom.android.settings
p366
(dp367
g10
F0.40000000000000002
sssg45
(dp368
Vcom.tencent.mm
p369
(dp370
g10
F1.6000000000000001
ssg49
(dp371
g10
F7.700000000000002
ssg37
(dp372
g10
F2.7999999999999998
ssVcn.wps.moffice_eng
p373
(dp374
g10
F2.8999999999999999
sssg47
(dp375
Vcom.android.calendar
p376
(dp377
g10
F0.69999999999999996
ssVcom.tencent.mm
p378
(dp379
g10
F3.3999999999999999
ssVcom.android.mms
p380
(dp381
g10
F2.5
ssVcom.baidu.searchbox
p382
(dp383
g10
F6.5000000000000009
ssg43
(dp384
g10
F2.7999999999999998
ssVcom.android.incallui
p385
(dp386
g10
F1.8
ssVcom.android.phone
p387
(dp388
g10
F0.69999999999999996
ssVcom.miui.home
p389
(dp390
g10
F26.099999999999998
ssVcom.tencent.mobileqq
p391
(dp392
g10
F11.500000000000002
ssVcom.eg.android.AlipayGphone
p393
(dp394
g10
F0.90000000000000002
sssg49
(dp395
g8
(dp396
g10
F39.699999999999996
ssg11
(dp397
g10
F0.90000000000000002
ssg151
(dp398
g10
F7
ssg15
(dp399
g10
I3
ssg17
(dp400
g10
F7.8000000000000007
ssg19
(dp401
g10
F6.4000000000000004
ssg21
(dp402
g10
F16.199999999999996
ssg23
(dp403
g10
F11.1
ssg25
(dp404
g10
F4.5
ssVcom.baidu.searchbox
p405
(dp406
g10
F343.39999999999878
ssg29
(dp407
g10
F1.7
ssg31
(dp408
g10
F106.20000000000017
ssg33
(dp409
g10
F38.499999999999964
ssg35
(dp410
g10
F5.2999999999999998
ssg37
(dp411
g10
F550.29999999999745
ssVcom.kugou.android
p412
(dp413
g10
F20.299999999999994
ssg43
(dp414
g10
F138.7000000000001
ssVcom.android.fileexplorer
p415
(dp416
g10
F6.1000000000000005
ssg47
(dp417
g10
F23.199999999999999
ssg51
(dp418
g10
F12.800000000000001
ssg53
(dp419
g10
F224.99999999999997
ssg55
(dp420
g10
F0.90000000000000002
ssg57
(dp421
g10
F38.399999999999984
ssg59
(dp422
g10
F5.7000000000000002
ssg61
(dp423
g10
F13.1
ssg63
(dp424
g10
I3
ssg65
(dp425
g10
F43.800000000000004
ssg67
(dp426
g10
F1.8999999999999999
ssg69
(dp427
g10
F10
ssg71
(dp428
g10
F4.4000000000000004
sssg51
(dp429
Vcom.android.incallui
p430
(dp431
g10
F0.69999999999999996
ssVcom.miui.home
p432
(dp433
g10
F6.8000000000000007
ssVcom.tencent.mobileqq
p434
(dp435
g10
F3.6000000000000001
ssVcom.baidu.searchbox
p436
(dp437
g10
F1.7000000000000002
sssg53
(dp438
g8
(dp439
g10
F5.0999999999999996
ssg11
(dp440
g10
I1
ssg333
(dp441
g10
I1
ssVcom.duowan.mobile
p442
(dp443
g10
F0.69999999999999996
ssg280
(dp444
g10
F0.90000000000000002
ssVcn.wps.moffice_eng
p445
(dp446
g10
F0.40000000000000002
ssg25
(dp447
g10
F1.7
ssg405
(dp448
g10
F77.000000000000057
ssg354
(dp449
g10
F4.3000000000000007
ssVcom.miui.home
p450
(dp451
g10
F164.60000000000008
ssVcom.tencent.mobileqq
p452
(dp453
g10
F98.200000000000145
ssg202
(dp454
g10
F0.69999999999999996
ssVcom.cootek.smartdialer
p455
(dp456
g10
F4.5
ssVcom.android.fileexplorer
p457
(dp458
g10
F0.90000000000000002
ssVcom.changyou.zzb
p459
(dp460
g10
F1.8999999999999999
ssVcom.android.calendar
p461
(dp462
g10
F1.3
ssVcom.android.settings
p463
(dp464
g10
F6.5000000000000009
ssVcom.tencent.qt.qtl
p465
(dp466
g10
F0.90000000000000002
ssVcom.android.mms
p467
(dp468
g10
F1.2000000000000002
ssg61
(dp469
g10
F1.6000000000000001
ssVcom.duowan.lolbox
p470
(dp471
g10
I1
ssg55
(dp472
g10
F0.40000000000000002
sssg55
(dp473
g170
(dp474
g10
I1
ssg179
(dp475
g10
F0.90000000000000002
sssg57
(dp476
Vcom.android.browser
p477
(dp478
g10
F1.8999999999999999
ssVcom.tencent.mm
p479
(dp480
g10
F2.8999999999999999
ssg153
(dp481
g10
F1.7
ssVcom.kugou.android
p482
(dp483
g10
F1.7
ssVcom.baidu.searchbox
p484
(dp485
g10
F14.699999999999999
ssVcom.cootek.smartdialer
p486
(dp487
g10
F1.6000000000000001
ssVcom.android.incallui
p488
(dp489
g10
F1.3
ssg61
(dp490
g10
F0.40000000000000002
ssg288
(dp491
g10
F1.3999999999999999
ssVcom.miui.home
p492
(dp493
g10
F26.699999999999989
ssVcom.tencent.mobileqq
p494
(dp495
g10
F14.199999999999999
ssg39
(dp496
g10
F4.4000000000000004
ssVcom.eg.android.AlipayGphone
p497
(dp498
g10
F7.0000000000000009
ssVcom.android.settings
p499
(dp500
g10
F2.3999999999999999
sssg59
(dp501
g51
(dp502
g10
F1.3
ssVcom.android.settings
p503
(dp504
g10
I1
ssVcom.cootek.smartdialer
p505
(dp506
g10
F1.8
ssVcom.android.incallui
p507
(dp508
g10
F1.8
ssVcom.android.phone
p509
(dp510
g10
F0.69999999999999996
ssVcom.miui.home
p511
(dp512
g10
F5.4000000000000004
ssVcom.tencent.mobileqq
p513
(dp514
g10
F5.5999999999999996
sssg61
(dp515
Vcom.tencent.mobileqq
p516
(dp517
g10
F10.900000000000002
ssVcom.kugou.android
p518
(dp519
g10
F3.2999999999999998
ssVcom.baidu.searchbox
p520
(dp521
g10
F9.3000000000000007
ssVcom.android.settings
p522
(dp523
g10
I1
ssVcom.miui.home
p524
(dp525
g10
F8.9000000000000021
ssVcom.tencent.mm
p526
(dp527
g10
F0.69999999999999996
sssg63
(dp528
Vcom.android.incallui
p529
(dp530
g10
F0.90000000000000002
ssg442
(dp531
g10
F0.90000000000000002
ssVcom.miui.home
p532
(dp533
g10
F1.7
ssVcom.tencent.mm
p534
(dp535
g10
F1.7
ssVcom.tencent.mobileqq
p536
(dp537
g10
F2.7999999999999998
sssg65
(dp538
Vcom.kugou.android
p539
(dp540
g10
F0.90000000000000002
ssVcom.tencent.mobileqq
p541
(dp542
g10
F18.199999999999999
ssVcom.android.phone
p543
(dp544
g10
F0.69999999999999996
ssVcom.android.mms
p545
(dp546
g10
F2.2999999999999998
ssg284
(dp547
g10
F11.699999999999999
ssVcom.cootek.smartdialer
p548
(dp549
g10
F2.7000000000000002
ssVcom.android.incallui
p550
(dp551
g10
F1.2000000000000002
ssVcom.qzone
p552
(dp553
g10
F1.8999999999999999
ssg17
(dp554
g10
F1.6000000000000001
ssg29
(dp555
g10
F0.90000000000000002
ssVcom.changyou.zzb
p556
(dp557
g10
F0.90000000000000002
ssVcom.miui.home
p558
(dp559
g10
F50.600000000000009
ssVcom.tencent.mm
p560
(dp561
g10
F6.7000000000000011
sssg67
(dp562
Vcom.miui.home
p563
(dp564
g10
F1.7
ssVcom.tencent.mobileqq
p565
(dp566
g10
F1.8999999999999999
ssVcom.baidu.searchbox
p567
(dp568
g10
F0.40000000000000002
sssg69
(dp569
Vcom.cootek.smartdialer
p570
(dp571
g10
F0.90000000000000002
ssVcom.miui.home
p572
(dp573
g10
F6.7000000000000011
ssVcom.tencent.mobileqq
p574
(dp575
g10
F15.299999999999999
ssVcom.miui.gallery
p576
(dp577
g10
I1
ssVcom.baidu.searchbox
p578
(dp579
g10
F5.2999999999999998
sssg71
(dp580
ssS'edge'
p581
g76
sS'pred'
p582
(dp583
g8
(dp584
g23
g159
sg94
g274
sg25
g171
sg57
g478
sVcom.baidu.searchbox
p585
g182
sg86
g232
sg164
g134
sVcom.miui.home
p586
g396
sVcom.tencent.mm
p587
g439
sg55
g474
ssg11
(dp588
Vcom.cootek.smartdialer
p589
g349
sVcom.android.incallui
p590
g235
sVcom.miui.home
p591
g397
sVcom.tencent.mm
p592
g440
ssg13
(dp593
Vcom.tencent.mobileqq
p594
g276
sg103
g334
sVcom.baidu.searchbox
p595
g184
sVcom.miui.home
p596
g398
sg111
g441
sVcom.eg.android.AlipayGphone
p597
g152
ssg15
(dp598
g470
g531
sVcom.miui.home
p599
g399
sVcom.tencent.mm
p600
g443
ssg17
(dp601
Vcom.android.settings
p602
g554
sVcom.miui.home
p603
g400
sVcom.tencent.mobileqq
p604
g277
sVcn.wps.moffice_eng
p605
g165
sVcom.baidu.searchbox
p606
g185
ssg19
(dp607
Vcom.miui.home
p608
g401
sVcom.tencent.mobileqq
p609
g279
sVcom.baidu.searchbox
p610
g192
ssg21
(dp611
g151
g114
sVcom.android.mms
p612
g498
sVcom.tencent.mm
p613
g444
sg149
g343
sVcom.baidu.searchbox
p614
g187
sVcom.cootek.smartdialer
p615
g365
sVcom.android.incallui
p616
g249
sVcom.changyou.zzb
p617
g394
sVcom.miui.home
p618
g402
sVcom.tencent.mobileqq
p619
g281
ssg23
(dp620
g8
g78
sVcom.miui.home
p621
g403
sg79
g446
sg585
g188
sg415
g374
ssg25
(dp622
Vcom.android.browser
p623
g81
sVcom.tencent.mobileqq
p624
g283
sVcom.kugou.android
p625
g328
sVcom.baidu.searchbox
p626
g190
sVcom.miui.home
p627
g404
sVcom.tencent.mm
p628
g447
ssg27
(dp629
g482
g332
sg8
g85
sg23
g163
sg461
g437
sg303
g547
sVcom.android.packageinstaller
p630
g176
sVcom.android.phone
p631
g258
sVcom.android.mms
p632
g485
sVcom.tencent.token
p633
g143
sVcom.cootek.smartdialer
p634
g353
sg86
g240
sVcom.xiaomi.smarthome
p635
g106
sg61
g521
sVcom.snda.wifilocating
p636
g132
sVcom.changyou.zzb
p637
g383
sg107
g568
sg90
g579
sVcom.miui.home
p638
g406
sVcom.tencent.mm
p639
g448
sVcom.tencent.mobileqq
p640
g285
ssg29
(dp641
Vcom.android.settings
p642
g555
sVcom.miui.home
p643
g407
ssg31
(dp644
Vcom.kugou.android
p645
g336
sVcom.android.browser
p646
g87
sg376
g431
sVcom.android.settings
p647
g551
sVcom.changyou.zzb
p648
g386
sVcom.android.mms
p649
g489
sVcom.baidu.BaiduMap
p650
g508
sVcom.baidu.searchbox
p651
g194
sg455
g355
sVcom.duowan.lolbox
p652
g530
sg33
g262
sVcom.miui.home
p653
g408
sVcom.tencent.mm
p654
g449
sVcom.tencent.mobileqq
p655
g287
ssg33
(dp656
Vcom.android.settings
p657
g544
sVcom.android.mms
p658
g491
sg650
g510
sVcom.baidu.searchbox
p659
g196
sVcom.cootek.smartdialer
p660
g358
sVcom.android.incallui
p661
g244
sg648
g388
sVcom.miui.home
p662
g409
sg494
g289
ssg35
(dp663
Vcom.android.camera
p664
g577
sVcom.miui.home
p665
g410
sVcom.tencent.mobileqq
p666
g301
sg186
g146
sg614
g197
ssg37
(dp667
Vcom.android.browser
p668
g95
sg275
g116
sVcom.duowan.mobile
p669
g123
sVcom.snda.wifilocating
p670
g130
sg633
g137
sg373
g161
sg282
g173
sVcom.baidu.searchbox
p671
g199
sg29
g229
sg286
g248
sVcom.android.phone
p672
g254
sg49
g411
sVcom.tencent.mm
p673
g453
sVcom.kugou.android
p674
g327
sVcom.cootek.smartdialer
p675
g348
sg45
g372
sg637
g392
sg576
g271
sg461
g435
sVcom.android.settings
p676
g542
sg216
g495
sg59
g514
sg61
g517
sg652
g537
sg67
g566
sg69
g575
ssg39
(dp677
Vcom.android.mms
p678
g496
sVcom.tencent.mobileqq
p679
g293
ssg41
(dp680
Vcom.tencent.mobileqq
p681
g295
sVcom.android.mms
p682
g483
sVcom.baidu.searchbox
p683
g203
sg13
g104
sg337
g519
sVcom.android.settings
p684
g540
sg339
g413
sVcom.tencent.mm
p685
g454
sg597
g150
ssg43
(dp686
Vcom.kugou.android
p687
g325
sg647
g549
sg288
g260
sg658
g487
sg650
g506
sg27
g205
sg354
g242
sg47
g384
sVcom.android.camera
p688
g571
sVcom.miui.home
p689
g414
sg654
g456
sVcom.tencent.mobileqq
p690
g297
ssg45
(dp691
Vcom.tencent.mobileqq
p692
g298
sVcom.miui.home
p693
g416
sVcom.tencent.mm
p694
g458
sVcom.baidu.searchbox
p695
g207
ssg47
(dp696
Vcom.tencent.mobileqq
p697
g299
sg612
g481
sVcom.baidu.searchbox
p698
g209
sVcom.cootek.smartdialer
p699
g351
sVcom.android.settings
p700
g557
sg689
g417
sg378
g460
sVcom.eg.android.AlipayGphone
p701
g154
ssg49
(dp702
g8
g93
sg151
g110
sg669
g121
sg636
g128
sg19
g139
sg21
g156
sg23
g167
sg630
g178
sg27
g211
sg29
g227
sg354
g246
sg672
g264
sg576
g269
sg37
g291
sVcom.miui.antispam
p703
g320
sg41
g340
sg455
g362
sg45
g371
sg47
g390
sg461
g433
sg53
g451
sg57
g493
sg59
g512
sg61
g525
sg470
g533
sg676
g559
sg107
g564
sg69
g573
ssg51
(dp704
Vcom.tencent.mobileqq
p705
g302
sVcom.baidu.BaiduMap
p706
g502
sVcom.baidu.searchbox
p707
g213
sVcom.cootek.smartdialer
p708
g346
sVcom.changyou.zzb
p709
g377
sVcom.miui.home
p710
g418
sVcom.tencent.mm
p711
g462
ssg53
(dp712
g158
g80
sg11
g99
sg13
g112
sg442
g119
sg671
g201
sVcn.wps.moffice_eng
p713
g168
sg25
g180
sg29
g225
sg286
g234
sVcom.android.phone
p714
g266
sVcom.miui.home
p715
g419
sg198
g292
sVcom.miui.antispam
p716
g318
sVcom.kugou.android
p717
g342
sVcom.tencent.token
p718
g141
sVcom.cootek.smartdialer
p719
g364
sg457
g370
sVcom.changyou.zzb
p720
g379
sg303
g561
sg55
g475
sg632
g480
sVcom.qzone
p721
g527
sg652
g535
ssg55
(dp722
g623
g96
sg25
g174
sVcom.miui.home
p723
g420
sg628
g472
ssg57
(dp724
Vcom.android.browser
p725
g83
sVcn.wps.moffice_eng
p726
g162
sVcom.tencent.mobileqq
p727
g308
sVcom.android.phone
p728
g256
sg482
g330
sg651
g217
sg615
g352
sg193
g236
sVcom.changyou.zzb
p729
g381
sVcom.miui.home
p730
g421
sg613
g468
sg39
g322
sg21
g148
sVcom.android.settings
p731
g546
ssg59
(dp732
Vcom.android.incallui
p733
g238
sVcom.miui.home
p734
g422
sVcom.tencent.mobileqq
p735
g310
ssg61
(dp736
Vcom.kugou.android
p737
g338
sVcom.tencent.mobileqq
p738
g311
sg307
g490
sVcom.baidu.searchbox
p739
g219
sVcom.cootek.smartdialer
p740
g357
sVcom.android.settings
p741
g553
sVcom.miui.home
p742
g423
sVcom.tencent.mm
p743
g469
ssg63
(dp744
g600
g471
sVcom.miui.home
p745
g424
sVcom.tencent.mobileqq
p746
g313
ssg65
(dp747
g725
g89
sg640
g304
sg545
g500
sVcom.baidu.BaiduMap
p748
g504
sVcom.baidu.searchbox
p749
g215
sVcom.xiaomi.smarthome
p750
g102
sVcom.android.incallui
p751
g251
sVcom.qzone
p752
g523
sVcom.snda.wifilocating
p753
g126
sVcom.miui.home
p754
g425
sVcom.tencent.mm
p755
g464
sVcom.cootek.smartdialer
p756
g367
ssg67
(dp757
Vcom.xiaomi.smarthome
p758
g108
sVcom.miui.home
p759
g426
sVcom.baidu.searchbox
p760
g220
ssg69
(dp761
Vcom.cootek.smartdialer
p762
g360
sVcom.android.browser
p763
g91
sVcom.miui.home
p764
g427
sVcom.tencent.mobileqq
p765
g315
sVcom.baidu.searchbox
p766
g222
ssg71
(dp767
Vcom.tencent.mm
p768
g466
sVcom.miui.home
p769
g428
sVcom.tencent.mobileqq
p770
g306
sssS'adj'
p771
g76
sb.