ccopy_reg
_reconstructor
p1
(cnetworkx.classes.digraph
DiGraph
p2
c__builtin__
object
p3
NtRp4
(dp5
S'node'
p6
(dp7
Vcom.android.browser
p8
(dp9
S'weight'
p10
F5.5352474322560857e-05
ssVcom.wandoujia.phoenix2
p11
(dp12
g10
F2.7362110216200186e-06
ssVcom.suning.mobile.ebuy
p13
(dp14
g10
F0.00012579130850752816
ssVme.rgmmpk.jshkjv.ksprvropjqtm
p15
(dp16
g10
F2.8106095086127079e-07
ssVcom.sohu.inputmethod.sogou
p17
(dp18
g10
F1.1573097976640561e-07
ssVcom.android.launcher
p19
(dp20
g10
F0.021063170581462697
ssVcom.meizu.media.painter
p21
(dp22
g10
F3.7199243496344664e-07
ssVcom.eg.android.AlipayGphone
p23
(dp24
g10
F4.27295310294679e-05
ssVcom.android.dialer
p25
(dp26
g10
F0.00022476609570346918
ssVcn.wps.moffice_eng
p27
(dp28
g10
F3.306599421897303e-08
ssVcom.meizu.weathersearch
p29
(dp30
g10
F2.7362110216200186e-06
ssVcom.android.packageinstaller
p31
(dp32
g10
F9.4238083524073143e-07
ssVcom.sankuai.meituan
p33
(dp34
g10
F7.9523716096630152e-06
ssVcom.android.gallery3d
p35
(dp36
g10
F7.5142471862616221e-06
ssVcom.android.documentsui
p37
(dp38
g10
F7.439848699268932e-08
ssVcom.taobao.taobao
p39
(dp40
g10
F9.523006335064233e-06
ssVcom.mfw.roadbook
p41
(dp42
g10
F2.2278213605033081e-05
ssVme.ele
p43
(dp44
g10
F4.0919167845979126e-05
ssVcom.android.phone
p45
(dp46
g10
F9.4965535396890555e-05
ssVcom.tencent.mobileqq
p47
(dp48
g10
F0.0016775122852154946
ssVtv.danmaku.bili
p49
(dp50
g10
F0.00021231674888002585
ssVcom.android.calculator2
p51
(dp52
g10
F8.2664985547432581e-08
ssVcom.xuxian.market
p53
(dp54
g10
F4.0943967341643356e-05
ssVcom.sogou.xiaop_android
p55
(dp56
g10
F3.1247364536929516e-06
ssVcom.meizu.mstore
p57
(dp58
g10
F5.7865489883202805e-08
ssVcom.meizu.media.video
p59
(dp60
g10
F1.0994443077808533e-06
ssVcom.android.systemui
p61
(dp62
g10
F9.2584783813124499e-06
ssVcom.meizu.filemanager
p63
(dp64
g10
F8.597158496932988e-07
ssVcom.ziroom.ziroomcustomer
p65
(dp66
g10
F6.8777267975463904e-05
ssVcom.dianping.v1
p67
(dp68
g10
F4.1497822744811159e-06
ssVcom.nuomi
p69
(dp70
g10
F0.00034436579679349464
ssVcom.android.email
p71
(dp72
g10
F2.4799495664229776e-08
ssVcom.kaola
p73
(dp74
g10
F7.2001202411813776e-06
ssVcom.android.alarmclock
p75
(dp76
g10
F1.5665014761238476e-05
ssVcom.MobileTicket
p77
(dp78
g10
F6.6818107817989762e-05
ssVcom.android.calendar
p79
(dp80
g10
F1.2234417861020022e-06
ssVcom.tencent.mm
p81
(dp82
g10
F0.0017258465022650786
ssVcom.android.mms
p83
(dp84
g10
F0.00010190939418287489
ssVcom.baidu.BaiduMap
p85
(dp86
g10
F0.00012294763300469647
ssVcom.baidu.tieba
p87
(dp88
g10
F3.6232063165439697e-05
ssVcom.privatekitchen.huijia
p89
(dp90
g10
F7.257985731064581e-06
ssVcom.android.settings
p91
(dp92
g10
F0.97384272368165514
ssVcom.meizu.media.music
p93
(dp94
g10
F2.4799495664229776e-08
ssVcom.sankuai.meituan.takeoutnew
p95
(dp96
g10
F7.0678562643054861e-06
ssVcn.opda.a.phonoalbumshoushou
p97
(dp98
g10
F2.5626145519704102e-07
sssS'graph'
p99
(dp100
sS'succ'
p101
(dp102
g8
(dp103
Vcom.MobileTicket
p104
(dp105
g10
F1.3
ssg55
(dp106
g10
F0.90000000000000002
ssVcom.suning.mobile.ebuy
p107
(dp108
g10
F0.90000000000000002
ssVcom.xuxian.market
p109
(dp110
g10
F1.3
ssVcom.android.settings
p111
(dp112
g10
F1.8
ssg31
(dp113
g10
F4.5
ssVcom.baidu.BaiduMap
p114
(dp115
g10
F5.3000000000000007
ssVcom.dianping.v1
p116
(dp117
g10
F1.3
ssVcom.tencent.mobileqq
p118
(dp119
g10
F0.90000000000000002
ssg89
(dp120
g10
F0.40000000000000002
ssVcom.android.launcher
p121
(dp122
g10
F32.499999999999993
ssVcom.android.phone
p123
(dp124
g10
I1
ssg87
(dp125
g10
F0.90000000000000002
ssg95
(dp126
g10
F0.69999999999999996
ssVcom.tencent.mm
p127
(dp128
g10
F7.6000000000000005
ssVcom.eg.android.AlipayGphone
p129
(dp130
g10
F0.69999999999999996
ssg75
(dp131
g10
F0.40000000000000002
sssg11
(dp132
Vcom.android.browser
p133
(dp134
g10
F1.1000000000000001
ssg57
(dp135
g10
F0.90000000000000002
ssg15
(dp136
g10
F3.3999999999999999
ssVcom.android.settings
p137
(dp138
g10
F2.3999999999999999
ssVcom.baidu.BaiduMap
p139
(dp140
g10
F0.90000000000000002
ssg65
(dp141
g10
F1.7
ssVcom.android.launcher
p142
(dp143
g10
F10.5
ssVcom.tencent.mm
p144
(dp145
g10
F2.6000000000000001
ssVcn.opda.a.phonoalbumshoushou
p146
(dp147
g10
F0.90000000000000002
sssg13
(dp148
Vcom.android.browser
p149
(dp150
g10
F0.90000000000000002
ssVcom.android.dialer
p151
(dp152
g10
F1.3
ssVcom.tencent.mobileqq
p153
(dp154
g10
F0.90000000000000002
ssVcom.android.launcher
p155
(dp156
g10
F10.799999999999999
ssVcom.tencent.mm
p157
(dp158
g10
F2.2000000000000002
ssVcom.eg.android.AlipayGphone
p159
(dp160
g10
F0.90000000000000002
ssg75
(dp161
g10
F0.90000000000000002
sssg15
(dp162
Vcom.wandoujia.phoenix2
p163
(dp164
g10
F3.4000000000000004
ssVcom.android.launcher
p165
(dp166
g10
F1.7000000000000002
sssg17
(dp167
Vcom.tencent.mobileqq
p168
(dp169
g10
F1.3
ssVcom.tencent.mm
p170
(dp171
g10
F5.4000000000000004
ssVtv.danmaku.bili
p172
(dp173
g10
F0.69999999999999996
ssVcom.android.launcher
p174
(dp175
g10
F1.3
sssg19
(dp176
g8
(dp177
g10
F47.399999999999999
ssg11
(dp178
g10
F12.199999999999999
ssVcom.suning.mobile.ebuy
p179
(dp180
g10
F15.499999999999998
ssg17
(dp181
g10
F4.2999999999999998
ssg21
(dp182
g10
I1
ssg23
(dp183
g10
F65.500000000000028
ssg25
(dp184
g10
F110.60000000000014
ssg27
(dp185
g10
F1.7
ssg29
(dp186
g10
F11.800000000000001
ssg31
(dp187
g10
F4.7999999999999998
ssg33
(dp188
g10
F15.299999999999997
ssg35
(dp189
g10
F28.299999999999997
ssg37
(dp190
g10
F1.3
ssg39
(dp191
g10
F4.4000000000000004
ssg41
(dp192
g10
I1
ssg43
(dp193
g10
F18.799999999999997
ssVcom.android.phone
p194
(dp195
g10
F50.499999999999986
ssg47
(dp196
g10
F169.89999999999992
ssg49
(dp197
g10
F16.599999999999998
ssg51
(dp198
g10
F4.4000000000000004
ssg53
(dp199
g10
F26.799999999999994
ssg55
(dp200
g10
F8.9000000000000004
ssg57
(dp201
g10
F1.7
ssg59
(dp202
g10
F2.7000000000000002
ssg81
(dp203
g10
F1229.1000000000074
ssg61
(dp204
g10
F3.6000000000000001
ssg65
(dp205
g10
F10
ssg67
(dp206
g10
F14.299999999999997
ssg69
(dp207
g10
F30.899999999999991
ssg71
(dp208
g10
F1.7
ssg73
(dp209
g10
F14.199999999999999
ssg75
(dp210
g10
F2.7000000000000002
ssg77
(dp211
g10
F39.599999999999994
ssg79
(dp212
g10
F8.1000000000000014
ssg91
(dp213
g10
F37.599999999999987
ssg83
(dp214
g10
F69.400000000000034
ssg85
(dp215
g10
F32.299999999999997
ssg87
(dp216
g10
F0.69999999999999996
ssg89
(dp217
g10
F4.4000000000000004
ssg93
(dp218
g10
F1.7
ssg95
(dp219
g10
F5.7000000000000002
ssg97
(dp220
g10
F6.8000000000000007
sssg21
(dp221
Vcom.sankuai.meituan
p222
(dp223
g10
F0.90000000000000002
ssVcom.android.launcher
p224
(dp225
g10
F1.7
sssg23
(dp226
Vcom.android.browser
p227
(dp228
g10
F0.69999999999999996
ssg151
(dp229
g10
F2.2000000000000002
ssg27
(dp230
g10
F0.90000000000000002
ssVcom.xuxian.market
p231
(dp232
g10
F2.3999999999999999
ssVcom.android.mms
p233
(dp234
g10
F0.40000000000000002
ssg37
(dp235
g10
F1.7
ssVcom.taobao.taobao
p236
(dp237
g10
F0.90000000000000002
ssVcom.dianping.v1
p238
(dp239
g10
F1.7
ssVme.ele
p240
(dp241
g10
F4.4000000000000004
ssVcom.android.launcher
p242
(dp243
g10
F31.299999999999997
ssVcom.tencent.mm
p244
(dp245
g10
F19.699999999999999
ssVcom.android.calculator2
p246
(dp247
g10
F0.40000000000000002
sssg25
(dp248
Vcom.MobileTicket
p249
(dp250
g10
F2.2000000000000002
ssVcom.meizu.media.video
p251
(dp252
g10
F0.90000000000000002
ssVcom.android.settings
p253
(dp254
g10
F1.7000000000000002
ssVcom.android.mms
p255
(dp256
g10
F4.7999999999999998
ssVcom.baidu.BaiduMap
p257
(dp258
g10
F0.40000000000000002
ssVme.ele
p259
(dp260
g10
I1
ssVcom.android.launcher
p261
(dp262
g10
F67.100000000000037
ssg194
(dp263
g10
F25.5
ssVcom.tencent.mm
p264
(dp265
g10
F30.699999999999978
ssVcom.tencent.mobileqq
p266
(dp267
g10
F1.7000000000000002
sssg27
(dp268
Vcom.tencent.mm
p269
(dp270
g10
F0.90000000000000002
ssVcom.eg.android.AlipayGphone
p271
(dp272
g10
F0.40000000000000002
ssVcom.android.launcher
p273
(dp274
g10
F1.7
sssg29
(dp275
Vcom.android.mms
p276
(dp277
g10
F0.90000000000000002
ssVcom.tencent.mm
p278
(dp279
g10
F2.2000000000000002
ssVcom.android.launcher
p280
(dp281
g10
F5.7000000000000002
sssg31
(dp282
Vcom.android.browser
p283
(dp284
g10
F0.90000000000000002
ssg55
(dp285
g10
I1
ssVcom.android.settings
p286
(dp287
g10
F0.40000000000000002
ssg87
(dp288
g10
I1
ssg89
(dp289
g10
F1.3
ssVcom.android.launcher
p290
(dp291
g10
F4.1000000000000005
ssVcom.tencent.mm
p292
(dp293
g10
F2
ssg73
(dp294
g10
F1.3
ssg95
(dp295
g10
I1
sssg33
(dp296
Vcom.xuxian.market
p297
(dp298
g10
F1.3
ssVcom.dianping.v1
p299
(dp300
g10
F0.40000000000000002
ssVcom.nuomi
p301
(dp302
g10
F1.7000000000000002
ssVcom.android.launcher
p303
(dp304
g10
F14.199999999999999
ssVcom.tencent.mm
p305
(dp306
g10
F4.5
ssVcom.eg.android.AlipayGphone
p307
(dp308
g10
F0.69999999999999996
sssg35
(dp309
Vcom.tencent.mm
p310
(dp311
g10
F12.100000000000001
ssVcom.android.launcher
p312
(dp313
g10
F10.300000000000001
sssg37
(dp314
Vcom.tencent.mm
p315
(dp316
g10
F0.69999999999999996
ssVcom.android.launcher
p317
(dp318
g10
F0.90000000000000002
ssVcom.eg.android.AlipayGphone
p319
(dp320
g10
I1
sssg39
(dp321
Vcom.tencent.mm
p322
(dp323
g10
F2.2000000000000002
ssVcom.eg.android.AlipayGphone
p324
(dp325
g10
F0.40000000000000002
ssVcom.android.launcher
p326
(dp327
g10
F3.4000000000000004
sssg41
(dp328
Vcom.tencent.mm
p329
(dp330
g10
F0.90000000000000002
ssVcom.android.launcher
p331
(dp332
g10
I1
sssg43
(dp333
g251
(dp334
g10
F0.40000000000000002
ssVcom.android.dialer
p335
(dp336
g10
F2.7999999999999998
ssVcom.android.settings
p337
(dp338
g10
F0.90000000000000002
ssVcom.android.launcher
p339
(dp340
g10
F11.1
ssVcom.tencent.mm
p341
(dp342
g10
F9.4000000000000004
ssg23
(dp343
g10
I3
sssg45
(dp344
g249
(dp345
g10
F0.69999999999999996
ssVcom.android.dialer
p346
(dp347
g10
F54.899999999999991
ssVcom.suning.mobile.ebuy
p348
(dp349
g10
I1
ssVcom.android.browser
p350
(dp351
g10
F2.7000000000000002
ssVcom.tencent.mobileqq
p352
(dp353
g10
F2.7000000000000002
ssg255
(dp354
g10
F3.7999999999999998
ssVme.ele
p355
(dp356
g10
F1.8999999999999999
ssVcom.android.launcher
p357
(dp358
g10
F38.199999999999982
ssg253
(dp359
g10
F1.7
ssVcom.tencent.mm
p360
(dp361
g10
F17.799999999999997
ssVtv.danmaku.bili
p362
(dp363
g10
I1
sssg47
(dp364
Vtv.danmaku.bili
p365
(dp366
g10
F2.2000000000000002
ssVcom.xuxian.market
p367
(dp368
g10
F0.90000000000000002
ssVcom.android.dialer
p369
(dp370
g10
F4.5999999999999996
ssVcom.android.browser
p371
(dp372
g10
F0.40000000000000002
ssVcom.android.calendar
p373
(dp374
g10
F0.90000000000000002
ssVcom.android.settings
p375
(dp376
g10
I1
ssVcom.android.mms
p377
(dp378
g10
F1.8
ssVcom.ziroom.ziroomcustomer
p379
(dp380
g10
I1
ssg69
(dp381
g10
F0.40000000000000002
ssVcom.privatekitchen.huijia
p382
(dp383
g10
F0.90000000000000002
ssVcom.android.launcher
p384
(dp385
g10
F118.90000000000011
ssVcom.android.phone
p386
(dp387
g10
F0.69999999999999996
ssg93
(dp388
g10
F0.40000000000000002
ssg71
(dp389
g10
F0.90000000000000002
ssVcom.tencent.mm
p390
(dp391
g10
F43.499999999999964
ssVcom.eg.android.AlipayGphone
p392
(dp393
g10
F3.5
ssVcom.MobileTicket
p394
(dp395
g10
F1.3
sssg49
(dp396
Vcom.tencent.mobileqq
p397
(dp398
g10
F1.3
ssVcom.tencent.mm
p399
(dp400
g10
F6.2000000000000011
ssVcom.android.browser
p401
(dp402
g10
F0.40000000000000002
ssVcom.android.launcher
p403
(dp404
g10
F10.5
ssVcom.android.phone
p405
(dp406
g10
I1
sssg51
(dp407
Vme.ele
p408
(dp409
g10
F0.40000000000000002
ssVcom.tencent.mm
p410
(dp411
g10
F1.8
ssVcom.eg.android.AlipayGphone
p412
(dp413
g10
F1.3
ssVcom.android.launcher
p414
(dp415
g10
F4.4000000000000004
sssg53
(dp416
Vcom.android.browser
p417
(dp418
g10
F0.90000000000000002
ssVcom.suning.mobile.ebuy
p419
(dp420
g10
F0.40000000000000002
ssVcom.MobileTicket
p421
(dp422
g10
F0.90000000000000002
ssVcom.tencent.mm
p423
(dp424
g10
F9.3000000000000025
ssVcom.sankuai.meituan
p425
(dp426
g10
F0.90000000000000002
ssVcom.android.launcher
p427
(dp428
g10
F17.299999999999997
ssVcom.tencent.mobileqq
p429
(dp430
g10
F0.90000000000000002
ssVcom.eg.android.AlipayGphone
p431
(dp432
g10
I2
sssg55
(dp433
Vcom.tencent.mm
p434
(dp435
g10
F2.6000000000000001
ssVcom.android.launcher
p436
(dp437
g10
F4.2999999999999998
sssg57
(dp438
Vcom.wandoujia.phoenix2
p439
(dp440
g10
F0.90000000000000002
ssg139
(dp441
g10
F0.40000000000000002
ssVcom.android.launcher
p442
(dp443
g10
F1.7
sssg59
(dp444
Vcom.android.settings
p445
(dp446
g10
F0.40000000000000002
ssVcom.tencent.mm
p447
(dp448
g10
F0.90000000000000002
ssVcom.android.launcher
p449
(dp450
g10
F1.7
sssg61
(dp451
Vcom.android.mms
p452
(dp453
g10
F1.1000000000000001
ssVcom.tencent.mm
p454
(dp455
g10
F4.6000000000000005
ssVcom.android.launcher
p456
(dp457
g10
F3
sssg63
(dp458
sg65
(dp459
Vcom.tencent.mm
p460
(dp461
g10
F3.7999999999999998
ssVcom.wandoujia.phoenix2
p462
(dp463
g10
I1
ssVcom.android.browser
p464
(dp465
g10
F0.40000000000000002
ssVcom.android.launcher
p466
(dp467
g10
F7
ssVcom.MobileTicket
p468
(dp469
g10
F1.3
sssg67
(dp470
Vcom.android.browser
p471
(dp472
g10
F0.90000000000000002
ssVcom.android.settings
p473
(dp474
g10
F1.3
ssVcom.sankuai.meituan
p475
(dp476
g10
F0.90000000000000002
ssVcom.baidu.BaiduMap
p477
(dp478
g10
F0.90000000000000002
ssVcom.nuomi
p479
(dp480
g10
F1.3
ssVcom.android.launcher
p481
(dp482
g10
F11.9
ssVcom.tencent.mm
p483
(dp484
g10
F6.2000000000000011
ssg129
(dp485
g10
I1
sssg69
(dp486
Vcom.android.browser
p487
(dp488
g10
I1
ssVcom.android.settings
p489
(dp490
g10
F1.3
ssg33
(dp491
g10
F1.3
ssVcom.baidu.BaiduMap
p492
(dp493
g10
F3.0999999999999996
ssVcom.dianping.v1
p494
(dp495
g10
F2.2000000000000002
ssVcom.android.launcher
p496
(dp497
g10
F29.899999999999991
ssVcom.tencent.mm
p498
(dp499
g10
F12.500000000000004
sssg71
(dp500
sg73
(dp501
Vcom.xuxian.market
p502
(dp503
g10
F0.90000000000000002
ssVcom.MobileTicket
p504
(dp505
g10
F0.90000000000000002
ssVcom.android.mms
p506
(dp507
g10
F3.5999999999999996
ssVcom.baidu.BaiduMap
p508
(dp509
g10
F0.90000000000000002
ssVcom.android.launcher
p510
(dp511
g10
F12.199999999999999
ssg292
(dp512
g10
F4.3999999999999995
sssg75
(dp513
Vcom.android.launcher
p514
(dp515
g10
I2
sssg77
(dp516
Vcom.android.browser
p517
(dp518
g10
F2.2000000000000002
ssg419
(dp519
g10
F0.90000000000000002
ssVcom.xuxian.market
p520
(dp521
g10
F0.40000000000000002
ssVcom.android.mms
p522
(dp523
g10
F0.90000000000000002
ssVcom.baidu.BaiduMap
p524
(dp525
g10
F0.90000000000000002
ssVcom.kaola
p526
(dp527
g10
F0.40000000000000002
ssVcom.android.launcher
p528
(dp529
g10
F26.999999999999996
ssVcom.tencent.mm
p530
(dp531
g10
F6.2000000000000011
ssVcom.eg.android.AlipayGphone
p532
(dp533
g10
F1.3
sssg79
(dp534
g93
(dp535
g10
F0.90000000000000002
ssVcom.tencent.mm
p536
(dp537
g10
F1.8
ssVcom.android.launcher
p538
(dp539
g10
I3
sssg81
(dp540
Vcom.android.browser
p541
(dp542
g10
F12.900000000000002
ssVcom.wandoujia.phoenix2
p543
(dp544
g10
F0.90000000000000002
ssVcom.suning.mobile.ebuy
p545
(dp546
g10
F3.8999999999999999
ssg17
(dp547
g10
F5.3000000000000007
ssVcom.android.launcher
p548
(dp549
g10
F507.59999999999854
ssg23
(dp550
g10
F16.000000000000004
ssVcom.android.dialer
p551
(dp552
g10
F35.899999999999977
ssg27
(dp553
g10
F0.40000000000000002
ssg29
(dp554
g10
F3.5
ssg31
(dp555
g10
F4.5999999999999996
ssg33
(dp556
g10
F4.4000000000000004
ssVcom.android.gallery3d
p557
(dp558
g10
F13.700000000000001
ssVcom.taobao.taobao
p559
(dp560
g10
F1.7000000000000002
ssVme.ele
p561
(dp562
g10
F6.8000000000000007
ssVcom.android.phone
p563
(dp564
g10
F5.8000000000000007
ssVcom.tencent.mobileqq
p565
(dp566
g10
F37.199999999999967
ssg49
(dp567
g10
F8.3000000000000007
ssg51
(dp568
g10
F1.8
ssg53
(dp569
g10
F7.1000000000000014
ssg55
(dp570
g10
F3.2999999999999998
ssg61
(dp571
g10
F4.4000000000000004
ssVcom.ziroom.ziroomcustomer
p572
(dp573
g10
F0.90000000000000002
ssg67
(dp574
g10
F4.5
ssg69
(dp575
g10
F11.500000000000004
ssg71
(dp576
g10
F0.40000000000000002
ssg73
(dp577
g10
F3.5999999999999996
ssVcom.MobileTicket
p578
(dp579
g10
F4.7999999999999998
ssg79
(dp580
g10
F2.6000000000000001
ssVcom.android.settings
p581
(dp582
g10
F9.2000000000000011
ssVcom.android.mms
p583
(dp584
g10
F17.600000000000001
ssg492
(dp585
g10
F6.8000000000000007
ssg89
(dp586
g10
F1.1000000000000001
ssg95
(dp587
g10
F1.3
ssVcn.opda.a.phonoalbumshoushou
p588
(dp589
g10
F0.40000000000000002
sssg83
(dp590
Vcom.xuxian.market
p591
(dp592
g10
F0.90000000000000002
ssVcom.sogou.xiaop_android
p593
(dp594
g10
F1.3
ssVcom.android.dialer
p595
(dp596
g10
F6.8000000000000007
ssVcom.MobileTicket
p597
(dp598
g10
F1.3
ssVcom.android.settings
p599
(dp600
g10
F1.7
ssg61
(dp601
g10
F0.69999999999999996
ssVcom.sohu.inputmethod.sogou
p602
(dp603
g10
F0.40000000000000002
ssVcom.eg.android.AlipayGphone
p604
(dp605
g10
F1.3
ssVcom.android.launcher
p606
(dp607
g10
F52.500000000000021
ssVcom.android.phone
p608
(dp609
g10
F2.3999999999999999
ssVcom.tencent.mm
p610
(dp611
g10
F21.199999999999996
ssg588
(dp612
g10
F1.3
ssVcom.kaola
p613
(dp614
g10
I1
sssg85
(dp615
Vcom.android.browser
p616
(dp617
g10
F3.8999999999999999
ssVcom.android.packageinstaller
p618
(dp619
g10
F0.69999999999999996
ssg475
(dp620
g10
F0.40000000000000002
ssVcom.android.mms
p621
(dp622
g10
F0.40000000000000002
ssVcom.dianping.v1
p623
(dp624
g10
F1.3
ssVcom.nuomi
p625
(dp626
g10
F1.8999999999999999
ssg87
(dp627
g10
F0.40000000000000002
ssg526
(dp628
g10
F0.90000000000000002
ssVcom.android.launcher
p629
(dp630
g10
F23.999999999999996
ssVcom.tencent.mm
p631
(dp632
g10
F8.5000000000000018
ssg49
(dp633
g10
F0.40000000000000002
sssg87
(dp634
g283
(dp635
g10
I1
ssVcom.android.launcher
p636
(dp637
g10
F1.3
ssg286
(dp638
g10
F0.69999999999999996
sssg89
(dp639
Vcom.android.launcher
p640
(dp641
g10
I1
sssg91
(dp642
g471
(dp643
g10
F1.3
ssg25
(dp644
g10
F2
ssVcom.wandoujia.phoenix2
p645
(dp646
g10
F2.7000000000000002
ssg15
(dp647
g10
F1.3
ssVcom.tencent.mobileqq
p648
(dp649
g10
F1.7
ssg21
(dp650
g10
F0.90000000000000002
ssg583
(dp651
g10
F5.3000000000000007
ssVcom.dianping.v1
p652
(dp653
g10
F1.3
ssVcom.nuomi
p654
(dp655
g10
F1.8
ssVme.ele
p656
(dp657
g10
F0.90000000000000002
ssVcom.kaola
p658
(dp659
g10
F1.7000000000000002
ssVtv.danmaku.bili
p660
(dp661
g10
F0.90000000000000002
ssVcom.android.launcher
p662
(dp663
g10
F36.79999999999999
ssg194
(dp664
g10
F0.69999999999999996
ssg222
(dp665
g10
F0.40000000000000002
ssVcom.android.gallery3d
p666
(dp667
g10
F0.40000000000000002
ssVcom.tencent.mm
p668
(dp669
g10
F8.4000000000000021
ssVcn.opda.a.phonoalbumshoushou
p670
(dp671
g10
F2.2999999999999998
ssVcom.eg.android.AlipayGphone
p672
(dp673
g10
F0.90000000000000002
sssg93
(dp674
sg95
(dp675
Vcom.tencent.mm
p676
(dp677
g10
F2.2000000000000002
ssVcom.android.launcher
p678
(dp679
g10
F3.7000000000000002
sssg97
(dp680
Vcom.MobileTicket
p681
(dp682
g10
F0.90000000000000002
ssVcom.wandoujia.phoenix2
p683
(dp684
g10
F1.7
ssVcom.android.browser
p685
(dp686
g10
F0.40000000000000002
ssg15
(dp687
g10
F0.40000000000000002
ssVcom.android.settings
p688
(dp689
g10
F2.8999999999999999
ssVcom.android.mms
p690
(dp691
g10
F1.3
ssVcom.android.launcher
p692
(dp693
g10
F4.0999999999999996
ssVcom.tencent.mm
p694
(dp695
g10
F0.40000000000000002
ssssS'edge'
p696
g102
sS'pred'
p697
(dp698
g8
(dp699
Vcom.MobileTicket
p700
g518
sg543
g134
sVcom.suning.mobile.ebuy
p701
g150
sVcom.xuxian.market
p702
g418
sVcom.tencent.mobileqq
p703
g372
sg618
g284
sVcom.android.phone
p704
g351
sVcom.baidu.BaiduMap
p705
g617
sVcom.ziroom.ziroomcustomer
p706
g465
sg652
g472
sVcom.nuomi
p707
g488
sg87
g635
sVtv.danmaku.bili
p708
g402
sVcom.android.launcher
p709
g177
sg473
g643
sVcom.tencent.mm
p710
g542
sg97
g686
sg532
g228
ssg11
(dp711
g57
g440
sg15
g164
sg137
g646
sg65
g463
sVcom.android.launcher
p712
g178
sVcom.tencent.mm
p713
g544
sg146
g684
ssg13
(dp714
g149
g108
sg109
g420
sVcom.android.launcher
p715
g180
sVcom.android.phone
p716
g349
sVcom.tencent.mm
p717
g546
sg421
g519
ssg15
(dp718
Vcom.android.settings
p719
g647
sg683
g136
sg146
g687
ssg17
(dp720
Vcom.android.mms
p721
g603
sVcom.tencent.mm
p722
g547
sVcom.android.launcher
p723
g181
ssg19
(dp724
g517
g122
sg543
g143
sg13
g156
sg15
g166
sVcom.sohu.inputmethod.sogou
p725
g175
sg21
g225
sg23
g243
sg595
g262
sg27
g274
sg29
g281
sg31
g291
sg33
g304
sVcom.android.gallery3d
p726
g313
sg37
g318
sg559
g327
sVcom.mfw.roadbook
p727
g332
sg43
g340
sVcom.tencent.mobileqq
p728
g385
sVcom.android.phone
p729
g358
sVcom.tencent.mm
p730
g549
sVtv.danmaku.bili
p731
g404
sg51
g415
sg53
g428
sg55
g437
sg57
g443
sg59
g450
sg61
g457
sg65
g467
sg67
g482
sg69
g497
sg73
g511
sg75
g515
sg77
g529
sVcom.android.calendar
p732
g539
sg91
g663
sg83
g607
sg85
g630
sg87
g637
sg89
g641
sVcom.sankuai.meituan.takeoutnew
p733
g679
sg97
g693
ssg21
(dp734
Vcom.android.settings
p735
g650
sVcom.android.launcher
p736
g182
ssg23
(dp737
Vcom.android.browser
p738
g130
sg27
g272
sg13
g160
sg394
g533
sVcom.android.settings
p739
g673
sg425
g308
sVcom.android.mms
p740
g605
sg37
g320
sg559
g325
sg116
g485
sVme.ele
p741
g343
sVcom.tencent.mobileqq
p742
g393
sVcom.android.launcher
p743
g183
sVcom.tencent.mm
p744
g550
sg231
g432
sg51
g413
ssg25
(dp745
g13
g152
sg91
g644
sVcom.android.mms
p746
g596
sg408
g336
sVcom.android.launcher
p747
g184
sVcom.android.phone
p748
g347
sg264
g552
sg159
g229
sVcom.tencent.mobileqq
p749
g370
ssg27
(dp750
Vcom.tencent.mm
p751
g553
sVcom.eg.android.AlipayGphone
p752
g230
sVcom.android.launcher
p753
g185
ssg29
(dp754
Vcom.tencent.mm
p755
g554
sVcom.android.launcher
p756
g186
ssg31
(dp757
g133
g113
sg144
g555
sg139
g619
sg142
g187
ssg33
(dp758
Vcom.xuxian.market
p759
g426
sg735
g665
sVcom.baidu.BaiduMap
p760
g620
sVcom.dianping.v1
p761
g476
sVcom.nuomi
p762
g491
sVcom.android.launcher
p763
g188
sg21
g223
sVcom.tencent.mm
p764
g556
ssg35
(dp765
Vcom.android.settings
p766
g667
sVcom.tencent.mm
p767
g558
sVcom.android.launcher
p768
g189
ssg37
(dp769
g412
g235
sg414
g190
ssg39
(dp770
Vcom.tencent.mm
p771
g560
sg324
g237
sVcom.android.launcher
p772
g191
ssg41
(dp773
Vcom.android.launcher
p774
g192
ssg43
(dp775
Vcom.android.dialer
p776
g260
sg337
g657
sVcom.android.launcher
p777
g193
sVcom.android.phone
p778
g356
sg341
g562
sg23
g241
sVcom.android.calculator2
p779
g409
ssg45
(dp780
g350
g124
sg25
g263
sg91
g664
sVcom.android.mms
p781
g609
sg747
g195
sVcom.tencent.mm
p782
g564
sVtv.danmaku.bili
p783
g406
sg749
g387
ssg47
(dp784
g367
g430
sVcom.android.dialer
p785
g267
sVcom.suning.mobile.ebuy
p786
g154
sg401
g119
sg375
g649
sg17
g169
sVcom.android.launcher
p787
g196
sg45
g353
sVcom.tencent.mm
p788
g566
sVtv.danmaku.bili
p789
g398
ssg49
(dp790
Vcom.android.settings
p791
g661
sg631
g567
sg85
g633
sg725
g173
sg629
g197
sg405
g363
sVcom.tencent.mobileqq
p792
g366
ssg51
(dp793
Vcom.tencent.mm
p794
g568
sVcom.eg.android.AlipayGphone
p795
g247
sVcom.android.launcher
p796
g198
ssg53
(dp797
g685
g110
sg504
g521
sVcom.tencent.mm
p798
g569
sg425
g298
sVcom.android.mms
p799
g592
sVcom.kaola
p800
g503
sVcom.android.launcher
p801
g199
sg728
g368
sVcom.eg.android.AlipayGphone
p802
g232
ssg55
(dp803
Vcom.android.browser
p804
g106
sVcom.android.packageinstaller
p805
g285
sVcom.tencent.mm
p806
g570
sVcom.android.mms
p807
g594
sVcom.android.launcher
p808
g200
ssg57
(dp809
Vcom.wandoujia.phoenix2
p810
g135
sVcom.android.launcher
p811
g201
ssg59
(dp812
g408
g334
sg335
g252
sVcom.android.launcher
p813
g202
ssg61
(dp814
Vcom.tencent.mm
p815
g571
sVcom.android.mms
p816
g601
sVcom.android.launcher
p817
g204
ssg63
(dp818
sg65
(dp819
Vcom.tencent.mm
p820
g573
sVcom.wandoujia.phoenix2
p821
g141
sg165
g205
sVcom.tencent.mobileqq
p822
g380
ssg67
(dp823
g738
g117
sg473
g653
sVcom.sankuai.meituan
p824
g300
sVcom.baidu.BaiduMap
p825
g624
sg479
g495
sVcom.android.launcher
p826
g206
sVcom.tencent.mm
p827
g574
sg129
g239
ssg69
(dp828
g153
g381
sVcom.sankuai.meituan
p829
g302
sVcom.baidu.BaiduMap
p830
g626
sg67
g480
sVcom.android.launcher
p831
g207
sVcom.android.settings
p832
g655
sVcom.tencent.mm
p833
g575
ssg71
(dp834
Vcom.tencent.mobileqq
p835
g389
sVcom.tencent.mm
p836
g576
sVcom.android.launcher
p837
g208
ssg73
(dp838
Vcom.MobileTicket
p839
g527
sVcom.android.settings
p840
g659
sVcom.android.packageinstaller
p841
g294
sVcom.android.mms
p842
g614
sg524
g628
sVcom.android.launcher
p843
g209
sVcom.tencent.mm
p844
g577
ssg75
(dp845
g149
g131
sg107
g161
sVcom.android.launcher
p846
g210
ssg77
(dp847
g517
g105
sVcom.android.dialer
p848
g250
sg109
g422
sVcom.tencent.mm
p849
g579
sg522
g598
sg572
g469
sVcom.android.launcher
p850
g211
sVcom.android.phone
p851
g345
sVcom.tencent.mobileqq
p852
g395
sg97
g682
sg658
g505
ssg79
(dp853
Vcom.tencent.mobileqq
p854
g374
sg730
g580
sVcom.android.launcher
p855
g212
ssg81
(dp856
g133
g128
sg543
g145
sVcom.suning.mobile.ebuy
p857
g158
sg17
g171
sg19
g203
sg23
g245
sg595
g265
sg27
g270
sVcom.meizu.weathersearch
p858
g279
sg841
g293
sg33
g306
sg557
g311
sg37
g316
sg559
g323
sg727
g330
sg43
g342
sVcom.android.phone
p859
g361
sg429
g391
sg731
g400
sg779
g411
sg53
g424
sg55
g435
sg59
g448
sg61
g455
sg65
g461
sg67
g484
sg69
g499
sg73
g512
sVcom.MobileTicket
p860
g531
sg732
g537
sg445
g669
sg255
g611
sg85
g632
sg733
g677
sVcn.opda.a.phonoalbumshoushou
p861
g695
ssg83
(dp862
Vcom.MobileTicket
p863
g523
sVcom.android.dialer
p864
g256
sVcom.meizu.weathersearch
p865
g277
sVcom.android.settings
p866
g651
sg61
g453
sg257
g622
sVcom.kaola
p867
g507
sVcom.android.launcher
p868
g214
sg729
g354
sVcom.tencent.mm
p869
g584
sg588
g691
sg672
g234
sVcom.tencent.mobileqq
p870
g378
ssg85
(dp871
g541
g115
sVcom.android.dialer
p872
g258
sg439
g140
sg57
g441
sg839
g525
sg623
g478
sg69
g493
sVcom.android.launcher
p873
g215
sg498
g585
sg526
g509
ssg87
(dp874
Vcom.android.browser
p875
g125
sg618
g288
sg139
g627
sVcom.android.launcher
p876
g216
ssg89
(dp877
g133
g120
sg31
g289
sg127
g586
sg290
g217
sVcom.tencent.mobileqq
p878
g383
ssg91
(dp879
g59
g446
sVcom.android.dialer
p880
g254
sg11
g138
sg471
g112
sVcom.tencent.mobileqq
p881
g376
sg618
g287
sg583
g600
sg299
g474
sg654
g490
sVme.ele
p882
g338
sg87
g638
sg747
g213
sVcom.android.phone
p883
g359
sVcom.tencent.mm
p884
g582
sg670
g689
ssg93
(dp885
g373
g535
sg854
g388
sVcom.android.launcher
p886
g218
ssg95
(dp887
Vcom.android.browser
p888
g126
sVcom.android.packageinstaller
p889
g295
sVcom.tencent.mm
p890
g587
sVcom.android.launcher
p891
g219
ssg97
(dp892
Vcom.android.settings
p893
g671
sg454
g589
sVcom.wandoujia.phoenix2
p894
g147
sg452
g612
sVcom.android.launcher
p895
g220
sssS'adj'
p896
g102
sb.