ccopy_reg
_reconstructor
p1
(cnetworkx.classes.digraph
DiGraph
p2
c__builtin__
object
p3
NtRp4
(dp5
S'node'
p6
(dp7
Vcom.android.browser
p8
(dp9
S'weight'
p10
F3.6157211555844816e-05
ssVcom.baidu.appsearch
p11
(dp12
g10
F0.018602885345482156
ssVzte.com.cn.cmmb
p13
(dp14
g10
F7.2314423111689632e-05
ssVcom.android.settings
p15
(dp16
g10
F0.0035072495209169468
ssVcom.tencent.mm
p17
(dp18
g10
F0.060942980077376432
ssVair.tv.douyu.android
p19
(dp20
g10
F0.0046281230791481364
ssVcom.android.mms
p21
(dp22
g10
F0.065643417579636265
ssVcom.UCMobile
p23
(dp24
g10
F0.2295440575622808
ssVcom.android.phone
p25
(dp26
g10
F0.0042123151462559209
ssVcom.tencent.mobileqq
p27
(dp28
g10
F0.60359041110749534
ssVcom.android.contacts
p29
(dp30
g10
F0.0073760711573923419
ssVcom.eg.android.AlipayGphone
p31
(dp32
g10
F0.0018440177893480855
sssS'node_dict_factory'
p33
c__builtin__
dict
p34
sS'edge_attr_dict_factory'
p35
g34
sS'succ'
p36
(dp37
g8
(dp38
Vcom.android.settings
p39
(dp40
g10
I1
ssVcom.UCMobile
p41
(dp42
g10
F0.90000000000000002
sssg11
(dp43
Vcom.UCMobile
p44
(dp45
g10
I1
ssVcom.android.settings
p46
(dp47
g10
F0.90000000000000002
sssg13
(dp48
Vcom.android.settings
p49
(dp50
g10
I1
sssg15
(dp51
Vcom.UCMobile
p52
(dp53
g10
I4
ssg31
(dp54
g10
I1
sssg17
(dp55
Vcom.UCMobile
p56
(dp57
g10
I1
ssVcom.android.contacts
p58
(dp59
g10
I1
sssg19
(dp60
g29
(dp61
g10
I1
sssg21
(dp62
Vcom.android.settings
p63
(dp64
g10
F1.8999999999999999
ssVcom.tencent.mm
p65
(dp66
g10
I1
ssVcom.android.contacts
p67
(dp68
g10
F2.7000000000000002
ssVcom.android.phone
p69
(dp70
g10
F2.8999999999999999
sssg23
(dp71
Vcom.android.settings
p72
(dp73
g10
F5.9000000000000004
ssVcom.tencent.mm
p74
(dp75
g10
F1.8999999999999999
ssVcom.tencent.mobileqq
p76
(dp77
g10
I2
ssVcom.android.mms
p78
(dp79
g10
I1
sssg25
(dp80
Vcom.android.mms
p81
(dp82
g10
F0.90000000000000002
ssg27
(dp83
g10
I3
ssVcom.android.contacts
p84
(dp85
g10
F3.8999999999999999
sssg27
(dp86
Vcom.UCMobile
p87
(dp88
g10
I1
ssg21
(dp89
g10
I2
ssVcom.android.contacts
p90
(dp91
g10
I1
ssVcom.android.settings
p92
(dp93
g10
F1.8999999999999999
sssg29
(dp94
Vcom.UCMobile
p95
(dp96
g10
I1
ssg81
(dp97
g10
F1.8999999999999999
ssVcom.tencent.mm
p98
(dp99
g10
F1.7
ssg69
(dp100
g10
I1
sssg31
(dp101
Vcom.android.settings
p102
(dp103
g10
I1
ssVcom.android.phone
p104
(dp105
g10
I1
ssssS'edge'
p106
g37
sS'graph'
p107
(dp108
sS'adjlist_dict_factory'
p109
g34
sS'adj'
p110
g37
sS'pred'
p111
(dp112
g8
(dp113
sg11
(dp114
sg13
(dp115
sg15
(dp116
g8
g40
sg13
g50
sVcom.tencent.mobileqq
p117
g93
sVcom.android.mms
p118
g64
sg52
g73
sg11
g47
sg31
g103
ssg17
(dp119
Vcom.UCMobile
p120
g75
sg78
g66
sg58
g99
ssg19
(dp121
sg21
(dp122
g95
g79
sVcom.tencent.mobileqq
p123
g89
sVcom.android.contacts
p124
g97
sVcom.android.phone
p125
g82
ssg23
(dp126
g8
g42
sg11
g45
sg15
g53
sg74
g57
sVcom.android.contacts
p127
g96
sg117
g88
ssg25
(dp128
Vcom.android.mms
p129
g70
sg67
g100
sVcom.eg.android.AlipayGphone
p130
g105
ssg27
(dp131
g23
g77
sVcom.android.phone
p132
g83
ssg29
(dp133
g129
g68
sg17
g59
sg25
g85
sVcom.tencent.mobileqq
p134
g91
sg19
g61
ssg31
(dp135
Vcom.android.settings
p136
g54
sssb.