ccopy_reg
_reconstructor
p1
(cnetworkx.classes.digraph
DiGraph
p2
c__builtin__
object
p3
NtRp4
(dp5
S'node'
p6
(dp7
Vcom.sankuai.meituan
p8
(dp9
S'weight'
p10
F0.0006595022565997579
ssVcom.wandoujia.phoenix2
p11
(dp12
g10
F7.4043334291878829e-05
ssVcom.youdao.dict
p13
(dp14
g10
F0.00011536984645478793
ssVcom.shuqi.com.controller
p15
(dp16
g10
F0.00011364790844800006
ssVcom.android.deskclock
p17
(dp18
g10
F0.091267880173777988
ssVcom.UCMobile
p19
(dp20
g10
F0.2366752132189737
ssVcom.tencent.qqgame.qqTexaswvga
p21
(dp22
g10
F0.0026672819725144254
ssVcom.sohu.inputmethod.sogou
p23
(dp24
g10
F0.0020267210339893343
ssVcom.storm.smart
p25
(dp26
g10
F0.00065261450457260639
ssVmy.PCamera
p27
(dp28
g10
F6.7155582264727309e-05
ssVcom.android.contacts
p29
(dp30
g10
F0.05482995001213966
ssVcom.eg.android.AlipayGphone
p31
(dp32
g10
F0.016363576878505221
ssVcom.android.wifi
p33
(dp34
g10
F1.0331628040727278e-05
ssVcom.zhihu.android
p35
(dp36
g10
F0.0058838621691941848
ssVcom.chinamworld.main
p37
(dp38
g10
F0.00022040806486884858
ssVcn.wps.moffice_eng
p39
(dp40
g10
F8.6096900339393982e-06
ssVcom.android.packageinstaller
p41
(dp42
g10
F0.00022385194088242436
ssVcom.qqgame.hlddz
p43
(dp44
g10
F1.5497442061090916e-05
ssVcom.android.gallery3d
p45
(dp46
g10
F0.00090573939157042465
ssVcom.android.video
p47
(dp48
g10
F0.00074732109494593979
ssVcom.android.phone
p49
(dp50
g10
F0.033638058962601226
ssVcom.android.nfc
p51
(dp52
g10
F1.0331628040727278e-05
ssVcom.uniriho.szt
p53
(dp54
g10
F0.00070943845879660645
ssVcom.tencent.mobileqq
p55
(dp56
g10
F0.18783588553244907
ssVcom.sankuai.meituan.takeoutnew
p57
(dp58
g10
F0.0004235967496698184
ssVcom.cmpay.hjb
p59
(dp60
g10
F5.8545892230787905e-05
ssVqsbk.app
p61
(dp62
g10
F0.0025157514279170921
ssVcom.android.calculator
p63
(dp64
g10
F0.012360071012723401
ssVcom.quora.android
p65
(dp66
g10
F0.00114508877451394
ssVcn.com.fetion
p67
(dp68
g10
F0.0002359055069299395
ssVcom.yipiao
p69
(dp70
g10
F0.0028962997274172135
ssVcom.dianping.v1
p71
(dp72
g10
F0.00020318868480096979
ssVcom.android.fileexplorer
p73
(dp74
g10
F0.0012914535050909098
ssVcom.coomix.app.bus
p75
(dp76
g10
F0.0012966193191112734
ssVcom.Qunar
p77
(dp78
g10
F0.00025312488699781832
ssVcom.android.email
p79
(dp80
g10
F0.012769892258338916
ssVcom.jrdcom.app2sdcard
p81
(dp82
g10
F6.8877520271515185e-05
ssVcom.xunlei.downloadprovider
p83
(dp84
g10
F0.0018992976214870312
ssVcom.huawei.mobilenotes
p85
(dp86
g10
F0.021655092373364375
ssVcom.cnvcs.gomoku
p87
(dp88
g10
F0.00081103280119709125
ssVcom.rsa.securidapp
p89
(dp90
g10
F0.00047697682788024265
ssVcom.android.calendar
p91
(dp92
g10
F4.9936202196848509e-05
ssVcom.tencent.mm
p93
(dp94
g10
F0.20985086294923211
ssVcom.android.mms
p95
(dp96
g10
F0.011032456809489945
ssVcom.baidu.BaiduMap
p97
(dp98
g10
F0.061490406222395183
ssVcmb.pb
p99
(dp100
g10
F0.0095378146195980659
ssVcom.cmcc.wallet
p101
(dp102
g10
F2.9272946115393953e-05
ssVcom.android.taskmanager
p103
(dp104
g10
F7.9209148312242458e-05
ssVcom.android.settings
p105
(dp106
g10
F0.0059647932555132151
ssVcom.android.camera
p107
(dp108
g10
F0.0058580330990923666
ssVcom.cmcc.nqweather.cmm812
p109
(dp110
g10
F2.4107132095030316e-05
sssS'node_dict_factory'
p111
c__builtin__
dict
p112
sS'edge_attr_dict_factory'
p113
g112
sS'succ'
p114
(dp115
g8
(dp116
g71
(dp117
g10
I1
sssg11
(dp118
Vcom.android.packageinstaller
p119
(dp120
g10
I1
ssVcom.uniriho.szt
p121
(dp122
g10
F1.3
ssVcom.eg.android.AlipayGphone
p123
(dp124
g10
F0.69999999999999996
sssg13
(dp125
Vcom.quora.android
p126
(dp127
g10
I2
sssg15
(dp128
Vcom.tencent.mm
p129
(dp130
g10
F0.90000000000000002
ssg87
(dp131
g10
I1
sssg17
(dp132
Vcom.android.email
p133
(dp134
g10
I1
ssVcom.tencent.mm
p135
(dp136
g10
F2.8999999999999999
sssg19
(dp137
Vcom.zhihu.android
p138
(dp139
g10
F1.7
ssg33
(dp140
g10
F0.90000000000000002
ssVcom.huawei.mobilenotes
p141
(dp142
g10
I1
ssVcom.tencent.mobileqq
p143
(dp144
g10
F21.100000000000001
ssVcom.sankuai.meituan
p145
(dp146
g10
I1
ssVcom.android.mms
p147
(dp148
g10
F9
ssVcom.baidu.BaiduMap
p149
(dp150
g10
F2.5999999999999996
ssg99
(dp151
g10
F2.1000000000000001
ssVcom.android.fileexplorer
p152
(dp153
g10
I1
ssVcom.android.phone
p154
(dp155
g10
F16.900000000000006
ssVcom.storm.smart
p156
(dp157
g10
F1.3
ssVcom.android.email
p158
(dp159
g10
F2.7000000000000002
ssVcom.tencent.mm
p160
(dp161
g10
F39.699999999999996
ssVcom.android.contacts
p162
(dp163
g10
F15.800000000000001
ssg31
(dp164
g10
F3.5
ssVcom.android.settings
p165
(dp166
g10
F7.7999999999999998
sssg21
(dp167
Vcom.android.email
p168
(dp169
g10
I1
ssg43
(dp170
g10
F0.90000000000000002
ssVcom.tencent.mm
p171
(dp172
g10
F2.7000000000000002
ssVcom.android.contacts
p173
(dp174
g10
F0.90000000000000002
ssVcom.android.phone
p175
(dp176
g10
F1.1000000000000001
sssg23
(dp177
Vcom.tencent.mm
p178
(dp179
g10
I1
sssg25
(dp180
Vcom.android.video
p181
(dp182
g10
I1
ssVcom.android.phone
p183
(dp184
g10
I1
sssg27
(dp185
Vcom.tencent.mm
p186
(dp187
g10
I1
sssg29
(dp188
g85
(dp189
g10
F3.1999999999999997
ssg61
(dp190
g10
I1
ssg45
(dp191
g10
F2.6999999999999997
ssVcom.zhihu.android
p192
(dp193
g10
F2.2999999999999998
ssVcom.android.calculator
p194
(dp195
g10
I1
ssVcom.tencent.mm
p196
(dp197
g10
F71.500000000000043
ssVcom.sankuai.meituan.takeoutnew
p198
(dp199
g10
F2.3999999999999999
ssg95
(dp200
g10
F30.499999999999993
ssg97
(dp201
g10
F4
ssVcom.yipiao
p202
(dp203
g10
F2.2999999999999998
ssVcmb.pb
p204
(dp205
g10
F1.3
ssVcom.UCMobile
p206
(dp207
g10
F8.5
ssg21
(dp208
g10
I1
ssVcom.coomix.app.bus
p209
(dp210
g10
I1
ssVcom.uniriho.szt
p211
(dp212
g10
F2.2999999999999998
ssVcom.android.phone
p213
(dp214
g10
F187.50000000000014
ssVcom.android.email
p215
(dp216
g10
F14.200000000000001
ssVcom.tencent.mobileqq
p217
(dp218
g10
F26.79999999999999
ssVcom.android.settings
p219
(dp220
g10
F0.69999999999999996
sssg31
(dp221
Vcom.huawei.mobilenotes
p222
(dp223
g10
F1.3999999999999999
ssVmy.PCamera
p224
(dp225
g10
I1
ssVcom.wandoujia.phoenix2
p226
(dp227
g10
F1.3
ssVcom.android.calculator
p228
(dp229
g10
F0.40000000000000002
ssVcom.tencent.mm
p230
(dp231
g10
F15.6
ssVcom.android.packageinstaller
p232
(dp233
g10
I1
ssg147
(dp234
g10
F4.5999999999999996
ssVcom.yipiao
p235
(dp236
g10
I2
ssVcmb.pb
p237
(dp238
g10
F3.7999999999999998
ssVcom.UCMobile
p239
(dp240
g10
I1
ssg37
(dp241
g10
F0.69999999999999996
ssVcom.android.nfc
p242
(dp243
g10
F0.90000000000000002
ssg53
(dp244
g10
F3.7999999999999998
ssVcom.tencent.mobileqq
p245
(dp246
g10
F6.2000000000000002
ssVcom.android.contacts
p247
(dp248
g10
F0.90000000000000002
sssg33
(dp249
Vcom.android.settings
p250
(dp251
g10
I1
ssVcom.android.mms
p252
(dp253
g10
F0.69999999999999996
ssVcom.baidu.BaiduMap
p254
(dp255
g10
F0.40000000000000002
ssVcom.UCMobile
p256
(dp257
g10
F0.90000000000000002
sssg35
(dp258
Vcom.UCMobile
p259
(dp260
g10
F1.7
ssg107
(dp261
g10
F1.3
ssVcom.android.email
p262
(dp263
g10
F1.7
ssVcom.tencent.mm
p264
(dp265
g10
F5.3000000000000007
ssVcom.tencent.mobileqq
p266
(dp267
g10
F1.8999999999999999
sssg37
(dp268
g228
(dp269
g10
I1
ssg59
(dp270
g10
F0.69999999999999996
ssg101
(dp271
g10
F1.3
sssg39
(dp272
sg41
(dp273
Vcom.android.email
p274
(dp275
g10
F0.69999999999999996
ssg11
(dp276
g10
I1
ssVcom.android.mms
p277
(dp278
g10
F0.69999999999999996
ssg67
(dp279
g10
F1.3
ssg73
(dp280
g10
F1.8999999999999999
ssVcom.coomix.app.bus
p281
(dp282
g10
I1
ssg121
(dp283
g10
F2.3999999999999999
ssVcom.android.contacts
p284
(dp285
g10
F0.40000000000000002
ssg123
(dp286
g10
F1.7000000000000002
sssg43
(dp287
Vcom.tencent.mm
p288
(dp289
g10
I1
sssg45
(dp290
Vcom.yipiao
p291
(dp292
g10
I1
ssg47
(dp293
g10
F17.199999999999996
ssVcom.android.phone
p294
(dp295
g10
F1.1000000000000001
ssg25
(dp296
g10
F1.7
ssVcom.tencent.mm
p297
(dp298
g10
F1.8999999999999999
ssVcom.android.contacts
p299
(dp300
g10
F1.6000000000000001
sssg47
(dp301
Vcom.storm.smart
p302
(dp303
g10
I1
ssVcom.android.gallery3d
p304
(dp305
g10
F16.299999999999997
sssg49
(dp306
g35
(dp307
g10
F1.6000000000000001
ssg45
(dp308
g10
F2.7000000000000002
ssg109
(dp309
g10
F0.69999999999999996
ssg85
(dp310
g10
F1.6000000000000001
ssVcom.android.calculator
p311
(dp312
g10
F0.69999999999999996
ssVcom.tencent.mobileqq
p313
(dp314
g10
F16.899999999999999
ssg95
(dp315
g10
F12.9
ssVcom.baidu.BaiduMap
p316
(dp317
g10
F1.8999999999999999
ssg206
(dp318
g10
F13.100000000000001
ssVcom.tencent.qqgame.qqTexaswvga
p319
(dp320
g10
I1
ssVcom.android.settings
p321
(dp322
g10
F8.6999999999999993
ssVcom.storm.smart
p323
(dp324
g10
I1
ssg107
(dp325
g10
F1.3999999999999999
ssg215
(dp326
g10
F6.7000000000000002
ssVcom.tencent.mm
p327
(dp328
g10
F45.799999999999976
ssVcom.android.contacts
p329
(dp330
g10
F126.40000000000015
ssVcom.eg.android.AlipayGphone
p331
(dp332
g10
F0.90000000000000002
ssg198
(dp333
g10
F2.0999999999999996
sssg51
(dp334
g11
(dp335
g10
F0.69999999999999996
ssVcom.android.packageinstaller
p336
(dp337
g10
F1.3
ssg53
(dp338
g10
F4
ssVcom.android.mms
p339
(dp340
g10
F0.90000000000000002
ssVcom.eg.android.AlipayGphone
p341
(dp342
g10
I1
sssg53
(dp343
g219
(dp344
g10
F3.1999999999999997
ssg336
(dp345
g10
F1.7
ssVcom.android.email
p346
(dp347
g10
F2.1000000000000001
ssg11
(dp348
g10
F2.6000000000000001
ssg123
(dp349
g10
F2.7000000000000002
sssg55
(dp350
g11
(dp351
g10
F0.40000000000000002
ssg15
(dp352
g10
I1
ssVcom.UCMobile
p353
(dp354
g10
F22.300000000000001
ssg25
(dp355
g10
F0.69999999999999996
ssg27
(dp356
g10
F2
ssVcom.android.contacts
p357
(dp358
g10
F61.599999999999994
ssVcom.eg.android.AlipayGphone
p359
(dp360
g10
F6.2999999999999998
ssVcom.zhihu.android
p361
(dp362
g10
F2.8999999999999999
ssg336
(dp363
g10
F1.7
ssVcom.android.gallery3d
p364
(dp365
g10
F3.3999999999999999
ssg181
(dp366
g10
F0.40000000000000002
ssVcom.android.phone
p367
(dp368
g10
F31.799999999999979
ssVcom.android.nfc
p369
(dp370
g10
I1
ssVcom.uniriho.szt
p371
(dp372
g10
F2
ssg93
(dp373
g10
F89.500000000000043
ssg67
(dp374
g10
F1.7
ssVcom.yipiao
p375
(dp376
g10
F8
ssVcom.android.fileexplorer
p377
(dp378
g10
I1
ssVcom.coomix.app.bus
p379
(dp380
g10
F1.8999999999999999
ssg79
(dp381
g10
F18.899999999999999
ssg83
(dp382
g10
I3
ssVcom.huawei.mobilenotes
p383
(dp384
g10
I3
ssg87
(dp385
g10
F0.90000000000000002
ssVcom.rsa.securidapp
p386
(dp387
g10
F0.90000000000000002
ssVcom.android.calendar
p388
(dp389
g10
F0.90000000000000002
ssVcom.android.settings
p390
(dp391
g10
F0.69999999999999996
ssVcom.android.mms
p392
(dp393
g10
F14.200000000000001
ssVcom.baidu.BaiduMap
p394
(dp395
g10
F8.5
ssg237
(dp396
g10
F1.3999999999999999
sssg57
(dp397
Vcom.tencent.mm
p398
(dp399
g10
F1.7
ssVcom.android.phone
p400
(dp401
g10
I1
sssg59
(dp402
Vcom.cmcc.wallet
p403
(dp404
g10
I1
sssg61
(dp405
Vcom.tencent.mobileqq
p406
(dp407
g10
F0.90000000000000002
ssVcom.tencent.mm
p408
(dp409
g10
I1
sssg63
(dp410
g59
(dp411
g10
F0.90000000000000002
ssVcom.UCMobile
p412
(dp413
g10
I1
ssg101
(dp414
g10
F1.7
ssVcom.android.email
p415
(dp416
g10
F0.90000000000000002
ssVcom.tencent.mm
p417
(dp418
g10
F4.1000000000000005
ssVcom.eg.android.AlipayGphone
p419
(dp420
g10
F0.90000000000000002
sssg65
(dp421
g13
(dp422
g10
F1.8999999999999999
sssg67
(dp423
Vcom.android.gallery3d
p424
(dp425
g10
I1
ssg277
(dp426
g10
I1
sssg69
(dp427
g364
(dp428
g10
I1
ssVcom.tencent.mobileqq
p429
(dp430
g10
F9
ssVcom.android.mms
p431
(dp432
g10
F1.3
ssVcom.android.phone
p433
(dp434
g10
I1
ssVcom.android.email
p435
(dp436
g10
I1
ssVcom.tencent.mm
p437
(dp438
g10
F2
ssVcom.android.contacts
p439
(dp440
g10
I1
ssg359
(dp441
g10
F5.2000000000000002
sssg71
(dp442
sg73
(dp443
g8
(dp444
g10
F0.90000000000000002
ssVcom.android.gallery3d
p445
(dp446
g10
I1
ssg71
(dp447
g10
F0.69999999999999996
ssg181
(dp448
g10
F0.69999999999999996
ssg103
(dp449
g10
I1
ssVcom.android.phone
p450
(dp451
g10
F3
ssg25
(dp452
g10
F3
ssg274
(dp453
g10
F1.8999999999999999
ssg284
(dp454
g10
F1.6000000000000001
sssg75
(dp455
Vcom.android.settings
p456
(dp457
g10
F1.7
ssVcom.android.packageinstaller
p458
(dp459
g10
I1
ssg67
(dp460
g10
F1.7
ssVcom.android.mms
p461
(dp462
g10
F11.700000000000001
ssg97
(dp463
g10
F2.7000000000000002
ssVcom.android.phone
p464
(dp465
g10
F0.90000000000000002
ssVcom.android.contacts
p466
(dp467
g10
F1.7
sssg77
(dp468
Vcom.tencent.mm
p469
(dp470
g10
I1
sssg79
(dp471
g39
(dp472
g10
I1
ssVcom.tencent.mobileqq
p473
(dp474
g10
F8.7000000000000011
ssVcom.android.mms
p475
(dp476
g10
F3.8999999999999999
ssg206
(dp477
g10
I1
ssVcom.tencent.qqgame.qqTexaswvga
p478
(dp479
g10
I1
ssVcom.android.phone
p480
(dp481
g10
F12.200000000000001
ssVcom.tencent.mm
p482
(dp483
g10
F10.1
ssVcom.android.contacts
p484
(dp485
g10
F22.799999999999994
ssVcom.eg.android.AlipayGphone
p486
(dp487
g10
F1.7
ssg390
(dp488
g10
F2.2999999999999998
sssg81
(dp489
g105
(dp490
g10
I1
sssg83
(dp491
Vcom.android.gallery3d
p492
(dp493
g10
I1
sssg85
(dp494
Vcom.android.calculator
p495
(dp496
g10
I1
ssVcom.android.gallery3d
p497
(dp498
g10
F0.90000000000000002
ssVcom.UCMobile
p499
(dp500
g10
I1
ssVcom.android.phone
p501
(dp502
g10
F0.69999999999999996
ssVcom.android.camera
p503
(dp504
g10
I1
ssVcom.tencent.mm
p505
(dp506
g10
I2
ssVcom.android.contacts
p507
(dp508
g10
F3.1999999999999997
sssg87
(dp509
g129
(dp510
g10
I1
sssg89
(dp511
Vcom.android.email
p512
(dp513
g10
I1
sssg91
(dp514
Vcom.tencent.mm
p515
(dp516
g10
I1
ssVcom.android.contacts
p517
(dp518
g10
F1.8999999999999999
ssVcom.android.phone
p519
(dp520
g10
F0.69999999999999996
sssg93
(dp521
Vcom.android.deskclock
p522
(dp523
g10
I1
ssg19
(dp524
g10
F29.399999999999995
ssg478
(dp525
g10
F1.6000000000000001
ssg27
(dp526
g10
I1
ssVcom.android.contacts
p527
(dp528
g10
F95.10000000000008
ssg31
(dp529
g10
F22.399999999999995
ssg35
(dp530
g10
F4.7000000000000002
ssg37
(dp531
g10
F0.40000000000000002
ssg43
(dp532
g10
I1
ssg364
(dp533
g10
F0.90000000000000002
ssg49
(dp534
g10
F74.400000000000006
ssg211
(dp535
g10
F1.6000000000000001
ssVcom.tencent.mobileqq
p536
(dp537
g10
F87.000000000000028
ssg57
(dp538
g10
F3.2999999999999998
ssg63
(dp539
g10
I3
ssVcom.yipiao
p540
(dp541
g10
F2.7000000000000002
ssVcom.Qunar
p542
(dp543
g10
I1
ssVcom.android.email
p544
(dp545
g10
F19.400000000000002
ssVcom.huawei.mobilenotes
p546
(dp547
g10
F6.4000000000000004
ssg89
(dp548
g10
I1
ssg91
(dp549
g10
F2.7000000000000002
ssg390
(dp550
g10
F7.6000000000000005
ssVcom.android.mms
p551
(dp552
g10
F17.5
ssVcom.baidu.BaiduMap
p553
(dp554
g10
I4
ssg99
(dp555
g10
F3.5
ssg107
(dp556
g10
F7.1000000000000005
sssg95
(dp557
g53
(dp558
g10
F2
ssg386
(dp559
g10
I1
ssg311
(dp560
g10
F1.3
ssVcom.tencent.mobileqq
p561
(dp562
g10
F14.6
ssVcn.com.fetion
p563
(dp564
g10
I1
ssg254
(dp565
g10
F1.8999999999999999
ssg375
(dp566
g10
F1.6000000000000001
ssg204
(dp567
g10
F4.4000000000000004
ssVcom.UCMobile
p568
(dp569
g10
F7.1000000000000005
ssVcom.coomix.app.bus
p570
(dp571
g10
F10.5
ssg154
(dp572
g10
F16.200000000000003
ssg51
(dp573
g10
F2.3999999999999999
ssVcom.android.email
p574
(dp575
g10
F2.8999999999999999
ssVcom.tencent.mm
p576
(dp577
g10
F20.800000000000001
ssVcom.android.contacts
p578
(dp579
g10
F32.699999999999996
ssg341
(dp580
g10
F1.3
ssg456
(dp581
g10
F2
sssg97
(dp582
g85
(dp583
g10
I1
ssg33
(dp584
g10
F0.40000000000000002
ssVcom.tencent.mm
p585
(dp586
g10
F6.9000000000000004
ssg145
(dp587
g10
F0.90000000000000002
ssVcom.yipiao
p588
(dp589
g10
I1
ssVcom.UCMobile
p590
(dp591
g10
F2.5999999999999996
ssVcom.coomix.app.bus
p592
(dp593
g10
F2.7000000000000002
ssg77
(dp594
g10
F1.7
ssg464
(dp595
g10
F4.3999999999999995
ssVcom.android.camera
p596
(dp597
g10
F0.90000000000000002
ssVcom.android.email
p598
(dp599
g10
F1.8999999999999999
ssVcom.tencent.mobileqq
p600
(dp601
g10
F3.8999999999999999
ssVcom.android.contacts
p602
(dp603
g10
F4.3999999999999995
ssVcom.android.settings
p604
(dp605
g10
F6
sssg99
(dp606
g59
(dp607
g10
F0.40000000000000002
ssg37
(dp608
g10
F1.8999999999999999
ssg228
(dp609
g10
F1.6000000000000001
ssVcom.tencent.mobileqq
p610
(dp611
g10
F0.69999999999999996
ssg147
(dp612
g10
F3.3999999999999999
ssg101
(dp613
g10
F1.1000000000000001
ssVcom.android.phone
p614
(dp615
g10
F0.90000000000000002
ssVcom.tencent.mm
p616
(dp617
g10
F3
ssVcom.android.contacts
p618
(dp619
g10
I1
ssg31
(dp620
g10
F1.8999999999999999
ssVcom.android.settings
p621
(dp622
g10
I1
sssg101
(dp623
g59
(dp624
g10
I1
sssg103
(dp625
g8
(dp626
g10
I1
ssg71
(dp627
g10
F0.90000000000000002
sssg105
(dp628
Vcom.uniriho.szt
p629
(dp630
g10
I1
ssg33
(dp631
g10
F1.7
ssVcom.android.mms
p632
(dp633
g10
F3.2999999999999998
ssg254
(dp634
g10
F1.1000000000000001
ssVcom.UCMobile
p635
(dp636
g10
F7.8000000000000016
ssVcom.coomix.app.bus
p637
(dp638
g10
F0.90000000000000002
ssVcom.android.phone
p639
(dp640
g10
F8.1999999999999993
ssg346
(dp641
g10
F0.90000000000000002
ssVcom.tencent.mm
p642
(dp643
g10
F5.4000000000000004
ssVcom.android.contacts
p644
(dp645
g10
F0.90000000000000002
ssg109
(dp646
g10
I1
sssg107
(dp647
g321
(dp648
g10
F1.7
ssVcom.tencent.mm
p649
(dp650
g10
I2
ssg497
(dp651
g10
I4
ssVcom.android.phone
p652
(dp653
g10
I1
ssVcom.tencent.mobileqq
p654
(dp655
g10
F2.6000000000000001
ssg109
(dp656
g10
F1.3
sssg109
(dp657
ssS'edge'
p658
g115
sS'graph'
p659
(dp660
sS'adjlist_dict_factory'
p661
g112
sS'adj'
p662
g115
sS'pred'
p663
(dp664
g8
(dp665
g590
g146
sVcom.android.fileexplorer
p666
g444
sg103
g626
sVcom.baidu.BaiduMap
p667
g587
ssg11
(dp668
g369
g335
sg371
g348
sVcom.tencent.mobileqq
p669
g351
sg336
g276
sg123
g227
ssg13
(dp670
g65
g422
ssg15
(dp671
Vcom.tencent.mobileqq
p672
g352
ssg17
(dp673
Vcom.tencent.mm
p674
g523
ssg19
(dp675
Vcom.zhihu.android
p676
g260
sg33
g257
sVcom.huawei.mobilenotes
p677
g500
sVcom.android.calculator
p678
g413
sVcom.tencent.mobileqq
p679
g354
sVcom.android.mms
p680
g569
sg667
g591
sVcom.android.phone
p681
g318
sg544
g477
sVcom.tencent.mm
p682
g524
sVcom.android.contacts
p683
g207
sVcom.eg.android.AlipayGphone
p684
g240
sg165
g636
ssg21
(dp685
Vcom.android.email
p686
g479
sVcom.tencent.mm
p687
g525
sVcom.android.contacts
p688
g208
sVcom.android.phone
p689
g320
ssg23
(dp690
sg25
(dp691
Vcom.UCMobile
p692
g157
sg445
g296
sg377
g452
sg181
g303
sg183
g324
sVcom.tencent.mobileqq
p693
g355
ssg27
(dp694
Vcom.tencent.mm
p695
g526
sVcom.tencent.mobileqq
p696
g356
sVcom.eg.android.AlipayGphone
p697
g225
ssg29
(dp698
Vcom.huawei.mobilenotes
p699
g508
sg45
g300
sVcom.UCMobile
p700
g163
sVcom.android.calendar
p701
g518
sVcom.tencent.mm
p702
g528
sg41
g285
sg551
g579
sVcom.baidu.BaiduMap
p703
g603
sg375
g440
sVcmb.pb
p704
g619
sg73
g454
sg319
g174
sg592
g467
sVcom.android.phone
p705
g330
sVcom.android.email
p706
g485
sg313
g358
sg331
g248
sVcom.android.settings
p707
g645
ssg31
(dp708
Vcom.android.email
p709
g487
sg11
g124
sg311
g420
sVcom.tencent.mobileqq
p710
g360
sg336
g286
sVcom.android.mms
p711
g580
sg202
g441
sg99
g620
sg19
g164
sVcom.android.phone
p712
g332
sg51
g342
sg121
g349
sg682
g529
ssg33
(dp713
Vcom.android.settings
p714
g631
sVcom.baidu.BaiduMap
p715
g584
sVcom.UCMobile
p716
g140
ssg35
(dp717
g259
g139
sVcom.tencent.mobileqq
p718
g362
sVcom.tencent.mm
p719
g530
sVcom.android.contacts
p720
g193
sVcom.android.phone
p721
g307
ssg37
(dp722
Vcmb.pb
p723
g608
sVcom.tencent.mm
p724
g531
sVcom.eg.android.AlipayGphone
p725
g241
ssg39
(dp726
Vcom.android.email
p727
g472
ssg41
(dp728
g11
g120
sVcom.coomix.app.bus
p729
g459
sg369
g337
sg371
g345
sg669
g363
sVcom.eg.android.AlipayGphone
p730
g233
ssg43
(dp731
Vcom.tencent.qqgame.qqTexaswvga
p732
g170
sVcom.tencent.mm
p733
g532
ssg45
(dp734
Vcom.xunlei.downloadprovider
p735
g493
sVcom.huawei.mobilenotes
p736
g498
sVcom.tencent.mobileqq
p737
g365
sVcn.com.fetion
p738
g425
sg540
g428
sg377
g446
sg47
g305
sVcom.android.phone
p739
g308
sg503
g651
sVcom.tencent.mm
p740
g533
sVcom.android.contacts
p741
g191
ssg47
(dp742
g25
g182
sg693
g366
sVcom.android.gallery3d
p743
g293
sg377
g448
ssg49
(dp744
g699
g502
sg45
g295
sg568
g155
sg701
g520
sVcom.tencent.mm
p745
g534
sg680
g572
sg97
g595
sVcom.yipiao
p746
g434
sg704
g615
sg73
g451
sg319
g176
sg209
g465
sg707
g640
sg156
g184
sVcom.android.camera
p747
g653
sg706
g481
sVcom.tencent.mobileqq
p748
g368
sg29
g214
sg198
g401
ssg51
(dp749
g669
g370
sg711
g573
sg341
g243
ssg53
(dp750
g11
g122
sVcom.tencent.mm
p751
g535
sg336
g283
sg339
g558
sg219
g630
sg51
g338
sg669
g372
sVcom.android.contacts
p752
g212
sg341
g244
ssg55
(dp753
Vcom.zhihu.android
p754
g267
sVqsbk.app
p755
g407
sg392
g562
sVcom.baidu.BaiduMap
p756
g601
sg69
g430
sVcmb.pb
p757
g611
sVcom.UCMobile
p758
g144
sVcom.android.phone
p759
g314
sg107
g655
sVcom.android.email
p760
g474
sVcom.tencent.mm
p761
g537
sVcom.android.contacts
p762
g218
sg359
g246
ssg57
(dp763
Vcom.tencent.mm
p764
g538
sVcom.android.contacts
p765
g199
sVcom.android.phone
p766
g333
ssg59
(dp767
Vcmb.pb
p768
g607
sg228
g411
sg37
g270
sg101
g624
ssg61
(dp769
Vcom.android.contacts
p770
g190
ssg63
(dp771
Vcom.huawei.mobilenotes
p772
g496
sg37
g269
sVcom.android.mms
p773
g560
sg723
g609
sVcom.android.phone
p774
g312
sVcom.tencent.mm
p775
g539
sVcom.android.contacts
p776
g195
sg725
g229
ssg65
(dp777
g13
g127
ssg67
(dp778
g277
g564
sVcom.android.packageinstaller
p779
g279
sg281
g460
sVcom.tencent.mobileqq
p780
g374
ssg69
(dp781
g364
g292
sVcom.android.mms
p782
g566
sVcom.baidu.BaiduMap
p783
g589
sg740
g541
sg439
g203
sg359
g236
sVcom.tencent.mobileqq
p784
g376
ssg71
(dp785
g666
g447
sg8
g117
sg103
g627
ssg73
(dp786
g692
g153
sg41
g280
sg693
g378
ssg75
(dp787
Vcom.android.settings
p788
g638
sg779
g282
sg461
g571
sVcom.baidu.BaiduMap
p789
g593
sVcom.tencent.mobileqq
p790
g380
sVcom.android.contacts
p791
g210
ssg77
(dp792
g469
g543
sVcom.baidu.BaiduMap
p793
g594
ssg79
(dp794
Vcom.UCMobile
p795
g159
sg754
g263
sg89
g513
sg678
g416
sVcom.tencent.mobileqq
p796
g381
sg41
g275
sVcom.android.mms
p797
g575
sVcom.baidu.BaiduMap
p798
g599
sVcom.yipiao
p799
g436
sVcom.android.deskclock
p800
g134
sg73
g453
sg319
g169
sg480
g326
sg211
g347
sg482
g545
sg484
g216
sg219
g641
ssg81
(dp801
sg83
(dp802
Vcom.tencent.mobileqq
p803
g382
ssg85
(dp804
Vcom.tencent.mobileqq
p805
g384
sVcom.baidu.BaiduMap
p806
g583
sVcom.UCMobile
p807
g142
sVcom.android.phone
p808
g310
sVcom.tencent.mm
p809
g547
sVcom.android.contacts
p810
g189
sVcom.eg.android.AlipayGphone
p811
g223
ssg87
(dp812
g672
g385
sg15
g131
ssg89
(dp813
Vcom.tencent.mobileqq
p814
g387
sVcom.tencent.mm
p815
g548
sVcom.android.mms
p816
g559
ssg91
(dp817
Vcom.tencent.mobileqq
p818
g389
sVcom.tencent.mm
p819
g549
ssg93
(dp820
g15
g130
sg17
g136
sVcom.UCMobile
p821
g161
sg21
g172
sg23
g179
sg27
g187
sg527
g197
sVcom.eg.android.AlipayGphone
p822
g231
sg35
g265
sg43
g289
sg45
g298
sg721
g328
sg55
g373
sg198
g399
sg755
g409
sVcom.android.calculator
p823
g418
sg235
g438
sg77
g470
sVcom.android.email
p824
g483
sg699
g506
sg87
g510
sg388
g516
sg390
g643
sg551
g577
sVcom.baidu.BaiduMap
p825
g586
sVcmb.pb
p826
g617
sg107
g650
ssg95
(dp827
g33
g253
sVcom.tencent.mobileqq
p828
g393
sg779
g278
sg67
g426
sVcom.yipiao
p829
g432
sg99
g612
sg19
g148
sg75
g462
sVcom.android.phone
p830
g315
sg51
g340
sVcom.android.email
p831
g476
sVcom.tencent.mm
p832
g552
sVcom.android.contacts
p833
g200
sg31
g234
sg456
g633
ssg97
(dp834
g33
g255
sVcom.tencent.mobileqq
p835
g395
sg252
g565
sVcom.UCMobile
p836
g150
sg209
g463
sg464
g317
sVcom.tencent.mm
p837
g554
sg791
g201
sg250
g634
ssg99
(dp838
Vcom.tencent.mobileqq
p839
g396
sVcom.android.mms
p840
g567
sg19
g151
sg682
g555
sVcom.android.contacts
p841
g205
sVcom.eg.android.AlipayGphone
p842
g238
ssg101
(dp843
g723
g613
sg228
g414
sg59
g404
sg37
g271
ssg103
(dp844
g666
g449
ssg105
(dp845
g211
g344
sg33
g251
sVcom.tencent.mm
p846
g550
sVcom.android.mms
p847
g581
sVcom.baidu.BaiduMap
p848
g605
sg752
g220
sVcmb.pb
p849
g622
sVcom.UCMobile
p850
g166
sVcom.coomix.app.bus
p851
g457
sg652
g322
sg747
g648
sVcom.android.email
p852
g488
sVcom.tencent.mobileqq
p853
g391
sg81
g490
ssg107
(dp854
g35
g261
sg736
g504
sg327
g556
sVcom.baidu.BaiduMap
p855
g597
sg721
g325
ssg109
(dp856
g747
g656
sg321
g646
sg652
g309
sssb.