ccopy_reg
_reconstructor
p1
(cnetworkx.classes.digraph
DiGraph
p2
c__builtin__
object
p3
NtRp4
(dp5
S'node'
p6
(dp7
Vcom.android.browser
p8
(dp9
S'weight'
p10
F4.6247380797375992e-05
ssVcom.huawei.android.FMRadio
p11
(dp12
g10
F0.0013843086194445333
ssVcom.huawei.camera
p13
(dp14
g10
F0.005253969270394206
ssVcom.taobao.taobao
p15
(dp16
g10
F0.0030327609330586952
ssVcom.handsgo.jiakao.android
p17
(dp18
g10
F0.0026916864996780472
ssVcom.android.soundrecorder
p19
(dp20
g10
F0.0011290586523513236
ssVcom.dongqiudi.news
p21
(dp22
g10
F0.087782864989665491
ssVcom.huawei.android.totemweather
p23
(dp24
g10
F0.0017765219835145876
ssVcom.android.deskclock
p25
(dp26
g10
F0.01600870873755323
ssVcom.UCMobile
p27
(dp28
g10
F0.10513052433857352
ssVcom.facebook.katana
p29
(dp30
g10
F0.0001138397065781563
ssVcom.zhihu.android
p31
(dp32
g10
F0.001230891827376315
ssVcom.snda.wifilocating
p33
(dp34
g10
F0.00039843897302354703
ssVcom.huawei.motionservice
p35
(dp36
g10
F2.2679004044867073e-05
ssVcom.netease.mobimail
p37
(dp38
g10
F0.00025569465344703075
ssVcom.huawei.android.internal.app
p39
(dp40
g10
F3.824302642859938e-05
ssVcom.android.mediacenter
p41
(dp42
g10
F8.2711661810691686e-05
ssVcom.sina.weibo
p43
(dp44
g10
F0.0033151367677349813
ssVcom.android.contacts
p45
(dp46
g10
F0.030666015645844674
ssVcom.eg.android.AlipayGphone
p47
(dp48
g10
F0.00071194285246729773
ssVcom.youdao.dict
p49
(dp50
g10
F0.00032328697922781103
ssVorg.hbrchina
p51
(dp52
g10
F0.00014363369228415814
ssVcom.aquila.bible
p53
(dp54
g10
F0.011279024678313892
ssVcom.mojang.minecraftpe
p55
(dp56
g10
F7.1149816611347681e-05
ssVcn.wps.moffice_i18n
p57
(dp58
g10
F1.8232140506657844e-05
ssVcom.huawei.hwid
p59
(dp60
g10
F3.4240849244211071e-05
ssVcom.huawei.android.thememanager
p61
(dp62
g10
F0.00018232140506657844
ssVcom.android.packageinstaller
p63
(dp64
g10
F0.0020984749036809356
ssVcom.android.gallery3d
p65
(dp66
g10
F0.0054318438119225747
ssVcom.android.documentsui
p67
(dp68
g10
F2.5347122167792612e-05
ssVcom.baidu.searchbox
p69
(dp70
g10
F1.3340590614627691e-06
ssVcom.soco.veggies3.HUAWEI
p71
(dp72
g10
F7.2928562026631374e-05
ssVcom.huawei.hidisk
p73
(dp74
g10
F0.00049004436191065718
ssVcom.huawei.systemmanager
p75
(dp76
g10
F0.0019583987022273449
ssVcom.android.hwmirror
p77
(dp78
g10
F2.2679004044867073e-05
ssVcom.sirma.mobile.bible.android
p79
(dp80
g10
F0.00086313621276641161
ssVcom.android.phone
p81
(dp82
g10
F0.0012695795401587353
ssVcom.sdu.didi.psnger
p83
(dp84
g10
F0.0001525274193605766
ssVcom.tencent.mobileqq
p85
(dp86
g10
F0.21094986783921565
ssVcom.android.calculator2
p87
(dp88
g10
F0.00052072772032430088
ssVcom.zms.android
p89
(dp90
g10
F0.0020757958996360688
ssVcom.netease.cloudmusic
p91
(dp92
g10
F0.0032208632607249456
ssVcom.huawei.android.hwouc
p93
(dp94
g10
F5.3362362458510766e-06
ssVcom.huawei.phoneservice
p95
(dp96
g10
F4.0021771843883077e-06
ssVcom.android.dreams.album
p97
(dp98
g10
F2.223431769104615e-06
ssVcom.android.systemui
p99
(dp100
g10
F0.00047448033952692486
ssVcom.kugou.android
p101
(dp102
g10
F0.0001969960547426689
ssVcom.example.chinesechess.huawei
p103
(dp104
g10
F0.009949412480389332
ssVcom.android.settings
p105
(dp106
g10
F0.015531560279903378
ssVcom.netease.newsreader.activity
p107
(dp108
g10
F0.048833231944844666
ssVcom.huawei.android.launcher
p109
(dp110
g10
F0.13097347179087646
ssVcom.lofter.android
p111
(dp112
g10
F0.0013104906847102602
ssVcom.huawei.lcagent
p113
(dp114
g10
F0.0015764131242951721
ssVcom.baidu.BaiduMap
p115
(dp116
g10
F0.0058934282471886932
ssVcom.android.email
p117
(dp118
g10
F6.8926384842243072e-05
ssVcom.huawei.health
p119
(dp120
g10
F0.0076459371675969504
ssVcom.rrh.jdb
p121
(dp122
g10
F0.00022812409951013352
ssVcom.MobileTicket
p123
(dp124
g10
F0.00068037012134601225
ssVcom.huawei.hwvplayer
p125
(dp126
g10
F3.2462103828927378e-05
ssVcom.huawei.vassistant
p127
(dp128
g10
F3.7353653720957534e-05
ssVcom.qw.android
p129
(dp130
g10
F8.9381957118005528e-05
ssVcom.android.calendar
p131
(dp132
g10
F0.0029625004891549894
ssVcom.tencent.mm
p133
(dp134
g10
F0.26422106959519309
ssVorg.wikipedia
p135
(dp136
g10
F6.6702953073138455e-06
ssVcom.huawei.android.karaokeeffect
p137
(dp138
g10
F6.2256089534929223e-06
ssVcom.example.android.notepad
p139
(dp140
g10
F0.00089648768930298086
ssVcom.liulishuo.engzo
p141
(dp142
g10
F0.00043668199945214639
ssVcom.iflytek.cmcc
p143
(dp144
g10
F4.1355830905345843e-05
ssVcom.baidu.input_huawei
p145
(dp146
g10
F0.00018676826860478766
ssVcom.android.keyguard
p147
(dp148
g10
F0.00048915498920301529
ssVcom.baidu.tieba
p149
(dp150
g10
F0.0020633446817290828
ssVcom.huawei.appmarket
p151
(dp152
g10
F0.0028753419638060883
ssVcom.huawei.android.airsharing
p153
(dp154
g10
F3.1128044767464611e-06
sssS'graph'
p155
(dp156
sS'succ'
p157
(dp158
g8
(dp159
g31
(dp160
g10
F0.40000000000000002
ssg129
(dp161
g10
F1.8
ssVcom.huawei.android.thememanager
p162
(dp163
g10
F0.69999999999999996
ssVcom.android.settings
p164
(dp165
g10
I1
ssVcom.android.packageinstaller
p166
(dp167
g10
I1
ssVcom.android.gallery3d
p168
(dp169
g10
F0.40000000000000002
ssVcom.huawei.systemmanager
p170
(dp171
g10
F0.69999999999999996
ssVcom.UCMobile
p172
(dp173
g10
F0.90000000000000002
ssVcom.lofter.android
p174
(dp175
g10
I1
ssVcom.huawei.android.launcher
p176
(dp177
g10
F6.6000000000000005
ssVcom.zms.android
p178
(dp179
g10
F2.7000000000000002
ssVcom.tencent.mm
p180
(dp181
g10
F1.3
ssVcom.android.contacts
p182
(dp183
g10
F1.3999999999999999
sssg11
(dp184
Vcom.example.chinesechess.huawei
p185
(dp186
g10
F0.90000000000000002
ssVcom.android.soundrecorder
p187
(dp188
g10
F0.40000000000000002
ssVcom.example.android.notepad
p189
(dp190
g10
F0.40000000000000002
ssVcom.android.keyguard
p191
(dp192
g10
I1
ssVcom.huawei.android.launcher
p193
(dp194
g10
F13.599999999999998
ssVcom.huawei.camera
p195
(dp196
g10
F1.8999999999999999
ssVcom.android.systemui
p197
(dp198
g10
F1.8999999999999999
ssg41
(dp199
g10
F0.69999999999999996
ssVcom.android.contacts
p200
(dp201
g10
F1.8
sssg13
(dp202
Vcom.huawei.android.FMRadio
p203
(dp204
g10
I1
ssVcom.netease.cloudmusic
p205
(dp206
g10
I2
ssVcom.huawei.android.thememanager
p207
(dp208
g10
F0.40000000000000002
ssVcom.tencent.mm
p209
(dp210
g10
F12.200000000000001
ssVcom.android.systemui
p211
(dp212
g10
F1.3
ssVcom.android.phone
p213
(dp214
g10
I2
ssVcom.android.gallery3d
p215
(dp216
g10
F14.800000000000001
ssVcom.android.documentsui
p217
(dp218
g10
F0.90000000000000002
ssVcom.taobao.taobao
p219
(dp220
g10
F0.90000000000000002
ssVcom.liulishuo.engzo
p221
(dp222
g10
F3
ssVcom.android.deskclock
p223
(dp224
g10
F0.69999999999999996
ssVcom.huawei.android.launcher
p225
(dp226
g10
F66.100000000000009
ssVcom.android.settings
p227
(dp228
g10
F0.90000000000000002
ssVcom.tencent.mobileqq
p229
(dp230
g10
F3.1000000000000001
sssg15
(dp231
Vcom.huawei.camera
p232
(dp233
g10
I2
ssVcom.tencent.mm
p234
(dp235
g10
F4.5
ssVcom.android.documentsui
p236
(dp237
g10
F2.7000000000000002
ssVcom.liulishuo.engzo
p238
(dp239
g10
F0.69999999999999996
ssg223
(dp240
g10
I1
ssVcom.UCMobile
p241
(dp242
g10
F1.3
ssVcom.huawei.android.launcher
p243
(dp244
g10
F19.299999999999997
ssVcom.huawei.lcagent
p245
(dp246
g10
I1
ssVcom.android.systemui
p247
(dp248
g10
F0.40000000000000002
ssVcom.tencent.mobileqq
p249
(dp250
g10
F1.7
ssVcom.android.contacts
p251
(dp252
g10
F2.8999999999999999
sssg17
(dp253
Vcom.android.settings
p254
(dp255
g10
F0.90000000000000002
ssVcom.tencent.mobileqq
p256
(dp257
g10
F6.5
ssVcom.tencent.mm
p258
(dp259
g10
F7.4000000000000012
ssVcom.huawei.android.launcher
p260
(dp261
g10
F14.100000000000001
ssVcom.android.systemui
p262
(dp263
g10
F3.2000000000000002
sssg19
(dp264
Vcom.aquila.bible
p265
(dp266
g10
F0.69999999999999996
ssg125
(dp267
g10
I1
ssVcom.huawei.android.launcher
p268
(dp269
g10
F3.7000000000000002
ssVcom.android.systemui
p270
(dp271
g10
F2.2000000000000002
ssVcom.android.mediacenter
p272
(dp273
g10
F0.40000000000000002
ssVcom.tencent.mobileqq
p274
(dp275
g10
I3
sssg21
(dp276
Vcom.huawei.camera
p277
(dp278
g10
F1.8999999999999999
ssVcom.android.deskclock
p279
(dp280
g10
I2
ssVcom.UCMobile
p281
(dp282
g10
F14.300000000000002
ssg43
(dp283
g10
F1.6000000000000001
ssVcom.android.contacts
p284
(dp285
g10
F4
ssg79
(dp286
g10
F0.69999999999999996
ssVcom.zhihu.android
p287
(dp288
g10
F0.90000000000000002
ssVcom.aquila.bible
p289
(dp290
g10
F3.5
ssVcom.android.packageinstaller
p291
(dp292
g10
I1
ssVcom.android.gallery3d
p293
(dp294
g10
F1.8
ssVcom.taobao.taobao
p295
(dp296
g10
F0.90000000000000002
ssVcom.huawei.systemmanager
p297
(dp298
g10
I1
ssVcom.android.phone
p299
(dp300
g10
F5.5
ssVcom.tencent.mm
p301
(dp302
g10
F75.400000000000006
ssVcom.netease.cloudmusic
p303
(dp304
g10
F0.40000000000000002
ssVcom.android.systemui
p305
(dp306
g10
F22.699999999999996
ssVcom.netease.newsreader.activity
p307
(dp308
g10
F5.1000000000000005
ssVcom.huawei.android.launcher
p309
(dp310
g10
F252.19999999999982
ssVcom.huawei.lcagent
p311
(dp312
g10
I1
ssVcom.huawei.health
p313
(dp314
g10
F1.3
ssVcom.huawei.vassistant
p315
(dp316
g10
I1
ssVcom.tencent.mobileqq
p317
(dp318
g10
F91.900000000000063
ssVcom.huawei.appmarket
p319
(dp320
g10
F0.90000000000000002
sssg23
(dp321
Vcom.tencent.mobileqq
p322
(dp323
g10
F4
ssVcom.huawei.health
p324
(dp325
g10
F0.40000000000000002
ssVcom.UCMobile
p326
(dp327
g10
F1.3
ssVcom.huawei.android.launcher
p328
(dp329
g10
F9.9000000000000004
ssVcom.android.phone
p330
(dp331
g10
F0.90000000000000002
ssVcom.tencent.mm
p332
(dp333
g10
F2.6000000000000001
ssVcom.android.contacts
p334
(dp335
g10
F1.7
sssg25
(dp336
Vcom.example.chinesechess.huawei
p337
(dp338
g10
I1
ssVcom.android.calendar
p339
(dp340
g10
I1
ssVcom.tencent.mobileqq
p341
(dp342
g10
I3
ssVcom.android.systemui
p343
(dp344
g10
F0.69999999999999996
ssVcom.huawei.android.totemweather
p345
(dp346
g10
F1.3
ssVcom.UCMobile
p347
(dp348
g10
I3
ssVcom.huawei.android.launcher
p349
(dp350
g10
F13.5
ssVcom.huawei.appmarket
p351
(dp352
g10
I1
ssVcom.tencent.mm
p353
(dp354
g10
F6.0000000000000009
ssVcom.android.contacts
p355
(dp356
g10
F2.7999999999999998
sssg27
(dp357
Vcom.android.browser
p358
(dp359
g10
F0.40000000000000002
ssVcom.huawei.lcagent
p360
(dp361
g10
I2
ssVcom.youdao.dict
p362
(dp363
g10
F0.90000000000000002
ssVcom.dongqiudi.news
p364
(dp365
g10
F24.399999999999991
ssVcom.android.deskclock
p366
(dp367
g10
F4.5999999999999996
ssVcom.snda.wifilocating
p368
(dp369
g10
F0.90000000000000002
ssVcom.huawei.android.internal.app
p370
(dp371
g10
F1.6000000000000001
ssVcom.sina.weibo
p372
(dp373
g10
F0.40000000000000002
ssVcom.android.contacts
p374
(dp375
g10
F4.9000000000000004
ssg31
(dp376
g10
F2.2000000000000002
ssg103
(dp377
g10
F2.5
ssVcom.huawei.android.thememanager
p378
(dp379
g10
F0.40000000000000002
ssg153
(dp380
g10
I1
ssVcom.android.gallery3d
p381
(dp382
g10
F9.5000000000000018
ssg99
(dp383
g10
F66.199999999999989
ssg317
(dp384
g10
F103.70000000000009
ssVcom.android.phone
p385
(dp386
g10
I2
ssVcom.android.calculator2
p387
(dp388
g10
F0.90000000000000002
ssVcom.android.calendar
p389
(dp390
g10
F0.69999999999999996
ssg89
(dp391
g10
F0.69999999999999996
ssVcom.netease.cloudmusic
p392
(dp393
g10
F2.7000000000000002
ssVcom.tencent.mm
p394
(dp395
g10
F145.60000000000034
ssVcom.aquila.bible
p396
(dp397
g10
F13.700000000000005
ssVcom.netease.newsreader.activity
p398
(dp399
g10
F11.500000000000002
ssg109
(dp400
g10
F506.89999999999822
ssg57
(dp401
g10
F0.69999999999999996
ssVcom.huawei.camera
p402
(dp403
g10
F4.4000000000000004
ssg313
(dp404
g10
F5.0000000000000009
ssVcom.MobileTicket
p405
(dp406
g10
F0.40000000000000002
ssVcom.baidu.input_huawei
p407
(dp408
g10
F1.3
ssVcom.android.settings
p409
(dp410
g10
F6.0000000000000009
ssVcom.baidu.BaiduMap
p411
(dp412
g10
F1.8
ssVcom.example.android.notepad
p413
(dp414
g10
F0.90000000000000002
ssVcom.huawei.hwid
p415
(dp416
g10
F1.8
ssVcom.lofter.android
p417
(dp418
g10
F0.90000000000000002
ssVcom.baidu.tieba
p419
(dp420
g10
F12.000000000000004
ssVcom.huawei.appmarket
p421
(dp422
g10
F3.5999999999999996
ssVcom.android.packageinstaller
p423
(dp424
g10
F0.90000000000000002
sssg29
(dp425
Vcom.huawei.android.launcher
p426
(dp427
g10
I1
sssg31
(dp428
g135
(dp429
g10
F0.90000000000000002
ssVcom.tencent.mobileqq
p430
(dp431
g10
I3
ssVcom.android.keyguard
p432
(dp433
g10
I1
ssVcom.huawei.android.launcher
p434
(dp435
g10
F6.4000000000000004
ssVcom.android.systemui
p436
(dp437
g10
F1.8999999999999999
ssVcom.tencent.mm
p438
(dp439
g10
I1
sssg33
(dp440
g11
(dp441
g10
I1
ssVcom.android.deskclock
p442
(dp443
g10
F0.90000000000000002
ssVcom.UCMobile
p444
(dp445
g10
F0.40000000000000002
ssg193
(dp446
g10
F12.1
ssVcom.huawei.lcagent
p447
(dp448
g10
F0.90000000000000002
ssg197
(dp449
g10
F4.4000000000000004
ssVcom.tencent.mm
p450
(dp451
g10
F2.2000000000000002
sssg35
(dp452
Vcom.android.settings
p453
(dp454
g10
F0.90000000000000002
ssVcom.huawei.android.launcher
p455
(dp456
g10
F1.7
ssVcom.android.contacts
p457
(dp458
g10
F0.40000000000000002
sssg37
(dp459
Vcom.huawei.android.launcher
p460
(dp461
g10
F3.7000000000000002
ssVcom.android.contacts
p462
(dp463
g10
F0.90000000000000002
sssg39
(dp464
Vorg.hbrchina
p465
(dp466
g10
I1
ssVcom.aquila.bible
p467
(dp468
g10
F0.69999999999999996
ssVcom.huawei.hidisk
p469
(dp470
g10
F1.8999999999999999
ssVcom.tencent.mobileqq
p471
(dp472
g10
F4.7999999999999998
ssVcom.android.gallery3d
p473
(dp474
g10
F0.69999999999999996
ssg57
(dp475
g10
I1
ssg27
(dp476
g10
I4
ssg109
(dp477
g10
F8.1000000000000014
ssg99
(dp478
g10
F1.8
ssg394
(dp479
g10
F9.6999999999999993
ssVcom.huawei.health
p480
(dp481
g10
I1
ssVcom.eg.android.AlipayGphone
p482
(dp483
g10
F0.40000000000000002
sssg41
(dp484
g125
(dp485
g10
F0.90000000000000002
ssVcom.netease.cloudmusic
p486
(dp487
g10
F0.90000000000000002
ssVcom.tencent.mobileqq
p488
(dp489
g10
F1.3999999999999999
ssg187
(dp490
g10
I1
ssVcom.huawei.hidisk
p491
(dp492
g10
F6.4000000000000004
ssVcom.huawei.android.launcher
p493
(dp494
g10
F7.9000000000000004
ssVcom.android.systemui
p495
(dp496
g10
F0.69999999999999996
ssVcom.huawei.android.internal.app
p497
(dp498
g10
F1.3
ssVcom.tencent.mm
p499
(dp500
g10
F4.0999999999999996
sssg43
(dp501
g51
(dp502
g10
F0.40000000000000002
ssVcom.example.chinesechess.huawei
p503
(dp504
g10
F0.69999999999999996
ssVcom.UCMobile
p505
(dp506
g10
F2
ssVcom.baidu.input_huawei
p507
(dp508
g10
F0.69999999999999996
ssVcom.tencent.mobileqq
p509
(dp510
g10
F1.3999999999999999
ssVcom.huawei.appmarket
p511
(dp512
g10
F0.90000000000000002
ssVcom.android.gallery3d
p513
(dp514
g10
F2.2000000000000002
ssVcom.huawei.hwid
p515
(dp516
g10
F0.40000000000000002
ssVcom.netease.newsreader.activity
p517
(dp518
g10
F1.8
ssVcom.huawei.android.launcher
p519
(dp520
g10
F33.999999999999993
ssVcom.android.systemui
p521
(dp522
g10
I1
ssVcom.huawei.android.internal.app
p523
(dp524
g10
I1
ssVcom.baidu.tieba
p525
(dp526
g10
F2.7000000000000002
ssVcom.tencent.mm
p527
(dp528
g10
F10.900000000000002
ssVcom.android.contacts
p529
(dp530
g10
F0.40000000000000002
ssg143
(dp531
g10
F0.90000000000000002
sssg45
(dp532
g8
(dp533
g10
F2.3999999999999999
ssVcom.tencent.mm
p534
(dp535
g10
F57.99999999999995
ssVcom.dongqiudi.news
p536
(dp537
g10
F3.3999999999999999
ssVcom.rrh.jdb
p538
(dp539
g10
F1.3
ssVcom.UCMobile
p540
(dp541
g10
F8
ssVcom.snda.wifilocating
p542
(dp543
g10
F0.90000000000000002
ssVcom.huawei.android.internal.app
p544
(dp545
g10
F0.69999999999999996
ssVcom.android.mediacenter
p546
(dp547
g10
F0.69999999999999996
ssVcom.eg.android.AlipayGphone
p548
(dp549
g10
F3.3999999999999999
ssVcom.zhihu.android
p550
(dp551
g10
F0.69999999999999996
ssVcom.example.chinesechess.huawei
p552
(dp553
g10
F1.3
ssVcom.huawei.android.thememanager
p554
(dp555
g10
F2.7000000000000002
ssVcom.taobao.taobao
p556
(dp557
g10
F0.90000000000000002
ssVcom.huawei.hidisk
p558
(dp559
g10
F1.7
ssVcom.huawei.systemmanager
p560
(dp561
g10
F5.2000000000000002
ssVcom.android.phone
p562
(dp563
g10
F18.699999999999999
ssVcom.tencent.mobileqq
p564
(dp565
g10
F43.09999999999998
ssg387
(dp566
g10
F0.40000000000000002
ssVcom.android.systemui
p567
(dp568
g10
F12.200000000000001
ssVcom.netease.newsreader.activity
p569
(dp570
g10
F0.40000000000000002
ssVcom.huawei.android.launcher
p571
(dp572
g10
F341.29999999999927
ssVcom.huawei.health
p573
(dp574
g10
F3.8999999999999999
ssVcom.MobileTicket
p575
(dp576
g10
F0.90000000000000002
ssVcom.huawei.vassistant
p577
(dp578
g10
I1
ssVcom.qw.android
p579
(dp580
g10
F0.90000000000000002
ssVcom.baidu.input_huawei
p581
(dp582
g10
F0.69999999999999996
ssVcom.android.settings
p583
(dp584
g10
F2.1000000000000001
ssVcom.baidu.BaiduMap
p585
(dp586
g10
F0.40000000000000002
ssVcom.example.android.notepad
p587
(dp588
g10
F1.8
ssVcom.huawei.hwid
p589
(dp590
g10
F1.6000000000000001
ssVcom.baidu.tieba
p591
(dp592
g10
F0.40000000000000002
ssVcom.huawei.appmarket
p593
(dp594
g10
F0.90000000000000002
sssg47
(dp595
Vcom.android.browser
p596
(dp597
g10
F0.69999999999999996
ssVcom.mojang.minecraftpe
p598
(dp599
g10
F0.69999999999999996
ssVorg.wikipedia
p600
(dp601
g10
F0.90000000000000002
ssVcom.tencent.mobileqq
p602
(dp603
g10
F3.7000000000000002
ssVcom.huawei.android.launcher
p604
(dp605
g10
F13.799999999999999
ssVcom.android.systemui
p606
(dp607
g10
F3.7999999999999998
ssVcom.huawei.android.internal.app
p608
(dp609
g10
I1
ssVcom.tencent.mm
p610
(dp611
g10
F6.1000000000000005
ssVcom.android.contacts
p612
(dp613
g10
F2.7000000000000002
sssg49
(dp614
Vcom.android.settings
p615
(dp616
g10
F1.8
ssVcom.tencent.mm
p617
(dp618
g10
F2.2000000000000002
ssVcom.huawei.android.launcher
p619
(dp620
g10
F6.1000000000000005
sssg51
(dp621
Vcom.huawei.android.internal.app
p622
(dp623
g10
I1
ssVcom.huawei.android.launcher
p624
(dp625
g10
F4.4000000000000004
ssVcom.tencent.mm
p626
(dp627
g10
F2.7000000000000002
ssVcom.huawei.appmarket
p628
(dp629
g10
F1.3
sssg53
(dp630
g362
(dp631
g10
F0.40000000000000002
ssVcom.netease.cloudmusic
p632
(dp633
g10
F0.90000000000000002
ssVcom.tencent.mm
p634
(dp635
g10
F36.099999999999973
ssg270
(dp636
g10
F11.199999999999999
ssg19
(dp637
g10
I1
ssVcom.example.android.notepad
p638
(dp639
g10
F0.80000000000000004
ssVcom.huawei.health
p640
(dp641
g10
F0.90000000000000002
ssVcom.UCMobile
p642
(dp643
g10
F9.3000000000000025
ssVcom.netease.newsreader.activity
p644
(dp645
g10
F0.69999999999999996
ssg268
(dp646
g10
F128.2000000000001
ssVcom.dongqiudi.news
p647
(dp648
g10
F1.3
ssg151
(dp649
g10
F0.69999999999999996
ssVcom.huawei.android.internal.app
p650
(dp651
g10
F0.40000000000000002
ssVcom.tencent.mobileqq
p652
(dp653
g10
F26.099999999999991
ssVcom.android.phone
p654
(dp655
g10
I2
ssVcom.sirma.mobile.bible.android
p656
(dp657
g10
F2.6000000000000001
ssVcom.android.settings
p658
(dp659
g10
F0.40000000000000002
sssg55
(dp660
Vcom.huawei.hwid
p661
(dp662
g10
F0.69999999999999996
ssVcom.huawei.android.launcher
p663
(dp664
g10
I2
ssVcom.huawei.appmarket
p665
(dp666
g10
F1.3
sssg57
(dp667
sg59
(dp668
g123
(dp669
g10
F0.90000000000000002
ssVcom.example.chinesechess.huawei
p670
(dp671
g10
I4
ssg61
(dp672
g10
F0.80000000000000004
ssg105
(dp673
g10
F1.3999999999999999
ssVcom.android.systemui
p674
(dp675
g10
F2
ssVcom.huawei.hidisk
p676
(dp677
g10
I1
ssVcom.huawei.android.launcher
p678
(dp679
g10
F14.700000000000003
ssVcom.huawei.appmarket
p680
(dp681
g10
F12.100000000000001
ssVcom.tencent.mm
p682
(dp683
g10
F3.2000000000000002
ssVcom.huawei.health
p684
(dp685
g10
F0.69999999999999996
sssg61
(dp686
g93
(dp687
g10
F0.69999999999999996
ssVcom.android.settings
p688
(dp689
g10
F15.699999999999998
ssVcom.android.systemui
p690
(dp691
g10
F3.2999999999999998
ssg168
(dp692
g10
I3
ssg97
(dp693
g10
F0.90000000000000002
ssVcom.android.contacts
p694
(dp695
g10
F0.90000000000000002
ssVcom.huawei.android.launcher
p696
(dp697
g10
F8.5
ssVcom.huawei.appmarket
p698
(dp699
g10
F0.40000000000000002
ssVcom.huawei.health
p700
(dp701
g10
F0.40000000000000002
sssg63
(dp702
g358
(dp703
g10
F1.3
ssg170
(dp704
g10
F0.90000000000000002
ssVcom.huawei.android.launcher
p705
(dp706
g10
F1.7
ssg129
(dp707
g10
F1.3999999999999999
ssg89
(dp708
g10
F1.7
sssg65
(dp709
Vcom.zms.android
p710
(dp711
g10
F0.40000000000000002
ssVcom.huawei.lcagent
p712
(dp713
g10
F1.7
ssVcom.netease.cloudmusic
p714
(dp715
g10
F0.90000000000000002
ssVcom.huawei.android.thememanager
p716
(dp717
g10
F2.6999999999999997
ssVcom.android.settings
p718
(dp719
g10
F4.4000000000000004
ssVcom.sina.weibo
p720
(dp721
g10
F0.90000000000000002
ssVcom.android.phone
p722
(dp723
g10
F0.90000000000000002
ssVcom.android.documentsui
p724
(dp725
g10
F1.8
ssVcom.example.android.notepad
p726
(dp727
g10
I1
ssVcom.netease.newsreader.activity
p728
(dp729
g10
F0.40000000000000002
ssVcom.UCMobile
p730
(dp731
g10
F11.800000000000001
ssVcom.lofter.android
p732
(dp733
g10
F2.3999999999999999
ssVcom.baidu.tieba
p734
(dp735
g10
F1.7000000000000002
ssVcom.huawei.camera
p736
(dp737
g10
F13
ssVcom.android.systemui
p738
(dp739
g10
F5.9000000000000004
ssg523
(dp740
g10
F4.7000000000000002
ssVcom.huawei.android.launcher
p741
(dp742
g10
F84.400000000000063
ssVcom.tencent.mm
p743
(dp744
g10
F18.100000000000001
ssVcom.android.contacts
p745
(dp746
g10
F4.7999999999999998
ssVcom.tencent.mobileqq
p747
(dp748
g10
F9.5000000000000018
sssg67
(dp749
Vcom.tencent.mobileqq
p750
(dp751
g10
F0.69999999999999996
ssVcom.android.gallery3d
p752
(dp753
g10
F4.7999999999999998
ssg726
(dp754
g10
F0.90000000000000002
ssVcom.liulishuo.engzo
p755
(dp756
g10
F2.7000000000000002
ssg732
(dp757
g10
F1.8
ssVcom.huawei.android.launcher
p758
(dp759
g10
F2
ssVcom.taobao.taobao
p760
(dp761
g10
I1
ssg13
(dp762
g10
F0.90000000000000002
ssg743
(dp763
g10
F0.40000000000000002
sssg69
(dp764
Vcom.huawei.android.launcher
p765
(dp766
g10
I1
sssg71
(dp767
Vcom.tencent.mm
p768
(dp769
g10
F0.90000000000000002
ssVcom.aquila.bible
p770
(dp771
g10
F0.40000000000000002
ssVcom.huawei.android.launcher
p772
(dp773
g10
F1.7
sssg73
(dp774
g488
(dp775
g10
F2.2000000000000002
ssg589
(dp776
g10
I1
ssVcom.huawei.systemmanager
p777
(dp778
g10
F0.40000000000000002
ssVcom.huawei.android.launcher
p779
(dp780
g10
F13.200000000000001
ssg497
(dp781
g10
F2.7000000000000002
ssVcom.android.mediacenter
p782
(dp783
g10
F4.4000000000000004
ssVcom.tencent.mm
p784
(dp785
g10
F1.3
sssg75
(dp786
Vcom.qw.android
p787
(dp788
g10
F0.90000000000000002
ssVcom.UCMobile
p789
(dp790
g10
F0.40000000000000002
ssg583
(dp791
g10
F6.3000000000000007
ssVcom.snda.wifilocating
p792
(dp793
g10
F0.80000000000000004
ssVcom.baidu.BaiduMap
p794
(dp795
g10
F0.90000000000000002
ssVcom.dongqiudi.news
p796
(dp797
g10
F0.90000000000000002
ssVcom.huawei.health
p798
(dp799
g10
F1.7000000000000002
ssVcom.huawei.hidisk
p800
(dp801
g10
F0.90000000000000002
ssVcom.huawei.android.launcher
p802
(dp803
g10
F39.800000000000004
ssg35
(dp804
g10
F1.3
ssVcom.huawei.lcagent
p805
(dp806
g10
F0.69999999999999996
ssVcom.android.systemui
p807
(dp808
g10
F0.69999999999999996
ssVcom.huawei.android.internal.app
p809
(dp810
g10
F1.3999999999999999
ssVcom.baidu.tieba
p811
(dp812
g10
F0.69999999999999996
ssVcom.tencent.mm
p813
(dp814
g10
F11.100000000000003
ssVcom.android.contacts
p815
(dp816
g10
F4.0999999999999996
ssVcom.tencent.mobileqq
p817
(dp818
g10
F2
sssg77
(dp819
Vcom.huawei.android.launcher
p820
(dp821
g10
I1
sssg79
(dp822
Vcom.aquila.bible
p823
(dp824
g10
F0.40000000000000002
ssVcom.handsgo.jiakao.android
p825
(dp826
g10
F0.40000000000000002
ssVcom.tencent.mobileqq
p827
(dp828
g10
F2.7000000000000002
ssVcom.huawei.android.launcher
p829
(dp830
g10
F14.5
ssVcom.android.systemui
p831
(dp832
g10
F3.6000000000000001
ssVcom.tencent.mm
p833
(dp834
g10
F1.3
sssg81
(dp835
Vcom.huawei.camera
p836
(dp837
g10
I1
ssVcom.tencent.mm
p838
(dp839
g10
F3.5
ssVcom.android.gallery3d
p840
(dp841
g10
F0.90000000000000002
ssVcom.baidu.BaiduMap
p842
(dp843
g10
I1
ssVcom.dongqiudi.news
p844
(dp845
g10
I1
ssVcom.huawei.health
p846
(dp847
g10
F0.40000000000000002
ssVcom.UCMobile
p848
(dp849
g10
I1
ssVcom.huawei.systemmanager
p850
(dp851
g10
F0.69999999999999996
ssVcom.huawei.android.launcher
p852
(dp853
g10
F36.499999999999979
ssVcom.huawei.lcagent
p854
(dp855
g10
I1
ssVcom.huawei.appmarket
p856
(dp857
g10
F0.90000000000000002
ssVcom.tencent.mobileqq
p858
(dp859
g10
F2
ssVcom.android.contacts
p860
(dp861
g10
F37.599999999999994
ssVcom.eg.android.AlipayGphone
p862
(dp863
g10
F0.69999999999999996
sssg83
(dp864
Vcom.huawei.android.launcher
p865
(dp866
g10
I1
ssVcom.android.contacts
p867
(dp868
g10
F0.90000000000000002
sssg85
(dp869
Vcom.zms.android
p870
(dp871
g10
F2.6999999999999997
ssVcom.handsgo.jiakao.android
p872
(dp873
g10
F1.3
ssVcom.android.soundrecorder
p874
(dp875
g10
I2
ssVcom.dongqiudi.news
p876
(dp877
g10
F77.200000000000017
ssVcom.baidu.BaiduMap
p878
(dp879
g10
F1.8999999999999999
ssVcom.android.deskclock
p880
(dp881
g10
F4.1999999999999993
ssg27
(dp882
g10
F99.800000000000097
ssVcom.netease.mobimail
p883
(dp884
g10
F0.90000000000000002
ssg39
(dp885
g10
F5.9000000000000004
ssVcom.android.mediacenter
p886
(dp887
g10
F2.7000000000000002
ssVcom.sina.weibo
p888
(dp889
g10
F2.6000000000000001
ssVcom.android.contacts
p890
(dp891
g10
F46.699999999999996
ssVcom.eg.android.AlipayGphone
p892
(dp893
g10
F2.5
ssVcom.zhihu.android
p894
(dp895
g10
F1.3999999999999999
ssVcom.aquila.bible
p896
(dp897
g10
F31.299999999999979
ssVcom.mojang.minecraftpe
p898
(dp899
g10
F0.90000000000000002
ssVcom.huawei.android.thememanager
p900
(dp901
g10
F1.3999999999999999
ssVcom.huawei.android.airsharing
p902
(dp903
g10
F0.69999999999999996
ssVcom.android.gallery3d
p904
(dp905
g10
F8.4000000000000004
ssVcom.android.documentsui
p906
(dp907
g10
F0.69999999999999996
ssVcom.taobao.taobao
p908
(dp909
g10
F3.8999999999999999
ssg71
(dp910
g10
F0.90000000000000002
ssVcom.huawei.hidisk
p911
(dp912
g10
F5.2000000000000002
ssVcom.huawei.systemmanager
p913
(dp914
g10
F0.80000000000000004
ssVcom.sirma.mobile.bible.android
p915
(dp916
g10
F2.6000000000000001
ssVcom.android.phone
p917
(dp918
g10
F3.6000000000000001
ssg133
(dp919
g10
F397.39999999999822
ssVcom.android.settings
p920
(dp921
g10
F9.6000000000000014
ssVcom.netease.cloudmusic
p922
(dp923
g10
F3
ssVorg.hbrchina
p924
(dp925
g10
F0.90000000000000002
ssg99
(dp926
g10
F72.799999999999997
ssVcom.example.chinesechess.huawei
p927
(dp928
g10
F3.1999999999999997
ssVcom.netease.newsreader.activity
p929
(dp930
g10
F23.899999999999991
ssVcom.huawei.android.launcher
p931
(dp932
g10
F1012.2000000000022
ssg57
(dp933
g10
F0.90000000000000002
ssVcom.huawei.camera
p934
(dp935
g10
F1.8
ssVcom.huawei.health
p936
(dp937
g10
F4
ssVcom.huawei.hwvplayer
p938
(dp939
g10
F0.69999999999999996
ssVcom.android.calendar
p940
(dp941
g10
F7.4000000000000004
ssg23
(dp942
g10
F3.2999999999999998
ssVcom.baidu.input_huawei
p943
(dp944
g10
F3.6999999999999997
ssVcom.example.android.notepad
p945
(dp946
g10
I1
ssVcom.liulishuo.engzo
p947
(dp948
g10
F3.1000000000000001
ssVcom.huawei.hwid
p949
(dp950
g10
F1.3999999999999999
ssVcom.lofter.android
p951
(dp952
g10
F1.8
ssg591
(dp953
g10
F0.90000000000000002
ssVcom.huawei.appmarket
p954
(dp955
g10
F6
ssVcom.android.packageinstaller
p956
(dp957
g10
F1.7
sssg87
(dp958
Vcom.huawei.vassistant
p959
(dp960
g10
F0.90000000000000002
ssVcom.tencent.mobileqq
p961
(dp962
g10
I2
ssg540
(dp963
g10
F0.69999999999999996
ssVcom.huawei.android.launcher
p964
(dp965
g10
F7.1000000000000005
ssVcom.tencent.mm
p966
(dp967
g10
F1.7
ssVcom.android.contacts
p968
(dp969
g10
I1
sssg89
(dp970
g358
(dp971
g10
F2.7000000000000002
ssVcom.android.settings
p972
(dp973
g10
F0.69999999999999996
ssVcom.huawei.appmarket
p974
(dp975
g10
F1.3
ssVcom.huawei.hwid
p976
(dp977
g10
F0.69999999999999996
ssVcom.huawei.systemmanager
p978
(dp979
g10
I1
ssVcom.huawei.android.launcher
p980
(dp981
g10
F14.299999999999997
ssVcom.android.systemui
p982
(dp983
g10
F0.69999999999999996
ssVcom.android.mediacenter
p984
(dp985
g10
F0.90000000000000002
ssg180
(dp986
g10
F5.2000000000000011
ssVcom.tencent.mobileqq
p987
(dp988
g10
F3
sssg91
(dp989
g53
(dp990
g10
F1.6000000000000001
ssVcom.huawei.android.FMRadio
p991
(dp992
g10
F0.69999999999999996
ssg870
(dp993
g10
F2.2000000000000002
ssVcom.tencent.mobileqq
p994
(dp995
g10
F6.6000000000000014
ssVcom.huawei.appmarket
p996
(dp997
g10
F0.80000000000000004
ssg19
(dp998
g10
F0.69999999999999996
ssVcom.netease.newsreader.activity
p999
(dp1000
g10
F0.90000000000000002
ssVcom.dongqiudi.news
p1001
(dp1002
g10
F0.40000000000000002
ssVcom.UCMobile
p1003
(dp1004
g10
F2.2000000000000002
ssVcom.huawei.systemmanager
p1005
(dp1006
g10
F0.90000000000000002
ssVcom.huawei.android.launcher
p1007
(dp1008
g10
F37.999999999999993
ssVcom.huawei.camera
p1009
(dp1010
g10
I1
ssVcom.android.systemui
p1011
(dp1012
g10
F1.7000000000000002
ssVcom.android.mediacenter
p1013
(dp1014
g10
F0.69999999999999996
ssVcom.tencent.mm
p1015
(dp1016
g10
F7.2000000000000011
ssVcom.eg.android.AlipayGphone
p1017
(dp1018
g10
F0.40000000000000002
ssVcom.android.settings
p1019
(dp1020
g10
I1
sssg93
(dp1021
Vcom.android.settings
p1022
(dp1023
g10
I1
ssVcom.android.gallery3d
p1024
(dp1025
g10
F0.69999999999999996
ssVcom.huawei.android.launcher
p1026
(dp1027
g10
F1.3
sssg95
(dp1028
g817
(dp1029
g10
F0.40000000000000002
ssVcom.huawei.systemmanager
p1030
(dp1031
g10
F0.90000000000000002
ssVcom.huawei.android.launcher
p1032
(dp1033
g10
F3.7000000000000002
sssg97
(dp1034
Vcom.android.settings
p1035
(dp1036
g10
F1.7
ssVcom.huawei.systemmanager
p1037
(dp1038
g10
F0.40000000000000002
ssg700
(dp1039
g10
F0.90000000000000002
sssg99
(dp1040
Vcom.android.browser
p1041
(dp1042
g10
F2.5
ssVcom.huawei.android.FMRadio
p1043
(dp1044
g10
F0.90000000000000002
ssg825
(dp1045
g10
F2.8999999999999999
ssg187
(dp1046
g10
F0.69999999999999996
ssVcom.dongqiudi.news
p1047
(dp1048
g10
F21.300000000000001
ssVcom.huawei.android.totemweather
p1049
(dp1050
g10
F2.3999999999999999
ssVcom.UCMobile
p1051
(dp1052
g10
F42.399999999999991
ssVcom.snda.wifilocating
p1053
(dp1054
g10
F1.3999999999999999
ssVcom.huawei.android.internal.app
p1055
(dp1056
g10
F0.69999999999999996
ssg41
(dp1057
g10
F1.8
ssVcom.sina.weibo
p1058
(dp1059
g10
F3.7000000000000002
ssVcom.android.contacts
p1060
(dp1061
g10
F2.7999999999999998
ssVcom.eg.android.AlipayGphone
p1062
(dp1063
g10
I1
ssg550
(dp1064
g10
F0.90000000000000002
ssg265
(dp1065
g10
F8.5
ssg598
(dp1066
g10
F0.90000000000000002
ssg381
(dp1067
g10
F6.3000000000000007
ssg67
(dp1068
g10
F1.3
ssg913
(dp1069
g10
F4
ssVcom.sirma.mobile.bible.android
p1070
(dp1071
g10
I1
ssg317
(dp1072
g10
F35.999999999999979
ssVcom.android.settings
p1073
(dp1074
g10
F3.6000000000000001
ssg103
(dp1075
g10
F6.7000000000000002
ssVcom.netease.newsreader.activity
p1076
(dp1077
g10
F6.1000000000000005
ssg109
(dp1078
g10
F171.09999999999999
ssg313
(dp1079
g10
F7.5000000000000018
ssg125
(dp1080
g10
F0.40000000000000002
ssVcom.huawei.vassistant
p1081
(dp1082
g10
F0.90000000000000002
ssVcom.qw.android
p1083
(dp1084
g10
F1.6000000000000001
ssg137
(dp1085
g10
F0.69999999999999996
ssg394
(dp1086
g10
F56.499999999999964
ssg411
(dp1087
g10
F0.80000000000000004
ssg638
(dp1088
g10
F4.7999999999999998
ssVcom.huawei.hwid
p1089
(dp1090
g10
F2
ssg419
(dp1091
g10
F21.699999999999996
ssg151
(dp1092
g10
F4.1000000000000005
sssg101
(dp1093
sg103
(dp1094
Vcom.huawei.android.FMRadio
p1095
(dp1096
g10
F0.90000000000000002
ssVcom.UCMobile
p1097
(dp1098
g10
F0.90000000000000002
ssVcom.tencent.mobileqq
p1099
(dp1100
g10
F3.2999999999999998
ssVcom.android.contacts
p1101
(dp1102
g10
F2.2000000000000002
ssVcom.android.deskclock
p1103
(dp1104
g10
F2.8999999999999999
ssg415
(dp1105
g10
I5
ssg1076
(dp1106
g10
F0.69999999999999996
ssVcom.huawei.android.launcher
p1107
(dp1108
g10
F47.800000000000004
ssVcom.huawei.lcagent
p1109
(dp1110
g10
F0.90000000000000002
ssg674
(dp1111
g10
F16.100000000000001
ssVcom.tencent.mm
p1112
(dp1113
g10
F5.7000000000000011
ssVcom.huawei.health
p1114
(dp1115
g10
F0.40000000000000002
ssVcom.eg.android.AlipayGphone
p1116
(dp1117
g10
F0.40000000000000002
sssg105
(dp1118
Vcom.android.browser
p1119
(dp1120
g10
I2
ssVcom.youdao.dict
p1121
(dp1122
g10
F0.90000000000000002
ssVcom.dongqiudi.news
p1123
(dp1124
g10
F1.8
ssVcom.UCMobile
p1125
(dp1126
g10
F0.80000000000000004
ssg29
(dp1127
g10
F0.69999999999999996
ssVcom.snda.wifilocating
p1128
(dp1129
g10
F5.4000000000000004
ssg35
(dp1130
g10
F1.7
ssg815
(dp1131
g10
F4.4000000000000004
ssVcom.aquila.bible
p1132
(dp1133
g10
F2.6000000000000001
ssg61
(dp1134
g10
F22.199999999999989
ssg166
(dp1135
g10
F0.90000000000000002
ssg1024
(dp1136
g10
F4.2999999999999998
ssg1037
(dp1137
g10
F6.1000000000000014
ssg690
(dp1138
g10
F10.600000000000001
ssVcom.tencent.mm
p1139
(dp1140
g10
F19.599999999999994
ssVcom.netease.cloudmusic
p1141
(dp1142
g10
F1.8
ssg93
(dp1143
g10
F1.3
ssVorg.wikipedia
p1144
(dp1145
g10
F1.3
ssg97
(dp1146
g10
F1.7
ssVcom.android.phone
p1147
(dp1148
g10
F0.90000000000000002
ssg696
(dp1149
g10
F113.8000000000001
ssVcom.huawei.lcagent
p1150
(dp1151
g10
F2.3999999999999999
ssg700
(dp1152
g10
F1.7
ssg129
(dp1153
g10
F0.69999999999999996
ssg137
(dp1154
g10
F1.3999999999999999
ssVcom.tencent.mobileqq
p1155
(dp1156
g10
F7.4000000000000004
ssg794
(dp1157
g10
F1.3999999999999999
ssVcom.baidu.tieba
p1158
(dp1159
g10
F0.90000000000000002
ssVcom.huawei.appmarket
p1160
(dp1161
g10
F0.90000000000000002
sssg107
(dp1162
Vcom.zhihu.android
p1163
(dp1164
g10
F0.90000000000000002
ssVcom.aquila.bible
p1165
(dp1166
g10
F1.7000000000000002
ssg127
(dp1167
g10
I1
ssVcom.netease.cloudmusic
p1168
(dp1169
g10
F0.90000000000000002
ssVcom.UCMobile
p1170
(dp1171
g10
F3.3999999999999999
ssVcom.tencent.mobileqq
p1172
(dp1173
g10
F38.099999999999987
ssVcom.sina.weibo
p1174
(dp1175
g10
F0.69999999999999996
ssVcom.android.systemui
p1176
(dp1177
g10
F5.9000000000000012
ssVcom.android.gallery3d
p1178
(dp1179
g10
F0.90000000000000002
ssVcom.baidu.BaiduMap
p1180
(dp1181
g10
F0.69999999999999996
ssVcom.dongqiudi.news
p1182
(dp1183
g10
F6.9000000000000012
ssg59
(dp1184
g10
F2.7999999999999998
ssVcom.android.phone
p1185
(dp1186
g10
I1
ssVcom.huawei.android.launcher
p1187
(dp1188
g10
F133.30000000000015
ssVcom.huawei.appmarket
p1189
(dp1190
g10
F6.4000000000000012
ssg650
(dp1191
g10
F1.7
ssg1053
(dp1192
g10
F0.69999999999999996
ssVcom.tencent.mm
p1193
(dp1194
g10
F30.599999999999991
ssVcom.android.contacts
p1195
(dp1196
g10
F5.2000000000000002
ssVcom.android.settings
p1197
(dp1198
g10
F2.4000000000000004
sssg109
(dp1199
g8
(dp1200
g10
F6.1000000000000005
ssg11
(dp1201
g10
F7.9000000000000004
ssg805
(dp1202
g10
F5.5999999999999996
ssg17
(dp1203
g10
F9.2000000000000011
ssg19
(dp1204
g10
F3.2000000000000002
ssg21
(dp1205
g10
F152.60000000000005
ssg23
(dp1206
g10
F4.7000000000000002
ssg25
(dp1207
g10
F15.9
ssg540
(dp1208
g10
F336.599999999999
ssg29
(dp1209
g10
F0.90000000000000002
ssg31
(dp1210
g10
F10.9
ssg33
(dp1211
g10
F13.699999999999999
ssg908
(dp1212
g10
F13.199999999999999
ssg883
(dp1213
g10
I1
ssg523
(dp1214
g10
F15.100000000000003
ssg41
(dp1215
g10
F11.700000000000003
ssg43
(dp1216
g10
F26.199999999999996
ssg45
(dp1217
g10
F235.89999999999978
ssg47
(dp1218
g10
F14.099999999999998
ssg362
(dp1219
g10
F2.7000000000000002
ssg51
(dp1220
g10
F4.0999999999999996
ssg53
(dp1221
g10
F111.70000000000009
ssg55
(dp1222
g10
F4.7999999999999998
ssg911
(dp1223
g10
F10.5
ssg61
(dp1224
g10
F18.299999999999997
ssg153
(dp1225
g10
F2.2000000000000002
ssg65
(dp1226
g10
F49.299999999999997
ssg906
(dp1227
g10
F3
ssg69
(dp1228
g10
I1
ssg71
(dp1229
g10
F1.7
ssg135
(dp1230
g10
F5.4000000000000004
ssg75
(dp1231
g10
F32.199999999999989
ssg79
(dp1232
g10
F14.899999999999997
ssVcom.android.systemui
p1233
(dp1234
g10
F202.60000000000011
ssg317
(dp1235
g10
F595.49999999999784
ssg562
(dp1236
g10
F9.4000000000000004
ssg387
(dp1237
g10
F1.7
ssg89
(dp1238
g10
F10.199999999999999
ssVcom.netease.cloudmusic
p1239
(dp1240
g10
F26.399999999999995
ssg93
(dp1241
g10
I1
ssg95
(dp1242
g10
F3.7000000000000002
ssg97
(dp1243
g10
F0.40000000000000002
ssg105
(dp1244
g10
F88.200000000000031
ssg103
(dp1245
g10
F31.999999999999993
ssVcom.netease.newsreader.activity
p1246
(dp1247
g10
F75.500000000000057
ssg111
(dp1248
g10
F5.4000000000000004
ssg934
(dp1249
g10
F51
ssg115
(dp1250
g10
F13.199999999999999
ssg119
(dp1251
g10
F45.800000000000004
ssg538
(dp1252
g10
F2.7000000000000002
ssVcom.baidu.input_huawei
p1253
(dp1254
g10
F7
ssg123
(dp1255
g10
F3.1000000000000001
ssg125
(dp1256
g10
F1.6000000000000001
ssg959
(dp1257
g10
I4
ssg787
(dp1258
g10
F5.0999999999999996
ssg131
(dp1259
g10
F11.6
ssVcom.tencent.mm
p1260
(dp1261
g10
F1122.0000000000059
ssg137
(dp1262
g10
F0.90000000000000002
ssg139
(dp1263
g10
F9.5
ssg947
(dp1264
g10
F10.199999999999999
ssg143
(dp1265
g10
F3.3999999999999999
ssg59
(dp1266
g10
F24.499999999999986
ssg147
(dp1267
g10
I2
ssVcom.baidu.tieba
p1268
(dp1269
g10
F51.800000000000026
ssg151
(dp1270
g10
F66.900000000000034
ssg423
(dp1271
g10
F2.8999999999999999
sssg111
(dp1272
Vcom.android.browser
p1273
(dp1274
g10
I1
ssVcom.aquila.bible
p1275
(dp1276
g10
F1.8
ssVcom.tencent.mobileqq
p1277
(dp1278
g10
F3.8999999999999999
ssVcom.android.gallery3d
p1279
(dp1280
g10
F2.7000000000000002
ssVcom.android.documentsui
p1281
(dp1282
g10
F3.7999999999999998
ssVcom.dongqiudi.news
p1283
(dp1284
g10
F0.40000000000000002
ssVcom.UCMobile
p1285
(dp1286
g10
I1
ssVcom.huawei.android.launcher
p1287
(dp1288
g10
F11.899999999999999
ssVcom.android.systemui
p1289
(dp1290
g10
F1.3999999999999999
ssVcom.tencent.mm
p1291
(dp1292
g10
F1.3999999999999999
sssg113
(dp1293
Vcom.tencent.mobileqq
p1294
(dp1295
g10
F1.7
ssg840
(dp1296
g10
F1.7
ssVcom.taobao.taobao
p1297
(dp1298
g10
I1
ssVcom.UCMobile
p1299
(dp1300
g10
F2.3999999999999999
ssVcom.huawei.android.launcher
p1301
(dp1302
g10
F9.1000000000000014
ssg722
(dp1303
g10
I1
ssVcom.tencent.mm
p1304
(dp1305
g10
F5.8000000000000007
ssVcom.android.settings
p1306
(dp1307
g10
I2
sssg115
(dp1308
Vcom.aquila.bible
p1309
(dp1310
g10
F0.40000000000000002
ssVcom.tencent.mm
p1311
(dp1312
g10
F8.4000000000000021
ssVcom.android.systemui
p1313
(dp1314
g10
F5.1000000000000005
ssVcom.dongqiudi.news
p1315
(dp1316
g10
F0.90000000000000002
ssVcom.UCMobile
p1317
(dp1318
g10
F1.3
ssVcom.huawei.systemmanager
p1319
(dp1320
g10
F0.69999999999999996
ssVcom.huawei.android.launcher
p1321
(dp1322
g10
F45.300000000000011
ssVcom.android.phone
p1323
(dp1324
g10
I1
ssVcom.tencent.mobileqq
p1325
(dp1326
g10
F4.5
ssVcom.android.contacts
p1327
(dp1328
g10
F0.90000000000000002
ssVcom.android.settings
p1329
(dp1330
g10
F1.8999999999999999
sssg117
(dp1331
Vcom.huawei.hwid
p1332
(dp1333
g10
F0.69999999999999996
ssVcom.huawei.android.launcher
p1334
(dp1335
g10
F2.7000000000000002
ssVcom.android.contacts
p1336
(dp1337
g10
F0.90000000000000002
ssVcom.huawei.appmarket
p1338
(dp1339
g10
F1.3
sssg119
(dp1340
Vcom.android.browser
p1341
(dp1342
g10
F1.7
ssVcom.huawei.camera
p1343
(dp1344
g10
F2.2000000000000002
ssVcom.dongqiudi.news
p1345
(dp1346
g10
F0.40000000000000002
ssVcom.UCMobile
p1347
(dp1348
g10
F5.2000000000000002
ssg809
(dp1349
g10
I1
ssVcom.android.contacts
p1350
(dp1351
g10
F5.9000000000000004
ssVcom.aquila.bible
p1352
(dp1353
g10
F2
ssg55
(dp1354
g10
F0.40000000000000002
ssg956
(dp1355
g10
F0.69999999999999996
ssVcom.android.gallery3d
p1356
(dp1357
g10
F0.69999999999999996
ssg908
(dp1358
g10
F0.90000000000000002
ssg1037
(dp1359
g10
F1.3
ssVcom.android.phone
p1360
(dp1361
g10
F0.69999999999999996
ssVcom.tencent.mobileqq
p1362
(dp1363
g10
F8.2000000000000011
ssVcom.android.settings
p1364
(dp1365
g10
F3.1999999999999997
ssVcom.android.systemui
p1366
(dp1367
g10
F4.2000000000000002
ssVcom.huawei.android.launcher
p1368
(dp1369
g10
F71.40000000000002
ssVcom.huawei.lcagent
p1370
(dp1371
g10
F0.69999999999999996
ssg131
(dp1372
g10
F0.90000000000000002
ssVcom.tencent.mm
p1373
(dp1374
g10
F14.900000000000002
ssVcom.example.android.notepad
p1375
(dp1376
g10
F0.90000000000000002
ssg954
(dp1377
g10
F2.2000000000000002
sssg121
(dp1378
Vcom.huawei.android.launcher
p1379
(dp1380
g10
I2
ssVcom.android.contacts
p1381
(dp1382
g10
F0.90000000000000002
ssVcom.android.phone
p1383
(dp1384
g10
F1.7
sssg123
(dp1385
Vcom.baidu.input_huawei
p1386
(dp1387
g10
F0.90000000000000002
ssVcom.huawei.android.launcher
p1388
(dp1389
g10
F2.7000000000000002
ssVcom.tencent.mm
p1390
(dp1391
g10
I2
ssVcom.android.contacts
p1392
(dp1393
g10
F0.90000000000000002
ssVcom.eg.android.AlipayGphone
p1394
(dp1395
g10
F1.3999999999999999
sssg125
(dp1396
g272
(dp1397
g10
F0.69999999999999996
ssg493
(dp1398
g10
F1.3
ssg495
(dp1399
g10
I1
sssg127
(dp1400
Vcom.aquila.bible
p1401
(dp1402
g10
F1.7
ssVcom.tencent.mobileqq
p1403
(dp1404
g10
I1
ssVcom.dongqiudi.news
p1405
(dp1406
g10
F2.8999999999999999
ssVcom.netease.newsreader.activity
p1407
(dp1408
g10
I1
ssVcom.huawei.android.launcher
p1409
(dp1410
g10
F4.1000000000000005
ssVcom.tencent.mm
p1411
(dp1412
g10
I1
ssVcom.android.contacts
p1413
(dp1414
g10
I1
sssg129
(dp1415
Vcom.android.browser
p1416
(dp1417
g10
F0.90000000000000002
ssg170
(dp1418
g10
I1
ssVcom.huawei.android.launcher
p1419
(dp1420
g10
F4.2000000000000002
ssVcom.android.contacts
p1421
(dp1422
g10
F0.90000000000000002
ssg807
(dp1423
g10
F2.7999999999999998
sssg131
(dp1424
g17
(dp1425
g10
F0.40000000000000002
ssVcom.tencent.mobileqq
p1426
(dp1427
g10
F10.4
ssVcom.dongqiudi.news
p1428
(dp1429
g10
F1.3
ssVcom.UCMobile
p1430
(dp1431
g10
F0.40000000000000002
ssVcom.huawei.android.launcher
p1432
(dp1433
g10
F30.499999999999993
ssVcom.android.settings
p1434
(dp1435
g10
F0.90000000000000002
ssVcom.tencent.mm
p1436
(dp1437
g10
F4.9000000000000004
ssVcom.android.contacts
p1438
(dp1439
g10
F3.1999999999999997
sssg133
(dp1440
g8
(dp1441
g10
F3.1999999999999997
ssg11
(dp1442
g10
F3.3999999999999999
ssVcom.android.calendar
p1443
(dp1444
g10
F4.4000000000000004
ssg934
(dp1445
g10
F19.100000000000001
ssg17
(dp1446
g10
F4.9000000000000004
ssVcom.dongqiudi.news
p1447
(dp1448
g10
F63.699999999999974
ssg23
(dp1449
g10
F2
ssVcom.android.deskclock
p1450
(dp1451
g10
F3.6999999999999997
ssg27
(dp1452
g10
F163.20000000000047
ssg33
(dp1453
g10
F2.8999999999999999
ssg39
(dp1454
g10
F11.300000000000001
ssg41
(dp1455
g10
F8.8000000000000007
ssg43
(dp1456
g10
F9.0000000000000018
ssg45
(dp1457
g10
F73.5
ssVcom.eg.android.AlipayGphone
p1458
(dp1459
g10
F6.9000000000000012
ssg362
(dp1460
g10
F0.69999999999999996
ssVorg.hbrchina
p1461
(dp1462
g10
F2.7000000000000002
ssVcom.aquila.bible
p1463
(dp1464
g10
F39.699999999999967
ssg800
(dp1465
g10
F1.3
ssVcom.huawei.android.thememanager
p1466
(dp1467
g10
F1.7999999999999998
ssg902
(dp1468
g10
I1
ssg65
(dp1469
g10
F9.7000000000000011
ssVcom.lofter.android
p1470
(dp1471
g10
F0.90000000000000002
ssVcom.taobao.taobao
p1472
(dp1473
g10
F1.7
ssg135
(dp1474
g10
F0.40000000000000002
ssVcom.huawei.systemmanager
p1475
(dp1476
g10
F9.2000000000000011
ssVcom.sirma.mobile.bible.android
p1477
(dp1478
g10
F3.1000000000000001
ssg99
(dp1479
g10
F91.600000000000122
ssVcom.tencent.mobileqq
p1480
(dp1481
g10
F422.49999999999801
ssVcom.android.calculator2
p1482
(dp1483
g10
I1
ssg89
(dp1484
g10
F2.6999999999999997
ssg392
(dp1485
g10
F9.5000000000000036
ssVcom.zhihu.android
p1486
(dp1487
g10
F3.5999999999999996
ssg95
(dp1488
g10
F3.1000000000000001
ssg917
(dp1489
g10
F8.5999999999999996
ssg503
(dp1490
g10
F9.6000000000000014
ssg1246
(dp1491
g10
F27.099999999999987
ssg109
(dp1492
g10
F1724.7000000000228
ssg113
(dp1493
g10
F4.4000000000000004
ssVcom.iflytek.cmcc
p1494
(dp1495
g10
F1.8999999999999999
ssVcom.huawei.health
p1496
(dp1497
g10
F13.400000000000002
ssg405
(dp1498
g10
F0.90000000000000002
ssg938
(dp1499
g10
F1.3999999999999999
ssVcom.huawei.vassistant
p1500
(dp1501
g10
I3
ssg129
(dp1502
g10
F0.40000000000000002
ssg145
(dp1503
g10
F17.399999999999999
ssVcom.android.settings
p1504
(dp1505
g10
F18.799999999999997
ssg115
(dp1506
g10
F6.5000000000000009
ssg139
(dp1507
g10
F4
ssg947
(dp1508
g10
F0.40000000000000002
ssVcom.huawei.hwid
p1509
(dp1510
g10
F4.9000000000000004
ssg147
(dp1511
g10
F1.8999999999999999
ssVcom.baidu.tieba
p1512
(dp1513
g10
F33.899999999999984
ssVcom.huawei.appmarket
p1514
(dp1515
g10
F18.299999999999997
ssg423
(dp1516
g10
F3.0999999999999996
sssg135
(dp1517
Vcom.tencent.mobileqq
p1518
(dp1519
g10
F0.90000000000000002
ssVcom.huawei.android.launcher
p1520
(dp1521
g10
F3.8999999999999999
ssVcom.android.systemui
p1522
(dp1523
g10
I1
sssg137
(dp1524
Vcom.huawei.android.thememanager
p1525
(dp1526
g10
F1.3
ssVcom.android.settings
p1527
(dp1528
g10
F1.7
sssg139
(dp1529
g1041
(dp1530
g10
F0.90000000000000002
ssVcom.aquila.bible
p1531
(dp1532
g10
F0.40000000000000002
ssVcom.tencent.mobileqq
p1533
(dp1534
g10
I1
ssg752
(dp1535
g10
F1.3
ssg67
(dp1536
g10
F1.7
ssVcom.huawei.android.launcher
p1537
(dp1538
g10
F11.899999999999999
ssVcom.huawei.camera
p1539
(dp1540
g10
I1
ssVcom.android.systemui
p1541
(dp1542
g10
F3.1000000000000001
ssg1373
(dp1543
g10
F4.5
ssg1496
(dp1544
g10
F0.90000000000000002
sssg141
(dp1545
g898
(dp1546
g10
F0.40000000000000002
ssVcom.tencent.mobileqq
p1547
(dp1548
g10
F2.6999999999999997
ssg906
(dp1549
g10
F4.4000000000000004
ssVcom.taobao.taobao
p1550
(dp1551
g10
F1.7000000000000002
ssVcom.huawei.android.launcher
p1552
(dp1553
g10
F13.199999999999998
ssg13
(dp1554
g10
F1.7
ssVcom.tencent.mm
p1555
(dp1556
g10
F2.6000000000000001
sssg143
(dp1557
sg145
(dp1558
Vcom.tencent.mobileqq
p1559
(dp1560
g10
F4.6000000000000005
ssVcom.UCMobile
p1561
(dp1562
g10
F2.6999999999999997
ssVcom.huawei.android.launcher
p1563
(dp1564
g10
F6.2000000000000011
ssVcom.android.systemui
p1565
(dp1566
g10
F0.40000000000000002
ssVcom.tencent.mm
p1567
(dp1568
g10
F10.799999999999999
ssVcom.android.contacts
p1569
(dp1570
g10
I1
sssg147
(dp1571
Vcom.UCMobile
p1572
(dp1573
g10
F0.90000000000000002
ssVcom.huawei.android.launcher
p1574
(dp1575
g10
I3
ssVcom.android.systemui
p1576
(dp1577
g10
F0.69999999999999996
sssg149
(dp1578
Vcom.android.settings
p1579
(dp1580
g10
F1.6000000000000001
ssVcom.sina.weibo
p1581
(dp1582
g10
F2.7000000000000002
ssg143
(dp1583
g10
F0.40000000000000002
ssg381
(dp1584
g10
F2.2000000000000002
ssVcom.netease.newsreader.activity
p1585
(dp1586
g10
F0.40000000000000002
ssVcom.UCMobile
p1587
(dp1588
g10
F12.400000000000004
ssg75
(dp1589
g10
F1.8999999999999999
ssVcom.huawei.android.launcher
p1590
(dp1591
g10
F58.200000000000024
ssg1233
(dp1592
g10
F24.199999999999992
ssVcom.tencent.mm
p1593
(dp1594
g10
F35.699999999999982
sssg151
(dp1595
Vcom.handsgo.jiakao.android
p1596
(dp1597
g10
I1
ssg876
(dp1598
g10
F0.40000000000000002
ssVcom.android.deskclock
p1599
(dp1600
g10
I1
ssVcom.UCMobile
p1601
(dp1602
g10
F0.40000000000000002
ssg29
(dp1603
g10
I1
ssVcom.android.contacts
p1604
(dp1605
g10
F0.40000000000000002
ssg79
(dp1606
g10
I1
ssg51
(dp1607
g10
F1.3
ssg55
(dp1608
g10
F0.90000000000000002
ssg61
(dp1609
g10
F2.0999999999999996
ssVcom.android.gallery3d
p1610
(dp1611
g10
F0.90000000000000002
ssVcom.tencent.mm
p1612
(dp1613
g10
F15.000000000000004
ssg101
(dp1614
g10
I1
ssg1246
(dp1615
g10
F0.69999999999999996
ssVcom.huawei.android.launcher
p1616
(dp1617
g10
F51.599999999999994
ssg684
(dp1618
g10
F2.2000000000000002
ssg1547
(dp1619
g10
F4.2000000000000002
ssg123
(dp1620
g10
F1.7
ssg105
(dp1621
g10
F6.4000000000000004
ssg141
(dp1622
g10
F1.8999999999999999
ssg59
(dp1623
g10
I19
ssg111
(dp1624
g10
F0.90000000000000002
sssg153
(dp1625
Vcom.huawei.android.internal.app
p1626
(dp1627
g10
F0.90000000000000002
ssVcom.UCMobile
p1628
(dp1629
g10
I1
ssVcom.huawei.android.launcher
p1630
(dp1631
g10
F0.40000000000000002
ssVcom.tencent.mm
p1632
(dp1633
g10
F1.7
ssssS'edge'
p1634
g158
sS'pred'
p1635
(dp1636
g8
(dp1637
g1083
g1417
sVcom.android.settings
p1638
g1120
sg423
g703
sg89
g971
sg587
g1530
sg45
g533
sVcom.UCMobile
p1639
g359
sVcom.lofter.android
p1640
g1274
sVcom.huawei.android.launcher
p1641
g1200
sg567
g1042
sVcom.tencent.mm
p1642
g1441
sVcom.huawei.health
p1643
g1342
sg1062
g597
ssg11
(dp1644
Vcom.example.chinesechess.huawei
p1645
g1096
sVcom.netease.cloudmusic
p1646
g992
sVcom.huawei.android.launcher
p1647
g1201
sVcom.huawei.camera
p1648
g204
sVcom.android.systemui
p1649
g1044
sg33
g441
sVcom.tencent.mm
p1650
g1442
ssg13
(dp1651
Vcom.huawei.android.FMRadio
p1652
g196
sVcom.netease.cloudmusic
p1653
g1010
sVcom.taobao.taobao
p1654
g233
sVcom.tencent.mm
p1655
g1445
sVcom.android.gallery3d
p1656
g737
sVcom.android.documentsui
p1657
g762
sVcom.dongqiudi.news
p1658
g278
sVcom.liulishuo.engzo
p1659
g1554
sVcom.UCMobile
p1660
g403
sVcom.huawei.android.launcher
p1661
g1249
sVcom.example.android.notepad
p1662
g1540
sVcom.android.phone
p1663
g837
sVcom.tencent.mobileqq
p1664
g935
sVcom.huawei.health
p1665
g1344
ssg15
(dp1666
Vcom.huawei.camera
p1667
g220
sVcom.tencent.mobileqq
p1668
g909
sg236
g761
sVcom.dongqiudi.news
p1669
g296
sVcom.android.contacts
p1670
g557
sVcom.huawei.android.launcher
p1671
g1212
sg245
g1298
sg238
g1551
sVcom.tencent.mm
p1672
g1473
sVcom.huawei.health
p1673
g1358
ssg17
(dp1674
Vcom.android.calendar
p1675
g1425
sVcom.tencent.mobileqq
p1676
g873
sVcom.huawei.appmarket
p1677
g1597
sg1432
g1203
sVcom.android.systemui
p1678
g1045
sg1436
g1446
sVcom.sirma.mobile.bible.android
p1679
g826
ssg19
(dp1680
g53
g637
sg991
g188
sg1239
g998
sVcom.huawei.android.launcher
p1681
g1204
sg1011
g1046
sg41
g490
sg274
g875
ssg21
(dp1682
Vcom.baidu.BaiduMap
p1683
g1316
sVcom.aquila.bible
p1684
g648
sg315
g1406
sVcom.netease.cloudmusic
p1685
g1002
sVcom.android.calendar
p1686
g1429
sVcom.tencent.mm
p1687
g1448
sg305
g1048
sVcom.lofter.android
p1688
g1284
sVcom.android.contacts
p1689
g537
sg281
g365
sg1246
g1183
sVcom.android.phone
p1690
g845
sVcom.huawei.android.launcher
p1691
g1205
sVcom.huawei.appmarket
p1692
g1598
sg297
g797
sVcom.tencent.mobileqq
p1693
g877
sVcom.huawei.health
p1694
g1346
sVcom.android.settings
p1695
g1124
ssg23
(dp1696
Vcom.huawei.android.launcher
p1697
g1206
sVcom.tencent.mobileqq
p1698
g942
sVcom.tencent.mm
p1699
g1449
sVcom.android.deskclock
p1700
g346
sVcom.android.systemui
p1701
g1050
ssg25
(dp1702
Vcom.example.chinesechess.huawei
p1703
g1104
sVcom.tencent.mobileqq
p1704
g881
sVcom.dongqiudi.news
p1705
g280
sVcom.UCMobile
p1706
g367
sVcom.huawei.android.launcher
p1707
g1207
sg219
g240
sg1667
g224
sVcom.huawei.appmarket
p1708
g1600
sVcom.snda.wifilocating
p1709
g443
sg353
g1451
ssg27
(dp1710
Vcom.android.browser
p1711
g173
sVcom.dongqiudi.news
p1712
g282
sVcom.android.deskclock
p1713
g348
sVcom.huawei.appmarket
p1714
g1602
sVcom.snda.wifilocating
p1715
g445
sg39
g476
sg720
g506
sg968
g541
sg1463
g643
sg153
g1629
sVcom.android.gallery3d
p1716
g731
sg147
g1573
sVcom.taobao.taobao
p1717
g242
sVcom.huawei.systemmanager
p1718
g790
sg1233
g1052
sg85
g882
sVcom.android.phone
p1719
g849
sVcom.android.calculator2
p1720
g963
sVcom.netease.cloudmusic
p1721
g1004
sg133
g1452
sVcom.example.chinesechess.huawei
p1722
g1098
sVcom.netease.newsreader.activity
p1723
g1171
sg571
g1208
sg360
g1300
sg313
g1348
sVcom.android.calendar
p1724
g1431
sg23
g327
sVcom.baidu.BaiduMap
p1725
g1318
sg943
g1562
sg417
g1286
sg149
g1588
sg1695
g1126
ssg29
(dp1726
Vcom.android.settings
p1727
g1127
sVcom.huawei.android.launcher
p1728
g1209
sg1160
g1603
ssg31
(dp1729
g1711
g160
sVcom.tencent.mobileqq
p1730
g895
sVcom.dongqiudi.news
p1731
g288
sg172
g376
sVcom.netease.newsreader.activity
p1732
g1164
sVcom.huawei.android.launcher
p1733
g1210
sVcom.android.systemui
p1734
g1064
sVcom.tencent.mm
p1735
g1487
sVcom.android.contacts
p1736
g551
ssg33
(dp1737
Vcom.android.settings
p1738
g1129
sVcom.huawei.systemmanager
p1739
g793
sVcom.UCMobile
p1740
g369
sVcom.netease.newsreader.activity
p1741
g1192
sg1647
g1211
sVcom.android.systemui
p1742
g1054
sg1650
g1453
sVcom.android.contacts
p1743
g543
ssg35
(dp1744
g583
g1130
sg560
g804
ssg37
(dp1745
Vcom.huawei.android.launcher
p1746
g1213
sVcom.tencent.mobileqq
p1747
g884
ssg39
(dp1748
Vorg.hbrchina
p1749
g623
sVcom.aquila.bible
p1750
g651
sVcom.UCMobile
p1751
g371
sg720
g524
sg902
g1627
sg513
g740
sg644
g1191
sVcom.android.contacts
p1752
g545
sVcom.huawei.hidisk
p1753
g781
sVcom.huawei.systemmanager
p1754
g810
sVcom.huawei.android.launcher
p1755
g1214
sVcom.android.systemui
p1756
g1056
sVcom.android.mediacenter
p1757
g498
sg133
g1454
sg798
g1349
sg892
g609
sg85
g885
ssg41
(dp1758
g125
g1397
sg991
g199
sg486
g1014
sVcom.tencent.mobileqq
p1759
g887
sVcom.zms.android
p1760
g985
sg187
g273
sg491
g783
sVcom.huawei.android.launcher
p1761
g1215
sg1011
g1057
sg1015
g1455
sVcom.android.contacts
p1762
g547
ssg43
(dp1763
Vcom.tencent.mobileqq
p1764
g889
sg513
g721
sg1182
g283
sVcom.UCMobile
p1765
g373
sVcom.netease.newsreader.activity
p1766
g1175
sVcom.huawei.android.launcher
p1767
g1216
sVcom.android.systemui
p1768
g1059
sVcom.baidu.tieba
p1769
g1582
sVcom.tencent.mm
p1770
g1456
ssg45
(dp1771
g8
g183
sVcom.huawei.android.FMRadio
p1772
g201
sg1642
g1457
sg21
g285
sg83
g868
sVcom.android.deskclock
p1773
g356
sg1170
g375
sg35
g458
sg37
g463
sVcom.sina.weibo
p1774
g530
sg548
g613
sVcom.huawei.android.totemweather
p1775
g335
sg552
g1102
sVcom.huawei.android.thememanager
p1776
g695
sVcom.android.gallery3d
p1777
g746
sVcom.taobao.taobao
p1778
g252
sg1037
g816
sVcom.android.systemui
p1779
g1061
sg564
g891
sg1720
g969
sg81
g861
sVcom.netease.newsreader.activity
p1780
g1196
sg1641
g1217
sg117
g1337
sg119
g1351
sVcom.rrh.jdb
p1781
g1382
sg575
g1393
sg577
g1414
sVcom.qw.android
p1782
g1422
sg131
g1439
sg1035
g1131
sVcom.baidu.BaiduMap
p1783
g1328
sVcom.baidu.input_huawei
p1784
g1570
sVcom.huawei.appmarket
p1785
g1605
ssg47
(dp1786
g405
g1395
sg552
g1117
sg632
g1018
sVcom.tencent.mobileqq
p1787
g893
sVcom.android.phone
p1788
g863
sVcom.huawei.android.launcher
p1789
g1218
sVcom.android.systemui
p1790
g1063
sg608
g483
sVcom.tencent.mm
p1791
g1459
sg1392
g549
ssg49
(dp1792
Vcom.huawei.android.launcher
p1793
g1219
sVcom.UCMobile
p1794
g363
sVcom.aquila.bible
p1795
g631
sVcom.tencent.mm
p1796
g1460
sVcom.android.settings
p1797
g1122
ssg51
(dp1798
g372
g502
sVcom.huawei.android.launcher
p1799
g1220
sg511
g1607
sg622
g466
sg626
g1462
sVcom.tencent.mobileqq
p1800
g925
ssg53
(dp1801
Vcom.huawei.vassistant
p1802
g1402
sg1239
g990
sVcom.android.settings
p1803
g1133
sg19
g266
sg842
g1310
sg1375
g1532
sg71
g771
sVcom.UCMobile
p1804
g397
sVcom.lofter.android
p1805
g1276
sg1681
g1221
sVcom.dongqiudi.news
p1806
g290
sg270
g1065
sVcom.netease.newsreader.activity
p1807
g1166
sg650
g468
sVcom.tencent.mm
p1808
g1464
sVcom.huawei.health
p1809
g1353
sg915
g824
sVcom.tencent.mobileqq
p1810
g897
ssg55
(dp1811
g954
g1608
sVcom.liulishuo.engzo
p1812
g1546
sVcom.huawei.android.launcher
p1813
g1222
sg606
g1066
sg750
g899
sg936
g1354
sg47
g599
ssg57
(dp1814
g370
g475
sg1751
g401
sVcom.tencent.mobileqq
p1815
g933
ssg59
(dp1816
g103
g1105
sg898
g662
sg558
g776
sg43
g516
sg1189
g1623
sg710
g977
sVcom.UCMobile
p1817
g416
sg107
g1184
sg1187
g1266
sVcom.android.systemui
p1818
g1090
sVcom.android.email
p1819
g1333
sVcom.tencent.mm
p1820
g1510
sVcom.android.contacts
p1821
g590
sVcom.tencent.mobileqq
p1822
g950
ssg61
(dp1823
g1119
g163
sVcom.UCMobile
p1824
g379
sg137
g1526
sg105
g1134
sg1024
g717
sg59
g672
sg678
g1224
sVcom.huawei.camera
p1825
g208
sg680
g1609
sVcom.tencent.mm
p1826
g1467
sVcom.android.contacts
p1827
g555
sVcom.tencent.mobileqq
p1828
g901
ssg63
(dp1829
Vcom.android.browser
p1830
g167
sVcom.android.settings
p1831
g1135
sVcom.dongqiudi.news
p1832
g292
sg1639
g424
sVcom.huawei.android.launcher
p1833
g1271
sVcom.tencent.mm
p1834
g1516
sVcom.huawei.health
p1835
g1355
sVcom.tencent.mobileqq
p1836
g957
ssg65
(dp1837
g1119
g169
sg402
g216
sVcom.dongqiudi.news
p1838
g294
sVcom.UCMobile
p1839
g382
sg523
g474
sVcom.sina.weibo
p1840
g514
sg162
g692
sg67
g753
sg722
g841
sg394
g1469
sg93
g1025
sVcom.android.systemui
p1841
g1067
sVcom.netease.newsreader.activity
p1842
g1179
sg109
g1226
sg712
g1296
sg1665
g1357
sVcom.tencent.mobileqq
p1843
g905
sg1022
g1136
sg638
g1535
sVcom.lofter.android
p1844
g1280
sVcom.baidu.tieba
p1845
g1584
sVcom.huawei.appmarket
p1846
g1611
ssg67
(dp1847
g1279
g725
sg638
g1536
sg947
g1549
sg1844
g1282
sVcom.huawei.android.launcher
p1848
g1227
sg1550
g237
sg13
g218
sVcom.android.systemui
p1849
g1068
sVcom.tencent.mobileqq
p1850
g907
ssg69
(dp1851
Vcom.huawei.android.launcher
p1852
g1228
ssg71
(dp1853
Vcom.tencent.mobileqq
p1854
g910
sVcom.huawei.android.launcher
p1855
g1229
ssg73
(dp1856
g784
g1465
sg589
g677
sg777
g801
sVcom.huawei.android.launcher
p1857
g1223
sg497
g470
sg886
g492
sVcom.tencent.mobileqq
p1858
g912
sg1821
g559
ssg75
(dp1859
g1830
g171
sVcom.zms.android
p1860
g979
sVcom.netease.cloudmusic
p1861
g1006
sVcom.huawei.phoneservice
p1862
g1031
sg1035
g1137
sg166
g704
sg1176
g1069
sg1180
g1320
sVcom.dongqiudi.news
p1863
g298
sg700
g1359
sg469
g778
sVcom.android.phone
p1864
g851
sVcom.huawei.android.launcher
p1865
g1231
sg129
g1418
sg97
g1038
sVcom.baidu.tieba
p1866
g1589
sVcom.tencent.mm
p1867
g1476
sg815
g561
sVcom.tencent.mobileqq
p1868
g914
ssg77
(dp1869
sg79
(dp1870
g823
g657
sg827
g916
sVcom.android.systemui
p1871
g1071
sVcom.dongqiudi.news
p1872
g286
sVcom.huawei.android.launcher
p1873
g1232
sg319
g1606
sVcom.tencent.mm
p1874
g1478
ssg81
(dp1875
g1775
g331
sVcom.aquila.bible
p1876
g655
sVcom.huawei.camera
p1877
g214
sVcom.tencent.mobileqq
p1878
g918
sVcom.android.gallery3d
p1879
g723
sVcom.baidu.BaiduMap
p1880
g1324
sVcom.dongqiudi.news
p1881
g300
sVcom.huawei.health
p1882
g1361
sg121
g1384
sVcom.UCMobile
p1883
g386
sVcom.netease.newsreader.activity
p1884
g1186
sVcom.huawei.android.launcher
p1885
g1236
sg712
g1303
sVcom.android.settings
p1886
g1148
sVcom.tencent.mm
p1887
g1489
sVcom.android.contacts
p1888
g563
ssg83
(dp1889
sg85
(dp1890
Vcom.huawei.lcagent
p1891
g1295
sg1596
g257
sVcom.android.soundrecorder
p1892
g275
sg1345
g318
sVcom.android.deskclock
p1893
g342
sVcom.UCMobile
p1894
g384
sg608
g472
sg886
g489
sVcom.sina.weibo
p1895
g510
sVcom.android.contacts
p1896
g565
sg1458
g603
sVcom.zhihu.android
p1897
g431
sg1463
g653
sVcom.android.gallery3d
p1898
g748
sg217
g751
sg1472
g250
sg491
g775
sg1030
g818
sg1477
g828
sVcom.android.systemui
p1899
g1072
sVcom.tencent.mm
p1900
g1481
sVcom.android.calculator2
p1901
g962
sg870
g988
sg91
g995
sg1862
g1029
sVcom.android.phone
p1902
g859
sVcom.example.chinesechess.huawei
p1903
g1100
sVcom.android.settings
p1904
g1156
sVcom.netease.newsreader.activity
p1905
g1173
sVcom.huawei.android.launcher
p1906
g1235
sg934
g230
sVcom.huawei.health
p1907
g1363
sVcom.huawei.vassistant
p1908
g1404
sg1686
g1427
sg23
g323
sg1144
g1519
sg115
g1326
sVcom.example.android.notepad
p1909
g1534
sg141
g1548
sVcom.baidu.input_huawei
p1910
g1560
sg111
g1278
sVcom.huawei.appmarket
p1911
g1619
ssg87
(dp1912
g540
g388
sVcom.tencent.mm
p1913
g1483
sg571
g1237
sg968
g566
ssg89
(dp1914
g358
g179
sVcom.netease.cloudmusic
p1915
g993
sVcom.tencent.mobileqq
p1916
g871
sg423
g708
sVcom.android.gallery3d
p1917
g711
sg1639
g391
sg1833
g1238
sVcom.tencent.mm
p1918
g1484
ssg91
(dp1919
Vcom.aquila.bible
p1920
g633
sVcom.tencent.mobileqq
p1921
g923
sg1917
g715
sVcom.dongqiudi.news
p1922
g304
sVcom.UCMobile
p1923
g393
sVcom.netease.newsreader.activity
p1924
g1169
sg1681
g1240
sVcom.huawei.camera
p1925
g206
sVcom.android.settings
p1926
g1142
sVcom.android.mediacenter
p1927
g487
sVcom.tencent.mm
p1928
g1485
ssg93
(dp1929
Vcom.huawei.android.thememanager
p1930
g687
sVcom.android.settings
p1931
g1143
sVcom.huawei.android.launcher
p1932
g1241
ssg95
(dp1933
Vcom.huawei.android.launcher
p1934
g1242
sVcom.tencent.mm
p1935
g1488
ssg97
(dp1936
Vcom.huawei.android.thememanager
p1937
g693
sVcom.android.settings
p1938
g1146
sVcom.huawei.android.launcher
p1939
g1243
ssg99
(dp1940
g11
g198
sg872
g263
sg19
g271
sg364
g306
sVcom.android.deskclock
p1941
g344
sg27
g383
sg33
g449
sg39
g478
sg41
g496
sg888
g522
sVcom.android.contacts
p1942
g568
sg47
g607
sg287
g437
sg53
g636
sg61
g691
sg381
g739
sVcom.lofter.android
p1943
g1290
sVcom.taobao.taobao
p1944
g248
sg170
g808
sVcom.sirma.mobile.bible.android
p1945
g832
sVcom.zms.android
p1946
g983
sg85
g926
sg1646
g1012
sVorg.wikipedia
p1947
g1523
sg103
g1111
sVcom.netease.newsreader.activity
p1948
g1177
sg1590
g1234
sVcom.huawei.camera
p1949
g212
sg1694
g1367
sg125
g1399
sg129
g1423
sVcom.baidu.input_huawei
p1950
g1566
sg133
g1479
sVcom.baidu.BaiduMap
p1951
g1314
sg1375
g1542
sg415
g675
sg147
g1577
sg1268
g1592
sg105
g1138
ssg101
(dp1952
Vcom.huawei.appmarket
p1953
g1614
ssg103
(dp1954
g1043
g186
sg1817
g377
sg527
g1490
sg1941
g338
sg415
g671
sVcom.huawei.android.launcher
p1955
g1245
sVcom.android.systemui
p1956
g1075
sg43
g504
sVcom.android.contacts
p1957
g553
sVcom.tencent.mobileqq
p1958
g928
ssg105
(dp1959
g1119
g165
sg1150
g1307
sg49
g616
sVcom.handsgo.jiakao.android
p1960
g255
sg1824
g410
sg35
g454
sg815
g584
sVcom.aquila.bible
p1961
g659
sg59
g673
sg61
g689
sg1024
g719
sg1037
g791
sg690
g1074
sg1826
g1505
sg1168
g1020
sg93
g1023
sg97
g1036
sg1860
g973
sg398
g1198
sg678
g1244
sg1825
g228
sg700
g1365
sVcom.android.calendar
p1962
g1435
sVcom.tencent.mobileqq
p1963
g921
sg1180
g1330
sg137
g1528
sVcom.baidu.tieba
p1964
g1580
sg1189
g1621
ssg107
(dp1965
g1903
g1106
sg127
g1408
sVcom.netease.cloudmusic
p1966
g1000
sg747
g930
sg1774
g518
sVcom.huawei.appmarket
p1967
g1615
sVcom.android.gallery3d
p1968
g729
sg1750
g645
sVcom.dongqiudi.news
p1969
g308
sVcom.UCMobile
p1970
g399
sVcom.huawei.android.launcher
p1971
g1247
sVcom.android.systemui
p1972
g1077
sg591
g1586
sVcom.tencent.mm
p1973
g1491
sVcom.android.contacts
p1974
g570
ssg109
(dp1975
g1041
g177
sg11
g194
sVcom.huawei.lcagent
p1976
g1302
sg49
g620
sg15
g244
sg17
g261
sg19
g269
sg21
g310
sg23
g329
sg1773
g350
sg27
g400
sg29
g427
sg1486
g435
sg33
g446
sg35
g456
sg37
g461
sg39
g477
sg41
g494
sg43
g520
sg968
g572
sg47
g605
sg51
g625
sg53
g646
sVcom.mojang.minecraftpe
p1977
g664
sg61
g697
sg63
g706
sg65
g742
sg67
g759
sg69
g766
sg71
g773
sg73
g780
sVcom.huawei.systemmanager
p1978
g803
sg77
g821
sg1477
g830
sg99
g1078
sg83
g866
sg317
g932
sg917
g853
sg87
g965
sg1760
g981
sg1239
g1008
sg93
g1027
sg95
g1033
sg105
g1149
sg103
g1108
sg107
g1188
sg1805
g1288
sg13
g226
sg115
g1322
sg117
g1335
sg119
g1369
sg1781
g1380
sVcom.MobileTicket
p1979
g1389
sg125
g1398
sg1802
g1410
sg129
g1420
sg1675
g1433
sg394
g1492
sg135
g1521
sg1910
g1564
sg139
g1538
sVcom.liulishuo.engzo
p1980
g1553
sg59
g679
sg147
g1575
sg149
g1591
sg151
g1617
sg902
g1631
ssg111
(dp1981
g1273
g175
sVcom.tencent.mobileqq
p1982
g952
sg1279
g733
sg1281
g757
sVcom.UCMobile
p1983
g418
sVcom.huawei.android.launcher
p1984
g1248
sVcom.huawei.appmarket
p1985
g1624
sg1291
g1471
ssg113
(dp1986
Vcom.example.chinesechess.huawei
p1987
g1110
sVcom.android.settings
p1988
g1151
sg1879
g713
sVcom.taobao.taobao
p1989
g246
sVcom.UCMobile
p1990
g361
sg1475
g806
sVcom.huawei.android.launcher
p1991
g1202
sVcom.dongqiudi.news
p1992
g312
sg722
g855
sVcom.snda.wifilocating
p1993
g448
sVcom.tencent.mm
p1994
g1493
sVcom.huawei.health
p1995
g1371
ssg115
(dp1996
g1329
g1157
sVcom.android.systemui
p1997
g1087
sg1319
g795
sVcom.UCMobile
p1998
g412
sVcom.netease.newsreader.activity
p1999
g1181
sVcom.huawei.android.launcher
p2000
g1250
sg1323
g843
sVcom.tencent.mm
p2001
g1506
sVcom.android.contacts
p2002
g586
sVcom.tencent.mobileqq
p2003
g879
ssg117
(dp2004
sg119
(dp2005
Vcom.huawei.android.totemweather
p2006
g325
sg1722
g1115
sg661
g685
sg1937
g701
sg1362
g937
sg665
g1618
sVcom.aquila.bible
p2007
g641
sg139
g1544
sVcom.android.contacts
p2008
g574
sVcom.UCMobile
p2009
g404
sVcom.huawei.systemmanager
p2010
g799
sVcom.huawei.android.launcher
p2011
g1251
sg1047
g314
sVcom.android.systemui
p2012
g1079
sg97
g1039
sg809
g481
sVcom.tencent.mm
p2013
g1497
sg917
g847
sVcom.android.settings
p2014
g1152
ssg121
(dp2015
Vcom.huawei.android.launcher
p2016
g1252
sVcom.android.contacts
p2017
g539
ssg123
(dp2018
Vcom.huawei.hwid
p2019
g669
sVcom.UCMobile
p2020
g406
sVcom.huawei.android.launcher
p2021
g1255
sVcom.huawei.appmarket
p2022
g1620
sVcom.tencent.mm
p2023
g1498
sVcom.android.contacts
p2024
g576
ssg125
(dp2025
Vcom.tencent.mobileqq
p2026
g939
sg187
g267
sg1761
g1256
sg1011
g1080
sg41
g485
sVcom.tencent.mm
p2027
g1499
ssg127
(dp2028
Vcom.dongqiudi.news
p2029
g316
sVcom.netease.newsreader.activity
p2030
g1167
sVcom.huawei.android.launcher
p2031
g1257
sVcom.android.systemui
p2032
g1082
sg1411
g1501
sVcom.android.contacts
p2033
g578
sVcom.android.calculator2
p2034
g960
ssg129
(dp2035
g1830
g161
sg1831
g1153
sg166
g707
sg170
g788
sg1419
g1258
sg807
g1084
sVcom.tencent.mm
p2036
g1502
sg1421
g580
ssg131
(dp2037
Vcom.tencent.mm
p2038
g1444
sVcom.android.deskclock
p2039
g340
sVcom.UCMobile
p2040
g390
sVcom.huawei.android.launcher
p2041
g1259
sg1426
g941
sVcom.huawei.health
p2042
g1372
ssg133
(dp2043
g358
g181
sg1976
g1305
sVcom.handsgo.jiakao.android
p2044
g259
sVcom.dongqiudi.news
p2045
g302
sVcom.huawei.android.totemweather
p2046
g333
sVcom.android.deskclock
p2047
g354
sg27
g395
sVcom.snda.wifilocating
p2048
g451
sg39
g479
sVcom.android.mediacenter
p2049
g500
sg43
g528
sg1195
g535
sg1458
g611
sg362
g618
sg51
g627
sg1531
g635
sg902
g1633
sg752
g744
sg67
g763
sg1944
g235
sg71
g769
sVcom.huawei.hidisk
p2050
g785
sg1475
g814
sVcom.sirma.mobile.bible.android
p2051
g834
sg99
g1086
sg85
g919
sg1323
g839
sg1482
g967
sg1646
g1016
sg1486
g439
sg178
g986
sg503
g1113
sVcom.netease.newsreader.activity
p2052
g1194
sg109
g1261
sVcom.huawei.camera
p2053
g210
sg1496
g1374
sVcom.baidu.input_huawei
p2054
g1568
sg123
g1391
sg1802
g1412
sg1675
g1437
sVcom.android.settings
p2055
g1140
sg115
g1312
sg1375
g1543
sg1980
g1556
sg1509
g683
sg1943
g1292
sg1512
g1594
sVcom.huawei.appmarket
p2056
g1613
ssg135
(dp2057
Vcom.huawei.android.launcher
p2058
g1230
sVcom.android.settings
p2059
g1145
sVcom.tencent.mm
p2060
g1474
sVcom.eg.android.AlipayGphone
p2061
g601
sg894
g429
ssg137
(dp2062
g688
g1154
sg696
g1262
sg690
g1085
ssg139
(dp2063
g1531
g639
sg1095
g190
sVcom.tencent.mobileqq
p2064
g946
sg752
g727
sg67
g754
sg1942
g588
sVcom.UCMobile
p2065
g414
sVcom.huawei.android.launcher
p2066
g1263
sVcom.android.systemui
p2067
g1088
sg2013
g1507
sg1496
g1376
ssg141
(dp2068
g1850
g948
sg1657
g756
sg1654
g239
sg1848
g1264
sg13
g222
sg1911
g1622
sg1555
g1508
ssg143
(dp2069
Vcom.huawei.android.launcher
p2070
g1265
sVcom.sina.weibo
p2071
g531
sVcom.tencent.mm
p2072
g1495
sVcom.baidu.tieba
p2073
g1583
ssg145
(dp2074
Vcom.MobileTicket
p2075
g1387
sVcom.tencent.mm
p2076
g1503
sVcom.UCMobile
p2077
g408
sVcom.huawei.android.launcher
p2078
g1254
sVcom.sina.weibo
p2079
g508
sVcom.android.contacts
p2080
g582
sVcom.tencent.mobileqq
p2081
g944
ssg147
(dp2082
Vcom.huawei.android.launcher
p2083
g1267
sVcom.huawei.android.FMRadio
p2084
g192
sVcom.tencent.mm
p2085
g1511
sVcom.zhihu.android
p2086
g433
ssg149
(dp2087
g1579
g1159
sg1581
g526
sg381
g735
sg1587
g420
sVcom.huawei.systemmanager
p2088
g812
sg1590
g1269
sg1233
g1091
sVcom.tencent.mm
p2089
g1513
sVcom.android.contacts
p2090
g592
sVcom.tencent.mobileqq
p2091
g953
ssg151
(dp2092
g51
g629
sg265
g649
sg898
g666
sg1966
g997
sVcom.UCMobile
p2093
g422
sVcom.huawei.android.thememanager
p2094
g699
sg1612
g1515
sg372
g512
sg917
g857
sg1872
g320
sVcom.android.contacts
p2095
g594
sg1599
g352
sg59
g681
sg107
g1190
sVcom.huawei.android.launcher
p2096
g1270
sg270
g1092
sg710
g975
sg1819
g1339
sg1362
g955
sg1907
g1377
sg1727
g1161
ssg153
(dp2097
Vcom.UCMobile
p2098
g380
sVcom.tencent.mm
p2099
g1468
sVcom.huawei.android.launcher
p2100
g1225
sVcom.tencent.mobileqq
p2101
g903
sssS'adj'
p2102
g158
sb.