ccopy_reg
_reconstructor
p1
(cnetworkx.classes.digraph
DiGraph
p2
c__builtin__
object
p3
NtRp4
(dp5
S'node'
p6
(dp7
Vim.naodong.gaonengfun
p8
(dp9
S'weight'
p10
F0.0010391052077887712
ssVcom.android.launcher
p11
(dp12
g10
F0.55423290155607619
ssVcom.kenai.liuliang
p13
(dp14
g10
F3.6142789836131171e-05
ssVcom.baidu.netdisk
p15
(dp16
g10
F0.0051167863896579985
ssVcom.android.deskclock
p17
(dp18
g10
F2.8397906299817348e-05
ssVcom.UCMobile
p19
(dp20
g10
F0.0035807178216224239
ssVcom.sohu.inputmethod.sogou
p21
(dp22
g10
F2.1943836686222499e-05
ssVcom.blizzard.wtcg.hearthstone
p23
(dp24
g10
F0.0002710709237709838
ssVcom.meizu.media.painter
p25
(dp26
g10
F1.0326511381751763e-05
ssVcom.fotoable.helpr
p27
(dp28
g10
F3.6142789836131171e-05
ssVcom.mymoney
p29
(dp30
g10
F0.00049050929063320877
ssVcom.eg.android.AlipayGphone
p31
(dp32
g10
F0.00055763161461459528
ssVcom.estrongs.android.pop
p33
(dp34
g10
F2.3234650608941469e-05
ssVcom.android.packageinstaller
p35
(dp36
g10
F0.00011230081127655043
ssVcom.jingdong.app.mall
p37
(dp38
g10
F0.0023376640140440556
ssVcom.taobao.taobao
p39
(dp40
g10
F0.0075577155175195719
ssVcom.astrogame.sherman
p41
(dp42
g10
F0.0797129229835873
ssVcom.android.phone
p43
(dp44
g10
F0.0047075983761560849
ssVcom.meizu.media.gallery
p45
(dp46
g10
F0.00057957545130081771
ssVcom.icbc
p47
(dp48
g10
F0.0001652241821080282
ssVcom.tencent.mm
p49
(dp50
g10
F0.027712484106853577
ssVtv.danmaku.bili
p51
(dp52
g10
F0.007535771680833349
ssVcom.meizu.mstore
p53
(dp54
g10
F0.00012004569481286425
ssVcom.meizu.flyme.weather
p55
(dp56
g10
F1.8071394918065586e-05
ssVcom.meizu.media.camera
p57
(dp58
g10
F0.00032915755029333749
ssVcom.android.fileexplorer
p59
(dp60
g10
F4.0015231604288084e-05
ssVcom.kingreader.framework
p61
(dp62
g10
F0.13053743037672405
ssVcom.tencent.mobileqq
p63
(dp64
g10
F0.13774662613510949
ssVcom.meizu.notepaper
p65
(dp66
g10
F0.00022331080863038189
ssVcom.meizu.cloud
p67
(dp68
g10
F1.1617325304470734e-05
ssVcom.gonlan.iplaymtg
p69
(dp70
g10
F0.00056924893991906593
ssVcom.android.calendar
p71
(dp72
g10
F3.7433603758850145e-05
ssVcom.android.settings
p73
(dp74
g10
F0.0017193641450616685
ssVcom.tencent.qt.qtl
p75
(dp76
g10
F0.0066618906551526068
ssVcom.android.mms
p77
(dp78
g10
F0.00026203522631195099
ssVcom.qzone
p79
(dp80
g10
F0.0028449538856726107
ssVcom.baidu.tieba
p81
(dp82
g10
F0.016117102639069066
ssVcom.xiaoji.emulator
p83
(dp84
g10
F0.0065986407729393768
ssVcom.tencent.djcity
p85
(dp86
g10
F0.00022072918078494395
ssVcom.sohu.sohuvideo
p87
(dp88
g10
F7.6158021440419262e-05
sssS'node_dict_factory'
p89
c__builtin__
dict
p90
sS'edge_attr_dict_factory'
p91
g90
sS'succ'
p92
(dp93
g8
(dp94
Vcom.tencent.mobileqq
p95
(dp96
g10
I1
ssVcom.astrogame.sherman
p97
(dp98
g10
F1.3
ssVcom.android.launcher
p99
(dp100
g10
F3.3999999999999999
sssg11
(dp101
g8
(dp102
g10
F2.7000000000000002
ssg13
(dp103
g10
F5
ssg15
(dp104
g10
F4.5999999999999996
ssg17
(dp105
g10
I2
ssVcom.UCMobile
p106
(dp107
g10
F19.699999999999999
ssg21
(dp108
g10
F1.3
ssg23
(dp109
g10
F1.7
ssg25
(dp110
g10
F1.7
ssg27
(dp111
g10
F2.1000000000000001
ssg29
(dp112
g10
F5.7000000000000011
ssg31
(dp113
g10
F6.6000000000000005
ssg33
(dp114
g10
F0.90000000000000002
ssg35
(dp115
g10
F5.3000000000000007
ssg37
(dp116
g10
F11.700000000000003
ssg39
(dp117
g10
F12.199999999999999
ssg41
(dp118
g10
F130.00000000000011
ssg43
(dp119
g10
F9
ssg45
(dp120
g10
F6.1000000000000005
ssg47
(dp121
g10
F2.6999999999999997
ssVcom.tencent.mobileqq
p122
(dp123
g10
F366.49999999999903
ssg51
(dp124
g10
F12.1
ssg53
(dp125
g10
I1
ssg55
(dp126
g10
F0.69999999999999996
ssg57
(dp127
g10
F6.4000000000000012
ssg59
(dp128
g10
F5.0999999999999996
ssg61
(dp129
g10
F42.900000000000006
ssg65
(dp130
g10
F14.499999999999998
ssg67
(dp131
g10
F1.8999999999999999
ssg69
(dp132
g10
F2.3999999999999999
ssg71
(dp133
g10
F1.8999999999999999
ssVcom.tencent.mm
p134
(dp135
g10
F182.69999999999993
ssg75
(dp136
g10
F4.4000000000000004
ssg77
(dp137
g10
F8.4000000000000004
ssVcom.qzone
p138
(dp139
g10
F5.4000000000000004
ssg81
(dp140
g10
F30.899999999999988
ssg73
(dp141
g10
F13.600000000000001
ssg83
(dp142
g10
F2.7000000000000002
ssg85
(dp143
g10
F3.3999999999999999
ssg87
(dp144
g10
F1.7
sssg13
(dp145
Vcom.baidu.tieba
p146
(dp147
g10
F0.40000000000000002
ssVcom.tencent.mobileqq
p148
(dp149
g10
F0.90000000000000002
ssVcom.kingreader.framework
p150
(dp151
g10
F1.8999999999999999
ssVcom.android.launcher
p152
(dp153
g10
F3.5999999999999996
ssVcom.baidu.netdisk
p154
(dp155
g10
F0.69999999999999996
sssg15
(dp156
Vcom.android.launcher
p157
(dp158
g10
I1
sssg17
(dp159
Vcom.tencent.mobileqq
p160
(dp161
g10
F0.90000000000000002
ssVcom.android.launcher
p162
(dp163
g10
I1
ssVcom.meizu.flyme.weather
p164
(dp165
g10
I1
sssg19
(dp166
Vcom.meizu.media.camera
p167
(dp168
g10
F2.1000000000000001
ssVcom.tencent.mobileqq
p169
(dp170
g10
F10.200000000000001
ssVcom.android.packageinstaller
p171
(dp172
g10
I1
ssVcom.android.mms
p173
(dp174
g10
F0.90000000000000002
ssg8
(dp175
g10
F1.7000000000000002
ssVcom.baidu.tieba
p176
(dp177
g10
F0.90000000000000002
ssVcom.android.launcher
p178
(dp179
g10
F20.699999999999999
ssVcom.android.settings
p180
(dp181
g10
F0.40000000000000002
ssVcom.tencent.mm
p182
(dp183
g10
F4.2999999999999998
ssVcom.tencent.djcity
p184
(dp185
g10
F0.40000000000000002
sssg21
(dp186
sg23
(dp187
Vcom.tencent.mobileqq
p188
(dp189
g10
F0.90000000000000002
ssVcom.android.launcher
p190
(dp191
g10
I2
sssg25
(dp192
Vcom.meizu.media.gallery
p193
(dp194
g10
I1
sssg27
(dp195
g193
(dp196
g10
F0.69999999999999996
ssVcom.android.launcher
p197
(dp198
g10
I1
ssg25
(dp199
g10
F0.90000000000000002
sssg29
(dp200
Vcom.tencent.mobileqq
p201
(dp202
g10
F0.69999999999999996
ssVcom.jingdong.app.mall
p203
(dp204
g10
F1.6000000000000001
ssVcom.android.launcher
p205
(dp206
g10
F5.7000000000000002
ssVcom.icbc
p207
(dp208
g10
F7.8000000000000007
ssVcom.tencent.mm
p209
(dp210
g10
F0.90000000000000002
ssVcom.eg.android.AlipayGphone
p211
(dp212
g10
F2.7000000000000002
ssg55
(dp213
g10
F0.40000000000000002
sssg31
(dp214
g201
(dp215
g10
F1.3
ssVcom.mymoney
p216
(dp217
g10
I1
ssVcom.astrogame.sherman
p218
(dp219
g10
I1
ssVcom.android.launcher
p220
(dp221
g10
F2.3999999999999999
sssg33
(dp222
Vcom.android.fileexplorer
p223
(dp224
g10
I1
sssg35
(dp225
Vcom.gonlan.iplaymtg
p226
(dp227
g10
F0.90000000000000002
ssVcom.tencent.mobileqq
p228
(dp229
g10
F0.40000000000000002
ssVcom.UCMobile
p230
(dp231
g10
F1.7
ssVcom.baidu.tieba
p232
(dp233
g10
F0.40000000000000002
ssVcom.android.launcher
p234
(dp235
g10
F4.6999999999999993
ssVcom.tencent.mm
p236
(dp237
g10
F0.90000000000000002
ssVcom.tencent.djcity
p238
(dp239
g10
I1
ssVtv.danmaku.bili
p240
(dp241
g10
F0.90000000000000002
sssg37
(dp242
Vcom.meizu.notepaper
p243
(dp244
g10
F1.8
ssg29
(dp245
g10
F2
ssVcom.android.launcher
p246
(dp247
g10
F11.100000000000001
ssg55
(dp248
g10
I1
ssVcom.tencent.mm
p249
(dp250
g10
F2.3999999999999999
ssVcom.tencent.mobileqq
p251
(dp252
g10
F1.6000000000000001
sssg39
(dp253
Vcom.meizu.notepaper
p254
(dp255
g10
F1.3
ssVcom.tencent.mobileqq
p256
(dp257
g10
F5.6000000000000005
ssVcom.kingreader.framework
p258
(dp259
g10
F0.40000000000000002
ssVcom.android.launcher
p260
(dp261
g10
F12.199999999999999
sssg41
(dp262
Vcom.meizu.notepaper
p263
(dp264
g10
F0.69999999999999996
ssg53
(dp265
g10
F1.3
ssVcom.kenai.liuliang
p266
(dp267
g10
F0.90000000000000002
ssVcom.tencent.mm
p268
(dp269
g10
F7.5000000000000009
ssg15
(dp270
g10
F0.90000000000000002
ssVcom.UCMobile
p271
(dp272
g10
F1.7000000000000002
ssVcom.baidu.tieba
p273
(dp274
g10
F2.2000000000000002
ssVcom.kingreader.framework
p275
(dp276
g10
F0.90000000000000002
ssVcom.android.launcher
p277
(dp278
g10
F99.600000000000122
ssVcom.android.phone
p279
(dp280
g10
I1
ssg21
(dp281
g10
F0.69999999999999996
ssVcom.xiaoji.emulator
p282
(dp283
g10
F0.40000000000000002
ssVcom.tencent.mobileqq
p284
(dp285
g10
F47.299999999999983
ssg31
(dp286
g10
F4
sssg43
(dp287
Vcom.tencent.mobileqq
p288
(dp289
g10
F2.8999999999999999
ssVcom.tencent.qt.qtl
p290
(dp291
g10
F1.3
ssVcom.android.mms
p292
(dp293
g10
F2.7999999999999998
ssVcom.astrogame.sherman
p294
(dp295
g10
I1
ssVcom.android.launcher
p296
(dp297
g10
F13.699999999999999
ssVcom.tencent.mm
p298
(dp299
g10
F4.5999999999999996
sssg45
(dp300
Vcom.tencent.mobileqq
p301
(dp302
g10
F3.1000000000000001
ssVcom.kingreader.framework
p303
(dp304
g10
F0.40000000000000002
ssVcom.android.launcher
p305
(dp306
g10
F6.1000000000000005
sssg47
(dp307
Vcom.mymoney
p308
(dp309
g10
F9.5
ssg211
(dp310
g10
F0.69999999999999996
ssVcom.android.launcher
p311
(dp312
g10
F2.2999999999999998
sssg49
(dp313
g8
(dp314
g10
F0.69999999999999996
ssg13
(dp315
g10
F1.1000000000000001
ssVcom.android.deskclock
p316
(dp317
g10
F0.90000000000000002
ssVcom.UCMobile
p318
(dp319
g10
F3.6000000000000001
ssVcom.android.launcher
p320
(dp321
g10
F139.20000000000007
ssg25
(dp322
g10
F0.40000000000000002
ssg27
(dp323
g10
F0.90000000000000002
ssg29
(dp324
g10
F1.6000000000000001
ssg171
(dp325
g10
F0.69999999999999996
ssVcom.jingdong.app.mall
p326
(dp327
g10
I2
ssVcom.astrogame.sherman
p328
(dp329
g10
F9.6000000000000032
ssg43
(dp330
g10
F2.0999999999999996
ssg45
(dp331
g10
F0.69999999999999996
ssVcom.tencent.mobileqq
p332
(dp333
g10
F51.099999999999959
ssVtv.danmaku.bili
p334
(dp335
g10
F1.7999999999999998
ssVcom.android.fileexplorer
p336
(dp337
g10
F0.90000000000000002
ssVcom.kingreader.framework
p338
(dp339
g10
F7.5000000000000009
ssg65
(dp340
g10
F1.8
ssVcom.android.settings
p341
(dp342
g10
F0.80000000000000004
ssVcom.android.mms
p343
(dp344
g10
F2.2000000000000002
ssg81
(dp345
g10
F4.7999999999999998
ssg184
(dp346
g10
F0.90000000000000002
ssg55
(dp347
g10
F0.90000000000000002
sssg51
(dp348
Vcom.tencent.mobileqq
p349
(dp350
g10
F4
ssVcom.android.packageinstaller
p351
(dp352
g10
I2
ssVcom.tencent.mm
p353
(dp354
g10
F2.5999999999999996
ssVcom.astrogame.sherman
p355
(dp356
g10
F0.40000000000000002
ssVcom.android.launcher
p357
(dp358
g10
F9.7000000000000011
sssg53
(dp359
Vcom.tencent.mobileqq
p360
(dp361
g10
F0.90000000000000002
ssVcom.android.launcher
p362
(dp363
g10
I1
sssg55
(dp364
Vcom.tencent.mobileqq
p365
(dp366
g10
F1.3
ssVcom.android.launcher
p367
(dp368
g10
F1.7
sssg57
(dp369
Vcom.UCMobile
p370
(dp371
g10
F0.90000000000000002
ssVcom.tencent.mobileqq
p372
(dp373
g10
F5.3999999999999995
ssVcom.android.launcher
p374
(dp375
g10
F6.5000000000000009
sssg59
(dp376
g33
(dp377
g10
I1
ssVcom.android.settings
p378
(dp379
g10
F0.90000000000000002
ssVcom.android.launcher
p380
(dp381
g10
I1
sssg61
(dp382
g13
(dp383
g10
I1
ssVcom.tencent.mm
p384
(dp385
g10
F9.6000000000000014
ssg15
(dp386
g10
F1.7000000000000002
ssVcom.taobao.taobao
p387
(dp388
g10
F0.90000000000000002
ssg41
(dp389
g10
F1.8
ssVcom.android.launcher
p390
(dp391
g10
F45
ssVcom.android.settings
p392
(dp393
g10
F1.3
ssVcom.meizu.media.gallery
p394
(dp395
g10
F1.3999999999999999
ssg282
(dp396
g10
F0.90000000000000002
ssVcom.tencent.mobileqq
p397
(dp398
g10
F59.699999999999996
ssVcom.eg.android.AlipayGphone
p399
(dp400
g10
F0.90000000000000002
sssg63
(dp401
Vim.naodong.gaonengfun
p402
(dp403
g10
F1.7
ssVcom.android.launcher
p404
(dp405
g10
F313.29999999999939
ssVcom.UCMobile
p406
(dp407
g10
F10.699999999999999
ssg21
(dp408
g10
I1
ssg23
(dp409
g10
F1.3999999999999999
ssg31
(dp410
g10
F1.1000000000000001
ssg351
(dp411
g10
F0.69999999999999996
ssg37
(dp412
g10
F4.4000000000000004
ssg39
(dp413
g10
F3.5999999999999996
ssVcom.astrogame.sherman
p414
(dp415
g10
F48.499999999999964
ssg43
(dp416
g10
F4.9000000000000004
ssg45
(dp417
g10
F3.1000000000000001
ssg87
(dp418
g10
F0.90000000000000002
ssVtv.danmaku.bili
p419
(dp420
g10
F4.0999999999999996
ssg53
(dp421
g10
F0.69999999999999996
ssg49
(dp422
g10
F72.700000000000017
ssg167
(dp423
g10
F5
ssg336
(dp424
g10
F0.40000000000000002
ssVcom.kingreader.framework
p425
(dp426
g10
F57.800000000000011
ssg65
(dp427
g10
F4.7999999999999998
ssg341
(dp428
g10
F2.5
ssg75
(dp429
g10
F4
ssVcom.android.mms
p430
(dp431
g10
F2.3999999999999999
ssg138
(dp432
g10
F0.90000000000000002
ssg81
(dp433
g10
F12.100000000000003
sssg65
(dp434
Vcom.tencent.mobileqq
p435
(dp436
g10
F6.2000000000000011
ssg37
(dp437
g10
F3.7999999999999998
ssVcom.taobao.taobao
p438
(dp439
g10
F0.90000000000000002
ssVcom.astrogame.sherman
p440
(dp441
g10
F0.40000000000000002
ssVcom.android.launcher
p442
(dp443
g10
F10.800000000000001
ssg249
(dp444
g10
F1.8
sssg67
(dp445
Vcom.tencent.mobileqq
p446
(dp447
g10
F0.40000000000000002
ssVcom.tencent.mm
p448
(dp449
g10
F0.90000000000000002
ssVcom.android.launcher
p450
(dp451
g10
F1.7
sssg69
(dp452
Vcom.android.packageinstaller
p453
(dp454
g10
I1
ssg232
(dp455
g10
F0.90000000000000002
ssVcom.android.launcher
p456
(dp457
g10
F2.2999999999999998
sssg71
(dp458
Vcom.android.launcher
p459
(dp460
g10
I1
sssg73
(dp461
Vcom.android.launcher
p462
(dp463
g10
F11.5
ssg122
(dp464
g10
F3.5
ssVcom.android.fileexplorer
p465
(dp466
g10
F0.90000000000000002
ssg425
(dp467
g10
F0.90000000000000002
ssg23
(dp468
g10
F0.90000000000000002
ssg134
(dp469
g10
F2.2000000000000002
sssg75
(dp470
Vcom.tencent.mm
p471
(dp472
g10
F1.3
ssVcom.tencent.mobileqq
p473
(dp474
g10
F3.1000000000000001
ssVcom.kingreader.framework
p475
(dp476
g10
F1.3
ssVcom.android.launcher
p477
(dp478
g10
F4.0999999999999996
sssg77
(dp479
Vcom.kenai.liuliang
p480
(dp481
g10
F0.90000000000000002
ssg148
(dp482
g10
F0.40000000000000002
ssg290
(dp483
g10
F0.69999999999999996
ssg106
(dp484
g10
F0.90000000000000002
ssVcom.android.launcher
p485
(dp486
g10
F7.7000000000000011
ssVcom.android.phone
p487
(dp488
g10
I1
ssg182
(dp489
g10
F1.8
sssg79
(dp490
Vcom.tencent.mobileqq
p491
(dp492
g10
F3.1000000000000001
ssVcom.tencent.mm
p493
(dp494
g10
F2.2000000000000002
ssVcom.astrogame.sherman
p495
(dp496
g10
F0.40000000000000002
ssVcom.android.launcher
p497
(dp498
g10
F9.5
ssVcom.kingreader.framework
p499
(dp500
g10
F0.40000000000000002
sssg81
(dp501
Vcom.tencent.mm
p502
(dp503
g10
F3
ssg75
(dp504
g10
F0.40000000000000002
ssVcom.astrogame.sherman
p505
(dp506
g10
F1.3
ssVcom.android.launcher
p507
(dp508
g10
F26.699999999999996
ssg180
(dp509
g10
F0.90000000000000002
ssVcom.tencent.mobileqq
p510
(dp511
g10
F10.000000000000002
ssVcom.kingreader.framework
p512
(dp513
g10
F0.40000000000000002
sssg83
(dp514
Vcom.tencent.mm
p515
(dp516
g10
F0.40000000000000002
ssVcom.tencent.mobileqq
p517
(dp518
g10
F0.90000000000000002
ssVcom.android.launcher
p519
(dp520
g10
F2.7000000000000002
sssg85
(dp521
g35
(dp522
g10
I1
ssg234
(dp523
g10
F1.7
sssg87
(dp524
Vcom.tencent.mm
p525
(dp526
g10
F0.40000000000000002
ssVcom.tencent.mobileqq
p527
(dp528
g10
F0.90000000000000002
ssVcom.android.launcher
p529
(dp530
g10
F1.7
ssssS'edge'
p531
g93
sS'graph'
p532
(dp533
sS'adjlist_dict_factory'
p534
g90
sS'adj'
p535
g93
sS'pred'
p536
(dp537
g8
(dp538
g230
g175
sg236
g314
sVcom.android.launcher
p539
g102
sg95
g403
ssg11
(dp540
g8
g100
sg13
g153
sVcom.baidu.netdisk
p541
g158
sg316
g163
sg19
g179
sg23
g191
sg27
g198
sg29
g206
sg211
g221
sg35
g235
sg37
g247
sg39
g261
sg41
g278
sVcom.android.phone
p542
g297
sg45
g306
sg47
g312
sg87
g530
sg51
g358
sg53
g363
sg134
g321
sg57
g375
sg336
g381
sg61
g391
sg122
g405
sg65
g443
sg67
g451
sg69
g457
sg71
g460
sg73
g463
sVcom.tencent.qt.qtl
p543
g478
sg77
g486
sg79
g498
sg273
g508
sg83
g520
sg85
g523
sg55
g368
ssg13
(dp544
g343
g481
sVcom.tencent.mm
p545
g315
sg338
g383
sVcom.android.launcher
p546
g103
sVcom.astrogame.sherman
p547
g267
ssg15
(dp548
g13
g155
sg61
g386
sg390
g104
sg41
g270
ssg17
(dp549
Vcom.tencent.mm
p550
g317
sVcom.android.launcher
p551
g105
ssg19
(dp552
g77
g484
sg171
g231
sg167
g371
sVcom.astrogame.sherman
p553
g272
sVcom.android.launcher
p554
g107
sVcom.tencent.mm
p555
g319
sVcom.tencent.mobileqq
p556
g407
ssg21
(dp557
Vcom.tencent.mobileqq
p558
g408
sVcom.astrogame.sherman
p559
g281
sVcom.android.launcher
p560
g108
ssg23
(dp561
g341
g468
sg446
g409
sVcom.android.launcher
p562
g109
ssg25
(dp563
g27
g199
sVcom.tencent.mm
p564
g322
sVcom.android.launcher
p565
g110
ssg27
(dp566
g564
g323
sVcom.android.launcher
p567
g111
ssg29
(dp568
g211
g217
sg47
g309
sg249
g324
sVcom.jingdong.app.mall
p569
g245
sVcom.android.launcher
p570
g112
ssg31
(dp571
Vcom.tencent.mobileqq
p572
g410
sg414
g286
sVcom.android.launcher
p573
g113
sVcom.icbc
p574
g310
sVcom.mymoney
p575
g212
sVcom.kingreader.framework
p576
g400
ssg33
(dp577
g59
g377
sg11
g114
ssg35
(dp578
g69
g454
sVcom.tencent.mobileqq
p579
g411
sVcom.UCMobile
p580
g172
sVcom.android.launcher
p581
g115
sVcom.tencent.mm
p582
g325
sg85
g522
sVtv.danmaku.bili
p583
g352
ssg37
(dp584
g249
g327
sVcom.meizu.notepaper
p585
g437
sg29
g204
sVcom.tencent.mobileqq
p586
g412
sVcom.android.launcher
p587
g116
ssg39
(dp588
g254
g439
sVcom.tencent.mobileqq
p589
g413
sVcom.kingreader.framework
p590
g388
sVcom.android.launcher
p591
g117
ssg41
(dp592
g240
g356
sg65
g441
sg402
g98
sg572
g415
sg79
g496
sg146
g506
sg61
g389
sVcom.android.launcher
p593
g118
sg279
g295
sVcom.tencent.mm
p594
g329
sg31
g219
ssg43
(dp595
g332
g416
sg430
g488
sg134
g330
sVcom.astrogame.sherman
p596
g280
sg320
g119
ssg45
(dp597
Vcom.tencent.mobileqq
p598
g417
sVcom.kingreader.framework
p599
g395
sVcom.android.launcher
p600
g120
sg25
g194
sg27
g196
sVcom.tencent.mm
p601
g331
ssg47
(dp602
g308
g208
sVcom.android.launcher
p603
g121
ssg49
(dp604
Vcom.meizu.notepaper
p605
g444
sg67
g449
sVcom.astrogame.sherman
p606
g269
sg73
g469
sg171
g237
sg173
g489
sVcom.jingdong.app.mall
p607
g250
sg106
g183
sg79
g494
sVcom.baidu.tieba
p608
g503
sVcom.kingreader.framework
p609
g385
sg462
g135
sg542
g299
sVcom.mymoney
p610
g210
sg282
g516
sg63
g422
sVcom.tencent.qt.qtl
p611
g472
sVtv.danmaku.bili
p612
g354
sg87
g526
ssg51
(dp613
Vcom.tencent.mobileqq
p614
g420
sVcom.android.packageinstaller
p615
g241
sVcom.tencent.mm
p616
g335
sVcom.android.launcher
p617
g124
ssg53
(dp618
Vcom.tencent.mobileqq
p619
g421
sVcom.astrogame.sherman
p620
g265
sVcom.android.launcher
p621
g125
ssg55
(dp622
Vcom.android.deskclock
p623
g165
sg209
g347
sg610
g213
sVcom.jingdong.app.mall
p624
g248
sVcom.android.launcher
p625
g126
ssg57
(dp626
Vcom.UCMobile
p627
g168
sVcom.tencent.mobileqq
p628
g423
sVcom.android.launcher
p629
g127
ssg59
(dp630
g33
g224
sVcom.android.settings
p631
g466
sVcom.tencent.mm
p632
g337
sVcom.tencent.mobileqq
p633
g424
sg11
g128
ssg61
(dp634
g13
g151
sg545
g339
sg543
g476
sg387
g259
sg138
g500
sVcom.baidu.tieba
p635
g513
sVcom.astrogame.sherman
p636
g276
sg593
g129
sVcom.android.settings
p637
g467
sVcom.meizu.media.gallery
p638
g304
sVcom.tencent.mobileqq
p639
g426
ssg63
(dp640
g8
g96
sVcom.android.launcher
p641
g123
sg480
g149
sg316
g161
sg406
g170
sVcom.blizzard.wtcg.hearthstone
p642
g189
sg216
g202
sg211
g215
sg615
g229
sg37
g252
sg39
g257
sVcom.astrogame.sherman
p643
g285
sVcom.android.phone
p644
g289
sg45
g302
sg87
g528
sg612
g350
sg53
g361
sg134
g333
sg167
g373
sVcom.kingreader.framework
p645
g398
sg65
g436
sg67
g447
sg73
g464
sg75
g474
sg343
g482
sVcom.qzone
p646
g492
sVcom.baidu.tieba
p647
g511
sg282
g518
sg55
g366
ssg65
(dp648
Vcom.tencent.mobileqq
p649
g427
sVcom.jingdong.app.mall
p650
g244
sVcom.taobao.taobao
p651
g255
sVcom.astrogame.sherman
p652
g264
sVcom.android.launcher
p653
g130
sVcom.tencent.mm
p654
g340
ssg67
(dp655
Vcom.android.launcher
p656
g131
ssg69
(dp657
g453
g227
sVcom.android.launcher
p658
g132
ssg71
(dp659
Vcom.android.launcher
p660
g133
ssg73
(dp661
g336
g379
sg448
g342
sVcom.UCMobile
p662
g181
sg176
g509
sVcom.kingreader.framework
p663
g393
sg641
g141
sg446
g428
ssg75
(dp664
Vcom.tencent.mobileqq
p665
g429
sVcom.baidu.tieba
p666
g504
sg430
g483
sVcom.android.launcher
p667
g136
sVcom.android.phone
p668
g291
ssg77
(dp669
g106
g174
sVcom.tencent.mobileqq
p670
g431
sg298
g344
sg554
g137
sg542
g293
ssg79
(dp671
Vcom.tencent.mobileqq
p672
g432
sVcom.android.launcher
p673
g139
ssg81
(dp674
g226
g455
sg480
g147
sVcom.tencent.mobileqq
p675
g433
sg453
g233
sg662
g177
sVcom.astrogame.sherman
p676
g274
sVcom.android.launcher
p677
g140
sVcom.tencent.mm
p678
g345
ssg83
(dp679
g636
g283
sVcom.android.launcher
p680
g142
sg275
g396
ssg85
(dp681
g318
g185
sg35
g239
sVcom.tencent.mm
p682
g346
sg581
g143
ssg87
(dp683
Vcom.tencent.mobileqq
p684
g418
sVcom.android.launcher
p685
g144
sssb.