ccopy_reg
_reconstructor
p1
(cnetworkx.classes.digraph
DiGraph
p2
c__builtin__
object
p3
NtRp4
(dp5
S'node'
p6
(dp7
Vcom.android.browser
p8
(dp9
S'weight'
p10
F0.010520307314131571
ssVcom.tencent.game.rhythmmaster
p11
(dp12
g10
F0.00091651053918071043
ssVcom.tencent.android.qqdownloader
p13
(dp14
g10
F0.00058829757361775388
ssVcom.autonavi.minimap
p15
(dp16
g10
F0.00099890902562638955
ssVcom.qiyi.video
p17
(dp18
g10
F2.4397317215759747e-05
ssVcom.tencent.tmgp.carrot2
p19
(dp20
g10
F0.016809291234918543
ssVcom.chinamworld.bocmbci
p21
(dp22
g10
F0.00021451226080271778
ssVcom.snda.wifilocating
p23
(dp24
g10
F0.00021865520146199772
ssVcom.tencent.qqpim
p25
(dp26
g10
F9.0224041024319055e-05
ssVcom.android.launcher
p27
(dp28
g10
F0.60008746208058483
ssVcom.storm.smart
p29
(dp30
g10
F0.0069228538416568081
ssVcom.android.contacts
p31
(dp32
g10
F0.02481483356886718
ssVcom.anzogame.game
p33
(dp34
g10
F0.002682784240253732
ssVcom.tencent.gamejoy
p35
(dp36
g10
F0.0013832818534595856
ssVcom.android.packageinstaller
p37
(dp38
g10
F0.0034372597669826044
ssVcom.android.gallery3d
p39
(dp40
g10
F0.00076644402196679202
ssVcom.android.mms
p41
(dp42
g10
F0.00067023573332351306
ssVcom.meizu.mzsnssyncservice
p43
(dp44
g10
F0.0027812941625966112
ssVcom.taobao.taobao
p45
(dp46
g10
F0.0045351390416917929
ssVcom.android.phone
p47
(dp48
g10
F0.011635218678217799
ssVcom.tencent.mtt
p49
(dp50
g10
F0.00068220422856143286
ssVcom.tencent.mobileqq
p51
(dp52
g10
F0.095718040665264209
ssVcom.android.calculator2
p53
(dp54
g10
F0.00049024797801479488
ssVcom.meizu.theme
p55
(dp56
g10
F1.8873396336719805e-05
ssVcom.meizu.mstore
p57
(dp58
g10
F0.00037608694651463607
ssVcom.tencent.mm
p59
(dp60
g10
F0.012044449150006674
ssVcom.meizu.filemanager
p61
(dp62
g10
F0.00057632907837983397
ssVcom.baidu.input
p63
(dp64
g10
F0.00057586875163991404
ssVcom.android.soundrecorder
p65
(dp66
g10
F3.2222871794399665e-06
ssVcom.tencent.token
p67
(dp68
g10
F0.0054732849376487435
ssVcom.happyelements.AndroidAnimal.qq
p69
(dp70
g10
F0.0022882842241422961
ssVcom.tencent.qqlive
p71
(dp72
g10
F0.024540939158614786
ssVcom.android.email
p73
(dp74
g10
F3.2222871794399665e-06
ssVcom.chaozh.iReaderFree
p75
(dp76
g10
F0.092682646142231762
ssVcom.android.alarmclock
p77
(dp78
g10
F0.0059128969742723381
ssVcom.meizu.media.video
p79
(dp80
g10
F0.0086891275427298294
ssVcom.meizu.notepaper
p81
(dp82
g10
F3.1762545054479671e-05
ssVcom.meizu.cloud
p83
(dp84
g10
F1.7952742856879814e-05
ssVcom.meizu.usetips
p85
(dp86
g10
F0.00011001809084087886
ssVcom.android.calendar
p87
(dp88
g10
F0.0022127906387954168
ssVcom.android.settings
p89
(dp90
g10
F0.0015038874593186243
ssVcom.tencent.pao
p91
(dp92
g10
F0.043714468529762428
ssVcom.qidian.QDReader
p93
(dp94
g10
F0.00039496034285135589
ssVcom.yuedong.sport
p95
(dp96
g10
F0.0097400534899671782
ssVcom.ss.android.essay.joke
p97
(dp98
g10
F0.0013188361098707862
ssVcom.tencent.qqpimsecure
p99
(dp100
g10
F0.00071626840731551253
ssVcom.meizu.media.music
p101
(dp102
g10
F9.2065347983999045e-07
ssVcom.alex.lookwifipassword
p103
(dp104
g10
F1.9333723076639799e-05
ssVcom.sohu.sohuvideo
p105
(dp106
g10
F4.5112020512159528e-05
sssS'graph'
p107
(dp108
sS'succ'
p109
(dp110
g8
(dp111
Vcom.android.alarmclock
p112
(dp113
g10
F2.2999999999999998
ssVcom.tencent.gamejoy
p114
(dp115
g10
F0.69999999999999996
ssVcom.tencent.mm
p116
(dp117
g10
F3.3999999999999999
ssVcom.android.settings
p118
(dp119
g10
F4.5
ssVcom.android.packageinstaller
p120
(dp121
g10
F5.6999999999999993
ssVcom.tencent.pao
p122
(dp123
g10
F3.9999999999999996
ssVcom.android.gallery3d
p124
(dp125
g10
F0.90000000000000002
ssVcom.taobao.taobao
p126
(dp127
g10
F1.3
ssg105
(dp128
g10
F1.3
ssVcom.tencent.qqpimsecure
p129
(dp130
g10
F1.8
ssVcom.android.phone
p131
(dp132
g10
F1.7
ssVcom.android.launcher
p133
(dp134
g10
F62.200000000000024
ssVcom.autonavi.minimap
p135
(dp136
g10
F3.1999999999999997
ssVcom.storm.smart
p137
(dp138
g10
F0.90000000000000002
ssg103
(dp139
g10
F1.3
ssVcom.tencent.mobileqq
p140
(dp141
g10
F27.499999999999986
ssVcom.android.contacts
p142
(dp143
g10
F4.7999999999999998
ssVcom.chaozh.iReaderFree
p144
(dp145
g10
F4.2999999999999998
ssVcom.android.calculator2
p146
(dp147
g10
F0.90000000000000002
sssg11
(dp148
Vcom.android.launcher
p149
(dp150
g10
F10.800000000000001
ssVcom.tencent.pao
p151
(dp152
g10
F1.3
ssVcom.happyelements.AndroidAnimal.qq
p153
(dp154
g10
F1.3
ssVcom.tencent.qqlive
p155
(dp156
g10
F1.3
ssVcom.tencent.mobileqq
p157
(dp158
g10
F10.700000000000001
ssVcom.chaozh.iReaderFree
p159
(dp160
g10
F0.69999999999999996
sssg13
(dp161
Vcom.tencent.game.rhythmmaster
p162
(dp163
g10
F1.3
ssVcom.tencent.qqlive
p164
(dp165
g10
F1.3
ssVcom.tencent.gamejoy
p166
(dp167
g10
F2.2000000000000002
ssVcom.android.settings
p168
(dp169
g10
F0.90000000000000002
ssVcom.android.packageinstaller
p170
(dp171
g10
F15.899999999999999
ssVcom.tencent.pao
p172
(dp173
g10
F1.8999999999999999
ssg67
(dp174
g10
F1.7000000000000002
ssVcom.android.launcher
p175
(dp176
g10
F16.799999999999997
ssVcom.android.phone
p177
(dp178
g10
F0.69999999999999996
ssVcom.storm.smart
p179
(dp180
g10
F0.40000000000000002
ssVcom.tencent.mobileqq
p181
(dp182
g10
F7.0000000000000009
ssVcom.android.contacts
p183
(dp184
g10
F0.90000000000000002
ssVcom.chaozh.iReaderFree
p185
(dp186
g10
F0.40000000000000002
sssg15
(dp187
Vcom.android.browser
p188
(dp189
g10
F1.3999999999999999
ssVcom.android.packageinstaller
p190
(dp191
g10
F1.3
ssVcom.yuedong.sport
p192
(dp193
g10
F2.7000000000000002
ssg23
(dp194
g10
F0.90000000000000002
ssVcom.android.launcher
p195
(dp196
g10
F5.3000000000000007
ssVcom.storm.smart
p197
(dp198
g10
F0.90000000000000002
ssVcom.tencent.mm
p199
(dp200
g10
F0.69999999999999996
sssg17
(dp201
Vcom.tencent.qqpimsecure
p202
(dp203
g10
F0.90000000000000002
ssVcom.android.browser
p204
(dp205
g10
F0.40000000000000002
ssVcom.android.launcher
p206
(dp207
g10
F1.7
sssg19
(dp208
Vcom.android.browser
p209
(dp210
g10
F0.69999999999999996
ssVcom.android.settings
p211
(dp212
g10
F0.90000000000000002
ssVcom.taobao.taobao
p213
(dp214
g10
F0.90000000000000002
ssVcom.android.launcher
p215
(dp216
g10
F17.399999999999999
ssVcom.android.phone
p217
(dp218
g10
I3
ssVcom.tencent.mobileqq
p219
(dp220
g10
F1.8999999999999999
ssVcom.android.contacts
p221
(dp222
g10
F1.8
ssVcom.android.alarmclock
p223
(dp224
g10
I1
sssg21
(dp225
Vcom.anzogame.game
p226
(dp227
g10
F1.3
ssVcom.tencent.mobileqq
p228
(dp229
g10
F0.69999999999999996
ssVcom.taobao.taobao
p230
(dp231
g10
F0.90000000000000002
ssVcom.android.launcher
p232
(dp233
g10
F5.7000000000000002
sssg23
(dp234
g188
(dp235
g10
F2.2000000000000002
ssg135
(dp236
g10
F0.40000000000000002
ssVcom.android.packageinstaller
p237
(dp238
g10
F0.69999999999999996
ssVcom.tencent.pao
p239
(dp240
g10
F1.6000000000000001
ssVcom.android.launcher
p241
(dp242
g10
F8.4000000000000004
ssVcom.tencent.mobileqq
p243
(dp244
g10
F2.2000000000000002
sssg25
(dp245
Vcom.tencent.qqpimsecure
p246
(dp247
g10
F1.3
ssVcom.tencent.mobileqq
p248
(dp249
g10
I1
ssVcom.android.launcher
p250
(dp251
g10
F1.7
sssg27
(dp252
g8
(dp253
g10
F74.000000000000057
ssg11
(dp254
g10
F14.599999999999998
ssg15
(dp255
g10
F15.5
ssg19
(dp256
g10
F36
ssg21
(dp257
g10
F6.1000000000000005
ssg23
(dp258
g10
F10.100000000000001
ssg67
(dp259
g10
F26.699999999999992
ssg13
(dp260
g10
F19.499999999999996
ssg29
(dp261
g10
F31.699999999999992
ssVcom.android.contacts
p262
(dp263
g10
F150.20000000000002
ssg33
(dp264
g10
F10.799999999999999
ssg35
(dp265
g10
F15.499999999999996
ssg37
(dp266
g10
F17.200000000000003
ssg39
(dp267
g10
F36.799999999999997
ssg41
(dp268
g10
F12.4
ssg43
(dp269
g10
F16.299999999999997
ssg45
(dp270
g10
F21.79999999999999
ssVcom.android.phone
p271
(dp272
g10
F111.10000000000007
ssg49
(dp273
g10
F4.7999999999999998
ssg51
(dp274
g10
F307.4999999999996
ssVcom.android.calculator2
p275
(dp276
g10
F11.100000000000001
ssg55
(dp277
g10
F2.6000000000000001
ssg57
(dp278
g10
F5.1000000000000005
ssg59
(dp279
g10
F83.400000000000034
ssg61
(dp280
g10
F44.800000000000004
ssg63
(dp281
g10
F7.4000000000000004
ssg65
(dp282
g10
F1.7
ssg69
(dp283
g10
F20.499999999999996
ssg71
(dp284
g10
F79.000000000000014
ssg73
(dp285
g10
I2
ssg75
(dp286
g10
F156.60000000000002
ssg77
(dp287
g10
F117.60000000000002
ssg79
(dp288
g10
F27.199999999999989
ssg81
(dp289
g10
F6.1000000000000005
ssg83
(dp290
g10
F0.69999999999999996
ssg87
(dp291
g10
F9.7000000000000011
ssVcom.android.settings
p292
(dp293
g10
F61.800000000000004
ssVcom.tencent.pao
p294
(dp295
g10
F199.20000000000019
ssg93
(dp296
g10
F2.7000000000000002
ssg95
(dp297
g10
F37.5
ssg97
(dp298
g10
I3
ssg99
(dp299
g10
F39.29999999999999
ssg101
(dp300
g10
I1
ssg103
(dp301
g10
I1
ssg105
(dp302
g10
I1
sssg29
(dp303
Vcom.android.browser
p304
(dp305
g10
F1.3
ssVcom.android.launcher
p306
(dp307
g10
F23.599999999999998
ssVcom.autonavi.minimap
p308
(dp309
g10
F0.90000000000000002
ssVcom.tencent.pao
p310
(dp311
g10
F0.40000000000000002
ssVcom.tencent.token
p312
(dp313
g10
F2.2999999999999998
ssVcom.tencent.qqlive
p314
(dp315
g10
F4.0999999999999996
ssVcom.android.settings
p316
(dp317
g10
F0.90000000000000002
ssVcom.tencent.qqpimsecure
p318
(dp319
g10
F0.90000000000000002
ssVcom.android.contacts
p320
(dp321
g10
I1
ssVcom.chaozh.iReaderFree
p322
(dp323
g10
F2.2000000000000002
ssVcom.android.alarmclock
p324
(dp325
g10
F1.8
sssg31
(dp326
Vcom.android.browser
p327
(dp328
g10
F1.8999999999999999
ssVcom.tencent.game.rhythmmaster
p329
(dp330
g10
F0.40000000000000002
ssVcom.autonavi.minimap
p331
(dp332
g10
F2.5
ssVcom.tencent.tmgp.carrot2
p333
(dp334
g10
F1.8
ssVcom.snda.wifilocating
p335
(dp336
g10
F0.90000000000000002
ssVcom.taobao.taobao
p337
(dp338
g10
F1.3
ssVcom.android.launcher
p339
(dp340
g10
F75.30000000000004
ssVcom.storm.smart
p341
(dp342
g10
I1
ssVcom.tencent.gamejoy
p343
(dp344
g10
F0.90000000000000002
ssVcom.android.gallery3d
p345
(dp346
g10
F0.90000000000000002
ssVcom.android.mms
p347
(dp348
g10
F4.5999999999999996
ssg43
(dp349
g10
F5.5
ssg47
(dp350
g10
F55.200000000000017
ssVcom.tencent.mm
p351
(dp352
g10
F3.6999999999999997
ssVcom.tencent.pao
p353
(dp354
g10
F8.9000000000000021
ssVcom.chaozh.iReaderFree
p355
(dp356
g10
F1.3
ssVcom.tencent.mobileqq
p357
(dp358
g10
F7.4000000000000012
ssg55
(dp359
g10
F0.40000000000000002
ssVcom.qidian.QDReader
p360
(dp361
g10
F0.90000000000000002
ssg95
(dp362
g10
F1.3
ssVcom.ss.android.essay.joke
p363
(dp364
g10
F0.90000000000000002
ssVcom.android.settings
p365
(dp366
g10
F3.9999999999999996
ssVcom.tencent.qqpimsecure
p367
(dp368
g10
F0.69999999999999996
sssg33
(dp369
Vcom.tencent.mobileqq
p370
(dp371
g10
F5.5
ssVcom.android.packageinstaller
p372
(dp373
g10
I1
ssVcom.chinamworld.bocmbci
p374
(dp375
g10
F0.69999999999999996
ssVcom.android.launcher
p376
(dp377
g10
F7.2000000000000011
ssg59
(dp378
g10
F0.40000000000000002
ssVcom.android.alarmclock
p379
(dp380
g10
F2.6000000000000001
sssg35
(dp381
Vcom.android.launcher
p382
(dp383
g10
F11.4
ssVcom.tencent.mm
p384
(dp385
g10
F2.6000000000000001
ssVcom.tencent.pao
p386
(dp387
g10
F3.2999999999999998
ssVcom.tencent.android.qqdownloader
p388
(dp389
g10
F1.7
ssVcom.tencent.mtt
p390
(dp391
g10
F1.3
ssVcom.tencent.mobileqq
p392
(dp393
g10
F9.5
ssg185
(dp394
g10
F0.90000000000000002
sssg37
(dp395
Vcom.android.browser
p396
(dp397
g10
I2
ssg11
(dp398
g10
F2
ssVcom.android.launcher
p399
(dp400
g10
F19.399999999999999
ssVcom.autonavi.minimap
p401
(dp402
g10
F1.7
ssg374
(dp403
g10
F0.90000000000000002
ssVcom.tencent.android.qqdownloader
p404
(dp405
g10
F13.999999999999998
ssg226
(dp406
g10
F0.40000000000000002
ssg166
(dp407
g10
F2.0999999999999996
ssg67
(dp408
g10
I1
ssg49
(dp409
g10
F0.40000000000000002
ssVcom.tencent.mm
p410
(dp411
g10
F1.1000000000000001
ssg103
(dp412
g10
F0.69999999999999996
ssVcom.happyelements.AndroidAnimal.qq
p413
(dp414
g10
F1.3
ssg164
(dp415
g10
F1.6000000000000001
ssg157
(dp416
g10
F7.8000000000000007
ssg118
(dp417
g10
F1.8999999999999999
ssVcom.tencent.pao
p418
(dp419
g10
F0.69999999999999996
ssg93
(dp420
g10
F0.40000000000000002
ssVcom.yuedong.sport
p421
(dp422
g10
F2.2999999999999998
ssg97
(dp423
g10
F0.40000000000000002
ssVcom.tencent.qqpimsecure
p424
(dp425
g10
I1
ssg105
(dp426
g10
F0.69999999999999996
sssg39
(dp427
Vcom.meizu.mstore
p428
(dp429
g10
F0.90000000000000002
ssVcom.android.calendar
p430
(dp431
g10
F2.8999999999999999
ssVcom.yuedong.sport
p432
(dp433
g10
F0.90000000000000002
ssVcom.meizu.filemanager
p434
(dp435
g10
F2.2999999999999998
ssVcom.android.launcher
p436
(dp437
g10
F15.300000000000001
ssVcom.android.phone
p438
(dp439
g10
F0.90000000000000002
ssVcom.storm.smart
p440
(dp441
g10
F0.90000000000000002
ssVcom.tencent.mobileqq
p442
(dp443
g10
F4.7000000000000002
ssVcom.android.contacts
p444
(dp445
g10
F1.6000000000000001
sssg41
(dp446
Vcom.android.browser
p447
(dp448
g10
F0.90000000000000002
ssVcom.android.settings
p449
(dp450
g10
F0.40000000000000002
ssVcom.tencent.mm
p451
(dp452
g10
F1.3
ssg95
(dp453
g10
F1.7
ssVcom.autonavi.minimap
p454
(dp455
g10
F0.40000000000000002
ssVcom.android.launcher
p456
(dp457
g10
F16.600000000000001
ssVcom.android.phone
p458
(dp459
g10
F1.3999999999999999
ssVcom.tencent.qqpimsecure
p460
(dp461
g10
F1.3
ssVcom.tencent.mobileqq
p462
(dp463
g10
F3.7999999999999998
ssVcom.android.contacts
p464
(dp465
g10
F7.5000000000000009
ssVcom.android.calculator2
p466
(dp467
g10
I1
sssg43
(dp468
Vcom.autonavi.minimap
p469
(dp470
g10
F0.90000000000000002
ssVcom.android.mms
p471
(dp472
g10
F1.7
ssVcom.tencent.token
p473
(dp474
g10
F0.40000000000000002
ssVcom.android.launcher
p475
(dp476
g10
F6.1000000000000005
ssVcom.android.phone
p477
(dp478
g10
F0.90000000000000002
ssVcom.tencent.mobileqq
p479
(dp480
g10
F1.8
ssVcom.android.contacts
p481
(dp482
g10
F4.5
ssVcom.chaozh.iReaderFree
p483
(dp484
g10
F0.90000000000000002
ssVcom.android.alarmclock
p485
(dp486
g10
I1
sssg45
(dp487
Vcom.android.browser
p488
(dp489
g10
F5.0999999999999996
ssVcom.tencent.android.qqdownloader
p490
(dp491
g10
F0.69999999999999996
ssVcom.tencent.mobileqq
p492
(dp493
g10
F2.2999999999999998
ssVcom.yuedong.sport
p494
(dp495
g10
I2
ssVcom.baidu.input
p496
(dp497
g10
I1
ssVcom.chinamworld.bocmbci
p498
(dp499
g10
F0.90000000000000002
ssVcom.android.launcher
p500
(dp501
g10
F19.599999999999998
ssVcom.tencent.qqpimsecure
p502
(dp503
g10
F0.69999999999999996
ssVcom.tencent.mm
p504
(dp505
g10
F0.90000000000000002
ssVcom.android.alarmclock
p506
(dp507
g10
F0.90000000000000002
sssg47
(dp508
Vcom.android.browser
p509
(dp510
g10
F2.8999999999999999
ssg471
(dp511
g10
F3.2000000000000002
ssg333
(dp512
g10
F5.4000000000000004
ssg337
(dp513
g10
F0.69999999999999996
ssVcom.android.launcher
p514
(dp515
g10
F85.700000000000074
ssg341
(dp516
g10
F0.90000000000000002
ssVcom.android.contacts
p517
(dp518
g10
F147.40000000000006
ssVcom.android.gallery3d
p519
(dp520
g10
F3.5999999999999996
ssg43
(dp521
g10
F11.899999999999999
ssVcom.autonavi.minimap
p522
(dp523
g10
F2.0999999999999996
ssVcom.tencent.mm
p524
(dp525
g10
F3.0999999999999996
ssVcom.meizu.filemanager
p526
(dp527
g10
F2.5999999999999996
ssVcom.tencent.token
p528
(dp529
g10
I2
ssVcom.happyelements.AndroidAnimal.qq
p530
(dp531
g10
F1.8999999999999999
ssVcom.tencent.qqlive
p532
(dp533
g10
F3.7000000000000002
ssVcom.chaozh.iReaderFree
p534
(dp535
g10
F9.5
ssVcom.android.alarmclock
p536
(dp537
g10
F1.6000000000000001
ssVcom.meizu.media.video
p538
(dp539
g10
F1.8999999999999999
ssg357
(dp540
g10
F26.499999999999993
ssVcom.tencent.pao
p541
(dp542
g10
F16.800000000000001
ssg360
(dp543
g10
F0.69999999999999996
ssVcom.yuedong.sport
p544
(dp545
g10
I2
ssg363
(dp546
g10
F0.69999999999999996
ssg365
(dp547
g10
F2.5
ssVcom.tencent.qqpimsecure
p548
(dp549
g10
F1.3
sssg49
(dp550
Vcom.tencent.mm
p551
(dp552
g10
F1.3999999999999999
ssVcom.tencent.mobileqq
p553
(dp554
g10
F18.999999999999996
ssVcom.android.launcher
p555
(dp556
g10
F2.2000000000000002
sssg51
(dp557
Vcom.android.browser
p558
(dp559
g10
F19.800000000000001
ssVcom.tencent.game.rhythmmaster
p560
(dp561
g10
F6.7000000000000002
ssVcom.tencent.android.qqdownloader
p562
(dp563
g10
F6.6000000000000005
ssVcom.tencent.tmgp.carrot2
p564
(dp565
g10
F2.7000000000000002
ssVcom.snda.wifilocating
p566
(dp567
g10
F1.8
ssVcom.tencent.qqpim
p568
(dp569
g10
I1
ssVcom.android.launcher
p570
(dp571
g10
F260.2000000000001
ssVcom.android.contacts
p572
(dp573
g10
F12.300000000000001
ssVcom.anzogame.game
p574
(dp575
g10
F1.8999999999999999
ssg35
(dp576
g10
F12.100000000000001
ssVcom.android.packageinstaller
p577
(dp578
g10
F4.7000000000000002
ssVcom.android.gallery3d
p579
(dp580
g10
F11.199999999999999
ssg45
(dp581
g10
F3.7999999999999998
ssg177
(dp582
g10
F19.5
ssg49
(dp583
g10
F16.599999999999998
ssg59
(dp584
g10
F26.099999999999987
ssg55
(dp585
g10
F1.3999999999999999
ssVcom.meizu.mstore
p586
(dp587
g10
F0.80000000000000004
ssVcom.meizu.mzsnssyncservice
p588
(dp589
g10
F2.7999999999999998
ssVcom.meizu.filemanager
p590
(dp591
g10
F5.1000000000000005
ssVcom.tencent.token
p592
(dp593
g10
F24.199999999999996
ssVcom.happyelements.AndroidAnimal.qq
p594
(dp595
g10
F3.3999999999999999
ssg71
(dp596
g10
F17.899999999999999
ssVcom.baidu.input
p597
(dp598
g10
F1.3
ssg75
(dp599
g10
F5.4000000000000004
ssVcom.android.alarmclock
p600
(dp601
g10
F12.800000000000002
ssVcom.meizu.media.video
p602
(dp603
g10
F1.8
ssVcom.android.calendar
p604
(dp605
g10
F0.40000000000000002
ssg365
(dp606
g10
F9.5999999999999996
ssVcom.tencent.pao
p607
(dp608
g10
F125.00000000000011
ssVcom.yuedong.sport
p609
(dp610
g10
F5.9000000000000004
ssg97
(dp611
g10
F0.69999999999999996
ssg99
(dp612
g10
F9.3000000000000007
sssg53
(dp613
Vcom.android.browser
p614
(dp615
g10
F0.90000000000000002
ssVcom.android.launcher
p616
(dp617
g10
F7.7000000000000011
ssVcom.android.packageinstaller
p618
(dp619
g10
F0.69999999999999996
ssVcom.tencent.pao
p620
(dp621
g10
F0.90000000000000002
ssVcom.android.mms
p622
(dp623
g10
F2.2999999999999998
ssVcom.yuedong.sport
p624
(dp625
g10
F2.7000000000000002
ssg69
(dp626
g10
F0.90000000000000002
ssVcom.tencent.android.qqdownloader
p627
(dp628
g10
F1.3
ssg460
(dp629
g10
F0.40000000000000002
sssg55
(dp630
Vcom.android.settings
p631
(dp632
g10
F1.7
ssg586
(dp633
g10
I2
sssg57
(dp634
Vcom.meizu.media.video
p635
(dp636
g10
F0.69999999999999996
ssVcom.meizu.cloud
p637
(dp638
g10
I1
ssVcom.meizu.theme
p639
(dp640
g10
I1
ssg292
(dp641
g10
F1.6000000000000001
ssVcom.android.gallery3d
p642
(dp643
g10
F0.90000000000000002
ssg61
(dp644
g10
F2.6000000000000001
ssVcom.android.launcher
p645
(dp646
g10
F2.7000000000000002
sssg59
(dp647
Vcom.android.browser
p648
(dp649
g10
F3.7999999999999998
ssVcom.meizu.notepaper
p650
(dp651
g10
F0.90000000000000002
ssVcom.android.mms
p652
(dp653
g10
F0.90000000000000002
ssVcom.tencent.qqlive
p654
(dp655
g10
F0.69999999999999996
ssVcom.android.settings
p656
(dp657
g10
F2.7000000000000002
ssg386
(dp658
g10
F15.199999999999999
ssg39
(dp659
g10
F2.7000000000000002
ssVcom.meizu.filemanager
p660
(dp661
g10
F0.90000000000000002
ssVcom.tencent.token
p662
(dp663
g10
F0.90000000000000002
ssg63
(dp664
g10
F2.6000000000000001
ssg440
(dp665
g10
F0.40000000000000002
ssVcom.android.launcher
p666
(dp667
g10
F52.799999999999997
ssVcom.tencent.qqpimsecure
p668
(dp669
g10
F2.5999999999999996
ssVcom.tencent.mobileqq
p670
(dp671
g10
F21.299999999999994
ssVcom.android.contacts
p672
(dp673
g10
F2.2999999999999998
ssg75
(dp674
g10
F0.90000000000000002
sssg61
(dp675
Vcom.android.browser
p676
(dp677
g10
I1
ssg81
(dp678
g10
F0.90000000000000002
ssg83
(dp679
g10
F5.1000000000000005
ssVcom.meizu.mstore
p680
(dp681
g10
F1.3
ssg79
(dp682
g10
F19.899999999999999
ssg292
(dp683
g10
I10
ssg39
(dp684
g10
F2.8999999999999999
ssVcom.yuedong.sport
p685
(dp686
g10
F1.7
ssVcom.android.launcher
p687
(dp688
g10
F14.200000000000001
ssVcom.android.email
p689
(dp690
g10
F0.90000000000000002
ssVcom.tencent.mm
p691
(dp692
g10
F0.40000000000000002
ssVcom.tencent.mobileqq
p693
(dp694
g10
F2.3999999999999999
sssg63
(dp695
Vcom.tencent.mobileqq
p696
(dp697
g10
F1.3
ssVcom.taobao.taobao
p698
(dp699
g10
F1.7
ssVcom.android.launcher
p700
(dp701
g10
F2.8999999999999999
sssg65
(dp702
Vcom.android.browser
p703
(dp704
g10
F0.90000000000000002
ssVcom.android.launcher
p705
(dp706
g10
F1.7
ssVcom.android.settings
p707
(dp708
g10
F0.40000000000000002
sssg67
(dp709
Vcom.tencent.qqlive
p710
(dp711
g10
F2.3999999999999999
ssVcom.tencent.android.qqdownloader
p712
(dp713
g10
I2
ssg166
(dp714
g10
F0.69999999999999996
ssg168
(dp715
g10
F0.69999999999999996
ssVcom.android.packageinstaller
p716
(dp717
g10
F0.90000000000000002
ssVcom.tencent.pao
p718
(dp719
g10
F0.69999999999999996
ssVcom.android.gallery3d
p720
(dp721
g10
F4
ssVcom.yuedong.sport
p722
(dp723
g10
I1
ssVcom.taobao.taobao
p724
(dp725
g10
F0.69999999999999996
ssVcom.android.contacts
p726
(dp727
g10
F0.40000000000000002
ssVcom.android.launcher
p728
(dp729
g10
F16.600000000000001
ssVcom.android.phone
p730
(dp731
g10
I1
ssVcom.storm.smart
p732
(dp733
g10
F3.7000000000000002
ssg597
(dp734
g10
F0.69999999999999996
ssVcom.tencent.mobileqq
p735
(dp736
g10
F19.299999999999997
ssVcom.android.mms
p737
(dp738
g10
F0.90000000000000002
sssg69
(dp739
g577
(dp740
g10
F1.7
ssVcom.tencent.pao
p741
(dp742
g10
F1.3
ssVcom.tencent.mobileqq
p743
(dp744
g10
F4.0999999999999996
ssVcom.chaozh.iReaderFree
p745
(dp746
g10
F1.3
ssVcom.android.launcher
p747
(dp748
g10
F5.7000000000000002
sssg71
(dp749
g304
(dp750
g10
F0.69999999999999996
ssg83
(dp751
g10
F0.40000000000000002
ssg97
(dp752
g10
F0.90000000000000002
ssVcom.tencent.android.qqdownloader
p753
(dp754
g10
F0.90000000000000002
ssVcom.meizu.media.video
p755
(dp756
g10
F2.7000000000000002
ssVcom.android.settings
p757
(dp758
g10
F1.8
ssVcom.android.packageinstaller
p759
(dp760
g10
F0.69999999999999996
ssVcom.tencent.pao
p761
(dp762
g10
F2.7999999999999998
ssVcom.android.gallery3d
p763
(dp764
g10
F0.90000000000000002
ssVcom.meizu.filemanager
p765
(dp766
g10
F5.7000000000000002
ssg67
(dp767
g10
F3.3999999999999999
ssVcom.yuedong.sport
p768
(dp769
g10
F0.90000000000000002
ssg318
(dp770
g10
F0.40000000000000002
ssVcom.taobao.taobao
p771
(dp772
g10
F0.90000000000000002
ssVcom.android.launcher
p773
(dp774
g10
F57.90000000000002
ssVcom.android.phone
p775
(dp776
g10
I1
ssg29
(dp777
g10
F8.5000000000000018
ssVcom.tencent.mobileqq
p778
(dp779
g10
F12
ssVcom.android.contacts
p780
(dp781
g10
F2.7000000000000002
ssVcom.chaozh.iReaderFree
p782
(dp783
g10
F1.3
ssVcom.android.alarmclock
p784
(dp785
g10
F4.2999999999999998
sssg73
(dp786
Vcom.chaozh.iReaderFree
p787
(dp788
g10
F0.90000000000000002
ssVcom.android.launcher
p789
(dp790
g10
I2
sssg75
(dp791
Vcom.android.browser
p792
(dp793
g10
F1.8
ssVcom.android.gallery3d
p794
(dp795
g10
F1.3
ssg314
(dp796
g10
F1.6000000000000001
ssVcom.autonavi.minimap
p797
(dp798
g10
F0.90000000000000002
ssg120
(dp799
g10
F0.40000000000000002
ssVcom.tencent.pao
p800
(dp801
g10
F3.7999999999999998
ssVcom.android.mms
p802
(dp803
g10
F0.90000000000000002
ssVcom.meizu.filemanager
p804
(dp805
g10
F2.2000000000000002
ssVcom.tencent.tmgp.carrot2
p806
(dp807
g10
F0.90000000000000002
ssVcom.happyelements.AndroidAnimal.qq
p808
(dp809
g10
F0.90000000000000002
ssVcom.snda.wifilocating
p810
(dp811
g10
F0.90000000000000002
ssVcom.android.launcher
p812
(dp813
g10
F66.40000000000002
ssg271
(dp814
g10
F5.7000000000000002
ssVcom.storm.smart
p815
(dp816
g10
F1.3999999999999999
ssVcom.android.calculator2
p817
(dp818
g10
F0.90000000000000002
ssVcom.tencent.mobileqq
p819
(dp820
g10
F4
ssVcom.android.contacts
p821
(dp822
g10
F5.4000000000000004
ssVcom.android.alarmclock
p823
(dp824
g10
F4.7000000000000002
sssg77
(dp825
Vcom.android.launcher
p826
(dp827
g10
F47.199999999999989
ssVcom.android.settings
p828
(dp829
g10
I1
ssVcom.tencent.mm
p830
(dp831
g10
F1.6000000000000001
ssVcom.tencent.pao
p832
(dp833
g10
F6.7999999999999998
ssVcom.meizu.mzsnssyncservice
p834
(dp835
g10
F3.7000000000000002
ssVcom.tencent.tmgp.carrot2
p836
(dp837
g10
I1
ssVcom.tencent.qqpimsecure
p838
(dp839
g10
F0.69999999999999996
ssVcom.tencent.qqlive
p840
(dp841
g10
F4
ssVcom.android.phone
p842
(dp843
g10
F1.8
ssVcom.storm.smart
p844
(dp845
g10
F0.90000000000000002
ssVcom.tencent.mobileqq
p846
(dp847
g10
F10.700000000000001
ssVcom.android.contacts
p848
(dp849
g10
F1.8999999999999999
ssVcom.chaozh.iReaderFree
p850
(dp851
g10
I6
sssg79
(dp852
g81
(dp853
g10
F0.40000000000000002
ssg83
(dp854
g10
F2.6000000000000001
ssg604
(dp855
g10
F0.90000000000000002
ssVcom.android.settings
p856
(dp857
g10
F1.3
ssVcom.meizu.filemanager
p858
(dp859
g10
F23.799999999999997
ssVcom.meizu.mzsnssyncservice
p860
(dp861
g10
F0.90000000000000002
ssVcom.yuedong.sport
p862
(dp863
g10
F0.90000000000000002
ssVcom.android.launcher
p864
(dp865
g10
F23.599999999999994
ssVcom.android.phone
p866
(dp867
g10
I2
ssg689
(dp868
g10
F0.69999999999999996
ssVcom.tencent.mobileqq
p869
(dp870
g10
F1.7000000000000002
ssVcom.chaozh.iReaderFree
p871
(dp872
g10
F0.90000000000000002
ssVcom.android.alarmclock
p873
(dp874
g10
I1
sssg81
(dp875
Vcom.tencent.mobileqq
p876
(dp877
g10
F0.90000000000000002
ssg691
(dp878
g10
F0.90000000000000002
ssVcom.android.launcher
p879
(dp880
g10
I3
sssg83
(dp881
Vcom.meizu.media.video
p882
(dp883
g10
F3
ssVcom.meizu.filemanager
p884
(dp885
g10
F4.7000000000000002
ssg680
(dp886
g10
F1.7
sssg85
(dp887
Vcom.android.settings
p888
(dp889
g10
F0.90000000000000002
ssVcom.android.launcher
p890
(dp891
g10
F1.7
ssVcom.android.browser
p892
(dp893
g10
F0.40000000000000002
sssg87
(dp894
g869
(dp895
g10
F0.90000000000000002
ssVcom.android.gallery3d
p896
(dp897
g10
F7.0000000000000009
ssVcom.android.launcher
p898
(dp899
g10
F2.8999999999999999
sssg89
(dp900
g79
(dp901
g10
F6.7000000000000011
ssg329
(dp902
g10
F0.90000000000000002
ssg57
(dp903
g10
F2.7000000000000002
ssg55
(dp904
g10
F2.7000000000000002
ssVcom.android.launcher
p905
(dp906
g10
F36.900000000000006
ssVcom.android.packageinstaller
p907
(dp908
g10
F1.7
ssVcom.tencent.pao
p909
(dp910
g10
F5.5000000000000009
ssg93
(dp911
g10
F0.90000000000000002
ssg61
(dp912
g10
F11.5
ssVcom.tencent.token
p913
(dp914
g10
F0.90000000000000002
ssVcom.baidu.input
p915
(dp916
g10
F0.40000000000000002
ssVcom.android.browser
p917
(dp918
g10
F3.1000000000000001
ssVcom.tencent.mobileqq
p919
(dp920
g10
F6.3000000000000007
ssVcom.tencent.android.qqdownloader
p921
(dp922
g10
F1.8999999999999999
ssVcom.android.phone
p923
(dp924
g10
I1
ssVcom.tencent.qqpimsecure
p925
(dp926
g10
F1.1000000000000001
ssVcom.android.gallery3d
p927
(dp928
g10
F0.90000000000000002
ssVcom.yuedong.sport
p929
(dp930
g10
I3
ssg410
(dp931
g10
F4
ssg262
(dp932
g10
F0.80000000000000004
ssVcom.android.alarmclock
p933
(dp934
g10
F3.1999999999999997
sssg91
(dp935
Vcom.android.browser
p936
(dp937
g10
F5.2000000000000002
ssg11
(dp938
g10
F2.1000000000000001
ssVcom.android.launcher
p939
(dp940
g10
F181.2999999999999
ssVcom.tencent.tmgp.carrot2
p941
(dp942
g10
F0.90000000000000002
ssg771
(dp943
g10
F0.40000000000000002
ssVcom.tencent.android.qqdownloader
p944
(dp945
g10
F4.6999999999999993
ssVcom.android.contacts
p946
(dp947
g10
F5.3000000000000007
ssg33
(dp948
g10
F3.1000000000000001
ssVcom.tencent.gamejoy
p949
(dp950
g10
F0.40000000000000002
ssg37
(dp951
g10
F1.6000000000000001
ssg592
(dp952
g10
F3.1000000000000001
ssVcom.android.phone
p953
(dp954
g10
F2.0999999999999996
ssVcom.tencent.mm
p955
(dp956
g10
F19.100000000000001
ssVcom.android.calculator2
p957
(dp958
g10
F0.90000000000000002
ssVcom.meizu.filemanager
p959
(dp960
g10
F1.7000000000000002
ssVcom.tencent.qqlive
p961
(dp962
g10
F2.7999999999999998
ssVcom.chaozh.iReaderFree
p963
(dp964
g10
F1.2000000000000002
ssVcom.android.alarmclock
p965
(dp966
g10
F9.7000000000000011
ssVcom.meizu.media.video
p967
(dp968
g10
F2.2000000000000002
ssg650
(dp969
g10
F0.40000000000000002
ssg370
(dp970
g10
F86.000000000000043
ssg652
(dp971
g10
F0.40000000000000002
ssVcom.android.settings
p972
(dp973
g10
F4.7000000000000002
ssg99
(dp974
g10
F8.9000000000000021
sssg93
(dp975
g355
(dp976
g10
F0.90000000000000002
ssg262
(dp977
g10
F0.90000000000000002
ssVcom.android.launcher
p978
(dp979
g10
I2
sssg95
(dp980
g676
(dp981
g10
F1.3
ssVcom.tencent.pao
p982
(dp983
g10
F2.9000000000000004
ssVcom.meizu.media.video
p984
(dp985
g10
F0.40000000000000002
ssg449
(dp986
g10
F5.4000000000000004
ssg190
(dp987
g10
F3.0999999999999996
ssg199
(dp988
g10
F0.90000000000000002
ssVcom.android.gallery3d
p989
(dp990
g10
F2.5999999999999996
ssVcom.meizu.filemanager
p991
(dp992
g10
I1
ssVcom.taobao.taobao
p993
(dp994
g10
F0.40000000000000002
ssVcom.android.contacts
p995
(dp996
g10
F0.90000000000000002
ssVcom.tencent.token
p997
(dp998
g10
F0.90000000000000002
ssVcom.android.launcher
p999
(dp1000
g10
F46.799999999999997
ssVcom.autonavi.minimap
p1001
(dp1002
g10
F2.6000000000000001
ssg502
(dp1003
g10
F0.90000000000000002
ssVcom.android.mms
p1004
(dp1005
g10
F0.90000000000000002
ssg73
(dp1006
g10
F0.90000000000000002
ssVcom.tencent.mobileqq
p1007
(dp1008
g10
F6.8000000000000007
ssVcom.android.phone
p1009
(dp1010
g10
I1
ssg787
(dp1011
g10
F0.40000000000000002
ssVcom.android.calculator2
p1012
(dp1013
g10
F2.6999999999999997
sssg97
(dp1014
Vcom.android.settings
p1015
(dp1016
g10
F0.90000000000000002
ssVcom.tencent.pao
p1017
(dp1018
g10
F0.40000000000000002
ssVcom.android.launcher
p1019
(dp1020
g10
F3.7000000000000002
ssVcom.android.phone
p1021
(dp1022
g10
I1
ssVcom.android.contacts
p1023
(dp1024
g10
F0.90000000000000002
ssVcom.android.alarmclock
p1025
(dp1026
g10
F0.90000000000000002
sssg99
(dp1027
Vcom.android.browser
p1028
(dp1029
g10
F2.2000000000000002
ssVcom.anzogame.game
p1030
(dp1031
g10
F0.90000000000000002
ssg35
(dp1032
g10
F2.7000000000000002
ssVcom.android.settings
p1033
(dp1034
g10
F1.3999999999999999
ssVcom.android.packageinstaller
p1035
(dp1036
g10
F1.7
ssVcom.tencent.pao
p1037
(dp1038
g10
F0.40000000000000002
ssVcom.android.gallery3d
p1039
(dp1040
g10
F0.69999999999999996
ssVcom.yuedong.sport
p1041
(dp1042
g10
F0.90000000000000002
ssg993
(dp1043
g10
F1.3
ssg496
(dp1044
g10
F0.69999999999999996
ssVcom.android.launcher
p1045
(dp1046
g10
F25.399999999999991
ssVcom.storm.smart
p1047
(dp1048
g10
F0.90000000000000002
ssVcom.android.alarmclock
p1049
(dp1050
g10
F0.90000000000000002
ssg384
(dp1051
g10
F1.3999999999999999
ssg963
(dp1052
g10
F2.2000000000000002
ssVcom.tencent.mobileqq
p1053
(dp1054
g10
F5.0999999999999996
sssg101
(dp1055
g703
(dp1056
g10
F0.40000000000000002
ssg65
(dp1057
g10
F0.90000000000000002
ssVcom.android.launcher
p1058
(dp1059
g10
F1.7
sssg103
(dp1060
Vcom.android.launcher
p1061
(dp1062
g10
I1
sssg105
(dp1063
Vcom.android.launcher
p1064
(dp1065
g10
I1
ssssS'edge'
p1066
g110
sS'pred'
p1067
(dp1068
g8
(dp1069
Vcom.autonavi.minimap
p1070
g189
sg17
g205
sVcom.tencent.tmgp.carrot2
p1071
g210
sg23
g235
sVcom.android.launcher
p1072
g253
sVcom.storm.smart
p1073
g305
sg85
g893
sg237
g397
sg65
g704
sg126
g489
sVcom.android.contacts
p1074
g328
sVcom.android.phone
p1075
g510
sVcom.tencent.mm
p1076
g649
sg146
g615
sg991
g677
sVcom.tencent.qqlive
p1077
g750
sVcom.chaozh.iReaderFree
p1078
g793
sVcom.tencent.mobileqq
p1079
g559
sVcom.tencent.pao
p1080
g937
sVcom.android.mms
p1081
g448
sVcom.yuedong.sport
p1082
g981
sg707
g918
sVcom.tencent.qqpimsecure
p1083
g1029
sg101
g1056
ssg11
(dp1084
Vcom.tencent.android.qqdownloader
p1085
g163
sVcom.android.settings
p1086
g902
sg37
g398
sVcom.tencent.pao
p1087
g938
sVcom.android.launcher
p1088
g254
sg157
g561
sVcom.android.contacts
p1089
g330
ssg13
(dp1090
Vcom.tencent.qqlive
p1091
g754
sVcom.tencent.gamejoy
p1092
g389
sVcom.android.settings
p1093
g922
sVcom.android.packageinstaller
p1094
g405
sVcom.tencent.pao
p1095
g945
sg67
g713
sVcom.taobao.taobao
p1096
g491
sVcom.android.launcher
p1097
g260
sVcom.tencent.mobileqq
p1098
g563
sVcom.android.calculator2
p1099
g628
ssg15
(dp1100
g188
g136
sg190
g402
sg1081
g455
sg685
g1002
sVcom.meizu.mzsnssyncservice
p1101
g470
sg23
g236
sVcom.android.launcher
p1102
g255
sVcom.android.phone
p1103
g523
sg341
g309
sVcom.android.contacts
p1104
g332
sVcom.chaozh.iReaderFree
p1105
g798
ssg17
(dp1106
sg19
(dp1107
Vcom.tencent.pao
p1108
g942
sVcom.android.launcher
p1109
g256
sVcom.android.phone
p1110
g512
sVcom.tencent.mobileqq
p1111
g565
sVcom.android.contacts
p1112
g334
sVcom.chaozh.iReaderFree
p1113
g807
sg223
g837
ssg21
(dp1114
g574
g375
sg372
g403
sVcom.taobao.taobao
p1115
g499
sVcom.android.launcher
p1116
g257
ssg23
(dp1117
Vcom.chaozh.iReaderFree
p1118
g811
sg1070
g194
sVcom.tencent.mobileqq
p1119
g567
sVcom.android.contacts
p1120
g336
sg195
g258
ssg25
(dp1121
g248
g569
ssg27
(dp1122
g8
g134
sVcom.tencent.game.rhythmmaster
p1123
g150
sg1070
g196
sg17
g207
sVcom.tencent.tmgp.carrot2
p1124
g216
sg21
g233
sg23
g242
sg25
g251
sg13
g176
sVcom.storm.smart
p1125
g307
sVcom.android.contacts
p1126
g340
sg33
g377
sg35
g383
sg37
g400
sVcom.android.gallery3d
p1127
g437
sg622
g457
sg1101
g476
sg45
g501
sVcom.android.phone
p1128
g515
sVcom.tencent.mtt
p1129
g556
sg51
g571
sg53
g617
sg57
g646
sg59
g667
sg660
g688
sg915
g701
sg65
g706
sVcom.tencent.token
p1130
g729
sVcom.happyelements.AndroidAnimal.qq
p1131
g748
sVcom.tencent.qqlive
p1132
g774
sg73
g790
sVcom.chaozh.iReaderFree
p1133
g813
sg823
g827
sVcom.meizu.media.video
p1134
g865
sg81
g880
sg85
g891
sVcom.android.calendar
p1135
g899
sg89
g906
sg91
g940
sg93
g979
sVcom.yuedong.sport
p1136
g1000
sVcom.ss.android.essay.joke
p1137
g1020
sg99
g1046
sg101
g1059
sg103
g1062
sg105
g1065
ssg29
(dp1138
g304
g138
sVcom.android.launcher
p1139
g261
sg308
g198
sVcom.tencent.android.qqdownloader
p1140
g180
sVcom.android.gallery3d
p1141
g441
sg312
g733
sVcom.tencent.qqlive
p1142
g777
sVcom.android.phone
p1143
g516
sg318
g1048
sVcom.tencent.mm
p1144
g665
sVcom.android.contacts
p1145
g342
sVcom.chaozh.iReaderFree
p1146
g816
sVcom.android.alarmclock
p1147
g845
ssg31
(dp1148
Vcom.android.browser
p1149
g143
sg1127
g445
sVcom.tencent.qqlive
p1150
g781
sVcom.tencent.android.qqdownloader
p1151
g184
sg118
g932
sVcom.tencent.mm
p1152
g673
sVcom.tencent.pao
p1153
g947
sg93
g977
sVcom.android.mms
p1154
g465
sVcom.meizu.mzsnssyncservice
p1155
g482
sg1124
g222
sg1137
g1024
sVcom.tencent.token
p1156
g727
sVcom.android.launcher
p1157
g263
sg47
g518
sg440
g321
sVcom.yuedong.sport
p1158
g996
sVcom.tencent.mobileqq
p1159
g573
sVcom.chaozh.iReaderFree
p1160
g822
sVcom.android.alarmclock
p1161
g849
ssg33
(dp1162
g372
g406
sg91
g948
sg374
g227
sg939
g264
sVcom.tencent.qqpimsecure
p1163
g1031
sVcom.tencent.mobileqq
p1164
g575
ssg35
(dp1165
Vcom.android.browser
p1166
g115
sg712
g167
sg759
g407
sVcom.tencent.pao
p1167
g950
sg67
g714
sVcom.android.launcher
p1168
g265
sg99
g1032
sVcom.tencent.mobileqq
p1169
g576
sVcom.android.contacts
p1170
g344
ssg37
(dp1171
g792
g121
sg574
g373
sg1091
g760
sVcom.tencent.android.qqdownloader
p1172
g171
sVcom.android.settings
p1173
g908
sg1087
g951
sVcom.yuedong.sport
p1174
g987
sg67
g717
sg153
g740
sVcom.snda.wifilocating
p1175
g238
sg1088
g266
sg1001
g191
sVcom.tencent.qqpimsecure
p1176
g1036
sVcom.tencent.mobileqq
p1177
g578
sg1078
g799
sg1099
g619
ssg39
(dp1178
Vcom.android.browser
p1179
g125
sVcom.tencent.qqlive
p1180
g764
sVcom.meizu.mstore
p1181
g643
sVcom.android.calendar
p1182
g897
sVcom.tencent.mobileqq
p1183
g580
sVcom.android.phone
p1184
g520
sg660
g684
sVcom.tencent.token
p1185
g721
sVcom.yuedong.sport
p1186
g990
sVcom.android.launcher
p1187
g267
sVcom.android.settings
p1188
g928
sVcom.tencent.qqpimsecure
p1189
g1040
sVcom.tencent.mm
p1190
g659
sVcom.android.contacts
p1191
g346
sVcom.chaozh.iReaderFree
p1192
g795
ssg41
(dp1193
Vcom.tencent.pao
p1194
g971
sVcom.yuedong.sport
p1195
g1005
sg1155
g472
sg1156
g738
sVcom.android.launcher
p1196
g268
sVcom.android.phone
p1197
g511
sVcom.tencent.mm
p1198
g653
sg481
g348
sVcom.chaozh.iReaderFree
p1199
g803
sVcom.android.calculator2
p1200
g623
ssg43
(dp1201
Vcom.meizu.media.video
p1202
g861
sVcom.android.launcher
p1203
g269
sVcom.android.phone
p1204
g521
sVcom.tencent.mobileqq
p1205
g589
sVcom.android.contacts
p1206
g349
sVcom.android.alarmclock
p1207
g835
ssg45
(dp1208
Vcom.android.browser
p1209
g127
sVcom.tencent.qqlive
p1210
g772
sVcom.tencent.pao
p1211
g943
sg494
g994
sVcom.tencent.token
p1212
g725
sg1071
g214
sg498
g231
sVcom.android.launcher
p1213
g270
sVcom.android.phone
p1214
g513
sg502
g1043
sg496
g699
sVcom.tencent.mobileqq
p1215
g581
sVcom.android.contacts
p1216
g338
ssg47
(dp1217
Vcom.meizu.media.video
p1218
g867
sVcom.android.gallery3d
p1219
g439
sVcom.ss.android.essay.joke
p1220
g1022
sg1151
g178
sg327
g132
sVcom.android.settings
p1221
g924
sVcom.tencent.pao
p1222
g954
sg737
g459
sVcom.yuedong.sport
p1223
g1010
sVcom.meizu.mzsnssyncservice
p1224
g478
sVcom.tencent.tmgp.carrot2
p1225
g218
sVcom.tencent.qqlive
p1226
g776
sVcom.tencent.token
p1227
g731
sVcom.android.launcher
p1228
g272
sVcom.tencent.mobileqq
p1229
g582
sg31
g350
sg1160
g814
sg965
g843
ssg49
(dp1230
Vcom.android.packageinstaller
p1231
g409
sVcom.tencent.mobileqq
p1232
g583
sVcom.android.launcher
p1233
g273
sVcom.tencent.gamejoy
p1234
g391
ssg51
(dp1235
g1166
g141
sg11
g158
sg27
g274
sVcom.tencent.tmgp.carrot2
p1236
g220
sg374
g229
sg810
g244
sg25
g249
sg562
g182
sVcom.android.contacts
p1237
g358
sg33
g371
sg114
g393
sg37
g416
sg124
g443
sg67
g736
sg1096
g493
sVcom.android.phone
p1238
g540
sg49
g554
sVcom.tencent.mm
p1239
g671
sVcom.meizu.mzsnssyncservice
p1240
g480
sg434
g694
sg597
g697
sg1131
g744
sVcom.tencent.qqlive
p1241
g779
sg159
g820
sVcom.android.alarmclock
p1242
g847
sVcom.meizu.media.video
p1243
g870
sg650
g877
sg604
g895
sg1086
g920
sg91
g970
sVcom.android.mms
p1244
g463
sVcom.yuedong.sport
p1245
g1008
sg838
g1054
ssg53
(dp1246
Vcom.android.browser
p1247
g147
sg982
g958
sg622
g467
sVcom.yuedong.sport
p1248
g1013
sVcom.android.launcher
p1249
g276
sVcom.chaozh.iReaderFree
p1250
g818
ssg55
(dp1251
g365
g904
sVcom.tencent.mobileqq
p1252
g585
sVcom.android.contacts
p1253
g359
sVcom.android.launcher
p1254
g277
sVcom.meizu.mstore
p1255
g640
ssg57
(dp1256
Vcom.meizu.cloud
p1257
g886
sg55
g633
sg89
g903
sg642
g429
sVcom.meizu.filemanager
p1258
g681
sg905
g278
sg1252
g587
ssg59
(dp1259
Vcom.android.browser
p1260
g117
sg33
g378
sg81
g878
sg35
g385
sg1173
g931
sg907
g411
sg386
g956
sg652
g452
sVcom.yuedong.sport
p1261
g988
sg45
g505
sg672
g352
sg376
g279
sVcom.android.phone
p1262
g525
sg99
g1051
sVcom.tencent.mtt
p1263
g552
sVcom.android.alarmclock
p1264
g831
sg370
g584
sg401
g200
sVcom.meizu.filemanager
p1265
g692
ssg61
(dp1266
g79
g859
sg83
g885
sg654
g766
sg57
g644
sVcom.tencent.pao
p1267
g960
sg89
g912
sg1190
g661
sg1039
g435
sg1082
g992
sg905
g280
sVcom.android.phone
p1268
g527
sVcom.tencent.mobileqq
p1269
g591
sVcom.chaozh.iReaderFree
p1270
g805
ssg63
(dp1271
Vcom.android.settings
p1272
g916
sg993
g497
sVcom.tencent.token
p1273
g734
sVcom.android.launcher
p1274
g281
sg502
g1044
sVcom.tencent.mm
p1275
g664
sVcom.tencent.mobileqq
p1276
g598
ssg65
(dp1277
g101
g1057
sVcom.android.launcher
p1278
g282
ssg67
(dp1279
g1091
g767
sVcom.android.launcher
p1280
g259
sVcom.tencent.mm
p1281
g663
sg168
g914
sg759
g408
sVcom.tencent.pao
p1282
g952
sVcom.yuedong.sport
p1283
g998
sVcom.meizu.mzsnssyncservice
p1284
g474
sg753
g174
sVcom.android.phone
p1285
g529
sVcom.storm.smart
p1286
g313
sVcom.tencent.mobileqq
p1287
g593
ssg69
(dp1288
Vcom.tencent.game.rhythmmaster
p1289
g154
sg577
g414
sg616
g283
sVcom.android.phone
p1290
g531
sg1177
g595
sVcom.chaozh.iReaderFree
p1291
g809
sg53
g626
ssg71
(dp1292
g1123
g156
sVcom.tencent.android.qqdownloader
p1293
g165
sVcom.tencent.mm
p1294
g655
sVcom.android.packageinstaller
p1295
g415
sVcom.tencent.pao
p1296
g962
sVcom.tencent.token
p1297
g711
sg27
g284
sVcom.android.phone
p1298
g533
sg815
g315
sg51
g596
sg1146
g796
sVcom.android.alarmclock
p1299
g841
ssg73
(dp1300
Vcom.meizu.media.video
p1301
g868
sVcom.yuedong.sport
p1302
g1006
sVcom.android.launcher
p1303
g285
sVcom.meizu.filemanager
p1304
g690
ssg75
(dp1305
g304
g145
sVcom.tencent.game.rhythmmaster
p1306
g160
sVcom.tencent.qqlive
p1307
g783
sVcom.meizu.media.video
p1308
g872
sg949
g394
sg370
g599
sVcom.tencent.android.qqdownloader
p1309
g186
sVcom.tencent.pao
p1310
g964
sg360
g976
sg1302
g1011
sVcom.meizu.mzsnssyncservice
p1311
g484
sVcom.tencent.qqpimsecure
p1312
g1052
sVcom.happyelements.AndroidAnimal.qq
p1313
g746
sVcom.android.launcher
p1314
g286
sVcom.android.phone
p1315
g535
sg1125
g323
sg73
g788
sg59
g674
sg1126
g356
sg823
g851
ssg77
(dp1316
Vcom.meizu.media.video
p1317
g874
sVcom.anzogame.game
p1318
g380
sVcom.tencent.qqlive
p1319
g785
sVcom.android.browser
p1320
g113
sVcom.android.settings
p1321
g934
sVcom.tencent.pao
p1322
g966
sVcom.meizu.mzsnssyncservice
p1323
g486
sVcom.tencent.tmgp.carrot2
p1324
g224
sVcom.tencent.qqpimsecure
p1325
g1050
sVcom.taobao.taobao
p1326
g507
sVcom.android.launcher
p1327
g287
sg842
g537
sVcom.storm.smart
p1328
g325
sg846
g601
sVcom.chaozh.iReaderFree
p1329
g824
sVcom.ss.android.essay.joke
p1330
g1026
ssg79
(dp1331
g83
g883
sVcom.android.launcher
p1332
g288
sVcom.android.settings
p1333
g901
sg1267
g968
sVcom.meizu.filemanager
p1334
g682
sVcom.yuedong.sport
p1335
g985
sVcom.tencent.qqlive
p1336
g756
sVcom.android.phone
p1337
g539
sVcom.tencent.mobileqq
p1338
g603
sg680
g636
ssg81
(dp1339
Vcom.meizu.media.video
p1340
g853
sVcom.tencent.pao
p1341
g969
sVcom.tencent.mm
p1342
g651
sg1265
g678
sVcom.android.launcher
p1343
g289
ssg83
(dp1344
g755
g854
sg680
g638
sVcom.android.launcher
p1345
g290
sg1336
g751
sVcom.meizu.filemanager
p1346
g679
ssg85
(dp1347
sg87
(dp1348
Vcom.tencent.mobileqq
p1349
g605
sg896
g431
sVcom.android.launcher
p1350
g291
sg1243
g855
ssg89
(dp1351
g792
g119
sg905
g293
sVcom.tencent.tmgp.carrot2
p1352
g212
sVcom.tencent.android.qqdownloader
p1353
g169
sVcom.storm.smart
p1354
g317
sg85
g889
sVcom.meizu.theme
p1355
g632
sg120
g417
sg65
g708
sg592
g715
sg1253
g366
sVcom.android.phone
p1356
g547
sVcom.tencent.mm
p1357
g657
sg57
g641
sg61
g683
sVcom.tencent.qqlive
p1358
g758
sVcom.android.alarmclock
p1359
g829
sVcom.meizu.media.video
p1360
g857
sg1252
g606
sVcom.tencent.pao
p1361
g973
sVcom.android.mms
p1362
g450
sg95
g986
sg363
g1016
sVcom.tencent.qqpimsecure
p1363
g1034
ssg91
(dp1364
Vcom.android.browser
p1365
g123
sVcom.tencent.game.rhythmmaster
p1366
g152
sVcom.android.launcher
p1367
g295
sg335
g240
sg944
g173
sVcom.storm.smart
p1368
g311
sVcom.android.contacts
p1369
g354
sg35
g387
sVcom.android.packageinstaller
p1370
g419
sg913
g719
sVcom.android.phone
p1371
g542
sVcom.tencent.mobileqq
p1372
g608
sg957
g621
sg1131
g742
sg1241
g762
sVcom.chaozh.iReaderFree
p1373
g801
sVcom.android.alarmclock
p1374
g833
sg384
g658
sVcom.yuedong.sport
p1375
g983
sg363
g1018
sg972
g910
sVcom.tencent.qqpimsecure
p1376
g1038
ssg93
(dp1377
g118
g911
sg120
g420
sg1126
g361
sVcom.android.launcher
p1378
g296
sVcom.android.phone
p1379
g543
ssg95
(dp1380
g1360
g863
sVcom.tencent.qqlive
p1381
g769
sg1001
g193
sg190
g422
sVcom.android.phone
p1382
g545
sg989
g433
sg1362
g453
sVcom.taobao.taobao
p1383
g495
sVcom.meizu.filemanager
p1384
g686
sg1130
g723
sVcom.android.launcher
p1385
g297
sVcom.android.settings
p1386
g930
sVcom.tencent.qqpimsecure
p1387
g1042
sVcom.tencent.mobileqq
p1388
g610
sVcom.android.contacts
p1389
g362
sg1012
g625
ssg97
(dp1390
Vcom.tencent.qqlive
p1391
g752
sVcom.android.packageinstaller
p1392
g423
sVcom.android.launcher
p1393
g298
sVcom.android.phone
p1394
g546
sVcom.tencent.mobileqq
p1395
g611
sVcom.android.contacts
p1396
g364
ssg99
(dp1397
Vcom.android.browser
p1398
g130
sg164
g770
sg524
g669
sg1035
g425
sg607
g974
sVcom.android.mms
p1399
g461
sg494
g1003
sg1383
g503
sVcom.android.settings
p1400
g926
sg25
g247
sVcom.android.launcher
p1401
g299
sg1262
g549
sg179
g319
sg17
g203
sg112
g839
sg1169
g612
sVcom.android.contacts
p1402
g368
sg466
g629
ssg101
(dp1403
g1278
g300
ssg103
(dp1404
Vcom.android.browser
p1405
g139
sg237
g412
sVcom.android.launcher
p1406
g301
ssg105
(dp1407
g204
g128
sVcom.android.packageinstaller
p1408
g426
sVcom.android.launcher
p1409
g302
sssS'adj'
p1410
g110
sb.