ccopy_reg
_reconstructor
p1
(cnetworkx.classes.digraph
DiGraph
p2
c__builtin__
object
p3
NtRp4
(dp5
S'node'
p6
(dp7
Vcom.android.browser
p8
(dp9
S'weight'
p10
F0.0051337390600576056
ssVcom.lingan.seeyou
p11
(dp12
g10
F0.0019836704250608987
ssVcom.autonavi.minimap
p13
(dp14
g10
F0.0011267248014345905
ssVcom.android.thememanager
p15
(dp16
g10
F1.5869363400487189e-05
ssVcom.android.deskclock
p17
(dp18
g10
F0.0044513564338366568
ssVcom.sina.weibo
p19
(dp20
g10
F0.0048480905188488365
ssVcom.eg.android.AlipayGphone
p21
(dp22
g10
F0.0011663982099358085
ssVcom.qihoo.appstore
p23
(dp24
g10
F0.00063477453601948754
ssVcn.wps.moffice_eng
p25
(dp26
g10
F0.0017853033825548088
ssVcom.taobao.taobao
p27
(dp28
g10
F0.0019598663799601677
ssVcom.android.phone
p29
(dp30
g10
F0.037721476802958051
ssVcom.miui.player
p31
(dp32
g10
F0.024153171095541503
ssVcom.tencent.mm
p33
(dp34
g10
F0.30807988637535805
ssVcom.miui.antispam
p35
(dp36
g10
F0.00048401558371485929
ssVcom.android.calculator2
p37
(dp38
g10
F0.0001666283157051155
ssVcom.tencent.loverzone
p39
(dp40
g10
F0.0021741027858667447
ssVcom.tencent.androidqqmail
p41
(dp42
g10
F0.00091248839552801337
ssVcom.android.fileexplorer
p43
(dp44
g10
F0.002039213196962604
ssVcom.tencent.mobileqq
p45
(dp46
g10
F0.10379357132088646
ssVcom.miui.home
p47
(dp48
g10
F0.48141300811717935
ssVcom.miui.gallery
p49
(dp50
g10
F0.007775988066238723
ssVcom.android.settings
p51
(dp52
g10
F0.0040228836220235027
ssVcom.android.mms
p53
(dp54
g10
F0.0032532194970998738
ssVcom.miui.video
p55
(dp56
g10
F0.00076172944322338513
ssVcom.android.camera
p57
(dp58
g10
F0.00014282427060438471
sssS'graph'
p59
(dp60
sS'succ'
p61
(dp62
g8
(dp63
Vcom.miui.home
p64
(dp65
g10
I1
sssg11
(dp66
Vcom.miui.home
p67
(dp68
g10
I1
sssg13
(dp69
Vcom.miui.home
p70
(dp71
g10
I1
sssg15
(dp72
Vcom.miui.home
p73
(dp74
g10
I1
sssg17
(dp75
Vcom.miui.home
p76
(dp77
g10
F5.4000000000000004
ssVcom.tencent.mobileqq
p78
(dp79
g10
F1.3
sssg19
(dp80
Vcom.miui.home
p81
(dp82
g10
I2
sssg21
(dp83
Vcom.miui.home
p84
(dp85
g10
I2
sssg23
(dp86
Vcom.miui.home
p87
(dp88
g10
I1
ssVcom.tencent.mobileqq
p89
(dp90
g10
F0.69999999999999996
ssg41
(dp91
g10
F1.3
sssg25
(dp92
Vcom.android.fileexplorer
p93
(dp94
g10
F7.1000000000000005
ssVcom.miui.home
p95
(dp96
g10
F5.4000000000000004
ssVcom.autonavi.minimap
p97
(dp98
g10
F0.90000000000000002
sssg27
(dp99
g57
(dp100
g10
F0.40000000000000002
ssVcom.miui.home
p101
(dp102
g10
F1.7
ssg37
(dp103
g10
F0.90000000000000002
sssg29
(dp104
Vcom.miui.player
p105
(dp106
g10
F0.69999999999999996
ssVcom.tencent.mobileqq
p107
(dp108
g10
I1
ssVcom.android.mms
p109
(dp110
g10
F0.69999999999999996
ssVcom.taobao.taobao
p111
(dp112
g10
I2
ssVcom.android.camera
p113
(dp114
g10
I1
ssg101
(dp115
g10
F6.2000000000000002
ssVcom.tencent.mm
p116
(dp117
g10
F3.2999999999999998
ssVcom.miui.antispam
p118
(dp119
g10
F1.3
ssg37
(dp120
g10
F0.69999999999999996
sssg31
(dp121
g11
(dp122
g10
F0.69999999999999996
ssVcom.tencent.loverzone
p123
(dp124
g10
F1.3
ssVcom.tencent.mobileqq
p125
(dp126
g10
I2
ssVcom.android.deskclock
p127
(dp128
g10
F0.90000000000000002
ssVcom.miui.home
p129
(dp130
g10
F8.6999999999999993
ssVcom.tencent.mm
p131
(dp132
g10
I1
ssVcom.eg.android.AlipayGphone
p133
(dp134
g10
F1.3
sssg33
(dp135
g105
(dp136
g10
F0.90000000000000002
ssg25
(dp137
g10
F1.1000000000000001
ssVcom.qihoo.appstore
p138
(dp139
g10
I1
ssVcom.tencent.mobileqq
p140
(dp141
g10
F2.2999999999999998
ssVcom.android.mms
p142
(dp143
g10
F0.90000000000000002
ssg27
(dp144
g10
F0.40000000000000002
ssVcom.android.deskclock
p145
(dp146
g10
F3.2999999999999998
ssg43
(dp147
g10
F2.2000000000000002
ssg11
(dp148
g10
F0.90000000000000002
ssg55
(dp149
g10
I1
ssg13
(dp150
g10
F0.90000000000000002
ssVcom.miui.home
p151
(dp152
g10
F24
ssg19
(dp153
g10
F1.8
ssg35
(dp154
g10
I1
ssVcom.eg.android.AlipayGphone
p155
(dp156
g10
F0.90000000000000002
ssg39
(dp157
g10
F0.90000000000000002
sssg35
(dp158
Vcom.android.camera
p159
(dp160
g10
F1.7
ssVcom.miui.home
p161
(dp162
g10
F1.7000000000000002
ssg109
(dp163
g10
F14.599999999999998
sssg37
(dp164
g57
(dp165
g10
F0.90000000000000002
ssVcom.tencent.mm
p166
(dp167
g10
F0.40000000000000002
ssVcom.miui.home
p168
(dp169
g10
F3.4000000000000004
ssVcom.tencent.mobileqq
p170
(dp171
g10
F0.90000000000000002
ssVcom.android.fileexplorer
p172
(dp173
g10
F0.40000000000000002
sssg39
(dp174
Vcom.sina.weibo
p175
(dp176
g10
F0.40000000000000002
ssVcom.miui.home
p177
(dp178
g10
F3.7000000000000002
ssVcom.tencent.mm
p179
(dp180
g10
F0.90000000000000002
ssg27
(dp181
g10
F0.90000000000000002
sssg41
(dp182
Vcom.android.settings
p183
(dp184
g10
F1.3
ssVcom.miui.home
p185
(dp186
g10
F1.7
ssg89
(dp187
g10
I1
sssg43
(dp188
g19
(dp189
g10
F0.40000000000000002
ssVcom.miui.home
p190
(dp191
g10
F12.100000000000001
ssVcom.tencent.mm
p192
(dp193
g10
F0.90000000000000002
ssg25
(dp194
g10
F10.699999999999999
ssg97
(dp195
g10
F0.69999999999999996
sssg45
(dp196
Vcom.miui.player
p197
(dp198
g10
F4.2999999999999998
ssg123
(dp199
g10
F0.69999999999999996
ssVcom.tencent.androidqqmail
p200
(dp201
g10
I1
ssg183
(dp202
g10
F0.69999999999999996
ssg145
(dp203
g10
F0.69999999999999996
ssg43
(dp204
g10
F0.80000000000000004
ssVcom.android.phone
p205
(dp206
g10
I1
ssg47
(dp207
g10
F15.200000000000001
ssg33
(dp208
g10
F5.0999999999999996
sssg47
(dp209
g8
(dp210
g10
F2.8999999999999999
ssg31
(dp211
g10
F11
ssg25
(dp212
g10
F7.0000000000000009
ssg41
(dp213
g10
F2.3999999999999999
ssg23
(dp214
g10
F2.6000000000000001
ssg19
(dp215
g10
F3.3999999999999999
ssg33
(dp216
g10
F21.999999999999996
ssVcom.android.mms
p217
(dp218
g10
F5.7999999999999998
ssg27
(dp219
g10
F1.7
ssg17
(dp220
g10
F4.7000000000000002
ssg43
(dp221
g10
F14.899999999999999
ssg11
(dp222
g10
F3.2999999999999998
ssg15
(dp223
g10
I1
ssg51
(dp224
g10
F4.9000000000000004
ssg13
(dp225
g10
F4.2999999999999998
ssg57
(dp226
g10
F1.7
ssg37
(dp227
g10
I3
ssg140
(dp228
g10
F12.200000000000001
ssVcom.miui.antispam
p229
(dp230
g10
F2
ssg21
(dp231
g10
F8
ssg39
(dp232
g10
F3.7000000000000002
sssg49
(dp233
Vcom.miui.home
p234
(dp235
g10
I1
sssg51
(dp236
Vcom.tencent.mm
p237
(dp238
g10
F0.90000000000000002
ssVcom.miui.home
p239
(dp240
g10
F5.1000000000000005
ssVcom.android.mms
p241
(dp242
g10
F1.7000000000000002
ssg229
(dp243
g10
F1.7
ssVcom.eg.android.AlipayGphone
p244
(dp245
g10
F1.3
sssg53
(dp246
g159
(dp247
g10
F1.3
ssVcom.miui.home
p248
(dp249
g10
F3.7000000000000002
ssVcom.miui.antispam
p250
(dp251
g10
F13.899999999999999
sssg55
(dp252
Vcom.miui.home
p253
(dp254
g10
F0.90000000000000002
ssVcom.tencent.mm
p255
(dp256
g10
I1
sssg57
(dp257
g172
(dp258
g10
F0.90000000000000002
ssVcom.miui.home
p259
(dp260
g10
F3.4000000000000004
ssg109
(dp261
g10
F2.2000000000000002
ssg118
(dp262
g10
F1.7
ssssS'edge'
p263
g62
sS'pred'
p264
(dp265
g8
(dp266
Vcom.miui.home
p267
g210
ssg11
(dp268
Vcom.miui.home
p269
g222
sg131
g148
sg105
g122
ssg13
(dp270
Vcom.android.fileexplorer
p271
g195
sVcom.miui.home
p272
g225
sVcom.tencent.mm
p273
g150
sVcn.wps.moffice_eng
p274
g98
ssg15
(dp275
Vcom.miui.home
p276
g223
ssg17
(dp277
Vcom.tencent.mm
p278
g146
sVcom.miui.home
p279
g220
sVcom.tencent.mobileqq
p280
g203
sVcom.miui.player
p281
g128
ssg19
(dp282
Vcom.android.fileexplorer
p283
g189
sVcom.miui.home
p284
g215
sg192
g153
sVcom.tencent.loverzone
p285
g176
ssg21
(dp286
Vcom.android.settings
p287
g245
sVcom.miui.home
p288
g231
sVcom.tencent.mm
p289
g156
sg197
g134
ssg23
(dp290
Vcom.miui.home
p291
g214
sVcom.tencent.mm
p292
g139
ssg25
(dp293
g43
g194
sVcom.miui.home
p294
g212
sVcom.tencent.mm
p295
g137
ssg27
(dp296
Vcom.miui.home
p297
g219
sVcom.tencent.mm
p298
g144
sg39
g181
sg29
g112
ssg29
(dp299
g107
g206
ssg31
(dp300
Vcom.tencent.mobileqq
p301
g198
sVcom.miui.home
p302
g211
sVcom.tencent.mm
p303
g136
sVcom.android.phone
p304
g106
ssg33
(dp305
g105
g132
sg285
g180
sVcom.android.settings
p306
g238
sg55
g256
sg283
g193
sVcom.android.phone
p307
g117
sg47
g216
sg45
g208
sVcom.android.calculator2
p308
g167
ssg35
(dp309
g51
g243
sg109
g251
sVcom.android.phone
p310
g119
sg113
g262
sVcom.miui.home
p311
g230
sVcom.tencent.mm
p312
g154
ssg37
(dp313
g101
g227
sVcom.taobao.taobao
p314
g103
sVcom.android.phone
p315
g120
ssg39
(dp316
Vcom.tencent.mobileqq
p317
g199
sVcom.miui.home
p318
g232
sg298
g157
sVcom.miui.player
p319
g124
ssg41
(dp320
g291
g213
sg89
g201
sg23
g91
ssg43
(dp321
g25
g94
sg140
g204
sg57
g258
sVcom.miui.home
p322
g221
sg295
g147
sg37
g173
ssg45
(dp323
Vcom.miui.player
p324
g126
sg41
g187
sg308
g171
sg145
g79
sVcom.android.phone
p325
g108
sg151
g228
sg33
g141
sg23
g90
ssg47
(dp326
Vcom.android.browser
p327
g65
sVcom.lingan.seeyou
p328
g68
sg97
g71
sg15
g74
sg17
g77
sg175
g82
sg244
g85
sg23
g88
sg25
g96
sg314
g102
sg315
g115
sg281
g130
sg45
g207
sg250
g162
sg37
g169
sg39
g178
sg41
g186
sg33
g152
sg43
g191
sg49
g235
sg306
g240
sg53
g249
sg55
g254
sg57
g260
ssg49
(dp329
sg51
(dp330
g311
g224
sg89
g202
sg41
g184
ssg53
(dp331
g51
g242
sg310
g110
sg113
g261
sg161
g218
sg237
g143
sg118
g163
ssg55
(dp332
Vcom.tencent.mm
p333
g149
ssg57
(dp334
g109
g247
sg314
g100
sg310
g114
sg101
g226
sg250
g160
sg37
g165
sssS'adj'
p335
g62
sb.