ccopy_reg
_reconstructor
p1
(cnetworkx.classes.digraph
DiGraph
p2
c__builtin__
object
p3
NtRp4
(dp5
S'node'
p6
(dp7
Vcom.record.myLife
p8
(dp9
S'weight'
p10
F0.00020651664642439626
ssVcom.qiyi.video
p11
(dp12
g10
F0.0052426722222980362
ssVcom.android.deskclock
p13
(dp14
g10
F0.00047338103534285249
ssVcom.huawei.android.pushagent
p15
(dp16
g10
F9.4009046096274364e-06
ssVcom.microsoft.office.officehub
p17
(dp18
g10
F1.0917179546664119e-05
ssVcom.huawei.dataservicediagnose
p19
(dp20
g10
F1.2130199496293467e-06
ssVcom.android.mediacenter
p21
(dp22
g10
F1.3343219445922812e-05
ssVcom.eg.android.AlipayGphone
p23
(dp24
g10
F0.00042334396242064195
ssVcom.iflytek.ringdiyclient
p25
(dp26
g10
F0.00010189367576886511
ssVcom.hipu.yidian
p27
(dp28
g10
F0.0017831393259551394
ssVcom.android.packageinstaller
p29
(dp30
g10
F0.00040059983836509172
ssVcom.adobe.reader
p31
(dp32
g10
F0.00025291465949771878
ssVcom.android.documentsui
p33
(dp34
g10
F1.3343219445922812e-05
ssVcom.vmall.client
p35
(dp36
g10
F3.6390598488880396e-06
ssVcom.bubugao.yhglobal
p37
(dp38
g10
F8.1878846599980889e-06
ssVcom.tencent.mobileqq
p39
(dp40
g10
F0.085869075724286634
ssVcom.huawei.magnifier
p41
(dp42
g10
F2.1227849118513564e-06
ssVandroid.zhibo8
p43
(dp44
g10
F0.01018845781192429
ssVcom.huawei.android.hwouc
p45
(dp46
g10
F4.0029658337768441e-05
ssVcom.android.phone
p47
(dp48
g10
F0.00024472677483772069
ssVcom.huawei.camera
p49
(dp50
g10
F0.00012797360468589606
ssVcom.android.email
p51
(dp52
g10
F0.00034571068564436376
ssVcom.alibaba.android.rimet
p53
(dp54
g10
F3.7300363451102411e-05
ssVcom.huawei.vassistant
p55
(dp56
g10
F0.00012463779982441536
ssVcom.xdf.recite
p57
(dp58
g10
F0.0029806932712267121
ssVcom.huawei.hwid
p59
(dp60
g10
F2.0621339143698891e-05
ssVcom.android.keyguard
p61
(dp62
g10
F0.00018195299244440198
ssVcom.baidu.tieba
p63
(dp64
g10
F0.0036681723276791442
ssVcom.android.settings
p65
(dp66
g10
F0.0013616148934589415
ssVcom.autonavi.minimap
p67
(dp68
g10
F1.728553428221819e-05
ssVcom.amap.android.location
p69
(dp70
g10
F1.2130199496293467e-06
ssVcom.sdu.didi.psnger
p71
(dp72
g10
F2.1531104105920903e-05
ssVcom.shanbay.listen
p73
(dp74
g10
F0.00023108030040439053
ssVcom.huawei.android.internal.app
p75
(dp76
g10
F5.7618447607393964e-06
ssVfm.jihua.kecheng
p77
(dp78
g10
F0.00063622896358059224
ssVcom.jhss.youguu
p79
(dp80
g10
F6.3683547355540693e-06
ssVcom.android.gallery3d
p81
(dp82
g10
F4.7611033022951854e-05
ssVcom.taobao.taobao
p83
(dp84
g10
F0.00023199006536661255
ssVme.ele
p85
(dp86
g10
F0.00049400237448655137
ssVcom.google.android.gsf.login
p87
(dp88
g10
F2.0924594131106229e-05
ssVcom.android.systemui
p89
(dp90
g10
F1.0917179546664119e-05
ssVcom.android.hwmirror
p91
(dp92
g10
F0.00039028916879324229
ssVcom.netease.cloudmusic
p93
(dp94
g10
F0.053126634733916496
ssVcom.baidu.lbs.waimai
p95
(dp96
g10
F0.0021385541711965378
ssVcom.netease.newsreader.activity
p97
(dp98
g10
F0.00042880255219397402
ssVcom.android.vpndialogs
p99
(dp100
g10
F6.5199822292577383e-05
ssVcom.googlesuit.ggkj
p101
(dp102
g10
F1.9711574181476882e-05
ssVcom.huawei.hwvplayer
p103
(dp104
g10
F0.0010219693075627246
ssVcom.baidu.input_huawei
p105
(dp106
g10
F3.0325498740733667e-06
ssVcom.android.browser
p107
(dp108
g10
F0.028110524312710477
ssVcom.taou.maimai
p109
(dp110
g10
F0.0019951145621528677
ssVcom.huawei.appmarket
p111
(dp112
g10
F0.0030925943615800191
ssVcom.smartapp.easyvpn
p113
(dp114
g10
F9.2796026146645013e-05
ssVcom.android.contacts
p115
(dp116
g10
F0.0029345985131407968
ssVcom.linkedin.android
p117
(dp118
g10
F2.638318390443829e-05
ssVcom.instagram.android
p119
(dp120
g10
F0.00055222733206876005
ssVcom.huawei.android.thememanager
p121
(dp122
g10
F1.9408319194069547e-05
ssVcom.sankuai.meituan
p123
(dp124
g10
F0.0002283510055177245
ssVcom.google.android.youtube
p125
(dp126
g10
F3.6390598488880396e-06
ssVcom.twitter.android
p127
(dp128
g10
F0.0042137280500249424
ssVcom.huawei.hidisk
p129
(dp130
g10
F0.0001273670947110814
ssVcom.huawei.systemmanager
p131
(dp132
g10
F0.0050592029549165977
ssVcom.sankuai.meituan.takeoutnew
p133
(dp134
g10
F0.0010246986024493906
ssVcom.nice.main
p135
(dp136
g10
F2.2744124055550247e-05
ssVcom.huawei.android.launcher
p137
(dp138
g10
F0.67924083146452452
ssVcom.huawei.lcagent
p139
(dp140
g10
F3.0325498740733667e-06
ssVcom.android.calendar
p141
(dp142
g10
F4.3668718186656476e-05
ssVcom.huawei.android.totemweather
p143
(dp144
g10
F1.6982279294810852e-05
ssVcom.biganiseed.reindeer
p145
(dp146
g10
F7.9452806700722198e-05
ssVcom.google.android.gms
p147
(dp148
g10
F3.942314836295376e-06
ssVcom.huawei.cloudwifi
p149
(dp150
g10
F1.1220434534071456e-05
ssVcom.gotokeep.keep
p151
(dp152
g10
F5.9741232519245323e-05
ssVcom.facebook.orca
p153
(dp154
g10
F4.9733817934803207e-05
ssVcom.hupu.games
p155
(dp156
g10
F0.0028900200299919183
ssVcom.sina.weibo
p157
(dp158
g10
F0.00031872099176511083
ssVcom.zhihu.android
p159
(dp160
g10
F0.0048360072841847979
ssVcom.netease.edu.study
p161
(dp162
g10
F0.00060529695486504398
ssVcom.tencent.mtt
p163
(dp164
g10
F0.077332144573782693
ssVcom.huawei.fans
p165
(dp166
g10
F0.00013282568448441345
ssVcom.tencent.mm
p167
(dp168
g10
F0.013263463384234684
ssVcom.shanbay.words
p169
(dp170
g10
F9.0976496222200996e-06
ssVcom.google.android.gm
p171
(dp172
g10
F3.3054793627399698e-05
ssVcom.immomo.momo
p173
(dp174
g10
F0.00021258174617254299
ssVcom.example.android.notepad
p175
(dp176
g10
F2.4260398992586933e-05
ssVcom.liulishuo.engzo
p177
(dp178
g10
F0.00023229332035401988
ssVfq.router2
p179
(dp180
g10
F4.1545933274805123e-05
sssS'graph'
p181
(dp182
sS'succ'
p183
(dp184
g8
(dp185
Vcom.android.packageinstaller
p186
(dp187
g10
I1
ssVcom.android.deskclock
p188
(dp189
g10
F0.90000000000000002
ssVcom.taou.maimai
p190
(dp191
g10
F0.69999999999999996
ssVcom.huawei.systemmanager
p192
(dp193
g10
F0.40000000000000002
ssVcom.huawei.android.launcher
p194
(dp195
g10
F7.8000000000000007
ssVcom.tencent.mobileqq
p196
(dp197
g10
F4.0999999999999996
sssg11
(dp198
Vcom.huawei.hidisk
p199
(dp200
g10
F0.69999999999999996
ssVcom.android.settings
p201
(dp202
g10
F2.2000000000000002
ssVcom.netease.edu.study
p203
(dp204
g10
F0.40000000000000002
ssVcom.taou.maimai
p205
(dp206
g10
F0.90000000000000002
ssVcom.huawei.systemmanager
p207
(dp208
g10
F1.7000000000000002
ssVcom.huawei.android.launcher
p209
(dp210
g10
F13.599999999999998
ssVcom.tencent.mobileqq
p211
(dp212
g10
F13.000000000000002
sssg13
(dp213
Vcom.record.myLife
p214
(dp215
g10
F0.90000000000000002
ssVcom.netease.cloudmusic
p216
(dp217
g10
F2.2000000000000002
ssVcom.huawei.android.thememanager
p218
(dp219
g10
I2
ssVcom.huawei.android.totemweather
p220
(dp221
g10
F0.90000000000000002
ssVcom.tencent.mm
p222
(dp223
g10
F1.3
ssg81
(dp224
g10
F0.40000000000000002
ssVcom.taou.maimai
p225
(dp226
g10
F0.90000000000000002
ssVcom.huawei.systemmanager
p227
(dp228
g10
F1.1000000000000001
ssVcom.huawei.android.launcher
p229
(dp230
g10
F21.699999999999999
ssVcom.huawei.lcagent
p231
(dp232
g10
F0.69999999999999996
ssVcom.tencent.mtt
p233
(dp234
g10
F1.6000000000000001
ssVfm.jihua.kecheng
p235
(dp236
g10
F0.90000000000000002
ssVcom.tencent.mobileqq
p237
(dp238
g10
F7.1000000000000014
ssVcom.android.contacts
p239
(dp240
g10
I1
sssg15
(dp241
Vcom.tencent.mobileqq
p242
(dp243
g10
F0.90000000000000002
ssVcom.huawei.systemmanager
p244
(dp245
g10
F0.40000000000000002
ssVcom.huawei.android.launcher
p246
(dp247
g10
F1.7
sssg17
(dp248
Vcom.huawei.android.launcher
p249
(dp250
g10
F3
ssVcom.android.browser
p251
(dp252
g10
F2.7000000000000002
ssVcom.tencent.mm
p253
(dp254
g10
F1.7
ssVcom.tencent.mobileqq
p255
(dp256
g10
F3.1000000000000001
sssg19
(dp257
Vcom.huawei.android.launcher
p258
(dp259
g10
F0.69999999999999996
ssVcom.taou.maimai
p260
(dp261
g10
F0.90000000000000002
ssVcom.huawei.systemmanager
p262
(dp263
g10
F0.40000000000000002
ssVcom.tencent.mobileqq
p264
(dp265
g10
I1
sssg21
(dp266
Vcom.huawei.hwid
p267
(dp268
g10
I1
ssVcom.huawei.systemmanager
p269
(dp270
g10
F1.3
ssVcom.huawei.android.launcher
p271
(dp272
g10
F3.7000000000000002
ssVcom.huawei.vassistant
p273
(dp274
g10
F2.1000000000000001
sssg23
(dp275
Vcom.tencent.mobileqq
p276
(dp277
g10
F1.8
ssVcom.baidu.lbs.waimai
p278
(dp279
g10
I1
ssVcom.huawei.systemmanager
p280
(dp281
g10
F0.90000000000000002
ssVme.ele
p282
(dp283
g10
I1
ssVcom.huawei.android.launcher
p284
(dp285
g10
F7.6000000000000005
ssVcom.tencent.mm
p286
(dp287
g10
F0.90000000000000002
ssVcom.android.contacts
p288
(dp289
g10
F0.40000000000000002
ssVcom.sankuai.meituan.takeoutnew
p290
(dp291
g10
I1
sssg25
(dp292
g121
(dp293
g10
F0.69999999999999996
ssg65
(dp294
g10
F1.3
ssVcom.huawei.android.launcher
p295
(dp296
g10
F4.0999999999999996
ssVcom.netease.cloudmusic
p297
(dp298
g10
F1.8
ssVcom.android.deskclock
p299
(dp300
g10
F0.40000000000000002
sssg27
(dp301
Vcom.netease.cloudmusic
p302
(dp303
g10
F0.90000000000000002
ssVcom.tencent.mobileqq
p304
(dp305
g10
F12
ssVcom.taou.maimai
p306
(dp307
g10
F1.8
ssVcom.huawei.systemmanager
p308
(dp309
g10
F1.3
ssVcom.huawei.android.launcher
p310
(dp311
g10
F14.599999999999998
ssVcom.android.settings
p312
(dp313
g10
F1.3
ssVcom.baidu.tieba
p314
(dp315
g10
F0.40000000000000002
ssVcom.tencent.mm
p316
(dp317
g10
F0.40000000000000002
ssVcom.android.contacts
p318
(dp319
g10
F0.40000000000000002
sssg29
(dp320
Vcom.android.browser
p321
(dp322
g10
F3.7000000000000002
ssVcom.record.myLife
p323
(dp324
g10
F0.90000000000000002
ssVcom.android.deskclock
p325
(dp326
g10
F0.69999999999999996
ssVcom.huawei.appmarket
p327
(dp328
g10
F1.3999999999999999
ssg113
(dp329
g10
F0.69999999999999996
ssVcom.android.contacts
p330
(dp331
g10
I1
ssVcom.zhihu.android
p332
(dp333
g10
F1.3
ssg119
(dp334
g10
F4.7999999999999998
ssVcom.huawei.hidisk
p335
(dp336
g10
F1.7
ssVcom.huawei.systemmanager
p337
(dp338
g10
F1.3999999999999999
ssVcom.android.systemui
p339
(dp340
g10
F0.40000000000000002
ssg37
(dp341
g10
I1
ssVcom.huawei.fans
p342
(dp343
g10
F3
ssg196
(dp344
g10
F2.6000000000000001
ssVandroid.zhibo8
p345
(dp346
g10
F0.69999999999999996
ssVcom.baidu.lbs.waimai
p347
(dp348
g10
F0.69999999999999996
ssVcom.huawei.android.launcher
p349
(dp350
g10
F31.099999999999987
ssg99
(dp351
g10
F1.7000000000000002
ssVcom.tencent.mtt
p352
(dp353
g10
F31.999999999999996
ssg101
(dp354
g10
F0.69999999999999996
ssVcom.android.settings
p355
(dp356
g10
F0.69999999999999996
ssVcom.huawei.hwid
p357
(dp358
g10
F0.40000000000000002
ssVcom.baidu.tieba
p359
(dp360
g10
F0.69999999999999996
ssg145
(dp361
g10
F0.69999999999999996
ssg179
(dp362
g10
F0.69999999999999996
sssg31
(dp363
Vcom.huawei.android.launcher
p364
(dp365
g10
F2.0999999999999996
ssVcom.tencent.mobileqq
p366
(dp367
g10
F1.7
ssVcom.android.contacts
p368
(dp369
g10
F1.3
ssVcom.qiyi.video
p370
(dp371
g10
F0.90000000000000002
sssg33
(dp372
Vcom.twitter.android
p373
(dp374
g10
F2.7000000000000002
ssVcom.facebook.orca
p375
(dp376
g10
I1
ssVcom.android.gallery3d
p377
(dp378
g10
F0.69999999999999996
ssVcom.huawei.android.launcher
p379
(dp380
g10
F3
ssVcom.google.android.youtube
p381
(dp382
g10
F0.69999999999999996
sssg35
(dp383
Vfq.router2
p384
(dp385
g10
F1.3
ssVcom.huawei.systemmanager
p386
(dp387
g10
F1.8
ssVcom.android.vpndialogs
p388
(dp389
g10
F0.69999999999999996
ssVcom.huawei.android.launcher
p390
(dp391
g10
I3
sssg37
(dp392
g332
(dp393
g10
F1.7
ssVcom.huawei.android.launcher
p394
(dp395
g10
F0.90000000000000002
sssg39
(dp396
Vcom.android.browser
p397
(dp398
g10
F8.3000000000000025
ssg37
(dp399
g10
F0.90000000000000002
ssg231
(dp400
g10
I1
ssg161
(dp401
g10
F1.8
ssVcom.qiyi.video
p402
(dp403
g10
F13.599999999999998
ssg71
(dp404
g10
F0.40000000000000002
ssVcom.android.deskclock
p405
(dp406
g10
F4.4000000000000004
ssVcom.taou.maimai
p407
(dp408
g10
F29.499999999999989
ssg8
(dp409
g10
F3.6000000000000001
ssVcom.smartapp.easyvpn
p410
(dp411
g10
F2.5
ssVcom.hupu.games
p412
(dp413
g10
F8.6000000000000014
ssg77
(dp414
g10
F2.2000000000000002
ssg157
(dp415
g10
F0.40000000000000002
ssg115
(dp416
g10
F76.700000000000003
ssVcom.eg.android.AlipayGphone
p417
(dp418
g10
F2.2999999999999998
ssg159
(dp419
g10
F89.800000000000097
ssVcom.android.vpndialogs
p420
(dp421
g10
F2.7000000000000002
ssg27
(dp422
g10
F13.199999999999999
ssVcom.huawei.android.thememanager
p423
(dp424
g10
F0.90000000000000002
ssg29
(dp425
g10
F6.7999999999999998
ssg31
(dp426
g10
I2
ssVcom.android.gallery3d
p427
(dp428
g10
F1.8
ssg131
(dp429
g10
F107.30000000000025
ssVcom.taobao.taobao
p430
(dp431
g10
F0.90000000000000002
ssVcom.twitter.android
p432
(dp433
g10
F4.5999999999999996
ssg199
(dp434
g10
F1.3
ssg85
(dp435
g10
F2.6000000000000001
ssVcom.android.systemui
p436
(dp437
g10
F1.6000000000000001
ssVcom.vmall.client
p438
(dp439
g10
F0.40000000000000002
ssVcom.alibaba.android.rimet
p440
(dp441
g10
F1.3
ssg167
(dp442
g10
F102.10000000000015
ssg17
(dp443
g10
F4.7999999999999998
ssg133
(dp444
g10
F2.1000000000000001
ssVandroid.zhibo8
p445
(dp446
g10
F4.3999999999999995
ssg93
(dp447
g10
F23.199999999999999
ssg45
(dp448
g10
F5.0999999999999996
ssVcom.baidu.lbs.waimai
p449
(dp450
g10
F3.4999999999999996
ssg97
(dp451
g10
F10.899999999999999
ssVcom.instagram.android
p452
(dp453
g10
F0.40000000000000002
ssVcom.huawei.android.launcher
p454
(dp455
g10
F808.59999999999877
ssVcom.huawei.camera
p456
(dp457
g10
F7
ssg51
(dp458
g10
F5.7000000000000011
ssVcom.tencent.mtt
p459
(dp460
g10
F196.70000000000022
ssVcom.huawei.vassistant
p461
(dp462
g10
F1.8
ssVcom.immomo.momo
p463
(dp464
g10
F1.3999999999999999
ssg141
(dp465
g10
F0.40000000000000002
ssVcom.android.settings
p466
(dp467
g10
F22.399999999999995
ssVcom.xdf.recite
p468
(dp469
g10
F6
ssg105
(dp470
g10
I1
ssVcom.liulishuo.engzo
p471
(dp472
g10
F0.90000000000000002
ssVcom.huawei.hwid
p473
(dp474
g10
F6.4000000000000012
ssg63
(dp475
g10
F33.299999999999983
ssg111
(dp476
g10
F22.799999999999997
ssg75
(dp477
g10
F2.2000000000000002
ssVfq.router2
p478
(dp479
g10
F1.7999999999999998
sssg41
(dp480
Vcom.huawei.systemmanager
p481
(dp482
g10
F0.90000000000000002
ssVcom.smartapp.easyvpn
p483
(dp484
g10
F0.40000000000000002
ssVcom.huawei.android.launcher
p485
(dp486
g10
F1.7
sssg43
(dp487
Vcom.baidu.lbs.waimai
p488
(dp489
g10
F0.40000000000000002
ssVcom.taou.maimai
p490
(dp491
g10
F1.7
ssVcom.huawei.systemmanager
p492
(dp493
g10
F5.3000000000000007
ssVcom.huawei.android.launcher
p494
(dp495
g10
F18.199999999999999
ssVcom.tencent.mtt
p496
(dp497
g10
F6.9000000000000012
ssVcom.tencent.mobileqq
p498
(dp499
g10
F7.1000000000000005
ssVcom.hupu.games
p500
(dp501
g10
F1.8
sssg45
(dp502
Vcom.huawei.android.launcher
p503
(dp504
g10
F3
ssVcom.tencent.mobileqq
p505
(dp506
g10
F5.0000000000000009
ssVcom.android.settings
p507
(dp508
g10
F0.69999999999999996
sssg47
(dp509
Vcom.huawei.android.launcher
p510
(dp511
g10
F0.90000000000000002
ssVcom.android.contacts
p512
(dp513
g10
F7.7000000000000002
sssg49
(dp514
g427
(dp515
g10
F1.3
ssVcom.android.documentsui
p516
(dp517
g10
F0.69999999999999996
ssVcom.twitter.android
p518
(dp519
g10
F1.3
ssVcom.huawei.systemmanager
p520
(dp521
g10
F1.3999999999999999
ssVcom.huawei.android.launcher
p522
(dp523
g10
F11.199999999999999
ssVcom.android.mediacenter
p524
(dp525
g10
F0.40000000000000002
ssVfm.jihua.kecheng
p526
(dp527
g10
F0.90000000000000002
ssVcom.tencent.mobileqq
p528
(dp529
g10
F7.1999999999999993
sssg51
(dp530
Vcom.smartapp.easyvpn
p531
(dp532
g10
F2.6000000000000001
ssVcom.android.calendar
p533
(dp534
g10
F0.90000000000000002
ssVcom.android.settings
p535
(dp536
g10
I2
ssVcom.tencent.mm
p537
(dp538
g10
F0.40000000000000002
ssVfq.router2
p539
(dp540
g10
F1.7000000000000002
ssVcom.twitter.android
p541
(dp542
g10
F1.7000000000000002
ssVcom.huawei.systemmanager
p543
(dp544
g10
F5.3000000000000007
ssVcom.instagram.android
p545
(dp546
g10
F0.90000000000000002
ssVcom.huawei.android.launcher
p547
(dp548
g10
F29.599999999999994
ssVcom.huawei.appmarket
p549
(dp550
g10
F0.40000000000000002
ssVcom.tencent.mtt
p551
(dp552
g10
F0.90000000000000002
ssg420
(dp553
g10
F3.3999999999999995
ssVcom.tencent.mobileqq
p554
(dp555
g10
F4.4000000000000004
ssVcom.android.contacts
p556
(dp557
g10
F0.90000000000000002
sssg53
(dp558
Vme.ele
p559
(dp560
g10
I1
ssVcom.huawei.android.launcher
p561
(dp562
g10
F2.7000000000000002
ssVcom.tencent.mtt
p563
(dp564
g10
F0.90000000000000002
ssVcom.hipu.yidian
p565
(dp566
g10
F0.40000000000000002
sssg55
(dp567
g41
(dp568
g10
F0.40000000000000002
ssVcom.tencent.mobileqq
p569
(dp570
g10
F2.2999999999999998
ssVcom.huawei.android.launcher
p571
(dp572
g10
F14.599999999999998
ssg21
(dp573
g10
F1.7
ssVcom.android.hwmirror
p574
(dp575
g10
F1.3
ssVcom.tencent.mtt
p576
(dp577
g10
F1.3
sssg57
(dp578
Vcom.tencent.mobileqq
p579
(dp580
g10
F9.2000000000000011
ssg177
(dp581
g10
F1.7000000000000002
ssVcom.android.deskclock
p582
(dp583
g10
F0.40000000000000002
ssVcom.huawei.systemmanager
p584
(dp585
g10
F4.4000000000000004
ssVcom.huawei.android.launcher
p586
(dp587
g10
F25.799999999999994
ssg73
(dp588
g10
F0.90000000000000002
ssVcom.android.settings
p589
(dp590
g10
F2.7000000000000002
ssVcom.tencent.mm
p591
(dp592
g10
F3.3999999999999995
ssg169
(dp593
g10
F0.90000000000000002
sssg59
(dp594
Vcom.huawei.hwvplayer
p595
(dp596
g10
I1
ssVcom.android.vpndialogs
p597
(dp598
g10
F2
ssg43
(dp599
g10
F0.69999999999999996
ssg79
(dp600
g10
F0.69999999999999996
ssVcom.sina.weibo
p601
(dp602
g10
F0.40000000000000002
ssVcom.android.packageinstaller
p603
(dp604
g10
F1.3
ssVcom.tencent.mm
p605
(dp606
g10
F2
ssVfq.router2
p607
(dp608
g10
F1.3
ssg11
(dp609
g10
F0.69999999999999996
ssg173
(dp610
g10
F0.69999999999999996
ssVcom.twitter.android
p611
(dp612
g10
F0.90000000000000002
ssVcom.taou.maimai
p613
(dp614
g10
F0.69999999999999996
ssVcom.huawei.systemmanager
p615
(dp616
g10
F3
ssVcom.huawei.android.launcher
p617
(dp618
g10
F34.199999999999982
ssVcom.huawei.camera
p619
(dp620
g10
F0.69999999999999996
ssVcom.huawei.appmarket
p621
(dp622
g10
F21.399999999999999
ssVcom.tencent.mtt
p623
(dp624
g10
F6.5000000000000009
ssVcom.huawei.fans
p625
(dp626
g10
I1
ssg211
(dp627
g10
F4.1000000000000005
ssVcom.android.mediacenter
p628
(dp629
g10
I1
sssg61
(dp630
Vcom.tencent.mobileqq
p631
(dp632
g10
F3.1000000000000001
ssVcom.huawei.android.launcher
p633
(dp634
g10
F18.199999999999999
ssVcom.huawei.appmarket
p635
(dp636
g10
F0.40000000000000002
ssVcom.baidu.tieba
p637
(dp638
g10
F0.40000000000000002
ssVcom.tencent.mtt
p639
(dp640
g10
F1.7000000000000002
ssVcom.tencent.mm
p641
(dp642
g10
F1.3
ssVcom.android.contacts
p643
(dp644
g10
F1.8
ssVcom.android.settings
p645
(dp646
g10
F0.90000000000000002
sssg63
(dp647
Vcom.huawei.hidisk
p648
(dp649
g10
F0.40000000000000002
ssg159
(dp650
g10
F1.3
ssVcom.android.email
p651
(dp652
g10
F0.40000000000000002
ssVcom.netease.cloudmusic
p653
(dp654
g10
F0.90000000000000002
ssVcom.android.browser
p655
(dp656
g10
F0.40000000000000002
ssg167
(dp657
g10
F1.3
ssVcom.netease.newsreader.activity
p658
(dp659
g10
F0.40000000000000002
ssVcom.android.contacts
p660
(dp661
g10
F0.40000000000000002
ssVcom.huawei.hwid
p662
(dp663
g10
F0.69999999999999996
ssVcom.huawei.systemmanager
p664
(dp665
g10
F7.700000000000002
ssVcom.huawei.android.launcher
p666
(dp667
g10
F50.700000000000017
ssVcom.huawei.appmarket
p668
(dp669
g10
F1.3
ssVcom.tencent.mtt
p670
(dp671
g10
F3.5
ssVcom.android.vpndialogs
p672
(dp673
g10
F1.3
ssVcom.tencent.mobileqq
p674
(dp675
g10
F37.699999999999974
ssVcom.hupu.games
p676
(dp677
g10
F0.40000000000000002
ssVcom.android.settings
p678
(dp679
g10
F0.69999999999999996
sssg65
(dp680
Vcom.android.browser
p681
(dp682
g10
F0.90000000000000002
ssg69
(dp683
g10
F0.90000000000000002
ssVcom.qiyi.video
p684
(dp685
g10
F2.2000000000000002
ssVcom.sdu.didi.psnger
p686
(dp687
g10
I1
ssVcom.android.deskclock
p688
(dp689
g10
F3.5
ssg153
(dp690
g10
F0.69999999999999996
ssVcom.hupu.games
p691
(dp692
g10
F0.90000000000000002
ssVcom.sina.weibo
p693
(dp694
g10
F0.40000000000000002
ssVcom.zhihu.android
p695
(dp696
g10
F2.6000000000000001
ssVcom.iflytek.ringdiyclient
p697
(dp698
g10
F1.3
ssVcom.hipu.yidian
p699
(dp700
g10
F1.3
ssg121
(dp701
g10
F1.7
ssg33
(dp702
g10
F0.40000000000000002
ssVcom.twitter.android
p703
(dp704
g10
F2.1999999999999997
ssVcom.huawei.systemmanager
p705
(dp706
g10
F5.5999999999999996
ssg639
(dp707
g10
F20.599999999999994
ssVcom.tencent.mobileqq
p708
(dp709
g10
F29.399999999999984
ssVandroid.zhibo8
p710
(dp711
g10
F0.90000000000000002
ssVcom.netease.cloudmusic
p712
(dp713
g10
F0.40000000000000002
ssg45
(dp714
g10
I1
ssVcom.baidu.lbs.waimai
p715
(dp716
g10
F1.8
ssVcom.instagram.android
p717
(dp718
g10
F0.40000000000000002
ssVcom.huawei.android.launcher
p719
(dp720
g10
F106.10000000000008
ssVcom.android.email
p721
(dp722
g10
F1.7
ssg490
(dp723
g10
F2
ssVcom.tencent.mm
p724
(dp725
g10
F5.4000000000000004
ssVcom.xdf.recite
p726
(dp727
g10
F1.7000000000000002
ssVcom.huawei.appmarket
p728
(dp729
g10
F0.80000000000000004
ssg147
(dp730
g10
I2
sssg67
(dp731
sg69
(dp732
g703
(dp733
g10
F0.90000000000000002
ssVcom.android.settings
p734
(dp735
g10
I1
ssVcom.huawei.android.launcher
p736
(dp737
g10
F0.69999999999999996
ssg153
(dp738
g10
F0.40000000000000002
sssg71
(dp739
Vcom.android.settings
p740
(dp741
g10
I1
ssVcom.huawei.systemmanager
p742
(dp743
g10
F1.3
ssVcom.huawei.android.launcher
p744
(dp745
g10
F1.7
sssg73
(dp746
Vcom.huawei.android.launcher
p747
(dp748
g10
F1.7
ssVcom.huawei.systemmanager
p749
(dp750
g10
F0.40000000000000002
ssVcom.tencent.mm
p751
(dp752
g10
I1
ssVcom.huawei.appmarket
p753
(dp754
g10
F0.90000000000000002
sssg75
(dp755
Vcom.zhihu.android
p756
(dp757
g10
F2.2000000000000002
ssVcom.huawei.hwvplayer
p758
(dp759
g10
F9.6000000000000014
ssVcom.taou.maimai
p760
(dp761
g10
F0.40000000000000002
ssVcom.baidu.lbs.waimai
p762
(dp763
g10
F0.69999999999999996
ssVcom.huawei.hidisk
p764
(dp765
g10
F4.5
ssVcom.huawei.android.launcher
p766
(dp767
g10
F4.2000000000000002
ssVcom.tencent.mtt
p768
(dp769
g10
F0.69999999999999996
ssVcom.tencent.mobileqq
p770
(dp771
g10
F3.7999999999999998
sssg77
(dp772
g267
(dp773
g10
F0.69999999999999996
ssVcom.tencent.mobileqq
p774
(dp775
g10
F0.90000000000000002
ssVcom.taobao.taobao
p776
(dp777
g10
F1.7
ssVcom.taou.maimai
p778
(dp779
g10
F2.8999999999999999
ssVcom.huawei.systemmanager
p780
(dp781
g10
F8.0000000000000018
ssVcom.baidu.tieba
p782
(dp783
g10
F1.3
ssVcom.huawei.android.launcher
p784
(dp785
g10
F22.399999999999999
ssVcom.tencent.mtt
p786
(dp787
g10
F0.90000000000000002
ssVcom.android.email
p788
(dp789
g10
F0.90000000000000002
ssVcom.tencent.mm
p790
(dp791
g10
F0.90000000000000002
ssg524
(dp792
g10
F1.3
sssg79
(dp793
g143
(dp794
g10
F0.40000000000000002
ssVcom.huawei.systemmanager
p795
(dp796
g10
F0.90000000000000002
ssVcom.huawei.android.launcher
p797
(dp798
g10
F1.7
sssg81
(dp799
g518
(dp800
g10
F1.3
ssVcom.huawei.hidisk
p801
(dp802
g10
F2.2999999999999998
ssVcom.huawei.systemmanager
p803
(dp804
g10
F0.90000000000000002
ssVcom.huawei.android.launcher
p805
(dp806
g10
F6
ssVcom.huawei.camera
p807
(dp808
g10
F0.90000000000000002
ssVcom.tencent.mtt
p809
(dp810
g10
F0.69999999999999996
sssg83
(dp811
Vcom.android.browser
p812
(dp813
g10
F0.40000000000000002
ssVcom.taou.maimai
p814
(dp815
g10
F2.5999999999999996
ssVcom.huawei.systemmanager
p816
(dp817
g10
F2.2000000000000002
ssVcom.huawei.android.launcher
p818
(dp819
g10
F8.1000000000000014
ssVcom.tencent.mtt
p820
(dp821
g10
F0.40000000000000002
ssVcom.tencent.mobileqq
p822
(dp823
g10
F0.90000000000000002
sssg85
(dp824
Vcom.tencent.mobileqq
p825
(dp826
g10
F1.7000000000000002
ssVcom.baidu.lbs.waimai
p827
(dp828
g10
F1.8
ssVcom.taou.maimai
p829
(dp830
g10
F2.2000000000000002
ssVcom.huawei.android.launcher
p831
(dp832
g10
F10.5
ssg53
(dp833
g10
I1
ssg77
(dp834
g10
F0.40000000000000002
ssg286
(dp835
g10
F6.1000000000000005
ssVcom.tencent.mtt
p836
(dp837
g10
F0.40000000000000002
ssg23
(dp838
g10
F2.3999999999999999
ssVcom.sankuai.meituan.takeoutnew
p839
(dp840
g10
F2.6000000000000001
sssg87
(dp841
Vcom.google.android.gm
p842
(dp843
g10
I1
ssVcom.android.settings
p844
(dp845
g10
F0.69999999999999996
ssVcom.google.android.gms
p846
(dp847
g10
F0.40000000000000002
ssVcom.huawei.android.launcher
p848
(dp849
g10
F0.90000000000000002
sssg89
(dp850
Vcom.android.browser
p851
(dp852
g10
I2
ssVcom.tencent.mtt
p853
(dp854
g10
I1
ssVcom.tencent.mm
p855
(dp856
g10
I1
ssVcom.huawei.android.launcher
p857
(dp858
g10
F1.8
ssVcom.tencent.mobileqq
p859
(dp860
g10
F0.69999999999999996
sssg91
(dp861
Vcom.huawei.systemmanager
p862
(dp863
g10
F1.3
ssVcom.huawei.android.launcher
p864
(dp865
g10
F3.4000000000000004
ssVcom.tencent.mtt
p866
(dp867
g10
F0.40000000000000002
ssg41
(dp868
g10
F0.90000000000000002
sssg93
(dp869
Vcom.android.calendar
p870
(dp871
g10
F0.90000000000000002
ssVfm.jihua.kecheng
p872
(dp873
g10
F2.2000000000000002
ssVcom.taou.maimai
p874
(dp875
g10
F7.2000000000000002
ssg121
(dp876
g10
F1.1000000000000001
ssg65
(dp877
g10
F3.8999999999999999
ssVcom.tencent.mm
p878
(dp879
g10
F2.7999999999999998
ssg299
(dp880
g10
F3.7999999999999998
ssg129
(dp881
g10
F1.3
ssVcom.huawei.systemmanager
p882
(dp883
g10
F11.200000000000003
ssVcom.huawei.android.launcher
p884
(dp885
g10
F68.40000000000002
ssg139
(dp886
g10
F0.90000000000000002
ssVcom.huawei.android.totemweather
p887
(dp888
g10
F0.90000000000000002
ssg35
(dp889
g10
F0.90000000000000002
ssVcom.tencent.mtt
p890
(dp891
g10
F6.1000000000000005
ssVcom.iflytek.ringdiyclient
p892
(dp893
g10
I1
ssVcom.tencent.mobileqq
p894
(dp895
g10
F23.699999999999999
ssg318
(dp896
g10
F0.90000000000000002
sssg95
(dp897
Vcom.android.settings
p898
(dp899
g10
F0.90000000000000002
ssVcom.taou.maimai
p900
(dp901
g10
F1.3999999999999999
ssVme.ele
p902
(dp903
g10
F2.5
ssVcom.huawei.android.launcher
p904
(dp905
g10
F38.600000000000001
ssVcom.tencent.mtt
p906
(dp907
g10
F0.40000000000000002
ssVcom.tencent.mobileqq
p908
(dp909
g10
F5.2000000000000002
ssVcom.android.contacts
p910
(dp911
g10
F0.90000000000000002
ssg23
(dp912
g10
I2
ssVcom.sankuai.meituan.takeoutnew
p913
(dp914
g10
F11.600000000000003
sssg97
(dp915
Vcom.tencent.mobileqq
p916
(dp917
g10
F11.300000000000001
ssVcom.tencent.mtt
p918
(dp919
g10
F0.40000000000000002
ssVcom.huawei.android.launcher
p920
(dp921
g10
F5.8000000000000007
sssg99
(dp922
Vcom.android.browser
p923
(dp924
g10
F0.69999999999999996
ssVcom.smartapp.easyvpn
p925
(dp926
g10
F17.699999999999999
ssg653
(dp927
g10
F0.40000000000000002
ssVcom.zhihu.android
p928
(dp929
g10
F0.40000000000000002
ssVcom.tencent.mobileqq
p930
(dp931
g10
F1.6000000000000001
ssVcom.android.packageinstaller
p932
(dp933
g10
F2.0999999999999996
ssVcom.tencent.mm
p934
(dp935
g10
F1.7000000000000002
ssVcom.android.gallery3d
p936
(dp937
g10
F0.90000000000000002
ssVcom.twitter.android
p938
(dp939
g10
F10.399999999999999
ssVcom.taou.maimai
p940
(dp941
g10
F1.6000000000000001
ssVcom.huawei.systemmanager
p942
(dp943
g10
F12.000000000000002
ssVcom.instagram.android
p944
(dp945
g10
F1.3999999999999999
ssVcom.huawei.android.launcher
p946
(dp947
g10
F59.999999999999957
ssVcom.huawei.appmarket
p948
(dp949
g10
F0.40000000000000002
ssVcom.baidu.tieba
p950
(dp951
g10
F0.90000000000000002
ssVcom.tencent.mtt
p952
(dp953
g10
F5.4000000000000004
ssVcom.android.email
p954
(dp955
g10
F2.7999999999999998
ssVfq.router2
p956
(dp957
g10
F13
ssg342
(dp958
g10
F2.2999999999999998
sssg101
(dp959
Vcom.android.settings
p960
(dp961
g10
F0.40000000000000002
ssVcom.tencent.mtt
p962
(dp963
g10
F0.90000000000000002
ssVcom.huawei.android.launcher
p964
(dp965
g10
F1.7
sssg103
(dp966
Vcom.huawei.hidisk
p967
(dp968
g10
F6.8000000000000007
ssVcom.android.settings
p969
(dp970
g10
F0.69999999999999996
ssg762
(dp971
g10
F1.3
ssVcom.huawei.hwid
p972
(dp973
g10
I1
ssVcom.huawei.android.launcher
p974
(dp975
g10
F9.1000000000000014
ssg619
(dp976
g10
F1.3
ssVcom.huawei.android.internal.app
p977
(dp978
g10
F3.6000000000000001
ssg768
(dp979
g10
F0.90000000000000002
ssg760
(dp980
g10
F0.69999999999999996
ssVcom.tencent.mobileqq
p981
(dp982
g10
F1.3
sssg105
(dp983
Vcom.huawei.android.launcher
p984
(dp985
g10
F1.3
ssVcom.tencent.mobileqq
p986
(dp987
g10
I1
ssVcom.huawei.appmarket
p988
(dp989
g10
F0.69999999999999996
sssg107
(dp990
g151
(dp991
g10
F0.90000000000000002
ssVcom.android.deskclock
p992
(dp993
g10
F0.40000000000000002
ssVcom.taou.maimai
p994
(dp995
g10
F0.90000000000000002
ssVcom.microsoft.office.officehub
p996
(dp997
g10
F3.4000000000000004
ssg693
(dp998
g10
F0.90000000000000002
ssVcom.android.contacts
p999
(dp1000
g10
F3.1000000000000001
ssg932
(dp1001
g10
F4.4000000000000004
ssg125
(dp1002
g10
F0.40000000000000002
ssVcom.huawei.systemmanager
p1003
(dp1004
g10
F5.1000000000000005
ssg145
(dp1005
g10
F1.3
ssg89
(dp1006
g10
I2
ssVcom.tencent.mtt
p1007
(dp1008
g10
F2.2000000000000002
ssVcom.huawei.fans
p1009
(dp1010
g10
F5.2000000000000002
ssVcom.tencent.mm
p1011
(dp1012
g10
F2.6000000000000001
ssVcom.sankuai.meituan.takeoutnew
p1013
(dp1014
g10
F0.40000000000000002
ssVcom.netease.cloudmusic
p1015
(dp1016
g10
F0.90000000000000002
ssVcom.baidu.lbs.waimai
p1017
(dp1018
g10
F0.90000000000000002
ssVcom.huawei.android.launcher
p1019
(dp1020
g10
F53.90000000000002
ssVcom.android.vpndialogs
p1021
(dp1022
g10
F0.90000000000000002
ssVcom.tencent.mobileqq
p1023
(dp1024
g10
F13.200000000000003
ssVcom.android.settings
p1025
(dp1026
g10
F1.3
ssVcom.huawei.hwid
p1027
(dp1028
g10
F0.69999999999999996
ssVcom.huawei.appmarket
p1029
(dp1030
g10
F4.4000000000000004
sssg109
(dp1031
Vcom.qiyi.video
p1032
(dp1033
g10
F0.90000000000000002
ssg15
(dp1034
g10
F0.90000000000000002
ssVcom.hupu.games
p1035
(dp1036
g10
F1.3
ssVfm.jihua.kecheng
p1037
(dp1038
g10
F1.7000000000000002
ssVcom.zhihu.android
p1039
(dp1040
g10
F1.7000000000000002
ssVcom.smartapp.easyvpn
p1041
(dp1042
g10
F0.40000000000000002
ssVcom.android.packageinstaller
p1043
(dp1044
g10
F0.40000000000000002
ssg161
(dp1045
g10
F0.40000000000000002
ssVcom.taobao.taobao
p1046
(dp1047
g10
F0.90000000000000002
ssVcom.twitter.android
p1048
(dp1049
g10
F2.6000000000000001
ssVcom.huawei.systemmanager
p1050
(dp1051
g10
F21.199999999999996
ssVcom.tencent.mtt
p1052
(dp1053
g10
F7.1000000000000014
ssVcom.tencent.mm
p1054
(dp1055
g10
F4
ssVcom.android.settings
p1056
(dp1057
g10
F1.3
ssVandroid.zhibo8
p1058
(dp1059
g10
F0.80000000000000004
ssVcom.netease.newsreader.activity
p1060
(dp1061
g10
F0.90000000000000002
ssVcom.huawei.android.launcher
p1062
(dp1063
g10
F109.8000000000001
ssVcom.android.email
p1064
(dp1065
g10
F1.7000000000000002
ssVcom.alibaba.android.rimet
p1066
(dp1067
g10
F0.90000000000000002
ssg242
(dp1068
g10
F13.500000000000004
ssg314
(dp1069
g10
F0.90000000000000002
ssVcom.huawei.appmarket
p1070
(dp1071
g10
F0.40000000000000002
sssg111
(dp1072
Vcom.android.browser
p1073
(dp1074
g10
F1.8
ssg8
(dp1075
g10
F0.40000000000000002
ssg11
(dp1076
g10
F1.7000000000000002
ssg613
(dp1077
g10
F2.2000000000000002
ssVcom.smartapp.easyvpn
p1078
(dp1079
g10
I1
ssg87
(dp1080
g10
F0.69999999999999996
ssVcom.android.email
p1081
(dp1082
g10
F1.3
ssg79
(dp1083
g10
F1.3
ssg603
(dp1084
g10
F3.1999999999999997
ssg125
(dp1085
g10
F0.90000000000000002
ssg127
(dp1086
g10
F2.1000000000000001
ssg749
(dp1087
g10
F6.200000000000002
ssVcom.vmall.client
p1088
(dp1089
g10
F0.40000000000000002
ssg623
(dp1090
g10
F18.899999999999999
ssg1054
(dp1091
g10
F4.5000000000000009
ssg43
(dp1092
g10
F1.3
ssVcom.netease.cloudmusic
p1093
(dp1094
g10
F0.90000000000000002
ssg617
(dp1095
g10
F85.600000000000065
ssg597
(dp1096
g10
F1.8
ssg171
(dp1097
g10
F1.3
ssg173
(dp1098
g10
F1.3
ssVcom.tencent.mobileqq
p1099
(dp1100
g10
F16.100000000000001
ssg59
(dp1101
g10
F33.299999999999997
ssVcom.baidu.tieba
p1102
(dp1103
g10
F0.40000000000000002
ssg468
(dp1104
g10
F1.3
ssg607
(dp1105
g10
F0.69999999999999996
sssg113
(dp1106
g1073
(dp1107
g10
I1
ssVcom.android.email
p1108
(dp1109
g10
F3.3999999999999999
ssVcom.zhihu.android
p1110
(dp1111
g10
F0.80000000000000004
ssVcom.android.settings
p1112
(dp1113
g10
F0.40000000000000002
ssVcom.twitter.android
p1114
(dp1115
g10
F15.500000000000005
ssVcom.taou.maimai
p1116
(dp1117
g10
F1.3999999999999999
ssg942
(dp1118
g10
F0.80000000000000004
ssg944
(dp1119
g10
F1.7000000000000002
ssg946
(dp1120
g10
F44.600000000000009
ssVcom.huawei.appmarket
p1121
(dp1122
g10
F1.5
ssVcom.baidu.tieba
p1123
(dp1124
g10
F0.69999999999999996
ssg952
(dp1125
g10
F2.6000000000000001
ssg99
(dp1126
g10
F19.300000000000001
sssg115
(dp1127
Vcom.android.browser
p1128
(dp1129
g10
F1.3
ssVcom.android.email
p1130
(dp1131
g10
F0.40000000000000002
ssVcom.huawei.vassistant
p1132
(dp1133
g10
F0.40000000000000002
ssVcom.taou.maimai
p1134
(dp1135
g10
F1.2000000000000002
ssVcom.tencent.mm
p1136
(dp1137
g10
F13.999999999999998
ssVcom.android.settings
p1138
(dp1139
g10
F2.7000000000000002
ssVcom.android.deskclock
p1140
(dp1141
g10
I1
ssVcom.huawei.hwid
p1142
(dp1143
g10
F0.69999999999999996
ssVcom.huawei.systemmanager
p1144
(dp1145
g10
F6.8000000000000016
ssVcom.huawei.android.launcher
p1146
(dp1147
g10
F119.30000000000007
ssVcom.huawei.camera
p1148
(dp1149
g10
F1.3999999999999999
ssVcom.huawei.appmarket
p1150
(dp1151
g10
F0.90000000000000002
ssg438
(dp1152
g10
F0.69999999999999996
ssVcom.baidu.tieba
p1153
(dp1154
g10
F0.40000000000000002
ssVcom.tencent.mtt
p1155
(dp1156
g10
F7.0000000000000018
ssVcom.android.vpndialogs
p1157
(dp1158
g10
F0.90000000000000002
ssVcom.tencent.mobileqq
p1159
(dp1160
g10
F46.899999999999963
ssVcom.hupu.games
p1161
(dp1162
g10
F0.90000000000000002
ssg133
(dp1163
g10
F0.40000000000000002
sssg117
(dp1164
Vcom.huawei.android.launcher
p1165
(dp1166
g10
I1
sssg119
(dp1167
Vcom.smartapp.easyvpn
p1168
(dp1169
g10
F0.40000000000000002
ssg1112
(dp1170
g10
F0.90000000000000002
ssVcom.android.packageinstaller
p1171
(dp1172
g10
F3
ssg135
(dp1173
g10
F0.90000000000000002
ssVcom.twitter.android
p1174
(dp1175
g10
F2.2000000000000002
ssg335
(dp1176
g10
F1.7000000000000002
ssVcom.huawei.systemmanager
p1177
(dp1178
g10
F4.2999999999999998
ssVcom.huawei.android.launcher
p1179
(dp1180
g10
F21.699999999999996
ssVcom.tencent.mtt
p1181
(dp1182
g10
F1.8
ssVcom.android.vpndialogs
p1183
(dp1184
g10
F5.8000000000000007
ssVfq.router2
p1185
(dp1186
g10
F0.40000000000000002
ssVcom.tencent.mobileqq
p1187
(dp1188
g10
F0.69999999999999996
sssg121
(dp1189
Vcom.android.settings
p1190
(dp1191
g10
I1
ssVcom.android.deskclock
p1192
(dp1193
g10
I2
ssVcom.huawei.hwid
p1194
(dp1195
g10
F0.69999999999999996
ssg719
(dp1196
g10
F2.2999999999999998
ssVcom.huawei.appmarket
p1197
(dp1198
g10
F1.3
ssVcom.tencent.mtt
p1199
(dp1200
g10
I1
ssg697
(dp1201
g10
F0.69999999999999996
sssg123
(dp1202
Vcom.baidu.lbs.waimai
p1203
(dp1204
g10
F1.8
ssVcom.huawei.android.launcher
p1205
(dp1206
g10
F2.7000000000000002
ssVcom.sankuai.meituan.takeoutnew
p1207
(dp1208
g10
F0.40000000000000002
sssg125
(dp1209
g127
(dp1210
g10
F0.90000000000000002
ssVcom.android.settings
p1211
(dp1212
g10
F1.6000000000000001
ssg147
(dp1213
g10
F0.40000000000000002
ssVcom.huawei.android.launcher
p1214
(dp1215
g10
F2.7000000000000002
ssVcom.huawei.systemmanager
p1216
(dp1217
g10
F0.40000000000000002
sssg127
(dp1218
g69
(dp1219
g10
F0.69999999999999996
ssg1116
(dp1220
g10
I1
ssg412
(dp1221
g10
F0.90000000000000002
ssVcom.smartapp.easyvpn
p1222
(dp1223
g10
F5.4000000000000004
ssVcom.sina.weibo
p1224
(dp1225
g10
F0.90000000000000002
ssg117
(dp1226
g10
F0.40000000000000002
ssVcom.zhihu.android
p1227
(dp1228
g10
F4
ssVcom.android.vpndialogs
p1229
(dp1230
g10
F10.800000000000002
ssVcom.android.packageinstaller
p1231
(dp1232
g10
F0.69999999999999996
ssg377
(dp1233
g10
F1.3
ssg33
(dp1234
g10
F3.3999999999999999
ssVcom.taobao.taobao
p1235
(dp1236
g10
F0.90000000000000002
ssVcom.huawei.systemmanager
p1237
(dp1238
g10
F3.2999999999999998
ssVcom.tencent.mtt
p1239
(dp1240
g10
F3.2999999999999998
ssVcom.tencent.mm
p1241
(dp1242
g10
F1.3
ssVcom.instagram.android
p1243
(dp1244
g10
F5.4000000000000004
ssg736
(dp1245
g10
F63.000000000000036
ssVcom.android.email
p1246
(dp1247
g10
F2.2000000000000002
ssVcom.tencent.mobileqq
p1248
(dp1249
g10
F2.3999999999999999
ssg153
(dp1250
g10
F1.3
ssg1211
(dp1251
g10
F1.3999999999999999
ssVcom.huawei.hwid
p1252
(dp1253
g10
F2.2999999999999998
ssg1123
(dp1254
g10
F1.3
ssVcom.huawei.appmarket
p1255
(dp1256
g10
F5.2000000000000002
ssg147
(dp1257
g10
F0.90000000000000002
ssVfq.router2
p1258
(dp1259
g10
F1.3
sssg129
(dp1260
Vcom.android.browser
p1261
(dp1262
g10
F0.40000000000000002
ssg758
(dp1263
g10
F7.2000000000000011
ssg762
(dp1264
g10
F0.40000000000000002
ssVcom.android.settings
p1265
(dp1266
g10
F1.3
ssVcom.android.packageinstaller
p1267
(dp1268
g10
I1
ssVcom.adobe.reader
p1269
(dp1270
g10
F0.69999999999999996
ssVcom.android.gallery3d
p1271
(dp1272
g10
I1
ssg760
(dp1273
g10
F0.90000000000000002
ssVcom.huawei.systemmanager
p1274
(dp1275
g10
F0.40000000000000002
ssVcom.huawei.android.launcher
p1276
(dp1277
g10
F13.399999999999997
ssVcom.huawei.android.internal.app
p1278
(dp1279
g10
F9.6000000000000014
ssVcom.tencent.mtt
p1280
(dp1281
g10
F5.7000000000000002
ssVcom.tencent.mobileqq
p1282
(dp1283
g10
F1.3
sssg131
(dp1284
g397
(dp1285
g10
F5.7000000000000011
ssVcom.record.myLife
p1286
(dp1287
g10
F1.8
ssVcom.android.vpndialogs
p1288
(dp1289
g10
F10.700000000000001
ssg71
(dp1290
g10
F1.3
ssVcom.android.deskclock
p1291
(dp1292
g10
F6.9000000000000012
ssVcom.taou.maimai
p1293
(dp1294
g10
F2.2000000000000002
ssg483
(dp1295
g10
F4.7000000000000002
ssVcom.hupu.games
p1296
(dp1297
g10
F3.2000000000000002
ssVfm.jihua.kecheng
p1298
(dp1299
g10
F4.5
ssg601
(dp1300
g10
F1.3
ssVcom.android.contacts
p1301
(dp1302
g10
F1.2000000000000002
ssVcom.zhihu.android
p1303
(dp1304
g10
F3.1000000000000001
ssg25
(dp1305
g10
F0.90000000000000002
ssg27
(dp1306
g10
F1.8
ssVcom.huawei.android.thememanager
p1307
(dp1308
g10
F0.69999999999999996
ssVcom.android.gallery3d
p1309
(dp1310
g10
F0.90000000000000002
ssVcom.taobao.taobao
p1311
(dp1312
g10
F0.90000000000000002
ssVcom.twitter.android
p1313
(dp1314
g10
F1.8
ssg648
(dp1315
g10
F0.90000000000000002
ssg89
(dp1316
g10
F0.69999999999999996
ssg890
(dp1317
g10
F19.799999999999997
ssVcom.huawei.fans
p1318
(dp1319
g10
F0.40000000000000002
ssVcom.tencent.mm
p1320
(dp1321
g10
F9.6000000000000032
ssVcom.android.settings
p1322
(dp1323
g10
F6.2000000000000002
ssg1058
(dp1324
g10
F2.2000000000000002
ssVcom.netease.cloudmusic
p1325
(dp1326
g10
F3.1000000000000001
ssVcom.baidu.lbs.waimai
p1327
(dp1328
g10
F1.8
ssVcom.instagram.android
p1329
(dp1330
g10
F0.69999999999999996
ssVcom.huawei.android.launcher
p1331
(dp1332
g10
F182.09999999999997
ssg807
(dp1333
g10
F1.1000000000000001
ssg1081
(dp1334
g10
F4.5
ssg440
(dp1335
g10
F0.40000000000000002
ssVcom.tencent.mobileqq
p1336
(dp1337
g10
F17.600000000000005
ssVcom.huawei.hwvplayer
p1338
(dp1339
g10
F0.40000000000000002
ssVcom.huawei.vassistant
p1340
(dp1341
g10
F1.3
ssg141
(dp1342
g10
F0.90000000000000002
ssg143
(dp1343
g10
F0.90000000000000002
ssg59
(dp1344
g10
F4.2000000000000002
ssg950
(dp1345
g10
F2.6000000000000001
ssg111
(dp1346
g10
F7.8000000000000025
ssVcom.huawei.android.internal.app
p1347
(dp1348
g10
F0.69999999999999996
ssVcom.sankuai.meituan.takeoutnew
p1349
(dp1350
g10
F1.2000000000000002
ssVfq.router2
p1351
(dp1352
g10
F1.3
sssg133
(dp1353
Vcom.tencent.mobileqq
p1354
(dp1355
g10
F1.3
ssg827
(dp1356
g10
F1.3
ssVcom.huawei.systemmanager
p1357
(dp1358
g10
F0.90000000000000002
ssg900
(dp1359
g10
F1.7000000000000002
ssg85
(dp1360
g10
F5.3000000000000007
ssVcom.huawei.android.launcher
p1361
(dp1362
g10
F29.099999999999994
ssVcom.android.systemui
p1363
(dp1364
g10
F0.69999999999999996
ssVcom.tencent.mm
p1365
(dp1366
g10
F8.3000000000000007
ssVcom.eg.android.AlipayGphone
p1367
(dp1368
g10
I1
sssg135
(dp1369
sg137
(dp1370
g107
(dp1371
g10
F60.200000000000031
ssg117
(dp1372
g10
F1.7
ssg31
(dp1373
g10
F2.2000000000000002
ssg33
(dp1374
g10
F2.6000000000000001
ssg139
(dp1375
g10
F4
ssg149
(dp1376
g10
F2.7000000000000002
ssg151
(dp1377
g10
I1
ssg67
(dp1378
g10
I1
ssg71
(dp1379
g10
F2.3999999999999999
ssg69
(dp1380
g10
F0.40000000000000002
ssg11
(dp1381
g10
F10.199999999999999
ssg143
(dp1382
g10
F4.4000000000000004
ssVcom.android.deskclock
p1383
(dp1384
g10
F141
ssg109
(dp1385
g10
F114.90000000000013
ssg15
(dp1386
g10
F1.3999999999999999
ssg8
(dp1387
g10
F13.6
ssg125
(dp1388
g10
F2.7000000000000002
ssg73
(dp1389
g10
F1.7
ssg113
(dp1390
g10
F41.100000000000009
ssg19
(dp1391
g10
I1
ssg1296
(dp1392
g10
F28.899999999999991
ssg77
(dp1393
g10
F37.700000000000003
ssg157
(dp1394
g10
F10.5
ssg115
(dp1395
g10
F160.40000000000009
ssg23
(dp1396
g10
F11.100000000000001
ssg161
(dp1397
g10
F4.4000000000000004
ssg159
(dp1398
g10
F44.5
ssg51
(dp1399
g10
F39
ssg27
(dp1400
g10
F20.299999999999997
ssg121
(dp1401
g10
F7.5000000000000009
ssVcom.microsoft.office.officehub
p1402
(dp1403
g10
F1.7
ssg29
(dp1404
g10
F36.59999999999998
ssg123
(dp1405
g10
I2
ssg81
(dp1406
g10
F12.499999999999998
ssg131
(dp1407
g10
F466.09999999999815
ssg83
(dp1408
g10
F11
ssg99
(dp1409
g10
F74.000000000000014
ssg129
(dp1410
g10
F16.499999999999996
ssg85
(dp1411
g10
F14.999999999999996
ssg91
(dp1412
g10
F2.7000000000000002
ssg87
(dp1413
g10
F1.3
ssg89
(dp1414
g10
F5.2000000000000002
ssg35
(dp1415
g10
F4.4000000000000004
ssg163
(dp1416
g10
F410.89999999999827
ssg165
(dp1417
g10
F9.5
ssg167
(dp1418
g10
F235.69999999999962
ssg169
(dp1419
g10
F2.6000000000000001
ssg133
(dp1420
g10
F31.599999999999991
ssg171
(dp1421
g10
F2.3999999999999999
ssg41
(dp1422
g10
F1.7
ssg43
(dp1423
g10
F17
ssg93
(dp1424
g10
F59.200000000000017
ssg45
(dp1425
g10
F2.6000000000000001
ssg95
(dp1426
g10
F36.399999999999999
ssg135
(dp1427
g10
F1.7
ssg145
(dp1428
g10
I1
ssg97
(dp1429
g10
F6.8000000000000007
ssg119
(dp1430
g10
F21.199999999999999
ssg49
(dp1431
g10
F25.499999999999993
ssg101
(dp1432
g10
I1
ssg25
(dp1433
g10
F4
ssg37
(dp1434
g10
F0.40000000000000002
ssg440
(dp1435
g10
F3.3999999999999999
ssg39
(dp1436
g10
F840.60000000000025
ssg153
(dp1437
g10
F1.7
ssg103
(dp1438
g10
F4.5
ssg55
(dp1439
g10
F22.999999999999996
ssg173
(dp1440
g10
F3.5999999999999996
ssg127
(dp1441
g10
F59.200000000000017
ssg141
(dp1442
g10
F4.4000000000000004
ssg65
(dp1443
g10
F109.70000000000007
ssg57
(dp1444
g10
F12.499999999999998
ssg105
(dp1445
g10
F0.90000000000000002
ssg175
(dp1446
g10
F3.7000000000000002
ssg177
(dp1447
g10
F3.3999999999999999
ssg59
(dp1448
g10
F38.19999999999996
ssVcom.android.keyguard
p1449
(dp1450
g10
I3
ssg63
(dp1451
g10
F52.300000000000018
ssg21
(dp1452
g10
F3.7000000000000002
ssg111
(dp1453
g10
F82.900000000000091
ssg1278
(dp1454
g10
F4.7999999999999998
ssg147
(dp1455
g10
F1.6000000000000001
ssg179
(dp1456
g10
F26.899999999999991
ssg79
(dp1457
g10
I1
sssg139
(dp1458
Vcom.tencent.mobileqq
p1459
(dp1460
g10
I1
ssVcom.huawei.android.launcher
p1461
(dp1462
g10
F2.2999999999999998
ssVcom.taou.maimai
p1463
(dp1464
g10
F0.69999999999999996
sssg141
(dp1465
Vcom.android.deskclock
p1466
(dp1467
g10
F0.90000000000000002
ssVcom.taou.maimai
p1468
(dp1469
g10
F0.90000000000000002
ssVcom.huawei.android.launcher
p1470
(dp1471
g10
F2.7000000000000002
sssg143
(dp1472
g81
(dp1473
g10
F0.90000000000000002
ssVcom.tencent.mtt
p1474
(dp1475
g10
F0.90000000000000002
ssVcom.huawei.appmarket
p1476
(dp1477
g10
F0.40000000000000002
ssVcom.huawei.android.launcher
p1478
(dp1479
g10
F4.4000000000000004
ssg801
(dp1480
g10
F0.40000000000000002
sssg145
(dp1481
Vcom.tencent.mobileqq
p1482
(dp1483
g10
I1
ssVcom.huawei.fans
p1484
(dp1485
g10
F1.8
ssVcom.huawei.android.launcher
p1486
(dp1487
g10
F3.4000000000000004
ssVcom.android.browser
p1488
(dp1489
g10
F0.40000000000000002
sssg147
(dp1490
g703
(dp1491
g10
F0.69999999999999996
ssg734
(dp1492
g10
F2.5999999999999996
ssg721
(dp1493
g10
F0.90000000000000002
ssg736
(dp1494
g10
F0.40000000000000002
ssg69
(dp1495
g10
I1
sssg149
(dp1496
Vcom.huawei.android.launcher
p1497
(dp1498
g10
I1
sssg151
(dp1499
Vcom.android.browser
p1500
(dp1501
g10
F0.90000000000000002
ssVcom.huawei.android.launcher
p1502
(dp1503
g10
F1.7
ssVcom.tencent.mobileqq
p1504
(dp1505
g10
F0.40000000000000002
sssg153
(dp1506
Vcom.android.settings
p1507
(dp1508
g10
F0.40000000000000002
ssg379
(dp1509
g10
F2.3999999999999999
ssg33
(dp1510
g10
I1
ssg381
(dp1511
g10
F1.3
sssg155
(dp1512
g1329
(dp1513
g10
F1.3
ssVcom.tencent.mm
p1514
(dp1515
g10
F0.80000000000000004
ssVcom.android.deskclock
p1516
(dp1517
g10
F0.40000000000000002
ssVcom.taou.maimai
p1518
(dp1519
g10
F0.40000000000000002
ssVcom.huawei.systemmanager
p1520
(dp1521
g10
F3.1000000000000001
ssVcom.huawei.android.launcher
p1522
(dp1523
g10
F27.499999999999993
ssVcom.tencent.mtt
p1524
(dp1525
g10
F5.8000000000000007
ssVcom.tencent.mobileqq
p1526
(dp1527
g10
F9.2000000000000011
ssVcom.android.contacts
p1528
(dp1529
g10
F0.90000000000000002
ssg117
(dp1530
g10
F0.90000000000000002
sssg157
(dp1531
Vcom.zhihu.android
p1532
(dp1533
g10
F0.40000000000000002
ssVcom.tencent.mm
p1534
(dp1535
g10
F0.40000000000000002
ssVcom.huawei.systemmanager
p1536
(dp1537
g10
F0.40000000000000002
ssVcom.huawei.android.launcher
p1538
(dp1539
g10
F5.1000000000000005
ssVfm.jihua.kecheng
p1540
(dp1541
g10
F0.90000000000000002
ssVcom.tencent.mobileqq
p1542
(dp1543
g10
F1.8
sssg159
(dp1544
Vcom.twitter.android
p1545
(dp1546
g10
F0.90000000000000002
ssVcom.tencent.mm
p1547
(dp1548
g10
F1.7999999999999998
ssVcom.android.packageinstaller
p1549
(dp1550
g10
F0.90000000000000002
ssg936
(dp1551
g10
F0.40000000000000002
ssg1291
(dp1552
g10
F0.80000000000000004
ssVcom.taou.maimai
p1553
(dp1554
g10
F1.8
ssVcom.huawei.systemmanager
p1555
(dp1556
g10
F8.8000000000000025
ssVcom.huawei.android.launcher
p1557
(dp1558
g10
F43.400000000000006
ssVcom.android.settings
p1559
(dp1560
g10
F2.6000000000000001
ssg75
(dp1561
g10
F3.1000000000000001
ssVcom.baidu.tieba
p1562
(dp1563
g10
F1.7000000000000002
ssVcom.tencent.mtt
p1564
(dp1565
g10
F3
ssVcom.android.vpndialogs
p1566
(dp1567
g10
F1.3
ssVcom.tencent.mobileqq
p1568
(dp1569
g10
F83.800000000000082
ssg37
(dp1570
g10
F0.69999999999999996
sssg161
(dp1571
Vcom.hupu.games
p1572
(dp1573
g10
F1.3
ssVcom.huawei.android.launcher
p1574
(dp1575
g10
I3
ssVcom.huawei.systemmanager
p1576
(dp1577
g10
F0.69999999999999996
sssg163
(dp1578
Vcom.android.browser
p1579
(dp1580
g10
F3.7999999999999998
ssVcom.qiyi.video
p1581
(dp1582
g10
F1.3
ssVcom.android.deskclock
p1583
(dp1584
g10
F3.1000000000000001
ssg109
(dp1585
g10
F8.9000000000000004
ssg15
(dp1586
g10
F0.69999999999999996
ssg73
(dp1587
g10
F0.40000000000000002
ssVcom.huawei.android.internal.app
p1588
(dp1589
g10
F1.3999999999999999
ssVcom.hupu.games
p1590
(dp1591
g10
F4.4000000000000004
ssg113
(dp1592
g10
F4.5000000000000009
ssg157
(dp1593
g10
F1.8
ssVcom.android.contacts
p1594
(dp1595
g10
F4.5
ssVcom.zhihu.android
p1596
(dp1597
g10
F2.6999999999999997
ssg1108
(dp1598
g10
F2.7000000000000002
ssg565
(dp1599
g10
F1.8
ssg423
(dp1600
g10
F1.3999999999999999
ssg29
(dp1601
g10
F31.399999999999991
ssVme.ele
p1602
(dp1603
g10
F0.40000000000000002
ssg1114
(dp1604
g10
F3.1000000000000001
ssVcom.huawei.hidisk
p1605
(dp1606
g10
F3.1999999999999997
ssVcom.huawei.systemmanager
p1607
(dp1608
g10
F46.49999999999995
ssg1088
(dp1609
g10
F0.90000000000000002
ssg1318
(dp1610
g10
F1.3
ssVcom.tencent.mm
p1611
(dp1612
g10
F19.699999999999999
ssg466
(dp1613
g10
F12.500000000000004
ssVandroid.zhibo8
p1614
(dp1615
g10
F9.2000000000000011
ssVcom.netease.cloudmusic
p1616
(dp1617
g10
F1.3
ssVcom.baidu.lbs.waimai
p1618
(dp1619
g10
F2.7000000000000002
ssg119
(dp1620
g10
F2.2000000000000002
ssVcom.huawei.android.launcher
p1621
(dp1622
g10
F375.89999999999884
ssg99
(dp1623
g10
F5.1000000000000005
ssg101
(dp1624
g10
F0.90000000000000002
ssg171
(dp1625
g10
F0.40000000000000002
ssVcom.huawei.hwvplayer
p1626
(dp1627
g10
F0.80000000000000004
ssVcom.huawei.vassistant
p1628
(dp1629
g10
F1.7000000000000002
ssVcom.immomo.momo
p1630
(dp1631
g10
F0.90000000000000002
ssVcom.tencent.mobileqq
p1632
(dp1633
g10
F170.9000000000002
ssVcom.xdf.recite
p1634
(dp1635
g10
F1.8
ssVcom.huawei.hwid
p1636
(dp1637
g10
F4.2000000000000002
ssg359
(dp1638
g10
F10.100000000000001
ssVcom.huawei.appmarket
p1639
(dp1640
g10
F14.400000000000004
ssg179
(dp1641
g10
F4.2999999999999998
sssg165
(dp1642
Vcom.android.browser
p1643
(dp1644
g10
F7.4000000000000004
ssg932
(dp1645
g10
F4
ssVcom.twitter.android
p1646
(dp1647
g10
F0.40000000000000002
ssVcom.huawei.hwid
p1648
(dp1649
g10
F1.7
ssVcom.huawei.android.launcher
p1650
(dp1651
g10
F8.8000000000000007
ssVcom.huawei.appmarket
p1652
(dp1653
g10
F1.7000000000000002
ssg1021
(dp1654
g10
F3.1000000000000001
ssVfq.router2
p1655
(dp1656
g10
F1.3
sssg167
(dp1657
Vcom.android.browser
p1658
(dp1659
g10
F2
ssg1286
(dp1660
g10
F0.40000000000000002
ssVcom.android.deskclock
p1661
(dp1662
g10
F1.3
ssVcom.taou.maimai
p1663
(dp1664
g10
F7.6000000000000005
ssg17
(dp1665
g10
F2.6000000000000001
ssg1296
(dp1666
g10
F0.40000000000000002
ssg1298
(dp1667
g10
F0.80000000000000004
ssVcom.sina.weibo
p1668
(dp1669
g10
F0.90000000000000002
ssVcom.android.contacts
p1670
(dp1671
g10
F1.7
ssVcom.eg.android.AlipayGphone
p1672
(dp1673
g10
F0.90000000000000002
ssVcom.zhihu.android
p1674
(dp1675
g10
F3.4999999999999996
ssVcom.android.vpndialogs
p1676
(dp1677
g10
F0.40000000000000002
ssVcom.android.packageinstaller
p1678
(dp1679
g10
F0.69999999999999996
ssg1309
(dp1680
g10
F0.40000000000000002
ssVcom.huawei.systemmanager
p1681
(dp1682
g10
F48.499999999999943
ssVcom.twitter.android
p1683
(dp1684
g10
F0.40000000000000002
ssVme.ele
p1685
(dp1686
g10
F3.7000000000000002
ssg1363
(dp1687
g10
F1.3999999999999999
ssg438
(dp1688
g10
F0.90000000000000002
ssVcom.tencent.mtt
p1689
(dp1690
g10
F26.599999999999984
ssVcom.tencent.mobileqq
p1691
(dp1692
g10
F49.499999999999972
ssVcom.shanbay.words
p1693
(dp1694
g10
F1.7
ssVcom.sankuai.meituan.takeoutnew
p1695
(dp1696
g10
F3.7999999999999998
ssg25
(dp1697
g10
F0.40000000000000002
ssVandroid.zhibo8
p1698
(dp1699
g10
F0.40000000000000002
ssVcom.netease.cloudmusic
p1700
(dp1701
g10
F2.2999999999999998
ssVcom.huawei.appmarket
p1702
(dp1703
g10
F3
ssVcom.huawei.android.launcher
p1704
(dp1705
g10
F220.79999999999967
ssVcom.android.email
p1706
(dp1707
g10
F1.3
ssVcom.android.settings
p1708
(dp1709
g10
F4.5
ssVcom.liulishuo.engzo
p1710
(dp1711
g10
F2.7000000000000002
ssVcom.huawei.hwid
p1712
(dp1713
g10
F0.69999999999999996
ssg1102
(dp1714
g10
F5.2000000000000002
ssVcom.xdf.recite
p1715
(dp1716
g10
F1.1000000000000001
ssg384
(dp1717
g10
F0.40000000000000002
sssg169
(dp1718
Vcom.huawei.android.launcher
p1719
(dp1720
g10
F0.90000000000000002
ssg591
(dp1721
g10
F1.7
sssg171
(dp1722
g844
(dp1723
g10
F1.7000000000000002
ssg846
(dp1724
g10
F0.69999999999999996
ssg848
(dp1725
g10
F1.7
ssg87
(dp1726
g10
I1
sssg173
(dp1727
Vcom.tencent.mobileqq
p1728
(dp1729
g10
F0.90000000000000002
ssVcom.huawei.systemmanager
p1730
(dp1731
g10
F0.90000000000000002
ssVcom.huawei.android.launcher
p1732
(dp1733
g10
F2.7000000000000002
ssVcom.netease.cloudmusic
p1734
(dp1735
g10
F0.40000000000000002
sssg175
(dp1736
Vcom.tencent.mobileqq
p1737
(dp1738
g10
F1.3
ssVcom.tencent.mm
p1739
(dp1740
g10
F0.40000000000000002
ssVcom.huawei.android.launcher
p1741
(dp1742
g10
F3.4000000000000004
sssg177
(dp1743
Vcom.huawei.android.launcher
p1744
(dp1745
g10
F3.3999999999999999
ssVcom.tencent.mm
p1746
(dp1747
g10
F2.7000000000000002
ssg579
(dp1748
g10
F0.40000000000000002
ssg1715
(dp1749
g10
F1.3
sssg179
(dp1750
Vcom.android.email
p1751
(dp1752
g10
F2.6000000000000001
ssg1243
(dp1753
g10
F2.5
ssVcom.taou.maimai
p1754
(dp1755
g10
F1.7000000000000002
ssVcom.android.packageinstaller
p1756
(dp1757
g10
F1.7000000000000002
ssg135
(dp1758
g10
F0.40000000000000002
ssg1646
(dp1759
g10
F6.5000000000000009
ssVcom.huawei.hwid
p1760
(dp1761
g10
F0.40000000000000002
ssVcom.huawei.android.launcher
p1762
(dp1763
g10
F29.399999999999988
ssg948
(dp1764
g10
F0.69999999999999996
ssVcom.tencent.mtt
p1765
(dp1766
g10
F0.40000000000000002
ssVcom.android.vpndialogs
p1767
(dp1768
g10
I11
ssVcom.tencent.mobileqq
p1769
(dp1770
g10
F3
ssssS'edge'
p1771
g184
sS'pred'
p1772
(dp1773
g8
(dp1774
Vcom.tencent.mm
p1775
g1660
sg186
g324
sVcom.android.deskclock
p1776
g215
sVcom.huawei.systemmanager
p1777
g1287
sVcom.huawei.android.launcher
p1778
g1387
sg988
g1075
sVcom.tencent.mobileqq
p1779
g409
ssg11
(dp1780
g205
g1033
sg201
g685
sg31
g371
sg1636
g609
sVcom.huawei.android.launcher
p1781
g1381
sVcom.huawei.appmarket
p1782
g1076
sVcom.tencent.mtt
p1783
g1582
sg211
g403
ssg13
(dp1784
Vcom.android.browser
p1785
g993
sg1286
g189
sg712
g880
sVcom.zhihu.android
p1786
g1552
sg218
g1193
sVcom.android.settings
p1787
g689
sVcom.android.packageinstaller
p1788
g326
sVcom.tencent.mm
p1789
g1662
sg141
g1467
sVcom.huawei.systemmanager
p1790
g1292
sg229
g1384
sVcom.xdf.recite
p1791
g583
sVcom.tencent.mtt
p1792
g1584
sg697
g300
sVcom.tencent.mobileqq
p1793
g406
sVcom.android.contacts
p1794
g1141
sg1161
g1517
ssg15
(dp1795
Vcom.taou.maimai
p1796
g1034
sVcom.tencent.mtt
p1797
g1586
sVcom.huawei.android.launcher
p1798
g1386
ssg17
(dp1799
g249
g1403
sVcom.tencent.mm
p1800
g1665
sVcom.tencent.mobileqq
p1801
g443
sg251
g997
ssg19
(dp1802
Vcom.huawei.android.launcher
p1803
g1391
ssg21
(dp1804
g267
g629
sg526
g792
sVcom.huawei.android.launcher
p1805
g1452
sg1628
g573
sVcom.huawei.camera
p1806
g525
ssg23
(dp1807
Vcom.tencent.mobileqq
p1808
g418
sg827
g912
sg85
g838
sg1361
g1396
sVcom.tencent.mm
p1809
g1673
sVcom.sankuai.meituan.takeoutnew
p1810
g1368
ssg25
(dp1811
g297
g893
sg121
g1201
sg65
g698
sVcom.huawei.systemmanager
p1812
g1305
sVcom.huawei.android.launcher
p1813
g1433
sg1611
g1697
ssg27
(dp1814
Vcom.android.settings
p1815
g700
sVcom.huawei.systemmanager
p1816
g1306
sVcom.huawei.android.launcher
p1817
g1400
sg1066
g566
sVcom.tencent.mobileqq
p1818
g422
sg563
g1599
ssg29
(dp1819
g1643
g1001
sg1021
g933
sg335
g1268
sg956
g1757
sVcom.tencent.mm
p1820
g1679
sVcom.twitter.android
p1821
g1232
sVcom.huawei.hwid
p1822
g604
sVcom.instagram.android
p1823
g1172
sVcom.huawei.android.launcher
p1824
g1404
sVcom.huawei.appmarket
p1825
g1084
sVcom.taou.maimai
p1826
g1044
sVcom.zhihu.android
p1827
g1550
sVcom.tencent.mtt
p1828
g1601
sVcom.huawei.fans
p1829
g1645
sg1336
g425
sg8
g187
ssg31
(dp1830
Vcom.tencent.mobileqq
p1831
g426
sVcom.huawei.android.launcher
p1832
g1373
sg199
g1270
ssg33
(dp1833
g703
g1234
sg734
g702
sg736
g1374
sg807
g517
sg153
g1510
ssg35
(dp1834
Vcom.netease.cloudmusic
p1835
g889
sVcom.tencent.mm
p1836
g1688
sVcom.huawei.android.launcher
p1837
g1415
sVcom.huawei.appmarket
p1838
g1089
sVcom.tencent.mtt
p1839
g1609
sVcom.tencent.mobileqq
p1840
g439
sVcom.android.contacts
p1841
g1152
ssg37
(dp1842
g1827
g1570
sg1549
g341
sVcom.huawei.android.launcher
p1843
g1434
sVcom.tencent.mobileqq
p1844
g399
ssg39
(dp1845
Vcom.android.browser
p1846
g1024
sg323
g197
sg231
g1460
sg151
g1505
sg11
g212
sg405
g238
sg1796
g1068
sg15
g243
sg996
g256
sg19
g265
sVcom.hupu.games
p1847
g1527
sVfm.jihua.kecheng
p1848
g775
sg157
g1543
sg115
g1160
sVcom.eg.android.AlipayGphone
p1849
g277
sg159
g1569
sg1157
g931
sVcom.hipu.yidian
p1850
g305
sg186
g344
sg31
g367
sVcom.huawei.systemmanager
p1851
g1337
sVcom.taobao.taobao
p1852
g823
sVcom.twitter.android
p1853
g1249
sg199
g1283
sVme.ele
p1854
g826
sVcom.biganiseed.reindeer
p1855
g1483
sg436
g860
sVcom.tencent.mtt
p1856
g1633
sg167
g1692
sg1013
g1355
sg43
g499
sg93
g895
sg45
g506
sVcom.baidu.lbs.waimai
p1857
g909
sg97
g917
sVcom.instagram.android
p1858
g1188
sVcom.huawei.android.launcher
p1859
g1436
sg49
g529
sg1081
g555
sVcom.huawei.hwvplayer
p1860
g982
sVcom.huawei.vassistant
p1861
g570
sg463
g1729
sg105
g987
sVcom.android.settings
p1862
g709
sg1715
g580
sVcom.example.android.notepad
p1863
g1738
sVcom.liulishuo.engzo
p1864
g1748
sg1636
g627
sVcom.android.keyguard
p1865
g632
sg63
g675
sVcom.huawei.appmarket
p1866
g1100
sg75
g771
sg478
g1770
ssg41
(dp1867
g574
g868
sVcom.huawei.android.launcher
p1868
g1422
sVcom.huawei.vassistant
p1869
g568
ssg43
(dp1870
Vcom.huawei.hwid
p1871
g599
sVcom.android.settings
p1872
g711
sg1043
g346
sVcom.tencent.mm
p1873
g1699
sVcom.taou.maimai
p1874
g1059
sVcom.huawei.systemmanager
p1875
g1324
sVcom.huawei.android.launcher
p1876
g1423
sVcom.huawei.appmarket
p1877
g1092
sg496
g1615
sg822
g446
ssg45
(dp1878
Vcom.tencent.mobileqq
p1879
g448
sVcom.huawei.android.launcher
p1880
g1425
sVcom.android.settings
p1881
g714
ssg47
(dp1882
sg49
(dp1883
g103
g976
sg1309
g808
sg972
g620
sg1237
g1333
sVcom.huawei.android.launcher
p1884
g1431
sVcom.tencent.mobileqq
p1885
g457
sVcom.android.contacts
p1886
g1149
ssg51
(dp1887
Vcom.android.vpndialogs
p1888
g955
sVfm.jihua.kecheng
p1889
g789
sVcom.tencent.mobileqq
p1890
g458
sg539
g1752
sVcom.android.contacts
p1891
g1131
sg1853
g1247
sVcom.taou.maimai
p1892
g1065
sg749
g1334
sVcom.huawei.android.launcher
p1893
g1399
sg753
g1082
sVcom.baidu.tieba
p1894
g652
sVcom.tencent.mtt
p1895
g1598
sVcom.smartapp.easyvpn
p1896
g1109
sVcom.tencent.mm
p1897
g1707
sg846
g1493
sg844
g722
ssg53
(dp1898
g554
g441
sVme.ele
p1899
g833
sVcom.huawei.android.launcher
p1900
g1435
sVcom.huawei.systemmanager
p1901
g1335
sVcom.taou.maimai
p1902
g1067
ssg55
(dp1903
Vcom.android.contacts
p1904
g1133
sg269
g1341
sVcom.huawei.android.launcher
p1905
g1439
sVcom.tencent.mtt
p1906
g1629
sVcom.tencent.mobileqq
p1907
g462
sg21
g274
ssg57
(dp1908
Vcom.tencent.mobileqq
p1909
g469
sg1710
g1749
sVcom.huawei.android.launcher
p1910
g1444
sVcom.huawei.appmarket
p1911
g1104
sVcom.tencent.mtt
p1912
g1635
sVcom.tencent.mm
p1913
g1716
sVcom.android.settings
p1914
g727
ssg59
(dp1915
Vcom.android.browser
p1916
g1028
sg103
g973
sg526
g773
sg423
g1195
sg605
g1713
sVcom.android.packageinstaller
p1917
g358
sVfq.router2
p1918
g1761
sVcom.twitter.android
p1919
g1253
sg244
g1344
sVcom.huawei.android.launcher
p1920
g1448
sg524
g268
sg111
g1101
sVcom.baidu.tieba
p1921
g663
sVcom.tencent.mtt
p1922
g1637
sg165
g1649
sVcom.tencent.mobileqq
p1923
g474
sVcom.android.contacts
p1924
g1143
ssg61
(dp1925
Vcom.huawei.android.launcher
p1926
g1450
ssg63
(dp1927
Vcom.zhihu.android
p1928
g1563
sVcom.smartapp.easyvpn
p1929
g1124
sVcom.hipu.yidian
p1930
g315
sVcom.tencent.mm
p1931
g1714
sg29
g360
sVcom.android.keyguard
p1932
g638
sVcom.twitter.android
p1933
g1254
sVcom.taou.maimai
p1934
g1069
sVcom.huawei.systemmanager
p1935
g1345
sVcom.huawei.android.launcher
p1936
g1451
sVcom.android.vpndialogs
p1937
g951
sVcom.huawei.appmarket
p1938
g1103
sg1828
g1638
sg1298
g783
sVcom.tencent.mobileqq
p1939
g475
sVcom.android.contacts
p1940
g1154
ssg65
(dp1941
g655
g1026
sg69
g735
sg11
g202
sg71
g741
sg375
g1508
sVcom.smartapp.easyvpn
p1942
g1113
sVcom.android.contacts
p1943
g1139
sg87
g845
sVcom.zhihu.android
p1944
g1560
sg721
g536
sVcom.hipu.yidian
p1945
g313
sg121
g1191
sVcom.android.packageinstaller
p1946
g356
sg125
g1212
sg127
g1251
sVcom.huawei.hidisk
p1947
g1266
sVcom.huawei.systemmanager
p1948
g1323
sg906
g1613
sVcom.tencent.mm
p1949
g1709
sg297
g877
sg45
g508
sg715
g899
sg944
g1170
sg295
g1443
sg892
g294
sg101
g961
sg171
g1723
sVcom.huawei.hwvplayer
p1950
g970
sg1553
g1057
sVcom.tencent.mobileqq
p1951
g467
sVcom.android.keyguard
p1952
g646
sVcom.baidu.tieba
p1953
g679
sVcom.xdf.recite
p1954
g590
sg147
g1492
ssg67
(dp1955
Vcom.huawei.android.launcher
p1956
g1378
ssg69
(dp1957
g127
g1219
sg1211
g683
sg147
g1495
sg1214
g1380
ssg71
(dp1958
Vcom.huawei.android.launcher
p1959
g1379
sVcom.huawei.systemmanager
p1960
g1290
sVcom.tencent.mobileqq
p1961
g404
sg740
g687
ssg73
(dp1962
g1912
g1587
sVcom.huawei.android.launcher
p1963
g1389
sg1634
g588
ssg75
(dp1964
Vcom.zhihu.android
p1965
g1561
sg1338
g978
sVcom.huawei.hidisk
p1966
g1279
sVcom.huawei.systemmanager
p1967
g1348
sVcom.huawei.android.launcher
p1968
g1454
sVcom.tencent.mtt
p1969
g1589
sVcom.tencent.mobileqq
p1970
g477
ssg77
(dp1971
Vcom.netease.cloudmusic
p1972
g873
sVcom.tencent.mm
p1973
g1667
sg1668
g1541
sVcom.huawei.systemmanager
p1974
g1299
sVcom.android.deskclock
p1975
g236
sVcom.taou.maimai
p1976
g1038
sg1685
g834
sVcom.huawei.android.launcher
p1977
g1393
sg1806
g527
sg825
g414
ssg79
(dp1978
Vcom.huawei.hwid
p1979
g600
sVcom.huawei.android.launcher
p1980
g1457
sVcom.huawei.appmarket
p1981
g1083
ssg81
(dp1982
g373
g1233
sg1227
g1551
sg220
g1473
sg1241
g1680
sVcom.android.documentsui
p1983
g378
sVcom.android.deskclock
p1984
g224
sg801
g1272
sg1237
g1310
sVcom.huawei.android.launcher
p1985
g1406
sVcom.huawei.camera
p1986
g515
sg1566
g937
sVcom.tencent.mobileqq
p1987
g428
ssg83
(dp1988
Vcom.twitter.android
p1989
g1236
sVcom.taou.maimai
p1990
g1047
sg816
g1312
sVcom.huawei.android.launcher
p1991
g1408
sVfm.jihua.kecheng
p1992
g777
sVcom.tencent.mobileqq
p1993
g431
ssg85
(dp1994
Vcom.tencent.mobileqq
p1995
g435
sVcom.baidu.lbs.waimai
p1996
g903
sVcom.huawei.android.launcher
p1997
g1411
sg53
g560
sVcom.tencent.mm
p1998
g1686
sVcom.tencent.mtt
p1999
g1603
sVcom.eg.android.AlipayGphone
p2000
g283
sg133
g1360
ssg87
(dp2001
g171
g1726
sVcom.huawei.android.launcher
p2002
g1413
sg549
g1080
ssg89
(dp2003
g397
g1006
sVcom.tencent.mobileqq
p2004
g437
sVcom.android.packageinstaller
p2005
g340
sVcom.huawei.systemmanager
p2006
g1316
sVcom.huawei.android.launcher
p2007
g1414
sVcom.tencent.mm
p2008
g1687
sVcom.sankuai.meituan.takeoutnew
p2009
g1364
ssg91
(dp2010
Vcom.huawei.android.launcher
p2011
g1412
sVcom.huawei.vassistant
p2012
g575
ssg93
(dp2013
g1785
g1016
sg1937
g927
sg1630
g1735
sVcom.hipu.yidian
p2014
g303
sg1190
g713
sVcom.tencent.mm
p2015
g1701
sVcom.android.deskclock
p2016
g217
sg882
g1326
sVcom.huawei.android.launcher
p2017
g1424
sVcom.huawei.appmarket
p2018
g1094
sg950
g654
sVcom.tencent.mtt
p2019
g1617
sg25
g298
sVcom.tencent.mobileqq
p2020
g447
ssg95
(dp2021
Vcom.android.browser
p2022
g1018
sVcom.huawei.hwvplayer
p2023
g971
sVandroid.zhibo8
p2024
g489
sVcom.android.settings
p2025
g716
sVcom.android.packageinstaller
p2026
g348
sg123
g1204
sVcom.huawei.systemmanager
p2027
g1328
sVcom.huawei.hidisk
p2028
g1264
sg85
g828
sVcom.huawei.android.launcher
p2029
g1426
sVcom.huawei.android.internal.app
p2030
g763
sVcom.tencent.mtt
p2031
g1619
sg908
g450
sVcom.eg.android.AlipayGphone
p2032
g279
sg133
g1356
ssg97
(dp2033
Vcom.huawei.android.launcher
p2034
g1429
sVcom.baidu.tieba
p2035
g659
sVcom.tencent.mobileqq
p2036
g451
sVcom.taou.maimai
p2037
g1061
ssg99
(dp2038
g1227
g1567
sVcom.android.email
p2039
g553
sg1643
g1022
sg1514
g1677
sg603
g351
sg179
g1768
sVcom.android.contacts
p2040
g1158
sg1048
g1230
sVcom.huawei.hwid
p2041
g598
sVcom.huawei.systemmanager
p2042
g1289
sg717
g1184
sVcom.huawei.android.launcher
p2043
g1409
sg1070
g1096
sg438
g389
sg1123
g673
sVcom.tencent.mtt
p2044
g1623
sg113
g1126
sg1248
g421
sg1829
g1654
ssg101
(dp2045
Vcom.android.packageinstaller
p2046
g354
sVcom.huawei.android.launcher
p2047
g1432
sVcom.tencent.mtt
p2048
g1624
ssg103
(dp2049
g1966
g1263
sg972
g596
sg1967
g1339
sVcom.huawei.android.launcher
p2050
g1438
sg1278
g759
sg1969
g1627
ssg105
(dp2051
Vcom.tencent.mobileqq
p2052
g470
sVcom.huawei.android.launcher
p2053
g1445
ssg107
(dp2054
g1829
g1644
sg151
g1501
sg1011
g1659
sVcom.android.packageinstaller
p2055
g322
sg1121
g1074
sg1311
g813
sVcom.huawei.hidisk
p2056
g1262
sg2006
g1285
sVcom.biganiseed.reindeer
p2057
g1489
sVcom.huawei.android.launcher
p2058
g1371
sVcom.android.vpndialogs
p2059
g924
sg89
g852
sg17
g252
sVcom.baidu.tieba
p2060
g656
sVcom.tencent.mtt
p2061
g1580
sg1078
g1107
sVcom.tencent.mobileqq
p2062
g398
sVcom.android.contacts
p2063
g1129
sVcom.android.settings
p2064
g682
ssg109
(dp2065
Vcom.android.browser
p2066
g995
sVcom.record.myLife
p2067
g191
sVcom.tencent.mm
p2068
g1664
sg1581
g206
sg325
g226
sg1588
g761
sg19
g261
sVcom.hupu.games
p2069
g1519
sVcom.smartapp.easyvpn
p2070
g1117
sVcom.android.contacts
p2071
g1135
sVcom.zhihu.android
p2072
g1554
sg77
g779
sVcom.hipu.yidian
p2073
g307
sVme.ele
p2074
g830
sVcom.taobao.taobao
p2075
g815
sg1114
g1220
sg764
g1273
sVcom.huawei.systemmanager
p2076
g1294
sVcom.tencent.mtt
p2077
g1585
sVcom.tencent.mobileqq
p2078
g408
sVcom.sankuai.meituan.takeoutnew
p2079
g1359
sg710
g491
sVcom.netease.cloudmusic
p2080
g875
sVcom.baidu.lbs.waimai
p2081
g901
sVcom.huawei.android.launcher
p2082
g1385
sg231
g1464
sVcom.android.vpndialogs
p2083
g941
sg1626
g980
sVcom.android.calendar
p2084
g1469
sg1872
g723
sVcom.huawei.hwid
p2085
g614
sg635
g1077
sg1258
g1755
ssg111
(dp2086
g1916
g1030
sg940
g1071
sVcom.shanbay.listen
p2087
g754
sg925
g1122
sg1924
g1151
sVcom.android.vpndialogs
p2088
g949
sg423
g1198
sVcom.android.packageinstaller
p2089
g328
sVcom.twitter.android
p2090
g1256
sg244
g1346
sVcom.tencent.mtt
p2091
g1640
sg165
g1653
sVcom.tencent.mm
p2092
g1703
sg1920
g1453
sg1108
g550
sg242
g476
sg105
g989
sg887
g1477
sg2085
g622
sVcom.android.keyguard
p2093
g636
sg1921
g669
sVcom.android.settings
p2094
g729
sg1918
g1764
ssg113
(dp2095
g41
g484
sVcom.android.email
p2096
g532
sg603
g329
sg1048
g1223
sVcom.taou.maimai
p2097
g1042
sg481
g1295
sg1243
g1169
sg2043
g1390
sg1121
g1079
sVcom.tencent.mtt
p2098
g1592
sg99
g926
sVcom.tencent.mobileqq
p2099
g411
ssg115
(dp2100
g1846
g1000
sVcom.adobe.reader
p2101
g369
sg302
g896
sg2014
g319
sVcom.tencent.mm
p2102
g1671
sg1946
g331
sVcom.baidu.lbs.waimai
p2103
g911
sVcom.android.keyguard
p2104
g644
sg1140
g240
sVcom.huawei.systemmanager
p2105
g1302
sVcom.huawei.android.launcher
p2106
g1395
sg47
g513
sVcom.baidu.tieba
p2107
g661
sg155
g1529
sVcom.android.email
p2108
g557
sVcom.tencent.mobileqq
p2109
g416
sVcom.tencent.mtt
p2110
g1595
sg1849
g289
ssg117
(dp2111
Vcom.twitter.android
p2112
g1226
sg412
g1530
sVcom.huawei.android.launcher
p2113
g1372
ssg119
(dp2114
g1751
g546
sVcom.android.vpndialogs
p2115
g945
sVcom.android.settings
p2116
g718
sVcom.android.packageinstaller
p2117
g334
sg1646
g1244
sg1576
g1330
sVcom.huawei.android.launcher
p2118
g1430
sVcom.tencent.mtt
p2119
g1620
sVcom.smartapp.easyvpn
p2120
g1119
sg1655
g1753
sg1572
g1513
sVcom.tencent.mobileqq
p2121
g453
ssg121
(dp2122
g297
g876
sg65
g701
sg299
g219
sVcom.huawei.systemmanager
p2123
g1308
sVcom.huawei.android.launcher
p2124
g1401
sVcom.tencent.mtt
p2125
g1600
sg892
g293
sVcom.tencent.mobileqq
p2126
g424
ssg123
(dp2127
Vcom.huawei.android.launcher
p2128
g1405
ssg125
(dp2129
g153
g1511
sVcom.android.browser
p2130
g1002
sVcom.huawei.android.launcher
p2131
g1388
sg33
g382
sVcom.huawei.appmarket
p2132
g1085
ssg127
(dp2133
g69
g733
sg1116
g1049
sg2070
g1115
sVcom.zhihu.android
p2134
g1546
sVcom.android.vpndialogs
p2135
g939
sg1309
g800
sg516
g374
sg125
g1210
sg1216
g1314
sVcom.tencent.mtt
p2136
g1604
sVcom.huawei.fans
p2137
g1647
sVcom.tencent.mm
p2138
g1684
sg1858
g1175
sVcom.huawei.android.launcher
p2139
g1441
sg807
g519
sVcom.android.email
p2140
g542
sVcom.tencent.mobileqq
p2141
g433
sg1211
g704
sg1760
g612
sg2132
g1086
sg147
g1491
sg1655
g1759
ssg129
(dp2142
g1950
g968
sVcom.instagram.android
p2143
g1176
sVcom.netease.cloudmusic
p2144
g881
sg220
g1480
sVcom.android.packageinstaller
p2145
g336
sg81
g802
sg370
g200
sg1967
g1315
sVcom.huawei.android.launcher
p2146
g1410
sg1588
g765
sVcom.baidu.tieba
p2147
g649
sg1280
g1606
sg366
g434
ssg131
(dp2148
Vcom.android.browser
p2149
g1004
sVcom.record.myLife
p2150
g193
sVcom.huawei.camera
p2151
g521
sg203
g1577
sVcom.qiyi.video
p2152
g208
sg71
g743
sVcom.android.deskclock
p2153
g228
sg407
g1051
sg15
g245
sg381
g1217
sg2087
g750
sg19
g263
sg524
g270
sg77
g781
sg1668
g1537
sVcom.android.contacts
p2154
g1145
sVcom.eg.android.AlipayGphone
p2155
g281
sg159
g1556
sg1222
g1118
sg79
g796
sVcom.android.packageinstaller
p2156
g338
sg936
g804
sg776
g817
sVcom.twitter.android
p2157
g1238
sg764
g1275
sg91
g863
sg35
g387
sg352
g1608
sVcom.tencent.mobileqq
p2158
g429
sVcom.hupu.games
p2159
g1521
sg1695
g1358
sg41
g482
sVandroid.zhibo8
p2160
g493
sg93
g883
sg167
g1682
sVcom.instagram.android
p2161
g1178
sg454
g1407
sg1229
g943
sg51
g544
sVcom.hipu.yidian
p2162
g309
sg1630
g1731
sg645
g706
sVcom.xdf.recite
p2163
g585
sg1027
g616
sVcom.baidu.tieba
p2164
g665
sg753
g1087
ssg133
(dp2165
g2022
g1014
sVcom.sankuai.meituan
p2166
g1208
sVcom.tencent.mm
p2167
g1696
sVcom.baidu.lbs.waimai
p2168
g914
sVme.ele
p2169
g840
sg2027
g1350
sVcom.huawei.android.launcher
p2170
g1420
sg1995
g444
sVcom.android.contacts
p2171
g1163
sg1367
g291
ssg135
(dp2172
Vcom.huawei.android.launcher
p2173
g1427
sVcom.instagram.android
p2174
g1173
sVfq.router2
p2175
g1758
ssg137
(dp2176
Vcom.android.browser
p2177
g1020
sg117
g1166
sg31
g365
sg33
g380
sVcom.huawei.lcagent
p2178
g1462
sg149
g1498
sg151
g1503
sg167
g1705
sg69
g737
sg11
g210
sg143
g1479
sg13
g230
sg109
g1063
sg15
g247
sg8
g195
sg125
g1215
sg2087
g748
sg113
g1120
sg19
g259
sg155
g1523
sg77
g785
sg157
g1539
sg115
g1147
sg1849
g285
sg161
g1575
sg159
g1558
sg51
g548
sg79
g798
sg45
g504
sg121
g1196
sVcom.microsoft.office.officehub
p2179
g250
sg29
g350
sg123
g1206
sg81
g806
sg1816
g1332
sg776
g819
sg99
g947
sg129
g1277
sg85
g832
sg91
g865
sg87
g849
sg436
g858
sg35
g391
sg163
g1622
sg165
g1651
sg2158
g455
sg169
g1720
sg133
g1362
sg171
g1725
sg41
g486
sg43
g495
sg93
g885
sg101
g965
sg95
g905
sg145
g1487
sg97
g921
sg944
g1180
sg49
g523
sg1628
g572
sg25
g296
sg37
g395
sg440
g562
sg71
g745
sg153
g1509
sg103
g975
sg699
g311
sg463
g1733
sg703
g1245
sg141
g1471
sg65
g720
sg57
g587
sg105
g985
sg1863
g1742
sg1710
g1745
sg59
g618
sg61
g634
sVcom.android.phone
p2180
g511
sg63
g667
sg21
g272
sg111
g1095
sg1278
g767
sg147
g1494
sg179
g1763
ssg139
(dp2181
Vcom.android.deskclock
p2182
g232
sVcom.tencent.mobileqq
p2183
g400
sVcom.huawei.android.launcher
p2184
g1375
sVcom.netease.cloudmusic
p2185
g886
ssg141
(dp2186
Vcom.huawei.android.launcher
p2187
g1442
sVcom.huawei.systemmanager
p2188
g1342
sVcom.android.email
p2189
g534
sVcom.tencent.mobileqq
p2190
g465
sVcom.netease.cloudmusic
p2191
g871
ssg143
(dp2192
g1984
g221
sg795
g1343
sg797
g1382
sVcom.netease.cloudmusic
p2193
g888
sg79
g794
ssg145
(dp2194
g923
g1005
sg2055
g361
sVcom.huawei.android.launcher
p2195
g1428
ssg147
(dp2196
g842
g1724
sg1211
g730
sg125
g1213
sg127
g1257
sg1214
g1455
sg87
g847
ssg149
(dp2197
Vcom.huawei.android.launcher
p2198
g1376
ssg151
(dp2199
Vcom.android.browser
p2200
g991
sVcom.huawei.android.launcher
p2201
g1377
ssg153
(dp2202
g703
g1250
sg734
g690
sg736
g1437
sg69
g738
sg33
g376
ssg155
(dp2203
Vandroid.zhibo8
p2204
g501
sg1769
g413
sg203
g1573
sg2112
g1221
sVcom.taou.maimai
p2205
g1036
sVcom.huawei.systemmanager
p2206
g1297
sVcom.huawei.android.launcher
p2207
g1392
sVcom.android.settings
p2208
g692
sVcom.baidu.tieba
p2209
g677
sVcom.tencent.mtt
p2210
g1591
sg1534
g1666
sg660
g1162
ssg157
(dp2211
g681
g998
sg2064
g694
sVcom.tencent.mm
p2212
g1669
sVcom.twitter.android
p2213
g1225
sVcom.huawei.hwid
p2214
g602
sVcom.huawei.systemmanager
p2215
g1300
sVcom.huawei.android.launcher
p2216
g1394
sVcom.tencent.mtt
p2217
g1593
sVcom.tencent.mobileqq
p2218
g415
ssg159
(dp2219
Vcom.android.vpndialogs
p2220
g929
sg157
g1533
sg1549
g333
sg1547
g1675
sVcom.twitter.android
p2221
g1228
sVcom.taou.maimai
p2222
g1040
sVcom.huawei.systemmanager
p2223
g1304
sVcom.huawei.android.launcher
p2224
g1398
sg1559
g696
sg75
g757
sVcom.baidu.tieba
p2225
g650
sVcom.tencent.mtt
p2226
g1597
sVcom.smartapp.easyvpn
p2227
g1111
sVcom.tencent.mobileqq
p2228
g419
sg37
g393
ssg161
(dp2229
g1518
g1045
sVcom.huawei.android.launcher
p2230
g1397
sg1032
g204
sVcom.tencent.mobileqq
p2231
g401
ssg163
(dp2232
g1579
g1008
sg887
g1475
sg405
g234
sVcom.taou.maimai
p2233
g1053
sg1278
g769
sg2069
g1525
sg1298
g787
sVcom.android.contacts
p2234
g1156
sVcom.zhihu.android
p2235
g1565
sg113
g1125
sg1307
g1200
sg29
g353
sg1271
g810
sg2074
g837
sg1852
g821
sg1114
g1240
sg129
g1281
sg882
g1317
sg339
g854
sg1066
g564
sg101
g963
sVcom.tencent.mm
p2236
g1690
sg645
g707
sVandroid.zhibo8
p2237
g497
sg1325
g891
sg2103
g907
sg758
g979
sg97
g919
sg717
g1182
sg137
g1416
sg99
g953
sVcom.tencent.mobileqq
p2238
g460
sg1108
g552
sg1340
g577
sg91
g867
sg59
g624
sg1952
g640
sVcom.baidu.tieba
p2239
g671
sg111
g1090
sVfq.router2
p2240
g1766
ssg165
(dp2241
g1643
g1010
sg932
g343
sg1648
g626
sVcom.huawei.systemmanager
p2242
g1319
sVcom.huawei.android.launcher
p2243
g1417
sg145
g1485
sVcom.tencent.mtt
p2244
g1610
sg1021
g958
ssg167
(dp2245
Vcom.android.browser
p2246
g1012
sVcom.android.deskclock
p2247
g223
sg613
g1055
sg73
g752
sg2179
g254
sg1847
g1515
sg1037
g791
sg601
g1535
sVcom.android.contacts
p2248
g1137
sg2000
g287
sg1532
g1548
sVcom.android.email
p2249
g538
sVcom.hipu.yidian
p2250
g317
sVme.ele
p2251
g835
sVcom.twitter.android
p2252
g1242
sg2076
g1321
sg1363
g856
sVcom.tencent.mtt
p2253
g1612
sg674
g442
sg169
g1721
sg1013
g1366
sVcom.netease.cloudmusic
p2254
g879
sg57
g592
sg666
g1418
sVcom.android.vpndialogs
p2255
g935
sg466
g725
sVcom.example.android.notepad
p2256
g1740
sg177
g1747
sg1252
g606
sVcom.android.keyguard
p2257
g642
sg63
g657
sg621
g1091
ssg169
(dp2258
g591
g1694
sg1910
g1419
sg57
g593
ssg171
(dp2259
g551
g1625
sg2002
g1421
sg87
g843
sg549
g1097
ssg173
(dp2260
Vcom.huawei.hwid
p2261
g610
sVcom.tencent.mtt
p2262
g1631
sVcom.huawei.android.launcher
p2263
g1440
sVcom.tencent.mobileqq
p2264
g464
sVcom.huawei.appmarket
p2265
g1098
ssg175
(dp2266
Vcom.huawei.android.launcher
p2267
g1446
ssg177
(dp2268
g1746
g1711
sVcom.huawei.android.launcher
p2269
g1447
sVcom.tencent.mobileqq
p2270
g472
sVcom.xdf.recite
p2271
g581
ssg179
(dp2272
Vcom.android.email
p2273
g540
sVcom.instagram.android
p2274
g1186
sg1836
g1717
sVcom.android.packageinstaller
p2275
g362
sVcom.twitter.android
p2276
g1259
sVcom.huawei.hwid
p2277
g608
sVcom.huawei.systemmanager
p2278
g1352
sVcom.huawei.android.launcher
p2279
g1456
sg1767
g957
sVcom.huawei.appmarket
p2280
g1105
sg438
g385
sVcom.tencent.mtt
p2281
g1641
sVcom.huawei.fans
p2282
g1656
sVcom.tencent.mobileqq
p2283
g479
sssS'adj'
p2284
g184
sb.