ccopy_reg
_reconstructor
p1
(cnetworkx.classes.digraph
DiGraph
p2
c__builtin__
object
p3
NtRp4
(dp5
S'node'
p6
(dp7
Vcom.android.browser
p8
(dp9
S'weight'
p10
F0.062058934304437714
ssVcom.tencent.mobileqqi
p11
(dp12
g10
F0.055271982548196444
ssVcom.youdao.dict
p13
(dp14
g10
F0.041266922728392205
ssVcom.ss.android.article.news
p15
(dp16
g10
F0.035393671402492562
ssVcom.autonavi.minimap
p17
(dp18
g10
F0.00022811176724578229
ssVcom.android.updater
p19
(dp20
g10
F2.5067227169866184e-06
ssVcom.android.thememanager
p21
(dp22
g10
F1.2533613584933092e-06
ssVcom.android.deskclock
p23
(dp24
g10
F6.3294748603912116e-05
ssVcom.sohu.inputmethod.sogou
p25
(dp26
g10
F3.1334033962332733e-06
ssVcom.eg.android.AlipayGphone
p27
(dp28
g10
F0.0020260586360044343
ssVcom.miui.weather2
p29
(dp30
g10
F4.7627731622745754e-05
ssVcom.android.packageinstaller
p31
(dp32
g10
F9.400210188699819e-06
ssVcom.sankuai.meituan
p33
(dp34
g10
F0.0010966911886816455
ssVcom.android.incallui
p35
(dp36
g10
F0.0077025322286206318
ssVcom.android.phone
p37
(dp38
g10
F8.7735295094531645e-06
ssVcom.android.htmlviewer
p39
(dp40
g10
F3.0707353283086077e-05
ssVcom.qiyi.video
p41
(dp42
g10
F0.0022316098987973372
ssVcom.miui.gallery
p43
(dp44
g10
F0.0010910510625684257
ssVcom.tencent.mm
p45
(dp46
g10
F0.032683904145430022
ssVcom.miui.antispam
p47
(dp48
g10
F7.5201681509598555e-06
ssVcom.android.calculator2
p49
(dp50
g10
F0.00012220273245309765
ssVcom.android.calendar
p51
(dp52
g10
F1.0026890867946473e-05
ssVcom.achievo.vipshop
p53
(dp54
g10
F0.00087045946347360332
ssVcom.xiaomi.market
p55
(dp56
g10
F8.7108614415284987e-05
ssVcom.android.fileexplorer
p57
(dp58
g10
F3.0707353283086077e-05
ssVcom.Qunar
p59
(dp60
g10
F0.0010384098855117066
ssVcom.miui.player
p61
(dp62
g10
F2.5067227169866184e-06
ssVcom.chaozh.iReaderFree
p63
(dp64
g10
F1.1280252226439782e-05
ssVcom.miui.home
p65
(dp66
g10
F0.74017255025822382
ssVcom.miui.notes
p67
(dp68
g10
F0.002131967670797119
ssVcom.miui.networkassistant
p69
(dp70
g10
F2.7573949886852804e-05
ssVcom.android.settings
p71
(dp72
g10
F0.0042382414337451251
ssVcom.android.mms
p73
(dp74
g10
F0.0077558000863565974
ssVcmb.pb
p75
(dp76
g10
F8.898865645302495e-05
ssVcom.miui.securitycenter
p77
(dp78
g10
F8.0841807622818442e-05
ssVcom.miui.barcodescanner
p79
(dp80
g10
F5.6401261132198912e-06
ssVcom.android.quicksearchbox
p81
(dp82
g10
F1.8800420377399639e-06
ssVcom.android.camera
p83
(dp84
g10
F0.00014789664030221049
ssVcom.xtuone.android.syllabus
p85
(dp86
g10
F0.0019502302738155892
sssS'graph'
p87
(dp88
sS'succ'
p89
(dp90
g8
(dp91
Vcom.tencent.mobileqqi
p92
(dp93
g10
F53.899999999999977
ssVcom.android.incallui
p94
(dp95
g10
F1.7
ssVcom.autonavi.minimap
p96
(dp97
g10
F1.3
ssVcom.android.mms
p98
(dp99
g10
F2.6000000000000001
ssg75
(dp100
g10
F0.90000000000000002
ssVcom.miui.securitycenter
p101
(dp102
g10
F0.40000000000000002
ssVcom.Qunar
p103
(dp104
g10
F1.3
ssVcom.android.phone
p105
(dp106
g10
F1.7000000000000002
ssVcom.miui.notes
p107
(dp108
g10
F1.8
ssVcom.miui.home
p109
(dp110
g10
F132.10000000000016
ssVcom.tencent.mm
p111
(dp112
g10
F45.499999999999972
ssVcom.eg.android.AlipayGphone
p113
(dp114
g10
F0.40000000000000002
ssVcom.xtuone.android.syllabus
p115
(dp116
g10
F1.3
sssg11
(dp117
g8
(dp118
g10
F49.899999999999963
ssVcom.youdao.dict
p119
(dp120
g10
F0.90000000000000002
ssVcom.ss.android.article.news
p121
(dp122
g10
F11.700000000000003
ssg23
(dp123
g10
F0.90000000000000002
ssg25
(dp124
g10
F1.8
ssVcom.miui.weather2
p125
(dp126
g10
F0.90000000000000002
ssg33
(dp127
g10
F4.8000000000000007
ssVcom.android.incallui
p128
(dp129
g10
F2.7000000000000002
ssVcom.android.phone
p130
(dp131
g10
F1.3
ssVcom.miui.home
p132
(dp133
g10
F241.89999999999966
ssg45
(dp134
g10
F75.299999999999997
ssVcom.achievo.vipshop
p135
(dp136
g10
F1.8
ssg57
(dp137
g10
F1.3
ssg59
(dp138
g10
F6.6000000000000014
ssg63
(dp139
g10
F0.40000000000000002
ssVcom.miui.gallery
p140
(dp141
g10
F0.90000000000000002
ssVcom.miui.notes
p142
(dp143
g10
F2.2000000000000002
ssVcom.miui.networkassistant
p144
(dp145
g10
F0.90000000000000002
ssVcom.android.mms
p146
(dp147
g10
F16.000000000000004
ssVcmb.pb
p148
(dp149
g10
F0.90000000000000002
ssg79
(dp150
g10
F2.2999999999999998
ssVcom.android.camera
p151
(dp152
g10
I2
ssVcom.xtuone.android.syllabus
p153
(dp154
g10
F3.1000000000000001
sssg13
(dp155
Vcom.android.browser
p156
(dp157
g10
F0.40000000000000002
ssVcom.miui.notes
p158
(dp159
g10
F0.90000000000000002
ssVcom.ss.android.article.news
p160
(dp161
g10
F0.90000000000000002
ssg125
(dp162
g10
F0.40000000000000002
ssVcom.android.mms
p163
(dp164
g10
F3
ssg55
(dp165
g10
F0.90000000000000002
ssVcom.android.deskclock
p166
(dp167
g10
F0.40000000000000002
ssVcom.xtuone.android.syllabus
p168
(dp169
g10
F0.90000000000000002
ssg79
(dp170
g10
F0.40000000000000002
ssVcom.android.camera
p171
(dp172
g10
F0.69999999999999996
ssVcom.miui.home
p173
(dp174
g10
F25.199999999999996
ssVcom.tencent.mm
p175
(dp176
g10
F10.100000000000001
ssVcom.tencent.mobileqqi
p177
(dp178
g10
F1.8
sssg15
(dp179
g156
(dp180
g10
F0.90000000000000002
ssVcom.tencent.mobileqqi
p181
(dp182
g10
F7.1000000000000014
ssVcom.xtuone.android.syllabus
p183
(dp184
g10
F3.1000000000000001
ssVcom.miui.home
p185
(dp186
g10
F35.399999999999991
ssVcom.tencent.mm
p187
(dp188
g10
F9.8000000000000007
ssVcom.Qunar
p189
(dp190
g10
F2.2000000000000002
sssg17
(dp191
Vcom.sankuai.meituan
p192
(dp193
g10
F1.8
ssVcom.miui.home
p194
(dp195
g10
F4.4000000000000004
ssVcom.tencent.mm
p196
(dp197
g10
F0.40000000000000002
ssVcom.android.browser
p198
(dp199
g10
F0.90000000000000002
sssg19
(dp200
g25
(dp201
g10
F0.40000000000000002
ssVcom.tencent.mm
p202
(dp203
g10
F0.40000000000000002
ssVcom.miui.home
p204
(dp205
g10
F3.4000000000000004
ssVcom.tencent.mobileqqi
p206
(dp207
g10
F0.90000000000000002
ssVcom.android.browser
p208
(dp209
g10
F0.90000000000000002
sssg21
(dp210
Vcom.miui.home
p211
(dp212
g10
I2
ssVcom.tencent.mm
p213
(dp214
g10
F0.90000000000000002
sssg23
(dp215
Vcom.android.browser
p216
(dp217
g10
F0.40000000000000002
ssVcom.tencent.mobileqqi
p218
(dp219
g10
F0.40000000000000002
ssVcom.ss.android.article.news
p220
(dp221
g10
F0.90000000000000002
ssVcom.android.calendar
p222
(dp223
g10
F0.90000000000000002
ssVcom.xtuone.android.syllabus
p224
(dp225
g10
F2.2000000000000002
ssVcom.miui.home
p226
(dp227
g10
F8.0999999999999996
ssVcom.tencent.mm
p228
(dp229
g10
F1.8
sssg25
(dp230
Vcom.tencent.mm
p231
(dp232
g10
F1.7
ssVcom.miui.home
p233
(dp234
g10
F1.3
ssVcom.tencent.mobileqqi
p235
(dp236
g10
I2
sssg27
(dp237
g11
(dp238
g10
F3.6000000000000001
ssVcom.sankuai.meituan
p239
(dp240
g10
I1
ssVcom.android.mms
p241
(dp242
g10
F21.699999999999996
ssg53
(dp243
g10
F3.0999999999999996
ssVcmb.pb
p244
(dp245
g10
F1.7000000000000002
ssVcom.android.incallui
p246
(dp247
g10
F0.69999999999999996
ssVcom.android.phone
p248
(dp249
g10
F0.90000000000000002
ssVcom.miui.home
p250
(dp251
g10
F50.600000000000016
ssg45
(dp252
g10
F7.4000000000000012
ssVcom.android.calculator2
p253
(dp254
g10
F0.90000000000000002
sssg29
(dp255
Vcom.miui.home
p256
(dp257
g10
F3.7000000000000002
ssVcom.tencent.mm
p258
(dp259
g10
F2.7000000000000002
ssVcom.ss.android.article.news
p260
(dp261
g10
F0.40000000000000002
sssg31
(dp262
Vcom.miui.securitycenter
p263
(dp264
g10
F0.90000000000000002
ssVcom.miui.home
p265
(dp266
g10
F1.7
ssVcom.achievo.vipshop
p267
(dp268
g10
F0.40000000000000002
sssg33
(dp269
Vcom.tencent.mobileqqi
p270
(dp271
g10
F4.4000000000000004
ssVcom.autonavi.minimap
p272
(dp273
g10
F1.8
ssg146
(dp274
g10
F1.8
ssVcom.android.incallui
p275
(dp276
g10
F1.7
ssVcom.android.phone
p277
(dp278
g10
F0.90000000000000002
ssVcom.miui.home
p279
(dp280
g10
F14.499999999999998
ssVcom.eg.android.AlipayGphone
p281
(dp282
g10
I2
sssg35
(dp283
Vcom.android.browser
p284
(dp285
g10
F1.3999999999999999
ssVcom.miui.notes
p286
(dp287
g10
F0.90000000000000002
ssVcom.youdao.dict
p288
(dp289
g10
I2
ssVcom.ss.android.article.news
p290
(dp291
g10
I1
ssVcom.sankuai.meituan
p292
(dp293
g10
I1
ssVcom.android.mms
p294
(dp295
g10
F7.8000000000000007
ssVcom.android.phone
p296
(dp297
g10
I3
ssVcom.tencent.mobileqqi
p298
(dp299
g10
F4.2999999999999998
ssVcom.miui.home
p300
(dp301
g10
F21.099999999999998
ssVcom.tencent.mm
p302
(dp303
g10
F4.2999999999999998
ssVcom.eg.android.AlipayGphone
p304
(dp305
g10
F3.1000000000000001
ssVcom.android.calculator2
p306
(dp307
g10
I1
sssg37
(dp308
Vcom.android.incallui
p309
(dp310
g10
F11.699999999999999
ssVcom.miui.home
p311
(dp312
g10
F2.2000000000000002
ssVcom.android.mms
p313
(dp314
g10
F0.69999999999999996
ssVcom.eg.android.AlipayGphone
p315
(dp316
g10
F0.69999999999999996
sssg39
(dp317
Vcom.android.fileexplorer
p318
(dp319
g10
I1
sssg41
(dp320
g208
(dp321
g10
F0.40000000000000002
ssVcom.android.updater
p322
(dp323
g10
F0.90000000000000002
ssVcom.miui.home
p324
(dp325
g10
F1.7
sssg43
(dp326
Vcom.android.browser
p327
(dp328
g10
F0.90000000000000002
ssVcom.miui.home
p329
(dp330
g10
F7.7000000000000011
ssVcom.tencent.mm
p331
(dp332
g10
F2
ssVcom.android.camera
p333
(dp334
g10
F6.1000000000000005
sssg45
(dp335
g8
(dp336
g10
F37.099999999999973
ssVcom.tencent.mobileqqi
p337
(dp338
g10
F76.900000000000006
ssVcom.youdao.dict
p339
(dp340
g10
F3.8999999999999999
ssVcom.ss.android.article.news
p341
(dp342
g10
F20.300000000000001
ssVcom.android.deskclock
p343
(dp344
g10
F3.6000000000000001
ssVcom.sohu.inputmethod.sogou
p345
(dp346
g10
I1
ssVcom.eg.android.AlipayGphone
p347
(dp348
g10
F6.6000000000000014
ssVcom.miui.weather2
p349
(dp350
g10
F0.40000000000000002
ssVcom.android.incallui
p351
(dp352
g10
F1.8999999999999999
ssVcom.android.htmlviewer
p353
(dp354
g10
F0.69999999999999996
ssVcom.miui.gallery
p355
(dp356
g10
F2.9000000000000004
ssg47
(dp357
g10
F0.69999999999999996
ssVcom.android.calculator2
p358
(dp359
g10
F1.3
ssVcom.achievo.vipshop
p360
(dp361
g10
F2.2000000000000002
ssg57
(dp362
g10
F1.3
ssg183
(dp363
g10
F4.9000000000000004
ssVcom.miui.home
p364
(dp365
g10
F287.79999999999944
ssVcom.miui.notes
p366
(dp367
g10
F0.90000000000000002
ssg51
(dp368
g10
F1.3
ssVcom.android.settings
p369
(dp370
g10
F0.69999999999999996
ssVcom.android.mms
p371
(dp372
g10
F13.400000000000004
ssg101
(dp373
g10
F2.7000000000000002
ssVcom.android.camera
p374
(dp375
g10
F8.7000000000000011
sssg47
(dp376
Vcom.miui.home
p377
(dp378
g10
I1
ssVcom.tencent.mm
p379
(dp380
g10
F0.90000000000000002
sssg49
(dp381
Vcom.android.incallui
p382
(dp383
g10
I1
ssVcom.tencent.mm
p384
(dp385
g10
F0.40000000000000002
ssVcom.miui.home
p386
(dp387
g10
F7.1000000000000005
ssVcom.android.mms
p388
(dp389
g10
F0.80000000000000004
ssVcom.eg.android.AlipayGphone
p390
(dp391
g10
F4.5
sssg51
(dp392
g216
(dp393
g10
F0.90000000000000002
ssg349
(dp394
g10
F0.90000000000000002
ssVcom.xtuone.android.syllabus
p395
(dp396
g10
F1.3
ssVcom.android.phone
p397
(dp398
g10
F0.40000000000000002
ssVcom.miui.home
p399
(dp400
g10
F5.1000000000000005
ssg258
(dp401
g10
F0.40000000000000002
sssg53
(dp402
g355
(dp403
g10
F0.40000000000000002
ssVcom.tencent.mobileqqi
p404
(dp405
g10
F0.90000000000000002
ssg369
(dp406
g10
I1
ssg31
(dp407
g10
I1
ssVcom.android.mms
p408
(dp409
g10
F1.3
ssg263
(dp410
g10
F0.69999999999999996
ssVcom.Qunar
p411
(dp412
g10
F0.90000000000000002
ssg265
(dp413
g10
F14.199999999999998
ssVcom.tencent.mm
p414
(dp415
g10
F4.4000000000000004
ssVcom.eg.android.AlipayGphone
p416
(dp417
g10
F3.1000000000000001
sssg55
(dp418
Vcom.android.incallui
p419
(dp420
g10
F0.90000000000000002
ssVcom.miui.home
p421
(dp422
g10
F3.2999999999999998
ssVcom.android.mms
p423
(dp424
g10
F0.69999999999999996
ssg85
(dp425
g10
I1
sssg57
(dp426
g39
(dp427
g10
I2
ssVcom.miui.home
p428
(dp429
g10
F2.7000000000000002
ssg63
(dp430
g10
F0.90000000000000002
sssg59
(dp431
Vcom.android.browser
p432
(dp433
g10
F1.3
ssVcom.tencent.mobileqqi
p434
(dp435
g10
F3.5
ssVcom.ss.android.article.news
p436
(dp437
g10
F1.3
ssg33
(dp438
g10
F1.3
ssVcom.android.mms
p439
(dp440
g10
F5.0000000000000009
ssVcom.miui.home
p441
(dp442
g10
F20.699999999999996
ssVcom.tencent.mm
p443
(dp444
g10
F0.90000000000000002
sssg61
(dp445
Vcom.tencent.mm
p446
(dp447
g10
F0.90000000000000002
ssg19
(dp448
g10
F0.90000000000000002
ssVcom.miui.home
p449
(dp450
g10
F3.4000000000000004
ssg206
(dp451
g10
F0.80000000000000004
sssg63
(dp452
Vcom.android.fileexplorer
p453
(dp454
g10
F1.3
ssVcom.miui.home
p455
(dp456
g10
I1
ssg39
(dp457
g10
F0.69999999999999996
sssg65
(dp458
g8
(dp459
g10
F159.80000000000007
ssg11
(dp460
g10
F444.89999999999873
ssg13
(dp461
g10
F59.5
ssg15
(dp462
g10
F103.10000000000007
ssg17
(dp463
g10
F6.4000000000000004
ssg19
(dp464
g10
F2.7000000000000002
ssg21
(dp465
g10
I2
ssg23
(dp466
g10
F14.899999999999999
ssg25
(dp467
g10
F4.2999999999999998
ssg27
(dp468
g10
F66.700000000000031
ssg29
(dp469
g10
F7.4000000000000004
ssg31
(dp470
g10
F1.3
ssg33
(dp471
g10
F23.999999999999996
ssg35
(dp472
g10
F60.799999999999983
ssg37
(dp473
g10
F15.999999999999998
ssg39
(dp474
g10
F2.6000000000000001
ssg61
(dp475
g10
I2
ssg45
(dp476
g10
F699.90000000000055
ssg47
(dp477
g10
F1.3
ssg49
(dp478
g10
F8.1000000000000014
ssg51
(dp479
g10
F5.0999999999999996
ssg53
(dp480
g10
F17.999999999999996
ssg55
(dp481
g10
F3.7000000000000002
ssg57
(dp482
g10
F9.5
ssg59
(dp483
g10
F27.799999999999994
ssg63
(dp484
g10
F1.7
ssg43
(dp485
g10
F11.800000000000001
ssg67
(dp486
g10
F17.599999999999998
ssg69
(dp487
g10
F4.4000000000000004
ssg71
(dp488
g10
F11.799999999999999
ssg73
(dp489
g10
F180.09999999999988
ssg75
(dp490
g10
F7.8000000000000007
ssg77
(dp491
g10
F11.1
ssg79
(dp492
g10
F2.3999999999999999
ssg81
(dp493
g10
I1
ssg83
(dp494
g10
F13.800000000000002
ssg85
(dp495
g10
F45
sssg67
(dp496
Vcom.android.browser
p497
(dp498
g10
F0.90000000000000002
ssVcom.tencent.mobileqqi
p499
(dp500
g10
F1.8
ssVcom.android.calendar
p501
(dp502
g10
F0.90000000000000002
ssVcom.android.mms
p503
(dp504
g10
F0.40000000000000002
ssVcom.achievo.vipshop
p505
(dp506
g10
F0.40000000000000002
ssVcom.android.incallui
p507
(dp508
g10
F0.90000000000000002
ssg395
(dp509
g10
F0.40000000000000002
ssVcom.miui.home
p510
(dp511
g10
F10.800000000000001
ssVcom.tencent.mm
p512
(dp513
g10
F1.8
sssg69
(dp514
Vcom.android.browser
p515
(dp516
g10
F0.90000000000000002
ssVcom.tencent.mm
p517
(dp518
g10
F0.40000000000000002
ssVcom.miui.home
p519
(dp520
g10
F3.4000000000000004
ssVcom.android.mms
p521
(dp522
g10
F0.90000000000000002
sssg71
(dp523
Vcom.tencent.mobileqqi
p524
(dp525
g10
F0.90000000000000002
ssVcom.ss.android.article.news
p526
(dp527
g10
F1.7000000000000002
ssVcom.achievo.vipshop
p528
(dp529
g10
I1
ssg77
(dp530
g10
F6.7000000000000002
ssVcom.miui.home
p531
(dp532
g10
F13.199999999999998
ssVcom.tencent.mm
p533
(dp534
g10
F1.1000000000000001
sssg73
(dp535
Vcom.android.browser
p536
(dp537
g10
F2.6000000000000001
ssVcom.tencent.mobileqqi
p538
(dp539
g10
F21.099999999999994
ssVcom.ss.android.article.news
p540
(dp541
g10
F2.2000000000000002
ssVcom.miui.networkassistant
p542
(dp543
g10
F0.90000000000000002
ssg142
(dp544
g10
F1.3
ssg31
(dp545
g10
F0.69999999999999996
ssg53
(dp546
g10
F1.8
ssVcmb.pb
p547
(dp548
g10
F1.8
ssVcom.android.incallui
p549
(dp550
g10
F0.69999999999999996
ssVcom.Qunar
p551
(dp552
g10
F5.7000000000000002
ssg248
(dp553
g10
F1.3
ssVcom.android.camera
p554
(dp555
g10
F0.69999999999999996
ssVcom.miui.home
p556
(dp557
g10
F105.70000000000006
ssVcom.tencent.mm
p558
(dp559
g10
F15.800000000000004
ssVcom.eg.android.AlipayGphone
p560
(dp561
g10
F9.4000000000000021
ssVcom.xtuone.android.syllabus
p562
(dp563
g10
F0.90000000000000002
sssg75
(dp564
Vcom.android.mms
p565
(dp566
g10
F0.90000000000000002
ssVcom.miui.home
p567
(dp568
g10
F3.7000000000000002
ssVcom.tencent.mobileqqi
p569
(dp570
g10
F0.40000000000000002
ssg113
(dp571
g10
F0.90000000000000002
ssVcom.sankuai.meituan
p572
(dp573
g10
F0.90000000000000002
sssg77
(dp574
Vcom.tencent.mobileqqi
p575
(dp576
g10
F2.7000000000000002
ssVcom.android.settings
p577
(dp578
g10
F5
ssg267
(dp579
g10
F1.3
ssg531
(dp580
g10
F7.9000000000000004
ssVcom.tencent.mm
p581
(dp582
g10
F1.1000000000000001
ssg47
(dp583
g10
I1
ssg416
(dp584
g10
F0.69999999999999996
sssg79
(dp585
Vcom.miui.home
p586
(dp587
g10
F1.7
ssVcom.tencent.mobileqqi
p588
(dp589
g10
F2.2999999999999998
sssg81
(dp590
Vcom.miui.home
p591
(dp592
g10
I1
ssVcom.ss.android.article.news
p593
(dp594
g10
F0.90000000000000002
sssg83
(dp595
Vcom.miui.home
p596
(dp597
g10
F9.7000000000000011
ssVcom.tencent.mm
p598
(dp599
g10
F10.5
ssVcom.miui.gallery
p600
(dp601
g10
F5
ssVcom.tencent.mobileqqi
p602
(dp603
g10
F3.2999999999999998
ssVcom.android.mms
p604
(dp605
g10
F0.69999999999999996
sssg85
(dp606
g148
(dp607
g10
F0.40000000000000002
ssVcom.tencent.mobileqqi
p608
(dp609
g10
F0.90000000000000002
ssVcom.ss.android.article.news
p610
(dp611
g10
F1.8
ssg423
(dp612
g10
F0.90000000000000002
ssg166
(dp613
g10
F2.2000000000000002
ssVcom.miui.home
p614
(dp615
g10
F16.5
ssVcom.tencent.mm
p616
(dp617
g10
F3.1000000000000001
ssssS'edge'
p618
g90
sS'pred'
p619
(dp620
g8
(dp621
g222
g393
sg43
g328
sg337
g118
sVcom.youdao.dict
p622
g157
sg160
g180
sg144
g516
sg96
g199
sg322
g209
sg98
g537
sg41
g321
sVcom.android.deskclock
p623
g217
sVcom.android.incallui
p624
g285
sVcom.Qunar
p625
g433
sg286
g498
sVcom.miui.home
p626
g459
sVcom.tencent.mm
p627
g336
ssg11
(dp628
g8
g93
sVcom.youdao.dict
p629
g178
sVcom.ss.android.article.news
p630
g182
sg19
g207
sVcom.android.deskclock
p631
g219
sg25
g236
sg27
g238
sVcom.sankuai.meituan
p632
g271
sg128
g299
sg61
g451
sg45
g338
sg135
g405
sVcom.Qunar
p633
g435
sg65
g460
sg142
g500
sVcom.android.settings
p634
g525
sVcom.android.mms
p635
g539
sg75
g570
sVcom.miui.securitycenter
p636
g576
sg79
g589
sVcom.android.camera
p637
g603
sVcom.xtuone.android.syllabus
p638
g609
ssg13
(dp639
Vcom.android.incallui
p640
g289
sVcom.miui.home
p641
g461
sVcom.tencent.mm
p642
g340
sVcom.tencent.mobileqqi
p643
g120
ssg15
(dp644
Vcom.tencent.mobileqqi
p645
g122
sg622
g161
sVcom.android.settings
p646
g527
sVcom.android.mms
p647
g541
sg343
g221
sVcom.android.incallui
p648
g291
sVcom.Qunar
p649
g437
sVcom.android.quicksearchbox
p650
g594
sVcom.miui.weather2
p651
g261
sVcom.miui.home
p652
g462
sVcom.tencent.mm
p653
g342
sVcom.xtuone.android.syllabus
p654
g611
ssg17
(dp655
Vcom.sankuai.meituan
p656
g273
sVcom.miui.home
p657
g463
sVcom.android.browser
p658
g97
ssg19
(dp659
Vcom.miui.home
p660
g464
sg61
g448
sg41
g323
ssg21
(dp661
Vcom.miui.home
p662
g465
ssg23
(dp663
Vcom.tencent.mm
p664
g344
sVcom.miui.home
p665
g466
sVcom.tencent.mobileqqi
p666
g123
sVcom.youdao.dict
p667
g167
sg168
g613
ssg25
(dp668
Vcom.tencent.mm
p669
g346
sg19
g201
sg204
g467
sg206
g124
ssg27
(dp670
Vcom.android.browser
p671
g114
sg263
g584
sVcom.sankuai.meituan
p672
g282
sg241
g561
sg267
g417
sg75
g571
sVcom.android.incallui
p673
g305
sg248
g316
sg65
g468
sVcom.tencent.mm
p674
g348
sVcom.android.calculator2
p675
g391
ssg29
(dp676
g51
g394
sg177
g126
sVcom.miui.home
p677
g469
sVcom.tencent.mm
p678
g350
sg629
g162
ssg31
(dp679
Vcom.miui.home
p680
g470
sVcom.android.mms
p681
g545
sg53
g407
ssg33
(dp682
g434
g127
sg272
g193
sg148
g573
sg275
g293
sVcom.Qunar
p683
g438
sVcom.miui.home
p684
g471
sg281
g240
ssg35
(dp685
g216
g95
sg67
g508
sVcom.sankuai.meituan
p686
g276
sg503
g550
sVcom.xiaomi.market
p687
g420
sg37
g310
sVcom.tencent.mobileqqi
p688
g129
sVcom.miui.home
p689
g472
sVcom.tencent.mm
p690
g352
sVcom.eg.android.AlipayGphone
p691
g247
sg49
g383
ssg37
(dp692
g497
g106
sVcom.tencent.mobileqqi
p693
g131
sg222
g398
sVcom.sankuai.meituan
p694
g278
sVcom.android.mms
p695
g553
sVcom.android.incallui
p696
g297
sVcom.miui.home
p697
g473
sg691
g249
ssg39
(dp698
g453
g427
sg428
g474
sVcom.tencent.mm
p699
g354
sg63
g457
ssg41
(dp700
sg43
(dp701
g333
g601
sVcom.miui.home
p702
g485
sg533
g356
sVcom.tencent.mobileqqi
p703
g141
sg528
g403
ssg45
(dp704
Vcom.android.browser
p705
g112
sg11
g134
sg13
g176
sVcom.ss.android.article.news
p706
g188
sg96
g197
sg322
g203
sVcom.android.thememanager
p707
g214
sg23
g229
sg345
g232
sg27
g252
sg349
g259
sVcom.miui.securitycenter
p708
g582
sVcom.android.incallui
p709
g303
sg250
g476
sg47
g380
sg358
g385
sVcom.achievo.vipshop
p710
g415
sVcom.xtuone.android.syllabus
p711
g617
sVcom.miui.player
p712
g447
sg43
g332
sVcom.miui.notes
p713
g513
sg51
g401
sg369
g534
sVcom.android.mms
p714
g559
sg144
g518
sg637
g599
sVcom.Qunar
p715
g444
ssg47
(dp716
Vcom.miui.securitycenter
p717
g583
sVcom.miui.home
p718
g477
sVcom.tencent.mm
p719
g357
ssg49
(dp720
g382
g307
sVcom.miui.home
p721
g478
sVcom.tencent.mm
p722
g359
sVcom.eg.android.AlipayGphone
p723
g254
ssg51
(dp724
g623
g223
sVcom.miui.notes
p725
g502
sVcom.miui.home
p726
g479
sg678
g368
ssg53
(dp727
Vcom.tencent.mobileqqi
p728
g136
sg369
g529
sg31
g268
sg681
g546
sg263
g579
sg142
g506
sg680
g480
sVcom.tencent.mm
p729
g361
sVcom.eg.android.AlipayGphone
p730
g243
ssg55
(dp731
Vcom.miui.home
p732
g481
sVcom.youdao.dict
p733
g165
ssg57
(dp734
Vcom.tencent.mobileqqi
p735
g137
sVcom.miui.home
p736
g482
sVcom.tencent.mm
p737
g362
sg63
g454
sg39
g319
ssg59
(dp738
Vcom.android.browser
p739
g104
sVcom.tencent.mobileqqi
p740
g138
sg436
g190
sVcom.android.mms
p741
g552
sg505
g412
sVcom.miui.home
p742
g483
ssg61
(dp743
g660
g475
ssg63
(dp744
g57
g430
sVcom.miui.home
p745
g484
sg735
g139
ssg65
(dp746
g8
g110
sg11
g133
sg13
g174
sg706
g186
sg272
g195
sg19
g205
sg21
g212
sg23
g227
sVcom.sohu.inputmethod.sogou
p747
g234
sg27
g251
sg349
g257
sg31
g266
sg33
g280
sg624
g301
sg248
g312
sg61
g450
sg45
g365
sg47
g378
sg675
g387
sg51
g400
sg53
g413
sg55
g422
sg57
g429
sg85
g615
sg41
g325
sg63
g456
sg43
g330
sg67
g511
sg69
g520
sg71
g532
sg73
g557
sg75
g568
sg77
g580
sg79
g587
sg650
g592
sg333
g597
sg633
g442
ssg67
(dp748
Vcom.android.browser
p749
g108
sVcom.tencent.mobileqqi
p750
g143
sVcom.youdao.dict
p751
g159
sVcom.android.mms
p752
g544
sg507
g287
sVcom.miui.home
p753
g486
sVcom.tencent.mm
p754
g367
ssg69
(dp755
Vcom.tencent.mobileqqi
p756
g145
sVcom.miui.home
p757
g487
sg521
g543
ssg71
(dp758
g77
g578
sVcom.miui.home
p759
g488
sVcom.tencent.mm
p760
g370
sVcom.achievo.vipshop
p761
g406
ssg73
(dp762
Vcom.android.browser
p763
g99
sVcom.tencent.mobileqqi
p764
g147
sVcom.youdao.dict
p765
g164
sg69
g522
sVcom.sankuai.meituan
p766
g274
sVcom.achievo.vipshop
p767
g409
sVcom.xiaomi.market
p768
g424
sg244
g566
sVcom.android.incallui
p769
g295
sg85
g612
sg151
g605
sg551
g440
sg105
g314
sg286
g504
sVcom.miui.home
p770
g489
sg674
g372
sVcom.eg.android.AlipayGphone
p771
g242
sg675
g389
ssg75
(dp772
g671
g100
sg608
g149
sVcom.android.mms
p773
g548
sg638
g607
sVcom.miui.home
p774
g490
sVcom.eg.android.AlipayGphone
p775
g245
ssg77
(dp776
Vcom.android.browser
p777
g102
sg71
g530
sg31
g264
sg53
g410
sg759
g491
sVcom.tencent.mm
p778
g373
ssg79
(dp779
Vcom.miui.home
p780
g492
sVcom.tencent.mobileqqi
p781
g150
sVcom.youdao.dict
p782
g170
ssg81
(dp783
Vcom.miui.home
p784
g493
ssg83
(dp785
Vcom.miui.gallery
p786
g334
sVcom.tencent.mobileqqi
p787
g152
sVcom.youdao.dict
p788
g172
sVcom.android.mms
p789
g555
sVcom.miui.home
p790
g494
sVcom.tencent.mm
p791
g375
ssg85
(dp792
Vcom.android.browser
p793
g116
sVcom.tencent.mobileqqi
p794
g154
sg667
g169
sVcom.ss.android.article.news
p795
g184
sg501
g396
sg423
g563
sg768
g425
sg166
g225
sg725
g509
sVcom.miui.home
p796
g495
sVcom.tencent.mm
p797
g363
sssS'adj'
p798
g90
sb.