ccopy_reg
_reconstructor
p1
(cnetworkx.classes.digraph
DiGraph
p2
c__builtin__
object
p3
NtRp4
(dp5
S'node'
p6
(dp7
Vcom.android.calendar
p8
(dp9
S'weight'
p10
F0.00089928057553956839
ssVcom.ksider.mobile.android.WebView
p11
(dp12
g10
F0.00063607650464993855
ssVcom.xfplay.play
p13
(dp14
g10
F0.021165994034041059
ssVcom.android.thememanager
p15
(dp16
g10
F0.00085541323039129672
ssVcom.android.deskclock
p17
(dp18
g10
F0.00054834181435339531
ssVcom.UCMobile
p19
(dp20
g10
F0.032352167046850323
ssVcom.tencent.pb
p21
(dp22
g10
F0.0045841375679943853
ssVcom.tencent.android.qqdownloader
p23
(dp24
g10
F0.0063826987190735221
ssVcom.storm.smart
p25
(dp26
g10
F0.0010089489384102475
ssVcom.xingjiabi.shengsheng
p27
(dp28
g10
F0.00039480610633444465
ssVcn.kidstone.cartoon
p29
(dp30
g10
F0.027307422354799087
ssVcom.sina.weibo
p31
(dp32
g10
F0.036475697490787856
ssVcom.tencent.map
p33
(dp34
g10
F0.003640989647306545
ssVca.jasonrtbond.moonsun
p35
(dp36
g10
F2.1933672574135815e-05
ssVcom.android.packageinstaller
p37
(dp38
g10
F0.0022372346025618531
ssVcom.android.phone
p39
(dp40
g10
F0.00065801017722407439
ssVcom.tencent.mtt
p41
(dp42
g10
F0.0040577294262151252
ssVcom.ikm
p43
(dp44
g10
F0.020157045095630811
ssVcom.tencent.mm
p45
(dp46
g10
F0.27335936129145466
ssVcom.tencent.news
p47
(dp48
g10
F0.00070187752237234606
ssVcom.android.fileexplorer
p49
(dp50
g10
F0.0044744692051237062
ssVcom.android.quicksearchbox
p51
(dp52
g10
F6.5801017722407433e-05
ssVcom.mishi.android.mainapp
p53
(dp54
g10
F0.0023469029654325322
ssVcom.tencent.mobileqq
p55
(dp56
g10
F0.12932093349710475
ssVcom.xunlei.downloadprovider
p57
(dp58
g10
F0.012063519915774697
ssVcom.xiaomi.smarthome
p59
(dp60
g10
F0.00010966836287067907
ssVcom.sohu.inputmethod.sogou
p61
(dp62
g10
F0.00017546938059308652
ssVcom.miui.gallery
p63
(dp64
g10
F0.0049789436743288293
ssVcom.tencent.reading
p65
(dp66
g10
F0.15454465695736094
ssVcom.u17.comic.phone
p67
(dp68
g10
F0.19347692577645201
ssVcom.android.settings
p69
(dp70
g10
F0.053408492718020707
ssVcom.miui.video
p71
(dp72
g10
F0.00035093876118617303
ssVcom.xiaomi.hm.health
p73
(dp74
g10
F0.00041673977890858044
ssVcmb.pb
p75
(dp76
g10
F0.0031365151781014215
ssVcom.tencent.rtxlite
p77
(dp78
g10
F0.0012502193367257414
ssVcom.ct.client
p79
(dp80
g10
F0.0024127039831549394
ssVcom.android.camera
p81
(dp82
g10
F2.1933672574135815e-05
sssS'node_dict_factory'
p83
c__builtin__
dict
p84
sS'edge_attr_dict_factory'
p85
g84
sS'succ'
p86
(dp87
g8
(dp88
Vcom.tencent.mobileqq
p89
(dp90
g10
I1
sssg11
(dp91
g75
(dp92
g10
F0.69999999999999996
ssg53
(dp93
g10
I1
ssVcom.tencent.mobileqq
p94
(dp95
g10
F1.3
sssg13
(dp96
Vcom.xunlei.downloadprovider
p97
(dp98
g10
F4.2999999999999998
ssVcom.UCMobile
p99
(dp100
g10
F1.3999999999999999
ssVcom.android.packageinstaller
p101
(dp102
g10
F2.2999999999999998
ssg73
(dp103
g10
F1.3
ssVcom.android.fileexplorer
p104
(dp105
g10
F4.2999999999999998
ssVcom.android.quicksearchbox
p106
(dp107
g10
F1.3
ssVcom.tencent.mtt
p108
(dp109
g10
F1.7
ssVcn.kidstone.cartoon
p110
(dp111
g10
F3.3999999999999999
ssVcom.tencent.mobileqq
p112
(dp113
g10
I4
sssg15
(dp114
Vcom.tencent.mm
p115
(dp116
g10
F0.90000000000000002
ssVcom.tencent.pb
p117
(dp118
g10
I1
ssVcom.tencent.mobileqq
p119
(dp120
g10
F0.69999999999999996
sssg17
(dp121
Vcom.tencent.mm
p122
(dp123
g10
F0.90000000000000002
ssVcom.xfplay.play
p124
(dp125
g10
I1
ssVcom.tencent.mobileqq
p126
(dp127
g10
I1
sssg19
(dp128
g57
(dp129
g10
I1
ssg101
(dp130
g10
F0.90000000000000002
ssVcom.u17.comic.phone
p131
(dp132
g10
I1
ssVcom.tencent.mobileqq
p133
(dp134
g10
F1.3999999999999999
ssVcom.sina.weibo
p135
(dp136
g10
I1
ssg59
(dp137
g10
I1
ssVcom.android.fileexplorer
p138
(dp139
g10
F2.7999999999999998
ssVcom.tencent.pb
p140
(dp141
g10
F1.8999999999999999
ssVcom.tencent.android.qqdownloader
p142
(dp143
g10
F1.3
ssg108
(dp144
g10
F0.40000000000000002
ssg29
(dp145
g10
F1.6000000000000001
ssVcom.tencent.mm
p146
(dp147
g10
F1.3999999999999999
ssg13
(dp148
g10
F2.7000000000000002
sssg21
(dp149
g138
(dp150
g10
F1.3
ssg115
(dp151
g10
I1
ssVcom.UCMobile
p152
(dp153
g10
I1
ssg142
(dp154
g10
F0.69999999999999996
ssVcom.android.phone
p155
(dp156
g10
I1
ssg79
(dp157
g10
F2.7000000000000002
ssVcom.tencent.mobileqq
p158
(dp159
g10
F4.9000000000000004
sssg23
(dp160
g11
(dp161
g10
F1.3
ssVcom.android.fileexplorer
p162
(dp163
g10
I1
ssVcom.tencent.mm
p164
(dp165
g10
F1.7
ssVcom.android.packageinstaller
p166
(dp167
g10
F5.4000000000000004
ssg77
(dp168
g10
I1
ssg53
(dp169
g10
F0.69999999999999996
ssVcom.tencent.mobileqq
p170
(dp171
g10
F1.3
sssg25
(dp172
sg27
(dp173
sg29
(dp174
Vcom.xunlei.downloadprovider
p175
(dp176
g10
F1.7000000000000002
ssg73
(dp177
g10
F1.7
ssVcom.xfplay.play
p178
(dp179
g10
F1.7
ssg146
(dp180
g10
F2.8999999999999999
ssVcom.tencent.android.qqdownloader
p181
(dp182
g10
F0.90000000000000002
sssg31
(dp183
Vcom.tencent.news
p184
(dp185
g10
F1.3
ssVcom.tencent.mobileqq
p186
(dp187
g10
I1
ssg166
(dp188
g10
F1.3
ssVcom.UCMobile
p189
(dp190
g10
F0.90000000000000002
ssVcom.tencent.pb
p191
(dp192
g10
F0.40000000000000002
ssVcom.tencent.android.qqdownloader
p193
(dp194
g10
F1.7
ssg51
(dp195
g10
I1
ssg61
(dp196
g10
F1.3
ssVcom.tencent.mm
p197
(dp198
g10
F14.899999999999999
sssg33
(dp199
sg35
(dp200
g27
(dp201
g10
I1
sssg37
(dp202
g11
(dp203
g10
F1.7
ssg94
(dp204
g10
F0.69999999999999996
ssVcom.xfplay.play
p205
(dp206
g10
F1.7
ssg75
(dp207
g10
F0.40000000000000002
ssVcom.tencent.android.qqdownloader
p208
(dp209
g10
F3.7000000000000002
ssg53
(dp210
g10
F1.3
ssg108
(dp211
g10
F0.90000000000000002
ssg110
(dp212
g10
F0.40000000000000002
ssVcom.tencent.mm
p213
(dp214
g10
F1.8999999999999999
sssg39
(dp215
Vcom.tencent.pb
p216
(dp217
g10
I1
sssg41
(dp218
Vcom.tencent.mobileqq
p219
(dp220
g10
I2
ssVcom.xfplay.play
p221
(dp222
g10
F1.7
ssg193
(dp223
g10
F1.7000000000000002
ssg110
(dp224
g10
F1.3
ssVcom.sina.weibo
p225
(dp226
g10
F1.7
ssg166
(dp227
g10
F0.69999999999999996
sssg43
(dp228
Vcom.u17.comic.phone
p229
(dp230
g10
I1
ssVcom.sina.weibo
p231
(dp232
g10
F1.7
ssVcom.tencent.mobileqq
p233
(dp234
g10
I2
sssg45
(dp235
g189
(dp236
g10
F2.7000000000000002
ssg97
(dp237
g10
F2.2000000000000002
ssg184
(dp238
g10
F1.7
ssg104
(dp239
g10
F0.69999999999999996
ssg65
(dp240
g10
I2
ssVcom.u17.comic.phone
p241
(dp242
g10
I1
ssVcom.tencent.mobileqq
p243
(dp244
g10
F15.599999999999998
ssVcom.xfplay.play
p245
(dp246
g10
I2
ssVcom.android.settings
p247
(dp248
g10
I1
ssg35
(dp249
g10
I1
ssg8
(dp250
g10
F1.7
ssg191
(dp251
g10
F3.3999999999999999
ssVcom.tencent.android.qqdownloader
p252
(dp253
g10
F6.2999999999999998
ssg155
(dp254
g10
F1.3
ssg61
(dp255
g10
F1.7
ssg27
(dp256
g10
F0.90000000000000002
ssVcom.sina.weibo
p257
(dp258
g10
F15.5
ssVcom.android.packageinstaller
p259
(dp260
g10
F1.8
ssg33
(dp261
g10
I1
sssg47
(dp262
g191
(dp263
g10
F1.3
ssg155
(dp264
g10
F0.69999999999999996
ssVcom.tencent.mm
p265
(dp266
g10
I1
ssVcom.tencent.reading
p267
(dp268
g10
I1
sssg49
(dp269
Vcom.xunlei.downloadprovider
p270
(dp271
g10
I1
ssVcom.xfplay.play
p272
(dp273
g10
F2.6000000000000001
ssg99
(dp274
g10
F1.8
ssg142
(dp275
g10
I1
ssg106
(dp276
g10
I1
ssg63
(dp277
g10
I2
ssg55
(dp278
g10
F5
ssg101
(dp279
g10
F1.3999999999999999
sssg51
(dp280
sg53
(dp281
g75
(dp282
g10
F0.90000000000000002
ssVcom.android.calendar
p283
(dp284
g10
F0.40000000000000002
ssg94
(dp285
g10
F1.7
sssg55
(dp286
Vcom.xfplay.play
p287
(dp288
g10
F4.7000000000000002
ssg79
(dp289
g10
F1.7000000000000002
ssg17
(dp290
g10
I1
ssVcom.xiaomi.hm.health
p291
(dp292
g10
I1
ssVcom.tencent.pb
p293
(dp294
g10
F3.3999999999999999
ssg23
(dp295
g10
F1.6000000000000001
ssg25
(dp296
g10
I1
ssg29
(dp297
g10
F1.8999999999999999
ssg231
(dp298
g10
F3.2000000000000002
ssg77
(dp299
g10
F2.6000000000000001
ssg166
(dp300
g10
F1.1000000000000001
ssVcom.tencent.mtt
p301
(dp302
g10
F2.7000000000000002
ssVcom.ikm
p303
(dp304
g10
F3
ssg146
(dp305
g10
F16.5
ssVcom.UCMobile
p306
(dp307
g10
I1
ssVcom.tencent.news
p308
(dp309
g10
I1
ssVcom.android.fileexplorer
p310
(dp311
g10
F4.2999999999999998
ssg63
(dp312
g10
F0.90000000000000002
ssVcom.tencent.reading
p313
(dp314
g10
F7.6000000000000005
ssg8
(dp315
g10
F3
ssg71
(dp316
g10
I1
ssg75
(dp317
g10
I1
ssg67
(dp318
g10
I1
ssg106
(dp319
g10
F0.69999999999999996
ssg81
(dp320
g10
I1
sssg57
(dp321
g104
(dp322
g10
I1
ssg272
(dp323
g10
F2.7000000000000002
ssg101
(dp324
g10
F0.69999999999999996
ssg99
(dp325
g10
F1.7
sssg59
(dp326
g21
(dp327
g10
I1
sssg61
(dp328
Vcom.sina.weibo
p329
(dp330
g10
F1.3
ssVcom.tencent.mm
p331
(dp332
g10
F1.7
sssg63
(dp333
Vcom.android.fileexplorer
p334
(dp335
g10
F2.8999999999999999
ssVcom.xfplay.play
p336
(dp337
g10
I1
ssVcom.tencent.mobileqq
p338
(dp339
g10
F0.69999999999999996
sssg65
(dp340
g57
(dp341
g10
F0.90000000000000002
ssg35
(dp342
g10
F0.90000000000000002
ssVcom.tencent.mm
p343
(dp344
g10
F3.7000000000000002
ssg15
(dp345
g10
I1
ssVcom.UCMobile
p346
(dp347
g10
I1
ssg117
(dp348
g10
F0.90000000000000002
ssg27
(dp349
g10
F0.69999999999999996
ssVcom.tencent.mobileqq
p350
(dp351
g10
F3.1000000000000001
sssg67
(dp352
g77
(dp353
g10
F0.90000000000000002
ssVcom.tencent.mobileqq
p354
(dp355
g10
I1
ssg23
(dp356
g10
I2
ssg19
(dp357
g10
I1
sssg69
(dp358
Vcom.xunlei.downloadprovider
p359
(dp360
g10
I1
ssg47
(dp361
g10
I1
ssg267
(dp362
g10
F0.90000000000000002
ssg39
(dp363
g10
I1
ssg41
(dp364
g10
I1
ssg219
(dp365
g10
F0.90000000000000002
sssg71
(dp366
sg73
(dp367
g175
(dp368
g10
F2.1000000000000001
ssVcom.xfplay.play
p369
(dp370
g10
F0.90000000000000002
sssg75
(dp371
g283
(dp372
g10
F0.90000000000000002
ssVcom.tencent.mobileqq
p373
(dp374
g10
F1.7
sssg77
(dp375
g231
(dp376
g10
F0.40000000000000002
ssg303
(dp377
g10
F1.7
ssg233
(dp378
g10
F0.90000000000000002
sssg79
(dp379
g158
(dp380
g10
F1.7
ssVcom.tencent.pb
p381
(dp382
g10
I1
sssg81
(dp383
g79
(dp384
g10
F0.69999999999999996
ssg293
(dp385
g10
F1.3
ssVcom.tencent.mobileqq
p386
(dp387
g10
I1
ssssS'edge'
p388
g87
sS'graph'
p389
(dp390
sS'adjlist_dict_factory'
p391
g84
sS'adj'
p392
g87
sS'pred'
p393
(dp394
g8
(dp395
g75
g372
sVcom.tencent.mm
p396
g250
sVcom.tencent.mobileqq
p397
g315
sg53
g284
ssg11
(dp398
g166
g203
sg193
g161
ssg13
(dp399
g97
g323
sVcom.miui.gallery
p400
g337
sg104
g273
sVcom.tencent.mobileqq
p401
g288
sg101
g206
sg73
g370
sVcom.android.deskclock
p402
g125
sVcom.UCMobile
p403
g148
sg108
g222
sg110
g179
sVcom.tencent.mm
p404
g246
ssg15
(dp405
Vcom.tencent.reading
p406
g345
ssg17
(dp407
Vcom.tencent.mobileqq
p408
g290
ssg19
(dp409
g97
g325
sVcom.tencent.reading
p410
g347
sVcom.u17.comic.phone
p411
g357
sVcom.tencent.mm
p412
g236
sVcom.xfplay.play
p413
g100
sg104
g274
sg140
g153
sVcom.sina.weibo
p414
g190
sVcom.tencent.mobileqq
p415
g307
ssg21
(dp416
g184
g263
sg406
g348
sg257
g192
sg15
g118
sVcom.xiaomi.smarthome
p417
g327
sVcom.UCMobile
p418
g141
sg155
g217
sg79
g382
sg81
g385
sVcom.tencent.mm
p419
g251
sVcom.tencent.mobileqq
p420
g294
ssg23
(dp421
Vcom.UCMobile
p422
g143
sg67
g356
sVcom.tencent.mobileqq
p423
g295
sg225
g194
sg138
g275
sg140
g154
sg301
g223
sVcn.kidstone.cartoon
p424
g182
sg45
g253
sg166
g209
ssg25
(dp425
Vcom.tencent.mobileqq
p426
g296
ssg27
(dp427
Vcom.tencent.mm
p428
g256
sg35
g201
sVcom.tencent.reading
p429
g349
ssg29
(dp430
Vcom.UCMobile
p431
g145
sg101
g212
sg133
g297
sg205
g111
sg108
g224
ssg31
(dp432
Vcom.tencent.rtxlite
p433
g376
sg233
g298
sg189
g136
sg61
g330
sg301
g226
sg303
g232
sg197
g258
ssg33
(dp434
Vcom.tencent.mm
p435
g261
ssg35
(dp436
g428
g249
sg429
g342
ssg37
(dp437
g270
g324
sg99
g130
sg225
g188
sg272
g102
sVcom.tencent.mm
p438
g260
sg104
g279
sg193
g167
sVcom.tencent.mtt
p439
g227
sVcom.tencent.mobileqq
p440
g300
ssg39
(dp441
Vcom.android.settings
p442
g363
sg419
g254
sg184
g264
sg191
g156
ssg41
(dp443
g69
g364
sg272
g109
sVcom.tencent.mobileqq
p444
g302
sg101
g211
sg99
g144
ssg43
(dp445
g433
g377
sVcom.tencent.mobileqq
p446
g304
ssg45
(dp447
g184
g266
sg65
g344
sg133
g305
sg37
g214
sg15
g116
sVcom.android.deskclock
p448
g123
sg431
g147
sg61
g332
sVcom.tencent.android.qqdownloader
p449
g165
sg117
g151
sg29
g180
sg31
g198
ssg47
(dp450
Vcom.android.settings
p451
g361
sg197
g238
sg31
g185
sVcom.tencent.mobileqq
p452
g309
ssg49
(dp453
g97
g322
sVcom.tencent.mobileqq
p454
g311
sg413
g105
sg418
g139
sg140
g150
sg142
g163
sg63
g335
sVcom.tencent.mm
p455
g239
ssg51
(dp456
Vcom.tencent.mobileqq
p457
g319
sVcom.xfplay.play
p458
g107
sVcom.sina.weibo
p459
g195
sVcom.android.fileexplorer
p460
g276
ssg53
(dp461
g166
g210
sg11
g93
sg208
g169
ssg55
(dp462
g11
g95
sg245
g113
sg15
g120
sg448
g127
sg431
g134
sg293
g159
sg142
g171
sVcom.sina.weibo
p463
g187
sg433
g378
sVcom.android.packageinstaller
p464
g204
sg41
g220
sg63
g339
sVcom.tencent.mm
p465
g244
sg49
g278
sg53
g285
sg303
g234
sg313
g351
sg283
g90
sg69
g365
sg75
g374
sVcom.u17.comic.phone
p466
g355
sg79
g380
sg81
g387
ssg57
(dp467
g104
g271
sg247
g360
sg413
g98
sg410
g341
sg346
g129
sg73
g368
sg110
g176
sg455
g237
ssg59
(dp468
Vcom.UCMobile
p469
g137
ssg61
(dp470
Vcom.tencent.mm
p471
g255
sVcom.sina.weibo
p472
g196
ssg63
(dp473
g310
g277
sg454
g312
ssg65
(dp474
g451
g362
sVcom.tencent.mm
p475
g240
sg47
g268
sVcom.tencent.mobileqq
p476
g314
ssg67
(dp477
g45
g242
sg43
g230
sg423
g318
sVcom.UCMobile
p478
g132
ssg69
(dp479
Vcom.tencent.mm
p480
g248
ssg71
(dp481
Vcom.tencent.mobileqq
p482
g316
ssg73
(dp483
g221
g103
sg110
g177
sVcom.tencent.mobileqq
p484
g292
ssg75
(dp485
g53
g282
sg464
g207
sg11
g92
sg94
g317
ssg77
(dp486
g67
g353
sg423
g299
sg23
g168
ssg79
(dp487
g81
g384
sg420
g289
sg293
g157
ssg81
(dp488
g420
g320
sssb.