ccopy_reg
_reconstructor
p1
(cnetworkx.classes.digraph
DiGraph
p2
c__builtin__
object
p3
NtRp4
(dp5
S'node'
p6
(dp7
Vcom.android.browser
p8
(dp9
S'weight'
p10
F0.00030865389233511854
ssVcom.adobe.air
p11
(dp12
g10
F4.2378108787430463e-06
ssVcom.huawei.lcagent
p13
(dp14
g10
F0.0051035014676951681
ssVcom.android.notepad
p15
(dp16
g10
F0.002096774649226976
ssVair.tv.douyu.android
p17
(dp18
g10
F0.0086333624957504167
ssVcom.wonder
p19
(dp20
g10
F0.00072890347114380402
ssVcom.android.thememanager
p21
(dp22
g10
F0.00055044454636118012
ssVcom.evernote
p23
(dp24
g10
F0.0011592767092739311
ssVcom.android.deskclock
p25
(dp26
g10
F0.0079294150220036563
ssVcom.UCMobile
p27
(dp28
g10
F0.14392076612086802
ssVcom.huawei.android.pushagent
p29
(dp30
g10
F2.7310336774121856e-05
ssVcom.taobao.taobao
p31
(dp32
g10
F0.0012962992610199564
ssVcom.android.launcher
p33
(dp34
g10
F0.49302997827415623
ssVcom.huawei.android.internal.app
p35
(dp36
g10
F9.6527914460258275e-06
ssVcom.android.mediacenter
p37
(dp38
g10
F0.0014756999215534119
ssVcom.sina.weibo
p39
(dp40
g10
F0.0006542709128903848
ssVcom.android.contacts
p41
(dp42
g10
F0.020066269944786032
ssVcom.eg.android.AlipayGphone
p43
(dp44
g10
F0.0042114422777197562
ssVcom.android.wifi
p45
(dp46
g10
F1.0829961134565563e-05
ssVcom.huawei.android.totemweather
p47
(dp48
g10
F0.00080424233121034706
ssVcn.wps.moffice_i18n
p49
(dp50
g10
F2.9900110088909273e-05
ssVcom.android.packageinstaller
p51
(dp52
g10
F0.00071972154757319402
ssVcom.sankuai.meituan
p53
(dp54
g10
F0.00011512719553918609
ssVcom.android.gallery3d
p55
(dp56
g10
F0.0036230928673875967
ssVcom.jingdong.app.mall
p57
(dp58
g10
F0.0014342635485168132
ssVcom.android.musicfx
p59
(dp60
g10
F1.5538639888724502e-05
ssVcom.huawei.hidisk
p61
(dp62
g10
F6.8040407997596692e-05
ssVcom.android.video
p63
(dp64
g10
F4.7086787541589403e-07
ssVcom.android.phone
p65
(dp66
g10
F0.00067946234422513508
ssVcom.vmall.client
p67
(dp68
g10
F0.00031712951409260462
ssVcom.huawei.fans
p69
(dp70
g10
F8.9464896329019872e-05
ssVcom.tencent.mobileqq
p71
(dp72
g10
F0.067038401158711666
ssVcom.android.settings
p73
(dp74
g10
F0.0019710529264909326
ssVim.yixin
p75
(dp76
g10
F0.00021565748694047949
ssVcom.netease.cloudmusic
p77
(dp78
g10
F0.016284023735507865
ssVcom.huawei.android.hwouc
p79
(dp80
g10
F8.0047538820701992e-05
ssVcom.android.calculator
p81
(dp82
g10
F0.0028150835931739226
ssVcom.baidu.lbs.waimai
p83
(dp84
g10
F0.00088311270034250927
ssVcom.huawei.android.dsdscardmanager
p85
(dp86
g10
F2.8487506462661591e-05
ssVcom.qiyi.video
p87
(dp88
g10
F0.00092808058244472718
ssVcom.kingsoft
p89
(dp90
g10
F0.0031051382044301134
ssVcom.baidu.BaiduMap
p91
(dp92
g10
F0.0015988318709746682
ssVcom.android.email
p93
(dp94
g10
F0.0017499804589831702
ssVcom.huawei.gamebox
p95
(dp96
g10
F8.4756217574860926e-06
ssVcom.rrh.jdb
p97
(dp98
g10
F0.00032183819284676359
ssVcom.huawei.vassistant
p99
(dp100
g10
F3.1312713715156956e-05
ssVcom.machipopo.story17
p101
(dp102
g10
F0.0008795811912768901
ssVcom.android.calendar
p103
(dp104
g10
F0.0010869984903975915
ssVcom.tencent.mm
p105
(dp106
g10
F0.16477008934247067
ssVcom.baidu.input_huawei
p107
(dp108
g10
F3.2725317341404635e-05
ssVcom.duowan.mobile
p109
(dp110
g10
F5.3208069921996025e-05
ssVcom.huawei.hwid
p111
(dp112
g10
F1.2948866573937087e-05
ssVcom.android.keyguard
p113
(dp114
g10
F1.6480375639556293e-06
ssVcom.chaozh.iReaderFree15
p115
(dp116
g10
F0.0010241376290295696
ssVcom.dotamax.app
p117
(dp118
g10
F0.032822786991615727
ssVcom.huawei.appmarket
p119
(dp120
g10
F0.0011891768193628405
ssVcom.iyuba.toelflistening
p121
(dp122
g10
F0.00040353376923142121
ssVcom.android.camera
p123
(dp124
g10
F0.00078964542707245428
ssVcn.coupon.kfc
p125
(dp126
g10
F0.00076045161879666884
sssS'node_dict_factory'
p127
c__builtin__
dict
p128
sS'edge_attr_dict_factory'
p129
g128
sS'succ'
p130
(dp131
g8
(dp132
Vcom.machipopo.story17
p133
(dp134
g10
F1.3999999999999999
ssVcom.android.thememanager
p135
(dp136
g10
F0.90000000000000002
ssVcom.UCMobile
p137
(dp138
g10
F6.3000000000000007
ssVcom.dotamax.app
p139
(dp140
g10
F0.40000000000000002
ssVcom.android.launcher
p141
(dp142
g10
F22.399999999999991
ssVcom.huawei.appmarket
p143
(dp144
g10
F0.40000000000000002
ssVcom.android.email
p145
(dp146
g10
F10.1
ssVcom.tencent.mm
p147
(dp148
g10
F5.1000000000000005
ssVcom.android.contacts
p149
(dp150
g10
F0.69999999999999996
sssg11
(dp151
Vcom.UCMobile
p152
(dp153
g10
F0.69999999999999996
ssVcom.android.launcher
p154
(dp155
g10
F4.2000000000000002
ssVcom.android.settings
p156
(dp157
g10
F0.40000000000000002
sssg13
(dp158
Vcom.android.deskclock
p159
(dp160
g10
I1
ssVcom.tencent.mobileqq
p161
(dp162
g10
F0.69999999999999996
ssVcom.android.contacts
p163
(dp164
g10
I1
ssVcom.android.launcher
p165
(dp166
g10
F1.3
sssg15
(dp167
Vcom.UCMobile
p168
(dp169
g10
F1.3
ssVcom.tencent.mm
p170
(dp171
g10
F5.4000000000000004
ssVcom.android.contacts
p172
(dp173
g10
F2.2999999999999998
ssVcom.android.launcher
p174
(dp175
g10
F22.499999999999996
ssVcom.evernote
p176
(dp177
g10
F0.90000000000000002
sssg17
(dp178
Vcom.android.settings
p179
(dp180
g10
I1
ssVcom.tencent.mm
p181
(dp182
g10
F4.7999999999999998
ssVcom.UCMobile
p183
(dp184
g10
F1.3
ssVcom.dotamax.app
p185
(dp186
g10
F0.40000000000000002
ssVcom.android.launcher
p187
(dp188
g10
F24.399999999999999
ssVcom.huawei.appmarket
p189
(dp190
g10
F1.7
ssVcom.tencent.mobileqq
p191
(dp192
g10
F2.6999999999999997
ssVcom.android.contacts
p193
(dp194
g10
F1.3
sssg19
(dp195
Vcom.android.camera
p196
(dp197
g10
F0.40000000000000002
ssVcom.tencent.mm
p198
(dp199
g10
F2.7000000000000002
ssVcom.android.thememanager
p200
(dp201
g10
F0.90000000000000002
ssVcom.android.launcher
p202
(dp203
g10
F6.2999999999999998
ssVcom.huawei.appmarket
p204
(dp205
g10
I1
sssg21
(dp206
Vcom.android.browser
p207
(dp208
g10
F0.40000000000000002
ssVcom.huawei.hwid
p209
(dp210
g10
F2.1000000000000001
ssVcom.android.calendar
p211
(dp212
g10
F0.40000000000000002
ssVcom.android.gallery3d
p213
(dp214
g10
F2.0999999999999996
ssg51
(dp215
g10
F0.69999999999999996
ssVcom.huawei.android.dsdscardmanager
p216
(dp217
g10
I1
ssVcom.android.deskclock
p218
(dp219
g10
F0.90000000000000002
ssVcom.UCMobile
p220
(dp221
g10
F0.90000000000000002
ssg33
(dp222
g10
F13.899999999999999
ssVcom.huawei.android.totemweather
p223
(dp224
g10
F1.3
ssg196
(dp225
g10
F3.8999999999999999
ssVcom.huawei.fans
p226
(dp227
g10
F0.69999999999999996
ssg105
(dp228
g10
F2
sssg23
(dp229
Vcom.android.deskclock
p230
(dp231
g10
F1.3999999999999999
ssVcom.UCMobile
p232
(dp233
g10
F2
ssVcom.tencent.mm
p234
(dp235
g10
F1.8
ssVcom.eg.android.AlipayGphone
p236
(dp237
g10
F0.69999999999999996
ssVcom.android.launcher
p238
(dp239
g10
F18.600000000000001
sssg25
(dp240
Vcom.dotamax.app
p241
(dp242
g10
F5.5
ssVcom.huawei.lcagent
p243
(dp244
g10
F3.7000000000000002
ssVcom.kingsoft
p245
(dp246
g10
I1
ssVcom.netease.cloudmusic
p247
(dp248
g10
I1
ssg103
(dp249
g10
F0.90000000000000002
ssg73
(dp250
g10
F3.3999999999999995
ssVcom.android.gallery3d
p251
(dp252
g10
F0.69999999999999996
ssVcom.baidu.BaiduMap
p253
(dp254
g10
I1
ssVcom.taobao.taobao
p255
(dp256
g10
F0.90000000000000002
ssVcom.UCMobile
p257
(dp258
g10
F12.700000000000003
ssVcom.qiyi.video
p259
(dp260
g10
I1
ssVcom.android.launcher
p261
(dp262
g10
F73.100000000000023
ssVcom.android.notepad
p263
(dp264
g10
F0.90000000000000002
ssVcom.android.email
p265
(dp266
g10
F1.3
ssVcom.tencent.mm
p267
(dp268
g10
F24.79999999999999
ssVcom.android.contacts
p269
(dp270
g10
F3
ssVcom.tencent.mobileqq
p271
(dp272
g10
F1.6000000000000001
sssg27
(dp273
g8
(dp274
g10
F7.2000000000000002
ssg11
(dp275
g10
F0.40000000000000002
ssVcom.android.notepad
p276
(dp277
g10
F2.7000000000000002
ssVim.yixin
p278
(dp279
g10
F1.3
ssVcn.wps.moffice_i18n
p280
(dp281
g10
F0.69999999999999996
ssg23
(dp282
g10
F3.6000000000000001
ssg25
(dp283
g10
F21.099999999999998
ssVcom.machipopo.story17
p284
(dp285
g10
F1.3
ssVcom.huawei.android.pushagent
p286
(dp287
g10
I1
ssVcom.android.launcher
p288
(dp289
g10
F538.99999999999886
ssVcom.android.mediacenter
p290
(dp291
g10
F1.8
ssVcom.sina.weibo
p292
(dp293
g10
F0.90000000000000002
ssVcom.android.contacts
p294
(dp295
g10
F25.399999999999984
ssVcom.eg.android.AlipayGphone
p296
(dp297
g10
F6.8000000000000007
ssVcom.huawei.android.totemweather
p298
(dp299
g10
F2.2000000000000002
ssg51
(dp300
g10
I4
ssVcom.android.gallery3d
p301
(dp302
g10
F7.7000000000000011
ssg57
(dp303
g10
F2.2000000000000002
ssg31
(dp304
g10
F2.6000000000000001
ssVcom.android.phone
p305
(dp306
g10
F0.69999999999999996
ssVcom.vmall.client
p307
(dp308
g10
F2.2000000000000002
ssVcom.tencent.mm
p309
(dp310
g10
F130.5000000000002
ssg77
(dp311
g10
F4.9000000000000004
ssg79
(dp312
g10
I1
ssg115
(dp313
g10
F1.3
ssg17
(dp314
g10
F2.8999999999999999
ssVcom.android.email
p315
(dp316
g10
F11.600000000000003
ssg71
(dp317
g10
F38.09999999999998
ssVcom.rrh.jdb
p318
(dp319
g10
F1.8999999999999999
ssVcom.huawei.vassistant
p320
(dp321
g10
I2
ssVcom.android.calendar
p322
(dp323
g10
F1.8999999999999999
ssg73
(dp324
g10
F39.899999999999991
ssVcom.baidu.BaiduMap
p325
(dp326
g10
F3.3999999999999999
ssVcom.huawei.hwid
p327
(dp328
g10
F3
ssVcom.dotamax.app
p329
(dp330
g10
F34.499999999999979
ssVcom.huawei.appmarket
p331
(dp332
g10
F9.4000000000000021
ssVcom.android.camera
p333
(dp334
g10
F12.600000000000003
sssg29
(dp335
g67
(dp336
g10
F1.3
ssVcom.huawei.hwid
p337
(dp338
g10
F0.69999999999999996
ssVcom.android.launcher
p339
(dp340
g10
I1
sssg31
(dp341
Vcom.android.browser
p342
(dp343
g10
F0.90000000000000002
ssVcom.jingdong.app.mall
p344
(dp345
g10
F0.40000000000000002
ssVcom.dotamax.app
p346
(dp347
g10
I1
ssVcom.android.launcher
p348
(dp349
g10
F33.099999999999987
ssVcom.android.camera
p350
(dp351
g10
I1
ssVcom.tencent.mm
p352
(dp353
g10
F2.0999999999999996
ssVcom.android.contacts
p354
(dp355
g10
F0.69999999999999996
sssg33
(dp356
g8
(dp357
g10
F22.799999999999986
ssg11
(dp358
g10
F2.7999999999999998
ssVcom.huawei.lcagent
p359
(dp360
g10
F2.7999999999999998
ssg115
(dp361
g10
F3.3999999999999999
ssg17
(dp362
g10
F19.199999999999999
ssVcom.wonder
p363
(dp364
g10
F4.4000000000000004
ssVcom.android.thememanager
p365
(dp366
g10
F15.199999999999999
ssg23
(dp367
g10
F11.199999999999999
ssg25
(dp368
g10
F131.00000000000009
ssg27
(dp369
g10
F394.19999999999862
ssg29
(dp370
g10
I1
ssg31
(dp371
g10
F21.599999999999998
ssg15
(dp372
g10
F24.599999999999998
ssg35
(dp373
g10
F6.2000000000000011
ssg37
(dp374
g10
F30.999999999999996
ssg39
(dp375
g10
F6.7999999999999998
ssg41
(dp376
g10
F235.79999999999987
ssg43
(dp377
g10
F64
ssg45
(dp378
g10
I1
ssVcom.huawei.android.totemweather
p379
(dp380
g10
F22.499999999999996
ssg49
(dp381
g10
F2.6999999999999997
ssg51
(dp382
g10
F5.2000000000000002
ssVcom.sankuai.meituan
p383
(dp384
g10
I1
ssg55
(dp385
g10
F77.800000000000011
ssg57
(dp386
g10
F13.399999999999999
ssg59
(dp387
g10
F3.1000000000000001
ssVcom.huawei.hidisk
p388
(dp389
g10
F14.399999999999999
ssg63
(dp390
g10
F4.7000000000000002
ssVcom.android.phone
p391
(dp392
g10
F7.8000000000000007
ssg67
(dp393
g10
F6.1000000000000005
ssg226
(dp394
g10
F3.4000000000000004
ssg105
(dp395
g10
F962.80000000000211
ssg278
(dp396
g10
F2.7000000000000002
ssg77
(dp397
g10
F35.5
ssVcom.huawei.android.hwouc
p398
(dp399
g10
F5.5
ssVcom.android.calculator
p400
(dp401
g10
I3
ssg83
(dp402
g10
F12.199999999999999
ssVcom.huawei.android.dsdscardmanager
p403
(dp404
g10
F1.3
ssg87
(dp405
g10
F3.2999999999999998
ssg89
(dp406
g10
F5.4000000000000004
ssg91
(dp407
g10
F17.600000000000001
ssVcom.android.email
p408
(dp409
g10
F38.5
ssg71
(dp410
g10
F355.3999999999989
ssVcom.rrh.jdb
p411
(dp412
g10
I2
ssg95
(dp413
g10
F5.7999999999999998
ssg284
(dp414
g10
F4.4000000000000004
ssg103
(dp415
g10
F19.799999999999997
ssg73
(dp416
g10
F103.30000000000011
ssg107
(dp417
g10
F6.1000000000000005
ssVcom.duowan.mobile
p418
(dp419
g10
I1
ssVcom.huawei.vassistant
p420
(dp421
g10
I2
ssg111
(dp422
g10
F33.399999999999977
ssVcom.android.keyguard
p423
(dp424
g10
I1
ssg117
(dp425
g10
F166.09999999999994
ssg119
(dp426
g10
F59.200000000000017
ssg121
(dp427
g10
I1
ssg123
(dp428
g10
F68.000000000000043
sssg35
(dp429
Vcom.huawei.hidisk
p430
(dp431
g10
F0.90000000000000002
ssVcom.android.gallery3d
p432
(dp433
g10
F1.6000000000000001
ssVcom.tencent.mm
p434
(dp435
g10
F5.7000000000000002
ssg49
(dp436
g10
F0.90000000000000002
ssVcom.android.launcher
p437
(dp438
g10
F3.2999999999999998
sssg37
(dp439
Vcom.netease.cloudmusic
p440
(dp441
g10
F4
ssVcom.UCMobile
p442
(dp443
g10
F2.5
ssVcom.android.settings
p444
(dp445
g10
F0.40000000000000002
ssVcom.android.musicfx
p446
(dp447
g10
F1.7
ssg25
(dp448
g10
F0.90000000000000002
ssg111
(dp449
g10
F5.7000000000000002
ssVcom.taobao.taobao
p450
(dp451
g10
F0.69999999999999996
ssVcom.android.launcher
p452
(dp453
g10
F39.700000000000003
ssVcom.iyuba.toelflistening
p454
(dp455
g10
I1
ssVcom.android.email
p456
(dp457
g10
F0.40000000000000002
ssVcom.tencent.mm
p458
(dp459
g10
F5.8000000000000007
ssVcom.android.contacts
p460
(dp461
g10
F2.2999999999999998
ssVcom.tencent.mobileqq
p462
(dp463
g10
I1
sssg39
(dp464
Vcom.android.deskclock
p465
(dp466
g10
F0.40000000000000002
ssVcom.android.settings
p467
(dp468
g10
I1
ssVcom.tencent.mm
p469
(dp470
g10
F0.69999999999999996
ssVcom.android.launcher
p471
(dp472
g10
F8.0999999999999996
sssg41
(dp473
Vcom.android.browser
p474
(dp475
g10
F2.7000000000000002
ssVcom.kingsoft
p476
(dp477
g10
I1
ssVcom.tencent.mm
p478
(dp479
g10
F83.700000000000045
ssVcom.android.thememanager
p480
(dp481
g10
F1.7000000000000002
ssVcom.evernote
p482
(dp483
g10
F1.7000000000000002
ssVcom.android.deskclock
p484
(dp485
g10
F2.2999999999999998
ssVcom.UCMobile
p486
(dp487
g10
F9.7000000000000011
ssVcom.android.launcher
p488
(dp489
g10
F259.79999999999978
ssVcom.android.mediacenter
p490
(dp491
g10
F1.8999999999999999
ssVcom.eg.android.AlipayGphone
p492
(dp493
g10
F3.6000000000000001
ssVcom.android.gallery3d
p494
(dp495
g10
F1.3999999999999999
ssVcom.jingdong.app.mall
p496
(dp497
g10
F0.40000000000000002
ssVcom.taobao.taobao
p498
(dp499
g10
F0.40000000000000002
ssVcom.android.phone
p500
(dp501
g10
F6.2999999999999998
ssVcom.tencent.mobileqq
p502
(dp503
g10
F15.200000000000003
ssVcom.netease.cloudmusic
p504
(dp505
g10
F5.2999999999999998
ssVcom.android.calculator
p506
(dp507
g10
I1
ssVcom.baidu.lbs.waimai
p508
(dp509
g10
F2.7000000000000002
ssg403
(dp510
g10
F2.7000000000000002
ssg359
(dp511
g10
I1
ssVcom.android.email
p512
(dp513
g10
F4.6000000000000005
ssg103
(dp514
g10
F2.6000000000000001
ssg444
(dp515
g10
F6.5
ssVcom.baidu.BaiduMap
p516
(dp517
g10
F2.7000000000000002
ssVcom.huawei.hwid
p518
(dp519
g10
F0.69999999999999996
ssVcom.dotamax.app
p520
(dp521
g10
F3.1999999999999997
ssVcom.android.camera
p522
(dp523
g10
F5.4000000000000004
sssg43
(dp524
Vcom.huawei.vassistant
p525
(dp526
g10
I1
ssVcom.huawei.hwid
p527
(dp528
g10
F0.69999999999999996
ssVcom.tencent.mobileqq
p529
(dp530
g10
F5.2000000000000002
ssVcom.android.packageinstaller
p531
(dp532
g10
F1.7
ssg432
(dp533
g10
F0.40000000000000002
ssVcom.baidu.BaiduMap
p534
(dp535
g10
F0.90000000000000002
ssVcom.evernote
p536
(dp537
g10
F0.90000000000000002
ssVcom.UCMobile
p538
(dp539
g10
F4.7999999999999998
ssg63
(dp540
g10
F0.40000000000000002
ssVcom.dotamax.app
p541
(dp542
g10
F0.40000000000000002
ssVcom.android.launcher
p543
(dp544
g10
F86.000000000000043
ssVcom.huawei.appmarket
p545
(dp546
g10
F4.2999999999999998
ssVcom.huawei.android.internal.app
p547
(dp548
g10
I2
ssVcom.tencent.mm
p549
(dp550
g10
F14.600000000000001
ssVcom.android.contacts
p551
(dp552
g10
F1.3999999999999999
ssVcom.android.settings
p553
(dp554
g10
I3
sssg45
(dp555
Vcom.UCMobile
p556
(dp557
g10
F0.90000000000000002
ssVcom.android.launcher
p558
(dp559
g10
I1
ssVcom.android.settings
p560
(dp561
g10
F0.69999999999999996
sssg47
(dp562
Vcom.huawei.gamebox
p563
(dp564
g10
F0.69999999999999996
ssg211
(dp565
g10
F0.90000000000000002
ssVcom.tencent.mm
p566
(dp567
g10
F5.7000000000000002
ssVcom.android.deskclock
p568
(dp569
g10
F3.1000000000000001
ssVcom.huawei.hwid
p570
(dp571
g10
F0.40000000000000002
ssVcom.dotamax.app
p572
(dp573
g10
F0.90000000000000002
ssVcom.android.launcher
p574
(dp575
g10
F26.299999999999994
ssVcom.huawei.appmarket
p576
(dp577
g10
F0.40000000000000002
ssVcom.tencent.mobileqq
p578
(dp579
g10
F0.40000000000000002
sssg49
(dp580
Vcom.tencent.mobileqq
p581
(dp582
g10
I2
ssVcom.android.contacts
p583
(dp584
g10
F0.69999999999999996
ssVcom.android.launcher
p585
(dp586
g10
F1.3
sssg51
(dp587
g207
(dp588
g10
I1
ssVcom.baidu.lbs.waimai
p589
(dp590
g10
F0.40000000000000002
ssVcom.tencent.mm
p591
(dp592
g10
F1.8999999999999999
ssVcom.android.launcher
p593
(dp594
g10
F4.4000000000000004
ssVcom.UCMobile
p595
(dp596
g10
F0.90000000000000002
sssg53
(dp597
Vcom.android.launcher
p598
(dp599
g10
F4
sssg55
(dp600
g363
(dp601
g10
F1.3
ssVcom.tencent.mobileqq
p602
(dp603
g10
F12.300000000000002
ssVcom.baidu.input_huawei
p604
(dp605
g10
F0.69999999999999996
ssVcom.UCMobile
p606
(dp607
g10
I1
ssVcom.dotamax.app
p608
(dp609
g10
F2.7000000000000002
ssVcom.android.launcher
p610
(dp611
g10
F69.100000000000009
ssVcom.android.camera
p612
(dp613
g10
F61.600000000000023
ssVcom.android.mediacenter
p614
(dp615
g10
F0.69999999999999996
ssVcom.tencent.mm
p616
(dp617
g10
F26.099999999999991
ssVcom.android.contacts
p618
(dp619
g10
F3.8999999999999999
ssVcom.eg.android.AlipayGphone
p620
(dp621
g10
F0.90000000000000002
sssg57
(dp622
Vcom.tencent.mm
p623
(dp624
g10
F4.5999999999999996
ssVcom.android.launcher
p625
(dp626
g10
F11.6
sssg59
(dp627
Vcom.android.mediacenter
p628
(dp629
g10
F1.8
ssVcom.android.launcher
p630
(dp631
g10
F3
ssVcom.netease.cloudmusic
p632
(dp633
g10
F3.5
sssg61
(dp634
Vcom.android.calendar
p635
(dp636
g10
F0.90000000000000002
ssVcom.tencent.mobileqq
p637
(dp638
g10
F0.69999999999999996
ssg85
(dp639
g10
F1.7
ssVcom.taobao.taobao
p640
(dp641
g10
F0.69999999999999996
ssg21
(dp642
g10
F0.90000000000000002
ssg33
(dp643
g10
F8.3000000000000007
ssVair.tv.douyu.android
p644
(dp645
g10
F0.40000000000000002
ssg35
(dp646
g10
F2.3999999999999999
ssg434
(dp647
g10
F0.90000000000000002
ssVcom.dotamax.app
p648
(dp649
g10
F2.2000000000000002
sssg63
(dp650
Vcom.android.launcher
p651
(dp652
g10
F5.1000000000000005
sssg65
(dp653
Vcom.UCMobile
p654
(dp655
g10
F1.3999999999999999
ssVcom.tencent.mm
p656
(dp657
g10
F2.7999999999999998
ssVcom.android.contacts
p658
(dp659
g10
F30.399999999999999
ssVcom.android.launcher
p660
(dp661
g10
F17.5
ssVcom.huawei.appmarket
p662
(dp663
g10
F0.40000000000000002
sssg67
(dp664
g337
(dp665
g10
I1
ssVcom.tencent.mm
p666
(dp667
g10
F0.69999999999999996
ssVcom.android.launcher
p668
(dp669
g10
F5
sssg69
(dp670
Vcom.huawei.android.totemweather
p671
(dp672
g10
F1.7000000000000002
ssVcom.huawei.hwid
p673
(dp674
g10
I1
ssVcom.tencent.mm
p675
(dp676
g10
F1.3
ssVcom.android.launcher
p677
(dp678
g10
F3.0999999999999996
ssVcom.huawei.appmarket
p679
(dp680
g10
I1
sssg71
(dp681
g8
(dp682
g10
F0.80000000000000004
ssVcom.android.launcher
p683
(dp684
g10
F465.39999999999804
ssVcom.android.thememanager
p685
(dp686
g10
F1.3
ssVcom.huawei.android.totemweather
p687
(dp688
g10
F2
ssVcom.android.deskclock
p689
(dp690
g10
I1
ssVcom.UCMobile
p691
(dp692
g10
F34.899999999999984
ssg418
(dp693
g10
F0.90000000000000002
ssVcom.android.notepad
p694
(dp695
g10
F1.8
ssVcom.huawei.android.internal.app
p696
(dp697
g10
I1
ssVcom.android.mediacenter
p698
(dp699
g10
I1
ssVcom.android.contacts
p700
(dp701
g10
F28.79999999999999
ssVcom.eg.android.AlipayGphone
p702
(dp703
g10
F9
ssVcom.huawei.hwid
p704
(dp705
g10
F0.69999999999999996
ssVcom.android.packageinstaller
p706
(dp707
g10
F0.69999999999999996
ssVcom.android.gallery3d
p708
(dp709
g10
F11.800000000000001
ssg450
(dp710
g10
F1.3
ssVcom.huawei.hidisk
p711
(dp712
g10
F0.40000000000000002
ssVcom.tencent.mm
p713
(dp714
g10
F135.40000000000029
ssVcom.netease.cloudmusic
p715
(dp716
g10
F1.3
ssVcom.baidu.lbs.waimai
p717
(dp718
g10
F0.90000000000000002
ssg482
(dp719
g10
F0.69999999999999996
ssg49
(dp720
g10
F2.7000000000000002
ssg359
(dp721
g10
F0.69999999999999996
ssVair.tv.douyu.android
p722
(dp723
g10
I1
ssg93
(dp724
g10
I2
ssVcom.huawei.vassistant
p725
(dp726
g10
I2
ssVcom.android.calendar
p727
(dp728
g10
I1
ssVcom.android.settings
p729
(dp730
g10
F16.600000000000001
ssg107
(dp731
g10
F5.8000000000000007
ssVcom.dotamax.app
p732
(dp733
g10
F17.899999999999999
ssVcom.huawei.appmarket
p734
(dp735
g10
F1.3
ssVcom.android.camera
p736
(dp737
g10
F19.399999999999995
sssg73
(dp738
Vcom.huawei.hwid
p739
(dp740
g10
F0.69999999999999996
ssVcom.android.browser
p741
(dp742
g10
I1
ssg11
(dp743
g10
F0.69999999999999996
ssVcom.huawei.android.dsdscardmanager
p744
(dp745
g10
I1
ssVcom.huawei.hidisk
p746
(dp747
g10
F1.8
ssVcom.tencent.mobileqq
p748
(dp749
g10
F9.1999999999999993
ssVcom.huawei.android.hwouc
p750
(dp751
g10
F3.3999999999999999
ssg301
(dp752
g10
F1.1000000000000001
ssVcom.baidu.BaiduMap
p753
(dp754
g10
I4
ssg365
(dp755
g10
F0.90000000000000002
ssVcom.taobao.taobao
p756
(dp757
g10
F2
ssVcom.UCMobile
p758
(dp759
g10
F23.199999999999992
ssVcom.android.phone
p760
(dp761
g10
F0.69999999999999996
ssg329
(dp762
g10
F5.5
ssVcom.android.launcher
p763
(dp764
g10
F94.200000000000074
ssg331
(dp765
g10
F3.1000000000000001
ssVcom.android.camera
p766
(dp767
g10
F1.3
ssVcom.qiyi.video
p768
(dp769
g10
F0.69999999999999996
ssVcom.tencent.mm
p770
(dp771
g10
F25.399999999999991
ssVcom.android.contacts
p772
(dp773
g10
F2
ssVcom.eg.android.AlipayGphone
p774
(dp775
g10
I2
sssg75
(dp776
Vcom.UCMobile
p777
(dp778
g10
F1.3
ssVcom.android.contacts
p779
(dp780
g10
F0.90000000000000002
ssVcom.android.launcher
p781
(dp782
g10
F5.5000000000000009
sssg77
(dp783
g442
(dp784
g10
F3.3999999999999999
ssVcom.android.settings
p785
(dp786
g10
F1.3
ssVcom.android.gallery3d
p787
(dp788
g10
F1.6000000000000001
ssg59
(dp789
g10
F2.3999999999999999
ssVcom.android.deskclock
p790
(dp791
g10
F2.8999999999999999
ssg111
(dp792
g10
F1.3999999999999999
ssVcom.android.thememanager
p793
(dp794
g10
F0.90000000000000002
ssg630
(dp795
g10
F49.600000000000009
ssVcom.huawei.appmarket
p796
(dp797
g10
F1.3
ssVcom.android.camera
p798
(dp799
g10
F2.9999999999999996
ssg37
(dp800
g10
F3.8000000000000003
ssVcom.android.email
p801
(dp802
g10
I1
ssVcom.tencent.mm
p803
(dp804
g10
F11.700000000000003
ssVcom.android.contacts
p805
(dp806
g10
F6.1000000000000005
sssg79
(dp807
Vcom.android.settings
p808
(dp809
g10
F4.2999999999999998
ssVcom.android.launcher
p810
(dp811
g10
F2.8999999999999999
sssg81
(dp812
Vcom.tencent.mobileqq
p813
(dp814
g10
F0.40000000000000002
ssVcom.android.launcher
p815
(dp816
g10
F11.1
ssVcom.android.camera
p817
(dp818
g10
F0.90000000000000002
ssVcom.android.email
p819
(dp820
g10
F0.90000000000000002
ssVcom.tencent.mm
p821
(dp822
g10
F1.8
ssVcom.android.contacts
p823
(dp824
g10
F1.3
sssg83
(dp825
Vcom.tencent.mm
p826
(dp827
g10
F2.8999999999999999
ssg706
(dp828
g10
I1
ssVcom.android.launcher
p829
(dp830
g10
F17.5
ssVcom.android.settings
p831
(dp832
g10
F0.90000000000000002
ssVcom.tencent.mobileqq
p833
(dp834
g10
F0.90000000000000002
ssVcom.android.contacts
p835
(dp836
g10
F5.4000000000000004
sssg85
(dp837
Vcom.netease.cloudmusic
p838
(dp839
g10
F0.40000000000000002
ssg398
(dp840
g10
F0.90000000000000002
ssVcom.android.settings
p841
(dp842
g10
F1.8999999999999999
ssg21
(dp843
g10
F2.2999999999999998
ssg218
(dp844
g10
F0.40000000000000002
ssg33
(dp845
g10
F16.300000000000001
ssg105
(dp846
g10
F1.3
ssVcom.android.contacts
p847
(dp848
g10
F3.1999999999999997
ssVcom.eg.android.AlipayGphone
p849
(dp850
g10
F0.90000000000000002
sssg87
(dp851
Vcom.android.deskclock
p852
(dp853
g10
F0.90000000000000002
ssVcom.tencent.mm
p854
(dp855
g10
F0.90000000000000002
ssVcom.android.launcher
p856
(dp857
g10
F3.6999999999999997
ssVcom.eg.android.AlipayGphone
p858
(dp859
g10
F1.7
sssg89
(dp860
Vcom.android.launcher
p861
(dp862
g10
F8.0999999999999996
ssVcom.baidu.input_huawei
p863
(dp864
g10
I1
ssVcom.android.deskclock
p865
(dp866
g10
I1
ssg15
(dp867
g10
F0.90000000000000002
ssVcom.tencent.mm
p868
(dp869
g10
F1.3
ssVcom.android.contacts
p870
(dp871
g10
I1
sssg91
(dp872
Vcom.android.settings
p873
(dp874
g10
F5.7000000000000002
ssVcom.android.deskclock
p875
(dp876
g10
F0.90000000000000002
ssVcom.UCMobile
p877
(dp878
g10
F0.90000000000000002
ssVcom.android.launcher
p879
(dp880
g10
F30.199999999999992
ssVcom.tencent.mm
p881
(dp882
g10
F1.8
ssg772
(dp883
g10
F1.3
ssVcom.eg.android.AlipayGphone
p884
(dp885
g10
F0.40000000000000002
sssg93
(dp886
Vcom.android.browser
p887
(dp888
g10
F9.7999999999999989
ssVcom.android.settings
p889
(dp890
g10
F0.69999999999999996
ssVcom.tencent.mm
p891
(dp892
g10
F11.000000000000002
ssg325
(dp893
g10
F1.3
ssVcom.android.deskclock
p894
(dp895
g10
F0.69999999999999996
ssVcom.UCMobile
p896
(dp897
g10
F2.8999999999999999
ssVcom.dotamax.app
p898
(dp899
g10
F0.40000000000000002
ssVcom.android.launcher
p900
(dp901
g10
F46
ssVcom.tencent.mobileqq
p902
(dp903
g10
F1.5
ssVcom.android.contacts
p904
(dp905
g10
F3.1000000000000001
sssg95
(dp906
Vcom.huawei.hwid
p907
(dp908
g10
I2
ssVcom.tencent.mm
p909
(dp910
g10
F0.69999999999999996
ssVcom.android.launcher
p911
(dp912
g10
F5.1000000000000005
sssg97
(dp913
Vcom.UCMobile
p914
(dp915
g10
I1
ssVcom.android.launcher
p916
(dp917
g10
I1
sssg99
(dp918
Vcom.android.settings
p919
(dp920
g10
F0.90000000000000002
ssVcom.tencent.mm
p921
(dp922
g10
F3.5
ssVcom.android.launcher
p923
(dp924
g10
F6.1000000000000005
sssg101
(dp925
Vcom.baidu.input_huawei
p926
(dp927
g10
F1.7
ssVcom.android.browser
p928
(dp929
g10
I1
ssVcom.dotamax.app
p930
(dp931
g10
F1.3
ssVcom.android.launcher
p932
(dp933
g10
F6.1000000000000005
ssVcom.UCMobile
p934
(dp935
g10
F1.7
sssg103
(dp936
Vcom.android.launcher
p937
(dp938
g10
F21.599999999999998
ssVcom.netease.cloudmusic
p939
(dp940
g10
F0.90000000000000002
ssVcom.tencent.mm
p941
(dp942
g10
F2.5
ssVcom.taobao.taobao
p943
(dp944
g10
F0.90000000000000002
ssVcom.android.deskclock
p945
(dp946
g10
F0.90000000000000002
ssVcom.UCMobile
p947
(dp948
g10
F1.3
ssVcom.android.notepad
p949
(dp950
g10
F1.3
ssVcom.huawei.appmarket
p951
(dp952
g10
F0.90000000000000002
ssVcom.tencent.mobileqq
p953
(dp954
g10
F0.40000000000000002
ssVcom.android.contacts
p955
(dp956
g10
F2.2999999999999998
sssg105
(dp957
Vcom.android.browser
p958
(dp959
g10
F2.7999999999999998
ssg322
(dp960
g10
F3.7999999999999998
ssg13
(dp961
g10
I2
ssg363
(dp962
g10
F5.0999999999999996
ssg480
(dp963
g10
F1.8
ssVcom.evernote
p964
(dp965
g10
F0.80000000000000004
ssg484
(dp966
g10
F14.1
ssg27
(dp967
g10
F164.80000000000049
ssg109
(dp968
g10
F0.90000000000000002
ssg59
(dp969
g10
F0.69999999999999996
ssVcom.android.launcher
p970
(dp971
g10
F1085.0000000000043
ssg35
(dp972
g10
F6
ssVcom.android.mediacenter
p973
(dp974
g10
F7.7000000000000011
ssg292
(dp975
g10
F0.40000000000000002
ssVcom.android.contacts
p976
(dp977
g10
F77.200000000000017
ssg43
(dp978
g10
F22.499999999999996
ssVcom.android.packageinstaller
p979
(dp980
g10
F2.6000000000000001
ssVcom.android.gallery3d
p981
(dp982
g10
F28.399999999999988
ssg57
(dp983
g10
F5.5
ssg31
(dp984
g10
F5.1000000000000005
ssg746
(dp985
g10
F4.1000000000000005
ssg391
(dp986
g10
F0.90000000000000002
ssg69
(dp987
g10
F0.40000000000000002
ssg71
(dp988
g10
F153.20000000000041
ssg83
(dp989
g10
F1.3
ssg77
(dp990
g10
F7.8000000000000016
ssVcom.huawei.android.hwouc
p991
(dp992
g10
F1.3999999999999999
ssg119
(dp993
g10
F10.1
ssg768
(dp994
g10
F1.3
ssg115
(dp995
g10
F1.3
ssVair.tv.douyu.android
p996
(dp997
g10
F1.3999999999999999
ssg408
(dp998
g10
F5.6000000000000005
ssg95
(dp999
g10
F1.7000000000000002
ssg411
(dp1000
g10
F0.90000000000000002
ssVcom.kingsoft
p1001
(dp1002
g10
F1.3
ssg99
(dp1003
g10
I5
ssg107
(dp1004
g10
F2.3999999999999999
ssVcom.android.settings
p1005
(dp1006
g10
F26.299999999999997
ssVcom.baidu.BaiduMap
p1007
(dp1008
g10
F2.7000000000000002
ssVcom.huawei.hwid
p1009
(dp1010
g10
F5.6000000000000005
ssVcom.dotamax.app
p1011
(dp1012
g10
F39.099999999999952
ssVcom.huawei.android.totemweather
p1013
(dp1014
g10
F6.0000000000000009
ssVcom.android.notepad
p1015
(dp1016
g10
F3.8999999999999999
ssVcom.android.camera
p1017
(dp1018
g10
F11.700000000000003
sssg107
(dp1019
Vcom.android.launcher
p1020
(dp1021
g10
F4.2000000000000002
ssg715
(dp1022
g10
F0.69999999999999996
ssVcom.tencent.mobileqq
p1023
(dp1024
g10
F4.7000000000000002
ssVcom.machipopo.story17
p1025
(dp1026
g10
F1.7
ssVcom.kingsoft
p1027
(dp1028
g10
I1
ssVcom.tencent.mm
p1029
(dp1030
g10
F0.69999999999999996
ssVcom.android.contacts
p1031
(dp1032
g10
F0.90000000000000002
sssg109
(dp1033
Vcom.huawei.hwid
p1034
(dp1035
g10
F0.90000000000000002
ssVcom.tencent.mm
p1036
(dp1037
g10
F0.69999999999999996
ssVcom.android.launcher
p1038
(dp1039
g10
F0.40000000000000002
ssVcom.huawei.appmarket
p1040
(dp1041
g10
I1
sssg111
(dp1042
Vcom.huawei.gamebox
p1043
(dp1044
g10
I2
ssg440
(dp1045
g10
F0.69999999999999996
ssVcom.UCMobile
p1046
(dp1047
g10
F3
ssg671
(dp1048
g10
F0.69999999999999996
ssg979
(dp1049
g10
F0.40000000000000002
ssg87
(dp1050
g10
F0.69999999999999996
ssVcom.android.gallery3d
p1051
(dp1052
g10
F0.69999999999999996
ssVcom.android.notepad
p1053
(dp1054
g10
F0.69999999999999996
ssg446
(dp1055
g10
F0.40000000000000002
ssVair.tv.douyu.android
p1056
(dp1057
g10
F0.90000000000000002
ssg121
(dp1058
g10
F0.69999999999999996
ssVcom.android.thememanager
p1059
(dp1060
g10
I1
ssg452
(dp1061
g10
F23.499999999999989
ssVcom.huawei.appmarket
p1062
(dp1063
g10
F14.699999999999999
ssVcom.vmall.client
p1064
(dp1065
g10
I1
ssVcom.android.mediacenter
p1066
(dp1067
g10
I2
ssg69
(dp1068
g10
F1.8999999999999999
ssg666
(dp1069
g10
F3.4999999999999996
ssVcom.eg.android.AlipayGphone
p1070
(dp1071
g10
F1.1000000000000001
sssg113
(dp1072
Vcom.tencent.mm
p1073
(dp1074
g10
F0.90000000000000002
ssVcom.android.launcher
p1075
(dp1076
g10
F3.7000000000000002
sssg115
(dp1077
Vcom.UCMobile
p1078
(dp1079
g10
F0.90000000000000002
ssVcom.tencent.mm
p1080
(dp1081
g10
F0.40000000000000002
ssVcom.android.launcher
p1082
(dp1083
g10
F6.2000000000000002
ssVcom.huawei.hidisk
p1084
(dp1085
g10
F0.40000000000000002
sssg117
(dp1086
Vcom.huawei.android.dsdscardmanager
p1087
(dp1088
g10
I1
ssVcom.netease.cloudmusic
p1089
(dp1090
g10
F0.90000000000000002
ssVcom.huawei.hwid
p1091
(dp1092
g10
F1.3999999999999999
ssVcom.android.calendar
p1093
(dp1094
g10
F0.90000000000000002
ssg748
(dp1095
g10
F8.0000000000000018
ssVcom.android.packageinstaller
p1096
(dp1097
g10
F1.8999999999999999
ssg644
(dp1098
g10
F2.7000000000000002
ssg301
(dp1099
g10
F3.4000000000000004
ssg640
(dp1100
g10
I1
ssVcom.android.deskclock
p1101
(dp1102
g10
F8.4000000000000021
ssVcom.UCMobile
p1103
(dp1104
g10
F12.300000000000004
ssVcom.android.launcher
p1105
(dp1106
g10
F154.50000000000003
ssVcom.huawei.appmarket
p1107
(dp1108
g10
F4.5
ssVcom.android.camera
p1109
(dp1110
g10
F1.8
ssg616
(dp1111
g10
F37.499999999999972
ssVcom.android.contacts
p1112
(dp1113
g10
F2.5999999999999996
ssVcom.eg.android.AlipayGphone
p1114
(dp1115
g10
F1.3
ssVcom.android.settings
p1116
(dp1117
g10
F4.8999999999999995
sssg119
(dp1118
Vcom.android.browser
p1119
(dp1120
g10
F0.90000000000000002
ssg11
(dp1121
g10
F1.3999999999999999
ssg1053
(dp1122
g10
F1.3
ssg1046
(dp1123
g10
F3.3999999999999999
ssg39
(dp1124
g10
F1.7000000000000002
ssVcom.android.packageinstaller
p1125
(dp1126
g10
F0.69999999999999996
ssg83
(dp1127
g10
F1.3
ssg1051
(dp1128
g10
F1.3
ssg87
(dp1129
g10
F1.3
ssg1009
(dp1130
g10
F24.100000000000001
ssg109
(dp1131
g10
F1.7
ssg117
(dp1132
g10
F1.8999999999999999
ssVcom.android.launcher
p1133
(dp1134
g10
F59.199999999999996
ssg17
(dp1135
g10
F3.7999999999999998
ssg121
(dp1136
g10
F1.3
ssg69
(dp1137
g10
F1.7
ssVcom.tencent.mm
p1138
(dp1139
g10
F11.200000000000001
ssVcom.android.contacts
p1140
(dp1141
g10
F0.69999999999999996
ssg1070
(dp1142
g10
F3
sssg121
(dp1143
Vcom.android.mediacenter
p1144
(dp1145
g10
I1
ssVcom.android.launcher
p1146
(dp1147
g10
F3.7999999999999998
ssVcom.huawei.appmarket
p1148
(dp1149
g10
F0.90000000000000002
sssg123
(dp1150
Vcom.netease.cloudmusic
p1151
(dp1152
g10
F0.40000000000000002
ssg602
(dp1153
g10
F11.500000000000002
ssg55
(dp1154
g10
F61.400000000000006
ssVcom.UCMobile
p1155
(dp1156
g10
F1.7
ssVcom.dotamax.app
p1157
(dp1158
g10
F0.90000000000000002
ssVcom.android.launcher
p1159
(dp1160
g10
F38.29999999999999
ssg614
(dp1161
g10
F0.90000000000000002
ssVcom.tencent.mm
p1162
(dp1163
g10
F10.700000000000003
ssg618
(dp1164
g10
F3.4000000000000004
sssg125
(dp1165
Vcom.android.launcher
p1166
(dp1167
g10
F0.90000000000000002
ssVcom.huawei.appmarket
p1168
(dp1169
g10
I1
ssssS'edge'
p1170
g131
sS'graph'
p1171
(dp1172
sS'adjlist_dict_factory'
p1173
g128
sS'adj'
p1174
g131
sS'pred'
p1175
(dp1176
g8
(dp1177
g101
g929
sg71
g682
sg51
g588
sg365
g208
sg691
g274
sg450
g343
sg683
g357
sVcom.huawei.appmarket
p1178
g1120
sVcom.android.email
p1179
g888
sVcom.tencent.mm
p1180
g959
sVcom.android.contacts
p1181
g475
sVcom.android.settings
p1182
g742
ssg11
(dp1183
Vcom.UCMobile
p1184
g275
sg331
g1121
sVcom.android.launcher
p1185
g358
sVcom.android.settings
p1186
g743
ssg13
(dp1187
Vcom.android.deskclock
p1188
g244
sVcom.tencent.mobileqq
p1189
g721
sVcom.tencent.mm
p1190
g961
sVcom.android.contacts
p1191
g511
sVcom.android.launcher
p1192
g360
ssg15
(dp1193
Vcom.kingsoft
p1194
g867
sVcom.huawei.hwid
p1195
g1054
sVcom.android.calendar
p1196
g950
sVcom.tencent.mobileqq
p1197
g695
sg945
g264
sVcom.UCMobile
p1198
g277
sVcom.android.launcher
p1199
g372
sg796
g1122
sVcom.tencent.mm
p1200
g1016
ssg17
(dp1201
Vcom.UCMobile
p1202
g314
sg181
g997
sg1084
g645
sVcom.huawei.hwid
p1203
g1057
sVcom.dotamax.app
p1204
g1098
sVcom.android.launcher
p1205
g362
sVcom.huawei.appmarket
p1206
g1135
sg191
g723
ssg19
(dp1207
Vcom.tencent.mm
p1208
g962
sVcom.android.gallery3d
p1209
g601
sVcom.android.launcher
p1210
g364
ssg21
(dp1211
g474
g136
sVcom.netease.cloudmusic
p1212
g794
sg209
g1060
sVcom.wonder
p1213
g201
sg841
g755
sg85
g843
sg61
g642
sVcom.android.launcher
p1214
g366
sVcom.tencent.mm
p1215
g963
sVcom.android.contacts
p1216
g481
sVcom.tencent.mobileqq
p1217
g686
ssg23
(dp1218
Vcom.android.launcher
p1219
g367
sVcom.tencent.mobileqq
p1220
g719
sVcom.UCMobile
p1221
g282
sVcom.android.notepad
p1222
g177
sVcom.tencent.mm
p1223
g965
sVcom.android.contacts
p1224
g483
sVcom.eg.android.AlipayGphone
p1225
g537
ssg25
(dp1226
Vcom.android.thememanager
p1227
g219
sg243
g160
sVcom.kingsoft
p1228
g866
sVcom.netease.cloudmusic
p1229
g791
sg211
g946
sg298
g569
sg292
g466
sVcom.huawei.android.dsdscardmanager
p1230
g844
sVcom.baidu.BaiduMap
p1231
g876
sg768
g853
sVcom.evernote
p1232
g231
sg442
g283
sVcom.dotamax.app
p1233
g1102
sVcom.android.launcher
p1234
g368
sg290
g448
sg408
g895
sg478
g966
sVcom.android.contacts
p1235
g485
sVcom.tencent.mobileqq
p1236
g690
ssg27
(dp1237
g8
g138
sVcom.adobe.air
p1238
g153
sg45
g557
sg278
g778
sg365
g221
sg964
g233
sg25
g258
sg101
g935
sg970
g369
sVcom.android.mediacenter
p1239
g443
sVcom.android.contacts
p1240
g487
sVcom.eg.android.AlipayGphone
p1241
g539
sg51
g596
sg251
g607
sVcom.android.phone
p1242
g655
sg71
g692
sVcom.netease.cloudmusic
p1243
g784
sVcom.tencent.mm
p1244
g967
sg115
g1079
sVair.tv.douyu.android
p1245
g184
sg408
g897
sg97
g915
sVcom.android.calendar
p1246
g948
sVcom.android.settings
p1247
g759
sg1007
g878
sVcom.huawei.hwid
p1248
g1047
sg732
g1104
sVcom.huawei.appmarket
p1249
g1123
sVcom.android.notepad
p1250
g169
sVcom.android.camera
p1251
g1156
ssg29
(dp1252
Vcom.UCMobile
p1253
g287
sVcom.android.launcher
p1254
g370
ssg31
(dp1255
g711
g641
sVcom.android.calendar
p1256
g944
sg444
g757
sVcom.android.deskclock
p1257
g256
sVcom.UCMobile
p1258
g304
sg648
g1100
sVcom.android.launcher
p1259
g371
sg698
g451
sVcom.tencent.mm
p1260
g984
sVcom.android.contacts
p1261
g499
sVcom.tencent.mobileqq
p1262
g710
ssg33
(dp1263
g8
g142
sg11
g155
sg359
g166
sg115
g1083
sg83
g830
sg17
g188
sg19
g203
sg21
g222
sg23
g239
sg25
g262
sVcom.UCMobile
p1264
g289
sg29
g340
sg31
g349
sg1015
g175
sg547
g438
sg37
g453
sg39
g472
sg41
g489
sVcom.eg.android.AlipayGphone
p1265
g544
sg45
g559
sg47
g575
sg280
g586
sg51
g594
sg53
g599
sg301
g611
sg57
g626
sg59
g631
sg61
g643
sg63
g652
sg65
g661
sg67
g669
sg69
g678
sg71
g684
sg75
g782
sg77
g795
sg398
g811
sg81
g816
sg1244
g971
sg85
g845
sg87
g857
sg1228
g862
sVcom.baidu.BaiduMap
p1266
g880
sg93
g901
sg95
g912
sg411
g917
sVcom.huawei.vassistant
p1267
g924
sg101
g933
sg103
g938
sg1005
g764
sg107
g1021
sg109
g1039
sg111
g1061
sg113
g1076
sg732
g1106
sVcom.huawei.appmarket
p1268
g1134
sg121
g1147
sVcom.android.camera
p1269
g1160
sg125
g1167
ssg35
(dp1270
Vcom.huawei.hidisk
p1271
g646
sVcom.tencent.mm
p1272
g972
sVcom.eg.android.AlipayGphone
p1273
g548
sVcom.android.launcher
p1274
g373
sVcom.tencent.mobileqq
p1275
g697
ssg37
(dp1276
g632
g800
sg442
g291
sg1262
g699
sVcom.android.gallery3d
p1277
g615
sg446
g629
sg111
g1067
sg630
g374
sVcom.iyuba.toelflistening
p1278
g1145
sVcom.android.camera
p1279
g1161
sVcom.tencent.mm
p1280
g974
sVcom.android.contacts
p1281
g491
ssg39
(dp1282
Vcom.UCMobile
p1283
g293
sVcom.tencent.mm
p1284
g975
sVcom.android.launcher
p1285
g375
sVcom.huawei.appmarket
p1286
g1124
ssg41
(dp1287
g887
g150
sVcom.android.launcher
p1288
g376
sg75
g780
sg280
g584
sVcom.android.deskclock
p1289
g270
sVcom.UCMobile
p1290
g295
sVcom.android.notepad
p1291
g173
sVcom.android.mediacenter
p1292
g461
sg492
g552
sVcom.android.gallery3d
p1293
g619
sVcom.taobao.taobao
p1294
g355
sg65
g659
sVcom.tencent.mobileqq
p1295
g701
sg889
g773
sVcom.netease.cloudmusic
p1296
g806
sg81
g824
sVcom.baidu.lbs.waimai
p1297
g836
sVcom.huawei.android.dsdscardmanager
p1298
g848
sg359
g164
sVair.tv.douyu.android
p1299
g194
sg512
g905
sVcom.kingsoft
p1300
g871
sVcom.android.calendar
p1301
g956
sVcom.tencent.mm
p1302
g977
sg325
g883
sg604
g1032
sVcom.dotamax.app
p1303
g1113
sVcom.huawei.appmarket
p1304
g1141
sg1269
g1164
ssg43
(dp1305
g432
g621
sg527
g1071
sVcom.tencent.mm
p1306
g978
sVcom.huawei.android.dsdscardmanager
p1307
g850
sVcom.baidu.BaiduMap
p1308
g885
sg87
g859
sg536
g237
sVcom.UCMobile
p1309
g297
sVcom.dotamax.app
p1310
g1115
sVcom.android.launcher
p1311
g377
sg545
g1142
sVcom.tencent.mobileqq
p1312
g703
sVcom.android.contacts
p1313
g493
sg553
g775
ssg45
(dp1314
Vcom.android.launcher
p1315
g378
ssg47
(dp1316
g673
g1048
sVcom.tencent.mobileqq
p1317
g688
sg480
g224
sVcom.UCMobile
p1318
g299
sg574
g380
sg226
g672
sVcom.tencent.mm
p1319
g1014
ssg49
(dp1320
g696
g436
sVcom.UCMobile
p1321
g281
sg1275
g720
sVcom.android.launcher
p1322
g381
ssg51
(dp1323
g220
g300
sVcom.tencent.mobileqq
p1324
g707
sg717
g828
sg365
g215
sg1248
g1049
sVcom.dotamax.app
p1325
g1097
sVcom.android.launcher
p1326
g382
sVcom.huawei.appmarket
p1327
g1126
sVcom.tencent.mm
p1328
g980
sVcom.eg.android.AlipayGphone
p1329
g532
ssg53
(dp1330
g598
g384
ssg55
(dp1331
Vcom.netease.cloudmusic
p1332
g788
sg704
g1052
sg1247
g752
sg200
g214
sg894
g252
sg758
g302
sg329
g1099
sVcom.android.launcher
p1333
g385
sg734
g1128
sg547
g433
sg123
g1154
sVcom.tencent.mm
p1334
g982
sVcom.android.contacts
p1335
g495
sg1273
g533
sVcom.tencent.mobileqq
p1336
g709
ssg57
(dp1337
Vcom.UCMobile
p1338
g303
sVcom.tencent.mm
p1339
g983
sg255
g345
sVcom.android.launcher
p1340
g386
sVcom.android.contacts
p1341
g497
ssg59
(dp1342
g111
g1055
sg1066
g447
sVcom.tencent.mm
p1343
g969
sg77
g789
sVcom.android.launcher
p1344
g387
ssg61
(dp1345
Vcom.android.launcher
p1346
g389
sVcom.android.settings
p1347
g747
sVcom.chaozh.iReaderFree15
p1348
g1085
sg35
g431
sVcom.tencent.mm
p1349
g985
sVcom.tencent.mobileqq
p1350
g712
ssg63
(dp1351
Vcom.android.launcher
p1352
g390
sVcom.eg.android.AlipayGphone
p1353
g540
ssg65
(dp1354
Vcom.android.settings
p1355
g761
sg909
g986
sVcom.android.contacts
p1356
g501
sVcom.android.launcher
p1357
g392
sVcom.UCMobile
p1358
g306
ssg67
(dp1359
g337
g1065
sg29
g336
sg1254
g393
sVcom.UCMobile
p1360
g308
ssg69
(dp1361
Vcom.huawei.hwid
p1362
g1068
sVcom.tencent.mm
p1363
g987
sg135
g227
sVcom.android.launcher
p1364
g394
sVcom.huawei.appmarket
p1365
g1137
ssg71
(dp1366
Vcom.android.calendar
p1367
g954
sg359
g162
sg1056
g192
sVcom.huawei.hidisk
p1368
g638
sg107
g1024
sVcom.android.settings
p1369
g749
sVcom.baidu.lbs.waimai
p1370
g834
sVcom.android.gallery3d
p1371
g603
sVcn.wps.moffice_i18n
p1372
g582
sVcom.android.deskclock
p1373
g272
sg538
g317
sVcom.dotamax.app
p1374
g1095
sVcom.android.launcher
p1375
g410
sg379
g579
sVcom.android.calculator
p1376
g814
sVcom.android.camera
p1377
g1153
sg698
g463
sg315
g903
sVcom.tencent.mm
p1378
g988
sVcom.android.contacts
p1379
g503
sg702
g530
ssg73
(dp1380
g1238
g157
sg45
g561
sVcom.netease.cloudmusic
p1381
g786
sVcom.huawei.android.hwouc
p1382
g809
sVcom.tencent.mobileqq
p1383
g730
sVcom.sina.weibo
p1384
g468
sVcom.baidu.lbs.waimai
p1385
g832
sVcom.huawei.android.dsdscardmanager
p1386
g842
sg91
g874
sg25
g250
sg257
g324
sVcom.dotamax.app
p1387
g1117
sVcom.android.launcher
p1388
g416
sg644
g180
sVcom.android.mediacenter
p1389
g445
sVcom.android.email
p1390
g890
sVcom.tencent.mm
p1391
g1006
sVcom.android.contacts
p1392
g515
sVcom.eg.android.AlipayGphone
p1393
g554
sVcom.huawei.vassistant
p1394
g920
ssg75
(dp1395
Vcom.UCMobile
p1396
g279
sVcom.android.launcher
p1397
g396
ssg77
(dp1398
g111
g1045
sVcom.android.calendar
p1399
g940
sVcom.tencent.mobileqq
p1400
g716
sVcom.huawei.android.dsdscardmanager
p1401
g839
sVcom.baidu.input_huawei
p1402
g1022
sg59
g633
sg790
g248
sVcom.UCMobile
p1403
g311
sVcom.dotamax.app
p1404
g1090
sg1344
g397
sg1279
g1152
sg37
g441
sg1343
g990
sg805
g505
ssg79
(dp1405
Vcom.UCMobile
p1406
g312
sVcom.huawei.android.dsdscardmanager
p1407
g840
sVcom.tencent.mm
p1408
g992
sVcom.android.launcher
p1409
g399
sVcom.android.settings
p1410
g751
ssg81
(dp1411
Vcom.android.contacts
p1412
g507
sVcom.android.launcher
p1413
g401
ssg83
(dp1414
Vcom.tencent.mm
p1415
g989
sg706
g590
sVcom.android.launcher
p1416
g402
sVcom.huawei.appmarket
p1417
g1127
sg1324
g718
sg835
g509
ssg85
(dp1418
Vcom.android.settings
p1419
g745
sg21
g217
sg61
g639
sVcom.dotamax.app
p1420
g1088
sVcom.android.launcher
p1421
g404
sg847
g510
ssg87
(dp1422
Vcom.android.settings
p1423
g769
sg852
g260
sVcom.huawei.hwid
p1424
g1050
sVcom.android.launcher
p1425
g405
sg662
g1129
sVcom.tencent.mm
p1426
g994
ssg89
(dp1427
g865
g246
sg863
g1028
sVcom.tencent.mm
p1428
g1002
sg870
g477
sVcom.android.launcher
p1429
g406
ssg91
(dp1430
g889
g754
sg875
g254
sVcom.UCMobile
p1431
g326
sVcom.android.launcher
p1432
g407
sg1390
g893
sg881
g1008
sVcom.android.contacts
p1433
g517
sVcom.eg.android.AlipayGphone
p1434
g535
ssg93
(dp1435
Vcom.android.browser
p1436
g146
sVcom.netease.cloudmusic
p1437
g802
sVcom.android.calculator
p1438
g820
sVcom.tencent.mobileqq
p1439
g724
sVcom.android.deskclock
p1440
g266
sg777
g316
sVcom.android.launcher
p1441
g409
sVcom.android.mediacenter
p1442
g457
sVcom.tencent.mm
p1443
g998
sVcom.android.contacts
p1444
g513
ssg95
(dp1445
g907
g1044
sg675
g999
sg677
g413
sVcom.huawei.android.totemweather
p1446
g564
ssg97
(dp1447
g914
g319
sVcom.tencent.mm
p1448
g1000
sVcom.android.launcher
p1449
g412
ssg99
(dp1450
Vcom.tencent.mobileqq
p1451
g726
sVcom.tencent.mm
p1452
g1003
sVcom.android.launcher
p1453
g421
sVcom.eg.android.AlipayGphone
p1454
g526
sVcom.UCMobile
p1455
g321
ssg101
(dp1456
g926
g1026
sg928
g134
sg932
g414
sg934
g285
ssg103
(dp1457
Vcom.huawei.hidisk
p1458
g636
sVcom.tencent.mobileqq
p1459
g728
sg480
g212
sVcom.android.deskclock
p1460
g249
sVcom.UCMobile
p1461
g323
sVcom.dotamax.app
p1462
g1094
sVcom.android.launcher
p1463
g415
sg223
g565
sVcom.tencent.mm
p1464
g960
sg294
g514
ssg105
(dp1465
g8
g148
sg1367
g942
sg115
g1081
sVcom.wonder
p1466
g199
sg21
g228
sg964
g235
sg484
g268
sVcom.UCMobile
p1467
g310
sg109
g1037
sg33
g395
sg35
g435
sVcom.android.mediacenter
p1468
g459
sg1384
g470
sg1235
g479
sVcom.eg.android.AlipayGphone
p1469
g550
sg706
g592
sVcom.android.gallery3d
p1470
g617
sg57
g624
sg31
g353
sg1271
g647
sg1242
g657
sg1064
g667
sg69
g676
sVcom.tencent.mobileqq
p1471
g714
sVcom.baidu.lbs.waimai
p1472
g827
sVcom.netease.cloudmusic
p1473
g804
sg1376
g822
sVcom.huawei.appmarket
p1474
g1139
sg85
g846
sg259
g855
sg1228
g869
sg17
g182
sVcom.android.email
p1475
g892
sVcom.huawei.gamebox
p1476
g910
sg1267
g922
sVcom.baidu.input_huawei
p1477
g1030
sg1005
g771
sVcom.baidu.BaiduMap
p1478
g882
sg337
g1069
sVcom.android.keyguard
p1479
g1074
sg608
g1111
sg47
g567
sVcom.android.notepad
p1480
g171
sVcom.android.camera
p1481
g1163
ssg107
(dp1482
Vcom.android.launcher
p1483
g417
sVcom.tencent.mm
p1484
g1004
sVcom.android.gallery3d
p1485
g605
sg284
g927
sg1001
g864
sVcom.tencent.mobileqq
p1486
g731
ssg109
(dp1487
Vcom.tencent.mobileqq
p1488
g693
sg1138
g968
sVcom.android.launcher
p1489
g419
sg1474
g1131
ssg111
(dp1490
g95
g908
sVcom.netease.cloudmusic
p1491
g792
sVcom.android.settings
p1492
g740
sg109
g1035
sVcom.android.thememanager
p1493
g210
sg1446
g571
sVcom.UCMobile
p1494
g328
sg29
g338
sVcom.dotamax.app
p1495
g1092
sg630
g422
sg119
g1130
sg67
g665
sg37
g449
sg226
g674
sVcom.tencent.mm
p1496
g1010
sg1281
g519
sg236
g528
sVcom.tencent.mobileqq
p1497
g705
ssg113
(dp1498
Vcom.android.launcher
p1499
g424
ssg115
(dp1500
Vcom.UCMobile
p1501
g313
sVcom.tencent.mm
p1502
g995
sVcom.android.launcher
p1503
g361
ssg117
(dp1504
g1025
g931
sVcom.android.browser
p1505
g140
sVair.tv.douyu.android
p1506
g186
sg711
g649
sg1247
g762
sVcom.tencent.mm
p1507
g1012
sg301
g609
sg640
g347
sVcom.huawei.android.totemweather
p1508
g573
sVcom.android.deskclock
p1509
g242
sVcom.UCMobile
p1510
g330
sg1133
g425
sg1268
g1132
sVcom.android.camera
p1511
g1158
sVcom.android.email
p1512
g899
sVcom.tencent.mobileqq
p1513
g733
sVcom.android.contacts
p1514
g521
sVcom.eg.android.AlipayGphone
p1515
g542
ssg119
(dp1516
Vcom.android.calendar
p1517
g952
sVcom.netease.cloudmusic
p1518
g797
sg1184
g332
sg19
g205
sVcom.android.settings
p1519
g765
sg391
g663
sVcom.android.browser
p1520
g144
sg1508
g577
sVcom.huawei.hwid
p1521
g1063
sg109
g1041
sg125
g1169
sVcom.dotamax.app
p1522
g1108
sVcom.android.launcher
p1523
g426
sg17
g190
sg121
g1149
sg69
g680
sg1496
g993
sg236
g546
sg1497
g735
ssg121
(dp1524
Vcom.huawei.hwid
p1525
g1058
sg1144
g455
sVcom.android.launcher
p1526
g427
sVcom.huawei.appmarket
p1527
g1136
ssg123
(dp1528
g1212
g799
sg1213
g197
sVcom.tencent.mobileqq
p1529
g737
sg55
g613
sg200
g225
sVcom.taobao.taobao
p1530
g351
sVcom.UCMobile
p1531
g334
sVcom.dotamax.app
p1532
g1110
sg1333
g428
sVcom.android.settings
p1533
g767
sg400
g818
sg1334
g1018
sg1335
g523
ssg125
(dp1534
ssb.