ccopy_reg
_reconstructor
p1
(cnetworkx.classes.digraph
DiGraph
p2
c__builtin__
object
p3
NtRp4
(dp5
S'node'
p6
(dp7
Vcom.android.browser
p8
(dp9
S'weight'
p10
F0.23884672064523443
ssVcom.tencent.mobileqqi
p11
(dp12
g10
F0.21272572471895207
ssVcom.youdao.dict
p13
(dp14
g10
F0.15882433811132898
ssVcom.ss.android.article.news
p15
(dp16
g10
F0.13621990839562093
ssVcom.autonavi.minimap
p17
(dp18
g10
F0.00087793559715298032
ssVcom.android.updater
p19
(dp20
g10
F9.6476439247580253e-06
ssVcom.android.thememanager
p21
(dp22
g10
F4.8238219623790127e-06
ssVcom.android.deskclock
p23
(dp24
g10
F0.00024360300910014013
ssVcom.sohu.inputmethod.sogou
p25
(dp26
g10
F1.2059554905947531e-05
ssVcom.eg.android.AlipayGphone
p27
(dp28
g10
F0.007797708202185674
ssVcom.miui.weather2
p29
(dp30
g10
F0.00018330523457040247
ssVcom.android.packageinstaller
p31
(dp32
g10
F3.6178664717842596e-05
ssVcom.sankuai.meituan
p33
(dp34
g10
F0.0042208442170816362
ssVcom.android.phone
p35
(dp36
g10
F0.029678564623536876
ssVcom.android.htmlviewer
p37
(dp38
g10
F0.00011818363807828581
ssVcom.qiyi.video
p39
(dp40
g10
F0.0085888150040158324
ssVcom.miui.player
p41
(dp42
g10
F9.6476439247580253e-06
ssVcom.tencent.mm
p43
(dp44
g10
F0.1257908053129575
ssVcom.miui.antispam
p45
(dp46
g10
F2.8942931774274076e-05
ssVcom.android.calendar
p47
(dp48
g10
F3.8590575699032101e-05
ssVcom.android.calculator
p49
(dp50
g10
F0.0004703226413319537
ssVcom.achievo.vipshop
p51
(dp52
g10
F0.0033501443528722243
ssVcom.xiaomi.market
p53
(dp54
g10
F0.00033525562638534134
ssVcom.android.fileexplorer
p55
(dp56
g10
F0.00011818363807828581
ssVcom.Qunar
p57
(dp58
g10
F0.0039965364958310119
ssVcom.chaozh.iReaderFree
p59
(dp60
g10
F4.3414397661411112e-05
ssVcom.miui.gallery
p61
(dp62
g10
F0.0041991370182509306
ssVcom.miui.notes
p63
(dp64
g10
F0.0082053211580066995
ssVcom.miui.networkassistant
p65
(dp66
g10
F0.00010612408317233828
ssVcom.android.settings
p67
(dp68
g10
F0.016311753965784631
ssVcom.android.mms
p69
(dp70
g10
F0.02984981030320133
ssVcmb.pb
p71
(dp72
g10
F0.00034249135932890989
ssVcom.miui.securitycenter
p73
(dp74
g10
F0.00031113651657344629
ssVcom.miui.barcodescanner
p75
(dp76
g10
F2.1707198830705556e-05
ssVcom.android.quicksearchbox
p77
(dp78
g10
F7.235732943568519e-06
ssVcom.android.camera
p79
(dp80
g10
F0.00056921099156072351
ssVcom.xtuone.android.syllabus
p81
(dp82
g10
F0.0075058669734617434
sssS'node_dict_factory'
p83
c__builtin__
dict
p84
sS'edge_attr_dict_factory'
p85
g84
sS'succ'
p86
(dp87
g8
(dp88
Vcom.tencent.mobileqqi
p89
(dp90
g10
F84.600000000000094
ssVcom.ss.android.article.news
p91
(dp92
g10
F1.8
ssVcom.autonavi.minimap
p93
(dp94
g10
F1.8999999999999999
ssVcom.android.updater
p95
(dp96
g10
F0.90000000000000002
ssVcom.android.mms
p97
(dp98
g10
F4.2000000000000002
ssg39
(dp99
g10
I1
ssg71
(dp100
g10
F1.8999999999999999
ssVcom.miui.securitycenter
p101
(dp102
g10
F0.90000000000000002
ssVcom.xtuone.android.syllabus
p103
(dp104
g10
F2.3999999999999999
ssVcom.android.phone
p105
(dp106
g10
F8.6000000000000014
ssVcom.miui.notes
p107
(dp108
g10
I2
ssg61
(dp109
g10
I2
ssVcom.tencent.mm
p110
(dp111
g10
F74.700000000000031
ssVcom.eg.android.AlipayGphone
p112
(dp113
g10
F1.6000000000000001
ssVcom.Qunar
p114
(dp115
g10
F1.8999999999999999
sssg11
(dp116
g8
(dp117
g10
F70.500000000000043
ssVcom.youdao.dict
p118
(dp119
g10
F2.7999999999999998
ssg91
(dp120
g10
F21.499999999999993
ssg23
(dp121
g10
I1
ssg25
(dp122
g10
I2
ssVcom.eg.android.AlipayGphone
p123
(dp124
g10
F0.40000000000000002
ssVcom.miui.weather2
p125
(dp126
g10
I1
ssg33
(dp127
g10
F11.5
ssVcom.android.phone
p128
(dp129
g10
F8.3000000000000007
ssg37
(dp130
g10
F1.5
ssVcom.miui.gallery
p131
(dp132
g10
I1
ssg43
(dp133
g10
F132.3000000000001
ssVcom.android.calculator
p134
(dp135
g10
F0.69999999999999996
ssVcom.achievo.vipshop
p136
(dp137
g10
F2.3999999999999999
ssg55
(dp138
g10
F3.2999999999999998
ssg57
(dp139
g10
F12.700000000000001
ssg59
(dp140
g10
F0.90000000000000002
ssVcom.miui.notes
p141
(dp142
g10
F2.8999999999999999
ssVcom.miui.networkassistant
p143
(dp144
g10
I1
ssVcom.android.mms
p145
(dp146
g10
F24.899999999999991
ssVcmb.pb
p147
(dp148
g10
F1.7
ssg75
(dp149
g10
F2.7000000000000002
ssVcom.android.camera
p150
(dp151
g10
F4.2999999999999998
ssVcom.xtuone.android.syllabus
p152
(dp153
g10
F3.8999999999999999
sssg13
(dp154
Vcom.android.browser
p155
(dp156
g10
F3.2999999999999998
ssVcom.tencent.mobileqqi
p157
(dp158
g10
F5
ssVcom.ss.android.article.news
p159
(dp160
g10
F3.8999999999999999
ssVcom.miui.notes
p161
(dp162
g10
I1
ssg125
(dp163
g10
F0.90000000000000002
ssVcom.android.mms
p164
(dp165
g10
F4.7999999999999998
ssg53
(dp166
g10
I1
ssVcom.android.deskclock
p167
(dp168
g10
F1.6000000000000001
ssVcom.xtuone.android.syllabus
p169
(dp170
g10
F4
ssg75
(dp171
g10
F1.3
ssVcom.android.phone
p172
(dp173
g10
F1.8999999999999999
ssVcom.android.camera
p174
(dp175
g10
F1.3
ssVcom.tencent.mm
p176
(dp177
g10
F20.599999999999998
sssg15
(dp178
Vcom.android.browser
p179
(dp180
g10
F2.5999999999999996
ssVcom.tencent.mobileqqi
p181
(dp182
g10
F15.699999999999998
ssVcom.youdao.dict
p183
(dp184
g10
I1
ssVcom.android.mms
p185
(dp186
g10
F2.7999999999999998
ssVcom.sohu.inputmethod.sogou
p187
(dp188
g10
F0.90000000000000002
ssVcom.xtuone.android.syllabus
p189
(dp190
g10
F5.6000000000000005
ssVcom.android.phone
p191
(dp192
g10
I2
ssVcom.android.quicksearchbox
p193
(dp194
g10
I1
ssVcom.tencent.mm
p195
(dp196
g10
F17.600000000000001
ssVcom.Qunar
p197
(dp198
g10
F2.8999999999999999
sssg17
(dp199
Vcom.android.browser
p200
(dp201
g10
I1
ssVcom.tencent.mobileqqi
p202
(dp203
g10
F0.69999999999999996
ssVcom.sankuai.meituan
p204
(dp205
g10
F2.7000000000000002
ssVcom.android.phone
p206
(dp207
g10
F2.5999999999999996
ssg77
(dp208
g10
I1
ssVcom.tencent.mm
p209
(dp210
g10
F0.90000000000000002
sssg19
(dp211
g25
(dp212
g10
F0.90000000000000002
ssVcom.tencent.mm
p213
(dp214
g10
F0.90000000000000002
ssVcom.tencent.mobileqqi
p215
(dp216
g10
F2.1000000000000001
ssVcom.android.browser
p217
(dp218
g10
F1.7
sssg21
(dp219
Vcom.android.browser
p220
(dp221
g10
I1
ssVcom.tencent.mm
p222
(dp223
g10
I1
sssg23
(dp224
Vcom.android.browser
p225
(dp226
g10
F1.6000000000000001
ssVcom.tencent.mobileqqi
p227
(dp228
g10
F0.90000000000000002
ssVcom.ss.android.article.news
p229
(dp230
g10
F1.8999999999999999
ssVcom.android.calendar
p231
(dp232
g10
I1
ssVcom.android.mms
p233
(dp234
g10
I1
ssVcom.xtuone.android.syllabus
p235
(dp236
g10
F2.8999999999999999
ssVcom.android.phone
p237
(dp238
g10
F1.1000000000000001
ssVcom.tencent.mm
p239
(dp240
g10
F4.1000000000000005
sssg25
(dp241
Vcom.tencent.mm
p242
(dp243
g10
F1.8999999999999999
ssVcom.tencent.mobileqqi
p244
(dp245
g10
I2
ssVcom.android.browser
p246
(dp247
g10
F0.69999999999999996
sssg27
(dp248
g11
(dp249
g10
F5.6000000000000005
ssVcom.android.calculator
p250
(dp251
g10
I1
ssg31
(dp252
g10
F1.1000000000000001
ssVcom.sankuai.meituan
p253
(dp254
g10
I1
ssVcom.android.mms
p255
(dp256
g10
F27.699999999999996
ssg51
(dp257
g10
F5.6000000000000005
ssVcmb.pb
p258
(dp259
g10
F2.7999999999999998
ssVcom.miui.securitycenter
p260
(dp261
g10
F0.40000000000000002
ssVcom.android.phone
p262
(dp263
g10
F2.8999999999999999
ssg43
(dp264
g10
F13.4
sssg29
(dp265
Vcom.tencent.mm
p266
(dp267
g10
I5
ssVcom.ss.android.article.news
p268
(dp269
g10
F0.90000000000000002
sssg31
(dp270
g260
(dp271
g10
I1
ssVcom.eg.android.AlipayGphone
p272
(dp273
g10
F0.69999999999999996
ssVcom.achievo.vipshop
p274
(dp275
g10
F1.3
sssg33
(dp276
g145
(dp277
g10
I2
ssVcom.android.phone
p278
(dp279
g10
F3.7999999999999998
ssVcom.tencent.mobileqqi
p280
(dp281
g10
F7.2000000000000002
ssVcom.eg.android.AlipayGphone
p282
(dp283
g10
I2
ssVcom.autonavi.minimap
p284
(dp285
g10
F2.7000000000000002
sssg35
(dp286
Vcom.android.browser
p287
(dp288
g10
F0.90000000000000002
ssVcom.tencent.mobileqqi
p289
(dp290
g10
F6.7999999999999998
ssVcom.youdao.dict
p291
(dp292
g10
I1
ssVcom.ss.android.article.news
p293
(dp294
g10
F3.7999999999999998
ssg49
(dp295
g10
F2.7000000000000002
ssVcom.sankuai.meituan
p296
(dp297
g10
I1
ssVcom.android.mms
p298
(dp299
g10
F12.9
ssg51
(dp300
g10
F0.40000000000000002
ssVcom.xtuone.android.syllabus
p301
(dp302
g10
I1
ssVcom.miui.notes
p303
(dp304
g10
I2
ssVcom.tencent.mm
p305
(dp306
g10
F10.9
ssVcom.eg.android.AlipayGphone
p307
(dp308
g10
F7.3000000000000007
sssg37
(dp309
Vcom.android.fileexplorer
p310
(dp311
g10
I1
sssg39
(dp312
g217
(dp313
g10
F1.3
ssg95
(dp314
g10
I1
ssg213
(dp315
g10
F0.69999999999999996
sssg41
(dp316
g25
(dp317
g10
F0.69999999999999996
ssg19
(dp318
g10
I1
ssVcom.tencent.mm
p319
(dp320
g10
I1
ssg215
(dp321
g10
F2.2000000000000002
sssg43
(dp322
g8
(dp323
g10
F69.200000000000017
ssVcom.tencent.mobileqqi
p324
(dp325
g10
F132.50000000000009
ssVcom.youdao.dict
p326
(dp327
g10
I7
ssVcom.ss.android.article.news
p328
(dp329
g10
F32.099999999999994
ssVcom.android.thememanager
p330
(dp331
g10
I1
ssVcom.android.deskclock
p332
(dp333
g10
F5.9000000000000004
ssVcom.sohu.inputmethod.sogou
p334
(dp335
g10
F1.8999999999999999
ssVcom.eg.android.AlipayGphone
p336
(dp337
g10
F17.300000000000001
ssVcom.miui.weather2
p338
(dp339
g10
F1.8999999999999999
ssVcom.android.phone
p340
(dp341
g10
F9.1999999999999993
ssVcom.android.htmlviewer
p342
(dp343
g10
F0.90000000000000002
ssVcom.miui.gallery
p344
(dp345
g10
F4.6000000000000005
ssg45
(dp346
g10
F1.6000000000000001
ssg47
(dp347
g10
F2.7999999999999998
ssg134
(dp348
g10
F3.2999999999999998
ssVcom.achievo.vipshop
p349
(dp350
g10
F4
ssg53
(dp351
g10
F0.90000000000000002
ssg55
(dp352
g10
F3.3999999999999999
ssVcom.xtuone.android.syllabus
p353
(dp354
g10
F15.200000000000001
ssg59
(dp355
g10
F1.1000000000000001
ssg141
(dp356
g10
F5
ssg143
(dp357
g10
F0.90000000000000002
ssVcom.android.settings
p358
(dp359
g10
F1.6000000000000001
ssVcom.android.mms
p360
(dp361
g10
F26.499999999999989
ssVcmb.pb
p362
(dp363
g10
F1.1000000000000001
ssg101
(dp364
g10
F3.8999999999999999
ssVcom.android.camera
p365
(dp366
g10
F9.0999999999999996
ssVcom.Qunar
p367
(dp368
g10
I1
sssg45
(dp369
Vcom.tencent.mm
p370
(dp371
g10
I1
sssg47
(dp372
g225
(dp373
g10
I1
ssg338
(dp374
g10
I1
ssVcom.android.deskclock
p375
(dp376
g10
F0.69999999999999996
ssVcom.xtuone.android.syllabus
p377
(dp378
g10
F1.8999999999999999
ssg237
(dp379
g10
F2
ssVcom.tencent.mm
p380
(dp381
g10
F0.90000000000000002
sssg49
(dp382
Vcom.tencent.mm
p383
(dp384
g10
F1.6000000000000001
ssVcom.android.mms
p385
(dp386
g10
F1.8
ssVcom.eg.android.AlipayGphone
p387
(dp388
g10
I5
ssVcom.android.phone
p389
(dp390
g10
I1
sssg51
(dp391
Vcom.tencent.mobileqqi
p392
(dp393
g10
F1.7
ssg358
(dp394
g10
I1
ssg31
(dp395
g10
I1
ssVcom.android.mms
p396
(dp397
g10
F2.1000000000000001
ssg260
(dp398
g10
F0.90000000000000002
ssVcom.Qunar
p399
(dp400
g10
I1
ssVcom.android.phone
p401
(dp402
g10
I1
ssg344
(dp403
g10
F1.3
ssVcom.tencent.mm
p404
(dp405
g10
F6.3000000000000007
ssg272
(dp406
g10
F4.5999999999999996
sssg53
(dp407
Vcom.android.mms
p408
(dp409
g10
F0.90000000000000002
ssg81
(dp410
g10
F1.7
ssVcom.android.phone
p411
(dp412
g10
I1
sssg55
(dp413
g37
(dp414
g10
F2.7000000000000002
ssVcom.tencent.mm
p415
(dp416
g10
F1.8999999999999999
ssg59
(dp417
g10
I1
sssg57
(dp418
Vcom.android.browser
p419
(dp420
g10
F1.8999999999999999
ssVcom.tencent.mobileqqi
p421
(dp422
g10
F8.7000000000000011
ssVcom.ss.android.article.news
p423
(dp424
g10
F1.8999999999999999
ssg33
(dp425
g10
F2.6000000000000001
ssVcom.android.mms
p426
(dp427
g10
F7.4000000000000004
ssVcom.tencent.mm
p428
(dp429
g10
I1
sssg59
(dp430
Vcom.android.fileexplorer
p431
(dp432
g10
F1.7
ssg37
(dp433
g10
F0.90000000000000002
sssg61
(dp434
Vcom.android.browser
p435
(dp436
g10
I1
ssVcom.tencent.mm
p437
(dp438
g10
F3.1999999999999997
ssVcom.tencent.mobileqqi
p439
(dp440
g10
F1.7
ssVcom.android.camera
p441
(dp442
g10
F6.7000000000000002
sssg63
(dp443
g287
(dp444
g10
F1.7
ssVcom.tencent.mobileqqi
p445
(dp446
g10
I2
ssVcom.youdao.dict
p447
(dp448
g10
F1.7
ssVcom.android.calendar
p449
(dp450
g10
I1
ssVcom.android.mms
p451
(dp452
g10
F1.3
ssVcom.achievo.vipshop
p453
(dp454
g10
F0.90000000000000002
ssg375
(dp455
g10
F0.40000000000000002
ssg399
(dp456
g10
F0.69999999999999996
ssVcom.android.phone
p457
(dp458
g10
F2.1000000000000001
ssVcom.tencent.mm
p459
(dp460
g10
F1.8999999999999999
ssg377
(dp461
g10
F1.6000000000000001
sssg65
(dp462
Vcom.android.browser
p463
(dp464
g10
I1
ssVcom.tencent.mm
p465
(dp466
g10
F1.3
ssVcom.android.mms
p467
(dp468
g10
I1
ssVcom.tencent.mobileqqi
p469
(dp470
g10
F0.69999999999999996
sssg67
(dp471
Vcom.tencent.mobileqqi
p472
(dp473
g10
I1
ssVcom.ss.android.article.news
p474
(dp475
g10
F4.6000000000000005
ssVcom.achievo.vipshop
p476
(dp477
g10
I1
ssg73
(dp478
g10
F7.8000000000000007
ssg344
(dp479
g10
F0.69999999999999996
ssVcom.tencent.mm
p480
(dp481
g10
F1.8
sssg69
(dp482
Vcom.android.browser
p483
(dp484
g10
F4.7999999999999998
ssVcom.tencent.mobileqqi
p485
(dp486
g10
F38.499999999999986
ssVcom.ss.android.article.news
p487
(dp488
g10
F5.4000000000000004
ssVcom.miui.networkassistant
p489
(dp490
g10
I1
ssg141
(dp491
g10
F2.6000000000000001
ssg31
(dp492
g10
F0.90000000000000002
ssVcom.sankuai.meituan
p493
(dp494
g10
F0.69999999999999996
ssVcom.miui.weather2
p495
(dp496
g10
I1
ssg51
(dp497
g10
F3.0999999999999996
ssg362
(dp498
g10
F2.7000000000000002
ssg260
(dp499
g10
F0.69999999999999996
ssVcom.Qunar
p500
(dp501
g10
F8.4000000000000004
ssVcom.android.phone
p502
(dp503
g10
F6.5
ssVcom.android.camera
p504
(dp505
g10
F3.7999999999999998
ssVcom.miui.player
p506
(dp507
g10
I1
ssVcom.tencent.mm
p508
(dp509
g10
F37.899999999999991
ssVcom.eg.android.AlipayGphone
p510
(dp511
g10
F17.199999999999999
ssVcom.xtuone.android.syllabus
p512
(dp513
g10
I1
sssg71
(dp514
Vcom.tencent.mm
p515
(dp516
g10
F0.69999999999999996
ssVcom.sankuai.meituan
p517
(dp518
g10
I1
ssVcom.tencent.mobileqqi
p519
(dp520
g10
F0.90000000000000002
ssVcom.android.mms
p521
(dp522
g10
I1
ssg112
(dp523
g10
I1
sssg73
(dp524
Vcom.tencent.mobileqqi
p525
(dp526
g10
I3
ssVcom.android.settings
p527
(dp528
g10
F6.1000000000000005
ssg274
(dp529
g10
F2.1000000000000001
ssVcom.tencent.mm
p530
(dp531
g10
F2.5
ssg45
(dp532
g10
I1
ssg272
(dp533
g10
F0.90000000000000002
sssg75
(dp534
Vcom.tencent.mobileqqi
p535
(dp536
g10
F2.7000000000000002
sssg77
(dp537
sg79
(dp538
Vcom.android.browser
p539
(dp540
g10
F0.69999999999999996
ssVcom.tencent.mobileqqi
p541
(dp542
g10
F4.1000000000000005
ssVcom.android.mms
p543
(dp544
g10
F3.8999999999999995
ssVcom.android.phone
p545
(dp546
g10
I1
ssVcom.miui.gallery
p547
(dp548
g10
F8.4000000000000004
ssVcom.tencent.mm
p549
(dp550
g10
F12.600000000000001
sssg81
(dp551
g147
(dp552
g10
F0.90000000000000002
ssVcom.tencent.mobileqqi
p553
(dp554
g10
I2
ssVcom.ss.android.article.news
p555
(dp556
g10
I3
ssg517
(dp557
g10
F0.69999999999999996
ssg408
(dp558
g10
I2
ssg167
(dp559
g10
F2.8999999999999999
ssVcom.tencent.mm
p560
(dp561
g10
F5.9000000000000004
ssssS'edge'
p562
g87
sS'graph'
p563
(dp564
sS'adjlist_dict_factory'
p565
g84
sS'adj'
p566
g87
sS'pred'
p567
(dp568
g8
(dp569
g11
g117
sVcom.youdao.dict
p570
g156
sg15
g180
sg143
g464
sg93
g201
sg95
g218
sg97
g484
sg21
g221
sVcom.android.deskclock
p571
g226
sg231
g373
sVcom.android.camera
p572
g540
sg187
g247
sg39
g313
sg457
g288
sg63
g444
sg61
g436
sg43
g323
sVcom.Qunar
p573
g420
ssg11
(dp574
g8
g90
sVcom.youdao.dict
p575
g158
sg15
g182
sg93
g203
sg19
g216
sVcom.android.deskclock
p576
g228
sg25
g245
sg27
g249
sVcom.sankuai.meituan
p577
g281
sg35
g290
sg41
g321
sg43
g325
sVcom.achievo.vipshop
p578
g393
sVcom.Qunar
p579
g422
sg61
g440
sg141
g446
sg143
g470
sVcom.android.settings
p580
g473
sg69
g486
sg71
g520
sVcom.miui.securitycenter
p581
g526
sg75
g536
sg150
g542
sg103
g554
ssg13
(dp582
Vcom.miui.notes
p583
g448
sVcom.tencent.mobileqqi
p584
g119
sVcom.tencent.mm
p585
g327
sVcom.ss.android.article.news
p586
g184
sVcom.android.phone
p587
g292
ssg15
(dp588
Vcom.android.browser
p589
g92
sVcom.tencent.mobileqqi
p590
g120
sg570
g160
sVcom.android.settings
p591
g475
sg185
g488
sg332
g230
sVcom.Qunar
p592
g424
sVcom.android.phone
p593
g294
sg495
g269
sVcom.tencent.mm
p594
g329
sVcom.xtuone.android.syllabus
p595
g556
ssg17
(dp596
Vcom.android.browser
p597
g94
sVcom.sankuai.meituan
p598
g285
ssg19
(dp599
Vcom.android.browser
p600
g96
sg41
g318
sg39
g314
ssg21
(dp601
Vcom.tencent.mm
p602
g331
ssg23
(dp603
Vcom.miui.notes
p604
g455
sVcom.youdao.dict
p605
g168
sg449
g376
sg169
g559
sVcom.tencent.mobileqqi
p606
g121
sVcom.tencent.mm
p607
g333
ssg25
(dp608
Vcom.tencent.mm
p609
g335
sg19
g212
sg41
g317
sg215
g122
sVcom.ss.android.article.news
p610
g188
ssg27
(dp611
Vcom.android.browser
p612
g113
sVcom.tencent.mobileqqi
p613
g124
sVcom.android.calculator
p614
g388
sg31
g273
sVcom.sankuai.meituan
p615
g283
sg255
g511
sg51
g406
sg71
g523
sg260
g533
sg502
g308
sVcom.tencent.mm
p616
g337
ssg29
(dp617
g47
g374
sVcom.android.mms
p618
g496
sVcom.tencent.mm
p619
g339
sVcom.youdao.dict
p620
g163
sVcom.tencent.mobileqqi
p621
g126
ssg31
(dp622
Vcom.android.mms
p623
g492
sg51
g395
sVcom.eg.android.AlipayGphone
p624
g252
ssg33
(dp625
g421
g127
sg284
g205
sg145
g494
sg147
g518
sVcom.Qunar
p626
g425
sg278
g297
sg282
g254
sg103
g557
ssg35
(dp627
Vcom.android.browser
p628
g106
sg63
g458
sVcom.youdao.dict
p629
g173
sVcom.ss.android.article.news
p630
g192
sg49
g390
sg17
g207
sVcom.sankuai.meituan
p631
g279
sVcom.android.mms
p632
g503
sVcom.achievo.vipshop
p633
g402
sVcom.xiaomi.market
p634
g412
sg571
g238
sg231
g379
sVcom.android.camera
p635
g546
sVcom.tencent.mobileqqi
p636
g129
sVcom.tencent.mm
p637
g341
sVcom.eg.android.AlipayGphone
p638
g263
ssg37
(dp639
g55
g414
sVcom.tencent.mm
p640
g343
sVcom.tencent.mobileqqi
p641
g130
sg59
g433
ssg39
(dp642
g600
g99
ssg41
(dp643
Vcom.android.mms
p644
g507
ssg43
(dp645
Vcom.android.browser
p646
g111
sg11
g133
sg13
g177
sVcom.ss.android.article.news
p647
g196
sg93
g210
sg95
g214
sg39
g315
sg23
g240
sg334
g243
sg27
g264
sg330
g223
sg29
g267
sVcom.android.phone
p648
g306
sg506
g320
sg45
g371
sg47
g381
sg614
g384
sVcom.achievo.vipshop
p649
g405
sVcom.android.fileexplorer
p650
g416
sVcom.xtuone.android.syllabus
p651
g561
sg61
g438
sg583
g460
sg143
g466
sg358
g481
sg69
g509
sg71
g516
sVcom.miui.securitycenter
p652
g531
sg150
g550
sg367
g429
ssg45
(dp653
Vcom.miui.securitycenter
p654
g532
sVcom.tencent.mm
p655
g346
ssg47
(dp656
g571
g232
sg604
g450
sg619
g347
ssg49
(dp657
g613
g135
sVcom.tencent.mm
p658
g348
sVcom.eg.android.AlipayGphone
p659
g251
sVcom.android.phone
p660
g295
ssg51
(dp661
Vcom.tencent.mobileqqi
p662
g137
sg358
g477
sg31
g275
sg623
g497
sg260
g529
sVcom.android.phone
p663
g300
sg141
g454
sVcom.tencent.mm
p664
g350
sg624
g257
ssg53
(dp665
Vcom.tencent.mm
p666
g351
sVcom.youdao.dict
p667
g166
ssg55
(dp668
g641
g138
sVcom.tencent.mm
p669
g352
sg59
g432
sg37
g311
ssg57
(dp670
Vcom.android.browser
p671
g115
sg141
g456
sg423
g198
sVcom.android.mms
p672
g501
sg453
g400
sVcom.tencent.mobileqqi
p673
g139
sVcom.tencent.mm
p674
g368
ssg59
(dp675
g641
g140
sg669
g355
sg55
g417
ssg61
(dp676
Vcom.android.browser
p677
g109
sVcom.tencent.mobileqqi
p678
g132
sg358
g479
sVcom.achievo.vipshop
p679
g403
sg79
g548
sg480
g345
ssg63
(dp680
Vcom.android.browser
p681
g108
sVcom.tencent.mobileqqi
p682
g142
sVcom.youdao.dict
p683
g162
sVcom.android.mms
p684
g491
sg457
g304
sVcom.tencent.mm
p685
g356
ssg65
(dp686
Vcom.tencent.mm
p687
g357
sg467
g490
sVcom.tencent.mobileqqi
p688
g144
ssg67
(dp689
g73
g528
sVcom.tencent.mm
p690
g359
sg679
g394
ssg69
(dp691
Vcom.android.browser
p692
g98
sVcom.tencent.mobileqqi
p693
g146
sVcom.youdao.dict
p694
g165
sVcom.ss.android.article.news
p695
g186
sg614
g386
sVcom.sankuai.meituan
p696
g277
sVcom.achievo.vipshop
p697
g397
sVcom.xiaomi.market
p698
g409
sg258
g522
sg65
g468
sVcom.android.camera
p699
g544
sg500
g427
sVcom.android.deskclock
p700
g234
sVcom.android.phone
p701
g299
sg63
g452
sg616
g361
sVcom.eg.android.AlipayGphone
p702
g256
sg81
g558
ssg71
(dp703
g612
g100
sVcom.tencent.mobileqqi
p704
g148
sVcom.android.mms
p705
g498
sg103
g552
sVcom.tencent.mm
p706
g363
sVcom.eg.android.AlipayGphone
p707
g259
ssg73
(dp708
Vcom.android.browser
p709
g102
sg67
g478
sg31
g271
sg623
g499
sg51
g398
sVcom.tencent.mm
p710
g364
sVcom.eg.android.AlipayGphone
p711
g261
ssg75
(dp712
Vcom.tencent.mobileqqi
p713
g149
sVcom.youdao.dict
p714
g171
ssg77
(dp715
Vcom.autonavi.minimap
p716
g208
sVcom.ss.android.article.news
p717
g194
ssg79
(dp718
Vcom.android.mms
p719
g505
sVcom.tencent.mm
p720
g366
sg547
g442
sVcom.tencent.mobileqqi
p721
g151
sVcom.youdao.dict
p722
g175
ssg81
(dp723
Vcom.android.browser
p724
g104
sVcom.tencent.mobileqqi
p725
g153
sg605
g170
sVcom.ss.android.article.news
p726
g190
sg449
g378
sg408
g513
sg698
g410
sg167
g236
sVcom.android.phone
p727
g302
sg604
g461
sVcom.tencent.mm
p728
g354
sssb.