ccopy_reg
_reconstructor
p1
(cnetworkx.classes.digraph
DiGraph
p2
c__builtin__
object
p3
NtRp4
(dp5
S'node'
p6
(dp7
Vcom.android.browser
p8
(dp9
S'weight'
p10
F0.0076393308173373529
ssVcom.sankuai.movie
p11
(dp12
g10
F0.00018592486173862852
ssVone.hh.oneclient
p13
(dp14
g10
F0.00098015441048970365
ssVcom.meizu.systemwallpaper
p15
(dp16
g10
F4.318812119364193e-07
ssVim.yixin
p17
(dp18
g10
F0.0051709137505147485
ssVcom.mxtech.videoplayer.ad
p19
(dp20
g10
F0.0008482147002431275
ssVcom.dianping.v1
p21
(dp22
g10
F2.1810001202789177e-05
ssVcom.meizu.media.camera
p23
(dp24
g10
F0.00013906575024352701
ssVcom.tencent.qqpim
p25
(dp26
g10
F1.813901090132961e-05
ssVcom.tencent.android.qqdownloader
p27
(dp28
g10
F0.00027597209442737193
ssVcom.hupu.games
p29
(dp30
g10
F0.004186224587299712
ssVcom.hujiang.dict
p31
(dp32
g10
F8.2057430267919666e-06
ssVcom.sina.weibo
p33
(dp34
g10
F0.029539379252815273
ssVcom.eg.android.AlipayGphone
p35
(dp36
g10
F0.0004310174495125465
ssVcom.youku.phone
p37
(dp38
g10
F0.0003226152653165052
ssVcom.android.launcher3
p39
(dp40
g10
F0.52884005560038727
ssVcom.zhihu.android
p41
(dp42
g10
F0.026253842933008961
ssVcom.android.dialer
p43
(dp44
g10
F0.0049212864100154977
ssVcn.wps.moffice_eng
p45
(dp46
g10
F1.6627426659552142e-05
ssVcom.alibaba.android.babylon
p47
(dp48
g10
F7.3419806029191281e-06
ssVcom.android.packageinstaller
p49
(dp50
g10
F0.00098015441048970365
ssVcom.sankuai.meituan
p51
(dp52
g10
F0.00010127614419909033
ssVcom.jingdong.app.mall
p53
(dp54
g10
F4.8370695736878963e-05
ssVcom.taobao.taobao
p55
(dp56
g10
F3.6493962408627433e-05
ssVcom.wumii.android.mimi
p57
(dp58
g10
F0.0002010407041564032
ssVcom.android.systemui
p59
(dp60
g10
F4.318812119364193e-07
ssVcom.meizu.mpay
p61
(dp62
g10
F2.1594060596820965e-07
ssVcom.android.phone
p63
(dp64
g10
F1.2092673934219741e-05
ssVcom.meizu.safe
p65
(dp66
g10
F0.000912565000821654
ssVcom.android.htmlviewer
p67
(dp68
g10
F6.6941587850144996e-06
ssVcom.alibaba.android.rimet
p69
(dp70
g10
F6.4782181790462898e-07
ssVcom.tencent.mobileqq
p71
(dp72
g10
F0.21406235457749817
ssVme.quqi
p73
(dp74
g10
F0.0047217572901008722
ssVcom.comingx.athit
p75
(dp76
g10
F0.00054784131734134794
ssVcom.MobileTicket
p77
(dp78
g10
F6.4782181790462898e-07
ssVcom.renren.mobile.android
p79
(dp80
g10
F0.00090651866385454418
ssVcom.tencent.mm
p81
(dp82
g10
F0.13239815215304662
ssVcom.kugou.android
p83
(dp84
g10
F0.0070614737557664238
ssVcom.meizu.filemanager
p85
(dp86
g10
F0.00015029466175387393
ssVcom.baidu.input
p87
(dp88
g10
F7.5579212088873381e-06
ssVcom.meizu.media.gallery
p89
(dp90
g10
F0.00045649844101679519
ssVcom.Qunar
p91
(dp92
g10
F1.6195545447615724e-05
ssVcom.kingsoft
p93
(dp94
g10
F4.2324358769769091e-05
ssVcom.baoxue.player
p95
(dp96
g10
F3.5414259378786383e-05
ssVcom.android.email
p97
(dp98
g10
F9.1990698142457316e-05
ssVcom.meizu.flyme.calculator
p99
(dp100
g10
F1.274049575212437e-05
ssVcom.android.alarmclock
p101
(dp102
g10
F5.5496735733829883e-05
ssVcom.meizu.media.video
p103
(dp104
g10
F0.00087974202871448617
ssVcom.meizu.notepaper
p105
(dp106
g10
F0.0014213210684827561
ssVcom.zhihu.daily.android
p107
(dp108
g10
F0.0018387342598193052
ssVcom.immomo.momo
p109
(dp110
g10
F0.00092724896202749226
ssVcom.android.calendar
p111
(dp112
g10
F5.8519904217384819e-05
ssVcom.android.settings
p113
(dp114
g10
F0.00025934466776781977
ssVcom.android.mms
p115
(dp116
g10
F0.0030736985853514961
ssVcom.baidu.BaiduMap
p117
(dp118
g10
F0.00020946238778916338
ssVcom.meizu.blockservice
p119
(dp120
g10
F1.6843367265520352e-05
ssVcom.qzone
p121
(dp122
g10
F0.0017352987095605329
ssVcom.dotamax.app
p123
(dp124
g10
F0.016710563792849905
ssVcom.meizu.media.music
p125
(dp126
g10
F8.637624238728386e-07
ssVcom.meizu.flyme.weather
p127
(dp128
g10
F0.00019456248597735689
sssS'graph'
p129
(dp130
sS'succ'
p131
(dp132
g8
(dp133
Vcom.android.launcher3
p134
(dp135
g10
F129.00000000000011
ssVcom.zhihu.android
p136
(dp137
g10
F9.8000000000000007
ssVcom.meizu.notepaper
p138
(dp139
g10
F0.69999999999999996
ssVcom.android.dialer
p140
(dp141
g10
F1.3999999999999999
ssVcom.comingx.athit
p142
(dp143
g10
F0.40000000000000002
ssVcom.kugou.android
p144
(dp145
g10
F1.8
ssVcom.sina.weibo
p146
(dp147
g10
F4.2999999999999998
ssVim.yixin
p148
(dp149
g10
F3.2999999999999998
ssVcom.android.mms
p150
(dp151
g10
F2.7999999999999998
ssVcom.baidu.input
p152
(dp153
g10
F0.90000000000000002
ssg55
(dp154
g10
F1.8999999999999999
ssVcom.meizu.blockservice
p155
(dp156
g10
F0.69999999999999996
ssVcom.meizu.media.camera
p157
(dp158
g10
F0.40000000000000002
ssVcom.dotamax.app
p159
(dp160
g10
F2.3999999999999999
ssVcom.tencent.mobileqq
p161
(dp162
g10
F49.499999999999986
ssVcom.baidu.BaiduMap
p163
(dp164
g10
I1
ssVcom.android.alarmclock
p165
(dp166
g10
I1
ssVcom.tencent.mm
p167
(dp168
g10
F70.799999999999997
ssg99
(dp169
g10
F0.90000000000000002
ssVcom.meizu.flyme.weather
p170
(dp171
g10
F0.90000000000000002
sssg11
(dp172
Vcom.android.launcher3
p173
(dp174
g10
I2
ssVcom.meizu.media.camera
p175
(dp176
g10
F0.90000000000000002
ssVcom.tencent.mm
p177
(dp178
g10
F0.90000000000000002
ssVcom.tencent.mobileqq
p179
(dp180
g10
I1
sssg13
(dp181
Vcom.android.launcher3
p182
(dp183
g10
F9.8000000000000007
ssVcom.sina.weibo
p184
(dp185
g10
F0.40000000000000002
ssVcom.android.alarmclock
p186
(dp187
g10
F0.90000000000000002
ssVcom.tencent.mm
p188
(dp189
g10
F4.4000000000000004
ssVcom.tencent.mobileqq
p190
(dp191
g10
F0.40000000000000002
sssg15
(dp192
Vcom.android.launcher3
p193
(dp194
g10
F0.40000000000000002
ssVcom.android.settings
p195
(dp196
g10
F1.7
ssVim.yixin
p197
(dp198
g10
F0.90000000000000002
sssg17
(dp199
Vcom.android.browser
p200
(dp201
g10
F1.7
ssVcom.comingx.athit
p202
(dp203
g10
F0.80000000000000004
ssVcom.hupu.games
p204
(dp205
g10
I1
ssVcom.sina.weibo
p206
(dp207
g10
F18.599999999999998
ssVcom.eg.android.AlipayGphone
p208
(dp209
g10
F0.40000000000000002
ssVcom.android.launcher3
p210
(dp211
g10
F172.20000000000013
ssVcom.zhihu.android
p212
(dp213
g10
F9.6000000000000014
ssg47
(dp214
g10
F0.69999999999999996
ssVcom.jingdong.app.mall
p215
(dp216
g10
F0.90000000000000002
ssVcom.tencent.mobileqq
p217
(dp218
g10
F61.399999999999984
ssg59
(dp219
g10
F0.69999999999999996
ssVcom.meizu.media.gallery
p220
(dp221
g10
F3.1000000000000001
ssVcom.tencent.mm
p222
(dp223
g10
F81.600000000000037
ssVcom.renren.mobile.android
p224
(dp225
g10
F2.7000000000000002
ssVcom.kugou.android
p226
(dp227
g10
I1
ssVcom.android.alarmclock
p228
(dp229
g10
F0.90000000000000002
ssVcom.meizu.notepaper
p230
(dp231
g10
F4
ssVcom.zhihu.daily.android
p232
(dp233
g10
F1.3999999999999999
ssVcom.android.settings
p234
(dp235
g10
F1.8999999999999999
ssVcom.android.mms
p236
(dp237
g10
F4.7000000000000002
ssVcom.qzone
p238
(dp239
g10
F2.6999999999999997
ssVcom.dotamax.app
p240
(dp241
g10
F2.6999999999999997
sssg19
(dp242
Vcom.android.launcher3
p243
(dp244
g10
F2
ssVcom.tencent.mobileqq
p245
(dp246
g10
F0.90000000000000002
ssVim.yixin
p247
(dp248
g10
F0.69999999999999996
ssVcom.meizu.filemanager
p249
(dp250
g10
I3
ssVcom.qzone
p251
(dp252
g10
F0.40000000000000002
ssVcom.dotamax.app
p253
(dp254
g10
F0.69999999999999996
ssVcom.tencent.mm
p255
(dp256
g10
F0.90000000000000002
sssg21
(dp257
Vcom.android.launcher3
p258
(dp259
g10
F1.7
ssVcom.tencent.mobileqq
p260
(dp261
g10
F0.40000000000000002
ssVcom.tencent.mm
p262
(dp263
g10
F0.90000000000000002
sssg23
(dp264
Vcom.android.launcher3
p265
(dp266
g10
F25.299999999999994
ssVcom.zhihu.android
p267
(dp268
g10
F0.90000000000000002
ssVcom.meizu.notepaper
p269
(dp270
g10
F0.40000000000000002
ssVcom.comingx.athit
p271
(dp272
g10
F1.8
ssVcom.tencent.mobileqq
p273
(dp274
g10
F4.7999999999999998
ssVcom.sina.weibo
p275
(dp276
g10
F0.40000000000000002
ssVim.yixin
p277
(dp278
g10
F1.6000000000000001
ssVcom.meizu.safe
p279
(dp280
g10
F1.3
ssVcom.dotamax.app
p281
(dp282
g10
F0.40000000000000002
ssVcom.meizu.media.gallery
p283
(dp284
g10
F15.9
ssVcom.tencent.mm
p285
(dp286
g10
F14.600000000000003
sssg25
(dp287
Vcom.android.launcher3
p288
(dp289
g10
F4.4000000000000004
ssVcom.sina.weibo
p290
(dp291
g10
F1.7
ssVcom.tencent.mm
p292
(dp293
g10
F0.40000000000000002
ssVcom.tencent.mobileqq
p294
(dp295
g10
F2.6000000000000001
sssg27
(dp296
Vcom.android.launcher3
p297
(dp298
g10
F17.999999999999996
ssVcom.tencent.mm
p299
(dp300
g10
F3.7999999999999994
ssg49
(dp301
g10
F25.399999999999995
ssVcom.meizu.filemanager
p302
(dp303
g10
F0.69999999999999996
ssVcom.sina.weibo
p304
(dp305
g10
F1.7000000000000002
ssVcom.qzone
p306
(dp307
g10
F5.7000000000000002
ssVcom.dotamax.app
p308
(dp309
g10
F0.69999999999999996
ssg95
(dp310
g10
F0.69999999999999996
ssVcom.hupu.games
p311
(dp312
g10
I1
ssVcom.tencent.mobileqq
p313
(dp314
g10
F5.2999999999999998
ssg73
(dp315
g10
F0.40000000000000002
sssg29
(dp316
Vcom.android.launcher3
p317
(dp318
g10
F82.700000000000045
ssVcom.zhihu.android
p319
(dp320
g10
F3.6999999999999997
ssg271
(dp321
g10
F0.40000000000000002
ssVcom.qzone
p322
(dp323
g10
F0.80000000000000004
ssVcom.android.browser
p324
(dp325
g10
F2.2000000000000002
ssVcom.tencent.mm
p326
(dp327
g10
F34.999999999999979
ssVim.yixin
p328
(dp329
g10
F4.2999999999999998
ssVcom.meizu.media.camera
p330
(dp331
g10
F2.2000000000000002
ssVcom.android.mms
p332
(dp333
g10
F0.40000000000000002
ssVcom.android.dialer
p334
(dp335
g10
I1
ssVcom.dotamax.app
p336
(dp337
g10
F4.7000000000000002
ssVcom.tencent.android.qqdownloader
p338
(dp339
g10
I1
ssVcom.android.alarmclock
p340
(dp341
g10
I1
ssVcom.sina.weibo
p342
(dp343
g10
F5.0999999999999996
ssg35
(dp344
g10
F2.2000000000000002
ssVcom.tencent.mobileqq
p345
(dp346
g10
F26.399999999999984
sssg31
(dp347
sg33
(dp348
Vcom.android.browser
p349
(dp350
g10
F6.6000000000000005
ssVone.hh.oneclient
p351
(dp352
g10
F1.8
ssVim.yixin
p353
(dp354
g10
F13.200000000000001
ssVcom.meizu.media.camera
p355
(dp356
g10
F0.40000000000000002
ssVcom.tencent.qqpim
p357
(dp358
g10
F0.40000000000000002
ssVcom.tencent.android.qqdownloader
p359
(dp360
g10
F1.6000000000000001
ssVcom.hupu.games
p361
(dp362
g10
F11.100000000000001
ssVcom.eg.android.AlipayGphone
p363
(dp364
g10
F1.3999999999999999
ssVcom.android.launcher3
p365
(dp366
g10
F597.59999999999911
ssVcom.zhihu.android
p367
(dp368
g10
F53.499999999999943
ssVcom.android.dialer
p369
(dp370
g10
F4.9000000000000004
ssVcom.android.packageinstaller
p371
(dp372
g10
F0.69999999999999996
ssg57
(dp373
g10
F1.3
ssVcom.tencent.mobileqq
p374
(dp375
g10
F156.70000000000039
ssVcom.meizu.safe
p376
(dp377
g10
F3.3999999999999999
ssg69
(dp378
g10
I1
ssVcom.tencent.mm
p379
(dp380
g10
F230.70000000000067
ssVcom.comingx.athit
p381
(dp382
g10
F3.8999999999999999
ssg79
(dp383
g10
F14.000000000000004
ssVcom.kugou.android
p384
(dp385
g10
F0.90000000000000002
ssVcom.android.alarmclock
p386
(dp387
g10
F6.1000000000000005
ssg105
(dp388
g10
F2.8999999999999999
ssVcom.immomo.momo
p389
(dp390
g10
F1.1000000000000001
ssVcom.zhihu.daily.android
p391
(dp392
g10
F9.7000000000000011
ssVcom.android.settings
p393
(dp394
g10
F2.8999999999999999
ssVcom.android.mms
p395
(dp396
g10
F5.7000000000000011
ssVcom.qzone
p397
(dp398
g10
F8.4000000000000004
ssVcom.dotamax.app
p399
(dp400
g10
F15.800000000000006
ssg170
(dp401
g10
F1.3
sssg35
(dp402
Vcom.android.launcher3
p403
(dp404
g10
F36
ssVcom.sina.weibo
p405
(dp406
g10
F1.7999999999999998
ssVcom.sankuai.meituan
p407
(dp408
g10
I1
ssVcom.android.mms
p409
(dp410
g10
F1.8
ssVcom.tencent.mm
p411
(dp412
g10
F13.200000000000003
ssVcom.tencent.mobileqq
p413
(dp414
g10
F4.0999999999999996
sssg37
(dp415
Vcom.android.launcher3
p416
(dp417
g10
F4.9000000000000004
ssVcom.meizu.media.video
p418
(dp419
g10
F0.90000000000000002
ssVcom.tencent.mm
p420
(dp421
g10
F0.69999999999999996
ssVcom.meizu.filemanager
p422
(dp423
g10
F3.7000000000000002
sssg39
(dp424
g8
(dp425
g10
F144.40000000000006
ssg11
(dp426
g10
F5.0999999999999996
ssVone.hh.oneclient
p427
(dp428
g10
F7.4000000000000004
ssg15
(dp429
g10
F1.3
ssg17
(dp430
g10
F234.99999999999989
ssVcom.mxtech.videoplayer.ad
p431
(dp432
g10
F0.90000000000000002
ssg21
(dp433
g10
F1.7
ssg23
(dp434
g10
F36.699999999999996
ssg357
(dp435
g10
F3.3999999999999999
ssg27
(dp436
g10
F22.799999999999994
ssVcom.hupu.games
p437
(dp438
g10
F110.60000000000014
ssg31
(dp439
g10
F1.7
ssg33
(dp440
g10
F806.00000000000375
ssg35
(dp441
g10
F39.900000000000006
ssg37
(dp442
g10
F5.4000000000000004
ssVcom.zhihu.android
p443
(dp444
g10
F332.79999999999893
ssg43
(dp445
g10
F193.09999999999997
ssg45
(dp446
g10
F6.7000000000000002
ssg47
(dp447
g10
I1
ssg49
(dp448
g10
F13.300000000000002
ssg51
(dp449
g10
F2.7000000000000002
ssg53
(dp450
g10
F3.7000000000000002
ssg55
(dp451
g10
F5
ssg57
(dp452
g10
F18.199999999999999
ssVcom.tencent.mobileqq
p453
(dp454
g10
F4935.8999999998741
ssg63
(dp455
g10
F20.299999999999994
ssg89
(dp456
g10
F45.199999999999996
ssg69
(dp457
g10
F1.3
ssVcom.tencent.mm
p458
(dp459
g10
F6028.2999999996973
ssVme.quqi
p460
(dp461
g10
F12.799999999999999
ssg75
(dp462
g10
F55.200000000000024
ssg61
(dp463
g10
F1.3
ssg77
(dp464
g10
F1.7
ssg79
(dp465
g10
F76.80000000000004
ssg59
(dp466
g10
I1
ssg83
(dp467
g10
F130.10000000000005
ssg85
(dp468
g10
F25.699999999999992
ssg87
(dp469
g10
F9.0999999999999996
ssVcom.meizu.safe
p470
(dp471
g10
F16.899999999999999
ssg91
(dp472
g10
F1.7
ssg93
(dp473
g10
F3.1000000000000001
ssg95
(dp474
g10
F2.6999999999999997
ssg97
(dp475
g10
F14.799999999999999
ssg99
(dp476
g10
I1
ssg101
(dp477
g10
F61.199999999999996
ssg103
(dp478
g10
F8.6000000000000014
ssg105
(dp479
g10
F184.19999999999987
ssg107
(dp480
g10
F47.500000000000014
ssg109
(dp481
g10
F38.099999999999994
ssg111
(dp482
g10
F10.399999999999999
ssg113
(dp483
g10
F38.699999999999989
ssVcom.android.mms
p484
(dp485
g10
F334.29999999999882
ssg117
(dp486
g10
F8.1000000000000014
ssg119
(dp487
g10
F16.899999999999999
ssg121
(dp488
g10
F136.10000000000019
ssg399
(dp489
g10
F222.79999999999967
ssg125
(dp490
g10
F1.7
ssg127
(dp491
g10
F61.500000000000014
sssg41
(dp492
Vcom.android.browser
p493
(dp494
g10
F9.4000000000000021
ssVim.yixin
p495
(dp496
g10
F7.5
ssVcom.tencent.android.qqdownloader
p497
(dp498
g10
F0.90000000000000002
ssVcom.hupu.games
p499
(dp500
g10
F3.5
ssVcom.sina.weibo
p501
(dp502
g10
F24.299999999999986
ssVcom.eg.android.AlipayGphone
p503
(dp504
g10
F1.7000000000000002
ssVcom.android.launcher3
p505
(dp506
g10
F294.0999999999994
ssVcom.android.dialer
p507
(dp508
g10
F1.3999999999999999
ssVcom.android.packageinstaller
p509
(dp510
g10
F0.69999999999999996
ssVcom.renren.mobile.android
p511
(dp512
g10
F0.80000000000000004
ssVcom.tencent.mm
p513
(dp514
g10
F170.40000000000038
ssVcom.meizu.media.camera
p515
(dp516
g10
F0.40000000000000002
ssVcom.kugou.android
p517
(dp518
g10
F1.3
ssVcom.baidu.input
p519
(dp520
g10
F0.90000000000000002
ssVcom.android.alarmclock
p521
(dp522
g10
F1.7000000000000002
ssVcom.meizu.notepaper
p523
(dp524
g10
F2.1000000000000001
ssg107
(dp525
g10
F7.1000000000000005
ssVcom.immomo.momo
p526
(dp527
g10
F2.6000000000000001
ssVcom.tencent.mobileqq
p528
(dp529
g10
F108.60000000000019
ssVcom.android.mms
p530
(dp531
g10
F3
ssVcom.meizu.blockservice
p532
(dp533
g10
I1
ssVcom.qzone
p534
(dp535
g10
F1.1000000000000001
ssVcom.dotamax.app
p536
(dp537
g10
F3.8999999999999999
ssVcom.meizu.flyme.weather
p538
(dp539
g10
F1.3
sssg43
(dp540
Vcom.android.browser
p541
(dp542
g10
F4.7999999999999998
ssVim.yixin
p543
(dp544
g10
F1.6000000000000001
ssVcom.hupu.games
p545
(dp546
g10
I1
ssVcom.sina.weibo
p547
(dp548
g10
F2.7999999999999998
ssVcom.eg.android.AlipayGphone
p549
(dp550
g10
F0.90000000000000002
ssVcom.android.launcher3
p551
(dp552
g10
F216.60000000000011
ssVcom.zhihu.android
p553
(dp554
g10
F1.7
ssg51
(dp555
g10
F0.90000000000000002
ssVcom.tencent.mobileqq
p556
(dp557
g10
F85.400000000000077
ssg61
(dp558
g10
I1
ssVcom.android.phone
p559
(dp560
g10
F15.799999999999999
ssVcom.meizu.safe
p561
(dp562
g10
F0.40000000000000002
ssVcom.tencent.mm
p563
(dp564
g10
F91.700000000000117
ssVcom.renren.mobile.android
p565
(dp566
g10
F1.8999999999999999
ssVcom.android.email
p567
(dp568
g10
F1.7
ssVcom.android.alarmclock
p569
(dp570
g10
I1
ssVcom.meizu.notepaper
p571
(dp572
g10
F5
ssVcom.android.settings
p573
(dp574
g10
F0.40000000000000002
ssVcom.android.mms
p575
(dp576
g10
F32.099999999999994
ssVcom.meizu.blockservice
p577
(dp578
g10
F0.40000000000000002
ssVcom.qzone
p579
(dp580
g10
F2.5
ssVcom.dotamax.app
p581
(dp582
g10
F2.8999999999999999
sssg45
(dp583
Vcom.meizu.media.gallery
p584
(dp585
g10
F1.3
ssVcom.android.launcher3
p586
(dp587
g10
F3.4000000000000004
ssVcom.tencent.mm
p588
(dp589
g10
F2.6000000000000001
ssVcom.tencent.mobileqq
p590
(dp591
g10
F1.7
sssg47
(dp592
Vcom.android.launcher3
p593
(dp594
g10
I1
sssg49
(dp595
g297
(dp596
g10
F13.1
ssg299
(dp597
g10
F3.6999999999999997
ssg304
(dp598
g10
F0.69999999999999996
ssVcom.comingx.athit
p599
(dp600
g10
F0.90000000000000002
ssg302
(dp601
g10
F0.90000000000000002
ssVcom.tencent.android.qqdownloader
p602
(dp603
g10
F16.099999999999998
ssg95
(dp604
g10
F0.90000000000000002
ssg313
(dp605
g10
F4.4000000000000004
ssg73
(dp606
g10
F1.7
sssg51
(dp607
Vcom.android.launcher3
p608
(dp609
g10
F3.3999999999999999
ssVcom.tencent.mobileqq
p610
(dp611
g10
F1.3
ssVcom.tencent.mm
p612
(dp613
g10
F1.3
ssVcom.eg.android.AlipayGphone
p614
(dp615
g10
I1
sssg53
(dp616
Vcom.android.launcher3
p617
(dp618
g10
F2.7000000000000002
ssVcom.tencent.mobileqq
p619
(dp620
g10
F0.69999999999999996
ssVcom.tencent.mm
p621
(dp622
g10
F2.6000000000000001
sssg55
(dp623
Vcom.android.launcher3
p624
(dp625
g10
F3
ssVcom.android.browser
p626
(dp627
g10
F1.8999999999999999
ssVcom.tencent.mm
p628
(dp629
g10
F0.69999999999999996
ssg152
(dp630
g10
F0.40000000000000002
sssg57
(dp631
Vcom.android.launcher3
p632
(dp633
g10
F9.9000000000000004
ssVcom.zhihu.android
p634
(dp635
g10
F0.40000000000000002
ssVcom.tencent.mm
p636
(dp637
g10
F5.6000000000000005
ssVcom.android.mms
p638
(dp639
g10
F0.90000000000000002
ssVcom.sina.weibo
p640
(dp641
g10
F2.0999999999999996
ssVcom.tencent.mobileqq
p642
(dp643
g10
I1
sssg59
(dp644
Vcom.android.launcher3
p645
(dp646
g10
I1
sssg61
(dp647
Vcom.android.launcher3
p648
(dp649
g10
F1.3
ssVcom.tencent.mm
p650
(dp651
g10
F0.69999999999999996
ssg549
(dp652
g10
I1
sssg63
(dp653
Vcom.android.launcher3
p654
(dp655
g10
F2.7000000000000002
ssVcom.sina.weibo
p656
(dp657
g10
F0.90000000000000002
ssVcom.android.dialer
p658
(dp659
g10
I3
ssVcom.tencent.mm
p660
(dp661
g10
F0.90000000000000002
sssg65
(dp662
Vcom.android.launcher3
p663
(dp664
g10
F11.699999999999999
ssVcom.sina.weibo
p665
(dp666
g10
F2.3999999999999999
ssVcom.dotamax.app
p667
(dp668
g10
I1
ssVcom.sankuai.movie
p669
(dp670
g10
F0.40000000000000002
ssVcom.tencent.mm
p671
(dp672
g10
F7.8000000000000007
ssVcom.tencent.mobileqq
p673
(dp674
g10
F9.4000000000000004
sssg67
(dp675
Vcom.android.launcher3
p676
(dp677
g10
F0.90000000000000002
ssVcom.meizu.filemanager
p678
(dp679
g10
I1
sssg69
(dp680
Vcom.android.launcher3
p681
(dp682
g10
I1
ssVcom.sina.weibo
p683
(dp684
g10
F0.90000000000000002
sssg71
(dp685
Vone.hh.oneclient
p686
(dp687
g10
F0.90000000000000002
ssVcom.sankuai.movie
p688
(dp689
g10
F2.2000000000000002
ssVcom.android.browser
p690
(dp691
g10
F45.899999999999977
ssg15
(dp692
g10
F0.69999999999999996
ssVim.yixin
p693
(dp694
g10
F95.800000000000125
ssg431
(dp695
g10
F0.69999999999999996
ssg175
(dp696
g10
F4.2999999999999998
ssVcom.tencent.qqpim
p697
(dp698
g10
F1.8999999999999999
ssg359
(dp699
g10
F3.9999999999999996
ssVcom.hupu.games
p700
(dp701
g10
F27.099999999999987
ssg33
(dp702
g10
F188.10000000000053
ssVcom.eg.android.AlipayGphone
p703
(dp704
g10
F4.7000000000000002
ssVcom.youku.phone
p705
(dp706
g10
F1.7000000000000002
ssg39
(dp707
g10
F4239.6999999999252
ssVcom.zhihu.android
p708
(dp709
g10
F91.600000000000122
ssVcom.android.dialer
p710
(dp711
g10
F51.199999999999967
ssg45
(dp712
g10
F2.6000000000000001
ssg47
(dp713
g10
F1.3
ssVcom.android.packageinstaller
p714
(dp715
g10
F3.1000000000000001
ssg53
(dp716
g10
F1.3999999999999999
ssVcom.taobao.taobao
p717
(dp718
g10
F1.3
ssVcom.wumii.android.mimi
p719
(dp720
g10
F2.7000000000000002
ssg559
(dp721
g10
F5.2000000000000002
ssg584
(dp722
g10
F11.4
ssVcom.tencent.mm
p723
(dp724
g10
F2380.6000000000881
ssg73
(dp725
g10
F4.4000000000000004
ssg75
(dp726
g10
F15.700000000000005
ssVcom.renren.mobile.android
p727
(dp728
g10
F16.100000000000005
ssVcom.kugou.android
p729
(dp730
g10
F61.400000000000013
ssg85
(dp731
g10
F10.300000000000002
ssg21
(dp732
g10
F0.90000000000000002
ssVcom.meizu.safe
p733
(dp734
g10
F5.5999999999999996
ssg91
(dp735
g10
F0.90000000000000002
ssVcom.baidu.input
p736
(dp737
g10
F0.69999999999999996
ssg97
(dp738
g10
F6.3000000000000007
ssVcom.android.alarmclock
p739
(dp740
g10
F8.5000000000000018
ssVcom.meizu.media.video
p741
(dp742
g10
F1.7999999999999998
ssVcom.meizu.notepaper
p743
(dp744
g10
F47.799999999999947
ssVcom.immomo.momo
p745
(dp746
g10
F10.200000000000001
ssVcom.zhihu.daily.android
p747
(dp748
g10
F3.9999999999999996
ssVcom.android.calendar
p749
(dp750
g10
F2.7999999999999998
ssVcom.android.settings
p751
(dp752
g10
F10.100000000000001
ssg115
(dp753
g10
F97.800000000000182
ssVcom.baidu.BaiduMap
p754
(dp755
g10
F3.3999999999999999
ssg577
(dp756
g10
F4.4000000000000004
ssVcom.qzone
p757
(dp758
g10
F66.899999999999991
ssVcom.dotamax.app
p759
(dp760
g10
F41.199999999999967
ssg125
(dp761
g10
F0.40000000000000002
ssVcom.meizu.flyme.weather
p762
(dp763
g10
F8.2000000000000011
sssg73
(dp764
Vcom.android.launcher3
p765
(dp766
g10
F11.299999999999999
ssVcom.tencent.mobileqq
p767
(dp768
g10
F4.2999999999999998
ssVcom.android.packageinstaller
p769
(dp770
g10
I1
ssVcom.comingx.athit
p771
(dp772
g10
F0.69999999999999996
ssVcom.android.mms
p773
(dp774
g10
F0.40000000000000002
ssVcom.android.settings
p775
(dp776
g10
I1
ssVcom.meizu.safe
p777
(dp778
g10
F0.40000000000000002
ssVcom.tencent.mm
p779
(dp780
g10
F1.8999999999999999
sssg75
(dp781
Vcom.android.launcher3
p782
(dp783
g10
F40.399999999999991
ssVcom.android.browser
p784
(dp785
g10
F0.69999999999999996
ssVcom.meizu.notepaper
p786
(dp787
g10
F3.3999999999999999
ssVcom.tencent.mm
p788
(dp789
g10
F13.300000000000002
ssVcom.android.packageinstaller
p790
(dp791
g10
I1
ssVcom.android.mms
p792
(dp793
g10
F0.40000000000000002
ssVcom.sina.weibo
p794
(dp795
g10
F1.1000000000000001
ssVcom.meizu.media.camera
p796
(dp797
g10
F0.90000000000000002
ssg279
(dp798
g10
F0.40000000000000002
ssVcom.hupu.games
p799
(dp800
g10
F0.40000000000000002
ssVcom.tencent.mobileqq
p801
(dp802
g10
F16.099999999999998
sssg77
(dp803
Vcom.android.launcher3
p804
(dp805
g10
I1
ssVim.yixin
p806
(dp807
g10
F0.90000000000000002
sssg79
(dp808
Vcom.android.launcher3
p809
(dp810
g10
F68.700000000000045
ssg349
(dp811
g10
F0.40000000000000002
ssVcom.android.dialer
p812
(dp813
g10
I1
ssVcom.zhihu.daily.android
p814
(dp815
g10
F0.90000000000000002
ssVcom.zhihu.android
p816
(dp817
g10
F6.9000000000000012
ssVcom.sina.weibo
p818
(dp819
g10
F18.100000000000001
ssVim.yixin
p820
(dp821
g10
F2.7000000000000002
ssVcom.android.mms
p822
(dp823
g10
F0.40000000000000002
ssVcom.qzone
p824
(dp825
g10
F3.1000000000000001
ssg399
(dp826
g10
F0.90000000000000002
ssVcom.tencent.android.qqdownloader
p827
(dp828
g10
F0.69999999999999996
ssVcom.hupu.games
p829
(dp830
g10
F1.5
ssVcom.android.alarmclock
p831
(dp832
g10
F0.69999999999999996
ssVcom.tencent.mm
p833
(dp834
g10
F14.300000000000004
ssg374
(dp835
g10
F12.800000000000002
sssg81
(dp836
Vcom.android.browser
p837
(dp838
g10
F66.499999999999972
ssg11
(dp839
g10
F0.90000000000000002
ssg686
(dp840
g10
F1.5
ssVim.yixin
p841
(dp842
g10
F81.600000000000051
ssVcom.meizu.media.camera
p843
(dp844
g10
F6.4000000000000004
ssVcom.tencent.qqpim
p845
(dp846
g10
F0.40000000000000002
ssg27
(dp847
g10
F5.5999999999999996
ssVcom.meizu.filemanager
p848
(dp849
g10
F3.1999999999999997
ssg361
(dp850
g10
F42.19999999999996
ssg577
(dp851
g10
F4.7999999999999998
ssg33
(dp852
g10
F375.09999999999775
ssVcom.eg.android.AlipayGphone
p853
(dp854
g10
F9.1000000000000014
ssVcom.android.launcher3
p855
(dp856
g10
F3872.8999999999551
ssg443
(dp857
g10
F136.20000000000033
ssVcom.android.dialer
p858
(dp859
g10
F49.599999999999973
ssVcn.wps.moffice_eng
p860
(dp861
g10
F3.7000000000000002
ssg49
(dp862
g10
F4
ssVcom.sankuai.meituan
p863
(dp864
g10
F0.90000000000000002
ssg53
(dp865
g10
F3
ssg55
(dp866
g10
F0.69999999999999996
ssg719
(dp867
g10
F7.6000000000000014
ssVcom.android.phone
p868
(dp869
g10
F3.4000000000000004
ssVcom.meizu.media.gallery
p870
(dp871
g10
F12.900000000000004
ssg69
(dp872
g10
F0.69999999999999996
ssg453
(dp873
g10
F1949.7000000000414
ssg460
(dp874
g10
F3.3999999999999999
ssg75
(dp875
g10
F16.5
ssg79
(dp876
g10
F24.699999999999989
ssVcom.kugou.android
p877
(dp878
g10
F24.999999999999996
ssVcom.baidu.input
p879
(dp880
g10
F7.5
ssg21
(dp881
g10
F0.40000000000000002
ssg376
(dp882
g10
F4.9000000000000004
ssg93
(dp883
g10
F1.8
ssVcom.baoxue.player
p884
(dp885
g10
F0.40000000000000002
ssg97
(dp886
g10
F2.2000000000000002
ssg386
(dp887
g10
F13.400000000000002
ssg103
(dp888
g10
F1.6000000000000001
ssVcom.meizu.notepaper
p889
(dp890
g10
F61.19999999999996
ssVcom.immomo.momo
p891
(dp892
g10
F16.300000000000001
ssg107
(dp893
g10
F17.400000000000002
ssg111
(dp894
g10
F0.90000000000000002
ssVcom.android.settings
p895
(dp896
g10
F12.700000000000001
ssg115
(dp897
g10
F122.60000000000022
ssg117
(dp898
g10
F1.3
ssg31
(dp899
g10
F1.3
ssg121
(dp900
g10
F75.600000000000009
ssVcom.dotamax.app
p901
(dp902
g10
F86.900000000000077
ssg125
(dp903
g10
F0.90000000000000002
ssVcom.meizu.flyme.weather
p904
(dp905
g10
F12.400000000000004
sssg83
(dp906
Vcom.android.launcher3
p907
(dp908
g10
F137.10000000000011
ssVcom.zhihu.android
p909
(dp910
g10
F0.40000000000000002
ssVcom.meizu.notepaper
p911
(dp912
g10
F0.40000000000000002
ssVim.yixin
p913
(dp914
g10
F4.5
ssVcom.sina.weibo
p915
(dp916
g10
F3.6000000000000005
ssVcom.tencent.mm
p917
(dp918
g10
F59.89999999999997
ssVcom.android.mms
p919
(dp920
g10
F2.1000000000000001
ssVcom.baidu.BaiduMap
p921
(dp922
g10
F0.90000000000000002
ssVcom.qzone
p923
(dp924
g10
F1.7000000000000002
ssVcom.dotamax.app
p925
(dp926
g10
F0.80000000000000004
ssVcom.android.settings
p927
(dp928
g10
F0.69999999999999996
ssVcom.tencent.mobileqq
p929
(dp930
g10
F48.199999999999989
ssVcom.eg.android.AlipayGphone
p931
(dp932
g10
F0.40000000000000002
ssg762
(dp933
g10
F0.90000000000000002
sssg85
(dp934
g676
(dp935
g10
F23.099999999999991
ssVcom.meizu.media.video
p936
(dp937
g10
F8.6999999999999993
ssg37
(dp938
g10
F4.0999999999999996
ssVcom.tencent.mobileqq
p939
(dp940
g10
F7.7000000000000011
ssVcom.android.packageinstaller
p941
(dp942
g10
F0.69999999999999996
ssg247
(dp943
g10
F1.3
ssg431
(dp944
g10
I1
ssVcom.qzone
p945
(dp946
g10
F2
ssVcom.dotamax.app
p947
(dp948
g10
F3
ssVcom.tencent.android.qqdownloader
p949
(dp950
g10
F1.7000000000000002
ssVcom.android.settings
p951
(dp952
g10
I1
ssVcom.baoxue.player
p953
(dp954
g10
F2.7000000000000002
ssVcom.tencent.mm
p955
(dp956
g10
F8.5
sssg87
(dp957
Vcom.android.launcher3
p958
(dp959
g10
F5.6000000000000005
ssVcom.zhihu.android
p960
(dp961
g10
F1.6000000000000001
ssVcom.meizu.notepaper
p962
(dp963
g10
F1.7
ssVcom.android.browser
p964
(dp965
g10
I1
ssVcom.tencent.mobileqq
p966
(dp967
g10
F0.69999999999999996
ssVim.yixin
p968
(dp969
g10
I1
ssVcom.taobao.taobao
p970
(dp971
g10
F0.69999999999999996
ssVcom.tencent.mm
p972
(dp973
g10
F4.8000000000000007
sssg89
(dp974
g265
(dp975
g10
F32.999999999999986
ssVcom.android.mms
p976
(dp977
g10
F1.3
ssVim.yixin
p978
(dp979
g10
F3.6999999999999997
ssg23
(dp980
g10
F17.5
ssVcom.meizu.blockservice
p981
(dp982
g10
F0.69999999999999996
ssVcom.tencent.mm
p983
(dp984
g10
F18.200000000000003
ssVcom.tencent.mobileqq
p985
(dp986
g10
F13.500000000000002
sssg91
(dp987
sg93
(dp988
Vcom.android.launcher3
p989
(dp990
g10
F3
ssVim.yixin
p991
(dp992
g10
F0.40000000000000002
ssVcom.tencent.mm
p993
(dp994
g10
I1
ssVcom.dotamax.app
p995
(dp996
g10
F0.90000000000000002
sssg95
(dp997
Vcom.android.launcher3
p998
(dp999
g10
F1.8
ssg941
(dp1000
g10
F0.40000000000000002
ssVcom.meizu.filemanager
p1001
(dp1002
g10
I2
ssVcom.dotamax.app
p1003
(dp1004
g10
F0.69999999999999996
ssVcom.tencent.android.qqdownloader
p1005
(dp1006
g10
F0.69999999999999996
ssVcom.tencent.mm
p1007
(dp1008
g10
F0.40000000000000002
sssg97
(dp1009
Vcom.android.launcher3
p1010
(dp1011
g10
F16.599999999999998
ssVcom.meizu.notepaper
p1012
(dp1013
g10
F0.90000000000000002
ssVcom.android.dialer
p1014
(dp1015
g10
F1.7
ssVcom.tencent.mobileqq
p1016
(dp1017
g10
F4.7999999999999998
ssVim.yixin
p1018
(dp1019
g10
F0.90000000000000002
ssVcom.android.mms
p1020
(dp1021
g10
F1.8
ssVcom.meizu.blockservice
p1022
(dp1023
g10
F0.69999999999999996
ssVcom.tencent.mm
p1024
(dp1025
g10
F6
sssg99
(dp1026
Vcom.android.launcher3
p1027
(dp1028
g10
F1.7
ssVcom.android.browser
p1029
(dp1030
g10
F0.40000000000000002
ssg140
(dp1031
g10
F0.90000000000000002
sssg101
(dp1032
Vcom.android.launcher3
p1033
(dp1034
g10
F26.599999999999987
ssVcom.android.browser
p1035
(dp1036
g10
I1
ssVcom.zhihu.daily.android
p1037
(dp1038
g10
F0.69999999999999996
ssVcom.zhihu.android
p1039
(dp1040
g10
F1.7
ssVcom.tencent.mm
p1041
(dp1042
g10
F9.9000000000000004
ssVcom.sina.weibo
p1043
(dp1044
g10
I3
ssVim.yixin
p1045
(dp1046
g10
F1.6000000000000001
ssVcom.android.mms
p1047
(dp1048
g10
F2.7999999999999998
ssg330
(dp1049
g10
F1.6000000000000001
ssVcom.renren.mobile.android
p1050
(dp1051
g10
F1.3999999999999999
ssVcom.hupu.games
p1052
(dp1053
g10
I1
ssVcom.tencent.mobileqq
p1054
(dp1055
g10
F4.2000000000000002
ssVcom.meizu.flyme.weather
p1056
(dp1057
g10
I9
sssg103
(dp1058
Vcom.android.launcher3
p1059
(dp1060
g10
F5.4000000000000004
ssg37
(dp1061
g10
F2.5
ssg939
(dp1062
g10
F1.3
ssg848
(dp1063
g10
F11.399999999999999
ssg945
(dp1064
g10
F0.69999999999999996
ssVcom.tencent.mm
p1065
(dp1066
g10
F0.69999999999999996
sssg105
(dp1067
Vcom.android.launcher3
p1068
(dp1069
g10
F137.40000000000009
ssVcom.android.browser
p1070
(dp1071
g10
F1.3
ssVcom.android.dialer
p1072
(dp1073
g10
F0.90000000000000002
ssVcom.zhihu.android
p1074
(dp1075
g10
F0.40000000000000002
ssVcom.tencent.mm
p1076
(dp1077
g10
F52.799999999999947
ssVcom.sina.weibo
p1078
(dp1079
g10
F2.2000000000000002
ssVcom.comingx.athit
p1080
(dp1081
g10
F2.6000000000000001
ssVcom.android.mms
p1082
(dp1083
g10
F4.5
ssg736
(dp1084
g10
I1
ssVcom.qzone
p1085
(dp1086
g10
F0.40000000000000002
ssVcom.dotamax.app
p1087
(dp1088
g10
F0.90000000000000002
ssVim.yixin
p1089
(dp1090
g10
F1.3999999999999999
ssVcom.tencent.mobileqq
p1091
(dp1092
g10
F44.39999999999997
sssg107
(dp1093
Vcom.android.launcher3
p1094
(dp1095
g10
F30.299999999999997
ssVcom.zhihu.android
p1096
(dp1097
g10
F3.2999999999999998
ssg105
(dp1098
g10
F0.90000000000000002
ssVone.hh.oneclient
p1099
(dp1100
g10
F2.2000000000000002
ssVcom.tencent.mobileqq
p1101
(dp1102
g10
F2.6000000000000001
ssVcom.sina.weibo
p1103
(dp1104
g10
F1.7
ssVim.yixin
p1105
(dp1106
g10
I1
ssg57
(dp1107
g10
F2.2000000000000002
ssVcom.tencent.mm
p1108
(dp1109
g10
F12.200000000000001
ssg521
(dp1110
g10
F1.3999999999999999
sssg109
(dp1111
Vcom.android.launcher3
p1112
(dp1113
g10
F33.699999999999989
ssVcom.zhihu.android
p1114
(dp1115
g10
F1.3
ssVcom.sina.weibo
p1116
(dp1117
g10
F0.90000000000000002
ssVim.yixin
p1118
(dp1119
g10
F0.90000000000000002
ssVcom.baidu.BaiduMap
p1120
(dp1121
g10
F0.90000000000000002
ssVcom.tencent.mm
p1122
(dp1123
g10
F15.200000000000003
ssVcom.tencent.mobileqq
p1124
(dp1125
g10
F12.100000000000001
sssg111
(dp1126
Vcom.android.launcher3
p1127
(dp1128
g10
F10
ssVcom.tencent.mobileqq
p1129
(dp1130
g10
F3.6999999999999997
ssVcom.android.dialer
p1131
(dp1132
g10
F0.90000000000000002
ssVcom.tencent.mm
p1133
(dp1134
g10
F4.5
sssg113
(dp1135
Vcom.android.launcher3
p1136
(dp1137
g10
F44.900000000000006
ssg1096
(dp1138
g10
F0.40000000000000002
ssVme.quqi
p1139
(dp1140
g10
I1
ssVcom.zhihu.daily.android
p1141
(dp1142
g10
F1.3999999999999999
ssg15
(dp1143
g10
I1
ssVcom.tencent.mobileqq
p1144
(dp1145
g10
F6.7000000000000011
ssVcom.sina.weibo
p1146
(dp1147
g10
I2
ssVim.yixin
p1148
(dp1149
g10
F6.4000000000000004
ssVcom.android.mms
p1150
(dp1151
g10
F1.6000000000000001
ssVcom.meizu.filemanager
p1152
(dp1153
g10
F3
ssVcom.wumii.android.mimi
p1154
(dp1155
g10
F0.69999999999999996
ssVcom.meizu.media.camera
p1156
(dp1157
g10
F0.90000000000000002
ssg59
(dp1158
g10
F1.3
ssg953
(dp1159
g10
F0.90000000000000002
ssg77
(dp1160
g10
F0.90000000000000002
ssVcom.qzone
p1161
(dp1162
g10
F2.7999999999999998
ssVcom.tencent.mm
p1163
(dp1164
g10
F16.200000000000003
ssVcom.eg.android.AlipayGphone
p1165
(dp1166
g10
F0.40000000000000002
ssVcom.android.alarmclock
p1167
(dp1168
g10
F0.90000000000000002
sssg115
(dp1169
Vcom.android.launcher3
p1170
(dp1171
g10
F228.49999999999991
ssVcom.zhihu.android
p1172
(dp1173
g10
F0.69999999999999996
ssVcom.meizu.notepaper
p1174
(dp1175
g10
F4.2000000000000002
ssVcom.android.dialer
p1176
(dp1177
g10
F35.09999999999998
ssVcom.android.browser
p1178
(dp1179
g10
F2.6000000000000001
ssVcom.tencent.mobileqq
p1180
(dp1181
g10
F76.200000000000017
ssVcom.sina.weibo
p1182
(dp1183
g10
F8.3000000000000007
ssVim.yixin
p1184
(dp1185
g10
F8.9000000000000004
ssVcom.meizu.media.camera
p1186
(dp1187
g10
F0.40000000000000002
ssg155
(dp1188
g10
I3
ssVcom.qzone
p1189
(dp1190
g10
F2.2000000000000002
ssVcom.dotamax.app
p1191
(dp1192
g10
F2.5999999999999996
ssg61
(dp1193
g10
F0.69999999999999996
ssVcom.renren.mobile.android
p1194
(dp1195
g10
F0.40000000000000002
ssVcom.meizu.safe
p1196
(dp1197
g10
F2.2000000000000002
ssVcom.hupu.games
p1198
(dp1199
g10
I1
ssVcom.android.email
p1200
(dp1201
g10
F2.6000000000000001
ssVcom.tencent.mm
p1202
(dp1203
g10
F120.60000000000019
ssg868
(dp1204
g10
F0.40000000000000002
ssg703
(dp1205
g10
F1.1000000000000001
sssg117
(dp1206
Vcom.android.launcher3
p1207
(dp1208
g10
F3.7000000000000002
ssVcom.android.browser
p1209
(dp1210
g10
F1.7
ssVcom.tencent.mm
p1211
(dp1212
g10
F1.7000000000000002
ssVcom.tencent.mobileqq
p1213
(dp1214
g10
I1
sssg119
(dp1215
Vcom.android.launcher3
p1216
(dp1217
g10
F12.100000000000001
ssVcom.tencent.mm
p1218
(dp1219
g10
F8.2000000000000011
ssVim.yixin
p1220
(dp1221
g10
F0.40000000000000002
ssVcom.android.mms
p1222
(dp1223
g10
F4.1000000000000005
ssVcom.tencent.mobileqq
p1224
(dp1225
g10
F4.0999999999999996
sssg121
(dp1226
Vcom.android.launcher3
p1227
(dp1228
g10
F117.50000000000016
ssVcom.zhihu.android
p1229
(dp1230
g10
F1.7000000000000002
ssVcom.meizu.notepaper
p1231
(dp1232
g10
F1.3
ssVcom.android.dialer
p1233
(dp1234
g10
F2.7999999999999998
ssVcom.kugou.android
p1235
(dp1236
g10
I1
ssg458
(dp1237
g10
F65.899999999999977
ssVcom.android.packageinstaller
p1238
(dp1239
g10
F1.3
ssg820
(dp1240
g10
F5.6000000000000005
ssVcom.android.mms
p1241
(dp1242
g10
F0.90000000000000002
ssVcom.meizu.filemanager
p1243
(dp1244
g10
F0.40000000000000002
ssVcom.dotamax.app
p1245
(dp1246
g10
F5.3999999999999995
ssVcom.tencent.android.qqdownloader
p1247
(dp1248
g10
F8.0999999999999996
ssVcom.renren.mobile.android
p1249
(dp1250
g10
F1.8
ssVcom.meizu.safe
p1251
(dp1252
g10
F0.90000000000000002
ssVcom.hupu.games
p1253
(dp1254
g10
F0.90000000000000002
ssVme.quqi
p1255
(dp1256
g10
F0.40000000000000002
ssVcom.sina.weibo
p1257
(dp1258
g10
F10.500000000000002
ssVcom.tencent.mobileqq
p1259
(dp1260
g10
F53.499999999999993
sssg123
(dp1261
g991
(dp1262
g10
F6.4000000000000012
ssg431
(dp1263
g10
F0.40000000000000002
ssg845
(dp1264
g10
F0.90000000000000002
ssVcom.tencent.android.qqdownloader
p1265
(dp1266
g10
F1.7
ssVcom.hupu.games
p1267
(dp1268
g10
F1.3
ssVcom.sina.weibo
p1269
(dp1270
g10
F8.6000000000000014
ssVcom.android.launcher3
p1271
(dp1272
g10
F186.30000000000007
ssVcom.zhihu.android
p1273
(dp1274
g10
F8.3000000000000007
ssVcom.android.dialer
p1275
(dp1276
g10
I3
ssg860
(dp1277
g10
F0.90000000000000002
ssVcom.android.packageinstaller
p1278
(dp1279
g10
F0.90000000000000002
ssVcom.tencent.mobileqq
p1280
(dp1281
g10
F49.399999999999984
ssVcom.meizu.safe
p1282
(dp1283
g10
I1
ssVcom.tencent.mm
p1284
(dp1285
g10
F73.899999999999977
ssVme.quqi
p1286
(dp1287
g10
F0.90000000000000002
ssVcom.renren.mobile.android
p1288
(dp1289
g10
F0.40000000000000002
ssVcom.kugou.android
p1290
(dp1291
g10
F0.90000000000000002
ssVcom.meizu.filemanager
p1292
(dp1293
g10
F2.4000000000000004
ssg884
(dp1294
g10
F0.69999999999999996
ssVcom.android.alarmclock
p1295
(dp1296
g10
F1.8999999999999999
ssVcom.meizu.notepaper
p1297
(dp1298
g10
F0.90000000000000002
ssVcom.zhihu.daily.android
p1299
(dp1300
g10
F2.2000000000000002
ssVcom.android.settings
p1301
(dp1302
g10
F1.7
ssVcom.android.mms
p1303
(dp1304
g10
F2.6000000000000001
ssVcom.qzone
p1305
(dp1306
g10
F4.2999999999999998
sssg125
(dp1307
Vcom.android.launcher3
p1308
(dp1309
g10
F1.7
ssVcom.meizu.media.gallery
p1310
(dp1311
g10
F0.90000000000000002
ssVcom.tencent.mm
p1312
(dp1313
g10
F0.40000000000000002
sssg127
(dp1314
Vcom.android.launcher3
p1315
(dp1316
g10
F45.100000000000009
ssVim.yixin
p1317
(dp1318
g10
F5.8000000000000007
ssVcom.sina.weibo
p1319
(dp1320
g10
F2.1000000000000001
ssg1041
(dp1321
g10
F14.000000000000005
ssVcom.qzone
p1322
(dp1323
g10
F4
ssVcom.renren.mobile.android
p1324
(dp1325
g10
F2.2000000000000002
ssVcom.tencent.mobileqq
p1326
(dp1327
g10
F4.7000000000000002
ssg101
(dp1328
g10
I6
ssssS'edge'
p1329
g132
sS'pred'
p1330
(dp1331
g8
(dp1332
Vcom.android.launcher3
p1333
g425
sVcom.zhihu.android
p1334
g494
sVcom.meizu.notepaper
p1335
g1071
sVcom.android.dialer
p1336
g542
sg771
g785
sg1076
g838
sVim.yixin
p1337
g201
sVcom.android.mms
p1338
g1179
sg152
g965
sg55
g627
sg163
g1210
sVcom.renren.mobile.android
p1339
g811
sVcom.hupu.games
p1340
g325
sg165
g1036
sVcom.sina.weibo
p1341
g350
sg99
g1030
sVcom.tencent.mobileqq
p1342
g691
ssg11
(dp1343
Vcom.android.launcher3
p1344
g426
sVcom.tencent.mobileqq
p1345
g689
sVcom.meizu.safe
p1346
g670
sVcom.tencent.mm
p1347
g839
ssg13
(dp1348
Vcom.android.launcher3
p1349
g428
sVcom.tencent.mobileqq
p1350
g687
sVcom.sina.weibo
p1351
g352
sVcom.tencent.mm
p1352
g840
sVcom.zhihu.daily.android
p1353
g1100
ssg15
(dp1354
Vcom.android.launcher3
p1355
g429
sVcom.android.settings
p1356
g1143
sVcom.tencent.mobileqq
p1357
g692
ssg17
(dp1358
Vcom.android.browser
p1359
g149
sg15
g198
sg431
g248
sg204
g329
sVcom.sina.weibo
p1360
g354
sVcom.android.launcher3
p1361
g430
sVcom.zhihu.android
p1362
g496
sVcom.android.dialer
p1363
g544
sVcom.tencent.mobileqq
p1364
g694
sVcom.meizu.media.gallery
p1365
g979
sVcom.tencent.mm
p1366
g842
sg1324
g821
sVcom.meizu.media.camera
p1367
g278
sg87
g969
sVcom.meizu.filemanager
p1368
g943
sVcom.kingsoft
p1369
g992
sg97
g1019
sVcom.android.alarmclock
p1370
g1046
sVcom.kugou.android
p1371
g914
sg77
g807
sVcom.meizu.notepaper
p1372
g1090
sVcom.immomo.momo
p1373
g1119
sVcom.zhihu.daily.android
p1374
g1106
sVcom.android.settings
p1375
g1149
sVcom.android.mms
p1376
g1185
sVcom.meizu.blockservice
p1377
g1221
sg824
g1240
sg995
g1262
sVcom.meizu.flyme.weather
p1378
g1318
ssg19
(dp1379
Vcom.android.launcher3
p1380
g432
sVcom.tencent.mobileqq
p1381
g695
sVcom.dotamax.app
p1382
g1263
sg1368
g944
ssg21
(dp1383
Vcom.android.launcher3
p1384
g433
sVcom.tencent.mobileqq
p1385
g732
sVcom.tencent.mm
p1386
g881
ssg23
(dp1387
Vcom.android.launcher3
p1388
g434
sVcom.android.browser
p1389
g158
sVcom.zhihu.android
p1390
g516
sVcom.tencent.mobileqq
p1391
g696
sVcom.sina.weibo
p1392
g356
sVcom.comingx.athit
p1393
g797
sVcom.android.mms
p1394
g1187
sg688
g176
sVcom.android.settings
p1395
g1157
sg89
g980
sVcom.hupu.games
p1396
g331
sVcom.tencent.mm
p1397
g844
sg340
g1049
ssg25
(dp1398
g288
g435
sg290
g358
sVcom.tencent.mm
p1399
g846
sg294
g698
sVcom.dotamax.app
p1400
g1264
ssg27
(dp1401
Vcom.android.launcher3
p1402
g436
sVcom.zhihu.android
p1403
g498
sVcom.sina.weibo
p1404
g360
sg1278
g603
sVcom.tencent.mm
p1405
g847
sVcom.meizu.filemanager
p1406
g950
sVcom.qzone
p1407
g1248
sg123
g1266
sVcom.renren.mobile.android
p1408
g828
sg884
g1006
sg311
g339
sVcom.tencent.mobileqq
p1409
g699
ssg29
(dp1410
Vcom.android.launcher3
p1411
g438
sVcom.zhihu.android
p1412
g500
sg1337
g205
sVcom.comingx.athit
p1413
g800
sVcom.qzone
p1414
g1254
sVcom.renren.mobile.android
p1415
g830
sVcom.tencent.mm
p1416
g850
sVcom.android.mms
p1417
g1199
sg334
g546
sVcom.dotamax.app
p1418
g1268
sVcom.tencent.android.qqdownloader
p1419
g312
sg340
g1053
sVcom.sina.weibo
p1420
g362
sVcom.tencent.mobileqq
p1421
g701
ssg31
(dp1422
Vcom.android.launcher3
p1423
g439
sVcom.tencent.mm
p1424
g899
ssg33
(dp1425
g686
g185
sVcom.android.browser
p1426
g147
sVim.yixin
p1427
g207
sg330
g276
sg25
g291
sVcom.tencent.android.qqdownloader
p1428
g305
sVcom.hupu.games
p1429
g343
sg363
g406
sVcom.android.launcher3
p1430
g440
sVcom.zhihu.android
p1431
g502
sVcom.android.dialer
p1432
g548
sg1238
g598
sVcom.wumii.android.mimi
p1433
g641
sVcom.android.phone
p1434
g657
sg376
g666
sg69
g684
sg453
g702
sVcom.comingx.athit
p1435
g795
sg727
g819
sg723
g852
sVcom.kugou.android
p1436
g916
sVcom.android.alarmclock
p1437
g1044
sVcom.meizu.notepaper
p1438
g1079
sVcom.immomo.momo
p1439
g1117
sVcom.zhihu.daily.android
p1440
g1104
sg393
g1147
sVcom.android.mms
p1441
g1183
sVcom.qzone
p1442
g1258
sg901
g1270
sVcom.meizu.flyme.weather
p1443
g1320
ssg35
(dp1444
g1411
g441
sVcom.zhihu.android
p1445
g504
sVcom.android.dialer
p1446
g550
sVcom.kugou.android
p1447
g932
sVcom.sina.weibo
p1448
g364
sVim.yixin
p1449
g209
sVcom.android.mms
p1450
g1205
sg61
g652
sVcom.android.settings
p1451
g1166
sVcom.sankuai.meituan
p1452
g615
sg437
g344
sVcom.tencent.mm
p1453
g854
sVcom.tencent.mobileqq
p1454
g704
ssg37
(dp1455
Vcom.android.launcher3
p1456
g442
sg103
g1061
sVcom.tencent.mobileqq
p1457
g706
sg848
g938
ssg39
(dp1458
g8
g135
sg688
g174
sg13
g183
sg15
g194
sg1427
g211
sg19
g244
sg21
g259
sVcom.meizu.media.camera
p1459
g266
sg25
g289
sg359
g298
sg29
g318
sg33
g366
sg35
g404
sg37
g417
sg41
g506
sg43
g552
sg860
g587
sg47
g594
sg371
g596
sg51
g609
sVcom.jingdong.app.mall
p1460
g618
sg55
g625
sVcom.wumii.android.mimi
p1461
g633
sg71
g707
sVcom.android.phone
p1462
g655
sg65
g664
sg67
g677
sg69
g682
sg81
g856
sg73
g766
sg75
g783
sg61
g649
sg77
g805
sVcom.renren.mobile.android
p1463
g810
sg59
g646
sg83
g908
sg678
g935
sg879
g959
sVcom.meizu.media.gallery
p1464
g975
sg93
g990
sg953
g999
sg97
g1011
sg99
g1028
sVcom.android.alarmclock
p1465
g1034
sg103
g1060
sg889
g1069
sg745
g1113
sg107
g1095
sg111
g1128
sg113
g1137
sg236
g1171
sg163
g1208
sg119
g1217
sg121
g1228
sg399
g1272
sg125
g1309
sg904
g1316
ssg41
(dp1466
Vcom.android.launcher3
p1467
g444
sVcom.android.browser
p1468
g137
sVcom.meizu.notepaper
p1469
g1075
sVcom.android.dialer
p1470
g554
sVcom.immomo.momo
p1471
g1115
sg1141
g1097
sVcom.tencent.mm
p1472
g857
sg1288
g817
sg495
g213
sVcom.android.mms
p1473
g1173
sg879
g961
sVcom.wumii.android.mimi
p1474
g635
sg824
g1230
sg330
g268
sVcom.dotamax.app
p1475
g1274
sg895
g1138
sVcom.kugou.android
p1476
g910
sg29
g320
sg165
g1040
sVcom.sina.weibo
p1477
g368
sVcom.tencent.mobileqq
p1478
g709
ssg43
(dp1479
Vcom.android.launcher3
p1480
g445
sVcom.android.browser
p1481
g141
sVcom.meizu.notepaper
p1482
g1073
sVcom.zhihu.android
p1483
g508
sVcom.android.calendar
p1484
g1132
sVcom.sina.weibo
p1485
g370
sVcom.renren.mobile.android
p1486
g813
sg575
g1177
sVcom.qzone
p1487
g1234
sVcom.dotamax.app
p1488
g1276
sg559
g659
sVcom.hupu.games
p1489
g335
sg567
g1015
sVcom.tencent.mm
p1490
g859
sg99
g1031
sVcom.tencent.mobileqq
p1491
g711
ssg45
(dp1492
Vcom.android.launcher3
p1493
g446
sVcom.tencent.mm
p1494
g861
sVcom.tencent.mobileqq
p1495
g712
sVcom.dotamax.app
p1496
g1277
ssg47
(dp1497
Vcom.android.launcher3
p1498
g447
sg1089
g214
sVcom.tencent.mobileqq
p1499
g713
ssg49
(dp1500
g1402
g448
sg1403
g510
sg1405
g862
sg1080
g791
sVcom.meizu.filemanager
p1501
g942
sVcom.qzone
p1502
g1239
sg123
g1279
sg27
g301
sg884
g1000
sg73
g770
sg1404
g372
sVcom.tencent.mobileqq
p1503
g715
ssg51
(dp1504
Vcom.android.launcher3
p1505
g449
sVcom.android.dialer
p1506
g555
sVcom.tencent.mm
p1507
g864
sg614
g408
ssg53
(dp1508
Vcom.android.launcher3
p1509
g450
sVcom.tencent.mobileqq
p1510
g716
sVim.yixin
p1511
g216
sVcom.tencent.mm
p1512
g865
ssg55
(dp1513
Vcom.android.launcher3
p1514
g451
sVcom.android.browser
p1515
g154
sVcom.tencent.mm
p1516
g866
sg152
g971
sVcom.tencent.mobileqq
p1517
g718
ssg57
(dp1518
Vcom.android.launcher3
p1519
g452
sVcom.zhihu.daily.android
p1520
g1107
sVcom.tencent.mm
p1521
g867
sVcom.sina.weibo
p1522
g373
sVcom.android.settings
p1523
g1155
sVcom.tencent.mobileqq
p1524
g720
ssg59
(dp1525
g193
g466
sg195
g1158
sg197
g219
ssg61
(dp1526
Vcom.android.launcher3
p1527
g463
sg1446
g558
sVcom.android.mms
p1528
g1193
ssg63
(dp1529
Vcom.android.launcher3
p1530
g455
sVcom.android.mms
p1531
g1204
sVcom.tencent.mm
p1532
g869
sVcom.android.dialer
p1533
g560
sVcom.tencent.mobileqq
p1534
g721
ssg65
(dp1535
Vcom.android.launcher3
p1536
g471
sVcom.android.dialer
p1537
g562
sVcom.tencent.mm
p1538
g882
sg1393
g798
sVcom.android.mms
p1539
g1197
sVcom.qzone
p1540
g1252
sg796
g280
sVcom.dotamax.app
p1541
g1283
sVme.quqi
p1542
g778
sVcom.sina.weibo
p1543
g377
sVcom.tencent.mobileqq
p1544
g734
ssg67
(dp1545
sg69
(dp1546
Vcom.android.launcher3
p1547
g457
sVcom.sina.weibo
p1548
g378
sVcom.tencent.mm
p1549
g872
ssg71
(dp1550
Vone.hh.oneclient
p1551
g191
sg11
g180
sVcom.android.browser
p1552
g162
sVim.yixin
p1553
g218
sg431
g246
sg25
g295
sVcom.tencent.android.qqdownloader
p1554
g314
sVcom.meizu.filemanager
p1555
g940
sVcom.hupu.games
p1556
g346
sVcom.sina.weibo
p1557
g375
sVcom.eg.android.AlipayGphone
p1558
g414
sVcom.android.launcher3
p1559
g454
sVcom.zhihu.android
p1560
g529
sVcom.android.dialer
p1561
g557
sg45
g591
sVcom.android.packageinstaller
p1562
g605
sg1452
g611
sVcom.jingdong.app.mall
p1563
g620
sVcom.wumii.android.mimi
p1564
g643
sg1463
g835
sg65
g674
sVcom.tencent.mm
p1565
g873
sg73
g768
sVcom.comingx.athit
p1566
g802
sg843
g274
sVcom.kugou.android
p1567
g930
sVcom.baidu.input
p1568
g967
sg21
g261
sg584
g986
sVcom.android.email
p1569
g1017
sVcom.android.alarmclock
p1570
g1055
sVcom.meizu.media.video
p1571
g1062
sVcom.meizu.notepaper
p1572
g1092
sg745
g1125
sVcom.zhihu.daily.android
p1573
g1102
sVcom.android.calendar
p1574
g1130
sVcom.android.settings
p1575
g1145
sVcom.android.mms
p1576
g1181
sVcom.baidu.BaiduMap
p1577
g1214
sg577
g1225
sVcom.qzone
p1578
g1260
sVcom.dotamax.app
p1579
g1281
sVcom.meizu.flyme.weather
p1580
g1327
ssg73
(dp1581
Vcom.android.launcher3
p1582
g461
sVcom.tencent.mobileqq
p1583
g725
sVcom.android.packageinstaller
p1584
g606
sVcom.qzone
p1585
g1256
sVcom.dotamax.app
p1586
g1287
sVcom.tencent.android.qqdownloader
p1587
g315
sg775
g1140
sVcom.tencent.mm
p1588
g874
ssg75
(dp1589
Vcom.android.launcher3
p1590
g462
sVcom.android.browser
p1591
g143
sVcom.meizu.notepaper
p1592
g1081
sVim.yixin
p1593
g203
sVcom.sina.weibo
p1594
g382
sg790
g600
sVcom.tencent.mm
p1595
g875
sg355
g272
sVcom.hupu.games
p1596
g321
sVcom.tencent.mobileqq
p1597
g726
sVme.quqi
p1598
g772
ssg77
(dp1599
Vcom.android.launcher3
p1600
g464
sVcom.android.settings
p1601
g1160
ssg79
(dp1602
Vcom.android.launcher3
p1603
g465
sVcom.zhihu.android
p1604
g512
sg1437
g1051
sVcom.android.dialer
p1605
g566
sg33
g383
sVim.yixin
p1606
g225
sVcom.android.mms
p1607
g1195
sVcom.qzone
p1608
g1250
sg667
g1289
sg170
g1325
sg379
g876
sVcom.tencent.mobileqq
p1609
g728
ssg81
(dp1610
g8
g168
sg669
g178
sg13
g189
sg1427
g223
sVcom.mxtech.videoplayer.ad
p1611
g256
sVcom.meizu.media.camera
p1612
g286
sg357
g293
sg1554
g300
sVcom.meizu.filemanager
p1613
g956
sg29
g327
sg33
g380
sg363
g412
sVcom.youku.phone
p1614
g421
sg855
g459
sg41
g514
sg43
g564
sg860
g589
sg1562
g597
sg51
g613
sg1460
g622
sg55
g629
sg1433
g637
sg61
g651
sg1462
g661
sg470
g672
sg453
g724
sg460
g780
sg75
g789
sVcom.renren.mobile.android
p1615
g834
sg729
g918
sg879
g973
sg21
g263
sg283
g984
sg93
g994
sg953
g1008
sg97
g1025
sg1465
g1042
sVcom.meizu.media.video
p1616
g1066
sg889
g1077
sg891
g1123
sg107
g1109
sg111
g1134
sg113
g1164
sg1047
g1203
sg1577
g1212
sVcom.meizu.blockservice
p1617
g1219
sg121
g1237
sg399
g1285
sg125
g1313
sVcom.meizu.flyme.weather
p1618
g1321
ssg83
(dp1619
Vcom.android.launcher3
p1620
g467
sVcom.android.browser
p1621
g145
sVcom.zhihu.android
p1622
g518
sVcom.tencent.mm
p1623
g878
sVcom.sina.weibo
p1624
g385
sg913
g227
sVcom.qzone
p1625
g1236
sVcom.dotamax.app
p1626
g1291
sVcom.tencent.mobileqq
p1627
g730
ssg85
(dp1628
g39
g468
sg103
g1063
sg37
g423
sg71
g731
sg1005
g303
sg19
g250
sVcom.qzone
p1629
g1244
sg1003
g1293
sg953
g1002
sVcom.android.settings
p1630
g1153
sg67
g679
sVcom.tencent.mm
p1631
g849
sg941
g601
ssg87
(dp1632
Vcom.android.launcher3
p1633
g469
sVcom.android.browser
p1634
g153
sVcom.meizu.notepaper
p1635
g1084
sVcom.zhihu.android
p1636
g520
sVcom.tencent.mobileqq
p1637
g737
sVcom.taobao.taobao
p1638
g630
sVcom.tencent.mm
p1639
g880
ssg89
(dp1640
g1388
g456
sg45
g585
sg1495
g722
sg978
g221
sVcom.meizu.media.camera
p1641
g284
sg125
g1311
sVcom.tencent.mm
p1642
g871
ssg91
(dp1643
Vcom.android.launcher3
p1644
g472
sVcom.tencent.mobileqq
p1645
g735
ssg93
(dp1646
Vcom.android.launcher3
p1647
g473
sVcom.tencent.mm
p1648
g883
ssg95
(dp1649
Vcom.android.launcher3
p1650
g474
sg951
g1159
sVcom.android.packageinstaller
p1651
g604
sg1152
g954
sVcom.dotamax.app
p1652
g1294
sg949
g310
sg1007
g885
ssg97
(dp1653
Vcom.android.launcher3
p1654
g475
sVcom.tencent.mobileqq
p1655
g738
sVcom.android.dialer
p1656
g568
sVcom.tencent.mm
p1657
g886
sg530
g1201
ssg99
(dp1658
Vcom.android.launcher3
p1659
g476
sg1481
g169
ssg101
(dp1660
Vcom.android.launcher3
p1661
g477
sVcom.zhihu.android
p1662
g522
sVim.yixin
p1663
g229
sVcom.zhihu.daily.android
p1664
g1110
sVcom.android.browser
p1665
g166
sVcom.android.settings
p1666
g1168
sVcom.tencent.mm
p1667
g887
sVone.hh.oneclient
p1668
g187
sVcom.android.dialer
p1669
g570
sVcom.dotamax.app
p1670
g1296
sVcom.tencent.mobileqq
p1671
g740
sVcom.renren.mobile.android
p1672
g832
sg1396
g341
sVcom.sina.weibo
p1673
g387
sVcom.meizu.flyme.weather
p1674
g1328
ssg103
(dp1675
Vcom.android.launcher3
p1676
g478
sVcom.tencent.mobileqq
p1677
g742
sg1631
g888
sg1243
g937
sVcom.youku.phone
p1678
g419
ssg105
(dp1679
Vcom.android.launcher3
p1680
g479
sVcom.zhihu.android
p1681
g524
sVcom.android.dialer
p1682
g572
sVcom.comingx.athit
p1683
g787
sg391
g1098
sVcom.android.browser
p1684
g139
sVcom.sina.weibo
p1685
g388
sVim.yixin
p1686
g231
sVcom.android.mms
p1687
g1175
sg736
g963
sVcom.qzone
p1688
g1232
sg355
g270
sVcom.dotamax.app
p1689
g1298
sVcom.kugou.android
p1690
g912
sVcom.android.email
p1691
g1013
sVcom.tencent.mm
p1692
g890
sVcom.tencent.mobileqq
p1693
g744
ssg107
(dp1694
g505
g480
sg41
g525
sg513
g893
sVcom.renren.mobile.android
p1695
g815
sg1105
g233
sVcom.dotamax.app
p1696
g1300
sg895
g1142
sg831
g1038
sVcom.sina.weibo
p1697
g392
sg1101
g748
ssg109
(dp1698
Vcom.android.launcher3
p1699
g481
sVcom.tencent.mm
p1700
g892
sg1116
g390
sVcom.tencent.mobileqq
p1701
g746
sg1114
g527
ssg111
(dp1702
Vcom.android.launcher3
p1703
g482
sg1129
g750
sVcom.tencent.mm
p1704
g894
ssg113
(dp1705
Vcom.android.launcher3
p1706
g483
sg15
g196
sVcom.android.dialer
p1707
g574
sVcom.sina.weibo
p1708
g394
sVcom.tencent.mm
p1709
g896
sg197
g235
sg1290
g928
sg1152
g952
sVcom.dotamax.app
p1710
g1302
sVcom.tencent.mobileqq
p1711
g752
sVme.quqi
p1712
g776
ssg115
(dp1713
Vcom.android.browser
p1714
g151
sg1683
g793
sVcom.hupu.games
p1715
g333
sVcom.sina.weibo
p1716
g396
sg703
g410
sVcom.android.launcher3
p1717
g485
sVcom.zhihu.android
p1718
g531
sVcom.android.dialer
p1719
g576
sg1154
g639
sVcom.meizu.media.gallery
p1720
g977
sVcom.android.alarmclock
p1721
g1048
sVcom.tencent.mm
p1722
g897
sVme.quqi
p1723
g774
sVim.yixin
p1724
g237
sVcom.renren.mobile.android
p1725
g823
sVcom.kugou.android
p1726
g920
sVcom.android.email
p1727
g1021
sVcom.tencent.mobileqq
p1728
g753
sVcom.meizu.notepaper
p1729
g1083
sVcom.android.settings
p1730
g1151
sg119
g1223
sVcom.qzone
p1731
g1242
sVcom.dotamax.app
p1732
g1304
ssg117
(dp1733
Vcom.android.launcher3
p1734
g486
sVcom.android.browser
p1735
g164
sVcom.immomo.momo
p1736
g1121
sVcom.tencent.mm
p1737
g898
sVcom.kugou.android
p1738
g922
sVcom.tencent.mobileqq
p1739
g755
ssg119
(dp1740
Vcom.android.launcher3
p1741
g487
sg1714
g156
sVcom.android.dialer
p1742
g578
sVcom.zhihu.android
p1743
g533
sVcom.tencent.mm
p1744
g851
sg150
g1188
sg1720
g982
sg1727
g1023
sVcom.tencent.mobileqq
p1745
g756
ssg121
(dp1746
g855
g488
sVcom.zhihu.android
p1747
g535
sVcom.meizu.notepaper
p1748
g1086
sVim.yixin
p1749
g239
sVcom.kugou.android
p1750
g924
sVcom.meizu.media.video
p1751
g1064
sg1324
g825
sg81
g900
sVcom.android.mms
p1752
g1190
sVcom.meizu.filemanager
p1753
g946
sVcom.android.dialer
p1754
g580
sVcom.dotamax.app
p1755
g1306
sg1247
g307
sVcom.android.settings
p1756
g1162
sVcom.hupu.games
p1757
g323
sVcom.meizu.flyme.weather
p1758
g1323
sVcom.sina.weibo
p1759
g398
sg1611
g252
sVcom.tencent.mobileqq
p1760
g758
ssg123
(dp1761
Vcom.android.launcher3
p1762
g489
sVcom.zhihu.android
p1763
g537
sVcom.meizu.notepaper
p1764
g1088
sg369
g582
sVcom.tencent.android.qqdownloader
p1765
g309
sVcom.android.browser
p1766
g160
sg511
g826
sVcom.sina.weibo
p1767
g400
sVim.yixin
p1768
g241
sVcom.kugou.android
p1769
g926
sVcom.android.mms
p1770
g1192
sVcom.meizu.filemanager
p1771
g948
sVcom.qzone
p1772
g1246
sg1612
g282
sg1369
g996
sg1282
g668
sg953
g1004
sVcom.hupu.games
p1773
g337
sVcom.tencent.mm
p1774
g902
sg19
g254
sVcom.tencent.mobileqq
p1775
g760
ssg125
(dp1776
Vcom.android.launcher3
p1777
g490
sVcom.tencent.mm
p1778
g903
sVcom.tencent.mobileqq
p1779
g761
ssg127
(dp1780
Vcom.android.launcher3
p1781
g491
sVcom.zhihu.android
p1782
g539
sVcom.android.browser
p1783
g171
sVcom.tencent.mobileqq
p1784
g763
sVcom.sina.weibo
p1785
g401
sVcom.kugou.android
p1786
g933
sVcom.tencent.mm
p1787
g905
sVcom.android.alarmclock
p1788
g1057
sssS'adj'
p1789
g132
sb.