ccopy_reg
_reconstructor
p1
(cnetworkx.classes.digraph
DiGraph
p2
c__builtin__
object
p3
NtRp4
(dp5
S'node'
p6
(dp7
Vcom.android.browser
p8
(dp9
S'weight'
p10
F0.00097205417660256783
ssVcom.youku.phone
p11
(dp12
g10
F0.0075033184931104563
ssVcom.qiyi.video
p13
(dp14
g10
F0.040882073089076577
ssVcom.huanxiao.store
p15
(dp16
g10
F0.00064607830469052847
ssVcom.android.deskclock
p17
(dp18
g10
F0.0011335737527751999
ssVcom.UCMobile
p19
(dp20
g10
F0.18838175004992425
ssVcom.hunantv.imgo.activity
p21
(dp22
g10
F0.022336689024891634
ssVcom.sina.weibo
p23
(dp24
g10
F0.058020768480776232
ssVcom.eg.android.AlipayGphone
p25
(dp26
g10
F0.006998202727625134
ssVcom.miui.weather2
p27
(dp28
g10
F0.0027751999906024975
ssVcom.android.packageinstaller
p29
(dp30
g10
F0.00019088677184038341
ssVcom.android.soundrecorder
p31
(dp32
g10
F0.00017620317400650776
ssVme.ele
p33
(dp34
g10
F0.0017297278248305512
ssVcom.xiaomi.market
p35
(dp36
g10
F0.00027898835884363729
ssVcom.nowcoder.app.florida
p37
(dp38
g10
F0.031534494708031338
ssVcom.android.phone
p39
(dp40
g10
F0.0066252393426446919
ssVcom.miui.gallery
p41
(dp42
g10
F0.00017326645443973263
ssVcom.tencent.mobileqq
p43
(dp44
g10
F0.052772850614949074
ssVcom.miui.antispam
p45
(dp46
g10
F4.99242326351772e-05
ssVcom.baidu.lbs.waimai
p47
(dp48
g10
F0.0018589434857686569
ssVcom.android.calculator
p49
(dp50
g10
F0.014248963337992929
ssVcom.tencent.mm
p51
(dp52
g10
F0.10954551327984588
ssVcom.dianping.v1
p53
(dp54
g10
F0.0004698751306840207
ssVcom.android.fileexplorer
p55
(dp56
g10
F0.00036708994584689117
ssVcom.miui.yellowpage
p57
(dp58
g10
F0.00025549460230943626
ssVcom.happyelements.AndroidAnimal
p59
(dp60
g10
F0.0047222450633744081
ssVcom.android.email
p61
(dp62
g10
F0.0038265455955079938
ssVcom.duokan.reader
p63
(dp64
g10
F0.42216812132175874
ssVcom.miui.notes
p65
(dp66
g10
F0.013823139000810534
ssVcom.miui.networkassistant
p67
(dp68
g10
F5.8734391335502588e-05
ssVcom.android.settings
p69
(dp70
g10
F0.00024081100447556061
ssVcom.android.mms
p71
(dp72
g10
F0.0044638137414981967
ssVcom.android.calendar
p73
(dp74
g10
F6.4607830469052847e-05
ssVcom.miui.barcodescanner
p75
(dp76
g10
F7.6354708736153364e-05
ssVcom.android.quicksearchbox
p77
(dp78
g10
F2.3493756534201035e-05
ssVcom.android.camera
p79
(dp80
g10
F0.00023200084577523522
ssVcom.xiaomi.account
p81
(dp82
g10
F7.3417989169378235e-05
ssVcom.yidian.xiaomi
p83
(dp84
g10
F0.0002995453958110632
sssS'node_dict_factory'
p85
c__builtin__
dict
p86
sS'edge_attr_dict_factory'
p87
g86
sS'succ'
p88
(dp89
g8
(dp90
Vcom.android.settings
p91
(dp92
g10
F1.7
ssg29
(dp93
g10
F1.8999999999999999
ssVcom.android.mms
p94
(dp95
g10
I1
ssVcom.xiaomi.market
p96
(dp97
g10
I1
ssVcom.miui.barcodescanner
p98
(dp99
g10
I1
ssVcom.android.email
p100
(dp101
g10
I1
ssVcom.tencent.mobileqq
p102
(dp103
g10
F2.8999999999999999
ssVcom.duokan.reader
p104
(dp105
g10
I1
sssg11
(dp106
Vcom.UCMobile
p107
(dp108
g10
F1.8999999999999999
ssVcom.tencent.mobileqq
p109
(dp110
g10
I1
ssVcom.duokan.reader
p111
(dp112
g10
I1
sssg13
(dp113
Vcom.sina.weibo
p114
(dp115
g10
I1
ssVcom.android.deskclock
p116
(dp117
g10
F0.90000000000000002
ssVcom.UCMobile
p118
(dp119
g10
I1
ssVcom.hunantv.imgo.activity
p120
(dp121
g10
F0.69999999999999996
ssVcom.tencent.mm
p122
(dp123
g10
F4.5999999999999996
ssg25
(dp124
g10
I1
ssVcom.tencent.mobileqq
p125
(dp126
g10
F1.3
sssg15
(dp127
Vcom.tencent.mm
p128
(dp129
g10
I1
ssVcom.sina.weibo
p130
(dp131
g10
I1
ssVcom.android.mms
p132
(dp133
g10
F1.8999999999999999
ssVcom.xiaomi.market
p134
(dp135
g10
I1
sssg17
(dp136
Vcom.miui.weather2
p137
(dp138
g10
I1
ssVcom.tencent.mm
p139
(dp140
g10
F4
ssVcom.android.mms
p141
(dp142
g10
F0.69999999999999996
ssVcom.UCMobile
p143
(dp144
g10
I1
ssVcom.android.quicksearchbox
p145
(dp146
g10
I1
ssVcom.android.email
p147
(dp148
g10
I1
ssVcom.sina.weibo
p149
(dp150
g10
F0.69999999999999996
ssVcom.duokan.reader
p151
(dp152
g10
I5
ssVcom.tencent.mobileqq
p153
(dp154
g10
F1.8
sssg19
(dp155
Vcom.miui.weather2
p156
(dp157
g10
I1
ssg73
(dp158
g10
F0.90000000000000002
ssg139
(dp159
g10
F21.899999999999999
ssVcom.android.mms
p160
(dp161
g10
F6.6000000000000005
ssg116
(dp162
g10
I1
ssVcom.android.fileexplorer
p163
(dp164
g10
I3
ssVme.ele
p165
(dp166
g10
F3.6000000000000001
ssVcom.android.phone
p167
(dp168
g10
F5.7000000000000002
ssVcom.android.calculator
p169
(dp170
g10
I4
ssVcom.miui.notes
p171
(dp172
g10
F2.5999999999999996
ssVcom.android.email
p173
(dp174
g10
I1
ssg149
(dp175
g10
F3.7999999999999998
ssVcom.duokan.reader
p176
(dp177
g10
F4.5999999999999996
ssVcom.eg.android.AlipayGphone
p178
(dp179
g10
I2
ssVcom.tencent.mobileqq
p180
(dp181
g10
F33.799999999999997
sssg21
(dp182
Vcom.tencent.mm
p183
(dp184
g10
F1.8
ssVcom.sina.weibo
p185
(dp186
g10
I1
ssVcom.qiyi.video
p187
(dp188
g10
I1
ssVcom.UCMobile
p189
(dp190
g10
F0.69999999999999996
sssg23
(dp191
Vcom.android.browser
p192
(dp193
g10
F2.2000000000000002
ssVcom.miui.weather2
p194
(dp195
g10
F3.8999999999999999
ssVcom.android.calendar
p196
(dp197
g10
F0.90000000000000002
ssVcom.tencent.mobileqq
p198
(dp199
g10
F9.3000000000000007
ssg29
(dp200
g10
F0.69999999999999996
ssVcom.baidu.lbs.waimai
p201
(dp202
g10
F1.7
ssVcom.android.mms
p203
(dp204
g10
F0.90000000000000002
ssg13
(dp205
g10
F1.8999999999999999
ssVcom.android.deskclock
p206
(dp207
g10
I1
ssg189
(dp208
g10
F1.8999999999999999
ssVcom.nowcoder.app.florida
p209
(dp210
g10
I1
ssg120
(dp211
g10
F1.8999999999999999
ssg75
(dp212
g10
F1.7
ssVcom.happyelements.AndroidAnimal
p213
(dp214
g10
I1
ssVcom.tencent.mm
p215
(dp216
g10
F18.800000000000001
ssVcom.duokan.reader
p217
(dp218
g10
F2.7000000000000002
ssVcom.eg.android.AlipayGphone
p219
(dp220
g10
I1
sssg25
(dp221
Vcom.miui.weather2
p222
(dp223
g10
F1.3
ssVcom.tencent.mobileqq
p224
(dp225
g10
F1.8999999999999999
ssVcom.baidu.lbs.waimai
p226
(dp227
g10
F2.7000000000000002
ssVcom.android.mms
p228
(dp229
g10
F2.3999999999999999
ssVcom.qiyi.video
p230
(dp231
g10
F0.69999999999999996
ssVcom.UCMobile
p232
(dp233
g10
F2.2999999999999998
ssVme.ele
p234
(dp235
g10
I1
ssVcom.android.phone
p236
(dp237
g10
F2.8999999999999999
ssVcom.happyelements.AndroidAnimal
p238
(dp239
g10
F1.7
ssg57
(dp240
g10
F0.69999999999999996
ssVcom.tencent.mm
p241
(dp242
g10
F4.4000000000000004
ssVcom.duokan.reader
p243
(dp244
g10
F4.2999999999999998
sssg27
(dp245
Vcom.android.fileexplorer
p246
(dp247
g10
F1.3
ssg196
(dp248
g10
I1
ssVcom.tencent.mobileqq
p249
(dp250
g10
F5
ssVcom.android.mms
p251
(dp252
g10
I1
ssg230
(dp253
g10
I1
ssVcom.dianping.v1
p254
(dp255
g10
F1.6000000000000001
ssg19
(dp256
g10
F1.8999999999999999
ssVcom.happyelements.AndroidAnimal
p257
(dp258
g10
I2
ssVcom.android.email
p259
(dp260
g10
F1.7
ssVcom.tencent.mm
p261
(dp262
g10
F3.8999999999999999
ssVcom.duokan.reader
p263
(dp264
g10
F1.7
ssVcom.yidian.xiaomi
p265
(dp266
g10
F0.90000000000000002
sssg29
(dp267
Vcom.xiaomi.market
p268
(dp269
g10
I1
sssg31
(dp270
sg33
(dp271
Vcom.UCMobile
p272
(dp273
g10
F2.7000000000000002
ssVcom.tencent.mm
p274
(dp275
g10
I2
ssVcom.eg.android.AlipayGphone
p276
(dp277
g10
I1
ssVcom.android.phone
p278
(dp279
g10
F2.2999999999999998
sssg35
(dp280
Vcom.android.settings
p281
(dp282
g10
I1
ssVcom.android.packageinstaller
p283
(dp284
g10
F1.8999999999999999
ssg47
(dp285
g10
F1.7
ssVcom.android.email
p286
(dp287
g10
I1
ssVcom.eg.android.AlipayGphone
p288
(dp289
g10
F1.3
sssg37
(dp290
Vcom.android.browser
p291
(dp292
g10
I1
ssVcom.miui.notes
p293
(dp294
g10
I1
ssVcom.tencent.mm
p295
(dp296
g10
F4.7000000000000002
ssVcom.android.mms
p297
(dp298
g10
F2.8999999999999999
ssVcom.android.deskclock
p299
(dp300
g10
I1
ssVcom.tencent.mobileqq
p301
(dp302
g10
F11.699999999999999
ssVcom.duokan.reader
p303
(dp304
g10
F0.40000000000000002
sssg39
(dp305
Vcom.sina.weibo
p306
(dp307
g10
I1
ssVcom.android.mms
p308
(dp309
g10
F1.8999999999999999
ssg57
(dp310
g10
I4
ssVcom.tencent.mm
p311
(dp312
g10
F8.4000000000000004
ssVcom.duokan.reader
p313
(dp314
g10
F7.7000000000000002
ssVcom.eg.android.AlipayGphone
p315
(dp316
g10
I1
ssVcom.tencent.mobileqq
p317
(dp318
g10
F3.7999999999999998
sssg41
(dp319
Vcom.android.mms
p320
(dp321
g10
I1
ssVcom.tencent.mm
p322
(dp323
g10
I1
ssg23
(dp324
g10
I1
ssVcom.eg.android.AlipayGphone
p325
(dp326
g10
F0.90000000000000002
sssg43
(dp327
Vcom.android.browser
p328
(dp329
g10
I2
ssVcom.youku.phone
p330
(dp331
g10
I1
ssVcom.android.deskclock
p332
(dp333
g10
F1.8999999999999999
ssVcom.UCMobile
p334
(dp335
g10
F13.300000000000001
ssVcom.sina.weibo
p336
(dp337
g10
F7.5999999999999996
ssVcom.eg.android.AlipayGphone
p338
(dp339
g10
I1
ssVcom.miui.weather2
p340
(dp341
g10
F2.2999999999999998
ssVcom.nowcoder.app.florida
p342
(dp343
g10
I4
ssVcom.android.phone
p344
(dp345
g10
I3
ssVcom.miui.gallery
p346
(dp347
g10
I1
ssVcom.tencent.mm
p348
(dp349
g10
F37.79999999999999
ssVcom.android.calculator
p350
(dp351
g10
F0.90000000000000002
ssg201
(dp352
g10
F1.3
ssg55
(dp353
g10
F1.7
ssVcom.happyelements.AndroidAnimal
p354
(dp355
g10
I1
ssVcom.android.email
p356
(dp357
g10
I2
ssg63
(dp358
g10
F50.300000000000011
ssVcom.miui.notes
p359
(dp360
g10
I3
ssg67
(dp361
g10
F3.4000000000000004
ssVcom.android.settings
p362
(dp363
g10
I1
ssg141
(dp364
g10
F12.5
ssg145
(dp365
g10
F0.90000000000000002
ssVcom.miui.yellowpage
p366
(dp367
g10
F1.8999999999999999
ssg265
(dp368
g10
I1
sssg45
(dp369
Vcom.duokan.reader
p370
(dp371
g10
I1
sssg47
(dp372
g317
(dp373
g10
F0.40000000000000002
ssg232
(dp374
g10
F1.7
ssVcom.android.phone
p375
(dp376
g10
F0.90000000000000002
ssVcom.tencent.mm
p377
(dp378
g10
F1.8999999999999999
ssVcom.duokan.reader
p379
(dp380
g10
F1.7
ssg288
(dp381
g10
F4.7000000000000002
sssg49
(dp382
Vcom.tencent.mobileqq
p383
(dp384
g10
I1
ssg171
(dp385
g10
I1
ssVcom.duokan.reader
p386
(dp387
g10
I2
ssVcom.UCMobile
p388
(dp389
g10
I1
sssg51
(dp390
Vcom.android.browser
p391
(dp392
g10
I3
ssg230
(dp393
g10
F0.40000000000000002
ssVcom.UCMobile
p394
(dp395
g10
F12.5
ssg120
(dp396
g10
I1
ssVcom.sina.weibo
p397
(dp398
g10
F12.600000000000001
ssVcom.eg.android.AlipayGphone
p399
(dp400
g10
F5.3000000000000007
ssg222
(dp401
g10
F2.6000000000000001
ssg29
(dp402
g10
F1.6000000000000001
ssVcom.nowcoder.app.florida
p403
(dp404
g10
I1
ssVme.ele
p405
(dp406
g10
F3.7000000000000002
ssVcom.android.phone
p407
(dp408
g10
F5.7000000000000002
ssVcom.tencent.mobileqq
p409
(dp410
g10
F49.399999999999999
ssg49
(dp411
g10
I2
ssg96
(dp412
g10
F0.90000000000000002
ssVcom.android.fileexplorer
p413
(dp414
g10
I1
ssVcom.happyelements.AndroidAnimal
p415
(dp416
g10
F4.2999999999999998
ssg61
(dp417
g10
F6.6000000000000005
ssVcom.duokan.reader
p418
(dp419
g10
F26.299999999999997
ssVcom.miui.notes
p420
(dp421
g10
F4.0999999999999996
ssg73
(dp422
g10
F1.7
ssg203
(dp423
g10
F16.700000000000003
ssg81
(dp424
g10
F0.90000000000000002
sssg53
(dp425
Vme.ele
p426
(dp427
g10
I1
ssVcom.tencent.mm
p428
(dp429
g10
I1
ssg278
(dp430
g10
F0.90000000000000002
sssg55
(dp431
Vcom.android.deskclock
p432
(dp433
g10
F0.90000000000000002
ssVcom.sina.weibo
p434
(dp435
g10
I1
ssg63
(dp436
g10
I4
sssg57
(dp437
g308
(dp438
g10
I1
ssVcom.android.phone
p439
(dp440
g10
I1
sssg59
(dp441
g222
(dp442
g10
I1
ssVcom.UCMobile
p443
(dp444
g10
I2
ssVcom.sina.weibo
p445
(dp446
g10
F2.5
ssVcom.qiyi.video
p447
(dp448
g10
F1.8999999999999999
ssg254
(dp449
g10
F1.8999999999999999
ssg163
(dp450
g10
F0.90000000000000002
ssg120
(dp451
g10
F0.40000000000000002
ssg61
(dp452
g10
F0.90000000000000002
ssVcom.tencent.mm
p453
(dp454
g10
F3.7000000000000002
ssVcom.tencent.mobileqq
p455
(dp456
g10
I3
sssg61
(dp457
Vcom.android.browser
p458
(dp459
g10
I1
ssg420
(dp460
g10
F0.69999999999999996
ssVcom.tencent.mobileqq
p461
(dp462
g10
I3
ssVcom.android.mms
p463
(dp464
g10
F3.4000000000000004
ssVcom.xiaomi.market
p465
(dp466
g10
I1
ssVcom.UCMobile
p467
(dp468
g10
I2
ssVcom.tencent.mm
p469
(dp470
g10
F7.6000000000000005
ssVcom.duokan.reader
p471
(dp472
g10
I1
sssg63
(dp473
Vcom.youku.phone
p474
(dp475
g10
I1
ssg432
(dp476
g10
F7.6000000000000005
ssVcom.UCMobile
p477
(dp478
g10
I5
ssVcom.sina.weibo
p479
(dp480
g10
I3
ssVcom.eg.android.AlipayGphone
p481
(dp482
g10
F5.9000000000000004
ssVcom.miui.weather2
p483
(dp484
g10
F5.5999999999999996
ssg31
(dp485
g10
F1.8999999999999999
ssg33
(dp486
g10
F1.7
ssg375
(dp487
g10
F11.800000000000001
ssg51
(dp488
g10
F32.399999999999999
ssVcom.miui.antispam
p489
(dp490
g10
I1
ssVcom.android.calculator
p491
(dp492
g10
I1
ssVcom.baidu.lbs.waimai
p493
(dp494
g10
F1.8999999999999999
ssVcom.xiaomi.market
p495
(dp496
g10
F1.7
ssVcom.android.fileexplorer
p497
(dp498
g10
I3
ssVcom.android.email
p499
(dp500
g10
F3.8999999999999999
ssVcom.tencent.mobileqq
p501
(dp502
g10
F74.800000000000011
ssVcom.miui.notes
p503
(dp504
g10
F1.8999999999999999
ssVcom.android.settings
p505
(dp506
g10
I2
ssg71
(dp507
g10
F8.1000000000000014
ssVcom.miui.barcodescanner
p508
(dp509
g10
I1
ssg57
(dp510
g10
F0.90000000000000002
ssg81
(dp511
g10
I1
ssg83
(dp512
g10
F1.8999999999999999
sssg65
(dp513
g458
(dp514
g10
F0.90000000000000002
ssVcom.sina.weibo
p515
(dp516
g10
I1
ssVcom.android.mms
p517
(dp518
g10
F2.7999999999999998
ssg81
(dp519
g10
F0.69999999999999996
ssVcom.android.phone
p520
(dp521
g10
I1
ssVcom.android.email
p522
(dp523
g10
F2.7000000000000002
ssVcom.tencent.mm
p524
(dp525
g10
F8.1000000000000014
ssVcom.duokan.reader
p526
(dp527
g10
F1.3
ssVcom.tencent.mobileqq
p528
(dp529
g10
I2
sssg67
(dp530
g340
(dp531
g10
F1.7
ssVcom.tencent.mobileqq
p532
(dp533
g10
F2.7000000000000002
ssVcom.android.mms
p534
(dp535
g10
F3.8999999999999999
ssg246
(dp536
g10
F0.69999999999999996
ssVcom.tencent.mm
p537
(dp538
g10
F1.3999999999999999
ssVcom.duokan.reader
p539
(dp540
g10
F0.40000000000000002
sssg69
(dp541
Vcom.tencent.mm
p542
(dp543
g10
I1
ssVcom.sina.weibo
p544
(dp545
g10
I1
ssVcom.tencent.mobileqq
p546
(dp547
g10
I1
ssg283
(dp548
g10
I1
ssg268
(dp549
g10
F0.90000000000000002
sssg71
(dp550
g8
(dp551
g10
I1
ssg340
(dp552
g10
F0.90000000000000002
ssg246
(dp553
g10
F2.0999999999999996
ssVcom.miui.networkassistant
p554
(dp555
g10
I1
ssVcom.tencent.mm
p556
(dp557
g10
F16.300000000000001
ssg81
(dp558
g10
F0.40000000000000002
ssVcom.UCMobile
p559
(dp560
g10
I1
ssVcom.android.phone
p561
(dp562
g10
F1.7
ssg420
(dp563
g10
F2.2999999999999998
ssVcom.sina.weibo
p564
(dp565
g10
F1.3999999999999999
ssg539
(dp566
g10
F8.4000000000000004
ssVcom.eg.android.AlipayGphone
p567
(dp568
g10
I3
ssg409
(dp569
g10
F10.5
sssg73
(dp570
sg75
(dp571
g192
(dp572
g10
F2.7000000000000002
ssg91
(dp573
g10
F1.3
sssg77
(dp574
Vcom.sina.weibo
p575
(dp576
g10
I1
sssg79
(dp577
Vcom.android.calculator
p578
(dp579
g10
I1
ssg41
(dp580
g10
I1
sssg81
(dp581
sg83
(dp582
Vcom.tencent.mobileqq
p583
(dp584
g10
F1.8999999999999999
ssssS'edge'
p585
g89
sS'graph'
p586
(dp587
sS'adjlist_dict_factory'
p588
g86
sS'adj'
p589
g89
sS'pred'
p590
(dp591
g8
(dp592
g65
g514
sVcom.tencent.mm
p593
g392
sVcom.android.mms
p594
g551
sVcom.nowcoder.app.florida
p595
g292
sg75
g572
sg522
g459
sVcom.sina.weibo
p596
g193
sVcom.tencent.mobileqq
p597
g329
ssg11
(dp598
g109
g331
sVcom.duokan.reader
p599
g475
ssg13
(dp600
g222
g253
sVcom.sina.weibo
p601
g205
sVcom.hunantv.imgo.activity
p602
g188
sVcom.happyelements.AndroidAnimal
p603
g448
sVcom.tencent.mm
p604
g393
sVcom.eg.android.AlipayGphone
p605
g231
ssg15
(dp606
sg17
(dp607
g118
g162
sVcom.tencent.mobileqq
p608
g333
sVcom.qiyi.video
p609
g117
sVcom.android.fileexplorer
p610
g433
sVcom.nowcoder.app.florida
p611
g300
sVcom.sina.weibo
p612
g207
sVcom.duokan.reader
p613
g476
ssg19
(dp614
g27
g256
sVcom.youku.phone
p615
g108
sVcom.android.calculator
p616
g389
sg180
g335
sg185
g208
sg226
g374
sg160
g560
sg609
g119
sg17
g144
sg165
g273
sg21
g190
sVcom.happyelements.AndroidAnimal
p617
g444
sg259
g468
sVcom.tencent.mm
p618
g395
sVcom.duokan.reader
p619
g478
sg288
g233
ssg21
(dp620
g603
g451
sg122
g396
sg114
g211
sg447
g121
ssg23
(dp621
Vcom.miui.notes
p622
g516
sg163
g435
sg198
g337
sVcom.android.settings
p623
g545
sg203
g565
sVcom.huanxiao.store
p624
g131
sg447
g115
sg17
g150
sg143
g175
sg77
g576
sg39
g307
sVcom.happyelements.AndroidAnimal
p625
g446
sVcom.miui.gallery
p626
g324
sVcom.tencent.mm
p627
g398
sVcom.duokan.reader
p628
g480
sg21
g186
ssg25
(dp629
g241
g400
sg47
g381
sg228
g568
sVcom.qiyi.video
p630
g124
sg35
g289
sVcom.UCMobile
p631
g179
sVme.ele
p632
g277
sg236
g316
sVcom.miui.gallery
p633
g326
sVcom.sina.weibo
p634
g220
sVcom.duokan.reader
p635
g482
sVcom.tencent.mobileqq
p636
g339
ssg27
(dp637
Vcom.miui.networkassistant
p638
g531
sVcom.sina.weibo
p639
g195
sg604
g401
sg534
g552
sVcom.android.deskclock
p640
g138
sVcom.UCMobile
p641
g157
sg238
g442
sg532
g341
sVcom.duokan.reader
p642
g484
sg399
g223
ssg29
(dp643
g281
g548
sg593
g402
sVcom.xiaomi.market
p644
g284
sVcom.sina.weibo
p645
g200
sg391
g93
ssg31
(dp646
Vcom.duokan.reader
p647
g485
ssg33
(dp648
Vcom.UCMobile
p649
g166
sg274
g406
sVcom.duokan.reader
p650
g486
sg276
g235
sVcom.dianping.v1
p651
g427
ssg35
(dp652
Vcom.android.browser
p653
g97
sg281
g549
sg283
g269
sg15
g135
sg286
g466
sVcom.tencent.mm
p654
g412
sVcom.duokan.reader
p655
g496
ssg37
(dp656
Vcom.sina.weibo
p657
g210
sg295
g404
sVcom.tencent.mobileqq
p658
g343
ssg39
(dp659
Vcom.miui.notes
p660
g521
sVcom.tencent.mobileqq
p661
g345
sVcom.baidu.lbs.waimai
p662
g376
sVcom.android.mms
p663
g562
sg651
g430
sVcom.UCMobile
p664
g168
sg426
g279
sVcom.miui.yellowpage
p665
g440
sVcom.tencent.mm
p666
g408
sg379
g487
sVcom.eg.android.AlipayGphone
p667
g237
ssg41
(dp668
g79
g580
sVcom.tencent.mobileqq
p669
g347
ssg43
(dp670
Vcom.android.calculator
p671
g384
sg328
g103
sVcom.miui.weather2
p672
g250
sg11
g110
sg67
g533
sg69
g547
sVcom.sina.weibo
p673
g199
sg662
g373
sg203
g569
sVcom.qiyi.video
p674
g126
sVcom.android.deskclock
p675
g154
sVcom.UCMobile
p676
g181
sVcom.nowcoder.app.florida
p677
g302
sg375
g318
sg59
g456
sg359
g529
sVcom.android.email
p678
g462
sVcom.tencent.mm
p679
g410
sVcom.duokan.reader
p680
g502
sVcom.eg.android.AlipayGphone
p681
g225
sg265
g584
ssg45
(dp682
Vcom.duokan.reader
p683
g490
ssg47
(dp684
Vcom.sina.weibo
p685
g202
sVcom.tencent.mobileqq
p686
g352
sVcom.duokan.reader
p687
g494
sg288
g227
sg35
g285
ssg49
(dp688
Vcom.UCMobile
p689
g170
sVcom.tencent.mm
p690
g411
sVcom.duokan.reader
p691
g492
sVcom.tencent.mobileqq
p692
g351
sVcom.android.camera
p693
g579
ssg51
(dp694
g447
g123
sg17
g140
sg143
g159
sg21
g184
sg149
g216
sVcom.eg.android.AlipayGphone
p695
g242
sVcom.miui.weather2
p696
g262
sVcom.huanxiao.store
p697
g129
sg33
g275
sVcom.android.phone
p698
g312
sg346
g323
sg409
g349
sVcom.baidu.lbs.waimai
p699
g378
sg53
g429
sg625
g454
sVcom.android.email
p700
g470
sVcom.duokan.reader
p701
g488
sg37
g296
sVcom.miui.notes
p702
g525
sVcom.miui.networkassistant
p703
g538
sg505
g543
sg203
g557
ssg53
(dp704
Vcom.happyelements.AndroidAnimal
p705
g449
sVcom.miui.weather2
p706
g255
ssg55
(dp707
g340
g247
sg554
g536
sVcom.tencent.mm
p708
g414
sg534
g553
sg443
g164
sg617
g450
sg43
g353
sg63
g498
ssg57
(dp709
Vcom.tencent.mobileqq
p710
g367
sVcom.duokan.reader
p711
g510
sVcom.eg.android.AlipayGphone
p712
g240
sVcom.android.phone
p713
g310
ssg59
(dp714
Vcom.sina.weibo
p715
g214
sVcom.tencent.mm
p716
g416
sVcom.miui.weather2
p717
g258
sg399
g239
sVcom.tencent.mobileqq
p718
g355
ssg61
(dp719
g458
g101
sg65
g523
sVcom.tencent.mobileqq
p720
g357
sg495
g287
sVcom.android.deskclock
p721
g148
sg467
g174
sVcom.happyelements.AndroidAnimal
p722
g452
sVcom.miui.weather2
p723
g260
sVcom.tencent.mm
p724
g417
sVcom.duokan.reader
p725
g500
ssg63
(dp726
Vcom.android.browser
p727
g105
sVcom.miui.weather2
p728
g264
sg474
g112
sVcom.UCMobile
p729
g177
sg554
g540
sg43
g358
sVcom.sina.weibo
p730
g218
sg662
g380
sg251
g566
sVcom.android.deskclock
p731
g152
sg55
g436
sVcom.nowcoder.app.florida
p732
g304
sg375
g314
sVcom.android.calculator
p733
g387
sVcom.miui.notes
p734
g527
sVcom.android.email
p735
g472
sVcom.tencent.mm
p736
g419
sg45
g371
sg481
g244
ssg65
(dp737
Vcom.android.calculator
p738
g385
sVcom.tencent.mobileqq
p739
g360
sg463
g563
sVcom.UCMobile
p740
g172
sVcom.nowcoder.app.florida
p741
g294
sVcom.android.email
p742
g460
sVcom.tencent.mm
p743
g421
sVcom.duokan.reader
p744
g504
ssg67
(dp745
g534
g555
sVcom.tencent.mobileqq
p746
g361
ssg69
(dp747
g192
g92
sg546
g363
sVcom.duokan.reader
p748
g506
sg75
g573
sg644
g282
ssg71
(dp749
Vcom.android.browser
p750
g95
sg633
g321
sg340
g252
sg67
g535
sVcom.sina.weibo
p751
g204
sVcom.huanxiao.store
p752
g133
sg57
g438
sg675
g142
sg334
g161
sVcom.nowcoder.app.florida
p753
g298
sg713
g309
sg702
g518
sVcom.android.email
p754
g464
sg679
g423
sVcom.duokan.reader
p755
g507
sVcom.eg.android.AlipayGphone
p756
g229
sg153
g364
ssg73
(dp757
Vcom.UCMobile
p758
g158
sVcom.sina.weibo
p759
g197
sVcom.miui.weather2
p760
g248
sVcom.tencent.mm
p761
g422
ssg75
(dp762
g192
g99
sg596
g212
sVcom.duokan.reader
p763
g509
ssg77
(dp764
g332
g146
sg608
g365
ssg79
(dp765
sg81
(dp766
Vcom.miui.notes
p767
g519
sVcom.tencent.mm
p768
g424
sVcom.android.mms
p769
g558
sg526
g511
ssg83
(dp770
Vcom.tencent.mobileqq
p771
g368
sVcom.miui.weather2
p772
g266
sVcom.duokan.reader
p773
g512
sssb.