ccopy_reg
_reconstructor
p1
(cnetworkx.classes.digraph
DiGraph
p2
c__builtin__
object
p3
NtRp4
(dp5
S'node'
p6
(dp7
Vcom.google.android.inputmethod.pinyin
p8
(dp9
S'weight'
p10
F1.6005686383853465e-05
ssVcom.android.browser
p11
(dp12
g10
F0.034452239941244578
ssVcom.job.android
p13
(dp14
g10
F6.6205339133212053e-05
ssVco.runner.app
p15
(dp16
g10
F0.0009305124038612991
ssVcom.youdao.dict
p17
(dp18
g10
F0.0034284907765413384
ssVcom.ss.android.article.news
p19
(dp20
g10
F0.002657307705319308
ssVcom.android.updater
p21
(dp22
g10
F0.00022662596857137972
ssVcom.comingx.athit
p23
(dp24
g10
F0.013040269215644976
ssVcom.baidu.netdisk
p25
(dp26
g10
F8.4393619114863722e-05
ssVcom.android.thememanager
p27
(dp28
g10
F0.00010039930549871718
ssVcom.offcn.android.onlineexamination
p29
(dp30
g10
F0.00039323061320330893
ssVcom.android.deskclock
p31
(dp32
g10
F0.011707795824189175
ssVcom.happyelements.AndroidAnimal
p33
(dp34
g10
F0.01111594919358623
ssVcom.sohu.inputmethod.sogou
p35
(dp36
g10
F0.00015860180144000249
ssVcom.miui.voiceassist
p37
(dp38
g10
F0.0051869336851674214
ssVcom.netease.mobimail
p39
(dp40
g10
F0.016699387382353659
ssVsogou.mobile.explorer
p41
(dp42
g10
F0.0010483724581424019
ssVcom.sina.weibo
p43
(dp44
g10
F0.03163960432488197
ssVcn.jsx.youxidiantai
p45
(dp46
g10
F5.5656136743854091e-05
ssVcom.eg.android.AlipayGphone
p47
(dp48
g10
F0.010013011895498873
ssVcom.youku.phone
p49
(dp50
g10
F0.00042378692357248373
ssVcom.tsingzone.questionbank
p51
(dp52
g10
F1.7824514382018629e-05
ssVcom.zhihu.android
p53
(dp54
g10
F0.0013070097994814884
ssVorg.mozilla.firefox
p55
(dp56
g10
F0.0041600233974033686
ssVcom.hyt.android.examin
p57
(dp58
g10
F0.0077613028337703976
ssVcom.chinamworld.main
p59
(dp60
g10
F0.0049624903101938402
ssVcn.wps.moffice_eng
p61
(dp62
g10
F0.0026769510476994918
ssVoffcn.adnroid.newsletter_politics
p63
(dp64
g10
F0.0001727886598256908
ssVcom.qihoo.yunpan
p65
(dp66
g10
F6.7296635932111157e-05
ssVcom.android.packageinstaller
p67
(dp68
g10
F9.9308008699818079e-05
ssVcom.sankuai.meituan
p69
(dp70
g10
F0.0020261743899559954
ssVcom.android.soundrecorder
p71
(dp72
g10
F0.0028406455675343569
ssVcom.jingdong.app.mall
p73
(dp74
g10
F0.0013026446122858921
ssVcom.taobao.taobao
p75
(dp76
g10
F0.0015394560176469967
ssVcom.yixia.xiaokaxiu
p77
(dp78
g10
F0.0014958041456910327
ssVair.fyzb3
p79
(dp80
g10
F0.0091836263283355569
ssVcom.nowcoder.app.florida
p81
(dp82
g10
F0.0031680346072040866
ssVcom.alexlee.gwyxc
p83
(dp84
g10
F0.00013713963106165355
ssVcom.android.phone
p85
(dp86
g10
F0.018513486427723595
ssVcom.alibaba.android.rimet
p87
(dp88
g10
F0.0016544059471310353
ssVcom.miui.gallery
p89
(dp90
g10
F0.0016267597615589248
ssVcom.tencent.mobileqq
p91
(dp92
g10
F0.17086834122522801
ssVcom.miui.antispam
p93
(dp94
g10
F0.00049435744990129218
ssVorg.coursera.android
p95
(dp96
g10
F3.6376559963303325e-07
ssVcom.offcn.android.onlineexamination.syyh
p97
(dp98
g10
F0.00016987853502862653
ssVcom.fenbi.android.servant
p99
(dp100
g10
F0.012936959785349195
ssVcom.meitu.meipaimv
p101
(dp102
g10
F0.00014768883345101151
ssVcom.android.calculator
p103
(dp104
g10
F0.02050001036731959
ssVcom.ggeye.kaoshi.gwy
p105
(dp106
g10
F0.0090701314612500507
ssVcom.tencent.mm
p107
(dp108
g10
F0.35534588106392706
ssVcom.kugou.android
p109
(dp110
g10
F0.011699065449797983
ssVcom.xiaomi.market
p111
(dp112
g10
F0.00066241715693175361
ssVcom.android.fileexplorer
p113
(dp114
g10
F0.0034248531205450083
ssVcom.qihoo.browser
p115
(dp116
g10
F0.00032520644607193176
ssVcom.miui.yellowpage
p117
(dp118
g10
F7.7118307122203052e-05
ssVcom.brianbaek.popstar
p119
(dp120
g10
F9.4579055904588647e-06
ssVcom.miui.weather2
p121
(dp122
g10
F0.00063804486175634038
ssVcom.android.email
p123
(dp124
g10
F1.0912967988990997e-05
ssVcom.MobileTicket
p125
(dp126
g10
F0.00078828005440478312
ssVcom.miui.player
p127
(dp128
g10
F1.8188279981651663e-06
ssVcom.miui.notes
p129
(dp130
g10
F0.00249324941988481
ssVcom.UCMobile
p131
(dp132
g10
F0.00056601927302899976
ssVcom.android.calendar
p133
(dp134
g10
F0.0016678652743174576
ssVcom.android.settings
p135
(dp136
g10
F0.0037191394906481321
ssVcom.android.mms
p137
(dp138
g10
F0.17000330662930066
ssVcom.baidu.BaiduMap
p139
(dp140
g10
F0.0027653460884103187
ssVcom.miui.video
p141
(dp142
g10
F0.0010927518612976318
ssVcom.shanbay.words
p143
(dp144
g10
F5.8566261540918352e-05
ssVtv.pps.mobile
p145
(dp146
g10
F0.0079155394480148033
ssVcom.miui.networkassistant
p147
(dp148
g10
F8.8758806310460111e-05
ssVcom.fenbi.android.gaozhong
p149
(dp150
g10
F2.8009951171743561e-05
ssVcom.miui.barcodescanner
p151
(dp152
g10
F0.0001389584590598187
ssVcom.exam8.GWyuan
p153
(dp154
g10
F4.0014215959633662e-06
ssVcom.android.quicksearchbox
p155
(dp156
g10
F6.1840151937615656e-06
ssVcom.android.camera
p157
(dp158
g10
F0.014122835640152884
ssVcom.mt.mtxx.mtxx
p159
(dp160
g10
F3.6376559963303325e-07
ssVcom.netease.vopen
p161
(dp162
g10
F3.6376559963303325e-07
sssS'node_dict_factory'
p163
c__builtin__
dict
p164
sS'edge_attr_dict_factory'
p165
g164
sS'succ'
p166
(dp167
g8
(dp168
Vcom.android.settings
p169
(dp170
g10
F2.7000000000000002
sssg11
(dp171
Vco.runner.app
p172
(dp173
g10
F1.3
ssVcom.comingx.athit
p174
(dp175
g10
F14.799999999999999
ssg25
(dp176
g10
F1.3999999999999999
ssVcom.android.thememanager
p177
(dp178
g10
F2.7000000000000002
ssVcom.android.deskclock
p179
(dp180
g10
F1.8999999999999999
ssVcom.UCMobile
p181
(dp182
g10
F3.5999999999999996
ssVcom.sohu.inputmethod.sogou
p183
(dp184
g10
F3.1000000000000001
ssVcom.netease.mobimail
p185
(dp186
g10
F19.199999999999999
ssg65
(dp187
g10
F1.6000000000000001
ssVcom.eg.android.AlipayGphone
p188
(dp189
g10
F2.2999999999999998
ssVcom.zhihu.android
p190
(dp191
g10
F5
ssVorg.mozilla.firefox
p192
(dp193
g10
F11.299999999999999
ssg59
(dp194
g10
F1.3999999999999999
ssVcn.wps.moffice_eng
p195
(dp196
g10
F12.699999999999999
ssVcom.sina.weibo
p197
(dp198
g10
I2
ssVcom.android.packageinstaller
p199
(dp200
g10
F6.4000000000000004
ssVcom.sankuai.meituan
p201
(dp202
g10
F0.69999999999999996
ssVcom.android.soundrecorder
p203
(dp204
g10
F1.3999999999999999
ssVair.fyzb3
p205
(dp206
g10
F1.7
ssVcom.nowcoder.app.florida
p207
(dp208
g10
F2.2999999999999998
ssVcom.android.phone
p209
(dp210
g10
F5.6000000000000005
ssg127
(dp211
g10
F4
ssVcom.tencent.mobileqq
p212
(dp213
g10
F81.400000000000034
ssVcom.miui.antispam
p214
(dp215
g10
F1.7
ssVcom.fenbi.android.servant
p216
(dp217
g10
I2
ssVcom.android.calculator
p218
(dp219
g10
F6.5
ssVsogou.mobile.explorer
p220
(dp221
g10
F20.299999999999997
ssVcom.kugou.android
p222
(dp223
g10
F13.999999999999998
ssVcom.xiaomi.market
p224
(dp225
g10
F7.1000000000000005
ssVcom.android.fileexplorer
p226
(dp227
g10
F5.1000000000000005
ssVcom.qihoo.browser
p228
(dp229
g10
F5.2000000000000002
ssVcom.happyelements.AndroidAnimal
p230
(dp231
g10
F4.5
ssVcom.hyt.android.examin
p232
(dp233
g10
F3.1999999999999997
ssVcom.MobileTicket
p234
(dp235
g10
F1.8999999999999999
ssVcom.miui.gallery
p236
(dp237
g10
F3.0999999999999996
ssVcom.miui.notes
p238
(dp239
g10
F6.7000000000000011
ssVcom.ggeye.kaoshi.gwy
p240
(dp241
g10
F2.7000000000000002
ssVcom.tencent.mm
p242
(dp243
g10
F97.600000000000065
ssVcom.android.mms
p244
(dp245
g10
F19.699999999999999
ssVcom.baidu.BaiduMap
p246
(dp247
g10
F5.4000000000000004
ssVtv.pps.mobile
p248
(dp249
g10
F1.8999999999999999
ssVcom.miui.barcodescanner
p250
(dp251
g10
F1.7
ssVcom.android.settings
p252
(dp253
g10
F19.799999999999994
ssVcom.android.camera
p254
(dp255
g10
F6.4000000000000004
sssg13
(dp256
Vcom.kugou.android
p257
(dp258
g10
I1
ssVcom.youku.phone
p259
(dp260
g10
F0.90000000000000002
sssg15
(dp261
Vcom.kugou.android
p262
(dp263
g10
F3.2999999999999998
ssVcom.tencent.mobileqq
p264
(dp265
g10
F8.0999999999999996
ssVcom.tencent.mm
p266
(dp267
g10
F4.7000000000000002
ssVcom.baidu.BaiduMap
p268
(dp269
g10
F1.1000000000000001
sssg17
(dp270
Vcom.android.browser
p271
(dp272
g10
F0.90000000000000002
ssVcom.android.calculator
p273
(dp274
g10
I2
ssVcom.tencent.mm
p275
(dp276
g10
I3
ssVcom.android.mms
p277
(dp278
g10
I2
ssVcom.android.deskclock
p279
(dp280
g10
I2
ssVcom.happyelements.AndroidAnimal
p281
(dp282
g10
F1.7
ssVcom.android.camera
p283
(dp284
g10
F0.69999999999999996
ssVcom.tencent.mobileqq
p285
(dp286
g10
F4.7999999999999998
sssg19
(dp287
Vcom.android.browser
p288
(dp289
g10
I1
ssVcn.wps.moffice_eng
p290
(dp291
g10
F0.90000000000000002
ssVcom.sankuai.meituan
p292
(dp293
g10
I1
ssVcom.android.mms
p294
(dp295
g10
I1
ssVcom.baidu.BaiduMap
p296
(dp297
g10
F0.90000000000000002
ssVcom.xiaomi.market
p298
(dp299
g10
I1
ssg33
(dp300
g10
F0.69999999999999996
ssg119
(dp301
g10
F0.90000000000000002
ssVcom.tencent.mm
p302
(dp303
g10
I1
sssg21
(dp304
Vcom.tencent.mobileqq
p305
(dp306
g10
F0.90000000000000002
ssVcom.tencent.mm
p307
(dp308
g10
I1
sssg23
(dp309
Vcom.android.browser
p310
(dp311
g10
F24.699999999999992
ssVorg.mozilla.firefox
p312
(dp313
g10
F0.69999999999999996
ssVcom.hyt.android.examin
p314
(dp315
g10
F2.2999999999999998
ssVcn.wps.moffice_eng
p316
(dp317
g10
F1.7
ssVcom.android.calculator
p318
(dp319
g10
F3.8999999999999999
ssVcom.tencent.mm
p320
(dp321
g10
F28.199999999999992
ssVcom.android.packageinstaller
p322
(dp323
g10
I1
ssVcom.android.phone
p324
(dp325
g10
F0.69999999999999996
ssVcom.android.mms
p326
(dp327
g10
F6.2999999999999998
ssVcom.android.deskclock
p328
(dp329
g10
I1
ssVcom.android.fileexplorer
p330
(dp331
g10
F5.1000000000000005
ssVcom.qihoo.browser
p332
(dp333
g10
I1
ssVcom.alexlee.gwyxc
p334
(dp335
g10
F1.8999999999999999
ssVcom.netease.mobimail
p336
(dp337
g10
F3.5999999999999996
ssVcom.sina.weibo
p338
(dp339
g10
I1
ssg155
(dp340
g10
F1.3
ssVsogou.mobile.explorer
p341
(dp342
g10
F1.8
ssVcom.miui.gallery
p343
(dp344
g10
F0.90000000000000002
ssVcom.tencent.mobileqq
p345
(dp346
g10
F20.800000000000001
ssVcom.miui.antispam
p347
(dp348
g10
I1
ssVcom.android.settings
p349
(dp350
g10
F4.4000000000000004
sssg25
(dp351
Vcom.UCMobile
p352
(dp353
g10
F1.7
ssVcom.xiaomi.market
p354
(dp355
g10
F1.7
ssVcom.tencent.mobileqq
p356
(dp357
g10
F0.40000000000000002
ssg226
(dp358
g10
F2.2000000000000002
sssg27
(dp359
Vcom.android.browser
p360
(dp361
g10
F3.1999999999999997
ssVcom.android.settings
p362
(dp363
g10
F3.2999999999999998
ssg21
(dp364
g10
I1
ssVtv.pps.mobile
p365
(dp366
g10
F1.8999999999999999
ssVcom.tencent.mm
p367
(dp368
g10
F5
ssVcom.tencent.mobileqq
p369
(dp370
g10
F2.9999999999999996
sssg29
(dp371
sg31
(dp372
Vcom.fenbi.android.servant
p373
(dp374
g10
I1
ssVcom.tencent.mobileqq
p375
(dp376
g10
F11.200000000000001
ssVcom.android.mms
p377
(dp378
g10
F16.699999999999999
ssVcom.android.thememanager
p379
(dp380
g10
F0.40000000000000002
ssVcom.sohu.inputmethod.sogou
p381
(dp382
g10
F0.90000000000000002
ssVcom.miui.voiceassist
p383
(dp384
g10
I1
ssVcom.netease.mobimail
p385
(dp386
g10
F2.7000000000000002
ssVcom.android.phone
p387
(dp388
g10
I3
ssVcom.happyelements.AndroidAnimal
p389
(dp390
g10
F2.2999999999999998
ssVcom.tencent.mm
p391
(dp392
g10
F11.1
sssg33
(dp393
Vcom.android.browser
p394
(dp395
g10
F2.6000000000000001
ssVcom.miui.notes
p396
(dp397
g10
I1
ssVcom.youdao.dict
p398
(dp399
g10
I1
ssVcom.android.calculator
p400
(dp401
g10
F0.90000000000000002
ssVcom.android.settings
p402
(dp403
g10
F1.3
ssVcom.android.mms
p404
(dp405
g10
F9
ssg49
(dp406
g10
F1.7
ssVcom.android.deskclock
p407
(dp408
g10
I1
ssVair.fyzb3
p409
(dp410
g10
I1
ssVcom.netease.mobimail
p411
(dp412
g10
I1
ssVcom.android.phone
p413
(dp414
g10
F1.7
ssVtv.pps.mobile
p415
(dp416
g10
F0.69999999999999996
ssg59
(dp417
g10
I1
ssVcom.tencent.mm
p418
(dp419
g10
F37.599999999999987
ssVcom.miui.antispam
p420
(dp421
g10
F5.3000000000000007
ssVcom.tencent.mobileqq
p422
(dp423
g10
F13.1
sssg35
(dp424
Vcom.android.browser
p425
(dp426
g10
I1
ssVorg.mozilla.firefox
p427
(dp428
g10
F0.40000000000000002
ssVcom.tencent.mm
p429
(dp430
g10
F0.69999999999999996
ssVcom.tencent.mobileqq
p431
(dp432
g10
F1.8999999999999999
sssg37
(dp433
Vcom.android.fileexplorer
p434
(dp435
g10
F1.3
ssg381
(dp436
g10
I1
ssVcom.android.mms
p437
(dp438
g10
I3
ssVcom.tencent.mobileqq
p439
(dp440
g10
F0.69999999999999996
sssg39
(dp441
g394
(dp442
g10
F26.699999999999992
ssVcom.comingx.athit
p443
(dp444
g10
F4.2000000000000002
ssVcom.sohu.inputmethod.sogou
p445
(dp446
g10
F0.69999999999999996
ssVcom.sina.weibo
p447
(dp448
g10
F4.2000000000000002
ssVcom.eg.android.AlipayGphone
p449
(dp450
g10
F1.8999999999999999
ssg192
(dp451
g10
F2.7999999999999998
ssVcom.chinamworld.main
p452
(dp453
g10
F1.3
ssVcn.wps.moffice_eng
p454
(dp455
g10
F5.5
ssVcom.android.soundrecorder
p456
(dp457
g10
F0.90000000000000002
ssVcom.jingdong.app.mall
p458
(dp459
g10
I1
ssg220
(dp460
g10
F1.1000000000000001
ssVcom.miui.gallery
p461
(dp462
g10
F3.5
ssVcom.tencent.mm
p463
(dp464
g10
F43.199999999999989
ssVcom.miui.antispam
p465
(dp466
g10
I1
ssVcom.android.calculator
p467
(dp468
g10
F3.5999999999999996
ssVcom.android.phone
p469
(dp470
g10
F4.0999999999999996
ssVcom.kugou.android
p471
(dp472
g10
I1
ssVcom.xiaomi.market
p473
(dp474
g10
F1.3
ssVcom.hyt.android.examin
p475
(dp476
g10
F3.5999999999999996
ssVcom.tencent.mobileqq
p477
(dp478
g10
F62.599999999999994
ssVcom.miui.notes
p479
(dp480
g10
I1
ssVcom.android.calendar
p481
(dp482
g10
I1
ssVcom.android.settings
p483
(dp484
g10
I1
ssVcom.android.mms
p485
(dp486
g10
F24.599999999999998
ssVcom.miui.networkassistant
p487
(dp488
g10
F3.5
sssg41
(dp489
Vcom.android.browser
p490
(dp491
g10
F7
ssg192
(dp492
g10
F5.5999999999999996
ssVcom.miui.weather2
p493
(dp494
g10
F0.40000000000000002
ssg240
(dp495
g10
F2.2999999999999998
ssVcom.android.mms
p496
(dp497
g10
F5.6000000000000005
ssVcom.kugou.android
p498
(dp499
g10
F2.2000000000000002
ssVcom.UCMobile
p500
(dp501
g10
I2
ssVcom.netease.mobimail
p502
(dp503
g10
F1.3999999999999999
ssVcom.android.settings
p504
(dp505
g10
F3.6000000000000001
ssVcom.miui.gallery
p506
(dp507
g10
F2
ssVcom.tencent.mm
p508
(dp509
g10
F11.700000000000001
ssVcom.eg.android.AlipayGphone
p510
(dp511
g10
F0.40000000000000002
ssVcom.tencent.mobileqq
p512
(dp513
g10
F13.399999999999999
sssg43
(dp514
Vcom.android.browser
p515
(dp516
g10
F8.8999999999999986
ssVco.runner.app
p517
(dp518
g10
F0.90000000000000002
ssVcom.youdao.dict
p519
(dp520
g10
I1
ssVcom.comingx.athit
p521
(dp522
g10
F1.3
ssVcom.android.thememanager
p523
(dp524
g10
F0.69999999999999996
ssVcom.android.deskclock
p525
(dp526
g10
F3.5999999999999996
ssVcom.sohu.inputmethod.sogou
p527
(dp528
g10
F0.69999999999999996
ssVcom.netease.mobimail
p529
(dp530
g10
F6.4000000000000004
ssVcom.yixia.xiaokaxiu
p531
(dp532
g10
I1
ssVcom.eg.android.AlipayGphone
p533
(dp534
g10
F1.8
ssVcom.zhihu.android
p535
(dp536
g10
F1.1000000000000001
ssVcom.chinamworld.main
p537
(dp538
g10
F1.7
ssVcom.android.soundrecorder
p539
(dp540
g10
I1
ssVcom.taobao.taobao
p541
(dp542
g10
I1
ssVair.fyzb3
p543
(dp544
g10
F0.40000000000000002
ssVcom.android.phone
p545
(dp546
g10
F0.69999999999999996
ssVcom.miui.gallery
p547
(dp548
g10
I1
ssVcom.tencent.mm
p549
(dp550
g10
F67.499999999999986
ssVcom.miui.antispam
p551
(dp552
g10
F0.90000000000000002
ssVcom.fenbi.android.servant
p553
(dp554
g10
F6.5000000000000009
ssg109
(dp555
g10
F9.4000000000000004
ssVcom.xiaomi.market
p556
(dp557
g10
F2.6000000000000001
ssVcom.happyelements.AndroidAnimal
p558
(dp559
g10
F1.7999999999999998
ssVcom.miui.weather2
p560
(dp561
g10
F0.90000000000000002
ssVcom.tencent.mobileqq
p562
(dp563
g10
F72.800000000000026
ssVcom.MobileTicket
p564
(dp565
g10
F2.3999999999999999
ssVcom.miui.notes
p566
(dp567
g10
F1.7
ssVcom.android.calendar
p568
(dp569
g10
F2.2999999999999998
ssVcom.android.settings
p570
(dp571
g10
I2
ssVcom.android.mms
p572
(dp573
g10
F20.999999999999996
ssVcom.baidu.BaiduMap
p574
(dp575
g10
I1
ssVcom.miui.video
p576
(dp577
g10
I1
ssVtv.pps.mobile
p578
(dp579
g10
F3.0999999999999996
ssVcom.miui.barcodescanner
p580
(dp581
g10
F2.8999999999999999
sssg45
(dp582
Vcom.android.packageinstaller
p583
(dp584
g10
I1
sssg47
(dp585
Vcom.kugou.android
p586
(dp587
g10
F1.6000000000000001
ssg125
(dp588
g10
I2
ssVcom.chinamworld.main
p589
(dp590
g10
F2.7000000000000002
ssVcom.android.browser
p591
(dp592
g10
I1
ssVcom.android.calculator
p593
(dp594
g10
F7.2000000000000002
ssVcom.tencent.mobileqq
p595
(dp596
g10
F33.599999999999987
ssVcom.sina.weibo
p597
(dp598
g10
F2.7000000000000002
ssVcom.sankuai.meituan
p599
(dp600
g10
I2
ssVcom.android.mms
p601
(dp602
g10
F18.700000000000003
ssVcom.xiaomi.market
p603
(dp604
g10
I1
ssg8
(dp605
g10
F0.40000000000000002
ssg487
(dp606
g10
I1
ssVcom.sohu.inputmethod.sogou
p607
(dp608
g10
I1
ssVcom.netease.mobimail
p609
(dp610
g10
F2.6000000000000001
ssVcom.android.settings
p611
(dp612
g10
F1.3999999999999999
ssg159
(dp613
g10
F0.69999999999999996
ssVcom.tencent.mm
p614
(dp615
g10
F20.800000000000001
ssVcom.android.phone
p616
(dp617
g10
F1.8999999999999999
sssg49
(dp618
Vcom.chinamworld.main
p619
(dp620
g10
F1.8999999999999999
ssVcom.tencent.mobileqq
p621
(dp622
g10
F4.5
ssVcom.kugou.android
p623
(dp624
g10
F0.40000000000000002
ssVcom.xiaomi.market
p625
(dp626
g10
F0.69999999999999996
ssVcom.tencent.mm
p627
(dp628
g10
F5
ssVcom.yixia.xiaokaxiu
p629
(dp630
g10
F0.69999999999999996
sssg51
(dp631
Vcom.android.browser
p632
(dp633
g10
F2.3999999999999999
ssVcom.hyt.android.examin
p634
(dp635
g10
I1
ssVcom.tencent.mobileqq
p636
(dp637
g10
F0.40000000000000002
ssVcom.fenbi.android.servant
p638
(dp639
g10
F1.3
ssVsogou.mobile.explorer
p640
(dp641
g10
F0.90000000000000002
sssg53
(dp642
Vcom.android.browser
p643
(dp644
g10
F9.5
ssVcom.miui.barcodescanner
p645
(dp646
g10
F1.8999999999999999
ssVcom.tencent.mm
p647
(dp648
g10
F8.6999999999999993
ssVcom.kugou.android
p649
(dp650
g10
F6.4000000000000004
ssVcom.android.mms
p651
(dp652
g10
F0.90000000000000002
ssVcom.baidu.BaiduMap
p653
(dp654
g10
F0.90000000000000002
ssVcom.netease.mobimail
p655
(dp656
g10
I1
ssg161
(dp657
g10
F0.90000000000000002
ssVcom.android.camera
p658
(dp659
g10
F2.5
ssVcom.tencent.mobileqq
p660
(dp661
g10
F8.5999999999999996
sssg55
(dp662
Vcom.android.browser
p663
(dp664
g10
F5.3000000000000007
ssVcom.tencent.mobileqq
p665
(dp666
g10
F5.6000000000000005
ssg498
(dp667
g10
I1
ssg473
(dp668
g10
I1
ssVcom.UCMobile
p669
(dp670
g10
F1.8999999999999999
ssg502
(dp671
g10
F2.7000000000000002
ssVsogou.mobile.explorer
p672
(dp673
g10
F2.3999999999999999
ssVcom.android.camera
p674
(dp675
g10
I1
ssg506
(dp676
g10
F2.5999999999999996
ssVcom.tencent.mm
p677
(dp678
g10
F3.5999999999999996
sssg57
(dp679
g51
(dp680
g10
F0.90000000000000002
ssVcom.android.browser
p681
(dp682
g10
F6.3000000000000007
ssg452
(dp683
g10
I1
ssg638
(dp684
g10
F1.7
ssg105
(dp685
g10
I1
ssVcom.tencent.mobileqq
p686
(dp687
g10
F10.300000000000001
ssVcom.comingx.athit
p688
(dp689
g10
F3.1000000000000001
ssVcom.xiaomi.market
p690
(dp691
g10
I1
ssVcom.android.calculator
p692
(dp693
g10
F5.7000000000000002
ssg445
(dp694
g10
F0.90000000000000002
ssVcom.netease.mobimail
p695
(dp696
g10
F4.2000000000000002
ssVcom.android.phone
p697
(dp698
g10
F2.8999999999999999
ssg640
(dp699
g10
F1.3
ssVcom.alibaba.android.rimet
p700
(dp701
g10
F1.7
ssVcom.tencent.mm
p702
(dp703
g10
F4.7000000000000002
ssVcom.android.settings
p704
(dp705
g10
F1.3
sssg59
(dp706
Vcom.android.browser
p707
(dp708
g10
F1.7
ssVcom.youdao.dict
p709
(dp710
g10
I1
ssVcom.sina.weibo
p711
(dp712
g10
I1
ssVcom.android.packageinstaller
p713
(dp714
g10
F0.90000000000000002
ssVcom.android.mms
p715
(dp716
g10
F12.300000000000001
ssVcom.baidu.BaiduMap
p717
(dp718
g10
F0.90000000000000002
ssg445
(dp719
g10
I1
ssVcom.tencent.mm
p720
(dp721
g10
F9
ssg629
(dp722
g10
F1.8999999999999999
ssVcom.eg.android.AlipayGphone
p723
(dp724
g10
I2
ssVcom.tencent.mobileqq
p725
(dp726
g10
F3.7999999999999998
sssg61
(dp727
Vcom.android.browser
p728
(dp729
g10
F6.3000000000000007
ssVcom.tencent.mm
p730
(dp731
g10
F10.800000000000002
ssVcom.comingx.athit
p732
(dp733
g10
I1
ssVcom.android.mms
p734
(dp735
g10
F1.8999999999999999
ssVcom.android.fileexplorer
p736
(dp737
g10
F2.3999999999999999
ssVcom.netease.mobimail
p738
(dp739
g10
F4.7999999999999998
ssg203
(dp740
g10
F0.90000000000000002
ssVcom.android.camera
p741
(dp742
g10
I1
ssVcom.tencent.mobileqq
p743
(dp744
g10
F12
ssVcom.android.phone
p745
(dp746
g10
I1
sssg63
(dp747
Vcom.tencent.mobileqq
p748
(dp749
g10
I1
ssVcom.android.mms
p750
(dp751
g10
I1
sssg65
(dp752
Vcom.android.fileexplorer
p753
(dp754
g10
I1
sssg67
(dp755
Vcom.android.browser
p756
(dp757
g10
F3.2999999999999998
ssVcom.tencent.mobileqq
p758
(dp759
g10
F2
ssVcom.comingx.athit
p760
(dp761
g10
F3
ssVcom.android.mms
p762
(dp763
g10
F0.90000000000000002
ssVair.fyzb3
p764
(dp765
g10
F2.8999999999999999
ssVcom.nowcoder.app.florida
p766
(dp767
g10
I1
ssg250
(dp768
g10
F0.90000000000000002
ssVcom.android.settings
p769
(dp770
g10
F3
ssVcom.tencent.mm
p771
(dp772
g10
F4.4000000000000004
ssg45
(dp773
g10
F2.2999999999999998
sssg69
(dp774
Vcom.android.calculator
p775
(dp776
g10
I1
ssVcom.tencent.mm
p777
(dp778
g10
F1.7
ssVcom.android.mms
p779
(dp780
g10
I1
ssVcom.baidu.BaiduMap
p781
(dp782
g10
I2
ssVcom.miui.barcodescanner
p783
(dp784
g10
F1.7
ssVcom.android.settings
p785
(dp786
g10
I1
ssg159
(dp787
g10
F0.90000000000000002
ssVcom.tencent.mobileqq
p788
(dp789
g10
F7.8000000000000007
ssVcom.eg.android.AlipayGphone
p790
(dp791
g10
F6.7000000000000002
sssg71
(dp792
Vcom.miui.notes
p793
(dp794
g10
I1
ssVcom.android.calculator
p795
(dp796
g10
F3
ssVcom.tencent.mm
p797
(dp798
g10
F12.4
ssVcom.android.settings
p799
(dp800
g10
F1.3999999999999999
ssVcom.android.mms
p801
(dp802
g10
F3.8999999999999999
ssVcom.xiaomi.market
p803
(dp804
g10
I1
ssVcom.nowcoder.app.florida
p805
(dp806
g10
F0.40000000000000002
ssVcom.android.phone
p807
(dp808
g10
F3.4000000000000004
ssVcom.happyelements.AndroidAnimal
p809
(dp810
g10
F0.90000000000000002
ssVcom.android.camera
p811
(dp812
g10
F2.8999999999999999
ssVcom.sina.weibo
p813
(dp814
g10
I1
ssVcom.miui.antispam
p815
(dp816
g10
F0.90000000000000002
ssVcom.eg.android.AlipayGphone
p817
(dp818
g10
F2.5999999999999996
ssVcom.tencent.mobileqq
p819
(dp820
g10
F11.300000000000001
sssg73
(dp821
Vcom.tencent.mm
p822
(dp823
g10
F3.6999999999999997
ssVcom.android.mms
p824
(dp825
g10
F0.90000000000000002
ssVcom.netease.mobimail
p826
(dp827
g10
I1
ssVcom.android.camera
p828
(dp829
g10
I1
ssVcom.tencent.mobileqq
p830
(dp831
g10
F2.6000000000000001
ssVcom.miui.antispam
p832
(dp833
g10
I1
sssg75
(dp834
Vcom.android.browser
p835
(dp836
g10
I1
ssVcom.android.calculator
p837
(dp838
g10
F1.8999999999999999
ssVcom.sina.weibo
p839
(dp840
g10
I1
ssVcom.tencent.mm
p841
(dp842
g10
I2
ssVcom.android.mms
p843
(dp844
g10
I1
ssg181
(dp845
g10
F0.90000000000000002
ssVcom.netease.mobimail
p846
(dp847
g10
I1
ssVcom.android.phone
p848
(dp849
g10
I1
ssVcom.tencent.mobileqq
p850
(dp851
g10
F1.7
sssg77
(dp852
Vcom.tencent.mm
p853
(dp854
g10
F22.199999999999999
ssVcom.comingx.athit
p855
(dp856
g10
I1
ssVcom.android.mms
p857
(dp858
g10
I2
ssVtv.pps.mobile
p859
(dp860
g10
F2.1000000000000001
ssVcom.netease.mobimail
p861
(dp862
g10
I1
ssVcom.android.settings
p863
(dp864
g10
F0.69999999999999996
ssVcom.sina.weibo
p865
(dp866
g10
F0.90000000000000002
ssVcom.tencent.mobileqq
p867
(dp868
g10
F3.5
sssg79
(dp869
Vcom.android.browser
p870
(dp871
g10
F2.6000000000000001
ssVcom.android.calendar
p872
(dp873
g10
F1.7
ssVcom.fenbi.android.servant
p874
(dp875
g10
F2.2999999999999998
ssg400
(dp876
g10
I1
ssVcom.tencent.mm
p877
(dp878
g10
F17.299999999999997
ssg67
(dp879
g10
F5.3000000000000007
ssg760
(dp880
g10
F1.3
ssg762
(dp881
g10
F4.2999999999999998
ssVcom.xiaomi.market
p882
(dp883
g10
I1
ssVtv.pps.mobile
p884
(dp885
g10
F4.6000000000000005
ssVcom.sina.weibo
p886
(dp887
g10
F1.1000000000000001
ssVcom.happyelements.AndroidAnimal
p888
(dp889
g10
F1.8999999999999999
ssg758
(dp890
g10
F6.5999999999999996
ssg45
(dp891
g10
F2.3999999999999999
sssg81
(dp892
Vcom.kugou.android
p893
(dp894
g10
F0.69999999999999996
ssVcom.android.browser
p895
(dp896
g10
F2.2999999999999998
ssg199
(dp897
g10
I2
ssVcom.android.fileexplorer
p898
(dp899
g10
I1
ssVcom.android.calendar
p900
(dp901
g10
F1.8999999999999999
ssVcom.tencent.mm
p902
(dp903
g10
F5.4000000000000004
ssVcom.sina.weibo
p904
(dp905
g10
F0.90000000000000002
ssVcom.android.mms
p906
(dp907
g10
F2.7000000000000002
ssVcom.jingdong.app.mall
p908
(dp909
g10
F1.3999999999999999
ssVcom.xiaomi.market
p910
(dp911
g10
F0.90000000000000002
ssVcom.UCMobile
p912
(dp913
g10
F0.90000000000000002
ssVcom.netease.mobimail
p914
(dp915
g10
F0.90000000000000002
ssVcom.android.settings
p916
(dp917
g10
F1.7
ssVcom.android.camera
p918
(dp919
g10
F1.3999999999999999
ssVcom.miui.gallery
p920
(dp921
g10
F0.90000000000000002
ssVcom.tencent.mobileqq
p922
(dp923
g10
F6.2000000000000002
ssg832
(dp924
g10
F0.90000000000000002
sssg83
(dp925
sg85
(dp926
Vcom.android.browser
p927
(dp928
g10
F5.9000000000000004
ssg177
(dp929
g10
F0.90000000000000002
ssVcom.android.deskclock
p930
(dp931
g10
I1
ssVcom.netease.mobimail
p932
(dp933
g10
F4.5
ssVcom.sina.weibo
p934
(dp935
g10
I3
ssVcom.yixia.xiaokaxiu
p936
(dp937
g10
I1
ssg71
(dp938
g10
F21.800000000000001
ssVsogou.mobile.explorer
p939
(dp940
g10
I1
ssVcom.alibaba.android.rimet
p941
(dp942
g10
F7.6000000000000005
ssVcom.miui.gallery
p943
(dp944
g10
F1.3
ssVcom.tencent.mm
p945
(dp946
g10
F70.700000000000017
ssVcom.miui.antispam
p947
(dp948
g10
F8.3000000000000007
ssVcom.android.calculator
p949
(dp950
g10
I1
ssVcom.xiaomi.market
p951
(dp952
g10
F1.8999999999999999
ssVcom.android.camera
p953
(dp954
g10
F10.4
ssVcom.happyelements.AndroidAnimal
p955
(dp956
g10
I1
ssVcom.tencent.mobileqq
p957
(dp958
g10
F84.700000000000031
ssVcom.MobileTicket
p959
(dp960
g10
F0.40000000000000002
ssVcom.miui.notes
p961
(dp962
g10
I1
ssVcom.miui.networkassistant
p963
(dp964
g10
F0.90000000000000002
ssVcom.android.settings
p965
(dp966
g10
F5.3000000000000007
ssVcom.android.mms
p967
(dp968
g10
F30.099999999999991
ssVcom.baidu.BaiduMap
p969
(dp970
g10
I1
ssVtv.pps.mobile
p971
(dp972
g10
F1.7
ssg117
(dp973
g10
F4.7000000000000002
sssg87
(dp974
Vcom.tencent.mm
p975
(dp976
g10
I2
ssVcom.android.mms
p977
(dp978
g10
I1
ssVcom.tencent.mobileqq
p979
(dp980
g10
I1
ssVcom.android.phone
p981
(dp982
g10
F2.7000000000000002
sssg89
(dp983
Vcom.android.browser
p984
(dp985
g10
F4.2999999999999998
ssVorg.mozilla.firefox
p986
(dp987
g10
F0.90000000000000002
ssVcom.tencent.mm
p988
(dp989
g10
F13.9
ssVcom.comingx.athit
p990
(dp991
g10
I1
ssVcom.android.mms
p992
(dp993
g10
F0.90000000000000002
ssVcom.android.fileexplorer
p994
(dp995
g10
F2.7000000000000002
ssVcom.netease.mobimail
p996
(dp997
g10
F2.6000000000000001
ssg672
(dp998
g10
F1.3999999999999999
ssVcom.android.camera
p999
(dp1000
g10
F5.0999999999999996
ssVcom.tencent.mobileqq
p1001
(dp1002
g10
F16.199999999999999
sssg91
(dp1003
g8
(dp1004
g10
F2
ssg11
(dp1005
g10
F75.000000000000028
ssg15
(dp1006
g10
F9.5999999999999996
ssg398
(dp1007
g10
F1.8999999999999999
ssVcom.ss.android.article.news
p1008
(dp1009
g10
F2.5
ssVcom.comingx.athit
p1010
(dp1011
g10
F21.499999999999996
ssg177
(dp1012
g10
F4.2000000000000002
ssVcom.android.deskclock
p1013
(dp1014
g10
F10.700000000000003
ssg912
(dp1015
g10
F1.8999999999999999
ssg13
(dp1016
g10
F0.69999999999999996
ssVcom.miui.voiceassist
p1017
(dp1018
g10
F1.7
ssg529
(dp1019
g10
F77.300000000000026
ssg43
(dp1020
g10
F87.800000000000068
ssVcom.yixia.xiaokaxiu
p1021
(dp1022
g10
F1.6000000000000001
ssVcom.eg.android.AlipayGphone
p1023
(dp1024
g10
F38.29999999999999
ssg49
(dp1025
g10
F1.3999999999999999
ssVcom.tsingzone.questionbank
p1026
(dp1027
g10
F1.7
ssg535
(dp1028
g10
F13.1
ssVorg.mozilla.firefox
p1029
(dp1030
g10
F3
ssg57
(dp1031
g10
F7.0000000000000009
ssg59
(dp1032
g10
F8.4000000000000004
ssg195
(dp1033
g10
F12.100000000000001
ssVcom.qihoo.yunpan
p1034
(dp1035
g10
I1
ssg322
(dp1036
g10
F1.7
ssVcom.sankuai.meituan
p1037
(dp1038
g10
F6
ssVcom.android.soundrecorder
p1039
(dp1040
g10
F5.0999999999999996
ssVair.fyzb3
p1041
(dp1042
g10
F5.0000000000000009
ssVcom.nowcoder.app.florida
p1043
(dp1044
g10
F5.1000000000000005
ssg83
(dp1045
g10
F1.6000000000000001
ssVcom.android.phone
p1046
(dp1047
g10
F46.499999999999993
ssVcom.alibaba.android.rimet
p1048
(dp1049
g10
F0.90000000000000002
ssg89
(dp1050
g10
F12.300000000000002
ssVcom.tencent.mm
p1051
(dp1052
g10
F999.89999999999839
ssg93
(dp1053
g10
F18.100000000000001
ssVcom.fenbi.android.servant
p1054
(dp1055
g10
F11.800000000000001
ssg101
(dp1056
g10
F2.0999999999999996
ssg103
(dp1057
g10
F30.699999999999989
ssVsogou.mobile.explorer
p1058
(dp1059
g10
F17.899999999999999
ssg262
(dp1060
g10
F23.999999999999996
ssg224
(dp1061
g10
F7
ssVcom.android.fileexplorer
p1062
(dp1063
g10
F12.299999999999999
ssVcom.qihoo.browser
p1064
(dp1065
g10
F2.1000000000000001
ssg230
(dp1066
g10
F14.899999999999999
ssg493
(dp1067
g10
I1
ssg123
(dp1068
g10
F1.1000000000000001
ssVcom.MobileTicket
p1069
(dp1070
g10
F9.7999999999999989
ssg127
(dp1071
g10
F0.69999999999999996
ssg129
(dp1072
g10
F5.5
ssVcom.android.calendar
p1073
(dp1074
g10
F10.4
ssVcom.android.settings
p1075
(dp1076
g10
F53.899999999999991
ssVcom.android.mms
p1077
(dp1078
g10
F180.50000000000009
ssg139
(dp1079
g10
F15.1
ssg141
(dp1080
g10
F0.90000000000000002
ssg143
(dp1081
g10
I1
ssVtv.pps.mobile
p1082
(dp1083
g10
F22.099999999999994
ssg147
(dp1084
g10
I1
ssg645
(dp1085
g10
F2.5
ssVcom.android.camera
p1086
(dp1087
g10
F60.599999999999987
ssg161
(dp1088
g10
F1.3999999999999999
sssg93
(dp1089
Vcom.android.browser
p1090
(dp1091
g10
F1.3
ssVcom.MobileTicket
p1092
(dp1093
g10
I1
ssVcom.android.calculator
p1094
(dp1095
g10
F1.7
ssg965
(dp1096
g10
F9.3000000000000007
ssVcom.tencent.mm
p1097
(dp1098
g10
F11.800000000000001
ssVcom.android.soundrecorder
p1099
(dp1100
g10
F1.8999999999999999
ssVcom.android.mms
p1101
(dp1102
g10
F37.5
ssVcom.jingdong.app.mall
p1103
(dp1104
g10
F0.90000000000000002
ssg413
(dp1105
g10
F2.2999999999999998
ssVcom.happyelements.AndroidAnimal
p1106
(dp1107
g10
F3.0999999999999996
ssVcom.tencent.mobileqq
p1108
(dp1109
g10
F13.9
sssg95
(dp1110
Vcom.tencent.mobileqq
p1111
(dp1112
g10
I1
sssg97
(dp1113
Vcom.android.calculator
p1114
(dp1115
g10
F0.90000000000000002
ssVcom.tencent.mm
p1116
(dp1117
g10
F1.7
sssg99
(dp1118
Vcom.kugou.android
p1119
(dp1120
g10
F3.7000000000000002
ssVcom.android.browser
p1121
(dp1122
g10
F3.7000000000000002
ssVcom.MobileTicket
p1123
(dp1124
g10
F1.8999999999999999
ssg872
(dp1125
g10
F1.3
ssVcom.sina.weibo
p1126
(dp1127
g10
F5.2000000000000002
ssVcom.android.phone
p1128
(dp1129
g10
I1
ssVcom.android.mms
p1130
(dp1131
g10
F3.7999999999999998
ssVcom.xiaomi.market
p1132
(dp1133
g10
I1
ssVcom.android.deskclock
p1134
(dp1135
g10
F0.90000000000000002
ssVair.fyzb3
p1136
(dp1137
g10
F3.4000000000000004
ssg1026
(dp1138
g10
F1.3
ssVcom.android.settings
p1139
(dp1140
g10
F1.3999999999999999
ssVcom.android.camera
p1141
(dp1142
g10
F0.90000000000000002
ssg634
(dp1143
g10
F2.3999999999999999
ssVcom.tencent.mm
p1144
(dp1145
g10
F18.199999999999999
ssVcom.eg.android.AlipayGphone
p1146
(dp1147
g10
I1
ssVcom.tencent.mobileqq
p1148
(dp1149
g10
F11
sssg101
(dp1150
Vcom.tencent.mobileqq
p1151
(dp1152
g10
I1
sssg103
(dp1153
g586
(dp1154
g10
I2
ssg51
(dp1155
g10
F0.40000000000000002
ssVcom.hyt.android.examin
p1156
(dp1157
g10
F7.7000000000000002
ssVco.runner.app
p1158
(dp1159
g10
F1.6000000000000001
ssVcom.fenbi.android.servant
p1160
(dp1161
g10
F2
ssVcom.android.browser
p1162
(dp1163
g10
F1.8999999999999999
ssg29
(dp1164
g10
I1
ssVcom.tencent.mm
p1165
(dp1166
g10
F31.399999999999999
ssVcom.sina.weibo
p1167
(dp1168
g10
F2.4000000000000004
ssVcom.comingx.athit
p1169
(dp1170
g10
F3.1999999999999997
ssVcom.android.mms
p1171
(dp1172
g10
F10
ssg690
(dp1173
g10
F2
ssVcom.chinamworld.main
p1174
(dp1175
g10
F0.69999999999999996
ssVcom.miui.antispam
p1176
(dp1177
g10
I1
ssVcom.netease.mobimail
p1178
(dp1179
g10
F3.7000000000000002
ssVcom.android.settings
p1180
(dp1181
g10
F1.3
ssVcom.android.camera
p1182
(dp1183
g10
F5.5
ssVcom.miui.gallery
p1184
(dp1185
g10
F0.90000000000000002
ssVcom.tencent.mobileqq
p1186
(dp1187
g10
F32.899999999999991
ssVcom.android.phone
p1188
(dp1189
g10
I1
ssVcom.eg.android.AlipayGphone
p1190
(dp1191
g10
F9
sssg105
(dp1192
Vcom.android.settings
p1193
(dp1194
g10
I1
ssVcom.tencent.mm
p1195
(dp1196
g10
F2.3999999999999999
ssVcom.netease.mobimail
p1197
(dp1198
g10
F0.90000000000000002
ssVcom.tencent.mobileqq
p1199
(dp1200
g10
F1.7
sssg107
(dp1201
g11
(dp1202
g10
F117.50000000000013
ssg13
(dp1203
g10
F0.40000000000000002
ssVco.runner.app
p1204
(dp1205
g10
F6.8000000000000007
ssg398
(dp1206
g10
F2.7000000000000002
ssVcom.ss.android.article.news
p1207
(dp1208
g10
F7.4000000000000004
ssVcom.comingx.athit
p1209
(dp1210
g10
F32.79999999999999
ssVcom.miui.weather2
p1211
(dp1212
g10
I1
ssg27
(dp1213
g10
I4
ssg31
(dp1214
g10
F19.100000000000001
ssg33
(dp1215
g10
F34.399999999999991
ssg183
(dp1216
g10
F3.9000000000000004
ssg161
(dp1217
g10
F0.69999999999999996
ssg39
(dp1218
g10
F63.599999999999994
ssVcom.sina.weibo
p1219
(dp1220
g10
F81.099999999999994
ssVcom.yixia.xiaokaxiu
p1221
(dp1222
g10
F28.29999999999999
ssVcom.eg.android.AlipayGphone
p1223
(dp1224
g10
F38.699999999999996
ssg51
(dp1225
g10
F0.69999999999999996
ssVcom.zhihu.android
p1226
(dp1227
g10
F12.4
ssg1029
(dp1228
g10
F9.3000000000000007
ssg57
(dp1229
g10
F11.100000000000001
ssVcom.chinamworld.main
p1230
(dp1231
g10
F14.5
ssg61
(dp1232
g10
F11.800000000000001
ssVoffcn.adnroid.newsletter_politics
p1233
(dp1234
g10
I1
ssg65
(dp1235
g10
I1
ssVcom.android.packageinstaller
p1236
(dp1237
g10
F8.5000000000000018
ssg599
(dp1238
g10
F2.5999999999999996
ssVcom.android.soundrecorder
p1239
(dp1240
g10
F14.900000000000002
ssVcom.jingdong.app.mall
p1241
(dp1242
g10
I1
ssVair.fyzb3
p1243
(dp1244
g10
F11.300000000000001
ssg1043
(dp1245
g10
F9.5
ssg83
(dp1246
g10
F1.1000000000000001
ssg85
(dp1247
g10
F52.599999999999994
ssVcom.alibaba.android.rimet
p1248
(dp1249
g10
I2
ssg547
(dp1250
g10
F17.000000000000004
ssVcom.tencent.mobileqq
p1251
(dp1252
g10
F962.69999999999834
ssVcom.miui.antispam
p1253
(dp1254
g10
F23.799999999999994
ssg97
(dp1255
g10
I1
ssVcom.miui.networkassistant
p1256
(dp1257
g10
I3
ssg99
(dp1258
g10
F18.099999999999998
ssg101
(dp1259
g10
F2.7999999999999998
ssg103
(dp1260
g10
F40.799999999999997
ssg41
(dp1261
g10
F17.100000000000001
ssg109
(dp1262
g10
F29.999999999999993
ssVcom.xiaomi.market
p1263
(dp1264
g10
F13.1
ssg1062
(dp1265
g10
F11.6
ssVcom.miui.yellowpage
p1266
(dp1267
g10
F1.7
ssg119
(dp1268
g10
F1.1000000000000001
ssg383
(dp1269
g10
F0.90000000000000002
ssg123
(dp1270
g10
F2.3999999999999999
ssg125
(dp1271
g10
F5.8000000000000007
ssg238
(dp1272
g10
F7.8000000000000016
ssVcom.UCMobile
p1273
(dp1274
g10
F2.3999999999999999
ssg481
(dp1275
g10
F12.6
ssg135
(dp1276
g10
F54.899999999999991
ssVcom.android.mms
p1277
(dp1278
g10
F213.40000000000009
ssg139
(dp1279
g10
F19.799999999999994
ssg141
(dp1280
g10
F1.6000000000000001
ssVtv.pps.mobile
p1281
(dp1282
g10
F15.1
ssVcom.ggeye.kaoshi.gwy
p1283
(dp1284
g10
I1
ssg149
(dp1285
g10
F1.8999999999999999
ssg250
(dp1286
g10
F2.0999999999999996
ssg153
(dp1287
g10
I1
ssg155
(dp1288
g10
F0.69999999999999996
ssg1086
(dp1289
g10
F70.100000000000009
ssg159
(dp1290
g10
F1.3999999999999999
sssg109
(dp1291
Vcom.android.browser
p1292
(dp1293
g10
F13.300000000000001
ssVorg.mozilla.firefox
p1294
(dp1295
g10
I1
ssVco.runner.app
p1296
(dp1297
g10
I3
ssg259
(dp1298
g10
F1.7
ssVcom.fenbi.android.servant
p1299
(dp1300
g10
I4
ssVcom.zhihu.android
p1301
(dp1302
g10
F4.5
ssVcom.android.calculator
p1303
(dp1304
g10
F0.90000000000000002
ssVcom.tencent.mobileqq
p1305
(dp1306
g10
F19.300000000000001
ssVcom.sina.weibo
p1307
(dp1308
g10
F7.0000000000000009
ssVcom.meitu.meipaimv
p1309
(dp1310
g10
I1
ssVcom.android.mms
p1311
(dp1312
g10
I1
ssVcom.android.deskclock
p1313
(dp1314
g10
I1
ssg183
(dp1315
g10
F0.90000000000000002
ssVcom.netease.mobimail
p1316
(dp1317
g10
F4.5999999999999996
ssVsogou.mobile.explorer
p1318
(dp1319
g10
F0.90000000000000002
ssg13
(dp1320
g10
I1
ssVcom.tencent.mm
p1321
(dp1322
g10
F23.599999999999998
ssVcom.yixia.xiaokaxiu
p1323
(dp1324
g10
F2.3999999999999999
ssVcom.eg.android.AlipayGphone
p1325
(dp1326
g10
I1
ssVcom.android.settings
p1327
(dp1328
g10
I1
sssg111
(dp1329
Vcom.android.browser
p1330
(dp1331
g10
F5.1000000000000005
ssg49
(dp1332
g10
F1.1000000000000001
ssg19
(dp1333
g10
I1
ssg25
(dp1334
g10
F1.6000000000000001
ssg352
(dp1335
g10
F1.1000000000000001
ssg13
(dp1336
g10
F0.90000000000000002
ssg39
(dp1337
g10
F2.1000000000000001
ssg77
(dp1338
g10
F1.8999999999999999
ssg51
(dp1339
g10
I1
ssg59
(dp1340
g10
F0.90000000000000002
ssVcn.wps.moffice_eng
p1341
(dp1342
g10
F0.40000000000000002
ssg67
(dp1343
g10
F0.90000000000000002
ssVcom.android.soundrecorder
p1344
(dp1345
g10
I1
ssg45
(dp1346
g10
F0.40000000000000002
ssg119
(dp1347
g10
I1
ssVair.fyzb3
p1348
(dp1349
g10
F1.7
ssVcom.nowcoder.app.florida
p1350
(dp1351
g10
F0.90000000000000002
ssg83
(dp1352
g10
F1.8999999999999999
ssg640
(dp1353
g10
F0.69999999999999996
ssVcom.tencent.mobileqq
p1354
(dp1355
g10
F4.8000000000000007
ssg99
(dp1356
g10
F2.7000000000000002
ssg623
(dp1357
g10
F1.7
ssg226
(dp1358
g10
F2.0999999999999996
ssg33
(dp1359
g10
F2.7999999999999998
ssg481
(dp1360
g10
F0.90000000000000002
ssVcom.tencent.mm
p1361
(dp1362
g10
F7.8999999999999995
ssg715
(dp1363
g10
F0.69999999999999996
ssVtv.pps.mobile
p1364
(dp1365
g10
I1
sssg113
(dp1366
Vcom.android.browser
p1367
(dp1368
g10
F5.7000000000000002
ssg61
(dp1369
g10
F5.0999999999999996
ssg107
(dp1370
g10
F11.800000000000002
ssVcom.android.mms
p1371
(dp1372
g10
I1
ssVcom.baidu.netdisk
p1373
(dp1374
g10
F1.7
ssg141
(dp1375
g10
I1
ssg354
(dp1376
g10
F2.7000000000000002
ssVcom.UCMobile
p1377
(dp1378
g10
I1
ssg65
(dp1379
g10
F1.3
ssg155
(dp1380
g10
I1
ssVcom.android.camera
p1381
(dp1382
g10
I1
ssg343
(dp1383
g10
F2.7000000000000002
ssVcom.tencent.mobileqq
p1384
(dp1385
g10
F11.6
sssg115
(dp1386
Vcom.android.browser
p1387
(dp1388
g10
F4.4000000000000004
ssg312
(dp1389
g10
F1.8
ssVcom.tencent.mobileqq
p1390
(dp1391
g10
F3
ssVsogou.mobile.explorer
p1392
(dp1393
g10
F0.69999999999999996
ssVcom.xiaomi.market
p1394
(dp1395
g10
F0.69999999999999996
ssVcom.UCMobile
p1396
(dp1397
g10
F4.8000000000000007
ssVcom.android.settings
p1398
(dp1399
g10
I1
ssVcom.tencent.mm
p1400
(dp1401
g10
F0.40000000000000002
sssg117
(dp1402
Vcom.android.soundrecorder
p1403
(dp1404
g10
F1.7
ssVcom.android.phone
p1405
(dp1406
g10
F3.7000000000000002
sssg119
(dp1407
g33
(dp1408
g10
I1
sssg121
(dp1409
Vcom.android.camera
p1410
(dp1411
g10
I1
ssVcom.tencent.mm
p1412
(dp1413
g10
I1
ssVcom.android.mms
p1414
(dp1415
g10
I1
ssVcom.tencent.mobileqq
p1416
(dp1417
g10
F2
sssg123
(dp1418
g481
(dp1419
g10
F0.40000000000000002
ssVcom.tencent.mm
p1420
(dp1421
g10
F2.6000000000000001
ssg39
(dp1422
g10
F1.1000000000000001
ssg1263
(dp1423
g10
F2
sssg125
(dp1424
Vcom.android.browser
p1425
(dp1426
g10
I1
ssVcn.wps.moffice_eng
p1427
(dp1428
g10
F0.40000000000000002
ssVcom.zhihu.android
p1429
(dp1430
g10
F1.7
ssVcom.tencent.mobileqq
p1431
(dp1432
g10
F7.5999999999999996
ssVcom.sina.weibo
p1433
(dp1434
g10
I1
ssVcom.android.mms
p1435
(dp1436
g10
I1
ssVcom.netease.mobimail
p1437
(dp1438
g10
F0.69999999999999996
ssVcom.android.phone
p1439
(dp1440
g10
F1.8999999999999999
ssVcom.tencent.mm
p1441
(dp1442
g10
F3.6999999999999997
sssg127
(dp1443
Vcom.android.browser
p1444
(dp1445
g10
F3.5
ssVco.runner.app
p1446
(dp1447
g10
I1
ssVcn.wps.moffice_eng
p1448
(dp1449
g10
F0.69999999999999996
ssg264
(dp1450
g10
F0.90000000000000002
ssVcom.xiaomi.market
p1451
(dp1452
g10
I1
sssg129
(dp1453
Vcom.android.browser
p1454
(dp1455
g10
F4.4000000000000004
ssVcom.miui.weather2
p1456
(dp1457
g10
I1
ssVcn.wps.moffice_eng
p1458
(dp1459
g10
I1
ssg922
(dp1460
g10
F4
ssg1239
(dp1461
g10
F0.90000000000000002
ssg81
(dp1462
g10
I1
ssVcom.android.phone
p1463
(dp1464
g10
I1
ssg558
(dp1465
g10
F1.7
ssVcom.android.camera
p1466
(dp1467
g10
I2
ssVcom.tencent.mm
p1468
(dp1469
g10
F6.3000000000000007
sssg131
(dp1470
Vcom.android.browser
p1471
(dp1472
g10
F3.2999999999999998
ssVcom.tencent.mobileqq
p1473
(dp1474
g10
F6
ssg1373
(dp1475
g10
F1.3
ssg354
(dp1476
g10
F2
ssg226
(dp1477
g10
F3.1000000000000001
ssVcom.qihoo.browser
p1478
(dp1479
g10
F1.3999999999999999
ssVcom.netease.mobimail
p1480
(dp1481
g10
F1.3
ssVsogou.mobile.explorer
p1482
(dp1483
g10
I1
ssVcom.tencent.mm
p1484
(dp1485
g10
F4.0999999999999996
ssg510
(dp1486
g10
F0.69999999999999996
ssVcom.android.settings
p1487
(dp1488
g10
F1.3
sssg133
(dp1489
Vcom.chinamworld.main
p1490
(dp1491
g10
F1.3
ssVcom.sina.weibo
p1492
(dp1493
g10
F0.40000000000000002
ssVcom.android.mms
p1494
(dp1495
g10
F1.7
ssg407
(dp1496
g10
F0.40000000000000002
ssVair.fyzb3
p1497
(dp1498
g10
I1
ssVcom.netease.mobimail
p1499
(dp1500
g10
F1.8999999999999999
ssVcom.android.settings
p1501
(dp1502
g10
F0.69999999999999996
ssVcom.happyelements.AndroidAnimal
p1503
(dp1504
g10
F3.3999999999999995
ssVcom.android.camera
p1505
(dp1506
g10
F2.6999999999999997
ssVcom.tencent.mm
p1507
(dp1508
g10
F14.6
ssVcom.tencent.mobileqq
p1509
(dp1510
g10
F10.800000000000001
sssg135
(dp1511
g8
(dp1512
g10
F4.4000000000000004
ssVcom.android.browser
p1513
(dp1514
g10
F17.599999999999998
ssVcom.comingx.athit
p1515
(dp1516
g10
F3.4000000000000004
ssVcom.android.thememanager
p1517
(dp1518
g10
F4
ssg1273
(dp1519
g10
F2
ssVcom.netease.mobimail
p1520
(dp1521
g10
I2
ssVcom.sina.weibo
p1522
(dp1523
g10
F3.6000000000000001
ssVcom.eg.android.AlipayGphone
p1524
(dp1525
g10
F0.90000000000000002
ssVcom.zhihu.android
p1526
(dp1527
g10
F2.6000000000000001
ssVorg.mozilla.firefox
p1528
(dp1529
g10
I1
ssg61
(dp1530
g10
F0.90000000000000002
ssVcom.sankuai.meituan
p1531
(dp1532
g10
F1.7
ssg1099
(dp1533
g10
F1.6000000000000001
ssVcom.nowcoder.app.florida
p1534
(dp1535
g10
F1.7
ssVsogou.mobile.explorer
p1536
(dp1537
g10
F12.800000000000001
ssVcom.tencent.mm
p1538
(dp1539
g10
F21.899999999999995
ssVcom.miui.antispam
p1540
(dp1541
g10
F8.0999999999999996
ssVcom.fenbi.android.servant
p1542
(dp1543
g10
F1.7
ssg209
(dp1544
g10
F2.8999999999999999
ssVcom.android.fileexplorer
p1545
(dp1546
g10
F2.2999999999999998
ssVcom.android.camera
p1547
(dp1548
g10
F4.0999999999999996
ssVcom.hyt.android.examin
p1549
(dp1550
g10
F0.69999999999999996
ssVcom.tencent.mobileqq
p1551
(dp1552
g10
F38.699999999999982
ssVcom.android.mms
p1553
(dp1554
g10
F3.2999999999999998
ssg578
(dp1555
g10
F0.40000000000000002
ssVcom.miui.yellowpage
p1556
(dp1557
g10
F0.90000000000000002
sssg137
(dp1558
g1367
(dp1559
g10
F25.399999999999991
ssVco.runner.app
p1560
(dp1561
g10
F1.3
ssVcom.ss.android.article.news
p1562
(dp1563
g10
I1
ssg760
(dp1564
g10
F3.7000000000000002
ssVcom.android.thememanager
p1565
(dp1566
g10
F0.90000000000000002
ssVcom.android.deskclock
p1567
(dp1568
g10
F9.9000000000000004
ssg527
(dp1569
g10
F0.40000000000000002
ssg529
(dp1570
g10
F29.199999999999992
ssVcom.sina.weibo
p1571
(dp1572
g10
F15.200000000000001
ssVcom.eg.android.AlipayGphone
p1573
(dp1574
g10
F17.899999999999999
ssg57
(dp1575
g10
F0.90000000000000002
ssVcom.chinamworld.main
p1576
(dp1577
g10
F6.9000000000000012
ssVoffcn.adnroid.newsletter_politics
p1578
(dp1579
g10
I1
ssVcom.android.packageinstaller
p1580
(dp1581
g10
F0.90000000000000002
ssg201
(dp1582
g10
F0.90000000000000002
ssVcom.android.soundrecorder
p1583
(dp1584
g10
F4.7000000000000002
ssg1103
(dp1585
g10
I1
ssVcom.taobao.taobao
p1586
(dp1587
g10
I1
ssVair.fyzb3
p1588
(dp1589
g10
I1
ssg209
(dp1590
g10
F26.800000000000001
ssVcom.alibaba.android.rimet
p1591
(dp1592
g10
F2.3999999999999999
ssVcom.miui.gallery
p1593
(dp1594
g10
F3.2999999999999998
ssVcom.tencent.mm
p1595
(dp1596
g10
F165.80000000000015
ssVcom.miui.antispam
p1597
(dp1598
g10
F32.399999999999991
ssVcom.fenbi.android.servant
p1599
(dp1600
g10
F3.3999999999999999
ssVcom.android.calculator
p1601
(dp1602
g10
F12.300000000000001
ssVsogou.mobile.explorer
p1603
(dp1604
g10
F2.2999999999999998
ssVcom.kugou.android
p1605
(dp1606
g10
F3.2999999999999998
ssg434
(dp1607
g10
F3.0999999999999996
ssVcom.happyelements.AndroidAnimal
p1608
(dp1609
g10
F4.0999999999999996
ssVcom.miui.weather2
p1610
(dp1611
g10
F3.6000000000000001
ssg123
(dp1612
g10
F2.5999999999999996
ssVcom.tencent.mobileqq
p1613
(dp1614
g10
F195.40000000000012
ssg564
(dp1615
g10
F1.7000000000000002
ssVcom.miui.player
p1616
(dp1617
g10
F0.90000000000000002
ssg129
(dp1618
g10
F3.4000000000000004
ssVcom.android.calendar
p1619
(dp1620
g10
F1.8
ssg1075
(dp1621
g10
F15.9
ssVcom.baidu.BaiduMap
p1622
(dp1623
g10
F4.7999999999999998
ssg37
(dp1624
g10
F1.8999999999999999
ssVtv.pps.mobile
p1625
(dp1626
g10
I1
ssVcom.ggeye.kaoshi.gwy
p1627
(dp1628
g10
I1
ssVcom.android.camera
p1629
(dp1630
g10
F9.8999999999999986
sssg139
(dp1631
Vcom.android.browser
p1632
(dp1633
g10
I2
ssVcom.android.settings
p1634
(dp1635
g10
I1
ssVcom.sina.weibo
p1636
(dp1637
g10
F0.69999999999999996
ssg201
(dp1638
g10
I1
ssVcom.android.mms
p1639
(dp1640
g10
I1
ssVcom.netease.mobimail
p1641
(dp1642
g10
I1
ssVcom.android.camera
p1643
(dp1644
g10
F2.8999999999999999
ssVcom.tencent.mm
p1645
(dp1646
g10
F21.099999999999998
ssVcom.eg.android.AlipayGphone
p1647
(dp1648
g10
I1
ssVcom.tencent.mobileqq
p1649
(dp1650
g10
I3
sssg141
(dp1651
g83
(dp1652
g10
F0.40000000000000002
ssVcom.tencent.mobileqq
p1653
(dp1654
g10
F0.90000000000000002
ssVcom.tencent.mm
p1655
(dp1656
g10
I1
ssVcom.xiaomi.market
p1657
(dp1658
g10
F0.69999999999999996
sssg143
(dp1659
Vcom.fenbi.android.servant
p1660
(dp1661
g10
F1.8999999999999999
sssg145
(dp1662
Vcom.android.browser
p1663
(dp1664
g10
F1.6000000000000001
ssg49
(dp1665
g10
F1.3
ssg874
(dp1666
g10
F0.69999999999999996
ssVcom.tencent.mobileqq
p1667
(dp1668
g10
F30.899999999999988
ssg67
(dp1669
g10
F0.40000000000000002
ssg109
(dp1670
g10
I1
ssVcom.android.mms
p1671
(dp1672
g10
F1.8999999999999999
ssg882
(dp1673
g10
F1.8
ssg79
(dp1674
g10
F5.8000000000000007
ssVcom.netease.mobimail
p1675
(dp1676
g10
F1.8999999999999999
ssVcom.android.phone
p1677
(dp1678
g10
I1
ssVcom.happyelements.AndroidAnimal
p1679
(dp1680
g10
F1.3999999999999999
ssVcom.tencent.mm
p1681
(dp1682
g10
F22.399999999999995
ssVcom.eg.android.AlipayGphone
p1683
(dp1684
g10
I1
sssg147
(dp1685
Vcom.android.calculator
p1686
(dp1687
g10
F0.69999999999999996
ssVcom.tencent.mobileqq
p1688
(dp1689
g10
F0.90000000000000002
ssVcom.tencent.mm
p1690
(dp1691
g10
I2
sssg149
(dp1692
Vcom.tencent.mm
p1693
(dp1694
g10
F1.8999999999999999
sssg151
(dp1695
Vcom.android.browser
p1696
(dp1697
g10
F6.8000000000000007
ssVcn.wps.moffice_eng
p1698
(dp1699
g10
F0.40000000000000002
ssVcom.sina.weibo
p1700
(dp1701
g10
F0.90000000000000002
ssVcom.android.packageinstaller
p1702
(dp1703
g10
F0.69999999999999996
ssVcom.xiaomi.market
p1704
(dp1705
g10
F0.69999999999999996
ssVcom.tencent.mm
p1706
(dp1707
g10
F3.9999999999999996
ssVcom.tencent.mobileqq
p1708
(dp1709
g10
I2
sssg153
(dp1710
sg155
(dp1711
Vcom.android.browser
p1712
(dp1713
g10
I1
ssVcom.tencent.mm
p1714
(dp1715
g10
F0.40000000000000002
ssVcn.wps.moffice_eng
p1716
(dp1717
g10
F0.69999999999999996
ssVcom.android.fileexplorer
p1718
(dp1719
g10
F0.90000000000000002
sssg157
(dp1720
Vcom.android.calculator
p1721
(dp1722
g10
F1.8
ssVcom.android.browser
p1723
(dp1724
g10
F4.5999999999999996
ssVcom.sankuai.meituan
p1725
(dp1726
g10
F0.69999999999999996
ssVcom.miui.notes
p1727
(dp1728
g10
I1
ssg17
(dp1729
g10
I1
ssg1160
(dp1730
g10
F2.5999999999999996
ssVcom.zhihu.android
p1731
(dp1732
g10
I2
ssVcom.android.calendar
p1733
(dp1734
g10
I2
ssVcom.tencent.mobileqq
p1735
(dp1736
g10
F63.799999999999983
ssVcom.android.phone
p1737
(dp1738
g10
F2.8999999999999999
ssVcom.android.mms
p1739
(dp1740
g10
F7.3000000000000007
ssVcom.baidu.BaiduMap
p1741
(dp1742
g10
I1
ssVcom.offcn.android.onlineexamination
p1743
(dp1744
g10
I1
ssVcom.android.soundrecorder
p1745
(dp1746
g10
I2
ssVcom.android.fileexplorer
p1747
(dp1748
g10
F3.1999999999999997
ssVcom.netease.mobimail
p1749
(dp1750
g10
F1.3
ssVcom.android.settings
p1751
(dp1752
g10
F8.7000000000000011
ssVcom.happyelements.AndroidAnimal
p1753
(dp1754
g10
I1
ssg1536
(dp1755
g10
F2.7000000000000002
ssVcom.miui.gallery
p1756
(dp1757
g10
F12.500000000000002
ssVcom.tencent.mm
p1758
(dp1759
g10
F42.099999999999994
sssg159
(dp1760
Vcom.tencent.mm
p1761
(dp1762
g10
I1
ssg790
(dp1763
g10
F0.90000000000000002
sssg161
(dp1764
ssS'edge'
p1765
g167
sS'graph'
p1766
(dp1767
sS'adjlist_dict_factory'
p1768
g164
sS'adj'
p1769
g167
sS'pred'
p1770
(dp1771
g8
(dp1772
Vcom.android.settings
p1773
g1512
sVcom.tencent.mobileqq
p1774
g1004
sVcom.eg.android.AlipayGphone
p1775
g605
ssg11
(dp1776
g398
g272
sVcom.ss.android.article.news
p1777
g289
sg1209
g311
sg1565
g361
sg1396
g1472
sg527
g426
sg411
g442
sg672
g491
sVcom.sina.weibo
p1778
g516
sVcom.eg.android.AlipayGphone
p1779
g592
sg51
g633
sg535
g644
sg192
g664
sVcom.chinamworld.main
p1780
g708
sg1341
g729
sg713
g757
sVcom.taobao.taobao
p1781
g836
sVair.fyzb3
p1782
g871
sVcom.nowcoder.app.florida
p1783
g896
sg545
g928
sg127
g1445
sVcom.tencent.mobileqq
p1784
g1005
sVcom.miui.antispam
p1785
g1091
sVcom.fenbi.android.servant
p1786
g1122
sVcom.android.calculator
p1787
g1163
sVcom.tencent.mm
p1788
g1202
sg222
g1293
sVcom.xiaomi.market
p1789
g1331
sVcom.android.fileexplorer
p1790
g1368
sg115
g1388
sVcom.happyelements.AndroidAnimal
p1791
g395
sVcom.hyt.android.examin
p1792
g682
sVcom.MobileTicket
p1793
g1426
sVcom.miui.gallery
p1794
g985
sg238
g1455
sg252
g1514
sVcom.android.mms
p1795
g1559
sg246
g1633
sVtv.pps.mobile
p1796
g1664
sg151
g1697
sg155
g1713
sVcom.android.camera
p1797
g1724
ssg13
(dp1798
g623
g1320
sVcom.tencent.mobileqq
p1799
g1016
sVcom.tencent.mm
p1800
g1203
sg625
g1336
ssg15
(dp1801
Vcom.android.browser
p1802
g173
sVcom.android.calculator
p1803
g1159
sVcom.android.mms
p1804
g1561
sg266
g1205
sVcom.kugou.android
p1805
g1297
sVcom.miui.player
p1806
g1447
sVcom.sina.weibo
p1807
g518
sg91
g1006
ssg17
(dp1808
Vcom.chinamworld.main
p1809
g710
sVcom.sina.weibo
p1810
g520
sVcom.happyelements.AndroidAnimal
p1811
g399
sVcom.android.camera
p1812
g1729
sVcom.tencent.mm
p1813
g1206
sVcom.tencent.mobileqq
p1814
g1007
ssg19
(dp1815
Vcom.tencent.mobileqq
p1816
g1009
sVcom.tencent.mm
p1817
g1208
sg294
g1563
sVcom.xiaomi.market
p1818
g1333
ssg21
(dp1819
Vcom.android.thememanager
p1820
g364
ssg23
(dp1821
Vcom.android.browser
p1822
g175
sg1156
g689
sg316
g733
sVcom.android.calculator
p1823
g1170
sVcom.tencent.mobileqq
p1824
g1011
sVcom.android.packageinstaller
p1825
g761
sg762
g1564
sVair.fyzb3
p1826
g880
sVcom.netease.mobimail
p1827
g444
sg338
g522
sVcom.miui.gallery
p1828
g991
sVcom.tencent.mm
p1829
g1210
sg1021
g856
sg349
g1516
ssg25
(dp1830
g352
g1475
sVcom.android.browser
p1831
g176
sg226
g1374
sg1789
g1334
ssg27
(dp1832
g515
g178
sVcom.sina.weibo
p1833
g524
sVcom.tencent.mm
p1834
g1213
sVcom.android.mms
p1835
g1566
sVcom.android.deskclock
p1836
g380
sg545
g929
sVcom.tencent.mobileqq
p1837
g1012
sVcom.android.settings
p1838
g1518
ssg29
(dp1839
Vcom.android.calculator
p1840
g1164
sVcom.android.camera
p1841
g1744
ssg31
(dp1842
Vcom.kugou.android
p1843
g1314
sVcom.android.browser
p1844
g180
sVcom.comingx.athit
p1845
g329
sVcom.youdao.dict
p1846
g280
sVcom.fenbi.android.servant
p1847
g1135
sg1619
g1496
sVcom.sina.weibo
p1848
g526
sVcom.tencent.mm
p1849
g1214
sVcom.android.mms
p1850
g1568
sVcom.android.phone
p1851
g931
sg1503
g408
sVcom.tencent.mobileqq
p1852
g1014
ssg33
(dp1853
Vcom.android.browser
p1854
g231
sVtv.pps.mobile
p1855
g1680
sg566
g1465
sg398
g282
sg1008
g300
sg1619
g1504
sVcom.tencent.mm
p1856
g1215
sVcom.sina.weibo
p1857
g559
sVcom.android.phone
p1858
g956
sVcom.android.mms
p1859
g1609
sg298
g1359
sg1013
g390
sVair.fyzb3
p1860
g889
sg1039
g810
sg119
g1408
sVcom.android.camera
p1861
g1754
sVcom.tencent.mobileqq
p1862
g1066
sVcom.miui.antispam
p1863
g1107
ssg35
(dp1864
Vcom.android.browser
p1865
g184
sg452
g719
sVcom.android.mms
p1866
g1569
sVcom.sina.weibo
p1867
g528
sg222
g1315
sg383
g436
sVcom.android.deskclock
p1868
g382
sVcom.netease.mobimail
p1869
g446
sg232
g694
sVcom.tencent.mm
p1870
g1216
sVcom.eg.android.AlipayGphone
p1871
g608
ssg37
(dp1872
g1868
g384
sVcom.tencent.mobileqq
p1873
g1018
sVcom.tencent.mm
p1874
g1269
sVcom.android.mms
p1875
g1624
ssg39
(dp1876
Vcom.android.browser
p1877
g186
sVcom.comingx.athit
p1878
g337
sVcom.android.deskclock
p1879
g386
sVcom.UCMobile
p1880
g1481
sg1571
g530
sg531
g862
sVcom.eg.android.AlipayGphone
p1881
g610
sVcom.zhihu.android
p1882
g656
sg192
g671
sVcom.hyt.android.examin
p1883
g696
sg1427
g739
sg73
g827
sVcom.taobao.taobao
p1884
g847
sVcom.nowcoder.app.florida
p1885
g915
sg220
g503
sg461
g997
sg1420
g1218
sVcom.android.calculator
p1886
g1179
sVcom.android.phone
p1887
g933
sVcom.kugou.android
p1888
g1317
sg1263
g1337
sg1791
g412
sVcom.android.email
p1889
g1422
sg1069
g1438
sg481
g1500
sVcom.tencent.mobileqq
p1890
g1019
sVcom.android.mms
p1891
g1570
sg1622
g1642
sg1796
g1676
sVcom.ggeye.kaoshi.gwy
p1892
g1198
sVcom.android.settings
p1893
g1521
sVcom.android.camera
p1894
g1750
ssg41
(dp1895
Vcom.kugou.android
p1896
g1319
sVcom.android.browser
p1897
g221
sg986
g673
sVcom.comingx.athit
p1898
g342
sVcom.tencent.mobileqq
p1899
g1059
sVcom.android.phone
p1900
g940
sVcom.android.mms
p1901
g1604
sg690
g1353
sg1273
g1483
sVcom.qihoo.browser
p1902
g1393
sVcom.netease.mobimail
p1903
g460
sVcom.android.settings
p1904
g1537
sVcom.android.camera
p1905
g1755
sg1794
g998
sVcom.tencent.mm
p1906
g1261
sVcom.hyt.android.examin
p1907
g699
sg51
g641
ssg43
(dp1908
Vcom.android.browser
p1909
g198
sVcom.comingx.athit
p1910
g339
sg529
g448
sVcom.yixia.xiaokaxiu
p1911
g866
sVcom.eg.android.AlipayGphone
p1912
g598
sVcom.chinamworld.main
p1913
g712
sVcom.android.soundrecorder
p1914
g814
sVcom.taobao.taobao
p1915
g840
sVair.fyzb3
p1916
g887
sg805
g905
sVcom.android.phone
p1917
g935
sVcom.tencent.mobileqq
p1918
g1020
sg1054
g1127
sVcom.android.calculator
p1919
g1168
sVcom.kugou.android
p1920
g1308
sVcom.MobileTicket
p1921
g1434
sVcom.android.calendar
p1922
g1493
sVcom.tencent.mm
p1923
g1220
sg1891
g1572
sg1622
g1637
sVcom.miui.barcodescanner
p1924
g1701
sVcom.android.settings
p1925
g1523
ssg45
(dp1926
g1348
g891
sg67
g773
sg882
g1346
ssg47
(dp1927
g586
g1326
sVcom.android.browser
p1928
g189
sVcom.chinamworld.main
p1929
g724
sVcom.fenbi.android.servant
p1930
g1147
sVcom.android.calculator
p1931
g1191
sVcom.tencent.mm
p1932
g1224
sg886
g534
sg599
g791
sVcom.android.mms
p1933
g1574
sVcom.baidu.BaiduMap
p1934
g1648
sVtv.pps.mobile
p1935
g1684
sg669
g1486
sVcom.netease.mobimail
p1936
g450
sVcom.android.soundrecorder
p1937
g818
sg1392
g511
sg159
g1763
sVcom.tencent.mobileqq
p1938
g1024
sg785
g1525
ssg49
(dp1939
g623
g1298
sg556
g1332
sg1364
g1665
sg13
g260
sg1679
g406
sVcom.tencent.mobileqq
p1940
g1025
ssg51
(dp1941
Vcom.fenbi.android.servant
p1942
g1138
sVcom.android.calculator
p1943
g1155
sVcom.tencent.mm
p1944
g1225
sg690
g1339
sg1907
g680
sVcom.tencent.mobileqq
p1945
g1027
ssg53
(dp1946
g643
g191
sVcom.MobileTicket
p1947
g1430
sVcom.android.settings
p1948
g1527
sVcom.tencent.mm
p1949
g1227
sg649
g1302
sVcom.android.camera
p1950
g1732
sVcom.sina.weibo
p1951
g536
sVcom.tencent.mobileqq
p1952
g1028
ssg55
(dp1953
Vcom.android.browser
p1954
g193
sVcom.tencent.mm
p1955
g1228
sVcom.comingx.athit
p1956
g313
sg498
g1295
sg332
g1389
sg527
g428
sg1903
g451
sg220
g492
sg506
g987
sVcom.tencent.mobileqq
p1957
g1030
sg1398
g1529
ssg57
(dp1958
g1026
g635
sg681
g233
sVcom.fenbi.android.servant
p1959
g1143
sg692
g1157
sVcom.tencent.mobileqq
p1960
g1031
sg688
g315
sVcom.android.mms
p1961
g1575
sg695
g476
sVcom.android.settings
p1962
g1550
sVcom.tencent.mm
p1963
g1229
ssg59
(dp1964
Vcom.android.browser
p1965
g194
sVcom.youku.phone
p1966
g620
sVcom.android.calendar
p1967
g1491
sVcom.tencent.mm
p1968
g1231
sVcom.android.mms
p1969
g1577
sg224
g1340
sVcom.android.calculator
p1970
g1175
sVcom.netease.mobimail
p1971
g453
sVcom.happyelements.AndroidAnimal
p1972
g417
sg232
g683
sg711
g538
sVcom.eg.android.AlipayGphone
p1973
g590
sVcom.tencent.mobileqq
p1974
g1032
ssg61
(dp1975
Vcom.android.browser
p1976
g196
sVcom.miui.notes
p1977
g1459
sg151
g1699
sg1777
g291
sg1069
g1428
sVcom.android.settings
p1978
g1530
sg521
g317
sVcom.xiaomi.market
p1979
g1342
sg1545
g1369
sVcom.netease.mobimail
p1980
g455
sg155
g1717
sg1616
g1449
sVcom.tencent.mm
p1981
g1232
sVcom.tencent.mobileqq
p1982
g1033
ssg63
(dp1983
Vcom.tencent.mm
p1984
g1234
sg750
g1579
ssg65
(dp1985
g736
g1379
sVcom.tencent.mm
p1986
g1235
sVcom.tencent.mobileqq
p1987
g1035
sg728
g187
ssg67
(dp1988
Vcom.android.browser
p1989
g200
sg1780
g714
sVcom.tencent.mobileqq
p1990
g1036
sVcom.comingx.athit
p1991
g323
sVcom.android.mms
p1992
g1581
sg882
g1343
sVtv.pps.mobile
p1993
g1669
sg79
g879
sg207
g897
sg250
g1703
sVcom.tencent.mm
p1994
g1237
sg45
g584
ssg69
(dp1995
Vcom.android.browser
p1996
g202
sVcom.ss.android.article.news
p1997
g293
sVcom.tencent.mm
p1998
g1238
sVcom.android.mms
p1999
g1582
sVcom.baidu.BaiduMap
p2000
g1638
sg785
g1532
sVcom.android.camera
p2001
g1726
sVcom.tencent.mobileqq
p2002
g1038
sVcom.eg.android.AlipayGphone
p2003
g600
ssg71
(dp2004
Vcom.android.browser
p2005
g204
sVcom.miui.notes
p2006
g1461
sVcn.wps.moffice_eng
p2007
g740
sg1001
g1040
sVcom.sina.weibo
p2008
g540
sg801
g1584
sg803
g1345
sVcom.android.camera
p2009
g1746
sVcom.netease.mobimail
p2010
g457
sVcom.android.phone
p2011
g938
sVcom.miui.yellowpage
p2012
g1404
sg1468
g1240
sg815
g1100
sg799
g1533
ssg73
(dp2013
g824
g1585
sVcom.nowcoder.app.florida
p2014
g909
sVcom.tencent.mm
p2015
g1242
sg832
g1104
sg826
g459
ssg75
(dp2016
g839
g542
sg843
g1587
ssg77
(dp2017
g619
g722
sg1966
g630
sVcom.sina.weibo
p2018
g532
sg853
g1222
sVcom.kugou.android
p2019
g1324
sVcom.xiaomi.market
p2020
g1338
sVcom.android.phone
p2021
g937
sVcom.tencent.mobileqq
p2022
g1022
ssg79
(dp2023
g870
g206
sg874
g1137
sg872
g1498
sVcom.tencent.mobileqq
p2024
g1042
sg67
g765
sVcom.android.mms
p2025
g1589
sg882
g1349
sg1993
g1674
sVcom.sina.weibo
p2026
g544
sVcom.happyelements.AndroidAnimal
p2027
g410
sVcom.tencent.mm
p2028
g1244
ssg81
(dp2029
g1989
g208
sVcom.miui.notes
p2030
g1462
sVcom.tencent.mm
p2031
g1245
sVcom.android.packageinstaller
p2032
g767
sg203
g806
sg910
g1351
sVcom.android.settings
p2033
g1535
sVcom.tencent.mobileqq
p2034
g1044
ssg83
(dp2035
g1653
g1045
sVcom.comingx.athit
p2036
g335
sg1655
g1246
sVcom.miui.video
p2037
g1652
sg1657
g1352
ssg85
(dp2038
Vcom.android.browser
p2039
g210
sVcom.comingx.athit
p2040
g325
sVcom.android.deskclock
p2041
g388
sVcom.netease.mobimail
p2042
g470
sg1778
g546
sVcom.eg.android.AlipayGphone
p2043
g617
sVcn.wps.moffice_eng
p2044
g746
sVcom.android.soundrecorder
p2045
g808
sVcom.taobao.taobao
p2046
g849
sg87
g982
sVcom.tencent.mm
p2047
g1247
sg420
g1105
sVcom.fenbi.android.servant
p2048
g1129
sVcom.android.calculator
p2049
g1189
sg1266
g1406
sVcom.happyelements.AndroidAnimal
p2050
g414
sVcom.hyt.android.examin
p2051
g698
sVcom.tencent.mobileqq
p2052
g1047
sVcom.MobileTicket
p2053
g1440
sVcom.miui.notes
p2054
g1464
sg252
g1544
sVcom.android.mms
p2055
g1590
sVtv.pps.mobile
p2056
g1678
sVcom.android.camera
p2057
g1738
ssg87
(dp2058
Vcom.tencent.mobileqq
p2059
g1049
sVcom.tencent.mm
p2060
g1249
sg977
g1592
sVcom.hyt.android.examin
p2061
g701
sg981
g942
ssg89
(dp2062
g490
g237
sg1029
g676
sVcom.android.calculator
p2063
g1185
sVcom.sina.weibo
p2064
g548
sVcom.comingx.athit
p2065
g344
sVcom.android.mms
p2066
g1594
sVsogou.mobile.explorer
p2067
g507
sVcom.android.fileexplorer
p2068
g1383
sVcom.nowcoder.app.florida
p2069
g921
sVcom.netease.mobimail
p2070
g462
sVcom.android.phone
p2071
g944
sVcom.android.camera
p2072
g1757
sVcom.tencent.mm
p2073
g1250
sVcom.tencent.mobileqq
p2074
g1050
ssg91
(dp2075
g11
g213
sg1446
g265
sVcom.youdao.dict
p2076
g286
sg21
g306
sg1209
g346
sg1373
g357
sg1565
g370
sg525
g376
sg912
g1474
sg35
g432
sg2037
g1654
sVcom.netease.mobimail
p2077
g478
sg1219
g563
sg1323
g868
sVcom.eg.android.AlipayGphone
p2078
g596
sg49
g622
sg51
g637
sVcom.zhihu.android
p2079
g661
sg55
g666
sg1174
g726
sVcn.wps.moffice_eng
p2080
g744
sg1233
g749
sg1825
g759
sg69
g789
sVcom.android.soundrecorder
p2081
g820
sVcom.jingdong.app.mall
p2082
g831
sg75
g851
sVair.fyzb3
p2083
g890
sg81
g923
sVcom.android.phone
p2084
g958
sVcom.alibaba.android.rimet
p2085
g980
sg943
g1002
sVcom.tencent.mm
p2086
g1252
sg93
g1109
sg95
g1112
sVcom.miui.networkassistant
p2087
g1689
sg99
g1149
sg1309
g1152
sg103
g1187
sVsogou.mobile.explorer
p2088
g513
sg262
g1306
sg111
g1355
sVcom.android.fileexplorer
p2089
g1385
sg115
g1391
sVcom.happyelements.AndroidAnimal
p2090
g423
sg560
g1417
sVcom.hyt.android.examin
p2091
g687
sg1069
g1432
sg1806
g1450
sg2030
g1460
sg133
g1510
sg1075
g1552
sVcom.android.mms
p2092
g1614
sVcom.baidu.BaiduMap
p2093
g1650
sg1017
g440
sVtv.pps.mobile
p2094
g1668
sg1892
g1200
sg783
g1709
sVcom.android.camera
p2095
g1736
ssg93
(dp2096
Vcom.android.browser
p2097
g215
sVcom.comingx.athit
p2098
g348
sVcom.android.calculator
p2099
g1177
sVcom.tencent.mobileqq
p2100
g1053
sVcom.sina.weibo
p2101
g552
sVcom.android.phone
p2102
g948
sg1101
g1598
sg908
g833
sVcom.android.soundrecorder
p2103
g816
sg2014
g924
sVcom.netease.mobimail
p2104
g466
sg965
g1541
sg2050
g421
sVcom.tencent.mm
p2105
g1254
ssg95
(dp2106
sg97
(dp2107
Vcom.tencent.mm
p2108
g1255
ssg99
(dp2109
g1119
g1300
sg1026
g639
sVcom.android.browser
p2110
g217
sVcom.android.calculator
p2111
g1161
sVcom.sina.weibo
p2112
g554
sVcom.tencent.mm
p2113
g1258
sVcom.android.mms
p2114
g1600
sVcom.xiaomi.market
p2115
g1356
sVtv.pps.mobile
p2116
g1666
sg543
g875
sVcom.android.deskclock
p2117
g374
sg1139
g1543
sVcom.android.camera
p2118
g1730
sg634
g684
sg1148
g1055
sg143
g1661
ssg101
(dp2119
Vcom.kugou.android
p2120
g1310
sVcom.tencent.mobileqq
p2121
g1056
sVcom.tencent.mm
p2122
g1259
ssg103
(dp2123
g586
g1304
sVcom.android.browser
p2124
g219
sVcom.offcn.android.onlineexamination.syyh
p2125
g1115
sVcom.youdao.dict
p2126
g274
sg2087
g1687
sVcom.tencent.mobileqq
p2127
g1057
sVcom.comingx.athit
p2128
g319
sVcom.android.soundrecorder
p2129
g796
sVcom.android.mms
p2130
g1602
sVcom.taobao.taobao
p2131
g838
sg409
g876
sVcom.android.camera
p2132
g1722
sVcom.netease.mobimail
p2133
g468
sVcom.android.phone
p2134
g950
sg2027
g401
sVcom.sankuai.meituan
p2135
g776
sVcom.hyt.android.examin
p2136
g693
sVcom.tencent.mm
p2137
g1260
sVcom.miui.antispam
p2138
g1095
sVcom.eg.android.AlipayGphone
p2139
g594
ssg105
(dp2140
Vcom.android.mms
p2141
g1628
sVcom.hyt.android.examin
p2142
g685
sVcom.tencent.mm
p2143
g1284
sVcom.android.browser
p2144
g241
sVsogou.mobile.explorer
p2145
g495
ssg107
(dp2146
Vcom.android.browser
p2147
g243
sg1560
g267
sVcom.youdao.dict
p2148
g276
sVcom.ss.android.article.news
p2149
g303
sg21
g308
sg23
g321
sVcom.android.thememanager
p2150
g368
sg1013
g392
sg131
g1485
sg527
g430
sVcom.netease.mobimail
p2151
g464
sVcom.sina.weibo
p2152
g550
sVcom.yixia.xiaokaxiu
p2153
g854
sVcom.eg.android.AlipayGphone
p2154
g615
sg49
g628
sg53
g648
sg55
g678
sg1883
g703
sg121
g1413
sg61
g731
sVcom.android.packageinstaller
p2155
g772
sg599
g778
sg1239
g798
sVcom.jingdong.app.mall
p2156
g823
sVcom.taobao.taobao
p2157
g842
sg2083
g878
sg81
g903
sg2084
g946
sVcom.alibaba.android.rimet
p2158
g976
sVcom.miui.gallery
p2159
g989
sVcom.tencent.mobileqq
p2160
g1052
sg93
g1098
sg1256
g1691
sg99
g1145
sg103
g1166
sg2067
g509
sVcom.kugou.android
p2161
g1322
sg111
g1362
sg113
g1370
sVcom.qihoo.browser
p2162
g1401
sVcom.happyelements.AndroidAnimal
p2163
g419
sVcom.chinamworld.main
p2164
g721
sg123
g1421
sg1793
g1442
sg2006
g1469
sg133
g1508
sg1075
g1539
sg137
g1596
sVcom.baidu.BaiduMap
p2165
g1646
sg2037
g1656
sg145
g1682
sVcom.ggeye.kaoshi.gwy
p2166
g1196
sg149
g1694
sg151
g1707
sg2125
g1117
sg155
g1715
sg157
g1759
sg159
g1762
ssg109
(dp2167
g1865
g223
sg192
g667
sg172
g263
sVcom.youku.phone
p2168
g624
sVcom.fenbi.android.servant
p2169
g1120
sg535
g650
sVcom.android.calculator
p2170
g1154
sVcom.tencent.mm
p2171
g1262
sg1311
g1606
sg625
g1357
sg578
g1670
sg805
g894
sg13
g258
sVcom.netease.mobimail
p2172
g472
sg220
g499
sVcom.sina.weibo
p2173
g555
sVcom.eg.android.AlipayGphone
p2174
g587
sVcom.tencent.mobileqq
p2175
g1060
ssg111
(dp2176
g1965
g225
sg2168
g626
sg1008
g299
sg1373
g355
sg1377
g1476
sVcom.netease.mobimail
p2177
g474
sVcom.sina.weibo
p2178
g557
sVcom.eg.android.AlipayGphone
p2179
g604
sVorg.mozilla.firefox
p2180
g668
sg123
g1423
sVcom.android.soundrecorder
p2181
g804
sg79
g883
sVcom.nowcoder.app.florida
p2182
g911
sVcom.android.phone
p2183
g952
sg127
g1452
sg1974
g1061
sVcom.fenbi.android.servant
p2184
g1133
sg1943
g1173
sg226
g1376
sg2162
g1395
sg1907
g691
sg1420
g1264
sg2037
g1658
sg1993
g1673
sg1924
g1705
ssg113
(dp2185
g1330
g227
sg1534
g899
sg1341
g737
sVcom.tencent.mm
p2186
g1265
sVcom.comingx.athit
p2187
g331
sVcom.android.mms
p2188
g1607
sg25
g358
sg1017
g435
sVcom.xiaomi.market
p2189
g1358
sg352
g1477
sg1034
g754
sg1978
g1546
sg155
g1719
sg1547
g1748
sg343
g995
sVcom.tencent.mobileqq
p2190
g1063
ssg115
(dp2191
g1387
g229
sg1956
g333
sg1390
g1065
sg1396
g1479
ssg117
(dp2192
Vcom.android.settings
p2193
g1557
sVcom.tencent.mm
p2194
g1267
sVcom.android.phone
p2195
g973
ssg119
(dp2196
Vcom.tencent.mm
p2197
g1268
sg1008
g301
sg298
g1347
ssg121
(dp2198
Vcom.miui.notes
p2199
g1457
sVcom.tencent.mm
p2200
g1212
sVcom.android.mms
p2201
g1611
sVsogou.mobile.explorer
p2202
g494
sVcom.sina.weibo
p2203
g561
sVcom.tencent.mobileqq
p2204
g1067
ssg123
(dp2205
Vcom.tencent.mobileqq
p2206
g1068
sVcom.tencent.mm
p2207
g1270
sVcom.android.mms
p2208
g1612
ssg125
(dp2209
g1425
g235
sVcom.fenbi.android.servant
p2210
g1124
sVcom.sina.weibo
p2211
g565
sg1932
g1271
sVcom.android.mms
p2212
g1615
sVcom.android.phone
p2213
g960
sVcom.tencent.mobileqq
p2214
g1070
sVcom.miui.antispam
p2215
g1093
sg1223
g588
ssg127
(dp2216
Vcom.android.browser
p2217
g211
sg369
g1071
sVcom.android.mms
p2218
g1617
ssg129
(dp2219
Vcom.android.browser
p2220
g239
sVcom.android.mms
p2221
g1618
sVcom.tencent.mm
p2222
g1272
sVcom.android.soundrecorder
p2223
g794
sVcom.netease.mobimail
p2224
g480
sg1463
g962
sg558
g397
sg1466
g1728
sg1857
g567
sVcom.tencent.mobileqq
p2225
g1072
ssg131
(dp2226
g835
g182
sg1528
g670
sg228
g1397
sVcom.tencent.mm
p2227
g1274
sg1482
g501
sg25
g353
sg1781
g845
sg1789
g1335
sg226
g1378
sVcom.nowcoder.app.florida
p2228
g913
sVcom.android.settings
p2229
g1519
sVcom.tencent.mobileqq
p2230
g1015
ssg133
(dp2231
g874
g1125
sg1420
g1275
sVcom.sina.weibo
p2232
g569
sVcom.android.mms
p2233
g1620
sg1263
g1360
sg1136
g873
sVcom.nowcoder.app.florida
p2234
g901
sg39
g482
sVcom.android.camera
p2235
g1734
sVcom.android.email
p2236
g1419
sVcom.tencent.mobileqq
p2237
g1074
ssg135
(dp2238
g8
g170
sg2039
g253
sVcom.comingx.athit
p2239
g350
sg1517
g363
sg1273
g1488
sVcom.netease.mobimail
p2240
g484
sVcom.sina.weibo
p2241
g571
sg1911
g864
sVcom.eg.android.AlipayGphone
p2242
g612
sg1702
g770
sVcom.sankuai.meituan
p2243
g786
sg2103
g800
sVcom.nowcoder.app.florida
p2244
g917
sVsogou.mobile.explorer
p2245
g505
sg1613
g1076
sg420
g1096
sg1599
g1140
sVcom.android.calculator
p2246
g1181
sg413
g966
sVcom.kugou.android
p2247
g1328
sg1902
g1399
sg2090
g403
sVcom.hyt.android.examin
p2248
g705
sVcom.ggeye.kaoshi.gwy
p2249
g1194
sVcom.tencent.mm
p2250
g1276
sg2092
g1621
sg139
g1635
sg133
g1502
sVcom.android.camera
p2251
g1752
ssg137
(dp2252
Vcom.android.browser
p2253
g245
sVcom.youdao.dict
p2254
g278
sVcom.ss.android.article.news
p2255
g295
sVcom.comingx.athit
p2256
g327
sg1567
g378
sVcom.netease.mobimail
p2257
g486
sVcom.sina.weibo
p2258
g573
sVcom.yixia.xiaokaxiu
p2259
g858
sg47
g602
sg1882
g652
sg59
g716
sVcn.wps.moffice_eng
p2260
g735
sg63
g751
sg1825
g763
sg69
g780
sVcom.android.soundrecorder
p2261
g802
sg908
g825
sg75
g844
sg1826
g881
sVcom.nowcoder.app.florida
p2262
g907
sVcom.android.phone
p2263
g968
sg87
g978
sg1593
g993
sVcom.tencent.mm
p2264
g1278
sg93
g1102
sVcom.fenbi.android.servant
p2265
g1131
sVcom.android.calculator
p2266
g1172
sg1603
g497
sVcom.kugou.android
p2267
g1312
sg224
g1363
sVcom.android.fileexplorer
p2268
g1372
sVcom.happyelements.AndroidAnimal
p2269
g405
sg560
g1415
sVcom.MobileTicket
p2270
g1436
sg1967
g1495
sg1613
g1078
sVcom.baidu.BaiduMap
p2271
g1640
sg37
g438
sVtv.pps.mobile
p2272
g1672
sVcom.android.settings
p2273
g1554
sVcom.android.camera
p2274
g1740
ssg139
(dp2275
Vcom.zhihu.android
p2276
g654
sg1158
g269
sg1997
g297
sVcom.android.browser
p2277
g247
sVcom.tencent.mobileqq
p2278
g1079
sVcom.sina.weibo
p2279
g575
sg201
g782
sVcom.android.mms
p2280
g1623
sVcom.android.camera
p2281
g1742
sVcom.android.phone
p2282
g970
sVcom.chinamworld.main
p2283
g718
sVcom.tencent.mm
p2284
g1279
ssg141
(dp2285
g2190
g1080
sVcom.sina.weibo
p2286
g577
sg2186
g1280
sg1062
g1375
ssg143
(dp2287
Vcom.tencent.mobileqq
p2288
g1081
ssg145
(dp2289
g870
g249
sVcom.tencent.mm
p2290
g1282
sg1677
g972
sVcom.android.mms
p2291
g1626
sg379
g366
sg556
g1365
sVair.fyzb3
p2292
g885
sVcom.android.settings
p2293
g1555
sVcom.happyelements.AndroidAnimal
p2294
g416
sg2173
g579
sVcom.yixia.xiaokaxiu
p2295
g860
sVcom.tencent.mobileqq
p2296
g1083
ssg147
(dp2297
Vcom.tencent.mm
p2298
g1257
sVcom.tencent.mobileqq
p2299
g1084
sg449
g606
sg1936
g488
sVcom.android.phone
p2300
g964
ssg149
(dp2301
Vcom.tencent.mm
p2302
g1285
ssg151
(dp2303
Vcom.zhihu.android
p2304
g646
sVcom.android.browser
p2305
g251
sVcom.tencent.mm
p2306
g1286
sVcom.android.packageinstaller
p2307
g768
sVcom.sankuai.meituan
p2308
g784
sVcom.sina.weibo
p2309
g581
sVcom.tencent.mobileqq
p2310
g1085
ssg153
(dp2311
Vcom.tencent.mm
p2312
g1287
ssg155
(dp2313
g330
g1380
sg2187
g340
sVcom.tencent.mm
p2314
g1288
ssg157
(dp2315
g900
g1506
sg1723
g255
sVorg.mozilla.firefox
p2316
g675
sVcom.miui.notes
p2317
g1467
sVcn.wps.moffice_eng
p2318
g742
sVcom.fenbi.android.servant
p2319
g1142
sVcom.zhihu.android
p2320
g659
sVcom.android.calculator
p2321
g1183
sVcom.tencent.mobileqq
p2322
g1087
sg1751
g1548
sVcom.android.mms
p2323
g1630
sVcom.jingdong.app.mall
p2324
g829
sVcom.baidu.BaiduMap
p2325
g1644
sVcom.android.soundrecorder
p2326
g812
sVcom.android.fileexplorer
p2327
g1382
sg2069
g919
sVcom.android.phone
p2328
g954
sVcom.miui.weather2
p2329
g1411
sg1756
g1000
sVcom.tencent.mm
p2330
g1289
sg2126
g284
ssg159
(dp2331
g599
g787
sg1998
g1290
sg2003
g613
ssg161
(dp2332
Vcom.tencent.mm
p2333
g1217
sVcom.tencent.mobileqq
p2334
g1088
sg1526
g657
sssb.