ccopy_reg
_reconstructor
p1
(cnetworkx.classes.digraph
DiGraph
p2
c__builtin__
object
p3
NtRp4
(dp5
S'node'
p6
(dp7
Vcom.android.browser
p8
(dp9
S'weight'
p10
F0.0048845798183458234
ssVcom.android.updater
p11
(dp12
g10
F4.3639594553254923e-07
ssVcom.xiaomi.smarthome
p13
(dp14
g10
F3.272969591494119e-05
ssVcom.duowan.mobile
p15
(dp16
g10
F0.00013440995122402516
ssVcom.snda.wifilocating
p17
(dp18
g10
F6.6332183720947487e-05
ssVcom.tencent.token
p19
(dp20
g10
F0.00037311853343032961
ssVcom.android.launcher
p21
(dp22
g10
F0.25779435888417046
ssVcom.eg.android.AlipayGphone
p23
(dp24
g10
F0.0010307672233478813
ssVcn.wps.moffice_eng
p25
(dp26
g10
F0.0025638261800037267
ssVcom.android.packageinstaller
p27
(dp28
g10
F1.8765025657899617e-05
ssVcom.baidu.searchbox
p29
(dp30
g10
F0.3358568656210329
ssVcom.taobao.taobao
p31
(dp32
g10
F4.3639594553254923e-07
ssVcom.android.phone
p33
(dp34
g10
F0.0049784049466353219
ssVcom.miui.gallery
p35
(dp36
g10
F7.6369290468196113e-05
ssVcom.tencent.mobileqq
p37
(dp38
g10
F0.30945491091631366
ssVcom.miui.antispam
p39
(dp40
g10
F2.6183756731952957e-06
ssVcom.kugou.android
p41
(dp42
g10
F0.016536787960010423
ssVcom.cootek.smartdialer
p43
(dp44
g10
F0.0048383218481193738
ssVcom.android.fileexplorer
p45
(dp46
g10
F3.7093655370266687e-05
ssVcom.changyou.zzb
p47
(dp48
g10
F0.027609025890062262
ssVcom.android.calendar
p49
(dp50
g10
F4.800355400858042e-05
ssVcom.tencent.mm
p51
(dp52
g10
F0.014125263964997555
ssVorg.zywx.wbpalmstar.widgetone.uex11368919
p53
(dp54
g10
F1.3528274311509027e-05
ssVcom.android.mms
p55
(dp56
g10
F0.00097098097880992209
ssVcom.baidu.BaiduMap
p57
(dp58
g10
F0.00034257081724305117
ssVcom.qzone
p59
(dp60
g10
F0.00030591355781831703
ssVcom.duowan.lolbox
p61
(dp62
g10
F0.0031568882699824614
ssVcom.android.settings
p63
(dp64
g10
F0.013159519737534023
ssVcom.android.quicksearchbox
p65
(dp66
g10
F1.7455837821301969e-06
ssVcom.android.camera
p67
(dp68
g10
F0.00010473502692781182
ssVcom.tencent.qt.qtl
p69
(dp70
g10
F0.0014806914431919397
sssS'node_dict_factory'
p71
c__builtin__
dict
p72
sS'edge_attr_dict_factory'
p73
g72
sS'succ'
p74
(dp75
g8
(dp76
g25
(dp77
g10
F3.6000000000000001
ssVcom.tencent.mm
p78
(dp79
g10
F3.1000000000000001
ssg27
(dp80
g10
F0.90000000000000002
ssVcom.android.mms
p81
(dp82
g10
I1
ssVcom.baidu.searchbox
p83
(dp84
g10
F3.7999999999999998
ssVcom.android.launcher
p85
(dp86
g10
F31.499999999999993
ssVcom.android.phone
p87
(dp88
g10
F1.7
ssVcom.android.camera
p89
(dp90
g10
F0.69999999999999996
ssVcom.tencent.mobileqq
p91
(dp92
g10
F8.7000000000000011
ssg53
(dp93
g10
F0.69999999999999996
ssVcom.android.settings
p94
(dp95
g10
F0.40000000000000002
sssg11
(dp96
Vcom.tencent.mm
p97
(dp98
g10
I1
sssg13
(dp99
Vcom.android.settings
p100
(dp101
g10
F0.40000000000000002
ssVcom.kugou.android
p102
(dp103
g10
F3.7999999999999998
ssVcom.baidu.searchbox
p104
(dp105
g10
I1
ssVcom.android.launcher
p106
(dp107
g10
F7.1000000000000005
ssVcom.android.quicksearchbox
p108
(dp109
g10
I1
ssVcom.tencent.mm
p110
(dp111
g10
F1.8
ssVcom.eg.android.AlipayGphone
p112
(dp113
g10
F2.6000000000000001
ssVcom.tencent.mobileqq
p114
(dp115
g10
F1.8
sssg15
(dp116
Vcom.tencent.mm
p117
(dp118
g10
F0.40000000000000002
ssVcom.tencent.mobileqq
p119
(dp120
g10
F1.8
ssVcom.android.launcher
p121
(dp122
g10
F2.7000000000000002
sssg17
(dp123
Vcom.android.settings
p124
(dp125
g10
F0.40000000000000002
ssVcom.tencent.mobileqq
p126
(dp127
g10
F1.3
ssVcom.baidu.searchbox
p128
(dp129
g10
F0.90000000000000002
ssVcom.android.launcher
p130
(dp131
g10
F5.4000000000000004
ssVcom.android.browser
p132
(dp133
g10
F0.90000000000000002
sssg19
(dp134
Vcom.tencent.mobileqq
p135
(dp136
g10
F0.69999999999999996
ssVcom.tencent.mm
p137
(dp138
g10
F1.3
ssVcom.baidu.searchbox
p139
(dp140
g10
F0.90000000000000002
ssVcom.android.launcher
p141
(dp142
g10
I4
sssg21
(dp143
g8
(dp144
g10
F39.699999999999996
ssg11
(dp145
g10
F0.90000000000000002
ssVcom.xiaomi.smarthome
p146
(dp147
g10
F7
ssg15
(dp148
g10
I3
ssg17
(dp149
g10
F7.8000000000000007
ssg19
(dp150
g10
F6.4000000000000004
ssg23
(dp151
g10
F16.199999999999996
ssg25
(dp152
g10
F11.1
ssg27
(dp153
g10
F4.5
ssVcom.baidu.searchbox
p154
(dp155
g10
F343.39999999999878
ssg31
(dp156
g10
F1.7
ssg33
(dp157
g10
F144.70000000000027
ssg35
(dp158
g10
F5.2999999999999998
ssg37
(dp159
g10
F550.29999999999745
ssVcom.kugou.android
p160
(dp161
g10
F20.299999999999994
ssg43
(dp162
g10
F138.7000000000001
ssVcom.android.fileexplorer
p163
(dp164
g10
F6.1000000000000005
ssg47
(dp165
g10
F23.199999999999999
ssg49
(dp166
g10
F12.800000000000001
ssg51
(dp167
g10
F224.99999999999997
ssg53
(dp168
g10
F0.90000000000000002
ssg55
(dp169
g10
F38.399999999999984
ssg57
(dp170
g10
F5.7000000000000002
ssg59
(dp171
g10
F13.1
ssg61
(dp172
g10
I3
ssg63
(dp173
g10
F43.800000000000004
ssg65
(dp174
g10
F1.8999999999999999
ssg67
(dp175
g10
F10
ssg69
(dp176
g10
F4.4000000000000004
sssg23
(dp177
Vcom.android.mms
p178
(dp179
g10
F9.4000000000000004
ssVcom.kugou.android
p180
(dp181
g10
F2.3999999999999999
ssg146
(dp182
g10
F2.3999999999999999
ssVcom.android.launcher
p183
(dp184
g10
F10.6
ssVcom.changyou.zzb
p185
(dp186
g10
F1.3
ssVcom.miui.gallery
p187
(dp188
g10
F0.90000000000000002
sssg25
(dp189
Vcom.android.browser
p190
(dp191
g10
F4.2999999999999998
ssVcom.tencent.mobileqq
p192
(dp193
g10
F2.6000000000000001
ssg55
(dp194
g10
F0.90000000000000002
ssg83
(dp195
g10
F4.4000000000000004
ssVcom.snda.wifilocating
p196
(dp197
g10
F0.40000000000000002
ssVcom.android.launcher
p198
(dp199
g10
F19.699999999999996
ssg78
(dp200
g10
F1.8
sssg27
(dp201
Vcom.android.browser
p202
(dp203
g10
F0.90000000000000002
ssVcom.tencent.mobileqq
p204
(dp205
g10
I1
ssg53
(dp206
g10
I1
ssVcom.baidu.searchbox
p207
(dp208
g10
F0.69999999999999996
ssVcom.android.launcher
p209
(dp210
g10
F1.8
ssVcom.tencent.mm
p211
(dp212
g10
F1.7
sssg29
(dp213
g8
(dp214
g10
F14.000000000000005
ssVcom.xiaomi.smarthome
p215
(dp216
g10
F2.8999999999999999
ssg196
(dp217
g10
F0.90000000000000002
ssVcom.android.launcher
p218
(dp219
g10
F274.89999999999941
ssVcom.eg.android.AlipayGphone
p220
(dp221
g10
F0.90000000000000002
ssg25
(dp222
g10
F2.6000000000000001
ssVcom.android.packageinstaller
p223
(dp224
g10
F1.7
ssVcom.tencent.token
p225
(dp226
g10
F1.3
ssVcom.android.phone
p227
(dp228
g10
F33.699999999999989
ssg187
(dp229
g10
F0.40000000000000002
ssVcom.tencent.mobileqq
p230
(dp231
g10
F646.90000000000066
ssVcom.kugou.android
p232
(dp233
g10
F9.9000000000000021
ssVcom.cootek.smartdialer
p234
(dp235
g10
F16.899999999999999
ssVcom.android.fileexplorer
p236
(dp237
g10
F2.2000000000000002
ssVcom.changyou.zzb
p238
(dp239
g10
F4.4000000000000004
ssVcom.android.calendar
p240
(dp241
g10
F4.4000000000000004
ssVcom.tencent.mm
p242
(dp243
g10
F75.80000000000004
ssVcom.android.mms
p244
(dp245
g10
F14.4
ssVcom.qzone
p246
(dp247
g10
F9.2000000000000011
ssVcom.android.settings
p248
(dp249
g10
F15.799999999999999
ssg108
(dp250
g10
F0.69999999999999996
ssVcom.android.camera
p251
(dp252
g10
F3.2999999999999998
sssg31
(dp253
Vcom.tencent.mm
p254
(dp255
g10
F0.69999999999999996
ssVcom.tencent.mobileqq
p256
(dp257
g10
F0.90000000000000002
ssVcom.android.launcher
p258
(dp259
g10
F1.3999999999999999
sssg33
(dp260
Vcom.android.browser
p261
(dp262
g10
I1
ssVcom.tencent.mm
p263
(dp264
g10
F8.9000000000000004
ssg11
(dp265
g10
F0.40000000000000002
ssg244
(dp266
g10
F2.4000000000000004
ssVcom.baidu.BaiduMap
p267
(dp268
g10
I1
ssVcom.baidu.searchbox
p269
(dp270
g10
F10.000000000000002
ssVcom.cootek.smartdialer
p271
(dp272
g10
F96.000000000000071
ssVcom.android.launcher
p273
(dp274
g10
F49.39999999999997
ssVcom.android.settings
p275
(dp276
g10
F2.5999999999999996
ssVcom.tencent.mobileqq
p277
(dp278
g10
F21.899999999999995
ssg23
(dp279
g10
F0.69999999999999996
sssg35
(dp280
Vcom.tencent.mobileqq
p281
(dp282
g10
F0.90000000000000002
ssVcom.android.launcher
p283
(dp284
g10
I3
sssg37
(dp285
Vcom.android.browser
p286
(dp287
g10
F7.8000000000000016
ssVcom.xiaomi.smarthome
p288
(dp289
g10
F2.7000000000000002
ssg17
(dp290
g10
F2.6000000000000001
ssVcom.tencent.token
p291
(dp292
g10
F4.0999999999999996
ssVcom.android.launcher
p293
(dp294
g10
F485.29999999999774
ssVcom.eg.android.AlipayGphone
p295
(dp296
g10
F0.40000000000000002
ssVcom.android.packageinstaller
p297
(dp298
g10
I1
ssVcom.baidu.searchbox
p299
(dp300
g10
F656.69999999999993
ssVcom.android.phone
p301
(dp302
g10
F38.999999999999979
ssVcom.miui.gallery
p303
(dp304
g10
F0.90000000000000002
ssg242
(dp305
g10
F123.8000000000002
ssg39
(dp306
g10
F1.3
ssVcom.kugou.android
p307
(dp308
g10
F27.699999999999999
ssVcom.cootek.smartdialer
p309
(dp310
g10
F46.299999999999969
ssg236
(dp311
g10
F0.40000000000000002
ssg238
(dp312
g10
F3.6000000000000001
ssg49
(dp313
g10
F4.5999999999999996
ssVcom.android.settings
p314
(dp315
g10
F26.799999999999994
ssVcom.tencent.qt.qtl
p316
(dp317
g10
F2.2999999999999998
ssVcom.android.mms
p318
(dp319
g10
F24.699999999999999
ssVcom.baidu.BaiduMap
p320
(dp321
g10
I2
ssg246
(dp322
g10
F11.399999999999999
ssVcom.duowan.lolbox
p323
(dp324
g10
I2
ssVcom.android.camera
p325
(dp326
g10
F13.699999999999999
sssg39
(dp327
Vcom.tencent.mm
p328
(dp329
g10
F0.69999999999999996
ssVcom.android.mms
p330
(dp331
g10
F4.4000000000000004
ssVcom.android.launcher
p332
(dp333
g10
F1.7000000000000002
sssg41
(dp334
Vcom.cootek.smartdialer
p335
(dp336
g10
F1.7000000000000002
ssVcom.tencent.mobileqq
p337
(dp338
g10
F35.29999999999999
ssg223
(dp339
g10
F0.69999999999999996
ssVcom.android.mms
p340
(dp341
g10
F1.7
ssVcom.baidu.searchbox
p342
(dp343
g10
F5.2000000000000002
ssVcom.xiaomi.smarthome
p344
(dp345
g10
F4.0999999999999996
ssVcom.qzone
p346
(dp347
g10
F3
ssVcom.android.launcher
p348
(dp349
g10
F27.099999999999991
ssVcom.android.phone
p350
(dp351
g10
F0.69999999999999996
ssVcom.tencent.mm
p352
(dp353
g10
F3.5999999999999996
ssg112
(dp354
g10
F3.9999999999999996
sssg43
(dp355
Vcom.android.calendar
p356
(dp357
g10
F0.40000000000000002
ssVcom.tencent.mobileqq
p358
(dp359
g10
F22.199999999999996
ssg11
(dp360
g10
F0.69999999999999996
ssVcom.changyou.zzb
p361
(dp362
g10
I1
ssg178
(dp363
g10
F1.3
ssVcom.baidu.searchbox
p364
(dp365
g10
F7.5
ssVcom.qzone
p366
(dp367
g10
F1.3
ssVcom.android.launcher
p368
(dp369
g10
F78.80000000000004
ssVcom.android.phone
p370
(dp371
g10
F152.50000000000026
ssVcom.android.camera
p372
(dp373
g10
F0.69999999999999996
ssVcom.tencent.mm
p374
(dp375
g10
F8.1000000000000014
ssg23
(dp376
g10
F0.90000000000000002
ssVcom.android.settings
p377
(dp378
g10
F0.40000000000000002
sssg45
(dp379
Vcom.tencent.mm
p380
(dp381
g10
F1.6000000000000001
ssg37
(dp382
g10
F2.7999999999999998
ssVcn.wps.moffice_eng
p383
(dp384
g10
F2.8999999999999999
ssg21
(dp385
g10
F7.700000000000002
sssg47
(dp386
Vcom.android.calendar
p387
(dp388
g10
F0.69999999999999996
ssVcom.tencent.mm
p389
(dp390
g10
F3.3999999999999999
ssVcom.android.mms
p391
(dp392
g10
F2.5
ssVcom.baidu.searchbox
p393
(dp394
g10
F6.5000000000000009
ssg43
(dp395
g10
F2.7999999999999998
ssVcom.android.launcher
p396
(dp397
g10
F26.099999999999998
ssVcom.android.phone
p398
(dp399
g10
F2.5
ssVcom.tencent.mobileqq
p400
(dp401
g10
F11.500000000000002
ssVcom.eg.android.AlipayGphone
p402
(dp403
g10
F0.90000000000000002
sssg49
(dp404
Vcom.tencent.mobileqq
p405
(dp406
g10
F3.6000000000000001
ssVcom.baidu.searchbox
p407
(dp408
g10
F1.7000000000000002
ssVcom.android.launcher
p409
(dp410
g10
F6.8000000000000007
ssVcom.android.phone
p411
(dp412
g10
F0.69999999999999996
sssg51
(dp413
g8
(dp414
g10
F5.0999999999999996
ssg11
(dp415
g10
I1
ssg344
(dp416
g10
I1
ssVcom.duowan.mobile
p417
(dp418
g10
F0.69999999999999996
ssVcom.android.launcher
p419
(dp420
g10
F164.60000000000008
ssg295
(dp421
g10
F0.90000000000000002
ssVcn.wps.moffice_eng
p422
(dp423
g10
F0.40000000000000002
ssg27
(dp424
g10
F1.7
ssg154
(dp425
g10
F77.000000000000057
ssg370
(dp426
g10
F4.3000000000000007
ssVcom.tencent.mobileqq
p427
(dp428
g10
F98.200000000000145
ssg232
(dp429
g10
F0.69999999999999996
ssVcom.cootek.smartdialer
p430
(dp431
g10
F4.5
ssVcom.android.fileexplorer
p432
(dp433
g10
F0.90000000000000002
ssVcom.changyou.zzb
p434
(dp435
g10
F1.8999999999999999
ssVcom.android.calendar
p436
(dp437
g10
F1.3
ssVcom.android.settings
p438
(dp439
g10
F6.5000000000000009
ssVcom.tencent.qt.qtl
p440
(dp441
g10
F0.90000000000000002
ssVcom.android.mms
p442
(dp443
g10
F1.2000000000000002
ssg59
(dp444
g10
F1.6000000000000001
ssVcom.duowan.lolbox
p445
(dp446
g10
I1
ssg53
(dp447
g10
F0.40000000000000002
sssg53
(dp448
g202
(dp449
g10
I1
ssg211
(dp450
g10
F0.90000000000000002
sssg55
(dp451
Vcom.android.browser
p452
(dp453
g10
F1.8999999999999999
ssVcom.tencent.mm
p454
(dp455
g10
F2.8999999999999999
ssg185
(dp456
g10
F1.7
ssVcom.kugou.android
p457
(dp458
g10
F1.7
ssVcom.baidu.searchbox
p459
(dp460
g10
F14.699999999999999
ssVcom.cootek.smartdialer
p461
(dp462
g10
F1.6000000000000001
ssg59
(dp463
g10
F0.40000000000000002
ssVcom.android.launcher
p464
(dp465
g10
F26.699999999999989
ssVcom.android.phone
p466
(dp467
g10
F2.7000000000000002
ssVcom.tencent.mobileqq
p468
(dp469
g10
F14.199999999999999
ssg39
(dp470
g10
F4.4000000000000004
ssVcom.eg.android.AlipayGphone
p471
(dp472
g10
F7.0000000000000009
ssVcom.android.settings
p473
(dp474
g10
F2.3999999999999999
sssg57
(dp475
g49
(dp476
g10
F1.3
ssVcom.android.settings
p477
(dp478
g10
I1
ssVcom.cootek.smartdialer
p479
(dp480
g10
F1.8
ssVcom.android.launcher
p481
(dp482
g10
F5.4000000000000004
ssVcom.android.phone
p483
(dp484
g10
F2.5
ssVcom.tencent.mobileqq
p485
(dp486
g10
F5.5999999999999996
sssg59
(dp487
Vcom.tencent.mobileqq
p488
(dp489
g10
F10.900000000000002
ssVcom.kugou.android
p490
(dp491
g10
F3.2999999999999998
ssVcom.baidu.searchbox
p492
(dp493
g10
F9.3000000000000007
ssVcom.android.launcher
p494
(dp495
g10
F8.9000000000000021
ssVcom.android.settings
p496
(dp497
g10
I1
ssVcom.tencent.mm
p498
(dp499
g10
F0.69999999999999996
sssg61
(dp500
Vcom.tencent.mobileqq
p501
(dp502
g10
F2.7999999999999998
ssg417
(dp503
g10
F0.90000000000000002
ssVcom.tencent.mm
p504
(dp505
g10
F1.7
ssVcom.android.launcher
p506
(dp507
g10
F1.7
ssVcom.android.phone
p508
(dp509
g10
F0.90000000000000002
sssg63
(dp510
Vcom.kugou.android
p511
(dp512
g10
F0.90000000000000002
ssVcom.tencent.mobileqq
p513
(dp514
g10
F18.199999999999999
ssVcom.changyou.zzb
p515
(dp516
g10
F0.90000000000000002
ssVcom.android.mms
p517
(dp518
g10
F2.2999999999999998
ssg299
(dp519
g10
F11.699999999999999
ssVcom.cootek.smartdialer
p520
(dp521
g10
F2.7000000000000002
ssVcom.qzone
p522
(dp523
g10
F1.8999999999999999
ssg17
(dp524
g10
F1.6000000000000001
ssg31
(dp525
g10
F0.90000000000000002
ssVcom.android.launcher
p526
(dp527
g10
F50.600000000000009
ssVcom.android.phone
p528
(dp529
g10
F1.8999999999999999
ssVcom.tencent.mm
p530
(dp531
g10
F6.7000000000000011
sssg65
(dp532
Vcom.tencent.mobileqq
p533
(dp534
g10
F1.8999999999999999
ssVcom.baidu.searchbox
p535
(dp536
g10
F0.40000000000000002
ssVcom.android.launcher
p537
(dp538
g10
F1.7
sssg67
(dp539
Vcom.cootek.smartdialer
p540
(dp541
g10
F0.90000000000000002
ssVcom.miui.gallery
p542
(dp543
g10
I1
ssVcom.tencent.mobileqq
p544
(dp545
g10
F15.299999999999999
ssVcom.baidu.searchbox
p546
(dp547
g10
F5.2999999999999998
ssVcom.android.launcher
p548
(dp549
g10
F6.7000000000000011
sssg69
(dp550
ssS'edge'
p551
g75
sS'graph'
p552
(dp553
sS'adjlist_dict_factory'
p554
g72
sS'adj'
p555
g75
sS'pred'
p556
(dp557
g8
(dp558
g25
g191
sVcom.tencent.mm
p559
g414
sg27
g203
sg55
g453
sVcom.baidu.searchbox
p560
g214
sg196
g133
sVcom.android.launcher
p561
g144
sg87
g262
sg91
g287
sg53
g449
ssg11
(dp562
Vcom.cootek.smartdialer
p563
g360
sVcom.tencent.mm
p564
g415
sVcom.android.launcher
p565
g145
sVcom.android.phone
p566
g265
ssg13
(dp567
Vcom.tencent.mobileqq
p568
g289
sg102
g345
sVcom.baidu.searchbox
p569
g216
sVcom.android.launcher
p570
g147
sg110
g416
sVcom.eg.android.AlipayGphone
p571
g182
ssg15
(dp572
g445
g503
sVcom.tencent.mm
p573
g418
sVcom.android.launcher
p574
g148
ssg17
(dp575
Vcom.android.settings
p576
g524
sVcom.tencent.mobileqq
p577
g290
sVcn.wps.moffice_eng
p578
g197
sVcom.android.launcher
p579
g149
sVcom.baidu.searchbox
p580
g217
ssg19
(dp581
Vcom.tencent.mobileqq
p582
g292
sVcom.baidu.searchbox
p583
g226
sVcom.android.launcher
p584
g150
ssg21
(dp585
g8
g86
sg146
g107
sVcom.duowan.mobile
p586
g122
sVcom.snda.wifilocating
p587
g131
sg19
g142
sg23
g184
sg25
g199
sVcom.android.packageinstaller
p588
g210
sg29
g219
sg31
g259
sg370
g274
sg542
g284
sg37
g294
sVcom.miui.antispam
p589
g333
sg41
g349
sg430
g369
sg45
g385
sg47
g397
sg436
g410
sg51
g420
sg55
g465
sg57
g482
sg59
g495
sg445
g507
sVcom.android.settings
p590
g527
sg108
g538
sg67
g549
ssg23
(dp591
g146
g113
sVcom.android.mms
p592
g472
sVcom.tencent.mm
p593
g421
sVcom.changyou.zzb
p594
g403
sg180
g354
sVcom.baidu.searchbox
p595
g221
sVcom.cootek.smartdialer
p596
g376
sVcom.android.launcher
p597
g151
sVcom.android.phone
p598
g279
sVcom.tencent.mobileqq
p599
g296
ssg25
(dp600
g8
g77
sg78
g423
sVcom.android.launcher
p601
g152
sg560
g222
sg163
g384
ssg27
(dp602
Vcom.android.browser
p603
g80
sVcom.tencent.mobileqq
p604
g298
sVcom.kugou.android
p605
g339
sVcom.baidu.searchbox
p606
g224
sVcom.android.launcher
p607
g153
sVcom.tencent.mm
p608
g424
ssg29
(dp609
g457
g343
sg8
g84
sg25
g195
sg436
g408
sg314
g519
sg588
g208
sVcom.changyou.zzb
p610
g394
sVcom.android.mms
p611
g460
sVcom.tencent.token
p612
g140
sVcom.cootek.smartdialer
p613
g365
sVcom.xiaomi.smarthome
p614
g105
sg59
g493
sg587
g129
sVcom.android.launcher
p615
g155
sg87
g270
sg108
g536
sg89
g547
sVcom.tencent.mm
p616
g425
sVcom.tencent.mobileqq
p617
g300
ssg31
(dp618
Vcom.android.settings
p619
g525
sVcom.android.launcher
p620
g156
ssg33
(dp621
Vcom.kugou.android
p622
g351
sVcom.android.browser
p623
g88
sg387
g412
sVcom.android.settings
p624
g529
sVcom.android.mms
p625
g467
sVcom.baidu.BaiduMap
p626
g484
sVcom.baidu.searchbox
p627
g228
sg430
g371
sVcom.duowan.lolbox
p628
g509
sVcom.android.launcher
p629
g157
sVcom.changyou.zzb
p630
g399
sVcom.tencent.mm
p631
g426
sVcom.tencent.mobileqq
p632
g302
ssg35
(dp633
Vcom.android.camera
p634
g543
sg220
g188
sVcom.tencent.mobileqq
p635
g304
sg595
g229
sVcom.android.launcher
p636
g158
ssg37
(dp637
Vcom.android.browser
p638
g92
sg288
g115
sg586
g120
sVcom.snda.wifilocating
p639
g127
sg612
g136
sg21
g159
sg383
g193
sg297
g205
sVcom.baidu.searchbox
p640
g231
sg31
g257
sg301
g278
sg542
g282
sVcom.tencent.mm
p641
g428
sVcom.kugou.android
p642
g338
sVcom.cootek.smartdialer
p643
g359
sg45
g382
sg610
g401
sg436
g406
sg590
g514
sg244
g469
sg57
g486
sg59
g489
sg628
g502
sg65
g534
sg67
g545
ssg39
(dp644
Vcom.android.mms
p645
g470
sVcom.tencent.mobileqq
p646
g306
ssg41
(dp647
Vcom.tencent.mobileqq
p648
g308
sVcom.android.mms
p649
g458
sVcom.baidu.searchbox
p650
g233
sg13
g103
sg346
g491
sg348
g161
sVcom.android.settings
p651
g512
sVcom.tencent.mm
p652
g429
sg571
g181
ssg43
(dp653
Vcom.kugou.android
p654
g336
sg624
g521
sg47
g395
sg625
g462
sg626
g480
sg29
g235
sVcom.android.launcher
p655
g162
sg370
g272
sVcom.android.camera
p656
g541
sg631
g431
sVcom.tencent.mobileqq
p657
g310
ssg45
(dp658
Vcom.tencent.mobileqq
p659
g311
sVcom.tencent.mm
p660
g433
sVcom.baidu.searchbox
p661
g237
sVcom.android.launcher
p662
g164
ssg47
(dp663
Vcom.tencent.mobileqq
p664
g312
sg592
g456
sVcom.baidu.searchbox
p665
g239
sVcom.cootek.smartdialer
p666
g362
sg655
g165
sVcom.android.settings
p667
g516
sg389
g435
sVcom.eg.android.AlipayGphone
p668
g186
ssg49
(dp669
Vcom.tencent.mobileqq
p670
g313
sVcom.baidu.BaiduMap
p671
g476
sVcom.baidu.searchbox
p672
g241
sVcom.cootek.smartdialer
p673
g357
sVcom.android.launcher
p674
g166
sVcom.changyou.zzb
p675
g388
sVcom.tencent.mm
p676
g437
ssg51
(dp677
g190
g79
sg11
g98
sg13
g111
sg417
g118
sg640
g243
sVcom.android.launcher
p678
g167
sVcn.wps.moffice_eng
p679
g200
sg27
g212
sg31
g255
sg301
g264
sg230
g305
sVcom.miui.antispam
p680
g329
sVcom.kugou.android
p681
g353
sVcom.tencent.token
p682
g138
sVcom.cootek.smartdialer
p683
g375
sg432
g381
sVcom.changyou.zzb
p684
g390
sg314
g531
sg53
g450
sg611
g455
sVcom.qzone
p685
g499
sg628
g505
ssg53
(dp686
g603
g93
sg27
g206
sg608
g447
sVcom.android.launcher
p687
g168
ssg55
(dp688
Vcom.android.browser
p689
g82
sVcn.wps.moffice_eng
p690
g194
sVcom.tencent.mobileqq
p691
g319
sVcom.changyou.zzb
p692
g392
sg457
g341
sg627
g245
sg596
g363
sVcom.android.launcher
p693
g169
sg227
g266
sg593
g443
sg39
g331
sg23
g179
sVcom.android.settings
p694
g518
ssg57
(dp695
Vcom.tencent.mobileqq
p696
g321
sVcom.android.launcher
p697
g170
sVcom.android.phone
p698
g268
ssg59
(dp699
Vcom.kugou.android
p700
g347
sVcom.tencent.mobileqq
p701
g322
sg318
g463
sVcom.baidu.searchbox
p702
g247
sVcom.cootek.smartdialer
p703
g367
sVcom.android.launcher
p704
g171
sVcom.android.settings
p705
g523
sVcom.tencent.mm
p706
g444
ssg61
(dp707
g573
g446
sVcom.tencent.mobileqq
p708
g324
sVcom.android.launcher
p709
g172
ssg63
(dp710
g689
g95
sg617
g315
sg517
g474
sVcom.baidu.BaiduMap
p711
g478
sVcom.baidu.searchbox
p712
g249
sVcom.xiaomi.smarthome
p713
g101
sVcom.qzone
p714
g497
sVcom.snda.wifilocating
p715
g125
sVcom.android.launcher
p716
g173
sVcom.android.phone
p717
g276
sVcom.tencent.mm
p718
g439
sVcom.cootek.smartdialer
p719
g378
ssg65
(dp720
Vcom.xiaomi.smarthome
p721
g109
sVcom.baidu.searchbox
p722
g250
sVcom.android.launcher
p723
g174
ssg67
(dp724
Vcom.cootek.smartdialer
p725
g373
sVcom.android.browser
p726
g90
sVcom.tencent.mobileqq
p727
g326
sVcom.baidu.searchbox
p728
g252
sVcom.android.launcher
p729
g175
ssg69
(dp730
Vcom.tencent.mm
p731
g441
sVcom.tencent.mobileqq
p732
g317
sVcom.android.launcher
p733
g176
sssb.