ccopy_reg
_reconstructor
p1
(cnetworkx.classes.digraph
DiGraph
p2
c__builtin__
object
p3
NtRp4
(dp5
S'node'
p6
(dp7
Vcom.lxd.bwjy.qihu
p8
(dp9
S'weight'
p10
F0.00015339115551979418
ssVcom.jumo.leidian.nl_360
p11
(dp12
g10
F0.0026264871541634934
ssVcom.qihoo.gameunion
p13
(dp14
g10
F0.00026641621748174779
ssVcom.qiyi.video
p15
(dp16
g10
F0.24726654269790824
ssVcom.UCMobile
p17
(dp18
g10
F0.0018487670849490984
ssVcom.disney.chukong.WMW
p19
(dp20
g10
F0.019063560450916176
ssVcom.taobao.taobao
p21
(dp22
g10
F0.042015721247904328
ssVcom.sg.ultrmanydmm
p23
(dp24
g10
F0.00078848436082981925
ssVcom.sina.weibo
p25
(dp26
g10
F0.0017115223668524404
ssVcom.qihoo.appstore
p27
(dp28
g10
F0.033554988038180945
ssVcn.kuwo.player
p29
(dp30
g10
F0.10849329519186005
ssVcom.sonyericsson.soundlevelalert
p31
(dp32
g10
F1.3455364519280192e-05
ssVcom.android.packageinstaller
p33
(dp34
g10
F0.012674953377161942
ssVcom.joym.xiongchumo2.sj360
p35
(dp36
g10
F0.0028606104967989687
ssVcom.android.gallery3d
p37
(dp38
g10
F0.00036329484202056521
ssVcom.baidu.searchbox
p39
(dp40
g10
F0.12223391343894897
ssVcom.sonyericsson.android.socialphonebook
p41
(dp42
g10
F1.3455364519280192e-05
ssVcom.skymoons.hqg.a360
p43
(dp44
g10
F0.018856347837319262
ssVcom.tencent.mm
p45
(dp46
g10
F0.019612539323302806
ssVcom.sonyericsson.music
p47
(dp48
g10
F5.3821458077120769e-05
ssVcom.game.FarmGame2.gc
p49
(dp50
g10
F0.0076076630992010204
ssVcom.sonyericsson.setupwizard
p51
(dp52
g10
F0.015301440531325435
ssVcom.supercleaner
p53
(dp54
g10
F0.0023331602076431851
ssVcom.android.phone
p55
(dp56
g10
F5.3821458077120764e-06
ssVcom.leo.myworldstr
p57
(dp58
g10
F0.00016953759294293042
ssVcom.rebeltwins.daddywasathief
p59
(dp60
g10
F0.0026157228625480694
ssVcom.qihoo.explorer
p61
(dp62
g10
F0.0040096986267454974
ssVcom.tiancity.mpopkart.qihu360
p63
(dp64
g10
F0.00018030188455835458
ssVcom.example.app_log_dhao
p65
(dp66
g10
F5.3821458077120764e-06
ssVcom.imangi.templerun2
p67
(dp68
g10
F0.00033638411298200478
ssVcom.dianxinos.superuser
p69
(dp70
g10
F0.017874106227411805
ssVcom.tencent.mobileqq
p71
(dp72
g10
F0.10952666718694076
ssVcom.kingroot.kinguser
p73
(dp74
g10
F5.3821458077120769e-05
ssVcom.android.settings
p75
(dp76
g10
F0.17262694463655714
ssVcom.tencent.pao
p77
(dp78
g10
F0.0024112013218550105
ssVcom.gamedo.ZombieTerminator
p79
(dp80
g10
F0.0019456457094879157
ssVcom.jm.android.jumei
p81
(dp82
g10
F0.00059203603884832841
ssVcom.android.camera
p83
(dp84
g10
F0.0036275662743979397
ssVcom.mojang.minecraftpe_5
p85
(dp86
g10
F0.024305770467627739
sssS'node_dict_factory'
p87
c__builtin__
dict
p88
sS'edge_attr_dict_factory'
p89
g88
sS'succ'
p90
(dp91
g8
(dp92
Vcom.android.packageinstaller
p93
(dp94
g10
F0.90000000000000002
ssVcom.qihoo.appstore
p95
(dp96
g10
F2.1000000000000001
sssg11
(dp97
Vcom.android.packageinstaller
p98
(dp99
g10
F1.3
ssVcom.dianxinos.superuser
p100
(dp101
g10
F0.40000000000000002
ssVcom.qihoo.appstore
p102
(dp103
g10
F3.4000000000000004
sssg13
(dp104
Vcom.qihoo.appstore
p105
(dp106
g10
F1.7
ssVcom.dianxinos.superuser
p107
(dp108
g10
I1
sssg15
(dp109
Vcom.game.FarmGame2.gc
p110
(dp111
g10
I1
ssVcn.kuwo.player
p112
(dp113
g10
I1
ssVcom.sonyericsson.setupwizard
p114
(dp115
g10
F1.7
ssg31
(dp116
g10
I1
ssVcom.android.settings
p117
(dp118
g10
F0.90000000000000002
ssVcom.android.gallery3d
p119
(dp120
g10
F1.7
ssVcom.taobao.taobao
p121
(dp122
g10
F1.8999999999999999
ssVcom.baidu.searchbox
p123
(dp124
g10
F9.6999999999999993
ssg69
(dp125
g10
F1.8
ssVcom.mojang.minecraftpe_5
p126
(dp127
g10
I1
ssVcom.tencent.mobileqq
p128
(dp129
g10
F5.6000000000000005
ssVcom.qihoo.appstore
p130
(dp131
g10
F1.7999999999999998
sssg17
(dp132
Vcom.tencent.mobileqq
p133
(dp134
g10
F2.3999999999999999
ssVcom.android.gallery3d
p135
(dp136
g10
F1.7
ssVcom.qiyi.video
p137
(dp138
g10
F0.90000000000000002
ssVcom.baidu.searchbox
p139
(dp140
g10
I1
sssg19
(dp141
Vcom.android.settings
p142
(dp143
g10
F0.90000000000000002
ssVcom.sonyericsson.setupwizard
p144
(dp145
g10
F1.7
ssVcom.joym.xiongchumo2.sj360
p146
(dp147
g10
I2
ssg21
(dp148
g10
I1
ssVcom.qihoo.appstore
p149
(dp150
g10
F0.40000000000000002
sssg21
(dp151
Vcom.game.FarmGame2.gc
p152
(dp153
g10
I1
ssVcn.kuwo.player
p154
(dp155
g10
I1
ssVcom.baidu.searchbox
p156
(dp157
g10
F2.2999999999999998
ssVcom.disney.chukong.WMW
p158
(dp159
g10
I1
ssVcom.qiyi.video
p160
(dp161
g10
F1.6000000000000001
ssVcom.tencent.mobileqq
p162
(dp163
g10
I3
sssg23
(dp164
Vcom.android.packageinstaller
p165
(dp166
g10
F0.90000000000000002
ssVcom.qihoo.appstore
p167
(dp168
g10
I1
sssg25
(dp169
Vcn.kuwo.player
p170
(dp171
g10
F2.5999999999999996
ssVcom.tencent.mobileqq
p172
(dp173
g10
F1.3999999999999999
sssg27
(dp174
Vcn.kuwo.player
p175
(dp176
g10
I1
ssg73
(dp177
g10
F0.69999999999999996
ssVcom.supercleaner
p178
(dp179
g10
F10.800000000000001
ssVcom.taobao.taobao
p180
(dp181
g10
I1
ssVcom.android.settings
p182
(dp183
g10
I1
ssg33
(dp184
g10
F20.399999999999995
ssg23
(dp185
g10
F1.7
ssg57
(dp186
g10
F0.90000000000000002
ssg61
(dp187
g10
F2.3999999999999999
ssVcom.jm.android.jumei
p188
(dp189
g10
F0.90000000000000002
ssg17
(dp190
g10
F1.3
ssg67
(dp191
g10
F2.3999999999999999
ssVcom.qiyi.video
p192
(dp193
g10
I1
ssVcom.dianxinos.superuser
p194
(dp195
g10
F36.79999999999999
ssg11
(dp196
g10
F1.8999999999999999
ssg63
(dp197
g10
F0.69999999999999996
ssg45
(dp198
g10
F0.40000000000000002
ssVcom.mojang.minecraftpe_5
p199
(dp200
g10
F1.3
sssg29
(dp201
g43
(dp202
g10
I1
ssVcom.supercleaner
p203
(dp204
g10
F4.0999999999999996
ssVcom.tencent.mobileqq
p205
(dp206
g10
F20.099999999999998
ssVcom.android.packageinstaller
p207
(dp208
g10
F0.69999999999999996
ssg37
(dp209
g10
F0.90000000000000002
ssVcom.qiyi.video
p210
(dp211
g10
F3.5
ssVcom.taobao.taobao
p212
(dp213
g10
I2
ssVcom.qihoo.explorer
p214
(dp215
g10
I1
ssVcom.UCMobile
p216
(dp217
g10
I1
ssVcom.jm.android.jumei
p218
(dp219
g10
F1.8999999999999999
ssVcom.baidu.searchbox
p220
(dp221
g10
F7.0000000000000009
ssVcom.dianxinos.superuser
p222
(dp223
g10
F0.90000000000000002
ssVcom.qihoo.appstore
p224
(dp225
g10
I1
ssg25
(dp226
g10
F0.40000000000000002
ssg47
(dp227
g10
F0.90000000000000002
sssg31
(dp228
g123
(dp229
g10
F0.90000000000000002
ssVcom.qiyi.video
p230
(dp231
g10
I1
sssg33
(dp232
g73
(dp233
g10
F1.7
ssVcom.supercleaner
p234
(dp235
g10
F11.199999999999999
ssg13
(dp236
g10
F1.7000000000000002
ssg57
(dp237
g10
F0.69999999999999996
ssg61
(dp238
g10
F0.90000000000000002
ssg63
(dp239
g10
I1
ssg17
(dp240
g10
F0.69999999999999996
ssVcom.baidu.searchbox
p241
(dp242
g10
F4.4000000000000004
ssg100
(dp243
g10
F14.500000000000002
ssVcom.mojang.minecraftpe_5
p244
(dp245
g10
I1
ssVcom.qihoo.appstore
p246
(dp247
g10
F19.400000000000002
sssg35
(dp248
Vcom.sonyericsson.setupwizard
p249
(dp250
g10
F1.7
ssVcom.android.settings
p251
(dp252
g10
F0.90000000000000002
ssVcom.baidu.searchbox
p253
(dp254
g10
I1
ssVcom.qiyi.video
p255
(dp256
g10
F2.2999999999999998
ssg31
(dp257
g10
F0.69999999999999996
ssVcom.qihoo.appstore
p258
(dp259
g10
I1
sssg37
(dp260
Vcom.android.camera
p261
(dp262
g10
F3.7000000000000002
ssg133
(dp263
g10
F4.7000000000000002
ssg137
(dp264
g10
F1.3999999999999999
ssVcom.UCMobile
p265
(dp266
g10
F3.8999999999999999
sssg39
(dp267
g170
(dp268
g10
F3
ssVcom.supercleaner
p269
(dp270
g10
F2.2000000000000002
ssVcom.taobao.taobao
p271
(dp272
g10
I1
ssVcom.android.settings
p273
(dp274
g10
I2
ssVcom.android.packageinstaller
p275
(dp276
g10
F6.5
ssg13
(dp277
g10
F1.7
ssg37
(dp278
g10
F2.7000000000000002
ssVcom.qihoo.explorer
p279
(dp280
g10
I1
ssg81
(dp281
g10
F0.90000000000000002
ssVcom.qiyi.video
p282
(dp283
g10
F6
ssVcom.tencent.mobileqq
p284
(dp285
g10
F5.8999999999999995
ssg31
(dp286
g10
F0.90000000000000002
ssVcom.android.camera
p287
(dp288
g10
I1
ssg107
(dp289
g10
F1.6000000000000001
ssg47
(dp290
g10
I1
ssg25
(dp291
g10
F1.7
ssVcom.qihoo.appstore
p292
(dp293
g10
F3
sssg41
(dp294
Vcom.qihoo.explorer
p295
(dp296
g10
F0.90000000000000002
ssg55
(dp297
g10
I1
sssg43
(dp298
Vcom.tencent.mobileqq
p299
(dp300
g10
F2.8999999999999999
ssg207
(dp301
g10
F2.2000000000000002
ssVcom.baidu.searchbox
p302
(dp303
g10
F1.7
ssg222
(dp304
g10
I1
ssVcom.android.camera
p305
(dp306
g10
F0.90000000000000002
ssVcom.tencent.mm
p307
(dp308
g10
I1
sssg45
(dp309
g29
(dp310
g10
I1
ssg49
(dp311
g10
I1
ssg37
(dp312
g10
F0.69999999999999996
ssg220
(dp313
g10
F0.90000000000000002
ssVcom.tencent.mobileqq
p314
(dp315
g10
I1
sssg47
(dp316
g170
(dp317
g10
F0.69999999999999996
ssg25
(dp318
g10
F0.90000000000000002
ssVcom.baidu.searchbox
p319
(dp320
g10
I1
sssg49
(dp321
Vcom.skymoons.hqg.a360
p322
(dp323
g10
I1
sssg51
(dp324
g11
(dp325
g10
F0.69999999999999996
ssg75
(dp326
g10
F10.699999999999999
ssVcom.android.packageinstaller
p327
(dp328
g10
F0.69999999999999996
ssVcom.dianxinos.superuser
p329
(dp330
g10
F2.6000000000000001
ssVcom.tencent.mobileqq
p331
(dp332
g10
I1
ssVcom.qihoo.appstore
p333
(dp334
g10
F5.0999999999999996
sssg53
(dp335
Vcn.kuwo.player
p336
(dp337
g10
I1
ssVcom.kingroot.kinguser
p338
(dp339
g10
I1
ssg33
(dp340
g10
F11.9
ssg13
(dp341
g10
F0.69999999999999996
ssg61
(dp342
g10
F0.40000000000000002
ssg65
(dp343
g10
F0.90000000000000002
ssVcom.baidu.searchbox
p344
(dp345
g10
F1.8
ssg194
(dp346
g10
F8.6999999999999993
ssVcom.qiyi.video
p347
(dp348
g10
I1
ssVcom.mojang.minecraftpe_5
p349
(dp350
g10
I1
ssg71
(dp351
g10
I1
ssg27
(dp352
g10
F14.000000000000002
sssg55
(dp353
g295
(dp354
g10
I1
sssg57
(dp355
sg59
(dp356
sg61
(dp357
g29
(dp358
g10
F0.90000000000000002
ssg275
(dp359
g10
F0.69999999999999996
ssg55
(dp360
g10
F0.90000000000000002
ssg37
(dp361
g10
F0.40000000000000002
ssg220
(dp362
g10
F0.69999999999999996
ssg81
(dp363
g10
I1
ssg17
(dp364
g10
I1
ssg41
(dp365
g10
I1
ssg45
(dp366
g10
I1
ssg292
(dp367
g10
F0.90000000000000002
sssg63
(dp368
Vcom.dianxinos.superuser
p369
(dp370
g10
I1
sssg65
(dp371
g27
(dp372
g10
I1
sssg67
(dp373
sg69
(dp374
g73
(dp375
g10
F1.3
ssg234
(dp376
g10
F7.1000000000000005
ssg11
(dp377
g10
I1
ssg165
(dp378
g10
F25.699999999999996
ssVcom.qihoo.gameunion
p379
(dp380
g10
I1
ssg57
(dp381
g10
F1.3999999999999999
ssVcom.taobao.taobao
p382
(dp383
g10
I1
ssg63
(dp384
g10
F0.90000000000000002
ssg67
(dp385
g10
F4.1000000000000005
ssg23
(dp386
g10
F0.90000000000000002
ssg199
(dp387
g10
F2.7000000000000002
ssVcom.tencent.mobileqq
p388
(dp389
g10
I1
ssg130
(dp390
g10
F17.300000000000001
sssg71
(dp391
Vcn.kuwo.player
p392
(dp393
g10
F23.099999999999994
ssVcom.sonyericsson.setupwizard
p394
(dp395
g10
F1.7
ssVcom.supercleaner
p396
(dp397
g10
I1
ssVcom.android.settings
p398
(dp399
g10
F0.90000000000000002
ssVcom.android.packageinstaller
p400
(dp401
g10
F2.0999999999999996
ssg77
(dp402
g10
I1
ssVcom.android.gallery3d
p403
(dp404
g10
F3.0999999999999996
ssVcom.baidu.searchbox
p405
(dp406
g10
F5
ssVcom.taobao.taobao
p407
(dp408
g10
F2.8999999999999999
ssVcom.UCMobile
p409
(dp410
g10
F1.3
ssg65
(dp411
g10
I1
ssg160
(dp412
g10
F5.7000000000000002
ssg69
(dp413
g10
F1.8999999999999999
ssg305
(dp414
g10
F2.8999999999999999
ssVcom.mojang.minecraftpe_5
p415
(dp416
g10
I5
ssVcom.skymoons.hqg.a360
p417
(dp418
g10
I3
ssg307
(dp419
g10
F0.90000000000000002
ssg27
(dp420
g10
F4.9000000000000004
sssg73
(dp421
g234
(dp422
g10
I1
ssVcom.qihoo.appstore
p423
(dp424
g10
F1.7
sssg75
(dp425
g29
(dp426
g10
F0.40000000000000002
ssVcom.sonyericsson.setupwizard
p427
(dp428
g10
I8
ssg11
(dp429
g10
F0.40000000000000002
ssVcom.tencent.mobileqq
p430
(dp431
g10
I1
ssg327
(dp432
g10
F0.40000000000000002
ssVcom.android.gallery3d
p433
(dp434
g10
I1
ssVcom.qihoo.explorer
p435
(dp436
g10
F0.90000000000000002
ssg188
(dp437
g10
I1
ssVcom.UCMobile
p438
(dp439
g10
F0.69999999999999996
ssVcom.baidu.searchbox
p440
(dp441
g10
F0.90000000000000002
ssg329
(dp442
g10
F1.3999999999999999
ssVcom.android.camera
p443
(dp444
g10
F0.90000000000000002
ssg45
(dp445
g10
F0.69999999999999996
ssg333
(dp446
g10
F2.7000000000000002
sssg77
(dp447
Vcom.android.packageinstaller
p448
(dp449
g10
F0.90000000000000002
ssVcom.qihoo.appstore
p450
(dp451
g10
I1
sssg79
(dp452
Vcom.android.packageinstaller
p453
(dp454
g10
F0.90000000000000002
ssVcom.qihoo.appstore
p455
(dp456
g10
F2.1000000000000001
sssg81
(dp457
g29
(dp458
g10
F0.69999999999999996
ssg275
(dp459
g10
F0.90000000000000002
ssg220
(dp460
g10
F0.40000000000000002
ssg435
(dp461
g10
I1
ssg45
(dp462
g10
F0.90000000000000002
ssg292
(dp463
g10
I1
sssg83
(dp464
Vcn.kuwo.player
p465
(dp466
g10
I1
ssg265
(dp467
g10
F2.7000000000000002
ssg403
(dp468
g10
F5.2999999999999998
ssg137
(dp469
g10
F0.69999999999999996
ssVcom.baidu.searchbox
p470
(dp471
g10
I1
sssg85
(dp472
Vcom.leo.myworldstr
p473
(dp474
g10
I1
ssVcom.dianxinos.superuser
p475
(dp476
g10
I1
ssVcom.android.gallery3d
p477
(dp478
g10
F2.2000000000000002
ssVcom.jm.android.jumei
p479
(dp480
g10
I1
ssg438
(dp481
g10
F0.40000000000000002
ssVcom.android.settings
p482
(dp483
g10
I1
ssVcom.android.camera
p484
(dp485
g10
F2.3999999999999999
ssssS'edge'
p486
g91
sS'graph'
p487
(dp488
sS'adjlist_dict_factory'
p489
g88
sS'adj'
p490
g91
sS'pred'
p491
(dp492
g8
(dp493
sg11
(dp494
g142
g429
sVcom.sonyericsson.setupwizard
p495
g325
sg329
g377
sg149
g196
ssg13
(dp496
Vcom.android.packageinstaller
p497
g236
sVcom.baidu.searchbox
p498
g277
sVcom.supercleaner
p499
g341
sg107
g380
ssg15
(dp500
Vcn.kuwo.player
p501
g211
sVcom.supercleaner
p502
g348
sg31
g231
sVcom.joym.xiongchumo2.sj360
p503
g256
sVcom.android.gallery3d
p504
g264
sVcom.baidu.searchbox
p505
g283
sg265
g138
sg407
g161
sVcom.android.camera
p506
g469
sVcom.tencent.mobileqq
p507
g412
sVcom.qihoo.appstore
p508
g193
ssg17
(dp509
Vcn.kuwo.player
p510
g217
sg482
g439
sg33
g240
sg477
g266
sg61
g364
sg261
g467
sVcom.mojang.minecraftpe_5
p511
g481
sg133
g410
sVcom.qihoo.appstore
p512
g190
ssg19
(dp513
Vcom.taobao.taobao
p514
g159
ssg21
(dp515
Vcn.kuwo.player
p516
g213
sVcom.qiyi.video
p517
g122
sVcom.disney.chukong.WMW
p518
g148
sVcom.baidu.searchbox
p519
g272
sVcom.dianxinos.superuser
p520
g383
sg507
g408
sVcom.qihoo.appstore
p521
g181
ssg23
(dp522
Vcom.dianxinos.superuser
p523
g386
sVcom.qihoo.appstore
p524
g185
ssg25
(dp525
Vcn.kuwo.player
p526
g226
sVcom.baidu.searchbox
p527
g291
sg47
g318
ssg27
(dp528
g175
g225
sg73
g424
sVcom.sonyericsson.setupwizard
p529
g334
sg13
g106
sg8
g96
sg53
g352
sVcom.jumo.leidian.nl_360
p530
g103
sg23
g168
sVcom.android.settings
p531
g446
sg33
g247
sg35
g259
sg15
g131
sg81
g463
sg279
g367
sg77
g451
sg65
g372
sVcom.disney.chukong.WMW
p532
g150
sVcom.baidu.searchbox
p533
g293
sg69
g390
sg71
g420
sg79
g456
ssg29
(dp534
g269
g337
sVcom.taobao.taobao
p535
g155
sg182
g426
sg25
g171
sg527
g268
sg188
g458
sg435
g358
sVcom.tencent.mobileqq
p536
g393
sg83
g466
sVcom.qiyi.video
p537
g113
sVcom.qihoo.appstore
p538
g176
sg45
g310
sg47
g317
ssg31
(dp539
Vcom.joym.xiongchumo2.sj360
p540
g257
sVcom.qiyi.video
p541
g116
sg253
g286
ssg33
(dp542
Vcn.kuwo.player
p543
g208
sVcom.sonyericsson.setupwizard
p544
g328
sg77
g449
sg8
g94
sVcom.supercleaner
p545
g340
sg530
g99
sg117
g432
sg23
g166
sg279
g359
sg81
g459
sg533
g276
sg523
g378
sg43
g301
sVcom.tencent.mobileqq
p546
g401
sg79
g454
sg512
g184
ssg35
(dp547
g19
g147
ssg37
(dp548
g29
g209
sg45
g312
sg220
g278
sg265
g136
sg435
g361
sg482
g434
sg287
g468
sg137
g120
sVcom.tencent.mobileqq
p549
g404
sVcom.mojang.minecraftpe_5
p550
g478
ssg39
(dp551
g29
g221
sg269
g345
sg271
g157
sg31
g229
sg400
g242
sg540
g254
sg435
g362
sg188
g460
sVcom.UCMobile
p552
g140
sg541
g124
sg284
g406
sVcom.android.settings
p553
g441
sg287
g471
sVcom.skymoons.hqg.a360
p554
g303
sg45
g313
sg47
g320
ssg41
(dp555
Vcom.qihoo.explorer
p556
g365
ssg43
(dp557
g543
g202
sVcom.game.FarmGame2.gc
p558
g323
sVcom.tencent.mobileqq
p559
g418
ssg45
(dp560
g182
g445
sg435
g366
sg188
g462
sg417
g308
sg559
g419
sVcom.qihoo.appstore
p561
g198
ssg47
(dp562
g526
g227
sg527
g290
ssg49
(dp563
Vcom.tencent.mm
p564
g311
sVcom.qiyi.video
p565
g111
sVcom.taobao.taobao
p566
g153
ssg51
(dp567
g75
g428
sVcom.joym.xiongchumo2.sj360
p568
g250
sg532
g145
sVcom.qiyi.video
p569
g115
sg331
g395
ssg53
(dp570
Vcn.kuwo.player
p571
g204
sg73
g422
sVcom.android.packageinstaller
p572
g235
sVcom.baidu.searchbox
p573
g270
sVcom.dianxinos.superuser
p574
g376
sVcom.tencent.mobileqq
p575
g397
sVcom.qihoo.appstore
p576
g179
ssg55
(dp577
g556
g360
sg41
g297
ssg57
(dp578
g85
g474
sVcom.android.packageinstaller
p579
g237
sVcom.qihoo.appstore
p580
g186
sVcom.dianxinos.superuser
p581
g381
ssg59
(dp582
sg61
(dp583
Vcn.kuwo.player
p584
g215
sg545
g342
sg182
g436
sg33
g238
sg55
g354
sg533
g280
sg188
g461
sg41
g296
sg512
g187
ssg63
(dp585
Vcom.android.packageinstaller
p586
g239
sVcom.dianxinos.superuser
p587
g384
sVcom.qihoo.appstore
p588
g197
ssg65
(dp589
g71
g411
sg53
g343
ssg67
(dp590
Vcom.dianxinos.superuser
p591
g385
sVcom.qihoo.appstore
p592
g191
ssg69
(dp593
g543
g223
sg144
g330
sg178
g346
sVcom.jumo.leidian.nl_360
p594
g101
sg142
g442
sg98
g243
sg13
g108
sg15
g125
sg63
g370
sg498
g289
sg199
g476
sg43
g304
sg128
g413
sg576
g195
ssg71
(dp595
Vcn.kuwo.player
p596
g206
sVcom.sonyericsson.setupwizard
p597
g332
sg53
g351
sg553
g431
sg307
g315
sg135
g263
sVcom.baidu.searchbox
p598
g285
sg265
g134
sg407
g163
sg69
g389
sg15
g129
sVcom.skymoons.hqg.a360
p599
g300
sVcom.sina.weibo
p600
g173
ssg73
(dp601
g572
g233
sg574
g375
sg234
g339
sVcom.qihoo.appstore
p602
g177
ssg75
(dp603
g51
g326
sg568
g252
sg39
g274
sg532
g143
sg569
g118
sg511
g483
sg331
g399
sg561
g183
ssg77
(dp604
Vcom.tencent.mobileqq
p605
g402
ssg79
(dp606
sg81
(dp607
Vcn.kuwo.player
p608
g219
sg182
g437
sg279
g363
sg533
g281
sg561
g189
sVcom.mojang.minecraftpe_5
p609
g480
ssg83
(dp610
g482
g444
sg477
g262
sVcom.baidu.searchbox
p611
g288
sg599
g306
sg299
g414
sg550
g485
ssg85
(dp612
Vcom.supercleaner
p613
g350
sVcom.android.packageinstaller
p614
g245
sVcom.qiyi.video
p615
g127
sVcom.dianxinos.superuser
p616
g387
sVcom.tencent.mobileqq
p617
g416
sVcom.qihoo.appstore
p618
g200
sssb.