ccopy_reg
_reconstructor
p1
(cnetworkx.classes.digraph
DiGraph
p2
c__builtin__
object
p3
NtRp4
(dp5
S'node'
p6
(dp7
Vcom.android.mms
p8
(dp9
S'weight'
p10
F0.01537314521422725
ssVcom.UCMobile
p11
(dp12
g10
F0.011693963386468066
ssVcom.sec.android.app.clockpackage
p13
(dp14
g10
F0.00071314537630574491
ssVcom.sec.android.app.myfiles
p15
(dp16
g10
F0.00057537865588304414
ssVcom.android.settings
p17
(dp18
g10
F0.004554405698679871
ssVcom.android.gallery3d
p19
(dp20
g10
F0.0025608402149160841
ssVcom.baidu.BaiduMap
p21
(dp22
g10
F0.0044409507524494109
ssVcom.android.connectionhandler
p23
(dp24
g10
F0.09702829080123504
ssVcom.sina.weibog3
p25
(dp26
g10
F0.01095650623597008
ssVcom.storm.smart
p27
(dp28
g10
F0.0016694084945339028
ssVcom.tencent.qqmusic
p29
(dp30
g10
F0.0032496738170295874
ssVcom.android.launcher
p31
(dp32
g10
F0.61819169023558107
ssVcom.android.phone
p33
(dp34
g10
F0.010980818010162322
ssVcom.qihoo.cleandroid_cn
p35
(dp36
g10
F0.0008590160214591927
ssVcom.android.camera
p37
(dp38
g10
F0.00032415698922988402
ssVcom.infraware.polarisoffice4
p39
(dp40
g10
F0.00041330016126810213
ssVsoft.kinoko.SilentCamera
p41
(dp42
g10
F9.7247096768965209e-05
ssVcom.tencent.mm
p43
(dp44
g10
F0.18292989294715431
ssVcom.android.contacts
p45
(dp46
g10
F0.0032010502686451048
ssVcom.tencent.mobileqq
p47
(dp48
g10
F0.030187119622032951
sssS'node_dict_factory'
p49
c__builtin__
dict
p50
sS'edge_attr_dict_factory'
p51
g50
sS'succ'
p52
(dp53
g8
(dp54
Vcom.tencent.mobileqq
p55
(dp56
g10
F0.40000000000000002
ssVcom.tencent.mm
p57
(dp58
g10
F8.5000000000000018
ssVcom.android.contacts
p59
(dp60
g10
F2.8999999999999999
ssVcom.android.launcher
p61
(dp62
g10
F19.199999999999999
sssg11
(dp63
Vcom.android.launcher
p64
(dp65
g10
I2
sssg13
(dp66
Vcom.android.gallery3d
p67
(dp68
g10
F0.90000000000000002
ssVcom.tencent.mm
p69
(dp70
g10
F1.7
ssVcom.android.launcher
p71
(dp72
g10
I2
sssg15
(dp73
g39
(dp74
g10
I1
sssg17
(dp75
Vcom.tencent.mobileqq
p76
(dp77
g10
I1
ssVcom.tencent.mm
p78
(dp79
g10
F2.6000000000000001
ssVcom.baidu.BaiduMap
p80
(dp81
g10
I2
ssVcom.android.launcher
p82
(dp83
g10
F2.8999999999999999
ssVcom.android.connectionhandler
p84
(dp85
g10
I1
sssg19
(dp86
Vcom.tencent.mm
p87
(dp88
g10
F2.7999999999999998
ssVcom.android.launcher
p89
(dp90
g10
I2
sssg21
(dp91
g17
(dp92
g10
F3.7000000000000002
ssVcom.android.launcher
p93
(dp94
g10
I3
sssg23
(dp95
Vcom.tencent.mm
p96
(dp97
g10
F7.4000000000000012
ssVcom.android.contacts
p98
(dp99
g10
I1
ssVcom.android.launcher
p100
(dp101
g10
F5.5
sssg25
(dp102
Vcom.tencent.mobileqq
p103
(dp104
g10
F1.3
ssVcom.android.mms
p105
(dp106
g10
F0.40000000000000002
ssVcom.android.launcher
p107
(dp108
g10
F9.5
ssVcom.sec.android.app.clockpackage
p109
(dp110
g10
F0.40000000000000002
ssVcom.tencent.mm
p111
(dp112
g10
F3.6000000000000001
ssVcom.android.contacts
p113
(dp114
g10
F1.3
sssg27
(dp115
Vcom.android.launcher
p116
(dp117
g10
I2
sssg29
(dp118
Vcom.tencent.mobileqq
p119
(dp120
g10
F0.90000000000000002
ssVcom.tencent.mm
p121
(dp122
g10
F0.90000000000000002
ssVcom.android.launcher
p123
(dp124
g10
F3.7000000000000002
sssg31
(dp125
g8
(dp126
g10
F21.899999999999995
ssVcom.tencent.mobileqq
p127
(dp128
g10
F21.299999999999994
ssVcom.android.phone
p129
(dp130
g10
F0.90000000000000002
ssg19
(dp131
g10
F6.8000000000000007
ssg21
(dp132
g10
F5.4000000000000004
ssg23
(dp133
g10
F10.9
ssg25
(dp134
g10
F6.1000000000000005
ssg11
(dp135
g10
I1
ssg29
(dp136
g10
F5.4000000000000004
ssVcom.storm.smart
p137
(dp138
g10
F1.7
ssg17
(dp139
g10
F6.6000000000000005
ssg35
(dp140
g10
I1
ssg37
(dp141
g10
I2
ssg109
(dp142
g10
F2.7000000000000002
ssg41
(dp143
g10
I1
ssVcom.tencent.mm
p144
(dp145
g10
F153.30000000000004
ssg45
(dp146
g10
F16.799999999999997
sssg33
(dp147
Vcom.tencent.mm
p148
(dp149
g10
F7.0000000000000009
ssVcom.android.contacts
p150
(dp151
g10
F9.5
ssVcom.android.launcher
p152
(dp153
g10
F9.3000000000000007
ssVcom.android.connectionhandler
p154
(dp155
g10
I1
sssg35
(dp156
sg37
(dp157
g19
(dp158
g10
F0.90000000000000002
ssVcom.android.launcher
p159
(dp160
g10
I1
sssg39
(dp161
Vcom.sec.android.app.myfiles
p162
(dp163
g10
I1
sssg41
(dp164
sg43
(dp165
Vcom.android.settings
p166
(dp167
g10
I1
ssVcom.android.gallery3d
p168
(dp169
g10
F4.1000000000000005
ssVcom.android.mms
p170
(dp171
g10
F6.2000000000000002
ssVcom.android.connectionhandler
p172
(dp173
g10
I5
ssg25
(dp174
g10
F2.7000000000000002
ssg31
(dp175
g10
F76.000000000000014
ssVcom.android.phone
p176
(dp177
g10
I1
ssg137
(dp178
g10
F0.90000000000000002
ssg109
(dp179
g10
F0.90000000000000002
ssVcom.tencent.mobileqq
p180
(dp181
g10
F9.8000000000000025
ssg45
(dp182
g10
F3.8999999999999999
sssg45
(dp183
Vcom.android.mms
p184
(dp185
g10
F4
ssg148
(dp186
g10
F2.2000000000000002
ssg152
(dp187
g10
F10.4
ssg129
(dp188
g10
I1
sssg47
(dp189
Vcom.android.settings
p190
(dp191
g10
I1
ssg170
(dp192
g10
F0.69999999999999996
ssg25
(dp193
g10
F0.40000000000000002
ssVcom.tencent.qqmusic
p194
(dp195
g10
F1.3
ssVcom.android.launcher
p196
(dp197
g10
F16.699999999999999
ssVcom.tencent.mm
p198
(dp199
g10
F3.6999999999999997
ssssS'edge'
p200
g53
sS'graph'
p201
(dp202
sS'adjlist_dict_factory'
p203
g50
sS'adj'
p204
g53
sS'pred'
p205
(dp206
g8
(dp207
Vcom.sina.weibog3
p208
g106
sVcom.tencent.mm
p209
g171
sVcom.tencent.mobileqq
p210
g192
sVcom.android.contacts
p211
g185
sVcom.android.launcher
p212
g126
ssg11
(dp213
Vcom.android.launcher
p214
g135
ssg13
(dp215
Vcom.sina.weibog3
p216
g110
sVcom.tencent.mm
p217
g179
sVcom.android.launcher
p218
g142
ssg15
(dp219
g39
g163
ssg17
(dp220
Vcom.tencent.mm
p221
g167
sVcom.tencent.mobileqq
p222
g191
sVcom.baidu.BaiduMap
p223
g92
sVcom.android.launcher
p224
g139
ssg19
(dp225
g37
g158
sg109
g68
sVcom.tencent.mm
p226
g169
sVcom.android.launcher
p227
g131
ssg21
(dp228
Vcom.android.settings
p229
g81
sVcom.android.launcher
p230
g132
ssg23
(dp231
Vcom.android.settings
p232
g85
sVcom.tencent.mm
p233
g173
sVcom.android.launcher
p234
g133
sVcom.android.phone
p235
g155
ssg25
(dp236
Vcom.tencent.mm
p237
g174
sVcom.tencent.mobileqq
p238
g193
sVcom.android.launcher
p239
g134
ssg27
(dp240
Vcom.tencent.mm
p241
g178
sVcom.android.launcher
p242
g138
ssg29
(dp243
g119
g195
sVcom.android.launcher
p244
g136
ssg31
(dp245
Vcom.android.gallery3d
p246
g90
sg47
g197
sg8
g62
sg21
g94
sg172
g101
sg25
g108
sg11
g65
sg29
g124
sg33
g153
sg27
g117
sg37
g160
sg13
g72
sg43
g175
sg150
g187
sVcom.android.settings
p247
g83
ssg33
(dp248
Vcom.tencent.mm
p249
g177
sVcom.android.contacts
p250
g188
sVcom.android.launcher
p251
g130
ssg35
(dp252
Vcom.android.launcher
p253
g140
ssg37
(dp254
g227
g141
ssg39
(dp255
g15
g74
ssg41
(dp256
Vcom.android.launcher
p257
g143
ssg43
(dp258
g246
g88
sg247
g79
sVcom.android.mms
p259
g58
sg172
g97
sg25
g112
sg29
g122
sVcom.android.launcher
p260
g145
sg33
g149
sg109
g70
sVcom.tencent.mobileqq
p261
g199
sg150
g186
ssg45
(dp262
Vcom.android.mms
p263
g60
sg154
g99
sVcom.sina.weibog3
p264
g114
sVcom.android.launcher
p265
g146
sg33
g151
sVcom.tencent.mm
p266
g182
ssg47
(dp267
g190
g77
sVcom.android.mms
p268
g56
sVcom.sina.weibog3
p269
g104
sVcom.tencent.qqmusic
p270
g120
sg196
g128
sVcom.tencent.mm
p271
g181
sssb.