ccopy_reg
_reconstructor
p1
(cnetworkx.classes.digraph
DiGraph
p2
c__builtin__
object
p3
NtRp4
(dp5
S'node'
p6
(dp7
Vcom.android.browser
p8
(dp9
S'weight'
p10
F0.00068029646603888429
ssVcom.android.calendar
p11
(dp12
g10
F3.5805077159941278e-05
ssVcom.youku.phone
p13
(dp14
g10
F0.0061656342869418884
ssVcom.ea.game.pvz2_row
p15
(dp16
g10
F0.0055712700060868633
ssVcom.android.updater
p17
(dp18
g10
F0.009907264850155752
ssVcom.miui.weather2
p19
(dp20
g10
F1.7902538579970639e-05
ssVcom.qiyi.video
p21
(dp22
g10
F0.018131691073794264
ssVcom.evernote
p23
(dp24
g10
F0.00013247878549178273
ssVcom.xiaomi.smarthome
p25
(dp26
g10
F1.7902538579970639e-05
ssVcom.UCMobile
p27
(dp28
g10
F0.01303662859393462
ssVcom.duowan.mobile
p29
(dp30
g10
F0.0013462709012137921
ssVcom.taobao.taobao
p31
(dp32
g10
F0.017515843746643275
ssVcom.tencent.android.qqdownloader
p33
(dp34
g10
F0.00033298721758745389
ssVcn.kidstone.cartoon
p35
(dp36
g10
F0.021909126714168069
ssVcom.sina.weibo
p37
(dp38
g10
F0.0051774141573275086
ssVcom.eg.android.AlipayGphone
p39
(dp40
g10
F0.0021268215833005122
ssVcom.anzogame.game
p41
(dp42
g10
F0.028296752479501593
ssVcom.gameloft.android.ANMP.GloftA8HM
p43
(dp44
g10
F0.012069891510616205
ssVcn.wps.moffice_eng
p45
(dp46
g10
F0.0002184109706756418
ssVcom.alibaba.mobileim
p47
(dp48
g10
F0.0067886426295248664
ssVcom.android.packageinstaller
p49
(dp50
g10
F0.00094525403702244975
ssVcom.sankuai.meituan
p51
(dp52
g10
F0.00081635575924666115
ssVcom.tencent.token
p53
(dp54
g10
F0.021790969959540264
ssVcom.ximalaya.ting.android
p55
(dp56
g10
F0.010716459593970424
ssVme.ele
p57
(dp58
g10
F0.0025887070786637543
ssVcom.xiaomi.shop
p59
(dp60
g10
F4.6546600307923662e-05
ssVcom.android.phone
p61
(dp62
g10
F0.036485373625980165
ssVcom.miui.gallery
p63
(dp64
g10
F0.00032224569443947151
ssVcom.tencent.mm
p65
(dp66
g10
F0.050309713917433489
ssVcom.miui.antispam
p67
(dp68
g10
F5.7288123455906045e-05
ssVtv.danmaku.bili
p69
(dp70
g10
F0.003440867915070357
ssVcom.miui.mipub
p71
(dp72
g10
F1.0741523147982384e-05
ssVcom.tencent.news
p73
(dp74
g10
F0.077220809910845359
ssVcom.netease.cloudmusic
p75
(dp76
g10
F0.08413835081814601
ssVcom.android.calculator
p77
(dp78
g10
F0.0083604855168462888
ssVcom.baidu.input
p79
(dp80
g10
F7.1610154319882557e-06
ssVcom.cootek.smartdialer
p81
(dp82
g10
F0.0013355293780658098
ssVcom.android.fileexplorer
p83
(dp84
g10
F0.00016470335493572988
ssVcom.example.app_log_dhao
p85
(dp86
g10
F5.012710802391779e-05
ssVcom.miui.yellowpage
p87
(dp88
g10
F2.8644061727953023e-05
ssVcom.chinamworld.main
p89
(dp90
g10
F0.00012531777005979447
ssVcom.android.email
p91
(dp92
g10
F0.06370797379068352
ssVcom.duokan.reader
p93
(dp94
g10
F0.0039170754412975756
ssVcom.tencent.mobileqq
p95
(dp96
g10
F0.23222814995166313
ssVcom.miui.player
p97
(dp98
g10
F1.0741523147982384e-05
ssVcom.android.deskclock
p99
(dp100
g10
F0.09089834938594292
ssVcom.sankuai.meituan.takeoutnew
p101
(dp102
g10
F0.0018905080740448995
ssVcom.miui.notes
p103
(dp104
g10
F8.9512692899853196e-05
ssVcom.netease.mail
p105
(dp106
g10
F0.0015073937484335279
ssVcom.tuan800.tao800
p107
(dp108
g10
F0.06784704071037273
ssVcom.sinovatech.unicom.ui
p109
(dp110
g10
F0.0072791721866160624
ssVcom.android.settings
p111
(dp112
g10
F0.0337785097926886
ssVcom.tencent.reading
p113
(dp114
g10
F0.029206201439364102
ssVcom.android.mms
p115
(dp116
g10
F0.012084213541480182
ssVcom.miui.video
p117
(dp118
g10
F0.00048336854165920726
ssVcom.miui.securitycenter
p119
(dp120
g10
F7.8771169751870812e-05
ssVcom.qzone
p121
(dp122
g10
F6.8029646603888429e-05
ssVde.hs_osnabrueck.asta.sensorlog
p123
(dp124
g10
F6.8029646603888429e-05
ssVcom.android.camera
p125
(dp126
g10
F8.9512692899853196e-05
ssVcom.xiaoji.emulator
p127
(dp128
g10
F0.0062623079952737297
ssVcom.xiaomi.account
p129
(dp130
g10
F1.0741523147982384e-05
ssVcom.miui.networkassistant
p131
(dp132
g10
F5.3707615739911918e-05
sssS'node_dict_factory'
p133
c__builtin__
dict
p134
sS'edge_attr_dict_factory'
p135
g134
sS'succ'
p136
(dp137
g8
(dp138
Vcom.tencent.mobileqq
p139
(dp140
g10
I1
sssg11
(dp141
sg13
(dp142
Vcom.tencent.news
p143
(dp144
g10
F0.69999999999999996
ssVcom.sinovatech.unicom.ui
p145
(dp146
g10
F0.69999999999999996
ssVcom.tencent.mobileqq
p147
(dp148
g10
F2.7000000000000002
ssg49
(dp149
g10
F2.2999999999999998
ssg21
(dp150
g10
F0.69999999999999996
ssVcom.UCMobile
p151
(dp152
g10
I1
ssg29
(dp153
g10
I1
ssVcom.android.settings
p154
(dp155
g10
F1.8999999999999999
ssVcn.kidstone.cartoon
p156
(dp157
g10
F0.90000000000000002
ssVcom.tencent.mm
p158
(dp159
g10
F0.90000000000000002
ssg129
(dp160
g10
F0.40000000000000002
sssg15
(dp161
Vcom.android.browser
p162
(dp163
g10
I1
ssVcom.tencent.mobileqq
p164
(dp165
g10
I1
ssVcom.android.settings
p166
(dp167
g10
F0.90000000000000002
sssg17
(dp168
Vcom.tencent.reading
p169
(dp170
g10
I1
ssg77
(dp171
g10
I1
ssVcom.android.settings
p172
(dp173
g10
I1
ssVcom.tencent.mm
p174
(dp175
g10
F0.40000000000000002
ssVcom.android.mms
p176
(dp177
g10
F0.90000000000000002
ssVcom.tencent.mobileqq
p178
(dp179
g10
F2.7999999999999998
ssVcom.sankuai.meituan.takeoutnew
p180
(dp181
g10
F1.7
sssg19
(dp182
sg21
(dp183
g103
(dp184
g10
F0.90000000000000002
ssVcom.android.settings
p185
(dp186
g10
F2.2999999999999998
ssVcom.taobao.taobao
p187
(dp188
g10
F4.5
ssVcom.android.deskclock
p189
(dp190
g10
I1
ssVcom.android.phone
p191
(dp192
g10
I1
ssVcom.tencent.mobileqq
p193
(dp194
g10
F7.6000000000000005
ssg129
(dp195
g10
I1
sssg23
(dp196
Vcom.android.mms
p197
(dp198
g10
I1
sssg25
(dp199
Vcom.taobao.taobao
p200
(dp201
g10
I1
sssg27
(dp202
Vcom.youku.phone
p203
(dp204
g10
I1
ssVcom.sinovatech.unicom.ui
p205
(dp206
g10
I1
ssVcom.android.settings
p207
(dp208
g10
I2
ssg49
(dp209
g10
F1.7
ssVcom.android.mms
p210
(dp211
g10
F1.8
ssg21
(dp212
g10
F1.7000000000000002
ssVcom.android.deskclock
p213
(dp214
g10
I1
ssVme.ele
p215
(dp216
g10
F1.7
ssVcom.tencent.mobileqq
p217
(dp218
g10
F2.7000000000000002
ssg129
(dp219
g10
F0.69999999999999996
ssVcom.netease.mail
p220
(dp221
g10
I1
sssg29
(dp222
Vcn.kidstone.cartoon
p223
(dp224
g10
I1
sssg31
(dp225
g103
(dp226
g10
F1.3999999999999999
ssVcom.tuan800.tao800
p227
(dp228
g10
I1
ssVcom.android.settings
p229
(dp230
g10
F1.7
ssVcom.tencent.reading
p231
(dp232
g10
F1.7000000000000002
ssVcom.qiyi.video
p233
(dp234
g10
F1.8
ssg25
(dp235
g10
I1
ssVcom.tencent.token
p236
(dp237
g10
I1
ssg47
(dp238
g10
I1
ssVcom.tencent.mobileqq
p239
(dp240
g10
F8.1000000000000014
sssg33
(dp241
g55
(dp242
g10
F1.7
ssVcom.android.packageinstaller
p243
(dp244
g10
F1.7
ssVcom.miui.gallery
p245
(dp246
g10
F1.7000000000000002
sssg35
(dp247
Vcom.anzogame.game
p248
(dp249
g10
I1
ssVcom.android.email
p250
(dp251
g10
I1
ssg143
(dp252
g10
I1
ssg113
(dp253
g10
F1.7
ssVcom.android.settings
p254
(dp255
g10
F0.40000000000000002
ssVcom.android.packageinstaller
p256
(dp257
g10
F0.90000000000000002
ssVcom.duowan.mobile
p258
(dp259
g10
I1
ssVcom.xiaoji.emulator
p260
(dp261
g10
I1
ssVcom.tencent.mobileqq
p262
(dp263
g10
F3.9999999999999996
sssg37
(dp264
sg39
(dp265
g89
(dp266
g10
I1
ssVcom.sinovatech.unicom.ui
p267
(dp268
g10
I1
ssVcom.android.mms
p269
(dp270
g10
F0.69999999999999996
ssVme.ele
p271
(dp272
g10
I1
ssg33
(dp273
g10
F0.69999999999999996
ssVcom.tencent.mobileqq
p274
(dp275
g10
F8.5999999999999996
sssg41
(dp276
g19
(dp277
g10
F0.90000000000000002
ssVcom.tencent.news
p278
(dp279
g10
F1.8
ssVcom.tuan800.tao800
p280
(dp281
g10
I2
ssVcom.tencent.reading
p282
(dp283
g10
I1
ssg115
(dp284
g10
F2.1000000000000001
ssVcom.tencent.token
p285
(dp286
g10
I1
ssg61
(dp287
g10
F0.69999999999999996
ssg35
(dp288
g10
F0.90000000000000002
ssVcom.tencent.mobileqq
p289
(dp290
g10
F13.1
ssVcom.miui.antispam
p291
(dp292
g10
F0.69999999999999996
sssg43
(dp293
Vcom.android.calculator
p294
(dp295
g10
F0.90000000000000002
ssVcom.android.settings
p296
(dp297
g10
F1.8999999999999999
ssg127
(dp298
g10
I1
ssVcom.tencent.mobileqq
p299
(dp300
g10
F0.90000000000000002
ssVcom.tuan800.tao800
p301
(dp302
g10
I1
sssg45
(dp303
Vcom.tencent.mm
p304
(dp305
g10
F0.90000000000000002
ssVme.ele
p306
(dp307
g10
F0.69999999999999996
ssVcom.tencent.mobileqq
p308
(dp309
g10
I1
ssVcom.netease.mail
p310
(dp311
g10
I1
sssg47
(dp312
sg49
(dp313
Vcom.gameloft.android.ANMP.GloftA8HM
p314
(dp315
g10
F0.90000000000000002
ssVcom.netease.cloudmusic
p316
(dp317
g10
I1
ssg21
(dp318
g10
F1.7
ssg55
(dp319
g10
F1.8
ssg187
(dp320
g10
F0.40000000000000002
ssVcom.tencent.android.qqdownloader
p321
(dp322
g10
I1
ssg245
(dp323
g10
F2.3999999999999999
ssVcom.tencent.mobileqq
p324
(dp325
g10
F1.8999999999999999
ssg129
(dp326
g10
F0.90000000000000002
sssg51
(dp327
Vcom.android.settings
p328
(dp329
g10
I1
sssg53
(dp330
g77
(dp331
g10
F0.90000000000000002
ssg17
(dp332
g10
I1
ssVcom.android.email
p333
(dp334
g10
I1
ssVcom.tencent.mobileqq
p335
(dp336
g10
F1.7
sssg55
(dp337
g156
(dp338
g10
F0.69999999999999996
ssVcom.youku.phone
p339
(dp340
g10
I1
ssVcom.android.settings
p341
(dp342
g10
F2.2999999999999998
ssVcom.android.packageinstaller
p343
(dp344
g10
F0.90000000000000002
ssVcom.android.mms
p345
(dp346
g10
F0.40000000000000002
ssg57
(dp347
g10
F2.3999999999999999
ssVcom.android.phone
p348
(dp349
g10
I1
ssg245
(dp350
g10
F2.7000000000000002
ssVcom.tencent.mobileqq
p351
(dp352
g10
F0.90000000000000002
ssg143
(dp353
g10
F0.40000000000000002
sssg57
(dp354
Vcom.android.settings
p355
(dp356
g10
I2
ssg345
(dp357
g10
F5.0999999999999996
ssVcom.eg.android.AlipayGphone
p358
(dp359
g10
F1.7
ssVcom.UCMobile
p360
(dp361
g10
F1.7
sssg59
(dp362
sg61
(dp363
Vcom.tencent.news
p364
(dp365
g10
I1
ssVcom.netease.cloudmusic
p366
(dp367
g10
F4.7000000000000002
ssVcom.tencent.reading
p368
(dp369
g10
F1.7
ssg111
(dp370
g10
F2.3999999999999999
ssVcom.android.mms
p371
(dp372
g10
I1
ssg57
(dp373
g10
F1.3
ssVcom.qiyi.video
p374
(dp375
g10
I1
ssVcom.cootek.smartdialer
p376
(dp377
g10
F8.8000000000000007
ssVcom.ximalaya.ting.android
p378
(dp379
g10
I1
ssg85
(dp380
g10
F0.90000000000000002
ssg15
(dp381
g10
F0.40000000000000002
ssg87
(dp382
g10
I1
ssg97
(dp383
g10
F0.90000000000000002
ssVcom.tencent.mobileqq
p384
(dp385
g10
F6
ssg93
(dp386
g10
F1.8999999999999999
sssg63
(dp387
Vcom.ximalaya.ting.android
p388
(dp389
g10
F1.7
ssg343
(dp390
g10
I1
ssVcom.tencent.mobileqq
p391
(dp392
g10
F1.8999999999999999
ssVcom.miui.video
p393
(dp394
g10
I1
ssg123
(dp395
g10
F1.6000000000000001
sssg65
(dp396
Vcom.android.deskclock
p397
(dp398
g10
I1
ssVcom.anzogame.game
p399
(dp400
g10
F1.6000000000000001
ssg51
(dp401
g10
F1.7
ssg19
(dp402
g10
F0.40000000000000002
ssVcom.netease.mail
p403
(dp404
g10
F1.7
ssVcom.netease.cloudmusic
p405
(dp406
g10
I2
ssg227
(dp407
g10
F1.3
ssVcom.miui.networkassistant
p408
(dp409
g10
F0.69999999999999996
ssg37
(dp410
g10
I1
ssVcom.tencent.reading
p411
(dp412
g10
F2.0999999999999996
ssVcom.android.mms
p413
(dp414
g10
I1
ssg79
(dp415
g10
F0.90000000000000002
ssVcom.taobao.taobao
p416
(dp417
g10
F1.7
ssg81
(dp418
g10
F2.9999999999999996
ssg306
(dp419
g10
I1
ssg393
(dp420
g10
F0.69999999999999996
ssVcom.android.settings
p421
(dp422
g10
F1.8999999999999999
ssVcom.miui.gallery
p423
(dp424
g10
F1.3
ssVcom.tencent.mobileqq
p425
(dp426
g10
F17.899999999999999
ssVcn.wps.moffice_eng
p427
(dp428
g10
F0.90000000000000002
ssVcom.sankuai.meituan.takeoutnew
p429
(dp430
g10
F5
sssg67
(dp431
Vcom.tencent.mobileqq
p432
(dp433
g10
F5.0000000000000009
ssVcom.android.mms
p434
(dp435
g10
F5
ssVcom.tencent.news
p436
(dp437
g10
F1.7
ssVcom.android.settings
p438
(dp439
g10
F1.7
sssg69
(dp440
Vcom.android.settings
p441
(dp442
g10
I1
ssVcom.tencent.mobileqq
p443
(dp444
g10
F2.2999999999999998
ssVcom.tencent.news
p445
(dp446
g10
F0.69999999999999996
sssg71
(dp447
sg73
(dp448
g8
(dp449
g10
I1
ssVcom.anzogame.game
p450
(dp451
g10
F0.90000000000000002
ssg256
(dp452
g10
I1
ssVcom.tuan800.tao800
p453
(dp454
g10
F2.6000000000000001
ssVcom.android.settings
p455
(dp456
g10
F5.6000000000000005
ssVcom.android.updater
p457
(dp458
g10
I1
ssg169
(dp459
g10
F0.90000000000000002
ssVcom.android.mms
p460
(dp461
g10
F0.90000000000000002
ssVcom.taobao.taobao
p462
(dp463
g10
F1.3
ssVcom.android.deskclock
p464
(dp465
g10
I2
ssVcom.android.phone
p466
(dp467
g10
I1
ssVcom.tencent.mobileqq
p468
(dp469
g10
F17.899999999999995
ssg291
(dp470
g10
F1.7
sssg75
(dp471
g162
(dp472
g10
F1.3
ssg314
(dp473
g10
I1
ssg368
(dp474
g10
F0.90000000000000002
ssg11
(dp475
g10
F0.90000000000000002
ssVcom.android.settings
p476
(dp477
g10
F7.6000000000000005
ssVcom.tencent.mm
p478
(dp479
g10
F0.90000000000000002
ssVcom.android.mms
p480
(dp481
g10
I1
ssg117
(dp482
g10
F1.8
ssVcom.taobao.taobao
p483
(dp484
g10
F1.7
ssVcom.android.deskclock
p485
(dp486
g10
I1
ssVcom.cootek.smartdialer
p487
(dp488
g10
I1
ssg15
(dp489
g10
F1.7
ssVcom.android.phone
p490
(dp491
g10
F0.90000000000000002
ssg423
(dp492
g10
F1.7
ssVcom.tencent.mobileqq
p493
(dp494
g10
F35.399999999999999
ssVcom.duokan.reader
p495
(dp496
g10
I4
sssg77
(dp497
Vcom.sinovatech.unicom.ui
p498
(dp499
g10
I1
ssg178
(dp500
g10
I2
sssg79
(dp501
sg81
(dp502
Vcom.tencent.mobileqq
p503
(dp504
g10
F1.7
ssVcom.tencent.mm
p505
(dp506
g10
F1.3
ssg97
(dp507
g10
I1
ssVcom.android.mms
p508
(dp509
g10
I1
ssVcom.android.phone
p510
(dp511
g10
F13.1
sssg83
(dp512
g308
(dp513
g10
F0.90000000000000002
ssg45
(dp514
g10
I1
sssg85
(dp515
sg87
(dp516
g93
(dp517
g10
I1
ssVcom.android.phone
p518
(dp519
g10
F0.90000000000000002
sssg89
(dp520
Vcom.eg.android.AlipayGphone
p521
(dp522
g10
I1
sssg91
(dp523
Vcom.tencent.mobileqq
p524
(dp525
g10
I1
sssg93
(dp526
g518
(dp527
g10
I1
sssg95
(dp528
g162
(dp529
g10
F0.69999999999999996
ssg13
(dp530
g10
I1
ssg15
(dp531
g10
F0.90000000000000002
ssg233
(dp532
g10
F3.2999999999999998
ssg213
(dp533
g10
F8.5999999999999996
ssg27
(dp534
g10
F3.8999999999999999
ssVcom.duowan.mobile
p535
(dp536
g10
I1
ssg462
(dp537
g10
F7.6000000000000005
ssg33
(dp538
g10
F2.2999999999999998
ssg35
(dp539
g10
I7
ssVcom.eg.android.AlipayGphone
p540
(dp541
g10
F6
ssg41
(dp542
g10
F15.700000000000001
ssVcom.gameloft.android.ANMP.GloftA8HM
p543
(dp544
g10
I1
ssg45
(dp545
g10
F1.6000000000000001
ssg256
(dp546
g10
F0.69999999999999996
ssVcom.tencent.token
p547
(dp548
g10
I3
ssg61
(dp549
g10
F3.3999999999999999
ssg158
(dp550
g10
F24.199999999999999
ssg67
(dp551
g10
F3
ssg123
(dp552
g10
I2
ssg71
(dp553
g10
I1
ssg73
(dp554
g10
F13.200000000000001
ssVcom.netease.cloudmusic
p555
(dp556
g10
F12.6
ssVcom.android.calculator
p557
(dp558
g10
I2
ssg79
(dp559
g10
I1
ssg81
(dp560
g10
F2
ssg83
(dp561
g10
F1.8999999999999999
ssg85
(dp562
g10
I1
ssg19
(dp563
g10
F0.69999999999999996
ssg91
(dp564
g10
I4
ssg103
(dp565
g10
F0.69999999999999996
ssg453
(dp566
g10
F4.5999999999999996
ssg131
(dp567
g10
F3.2999999999999998
ssg421
(dp568
g10
F16.800000000000001
ssVcom.tencent.reading
p569
(dp570
g10
F20.199999999999999
ssg115
(dp571
g10
F9.6999999999999993
ssg117
(dp572
g10
I1
ssg11
(dp573
g10
I1
ssg125
(dp574
g10
F4.7000000000000002
sssg97
(dp575
Vcom.cootek.smartdialer
p576
(dp577
g10
I1
ssg505
(dp578
g10
F0.69999999999999996
ssg503
(dp579
g10
F0.90000000000000002
sssg99
(dp580
Vcom.anzogame.game
p581
(dp582
g10
F1.7
ssVcom.tencent.news
p583
(dp584
g10
F1.7000000000000002
ssVcom.tuan800.tao800
p585
(dp586
g10
I1
ssVcom.tencent.reading
p587
(dp588
g10
F2.7000000000000002
ssVcom.qiyi.video
p589
(dp590
g10
F0.69999999999999996
ssVcom.miui.securitycenter
p591
(dp592
g10
I1
ssVcom.android.phone
p593
(dp594
g10
I1
ssVcom.android.email
p595
(dp596
g10
I1
ssg289
(dp597
g10
F13.399999999999999
sssg101
(dp598
g176
(dp599
g10
I1
ssg174
(dp600
g10
F7.7999999999999998
ssVcom.tencent.mobileqq
p601
(dp602
g10
I2
sssg103
(dp603
Vcom.taobao.taobao
p604
(dp605
g10
F0.90000000000000002
ssVcom.qiyi.video
p606
(dp607
g10
I1
sssg105
(dp608
Vcom.UCMobile
p609
(dp610
g10
I1
ssg306
(dp611
g10
F1.3
ssVcom.tencent.mm
p612
(dp613
g10
F3.3999999999999999
ssVcom.tencent.mobileqq
p614
(dp615
g10
F2.7999999999999998
ssg427
(dp616
g10
I1
sssg107
(dp617
Vcom.android.deskclock
p618
(dp619
g10
I1
ssg27
(dp620
g10
F0.90000000000000002
ssVcom.tencent.mobileqq
p621
(dp622
g10
F2.8999999999999999
ssVcom.tencent.news
p623
(dp624
g10
I2
ssg8
(dp625
g10
F0.90000000000000002
sssg109
(dp626
Vcom.android.calculator
p627
(dp628
g10
I1
ssVcom.android.settings
p629
(dp630
g10
I1
ssVcom.android.mms
p631
(dp632
g10
F4.2000000000000002
ssg59
(dp633
g10
I1
ssg274
(dp634
g10
F1.7
ssg39
(dp635
g10
I1
sssg111
(dp636
Vcom.UCMobile
p637
(dp638
g10
I1
ssVcom.anzogame.game
p639
(dp640
g10
F1.8
ssVcom.sankuai.meituan
p641
(dp642
g10
I1
ssg89
(dp643
g10
F0.90000000000000002
ssg445
(dp644
g10
F1.8999999999999999
ssVcom.netease.cloudmusic
p645
(dp646
g10
I3
ssVcom.tencent.reading
p647
(dp648
g10
I3
ssg145
(dp649
g10
F1.8999999999999999
ssVcom.ea.game.pvz2_row
p650
(dp651
g10
I1
ssVcom.tencent.mm
p652
(dp653
g10
F0.69999999999999996
ssVcom.android.mms
p654
(dp655
g10
F2.2999999999999998
ssVcom.qiyi.video
p656
(dp657
g10
I1
ssg487
(dp658
g10
F0.90000000000000002
ssg294
(dp659
g10
I1
ssVme.ele
p660
(dp661
g10
F3.4000000000000004
ssVcom.taobao.taobao
p662
(dp663
g10
F1.7
ssg490
(dp664
g10
F0.69999999999999996
ssVcn.kidstone.cartoon
p665
(dp666
g10
I1
ssVcom.tencent.mobileqq
p667
(dp668
g10
F25.999999999999993
ssVcom.eg.android.AlipayGphone
p669
(dp670
g10
F2.6000000000000001
sssg113
(dp671
g19
(dp672
g10
I1
ssVcom.netease.cloudmusic
p673
(dp674
g10
I1
ssg254
(dp675
g10
F4.7000000000000002
ssVcom.tencent.mm
p676
(dp677
g10
F2.1000000000000001
ssVcom.android.mms
p678
(dp679
g10
I1
ssVcom.tencent.token
p680
(dp681
g10
I1
ssVcom.android.deskclock
p682
(dp683
g10
F2.7000000000000002
ssg591
(dp684
g10
F0.90000000000000002
ssVcom.tencent.mobileqq
p685
(dp686
g10
F9.8000000000000007
ssg540
(dp687
g10
F1.7
sssg115
(dp688
g436
(dp689
g10
F0.90000000000000002
ssVcom.tencent.reading
p690
(dp691
g10
I1
ssg438
(dp692
g10
F3.5999999999999996
ssg174
(dp693
g10
F2.6000000000000001
ssVcom.cootek.smartdialer
p694
(dp695
g10
F1.8999999999999999
ssg360
(dp696
g10
F1.3
ssVme.ele
p697
(dp698
g10
F4.4000000000000004
ssg61
(dp699
g10
F0.90000000000000002
ssVcom.tencent.mobileqq
p700
(dp701
g10
F7.7000000000000002
ssVcom.miui.antispam
p702
(dp703
g10
I3
ssVcom.sankuai.meituan.takeoutnew
p704
(dp705
g10
F3.4000000000000004
sssg117
(dp706
Vcom.miui.gallery
p707
(dp708
g10
I1
sssg119
(dp709
g678
(dp710
g10
F0.90000000000000002
ssVcom.tencent.reading
p711
(dp712
g10
F1.7
sssg121
(dp713
Vcom.sinovatech.unicom.ui
p714
(dp715
g10
I1
sssg123
(dp716
Vcom.tencent.mobileqq
p717
(dp718
g10
I1
sssg125
(dp719
Vcom.tencent.mobileqq
p720
(dp721
g10
I1
sssg127
(dp722
Vcom.android.settings
p723
(dp724
g10
I1
ssVcom.tencent.mobileqq
p725
(dp726
g10
I1
sssg129
(dp727
g193
(dp728
g10
F0.69999999999999996
ssg187
(dp729
g10
F0.90000000000000002
ssVcom.qiyi.video
p730
(dp731
g10
F1.3999999999999999
sssg131
(dp732
ssS'edge'
p733
g137
sS'graph'
p734
(dp735
sS'adjlist_dict_factory'
p736
g134
sS'adj'
p737
g137
sS'pred'
p738
(dp739
g8
(dp740
g15
g163
sVcom.tencent.mobileqq
p741
g529
sg623
g449
sVcom.netease.cloudmusic
p742
g472
sVcom.tuan800.tao800
p743
g625
ssg11
(dp744
Vcom.tencent.mobileqq
p745
g573
sVcom.netease.cloudmusic
p746
g475
ssg13
(dp747
Vcom.UCMobile
p748
g204
sVcom.tencent.mobileqq
p749
g530
sVcom.ximalaya.ting.android
p750
g340
ssg15
(dp751
Vcom.android.settings
p752
g651
sg741
g531
sg742
g489
sVcom.android.phone
p753
g381
ssg17
(dp754
Vcom.tencent.news
p755
g458
sVcom.tencent.token
p756
g332
ssg19
(dp757
Vcom.tencent.mobileqq
p758
g563
sg399
g277
sVcom.tencent.mm
p759
g402
sg282
g672
ssg21
(dp760
g103
g607
sg203
g150
sg185
g657
sg49
g318
sg187
g234
sVcom.android.deskclock
p761
g590
sg748
g212
sg191
g375
sg193
g532
sg129
g731
ssg23
(dp762
sg25
(dp763
Vcom.taobao.taobao
p764
g235
ssg27
(dp765
g220
g610
sg107
g620
sVcom.android.settings
p766
g638
sg345
g696
sg697
g361
sg621
g534
sg203
g152
ssg29
(dp767
Vcn.kidstone.cartoon
p768
g259
sVcom.tencent.mobileqq
p769
g536
sVcom.youku.phone
p770
g153
ssg31
(dp771
g103
g605
sVcom.tencent.news
p772
g463
sVcom.netease.cloudmusic
p773
g484
sVcom.tencent.mm
p774
g417
sg49
g320
sg21
g188
sg25
g201
sg229
g663
sVcom.tencent.mobileqq
p775
g537
sg129
g729
ssg33
(dp776
g243
g322
sVcom.tencent.mobileqq
p777
g538
sVcom.eg.android.AlipayGphone
p778
g273
ssg35
(dp779
Vcom.anzogame.game
p780
g288
sg339
g157
sVcom.android.settings
p781
g666
sg750
g338
sg258
g224
sVcom.tencent.mobileqq
p782
g539
ssg37
(dp783
g65
g410
ssg39
(dp784
g89
g522
sVcom.tencent.reading
p785
g687
sVcom.sinovatech.unicom.ui
p786
g635
sVcom.android.settings
p787
g670
sVme.ele
p788
g359
sVcom.tencent.mobileqq
p789
g541
ssg41
(dp790
Vcom.tencent.news
p791
g451
sVcom.android.settings
p792
g640
sg99
g582
sg665
g249
sVcom.tencent.mm
p793
g400
sVcom.tencent.mobileqq
p794
g542
ssg43
(dp795
Vcom.android.packageinstaller
p796
g315
sVcom.tencent.mobileqq
p797
g544
sg316
g473
ssg45
(dp798
g83
g514
sVcom.tencent.mm
p799
g428
sg95
g545
sg403
g616
ssg47
(dp800
Vcom.taobao.taobao
p801
g238
ssg49
(dp802
g156
g257
sg203
g149
sg55
g344
sg748
g209
sVcom.tencent.android.qqdownloader
p803
g244
sg245
g390
sg351
g546
sg143
g452
ssg51
(dp804
g328
g642
sVcom.tencent.mm
p805
g401
ssg53
(dp806
Vcom.anzogame.game
p807
g286
sVcom.tencent.mobileqq
p808
g548
sg31
g237
sVcom.tencent.reading
p809
g681
ssg55
(dp810
g243
g319
sg245
g389
sg803
g242
sg348
g379
ssg57
(dp811
g403
g611
sVcom.ximalaya.ting.android
p812
g347
sg355
g661
sg345
g698
sg360
g216
sg348
g373
sg304
g419
sg358
g272
sg427
g307
ssg59
(dp813
Vcom.sinovatech.unicom.ui
p814
g633
ssg61
(dp815
g81
g511
sVcom.anzogame.game
p816
g287
sVcom.tencent.news
p817
g467
sVcom.netease.cloudmusic
p818
g491
sVcom.android.settings
p819
g664
sg115
g699
sVcom.qiyi.video
p820
g192
sVcom.android.deskclock
p821
g594
sg812
g349
sg87
g519
sVcom.tencent.mobileqq
p822
g549
sg93
g527
ssg63
(dp823
Vcom.netease.cloudmusic
p824
g492
sg243
g323
sg393
g708
sg55
g350
sg803
g246
sVcom.tencent.mm
p825
g424
ssg65
(dp826
g97
g578
sVcom.netease.mail
p827
g613
sVcom.netease.cloudmusic
p828
g479
sVcom.tencent.reading
p829
g677
sVcom.android.settings
p830
g653
sVcom.android.updater
p831
g175
sg176
g693
sVcom.cootek.smartdialer
p832
g506
sg180
g600
sg749
g550
sg427
g305
sg13
g159
ssg67
(dp833
g434
g703
sVcom.anzogame.game
p834
g292
sVcom.tencent.mobileqq
p835
g551
sVcom.tencent.news
p836
g470
ssg69
(dp837
sg71
(dp838
Vcom.tencent.mobileqq
p839
g553
ssg73
(dp840
Vcom.anzogame.game
p841
g279
sg339
g144
sg743
g624
sg441
g644
sg460
g689
sVcom.android.deskclock
p842
g584
sg750
g353
sg466
g365
sg156
g252
sVcom.tencent.mobileqq
p843
g554
sg291
g437
sg69
g446
ssg75
(dp844
Vcom.tencent.reading
p845
g674
sVcom.android.settings
p846
g646
sg796
g317
sVcom.android.phone
p847
g367
sVcom.tencent.mm
p848
g406
sVcom.tencent.mobileqq
p849
g556
ssg77
(dp850
g43
g295
sVcom.sinovatech.unicom.ui
p851
g628
sg296
g659
sg17
g171
sg756
g331
sVcom.tencent.mobileqq
p852
g558
ssg79
(dp853
Vcom.tencent.mobileqq
p854
g559
sVcom.tencent.mm
p855
g415
ssg81
(dp856
g818
g488
sg819
g658
sg508
g695
sVcom.android.phone
p857
g377
sg97
g577
sVcom.tencent.mm
p858
g418
sVcom.tencent.mobileqq
p859
g560
ssg83
(dp860
g95
g561
ssg85
(dp861
Vcom.tencent.mobileqq
p862
g562
sVcom.android.phone
p863
g380
ssg87
(dp864
Vcom.android.phone
p865
g382
ssg89
(dp866
g787
g643
sg669
g266
ssg91
(dp867
Vcom.android.deskclock
p868
g596
sVcn.kidstone.cartoon
p869
g251
sVcom.tencent.mobileqq
p870
g564
sVcom.tencent.token
p871
g334
ssg93
(dp872
g87
g517
sVcom.netease.cloudmusic
p873
g496
sg865
g386
ssg95
(dp874
Vcom.android.browser
p875
g140
sg13
g148
sVcom.ea.game.pvz2_row
p876
g165
sg17
g179
sg21
g194
sg99
g597
sVcom.UCMobile
p877
g218
sg462
g240
sg35
g263
sg39
g275
sg581
g290
sVcom.gameloft.android.ANMP.GloftA8HM
p878
g300
sg45
g309
sg256
g325
sg53
g336
sg750
g352
sVcom.android.phone
p879
g385
sg63
g392
sg158
g426
sg67
g433
sg69
g444
sg101
g602
sVcom.tencent.news
p880
g469
sg555
g494
sg77
g500
sg832
g504
sg83
g513
sg595
g525
sg97
g579
sg105
g615
sg107
g622
sg786
g634
sg172
g668
sg113
g686
sg115
g701
sVde.hs_osnabrueck.asta.sensorlog
p881
g718
sVcom.android.camera
p882
g721
sVcom.xiaoji.emulator
p883
g726
sg129
g728
ssg97
(dp884
g832
g507
sVcom.android.phone
p885
g383
ssg99
(dp886
Vcom.tencent.news
p887
g465
sVcom.netease.cloudmusic
p888
g486
sVcom.tencent.reading
p889
g683
sVcom.tencent.mm
p890
g398
sVcom.tuan800.tao800
p891
g619
sVcom.qiyi.video
p892
g190
sVcom.UCMobile
p893
g214
sVcom.tencent.mobileqq
p894
g533
ssg101
(dp895
g174
g430
sg831
g181
sg176
g705
ssg103
(dp896
g193
g565
sg233
g184
sg187
g226
ssg105
(dp897
Vcom.UCMobile
p898
g221
sg799
g404
sg427
g311
ssg107
(dp899
g841
g281
sg878
g302
sVcom.tencent.news
p900
g454
sVcom.tencent.mobileqq
p901
g566
sg416
g228
sg618
g586
sg774
g407
ssg109
(dp902
Vcom.youku.phone
p903
g146
sg627
g499
sg154
g649
sVcom.UCMobile
p904
g206
sg121
g715
sg39
g268
ssg111
(dp905
g903
g155
sg876
g167
sVcom.android.updater
p906
g173
sVcom.qiyi.video
p907
g186
sVcom.UCMobile
p908
g208
sVcn.kidstone.cartoon
p909
g255
sg43
g297
sg51
g329
sg483
g230
sVcom.ximalaya.ting.android
p910
g342
sg57
g356
sVcom.android.phone
p911
g370
sVcom.tencent.mobileqq
p912
g568
sVcom.miui.antispam
p913
g439
sg69
g442
sVcom.tencent.news
p914
g456
sVcom.netease.cloudmusic
p915
g477
sg113
g675
sVcom.sinovatech.unicom.ui
p916
g630
sVcom.tencent.mm
p917
g422
sVcom.android.mms
p918
g692
sg127
g724
ssg113
(dp919
g399
g283
sg755
g459
sVcom.netease.cloudmusic
p920
g474
sVcom.android.settings
p921
g648
sg457
g170
sVcom.tencent.mm
p922
g412
sg678
g691
sVcom.taobao.taobao
p923
g232
sVcom.android.deskclock
p924
g588
sg119
g712
sVcom.android.phone
p925
g369
sg909
g253
sg685
g570
ssg115
(dp926
Vcom.anzogame.game
p927
g284
sg836
g461
sg75
g481
sg119
g710
sg109
g632
sVcom.android.settings
p928
g655
sg831
g177
sg711
g679
sg23
g198
sVcom.cootek.smartdialer
p929
g509
sg904
g211
sg57
g357
sVcom.android.phone
p930
g372
sg378
g346
sVcom.tencent.mm
p931
g414
sVcom.tencent.mobileqq
p932
g571
sg67
g435
sg39
g270
sg180
g599
ssg117
(dp933
g825
g420
sg423
g394
sVcom.tencent.mobileqq
p934
g572
sVcom.netease.cloudmusic
p935
g482
ssg119
(dp936
g682
g592
sg889
g684
ssg121
(dp937
sg123
(dp938
g63
g395
sg391
g552
ssg125
(dp939
Vcom.tencent.mobileqq
p940
g574
ssg127
(dp941
Vcn.kidstone.cartoon
p942
g261
sVcom.gameloft.android.ANMP.GloftA8HM
p943
g298
ssg129
(dp944
g151
g219
sg49
g326
sg203
g160
sg21
g195
ssg131
(dp945
Vcom.tencent.mm
p946
g409
sVcom.tencent.mobileqq
p947
g567
sssb.