ccopy_reg
_reconstructor
p1
(cnetworkx.classes.digraph
DiGraph
p2
c__builtin__
object
p3
NtRp4
(dp5
S'node'
p6
(dp7
Vcom.meizu.media.reader
p8
(dp9
S'weight'
p10
F0.001137915339098771
ssVcom.em.mobile
p11
(dp12
g10
F0.00072067971476255503
ssVcom.suning.mobile.ebuy
p13
(dp14
g10
F0.0042861477772720372
ssVcom.autonavi.minimap
p15
(dp16
g10
F0.0083447124867243212
ssVcom.android.deskclock
p17
(dp18
g10
F0.00011379153390987711
ssVcom.UCMobile
p19
(dp20
g10
F0.0041344257320588681
ssVcom.android.launcher
p21
(dp22
g10
F0.25971021089364282
ssVco.runner.app
p23
(dp24
g10
F0.015134274010013654
ssVcom.sina.weibo
p25
(dp26
g10
F0.031103019268699742
ssVcom.eg.android.AlipayGphone
p27
(dp28
g10
F0.0402442724927932
ssVcom.wandoujia.eyepetizer
p29
(dp30
g10
F0.014489455317857685
ssVcom.cmbchina.ccd.pluto.cmbActivity
p31
(dp32
g10
F0.0030344409042633897
ssVcom.android.packageinstaller
p33
(dp34
g10
F0.0012896373843119405
ssVcom.android.soundrecorder
p35
(dp36
g10
F0.0017068730086481567
ssVcom.taobao.taobao
p37
(dp38
g10
F0.002465483234714004
ssVcom.android.video
p39
(dp40
g10
F0.0047033834016082538
ssVcom.android.safe
p41
(dp42
g10
F0.003793051130329237
ssVcom.android.phone
p43
(dp44
g10
F0.036716734941587011
ssVcom.meizu.media.gallery
p45
(dp46
g10
F0.010620543164921864
ssVcom.tencent.mobileqq
p47
(dp48
g10
F0.018851464117736309
ssVcom.youdao.note
p49
(dp50
g10
F0.00022758306781975421
ssVcom.sankuai.meituan.takeoutnew
p51
(dp52
g10
F0.021203155818540435
ssVcom.netease.mobimail
p53
(dp54
g10
F0.00064481869215597025
ssVcom.meizu.mstore
p55
(dp56
g10
F0.0074343802154453039
ssVcom.netease.cloudmusic
p57
(dp58
g10
F0.024730693369746624
ssVcom.meizu.media.camera
p59
(dp60
g10
F0.014451524806554393
ssVcom.android.fileexplorer
p61
(dp62
g10
F0.0018206645425580337
ssVcom.whatsapp
p63
(dp64
g10
F0.005158549537247762
ssVcom.sankuai.movie
p65
(dp66
g10
F0.0048551054468214229
ssVcom.MobileTicket
p67
(dp68
g10
F0.026361705355788197
ssVcom.meizu.cloud
p69
(dp70
g10
F0.00011379153390987711
ssVcom.android.calendar
p71
(dp72
g10
F0.0039447731755424065
ssVcom.tencent.mm
p73
(dp74
g10
F0.39698073130025791
ssVcom.android.mms
p75
(dp76
g10
F0.0073205886815354273
ssVcom.sinovatech.unicom.ui
p77
(dp78
g10
F0.0071309361250189648
ssVcom.android.settings
p79
(dp80
g10
F0.0049688969807313004
ssVcom.liwushuo.gifttalk
p81
(dp82
g10
F0.0085722955545440745
ssVcom.meizu.flyme.weather
p83
(dp84
g10
F0.0014792899408284023
sssS'node_dict_factory'
p85
c__builtin__
dict
p86
sS'edge_attr_dict_factory'
p87
g86
sS'succ'
p88
(dp89
g8
(dp90
Vcom.tencent.mm
p91
(dp92
g10
F0.90000000000000002
ssVcom.android.launcher
p93
(dp94
g10
I1
sssg11
(dp95
Vcom.tencent.mm
p96
(dp97
g10
F0.90000000000000002
ssVcom.android.launcher
p98
(dp99
g10
I1
sssg13
(dp100
Vcom.tencent.mm
p101
(dp102
g10
F1.3
ssVcom.android.launcher
p103
(dp104
g10
F1.7
sssg15
(dp105
Vcom.android.mms
p106
(dp107
g10
F0.69999999999999996
ssg33
(dp108
g10
F1.3999999999999999
ssVcom.tencent.mm
p109
(dp110
g10
F9.4000000000000004
ssVcom.android.launcher
p111
(dp112
g10
F9.3000000000000007
sssg17
(dp113
Vcom.tencent.mm
p114
(dp115
g10
F1.3999999999999999
ssVcom.android.soundrecorder
p116
(dp117
g10
I1
ssVcom.android.launcher
p118
(dp119
g10
F2.2000000000000002
ssVcom.meizu.flyme.weather
p120
(dp121
g10
I1
sssg19
(dp122
Vcom.android.fileexplorer
p123
(dp124
g10
F2.7000000000000002
ssVcom.tencent.mm
p125
(dp126
g10
F3
ssVcom.whatsapp
p127
(dp128
g10
F0.40000000000000002
ssVcom.android.launcher
p129
(dp130
g10
F6.6000000000000005
sssg21
(dp131
g8
(dp132
g10
F1.7
ssg65
(dp133
g10
F3.3999999999999999
ssg13
(dp134
g10
F1.7
ssg15
(dp135
g10
F10.199999999999999
ssg17
(dp136
g10
F1.8999999999999999
ssg19
(dp137
g10
F6.4000000000000004
ssg11
(dp138
g10
F1.7
ssg23
(dp139
g10
I1
ssg25
(dp140
g10
I3
ssg27
(dp141
g10
F19.599999999999998
ssg29
(dp142
g10
F4.4000000000000004
ssg31
(dp143
g10
I1
ssg33
(dp144
g10
F0.90000000000000002
ssg35
(dp145
g10
F1.7
ssg37
(dp146
g10
F4.4000000000000004
ssg41
(dp147
g10
F2.3999999999999999
ssg43
(dp148
g10
F11.5
ssg45
(dp149
g10
F11.5
ssg73
(dp150
g10
F255.19999999999962
ssg49
(dp151
g10
F1.7
ssVcom.sankuai.meituan.takeoutnew
p152
(dp153
g10
I1
ssg53
(dp154
g10
F3.7000000000000002
ssg55
(dp155
g10
F6.7000000000000002
ssg57
(dp156
g10
F27.399999999999995
ssg59
(dp157
g10
F6.5
ssg61
(dp158
g10
F5.4000000000000004
ssg63
(dp159
g10
F3.7000000000000002
ssVcom.tencent.mobileqq
p160
(dp161
g10
F12.5
ssg67
(dp162
g10
F5.0999999999999996
ssg69
(dp163
g10
F1.3
ssg71
(dp164
g10
F2.7000000000000002
ssg79
(dp165
g10
F7.5000000000000009
ssg75
(dp166
g10
F7.0000000000000009
ssg77
(dp167
g10
F4.7999999999999998
ssg81
(dp168
g10
F5.0999999999999996
ssg83
(dp169
g10
F4.5999999999999996
sssg23
(dp170
Vcom.netease.cloudmusic
p171
(dp172
g10
I3
sssg25
(dp173
Vcom.tencent.mm
p174
(dp175
g10
F2.7000000000000002
ssVcom.android.launcher
p176
(dp177
g10
F3.7000000000000002
sssg27
(dp178
Vcom.meizu.mstore
p179
(dp180
g10
F0.90000000000000002
ssVcom.tencent.mm
p181
(dp182
g10
F8.9000000000000004
ssVcom.whatsapp
p183
(dp184
g10
I1
ssVcom.android.launcher
p185
(dp186
g10
F11.9
ssVcom.android.phone
p187
(dp188
g10
F3.5999999999999996
ssg160
(dp189
g10
F0.40000000000000002
sssg29
(dp190
Vcom.tencent.mm
p191
(dp192
g10
F1.3
ssg81
(dp193
g10
F1.3
ssVcom.android.launcher
p194
(dp195
g10
F5.1000000000000005
sssg31
(dp196
Vcom.UCMobile
p197
(dp198
g10
F1.3
ssVcom.android.launcher
p199
(dp200
g10
F1.7
sssg33
(dp201
Vcom.autonavi.minimap
p202
(dp203
g10
F0.40000000000000002
ssg106
(dp204
g10
F0.90000000000000002
ssVcom.android.launcher
p205
(dp206
g10
F1.7
sssg35
(dp207
g17
(dp208
g10
I1
ssg114
(dp209
g10
F1.7000000000000002
ssg118
(dp210
g10
F2.3999999999999999
sssg37
(dp211
Vcom.netease.cloudmusic
p212
(dp213
g10
F1.3
ssVcom.tencent.mm
p214
(dp215
g10
F3.9999999999999996
ssVcom.eg.android.AlipayGphone
p216
(dp217
g10
F0.69999999999999996
ssVcom.android.launcher
p218
(dp219
g10
F5.1000000000000005
sssg39
(dp220
Vcom.meizu.media.gallery
p221
(dp222
g10
I2
ssVcom.tencent.mm
p223
(dp224
g10
F0.40000000000000002
ssVcom.meizu.media.camera
p225
(dp226
g10
F1.6000000000000001
ssVcom.android.launcher
p227
(dp228
g10
F2
sssg41
(dp229
Vcom.tencent.mm
p230
(dp231
g10
F2.7000000000000002
ssVcom.android.launcher
p232
(dp233
g10
F1.3
sssg43
(dp234
Vcom.tencent.mm
p235
(dp236
g10
F3.2000000000000002
ssVcom.eg.android.AlipayGphone
p237
(dp238
g10
F0.90000000000000002
ssVcom.android.launcher
p239
(dp240
g10
F3.7000000000000002
sssg45
(dp241
Vcom.MobileTicket
p242
(dp243
g10
F0.40000000000000002
ssVcom.netease.cloudmusic
p244
(dp245
g10
F1.7999999999999998
ssVcom.meizu.media.camera
p246
(dp247
g10
F3.6000000000000001
ssg39
(dp248
g10
F1.7
ssVcom.android.launcher
p249
(dp250
g10
F12.199999999999999
ssg43
(dp251
g10
F0.90000000000000002
ssg235
(dp252
g10
F5.5
sssg47
(dp253
g21
(dp254
g10
F12.299999999999999
ssg13
(dp255
g10
F0.40000000000000002
ssg19
(dp256
g10
F1.6000000000000001
ssg61
(dp257
g10
F0.90000000000000002
ssg65
(dp258
g10
F1.3
ssVcom.tencent.mm
p259
(dp260
g10
F7.1000000000000005
ssVcom.liwushuo.gifttalk
p261
(dp262
g10
F0.90000000000000002
sssg49
(dp263
Vcom.tencent.mm
p264
(dp265
g10
I1
sssg51
(dp266
Vcom.eg.android.AlipayGphone
p267
(dp268
g10
F0.90000000000000002
ssVcom.android.launcher
p269
(dp270
g10
F2.3999999999999999
ssg187
(dp271
g10
F0.69999999999999996
sssg53
(dp272
Vcom.netease.cloudmusic
p273
(dp274
g10
F0.90000000000000002
ssVcom.android.launcher
p275
(dp276
g10
F2.7000000000000002
ssVcom.android.phone
p277
(dp278
g10
F0.90000000000000002
sssg55
(dp279
g160
(dp280
g10
F0.90000000000000002
ssVcom.tencent.mm
p281
(dp282
g10
F4.5999999999999996
ssVcom.eg.android.AlipayGphone
p283
(dp284
g10
F0.69999999999999996
ssVcom.android.launcher
p285
(dp286
g10
F6.4000000000000004
ssVcom.autonavi.minimap
p287
(dp288
g10
F0.40000000000000002
sssg57
(dp289
g8
(dp290
g10
F0.40000000000000002
ssVcom.netease.mobimail
p291
(dp292
g10
F0.90000000000000002
ssVcom.android.settings
p293
(dp294
g10
F0.90000000000000002
ssVcom.meizu.media.camera
p295
(dp296
g10
F0.90000000000000002
ssVcom.whatsapp
p297
(dp298
g10
F0.90000000000000002
ssVcom.android.launcher
p299
(dp300
g10
F23.199999999999996
ssVcom.android.phone
p301
(dp302
g10
F1.1000000000000001
ssVcom.meizu.media.gallery
p303
(dp304
g10
F1.8999999999999999
ssVcom.tencent.mm
p305
(dp306
g10
F10.200000000000001
ssVcom.eg.android.AlipayGphone
p307
(dp308
g10
F2.6999999999999997
sssg59
(dp309
Vcom.meizu.media.gallery
p310
(dp311
g10
F3.4000000000000004
ssg39
(dp312
g10
F1.3
ssg223
(dp313
g10
F2.6000000000000001
ssg244
(dp314
g10
F1.8
ssVcom.android.launcher
p315
(dp316
g10
F6.4000000000000004
sssg61
(dp317
g19
(dp318
g10
F3.7000000000000002
ssg125
(dp319
g10
F2.6000000000000001
ssg129
(dp320
g10
F4.2999999999999998
sssg63
(dp321
g65
(dp322
g10
F0.40000000000000002
ssVcom.netease.cloudmusic
p323
(dp324
g10
F0.90000000000000002
ssVcom.tencent.mm
p325
(dp326
g10
F2.7000000000000002
ssVcom.android.launcher
p327
(dp328
g10
F3.5999999999999996
ssVcom.tencent.mobileqq
p329
(dp330
g10
F0.90000000000000002
ssVcom.eg.android.AlipayGphone
p331
(dp332
g10
I1
sssg65
(dp333
Vcom.android.launcher
p334
(dp335
g10
I1
sssg67
(dp336
Vcom.tencent.mobileqq
p337
(dp338
g10
F0.69999999999999996
ssVcom.tencent.mm
p339
(dp340
g10
F3.7999999999999998
ssVcom.android.launcher
p341
(dp342
g10
F3.2999999999999998
sssg69
(dp343
Vcom.tencent.mm
p344
(dp345
g10
F1.3
ssVcom.android.launcher
p346
(dp347
g10
F1.7
sssg71
(dp348
Vcom.tencent.mm
p349
(dp350
g10
F1.3
ssVcom.android.launcher
p351
(dp352
g10
F2.7000000000000002
sssg73
(dp353
g8
(dp354
g10
F0.90000000000000002
ssVcom.android.launcher
p355
(dp356
g10
F179.2999999999999
ssg15
(dp357
g10
F9.2000000000000011
ssVcom.UCMobile
p358
(dp359
g10
F2.3999999999999999
ssg11
(dp360
g10
F1.3
ssVcom.sina.weibo
p361
(dp362
g10
F0.90000000000000002
ssg27
(dp363
g10
F11.500000000000004
ssg33
(dp364
g10
F0.69999999999999996
ssVcom.taobao.taobao
p365
(dp366
g10
F2.2999999999999998
ssg41
(dp367
g10
F2.7000000000000002
ssg43
(dp368
g10
F2.2000000000000002
ssg45
(dp369
g10
F6.1000000000000014
ssVcom.tencent.mobileqq
p370
(dp371
g10
F7.6000000000000014
ssg49
(dp372
g10
F1.3
ssg55
(dp373
g10
F3.1000000000000001
ssVcom.netease.cloudmusic
p374
(dp375
g10
F6.7000000000000011
ssVcom.meizu.media.camera
p376
(dp377
g10
F1.3
ssVcom.android.fileexplorer
p378
(dp379
g10
F2.2000000000000002
ssg297
(dp380
g10
F2.6000000000000001
ssg67
(dp381
g10
F3.6000000000000001
ssg69
(dp382
g10
F0.69999999999999996
ssg77
(dp383
g10
F1.7000000000000002
ssVcom.android.settings
p384
(dp385
g10
F4.2000000000000002
ssg75
(dp386
g10
F4.2000000000000002
ssVcom.liwushuo.gifttalk
p387
(dp388
g10
F1.3
ssg83
(dp389
g10
F1.3
sssg75
(dp390
Vcom.sinovatech.unicom.ui
p391
(dp392
g10
F0.90000000000000002
ssg15
(dp393
g10
F1.7000000000000002
ssVcom.tencent.mm
p394
(dp395
g10
F2.8999999999999999
ssVcom.android.launcher
p396
(dp397
g10
F7.1000000000000005
sssg77
(dp398
Vcom.android.mms
p399
(dp400
g10
F1.7
ssVcom.android.launcher
p401
(dp402
g10
F3.6999999999999997
sssg79
(dp403
g69
(dp404
g10
I1
ssVcom.tencent.mm
p405
(dp406
g10
F3.4000000000000004
ssVcom.android.launcher
p407
(dp408
g10
F5.7000000000000011
sssg81
(dp409
Vcom.wandoujia.eyepetizer
p410
(dp411
g10
F0.90000000000000002
ssg191
(dp412
g10
F0.80000000000000004
ssg13
(dp413
g10
F0.90000000000000002
ssVcom.android.launcher
p414
(dp415
g10
F5.1000000000000005
ssVcom.tencent.mobileqq
p416
(dp417
g10
F0.90000000000000002
sssg83
(dp418
Vcom.meizu.media.gallery
p419
(dp420
g10
F1.1000000000000001
ssVcom.tencent.mm
p421
(dp422
g10
F2.7000000000000002
ssVcom.netease.cloudmusic
p423
(dp424
g10
F0.90000000000000002
ssVcom.android.launcher
p425
(dp426
g10
F4.7000000000000002
ssssS'edge'
p427
g89
sS'graph'
p428
(dp429
sS'adjlist_dict_factory'
p430
g86
sS'adj'
p431
g89
sS'pred'
p432
(dp433
g8
(dp434
Vcom.tencent.mm
p435
g354
sVcom.android.launcher
p436
g132
sg374
g290
ssg11
(dp437
Vcom.tencent.mm
p438
g360
sVcom.android.launcher
p439
g138
ssg13
(dp440
g416
g255
sg261
g413
sVcom.android.launcher
p441
g134
ssg15
(dp442
g394
g357
sg33
g203
sg75
g393
sVcom.meizu.mstore
p443
g288
sg396
g135
ssg17
(dp444
g35
g208
sVcom.android.launcher
p445
g136
ssg19
(dp446
g61
g318
sVcom.tencent.mm
p447
g359
sg47
g256
sg31
g198
sg21
g137
ssg21
(dp448
g8
g94
sg65
g335
sg13
g104
sg15
g112
sg17
g119
sg19
g130
sg11
g99
sg25
g177
sg27
g186
sg29
g195
sg31
g200
sg33
g206
sg35
g210
sg37
g219
sg39
g228
sg41
g233
sg43
g240
sVcom.meizu.media.gallery
p449
g250
sg73
g356
sg51
g270
sg53
g276
sg55
g286
sg57
g300
sg59
g316
sg61
g320
sg63
g328
sg47
g254
sVcom.MobileTicket
p450
g342
sg69
g347
sg71
g352
sg79
g408
sg75
g397
sg77
g402
sg81
g415
sg83
g426
ssg23
(dp451
Vcom.android.launcher
p452
g139
ssg25
(dp453
Vcom.tencent.mm
p454
g362
sVcom.android.launcher
p455
g140
ssg27
(dp456
g55
g284
sg57
g308
sg365
g217
sg183
g332
sVcom.android.launcher
p457
g141
sg187
g238
sVcom.tencent.mm
p458
g363
sg152
g268
ssg29
(dp459
g81
g411
sVcom.android.launcher
p460
g142
ssg31
(dp461
Vcom.android.launcher
p462
g143
ssg33
(dp463
g15
g108
sg109
g364
sg111
g144
ssg35
(dp464
g17
g117
sg445
g145
ssg37
(dp465
g214
g366
sVcom.android.launcher
p466
g146
ssg39
(dp467
g310
g248
sg376
g312
ssg41
(dp468
Vcom.tencent.mm
p469
g367
sVcom.android.launcher
p470
g147
ssg43
(dp471
Vcom.netease.mobimail
p472
g278
sVcom.netease.cloudmusic
p473
g302
sVcom.android.launcher
p474
g148
sg449
g251
sVcom.tencent.mm
p475
g368
sg267
g188
sg152
g271
ssg45
(dp476
Vcom.netease.cloudmusic
p477
g304
sg376
g311
sg39
g222
sVcom.android.launcher
p478
g149
sVcom.tencent.mm
p479
g369
sg83
g420
ssg47
(dp480
g242
g338
sg179
g280
sg283
g189
sg127
g330
sVcom.android.launcher
p481
g161
sg235
g371
sg387
g417
ssg49
(dp482
Vcom.tencent.mm
p483
g372
sVcom.android.launcher
p484
g151
ssg51
(dp485
Vcom.android.launcher
p486
g153
ssg53
(dp487
g273
g292
sVcom.android.launcher
p488
g154
ssg55
(dp489
Vcom.tencent.mm
p490
g373
sg283
g180
sVcom.android.launcher
p491
g155
ssg57
(dp492
Vco.runner.app
p493
g172
sg53
g274
sVcom.meizu.media.camera
p494
g314
sVcom.taobao.taobao
p495
g213
sVcom.whatsapp
p496
g324
sVcom.android.launcher
p497
g156
sVcom.meizu.media.gallery
p498
g245
sVcom.tencent.mm
p499
g375
sVcom.meizu.flyme.weather
p500
g424
ssg59
(dp501
g310
g247
sg39
g226
sVcom.tencent.mm
p502
g377
sVcom.netease.cloudmusic
p503
g296
sVcom.android.launcher
p504
g157
ssg61
(dp505
g447
g379
sg47
g257
sg21
g158
sg358
g124
ssg63
(dp506
g323
g298
sVcom.UCMobile
p507
g128
sg325
g380
sVcom.eg.android.AlipayGphone
p508
g184
sVcom.android.launcher
p509
g159
ssg65
(dp510
g329
g258
sg127
g322
sVcom.android.launcher
p511
g133
ssg67
(dp512
Vcom.meizu.media.gallery
p513
g243
sVcom.tencent.mm
p514
g381
sVcom.android.launcher
p515
g162
ssg69
(dp516
Vcom.android.settings
p517
g404
sVcom.tencent.mm
p518
g382
sVcom.android.launcher
p519
g163
ssg71
(dp520
Vcom.android.launcher
p521
g164
ssg73
(dp522
g8
g92
sVcom.android.launcher
p523
g150
sg13
g102
sg15
g110
sg17
g115
sVcom.UCMobile
p524
g126
sg11
g97
sg25
g175
sg27
g182
sg410
g192
sg35
g209
sg37
g215
sg39
g224
sg41
g231
sg43
g236
sg449
g252
sg160
g260
sg49
g265
sg55
g282
sg57
g306
sg225
g313
sg123
g319
sg496
g326
sg67
g340
sg69
g345
sg71
g350
sg79
g406
sg75
g395
sg81
g412
sg83
g422
ssg75
(dp525
g77
g400
sVcom.autonavi.minimap
p526
g107
sg33
g204
sg73
g386
sg523
g166
ssg77
(dp527
g399
g392
sg101
g383
sVcom.android.launcher
p528
g167
ssg79
(dp529
g405
g385
sVcom.netease.cloudmusic
p530
g294
sVcom.android.launcher
p531
g165
ssg81
(dp532
g29
g193
sVcom.tencent.mm
p533
g388
sg194
g168
sg416
g262
ssg83
(dp534
Vcom.android.deskclock
p535
g121
sVcom.tencent.mm
p536
g389
sVcom.android.launcher
p537
g169
sssb.