ccopy_reg
_reconstructor
p1
(cnetworkx.classes.digraph
DiGraph
p2
c__builtin__
object
p3
NtRp4
(dp5
S'node'
p6
(dp7
Vcom.wandoujia.phoenix2
p8
(dp9
S'weight'
p10
F5.8333868060457217e-06
ssVcom.youku.phone
p11
(dp12
g10
F0.024507354280377199
ssVcom.ss.android.article.news
p13
(dp14
g10
F0.00025148378674952668
ssVcom.zq.Fate
p15
(dp16
g10
F0.00040120738143803355
ssVcom.xwtec.sd.mobileclient
p17
(dp18
g10
F1.231492770165208e-05
ssVcom.picalab.comics
p19
(dp20
g10
F0.00010888988704618681
ssVcom.qihoo.cleandroid_cn
p21
(dp22
g10
F0.0028564150726937219
ssVcom.android.deskclock
p23
(dp24
g10
F0.023258361349793855
ssVcom.clov4r.android.nil
p25
(dp26
g10
F0.0017960349821725219
ssVcom.tencent.token
p27
(dp28
g10
F0.0067997845535806298
ssVcom.tencent.android.qqdownloader
p29
(dp30
g10
F0.0070473794157927929
ssVcom.zappallas.android.app.shunsui
p31
(dp32
g10
F5.185232716485086e-06
ssVcom.melot.game
p33
(dp34
g10
F1.2963081791212715e-06
ssVcom.android.mediacenter
p35
(dp36
g10
F0.000854267090040918
ssVcom.feistma.appmove
p37
(dp38
g10
F0.017598031685660823
ssVcom.ifeng.news2
p39
(dp40
g10
F0.14176750323915005
ssVcom.tencent.qt.sns
p41
(dp42
g10
F0.019776477580674121
ssVyt.wnl
p43
(dp44
g10
F1.8796468597258436e-05
ssVcom.yaochufa.app
p45
(dp46
g10
F1.231492770165208e-05
ssVcom.android.packageinstaller
p47
(dp48
g10
F0.016696449347081976
ssVcom.zappallas.android.google.plugin.fukaku
p49
(dp50
g10
F7.1296949851669938e-06
ssVcom.baidu.backuprestore
p51
(dp52
g10
F0.0030080831296509106
ssVoms.mmc.fortunetelling
p53
(dp54
g10
F0.0014136240693317466
ssVsogou.mobile.explorer
p55
(dp56
g10
F0.00030722503845174136
ssVcom.tencent.mobileqq
p57
(dp58
g10
F0.037395250197200879
ssVcom.nemodigm.android.prime_fortune
p59
(dp60
g10
F0.00023463178042095015
ssVcn.taxen.ziwei
p61
(dp62
g10
F0.00052370850436499368
ssVmark.via
p63
(dp64
g10
F0.12806747024810691
ssVcom.android.calculator
p65
(dp66
g10
F9.7871267523656004e-05
ssVcom.sub.bazisuanminkan
p67
(dp68
g10
F0.0080111845469694586
ssVworkshop.namestroes
p69
(dp70
g10
F9.7223113434095373e-06
ssVcom.Astro.UI
p71
(dp72
g10
F0.010065833010876674
ssVcom.android.fileexplorer
p73
(dp74
g10
F1.4907544059894622e-05
ssVcom.tencent.tokenre07
p75
(dp76
g10
F2.7870625851107337e-05
ssVcom.android.email
p77
(dp78
g10
F1.9444622686819074e-06
ssVcom.culiukeji.huanletao
p79
(dp80
g10
F5.8333868060457217e-06
ssVcom.huawei.KoBackup
p81
(dp82
g10
F1.4259389970333988e-05
ssVcom.tieyou.train.ark
p83
(dp84
g10
F1.4907544059894622e-05
ssVcn.highing.hichat
p85
(dp86
g10
F6.2222792597821036e-05
ssVcom.haojiazhang.activity
p87
(dp88
g10
F4.5370786269244504e-06
ssVcom.baidu.tieba
p89
(dp90
g10
F0.1411426826968136
ssVcom.android.settings
p91
(dp92
g10
F0.0083514654439887925
ssVcom.autohome.mycar
p93
(dp94
g10
F2.8518779940667975e-05
ssVcn.wps.moffice_tpt
p95
(dp96
g10
F0.0027365065661250042
ssVcom.moxiu.launcher
p97
(dp98
g10
F9.5278651165413465e-05
ssVcom.baiyi_mobile.security
p99
(dp100
g10
F4.0185553552759419e-05
ssVcom.t66y.client.ui
p101
(dp102
g10
F0.0003765775260347294
ssVcom.shoujiduoduo.ringtone
p103
(dp104
g10
F0.0037729049553324608
ssVcom.tencent.tokenlgnl
p105
(dp106
g10
F0.00016463113874840148
ssVcom.storm.smart
p107
(dp108
g10
F0.00011601958203135381
ssVcom.cl.newt66y
p109
(dp110
g10
F0.0067239505251020359
ssVnet.ld.freevpn
p111
(dp112
g10
F1.2963081791212715e-06
ssVcom.baidu.trafficmonitor
p113
(dp114
g10
F4.5370786269244504e-06
ssVorg.idaxiang.android
p115
(dp116
g10
F0.00071491396078538123
ssVme.onemobile.android
p117
(dp118
g10
F0.00064232070275459002
ssVcom.android.gallery3d
p119
(dp120
g10
F0.0020928895551912928
ssVcom.taobao.taobao
p121
(dp122
g10
F0.00054574574341005534
ssVcom.eg.android.AlipayGphone
p123
(dp124
g10
F0.0030696577681591712
ssVcom.android.phone
p125
(dp126
g10
F0.023496882054752168
ssVcom.amigosoftware.name7_6_web_android
p127
(dp128
g10
F0.0003331512020341668
ssVcn.ibuka.manga.ui
p129
(dp130
g10
F4.8611556717047685e-05
ssVcom.tencent.tokenqqfa
p131
(dp132
g10
F0.00023592808860007142
ssVcom.huawei.android.dsdscardmanager
p133
(dp134
g10
F4.796340262748705e-05
ssVcom.julanling.dgq
p135
(dp136
g10
F3.8889245373638147e-06
ssVcom.mymoney.sms
p137
(dp138
g10
F4.0833707642320054e-05
ssVcom.qihoo.browser
p139
(dp140
g10
F0.064012346039097945
ssVoms.mmc.independent_gm.ebook.book121
p141
(dp142
g10
F7.6482182568155029e-05
ssVcn.easymobi.entertainment.name
p143
(dp144
g10
F2.3981701313743525e-05
ssVcom.nd.android.pandareader
p145
(dp146
g10
F0.090861481045057729
ssVcom.wenba.bangbang
p147
(dp148
g10
F7.7778490747276295e-06
ssVcom.baidu.input
p149
(dp150
g10
F1.9444622686819074e-06
ssVfw.fourword
p151
(dp152
g10
F0.00018990914824126628
ssVcom.shawnyu.suanming
p153
(dp154
g10
F4.925971080660832e-05
ssVorg.kde.necessitas.example.YXBaZi
p155
(dp156
g10
F2.2037239045061617e-05
ssVcom.tencent.qqlite
p157
(dp158
g10
F0.00016398298465884086
ssVcn.skyone.calendarbig5
p159
(dp160
g10
F2.1389084955500982e-05
ssVcom.holiestar.flashoncall
p161
(dp162
g10
F1.7500160418137167e-05
ssVcom.yidalianke.app
p163
(dp164
g10
F0.00017240898782312913
ssVcom.ct.client
p165
(dp166
g10
F0.00044074478090123232
ssVcom.shuyi.Fate
p167
(dp168
g10
F2.592616358242543e-06
ssVcom.amigosoftware.name7_5_web_android
p169
(dp170
g10
F1.1018619522530809e-05
ssVorg.getlantern.firetweet
p171
(dp172
g10
F6.2870946687381671e-05
ssVcom.jiongji.andriod.card
p173
(dp174
g10
F0.0013105675690916055
ssVcom.simple.fortuneteller
p175
(dp176
g10
F0.00025018747857040544
ssVcom.divination.name1518
p177
(dp178
g10
F3.6296629015395603e-05
ssVim.yixin
p179
(dp180
g10
F2.1389084955500982e-05
ssVcom.android.contacts
p181
(dp182
g10
F0.015949775835908127
ssVcom.youdao.dict
p183
(dp184
g10
F0.0033639197248196999
ssVcom.qihoo.wifi
p185
(dp186
g10
F0.00038435537510945702
ssVcom.sankuai.meituan
p187
(dp188
g10
F0.001558810585393329
ssVcom.android.soundrecorder
p189
(dp190
g10
F0.00078880352699529379
ssVorg.kde.necessitas.ministro
p191
(dp192
g10
F0.00023657624268963207
ssVcom.amigosoftware.name7_1_web_android
p193
(dp194
g10
F4.0185553552759419e-05
ssVcom.huawei.hidisk
p195
(dp196
g10
F0.0023301139519704855
ssVcom.android.htmlviewer
p197
(dp198
g10
F0.00031435473343690835
ssVcom.ylmf.androidclient
p199
(dp200
g10
F0.017575994446615759
ssVcom.xduole.Client
p201
(dp202
g10
F1.7500160418137167e-05
ssVcom.nrop19
p203
(dp204
g10
F0.00022620577725666188
ssVcom.PEP.biaori
p205
(dp206
g10
F0.00044917078406552061
ssVcom.zappallas.android.google.cocoloni.uranaicollection
p207
(dp208
g10
F2.6574317671986068e-05
ssVcom.nuomi
p209
(dp210
g10
F9.7223113434095373e-06
ssVexample.yijing
p211
(dp212
g10
F0.00017953868280829612
ssVcom.homenetworkkeeper
p213
(dp214
g10
F0.00060472776556007323
ssVcom.tencent.qqlive
p215
(dp216
g10
F0.0049655084801240304
ssVcom.amigo.pra6
p217
(dp218
g10
F3.8889245373638149e-05
ssVcom.yiche.price
p219
(dp220
g10
F1.3611235880773351e-05
ssVcom.kingroot.kinguser
p221
(dp222
g10
F0.0078536831032062233
ssVcom.android.calendar
p223
(dp224
g10
F3.3055858567592422e-05
ssVcom.huawei.android.totemweather
p225
(dp226
g10
F0.0011647328989404626
ssVcom.baidu.BaiduMap
p227
(dp228
g10
F0.0012639004746432397
ssVcom.SharkSoft.BirthdayCode
p229
(dp230
g10
F9.6574959344534735e-05
ssVcom.ophone.reader.ui
p231
(dp232
g10
F8.426003164288266e-06
ssVcom.phoenix.eightwords
p233
(dp234
g10
F7.1945103941230572e-05
ssVcn.skyone.UI
p235
(dp236
g10
F3.4352166746713699e-05
ssVcom.lql.yj.bgyc
p237
(dp238
g10
F0.00010564911659838364
ssVcom.baidu.appsearch
p239
(dp240
g10
F0.00049259710806608321
ssVcom.lanteanstudio.compass
p241
(dp242
g10
F4.5370786269244504e-05
ssVcom.baidu.netdisk
p243
(dp244
g10
F0.023950589917444615
ssVcom.sogou.novel
p245
(dp246
g10
F2.9815088119789245e-05
ssVcom.UCMobile
p247
(dp248
g10
F0.00011926035247915698
ssVvStudio.Android.Camera360
p249
(dp250
g10
F0.0056363479628192886
ssVcom.drcom.Android.DrCOMWS
p251
(dp252
g10
F0.00021259454137588854
ssVcom.huawei.inputmethod.hwpal
p253
(dp254
g10
F9.7871267523656004e-05
ssVcn.mljia.o2o
p255
(dp256
g10
F1.9444622686819074e-06
ssVcom.cubic.autohome
p257
(dp258
g10
F0.00017240898782312913
ssVcom.hfa.BestName
p259
(dp260
g10
F0.00020222407594291836
ssVpredictor.namer
p261
(dp262
g10
F0.00029620641892921058
ssVcom.duowan.more
p263
(dp264
g10
F3.8889245373638147e-06
ssVcn.mixiaoxiao.myappscreenmask
p265
(dp266
g10
F0.00023398362633138953
ssVyiqi.bazi
p267
(dp268
g10
F0.017326455122134914
ssVcom.pingan.papd
p269
(dp270
g10
F1.2963081791212716e-05
ssVcom.baidu.home2
p271
(dp272
g10
F0.0019509438095775137
ssVcom.nfbazi.Pibazi
p273
(dp274
g10
F1.5555698149455259e-05
ssVcom.amigosoftware.life3_3_web_android
p275
(dp276
g10
F0.0001665756010170834
ssVcom.tencent.mtt
p277
(dp278
g10
F0.00099880545201293984
ssVcom.qq.ac.android
p279
(dp280
g10
F3.3055858567592422e-05
ssVcom.tencent.mm
p281
(dp282
g10
F0.033718272047123396
ssVcom.zhenpin.luxurystore
p283
(dp284
g10
F4.5370786269244504e-06
ssVcom.mgyapp.android
p285
(dp286
g10
F0.00016139036830059832
ssVcom.android.flashlight
p287
(dp288
g10
F0.00040963338460232179
ssVcom.yoloho.dayima
p289
(dp290
g10
F3.2407704478031791e-06
ssVcom.dp.android.elong
p291
(dp292
g10
F3.8889245373638147e-06
ssVcom.baidu.browser.apps
p293
(dp294
g10
F0.011894923851616787
ssVcom.dendroidZ.lunarCalendarLite
p295
(dp296
g10
F8.426003164288266e-06
ssVcom.edaixi.activity
p297
(dp298
g10
F8.426003164288266e-06
ssVcom.anzhi.hwsettings
p299
(dp300
g10
F2.0092776776379709e-05
ssVcn.dz52pojie.www
p301
(dp302
g10
F0.00049130079988696197
ssVcom.sinovatech.unicom.ui
p303
(dp304
g10
F0.00063324654550074111
ssVcom.hotbody.fitzero
p305
(dp306
g10
F4.5370786269244504e-06
ssVcom.android.mms
p307
(dp308
g10
F0.033155674297384766
ssVcom.wandoujia.phoenix2.usbproxy
p309
(dp310
g10
F2.0740930865940344e-05
ssVcom.jswtech.numengtwo
p311
(dp312
g10
F0.0001030565002401411
ssVcom.yunfan.topvideo
p313
(dp314
g10
F4.925971080660832e-05
ssVcom.mx.browser
p315
(dp316
g10
F0.0001412975915242186
ssVcom.android.bluetooth
p317
(dp318
g10
F0.0011238991912981425
ssVcom.android.quicksearchbox
p319
(dp320
g10
F0.00025731717355557238
ssVcom.android.camera
p321
(dp322
g10
F0.00032666966113856043
ssVcom.qq.reader
p323
(dp324
g10
F0.00010694542477750491
sssS'node_dict_factory'
p325
c__builtin__
dict
p326
sS'edge_attr_dict_factory'
p327
g326
sS'succ'
p328
(dp329
g8
(dp330
sg11
(dp331
Vcom.tencent.qt.sns
p332
(dp333
g10
I1
ssVmark.via
p334
(dp335
g10
F1.7
ssVcom.tencent.mobileqq
p336
(dp337
g10
I1
ssVcom.android.packageinstaller
p338
(dp339
g10
F0.69999999999999996
ssVcom.qihoo.cleandroid_cn
p340
(dp341
g10
I1
ssVcom.PEP.biaori
p342
(dp343
g10
I1
ssVcom.android.deskclock
p344
(dp345
g10
F3.1999999999999997
ssVcom.baidu.tieba
p346
(dp347
g10
F0.80000000000000004
ssVcom.tencent.qqlive
p348
(dp349
g10
F1.3
ssVcom.android.settings
p350
(dp351
g10
F0.90000000000000002
ssVcom.tencent.mm
p352
(dp353
g10
I1
ssVcom.ifeng.news2
p354
(dp355
g10
F3.3999999999999999
sssg13
(dp356
Vcom.huawei.hidisk
p357
(dp358
g10
F1.3999999999999999
ssVcom.android.settings
p359
(dp360
g10
F0.69999999999999996
ssVcom.tencent.mm
p361
(dp362
g10
F2.2999999999999998
ssVcom.ifeng.news2
p363
(dp364
g10
F2.7000000000000002
ssVcom.android.bluetooth
p365
(dp366
g10
F0.90000000000000002
sssg15
(dp367
g167
(dp368
g10
F1.7
ssg237
(dp369
g10
F1.3
ssg77
(dp370
g10
I1
ssVcom.android.packageinstaller
p371
(dp372
g10
F1.7000000000000002
ssg229
(dp373
g10
F2.3999999999999999
sssg17
(dp374
Vcom.android.packageinstaller
p375
(dp376
g10
F1.7
ssVcom.qihoo.cleandroid_cn
p377
(dp378
g10
F0.90000000000000002
ssVcom.tencent.android.qqdownloader
p379
(dp380
g10
F0.40000000000000002
sssg19
(dp381
Vcom.android.packageinstaller
p382
(dp383
g10
F1.7
ssVcom.baidu.browser.apps
p384
(dp385
g10
I1
sssg21
(dp386
Vcom.storm.smart
p387
(dp388
g10
I1
ssVcom.wandoujia.phoenix2
p389
(dp390
g10
I1
ssg384
(dp391
g10
F0.90000000000000002
ssg17
(dp392
g10
F0.90000000000000002
ssVcom.android.contacts
p393
(dp394
g10
F3
ssg19
(dp395
g10
F1.7
ssVcom.baidu.netdisk
p396
(dp397
g10
F1.3999999999999999
ssVcom.shoujiduoduo.ringtone
p398
(dp399
g10
F1.7
ssVcom.baidu.backuprestore
p400
(dp401
g10
F3.7000000000000002
ssVcom.android.deskclock
p402
(dp403
g10
F2.6000000000000001
ssVcom.clov4r.android.nil
p404
(dp405
g10
F3.4000000000000004
ssg249
(dp406
g10
F1.6000000000000001
ssg157
(dp407
g10
F0.40000000000000002
ssg29
(dp408
g10
F18.099999999999994
ssg33
(dp409
g10
F0.40000000000000002
ssg193
(dp410
g10
F0.69999999999999996
ssVcom.feistma.appmove
p411
(dp412
g10
F3.5999999999999996
ssVcom.ifeng.news2
p413
(dp414
g10
F12.099999999999998
ssg95
(dp415
g10
F0.90000000000000002
ssVcom.tencent.qt.sns
p416
(dp417
g10
F4.1999999999999993
ssg219
(dp418
g10
F0.40000000000000002
ssVcom.Astro.UI
p419
(dp420
g10
F6.2999999999999998
ssg382
(dp421
g10
F32.099999999999987
ssVcom.android.gallery3d
p422
(dp423
g10
F1.7
ssVcn.mixiaoxiao.myappscreenmask
p424
(dp425
g10
F2
ssVcom.tencent.token
p426
(dp427
g10
F4.8000000000000007
ssVyiqi.bazi
p428
(dp429
g10
F1.8999999999999999
ssVcom.huawei.hidisk
p430
(dp431
g10
F11.300000000000001
ssVcom.eg.android.AlipayGphone
p432
(dp433
g10
I1
ssVsogou.mobile.explorer
p434
(dp435
g10
F0.40000000000000002
ssVcom.amigosoftware.life3_3_web_android
p436
(dp437
g10
F0.40000000000000002
ssg79
(dp438
g10
F0.69999999999999996
ssVcom.tencent.mm
p439
(dp440
g10
F6.3000000000000007
ssVcom.ylmf.androidclient
p441
(dp442
g10
F0.69999999999999996
ssVcom.nrop19
p443
(dp444
g10
F1.3
ssVcn.taxen.ziwei
p445
(dp446
g10
F1.5
ssVmark.via
p447
(dp448
g10
F15.600000000000003
ssg283
(dp449
g10
F0.90000000000000002
ssVcom.cubic.autohome
p450
(dp451
g10
F0.90000000000000002
ssVcom.zappallas.android.google.cocoloni.uranaicollection
p452
(dp453
g10
F1.6000000000000001
ssg209
(dp454
g10
F0.90000000000000002
ssVcom.qihoo.browser
p455
(dp456
g10
F4.9000000000000004
ssg215
(dp457
g10
F0.69999999999999996
ssg217
(dp458
g10
F0.40000000000000002
ssVcom.tencent.tokenre07
p459
(dp460
g10
I1
ssVcom.nd.android.pandareader
p461
(dp462
g10
F2.7000000000000002
ssVcom.tencent.mobileqq
p463
(dp464
g10
F4.4000000000000004
ssVcom.kingroot.kinguser
p465
(dp466
g10
F10.5
ssVcom.android.mms
p467
(dp468
g10
F2.7000000000000002
ssVcn.dz52pojie.www
p469
(dp470
g10
F0.40000000000000002
ssg247
(dp471
g10
F0.40000000000000002
ssVcom.sinovatech.unicom.ui
p472
(dp473
g10
F1.3
ssg91
(dp474
g10
F3.8999999999999999
ssg87
(dp475
g10
F0.40000000000000002
ssVcom.baidu.BaiduMap
p476
(dp477
g10
F4.9000000000000004
ssVcom.nemodigm.android.prime_fortune
p478
(dp479
g10
F0.40000000000000002
ssVcom.baidu.tieba
p480
(dp481
g10
F19.899999999999999
ssVcom.huawei.android.totemweather
p482
(dp483
g10
F0.69999999999999996
ssVcom.autohome.mycar
p484
(dp485
g10
F0.90000000000000002
sssg23
(dp486
Vcom.youku.phone
p487
(dp488
g10
I1
ssVcom.t66y.client.ui
p489
(dp490
g10
I1
ssg25
(dp491
g10
F0.40000000000000002
ssVcom.cl.newt66y
p492
(dp493
g10
F2.7000000000000002
ssVcom.tencent.android.qqdownloader
p494
(dp495
g10
I1
ssVcom.android.contacts
p496
(dp497
g10
F1.8999999999999999
ssVcom.ifeng.news2
p498
(dp499
g10
F5.8999999999999995
ssVcom.android.bluetooth
p500
(dp501
g10
F0.69999999999999996
ssVcom.android.packageinstaller
p502
(dp503
g10
F3.7999999999999998
ssVcn.mixiaoxiao.myappscreenmask
p504
(dp505
g10
F2.2999999999999998
ssVcom.tencent.token
p506
(dp507
g10
F1.3
ssVcom.huawei.hidisk
p508
(dp509
g10
F1.8
ssVcom.tencent.mobileqq
p510
(dp511
g10
I1
ssg199
(dp512
g10
F0.90000000000000002
ssg203
(dp513
g10
F0.69999999999999996
ssVmark.via
p514
(dp515
g10
F11.300000000000001
ssVcom.qihoo.cleandroid_cn
p516
(dp517
g10
F2.2999999999999998
ssg71
(dp518
g10
F1.7
ssVcom.qihoo.browser
p519
(dp520
g10
F6.7000000000000002
ssVcom.baidu.browser.apps
p521
(dp522
g10
I1
ssg459
(dp523
g10
F1.1000000000000001
ssVcom.nd.android.pandareader
p524
(dp525
g10
F18.999999999999996
ssVcom.android.flashlight
p526
(dp527
g10
I1
ssVcom.kingroot.kinguser
p528
(dp529
g10
F5.5000000000000009
ssVcom.huawei.android.totemweather
p530
(dp531
g10
F4.9000000000000004
ssVcom.android.mms
p532
(dp533
g10
F6.0999999999999996
ssVcom.baidu.tieba
p534
(dp535
g10
F13.299999999999997
ssVcom.android.settings
p536
(dp537
g10
F0.40000000000000002
ssVcom.lql.yj.bgyc
p538
(dp539
g10
I1
ssg309
(dp540
g10
I1
sssg25
(dp541
Vcom.nrop19
p542
(dp543
g10
F49.800000000000011
ssg225
(dp544
g10
F0.69999999999999996
ssVcom.android.packageinstaller
p545
(dp546
g10
F0.80000000000000004
ssVcom.android.gallery3d
p547
(dp548
g10
F0.90000000000000002
ssVcom.qihoo.cleandroid_cn
p549
(dp550
g10
I1
ssVcom.tencent.token
p551
(dp552
g10
F3.5
ssVcom.Astro.UI
p553
(dp554
g10
F0.90000000000000002
ssVcom.huawei.hidisk
p555
(dp556
g10
I1
ssVcom.baidu.tieba
p557
(dp558
g10
F1.7
ssVcom.tencent.android.qqdownloader
p559
(dp560
g10
F3.2000000000000002
ssg107
(dp561
g10
F0.69999999999999996
ssVcom.ylmf.androidclient
p562
(dp563
g10
F3.8999999999999999
sssg27
(dp564
Vcom.qihoo.cleandroid_cn
p565
(dp566
g10
F6.7999999999999998
ssVcom.tencent.tokenlgnl
p567
(dp568
g10
F3.6000000000000001
ssVcom.baidu.home2
p569
(dp570
g10
F1.7
ssVcom.tencent.android.qqdownloader
p571
(dp572
g10
F5.7000000000000002
ssVcom.android.contacts
p573
(dp574
g10
F8
ssVcom.ifeng.news2
p575
(dp576
g10
F0.90000000000000002
ssVcom.mgyapp.android
p577
(dp578
g10
F0.40000000000000002
ssVcom.android.packageinstaller
p579
(dp580
g10
F4.4000000000000004
ssVcom.baidu.backuprestore
p581
(dp582
g10
F0.69999999999999996
ssg411
(dp583
g10
F0.40000000000000002
ssVcom.huawei.hidisk
p584
(dp585
g10
F1.3999999999999999
ssVcom.android.phone
p586
(dp587
g10
F0.90000000000000002
ssVcom.tencent.mobileqq
p588
(dp589
g10
I2
ssg441
(dp590
g10
F0.40000000000000002
ssg131
(dp591
g10
F5.8000000000000007
ssVcom.kingroot.kinguser
p592
(dp593
g10
F0.40000000000000002
ssVcom.Astro.UI
p594
(dp595
g10
F0.40000000000000002
ssVcom.baidu.browser.apps
p596
(dp597
g10
F0.69999999999999996
ssg75
(dp598
g10
F0.40000000000000002
ssVmark.via
p599
(dp600
g10
F2.5999999999999996
ssVcom.huawei.android.totemweather
p601
(dp602
g10
F0.90000000000000002
ssg467
(dp603
g10
F5.5
ssVcom.baidu.tieba
p604
(dp605
g10
I1
ssVcom.android.quicksearchbox
p606
(dp607
g10
I1
sssg29
(dp608
g215
(dp609
g10
F1.8999999999999999
ssg13
(dp610
g10
I1
ssg241
(dp611
g10
F1.7
ssg17
(dp612
g10
I1
ssg179
(dp613
g10
F1.7
ssVcom.qihoo.cleandroid_cn
p614
(dp615
g10
F19.999999999999996
ssg105
(dp616
g10
F0.40000000000000002
ssVcom.baidu.home2
p617
(dp618
g10
I1
ssVcom.clov4r.android.nil
p619
(dp620
g10
F2.1000000000000001
ssg249
(dp621
g10
I1
ssg107
(dp622
g10
F0.90000000000000002
ssg33
(dp623
g10
I1
ssVcom.feistma.appmove
p624
(dp625
g10
F6.6000000000000005
ssVcom.eg.android.AlipayGphone
p626
(dp627
g10
F1.3
ssg95
(dp628
g10
F0.40000000000000002
ssg255
(dp629
g10
F1.7
ssVcom.tencent.qt.sns
p630
(dp631
g10
I1
ssVcom.nd.android.pandareader
p632
(dp633
g10
F2.5999999999999996
ssg45
(dp634
g10
I1
ssg553
(dp635
g10
F0.69999999999999996
ssg263
(dp636
g10
I1
ssVcom.android.packageinstaller
p637
(dp638
g10
F55.399999999999991
ssVcom.android.gallery3d
p639
(dp640
g10
F1.7000000000000002
ssg51
(dp641
g10
F3
ssg191
(dp642
g10
F0.69999999999999996
ssVyiqi.bazi
p643
(dp644
g10
F1.7
ssVcom.huawei.hidisk
p645
(dp646
g10
F1.3
ssg269
(dp647
g10
F1.7
ssVcom.cubic.autohome
p648
(dp649
g10
I1
ssg363
(dp650
g10
F6.8000000000000016
ssg55
(dp651
g10
I1
ssg79
(dp652
g10
I1
ssg85
(dp653
g10
F3
ssVcom.tencent.mobileqq
p654
(dp655
g10
F18.199999999999996
ssVcom.ylmf.androidclient
p656
(dp657
g10
F0.40000000000000002
ssVcom.youdao.dict
p658
(dp659
g10
I1
ssVcom.nrop19
p660
(dp661
g10
F1.3999999999999999
ssVcom.tencent.mm
p662
(dp663
g10
F4.2999999999999998
ssg61
(dp664
g10
F3.5
ssVmark.via
p665
(dp666
g10
F8
ssVcom.baidu.netdisk
p667
(dp668
g10
I1
ssVorg.kde.necessitas.example.YXBaZi
p669
(dp670
g10
F2.2999999999999998
ssg283
(dp671
g10
F1.7
ssg289
(dp672
g10
F1.8999999999999999
ssg137
(dp673
g10
F1.7
ssg135
(dp674
g10
I1
ssg291
(dp675
g10
F1.7
ssg209
(dp676
g10
F1.3999999999999999
ssVcom.baidu.browser.apps
p677
(dp678
g10
F1.3
ssg245
(dp679
g10
F1.7
ssg147
(dp680
g10
I1
ssg297
(dp681
g10
I1
ssg465
(dp682
g10
F26.899999999999995
ssg83
(dp683
g10
I1
ssVcom.android.mms
p684
(dp685
g10
F1.3
ssg303
(dp686
g10
F3.3999999999999999
ssg91
(dp687
g10
F4.9000000000000004
ssg305
(dp688
g10
F3
ssg87
(dp689
g10
F1.7
ssVcom.baidu.BaiduMap
p690
(dp691
g10
F6.2000000000000002
ssg231
(dp692
g10
I1
ssg219
(dp693
g10
F5.0999999999999996
ssVcom.baidu.tieba
p694
(dp695
g10
F5.7000000000000002
ssg163
(dp696
g10
F1.1000000000000001
ssg315
(dp697
g10
I1
ssg317
(dp698
g10
F0.69999999999999996
ssg165
(dp699
g10
F2.2999999999999998
ssVcom.android.camera
p700
(dp701
g10
F2.3999999999999999
ssg323
(dp702
g10
I1
ssVcn.mixiaoxiao.myappscreenmask
p703
(dp704
g10
F4.2000000000000002
ssg93
(dp705
g10
F6.7000000000000002
sssg31
(dp706
Vcom.android.packageinstaller
p707
(dp708
g10
I1
ssVcom.nemodigm.android.prime_fortune
p709
(dp710
g10
F1.7
sssg33
(dp711
g291
(dp712
g10
F0.90000000000000002
ssVcom.tencent.android.qqdownloader
p713
(dp714
g10
I1
sssg35
(dp715
Vcom.android.settings
p716
(dp717
g10
I1
ssVcom.kingroot.kinguser
p718
(dp719
g10
I1
ssVcom.baidu.netdisk
p720
(dp721
g10
I1
ssVcom.android.contacts
p722
(dp723
g10
I1
sssg37
(dp724
Vcom.youdao.dict
p725
(dp726
g10
F1.8
ssg13
(dp727
g10
F0.90000000000000002
ssVcom.qihoo.cleandroid_cn
p728
(dp729
g10
F5.1000000000000005
ssVcom.android.deskclock
p730
(dp731
g10
F4.4000000000000004
ssg247
(dp732
g10
F1.8999999999999999
ssVcom.tencent.android.qqdownloader
p733
(dp734
g10
F3.1000000000000001
ssVcom.android.mediacenter
p735
(dp736
g10
I1
ssVcom.android.contacts
p737
(dp738
g10
F3
ssg363
(dp739
g10
F6.5
ssg117
(dp740
g10
F2.2999999999999998
ssg311
(dp741
g10
F1.6000000000000001
ssVcom.android.packageinstaller
p742
(dp743
g10
F13.6
ssg51
(dp744
g10
F1.3
ssVcom.tencent.token
p745
(dp746
g10
I1
ssVcom.huawei.hidisk
p747
(dp748
g10
F2.7999999999999998
ssVcom.baidu.home2
p749
(dp750
g10
F4.4000000000000004
ssVcom.android.phone
p751
(dp752
g10
F1.8999999999999999
ssVcom.tencent.mm
p753
(dp754
g10
F1.5
ssVmark.via
p755
(dp756
g10
F1.7
ssVcom.android.calculator
p757
(dp758
g10
F0.40000000000000002
ssVcom.homenetworkkeeper
p759
(dp760
g10
F1.7
ssVcom.baidu.browser.apps
p761
(dp762
g10
F0.40000000000000002
ssg461
(dp763
g10
F0.90000000000000002
ssVcom.tencent.mobileqq
p764
(dp765
g10
I1
ssVcom.kingroot.kinguser
p766
(dp767
g10
F12.200000000000001
ssVcom.android.settings
p768
(dp769
g10
F10.200000000000001
ssg227
(dp770
g10
F2.5999999999999996
ssVcom.baidu.tieba
p771
(dp772
g10
F2.7999999999999998
ssVcom.huawei.android.totemweather
p773
(dp774
g10
F0.90000000000000002
sssg39
(dp775
Vcom.tencent.qqlive
p776
(dp777
g10
F2.0999999999999996
ssVcom.ss.android.article.news
p778
(dp779
g10
F1.7
ssg157
(dp780
g10
F2.3999999999999999
ssg21
(dp781
g10
F18.699999999999996
ssg103
(dp782
g10
F1.3
ssVcom.android.deskclock
p783
(dp784
g10
F25.499999999999996
ssVvStudio.Android.Camera360
p785
(dp786
g10
F2.9999999999999996
ssVcom.tencent.android.qqdownloader
p787
(dp788
g10
F14.500000000000002
ssg434
(dp789
g10
F0.69999999999999996
ssg189
(dp790
g10
I1
ssVcom.feistma.appmove
p791
(dp792
g10
F3.1999999999999993
ssVcom.android.contacts
p793
(dp794
g10
F9.3000000000000007
ssVcom.eg.android.AlipayGphone
p795
(dp796
g10
F2.6000000000000001
ssVcom.tencent.qt.sns
p797
(dp798
g10
F7.5
ssg365
(dp799
g10
F0.69999999999999996
ssg47
(dp800
g10
F9.5
ssg119
(dp801
g10
I2
ssVcn.mixiaoxiao.myappscreenmask
p802
(dp803
g10
F8.1000000000000014
ssVcom.tencent.token
p804
(dp805
g10
I1
ssVyiqi.bazi
p806
(dp807
g10
F3.6999999999999997
ssVcom.huawei.hidisk
p808
(dp809
g10
F6.4000000000000012
ssVcom.android.phone
p810
(dp811
g10
F6.7999999999999998
ssg197
(dp812
g10
F1.1000000000000001
ssg129
(dp813
g10
I1
ssg279
(dp814
g10
I1
ssVcom.tencent.mobileqq
p815
(dp816
g10
F22.5
ssVcom.ylmf.androidclient
p817
(dp818
g10
F4.1000000000000005
ssg287
(dp819
g10
I1
ssVmark.via
p820
(dp821
g10
F18.699999999999996
ssVcom.android.calculator
p822
(dp823
g10
F0.90000000000000002
ssg281
(dp824
g10
F57
ssVcom.baidu.netdisk
p825
(dp826
g10
F4.1000000000000005
ssg71
(dp827
g10
F14.500000000000002
ssVcom.qihoo.browser
p828
(dp829
g10
F21.899999999999999
ssg213
(dp830
g10
F1.3999999999999999
ssVcom.baidu.browser.apps
p831
(dp832
g10
I1
ssVcom.nd.android.pandareader
p833
(dp834
g10
F5.7999999999999998
ssVcom.tencent.mtt
p835
(dp836
g10
F2.6000000000000001
ssg221
(dp837
g10
F14.800000000000001
ssVcn.dz52pojie.www
p838
(dp839
g10
F0.69999999999999996
ssg472
(dp840
g10
F3.1999999999999997
ssVcom.huawei.android.totemweather
p841
(dp842
g10
F4.2000000000000002
ssg307
(dp843
g10
F12.800000000000001
ssVcom.baidu.tieba
p844
(dp845
g10
F90.400000000000063
ssVcom.android.settings
p846
(dp847
g10
F5.7999999999999998
ssVcom.ct.client
p848
(dp849
g10
I1
ssVcom.amigosoftware.name7_5_web_android
p850
(dp851
g10
F1.3
sssg41
(dp852
Vcom.kingroot.kinguser
p853
(dp854
g10
F1.3999999999999999
ssVcom.youku.phone
p855
(dp856
g10
I1
ssVmark.via
p857
(dp858
g10
F2.2999999999999998
ssg424
(dp859
g10
F3
ssVcom.android.packageinstaller
p860
(dp861
g10
F6.5000000000000009
ssVcom.tencent.mm
p862
(dp863
g10
F1.3999999999999999
ssVcom.qihoo.cleandroid_cn
p864
(dp865
g10
F3
ssVcom.tencent.token
p866
(dp867
g10
F2
ssVcom.t66y.client.ui
p868
(dp869
g10
F0.90000000000000002
ssVcom.android.deskclock
p870
(dp871
g10
F0.69999999999999996
ssVcom.qihoo.browser
p872
(dp873
g10
F1.8999999999999999
ssVcom.baidu.tieba
p874
(dp875
g10
F5.7000000000000002
ssg163
(dp876
g10
F1.6000000000000001
ssVcom.tencent.android.qqdownloader
p877
(dp878
g10
F3.1999999999999997
ssg217
(dp879
g10
F1.8999999999999999
ssg279
(dp880
g10
F0.90000000000000002
ssVcom.tencent.mobileqq
p881
(dp882
g10
F1.3999999999999999
ssVcom.ifeng.news2
p883
(dp884
g10
F8.0999999999999996
sssg43
(dp885
g261
(dp886
g10
F1.3
ssVcom.android.packageinstaller
p887
(dp888
g10
F4
ssg295
(dp889
g10
F0.40000000000000002
ssg151
(dp890
g10
F0.69999999999999996
sssg45
(dp891
Vcom.android.packageinstaller
p892
(dp893
g10
F1.3
ssg684
(dp894
g10
F0.69999999999999996
ssVcom.tencent.android.qqdownloader
p895
(dp896
g10
I1
sssg47
(dp897
Vcom.storm.smart
p898
(dp899
g10
F1.3
ssg175
(dp900
g10
F0.90000000000000002
ssg384
(dp901
g10
F1.7
ssg13
(dp902
g10
F0.40000000000000002
ssg15
(dp903
g10
F1.3
ssg17
(dp904
g10
F0.69999999999999996
ssg179
(dp905
g10
F0.90000000000000002
ssVworkshop.namestroes
p906
(dp907
g10
I1
ssg21
(dp908
g10
F55.800000000000004
ssVcom.baidu.backuprestore
p909
(dp910
g10
F2.2000000000000002
ssg402
(dp911
g10
F4
ssg619
(dp912
g10
F4.8000000000000007
ssg249
(dp913
g10
F2.2999999999999998
ssg177
(dp914
g10
F2.7000000000000002
ssg109
(dp915
g10
F0.90000000000000002
ssg29
(dp916
g10
F40.099999999999987
ssVcom.zappallas.android.app.shunsui
p917
(dp918
g10
I1
ssg127
(dp919
g10
F1.8
ssVme.onemobile.android
p920
(dp921
g10
F14.399999999999999
ssg111
(dp922
g10
F0.40000000000000002
ssg77
(dp923
g10
F0.69999999999999996
ssg411
(dp924
g10
F10.800000000000001
ssg413
(dp925
g10
F7.6000000000000014
ssg95
(dp926
g10
F1.7
ssg255
(dp927
g10
F0.90000000000000002
ssg416
(dp928
g10
F2.3999999999999999
ssg295
(dp929
g10
F0.69999999999999996
ssVyt.wnl
p930
(dp931
g10
I1
ssg553
(dp932
g10
F1.8999999999999999
ssVcom.android.bluetooth
p933
(dp934
g10
F2.8999999999999999
ssg49
(dp935
g10
F1.7
ssVcn.mixiaoxiao.myappscreenmask
p936
(dp937
g10
F5.6000000000000005
ssVcom.tencent.token
p938
(dp939
g10
F4.2999999999999998
ssVcom.huawei.inputmethod.hwpal
p940
(dp941
g10
F0.69999999999999996
ssVcom.anzhi.hwsettings
p942
(dp943
g10
F0.69999999999999996
ssVcom.huawei.hidisk
p944
(dp945
g10
F34.699999999999989
ssg626
(dp946
g10
I1
ssVcom.baidu.home2
p947
(dp948
g10
F1.7
ssg273
(dp949
g10
F3.5
ssg259
(dp950
g10
I1
ssg79
(dp951
g10
F1.3
ssVcom.tencent.tokenlgnl
p952
(dp953
g10
F0.90000000000000002
ssg439
(dp954
g10
F5.6000000000000005
ssg478
(dp955
g10
F4
ssg201
(dp956
g10
F1.7
ssVcom.nrop19
p957
(dp958
g10
I1
ssg19
(dp959
g10
F1.3
ssVcom.android.contacts
p960
(dp961
g10
F0.40000000000000002
ssg599
(dp962
g10
F6.5
ssg452
(dp963
g10
F3.3999999999999999
ssg450
(dp964
g10
F1.7
ssg141
(dp965
g10
F1.3999999999999999
ssVcom.baidu.netdisk
p966
(dp967
g10
F0.90000000000000002
ssg209
(dp968
g10
F0.69999999999999996
ssg159
(dp969
g10
F2.2999999999999998
ssVcom.qihoo.browser
p970
(dp971
g10
F6.7000000000000002
ssVcom.homenetworkkeeper
p972
(dp973
g10
F3.2999999999999998
ssg215
(dp974
g10
F3.2999999999999998
ssg143
(dp975
g10
F1.3
ssg757
(dp976
g10
F1.3
ssg459
(dp977
g10
F0.90000000000000002
ssg145
(dp978
g10
F5
ssVcom.tencent.mobileqq
p979
(dp980
g10
F6.3000000000000007
ssg465
(dp981
g10
F8.6000000000000014
ssg151
(dp982
g10
F1.3
ssg301
(dp983
g10
F2.2000000000000002
ssg153
(dp984
g10
F4.5
ssg91
(dp985
g10
F11.999999999999998
ssg155
(dp986
g10
F0.69999999999999996
ssg684
(dp987
g10
F3.0999999999999996
ssVcom.baidu.BaiduMap
p988
(dp989
g10
F5.6000000000000005
ssVcom.SharkSoft.BirthdayCode
p990
(dp991
g10
I1
ssg231
(dp992
g10
F0.90000000000000002
ssg233
(dp993
g10
F1.8999999999999999
ssg261
(dp994
g10
F6.2999999999999998
ssVcom.baidu.tieba
p995
(dp996
g10
F11.200000000000001
ssVcom.yidalianke.app
p997
(dp998
g10
F0.69999999999999996
ssg235
(dp999
g10
F1.7
ssVcom.android.quicksearchbox
p1000
(dp1001
g10
F0.40000000000000002
ssg169
(dp1002
g10
F1.7
ssg171
(dp1003
g10
F1.8999999999999999
sssg49
(dp1004
Vme.onemobile.android
p1005
(dp1006
g10
I1
sssg51
(dp1007
Vcom.kingroot.kinguser
p1008
(dp1009
g10
I1
ssVcom.nrop19
p1010
(dp1011
g10
F1.7000000000000002
ssVcom.android.contacts
p1012
(dp1013
g10
F1.8999999999999999
ssg223
(dp1014
g10
F1.8999999999999999
ssg768
(dp1015
g10
F3.7000000000000002
ssg579
(dp1016
g10
F3.2999999999999998
ssVcom.qihoo.cleandroid_cn
p1017
(dp1018
g10
F4.5000000000000009
ssg426
(dp1019
g10
F6.4000000000000004
ssg105
(dp1020
g10
F2.7999999999999998
ssVcom.baidu.home2
p1021
(dp1022
g10
F4.7000000000000002
ssVcom.clov4r.android.nil
p1023
(dp1024
g10
F0.69999999999999996
ssVcom.qihoo.browser
p1025
(dp1026
g10
F2.7000000000000002
ssVcom.tencent.mm
p1027
(dp1028
g10
F2.7000000000000002
ssg411
(dp1029
g10
I1
ssVcom.eg.android.AlipayGphone
p1030
(dp1031
g10
F1.3999999999999999
ssg131
(dp1032
g10
F1.6000000000000001
sssg53
(dp1033
Vcom.feistma.appmove
p1034
(dp1035
g10
F3.5
ssVcom.ifeng.news2
p1036
(dp1037
g10
F1.5
sssg55
(dp1038
g806
(dp1039
g10
I1
sssg57
(dp1040
Vcom.android.gallery3d
p1041
(dp1042
g10
F3.7999999999999998
ssVcn.wps.moffice_tpt
p1043
(dp1044
g10
F6.9000000000000004
ssg940
(dp1045
g10
F1.8999999999999999
ssVcom.tencent.qqlite
p1046
(dp1047
g10
F2.7000000000000002
ssVcom.baidu.netdisk
p1048
(dp1049
g10
F1.6000000000000001
ssg445
(dp1050
g10
F3.5
ssVcom.baidu.home2
p1051
(dp1052
g10
I1
ssVvStudio.Android.Camera360
p1053
(dp1054
g10
F5.9000000000000004
ssVcom.tencent.android.qqdownloader
p1055
(dp1056
g10
F14.299999999999999
ssVcom.feistma.appmove
p1057
(dp1058
g10
F0.90000000000000002
ssVcom.ifeng.news2
p1059
(dp1060
g10
F21.999999999999996
ssVcom.lanteanstudio.compass
p1061
(dp1062
g10
F0.90000000000000002
ssVcom.tencent.qt.sns
p1063
(dp1064
g10
F2.8999999999999999
ssVcom.android.packageinstaller
p1065
(dp1066
g10
F3.4999999999999996
ssg189
(dp1067
g10
F0.90000000000000002
ssVcom.baidu.backuprestore
p1068
(dp1069
g10
F0.69999999999999996
ssVcom.tencent.token
p1070
(dp1071
g10
F3.8999999999999999
ssg428
(dp1072
g10
F1.8
ssg430
(dp1073
g10
F5.6000000000000005
ssVcom.eg.android.AlipayGphone
p1074
(dp1075
g10
F2.3999999999999999
ssVcom.android.phone
p1076
(dp1077
g10
F0.69999999999999996
ssg277
(dp1078
g10
I3
ssVcom.tencent.tokenlgnl
p1079
(dp1080
g10
F1.8999999999999999
ssVcom.tencent.mm
p1081
(dp1082
g10
F27.799999999999986
ssVcom.ylmf.androidclient
p1083
(dp1084
g10
F1.8999999999999999
ssVcom.tencent.tokenqqfa
p1085
(dp1086
g10
F1.6000000000000001
ssg658
(dp1087
g10
F1.3
ssVcom.android.flashlight
p1088
(dp1089
g10
I1
ssVcom.android.contacts
p1090
(dp1091
g10
F14
ssVcom.android.calculator
p1092
(dp1093
g10
I1
ssg149
(dp1094
g10
I1
ssVcom.qihoo.cleandroid_cn
p1095
(dp1096
g10
F12.600000000000001
ssVcom.Astro.UI
p1097
(dp1098
g10
F3.5999999999999996
ssVcom.qihoo.browser
p1099
(dp1100
g10
F6.8000000000000007
ssVcom.baidu.browser.apps
p1101
(dp1102
g10
I1
ssVcom.nd.android.pandareader
p1103
(dp1104
g10
F5.1000000000000005
ssg221
(dp1105
g10
F9.2000000000000011
ssg838
(dp1106
g10
F1.7
ssg223
(dp1107
g10
F0.40000000000000002
ssVcom.huawei.android.totemweather
p1108
(dp1109
g10
I2
ssg305
(dp1110
g10
F0.40000000000000002
ssVcom.android.mms
p1111
(dp1112
g10
F5.5
ssVcom.baidu.BaiduMap
p1113
(dp1114
g10
F0.40000000000000002
ssVcom.baidu.tieba
p1115
(dp1116
g10
F24.599999999999998
ssg350
(dp1117
g10
F5.9000000000000004
ssVcom.android.quicksearchbox
p1118
(dp1119
g10
I2
ssVcom.android.camera
p1120
(dp1121
g10
F6.1000000000000005
ssVcn.mixiaoxiao.myappscreenmask
p1122
(dp1123
g10
F1.3
sssg59
(dp1124
Vcom.simple.fortuneteller
p1125
(dp1126
g10
F3.5
ssVorg.kde.necessitas.example.YXBaZi
p1127
(dp1128
g10
F3
ssVorg.kde.necessitas.ministro
p1129
(dp1130
g10
F2
ssVcom.huawei.hidisk
p1131
(dp1132
g10
F0.40000000000000002
ssVcom.amigosoftware.name7_6_web_android
p1133
(dp1134
g10
I1
ssVcom.android.packageinstaller
p1135
(dp1136
g10
F3.7000000000000002
sssg61
(dp1137
g1041
(dp1138
g10
F7.0000000000000009
ssVcom.android.packageinstaller
p1139
(dp1140
g10
F3.5
ssVcom.tencent.mobileqq
p1141
(dp1142
g10
F3.5
ssVcom.qihoo.cleandroid_cn
p1143
(dp1144
g10
F1.5
ssg273
(dp1145
g10
F1.5
sssg63
(dp1146
Vcn.wps.moffice_tpt
p1147
(dp1148
g10
I1
ssVcom.qihoo.cleandroid_cn
p1149
(dp1150
g10
F18.300000000000001
ssVcom.android.deskclock
p1151
(dp1152
g10
F16.999999999999996
ssVcom.clov4r.android.nil
p1153
(dp1154
g10
F0.69999999999999996
ssVvStudio.Android.Camera360
p1155
(dp1156
g10
I1
ssg571
(dp1157
g10
F7.4000000000000004
ssg33
(dp1158
g10
F1.6000000000000001
ssVcom.feistma.appmove
p1159
(dp1160
g10
F1.3
ssVcom.android.contacts
p1161
(dp1162
g10
I2
ssVcom.ifeng.news2
p1163
(dp1164
g10
F18.299999999999997
ssVcom.tencent.qt.sns
p1165
(dp1166
g10
F1.6000000000000001
ssVcom.android.packageinstaller
p1167
(dp1168
g10
F6.2000000000000002
ssVcn.mixiaoxiao.myappscreenmask
p1169
(dp1170
g10
I2
ssVcom.tencent.token
p1171
(dp1172
g10
F2.1000000000000001
ssVyiqi.bazi
p1173
(dp1174
g10
F3.6000000000000001
ssVcom.huawei.hidisk
p1175
(dp1176
g10
F1.8999999999999999
ssVcom.android.phone
p1177
(dp1178
g10
I1
ssVcom.tencent.mm
p1179
(dp1180
g10
F6.2000000000000011
ssg441
(dp1181
g10
F1.7
ssg443
(dp1182
g10
F1.3
ssg67
(dp1183
g10
I1
ssg291
(dp1184
g10
F0.40000000000000002
ssVcom.baidu.netdisk
p1185
(dp1186
g10
F1.7
ssVcom.Astro.UI
p1187
(dp1188
g10
I1
ssVcom.qihoo.browser
p1189
(dp1190
g10
F2.7000000000000002
ssg776
(dp1191
g10
F1.7
ssVcom.nd.android.pandareader
p1192
(dp1193
g10
F10.1
ssVcom.tencent.mobileqq
p1194
(dp1195
g10
F4.5
ssg592
(dp1196
g10
F17.300000000000001
ssg482
(dp1197
g10
F2.8999999999999999
ssg467
(dp1198
g10
F2.7000000000000002
ssVcom.baidu.tieba
p1199
(dp1200
g10
F25.499999999999993
ssVcom.android.settings
p1201
(dp1202
g10
I4
sssg65
(dp1203
Vcom.qihoo.browser
p1204
(dp1205
g10
F1.8999999999999999
ssVcom.android.mms
p1206
(dp1207
g10
I1
ssg942
(dp1208
g10
I1
ssVcom.ifeng.news2
p1209
(dp1210
g10
I1
ssVcom.android.contacts
p1211
(dp1212
g10
F0.90000000000000002
sssg67
(dp1213
Vcom.kingroot.kinguser
p1214
(dp1215
g10
I1
ssVcom.qihoo.cleandroid_cn
p1216
(dp1217
g10
I1
ssVcom.tencent.android.qqdownloader
p1218
(dp1219
g10
F1.3
ssVmark.via
p1220
(dp1221
g10
F0.69999999999999996
sssg69
(dp1222
g127
(dp1223
g10
F0.40000000000000002
ssVcom.android.packageinstaller
p1224
(dp1225
g10
F2.2999999999999998
ssg159
(dp1226
g10
F2.3999999999999999
sssg71
(dp1227
Vcom.android.mms
p1228
(dp1229
g10
F2.8999999999999999
ssVcom.qihoo.cleandroid_cn
p1230
(dp1231
g10
F8.2000000000000011
ssg783
(dp1232
g10
I3
ssVvStudio.Android.Camera360
p1233
(dp1234
g10
F3.2999999999999998
ssVcom.tencent.android.qqdownloader
p1235
(dp1236
g10
F0.40000000000000002
ssVcom.android.contacts
p1237
(dp1238
g10
F4.5999999999999996
ssg1074
(dp1239
g10
I1
ssVcom.tencent.qt.sns
p1240
(dp1241
g10
F0.90000000000000002
ssVcom.android.packageinstaller
p1242
(dp1243
g10
I1
ssVcom.tencent.token
p1244
(dp1245
g10
I1
ssVyiqi.bazi
p1246
(dp1247
g10
I1
ssVcom.huawei.hidisk
p1248
(dp1249
g10
F0.40000000000000002
ssVcom.ifeng.news2
p1250
(dp1251
g10
F3.7000000000000002
ssVcom.android.phone
p1252
(dp1253
g10
F1.3999999999999999
ssVcom.tencent.mm
p1254
(dp1255
g10
F3.2999999999999998
ssVmark.via
p1256
(dp1257
g10
F6.6000000000000005
ssg213
(dp1258
g10
F0.69999999999999996
ssVcom.nd.android.pandareader
p1259
(dp1260
g10
F2.6000000000000001
ssVcom.tencent.mobileqq
p1261
(dp1262
g10
I2
ssg528
(dp1263
g10
F1.3999999999999999
ssVcom.anzhi.hwsettings
p1264
(dp1265
g10
F0.40000000000000002
ssg482
(dp1266
g10
F2.8999999999999999
ssg157
(dp1267
g10
F0.90000000000000002
ssVcom.baidu.tieba
p1268
(dp1269
g10
F4.7999999999999998
ssVcom.android.settings
p1270
(dp1271
g10
F2.5999999999999996
sssg73
(dp1272
Vcom.baidu.home2
p1273
(dp1274
g10
F2.3999999999999999
ssVcn.wps.moffice_tpt
p1275
(dp1276
g10
I1
ssVcom.tencent.android.qqdownloader
p1277
(dp1278
g10
F1.3
sssg75
(dp1279
g81
(dp1280
g10
F1.8999999999999999
ssVcom.tencent.android.qqdownloader
p1281
(dp1282
g10
F1.6000000000000001
sssg77
(dp1283
g167
(dp1284
g10
F0.90000000000000002
ssg237
(dp1285
g10
F0.69999999999999996
ssg229
(dp1286
g10
F0.40000000000000002
ssVcom.zq.Fate
p1287
(dp1288
g10
I1
sssg79
(dp1289
g91
(dp1290
g10
I1
ssg637
(dp1291
g10
F1.3
ssg614
(dp1292
g10
F0.69999999999999996
sssg81
(dp1293
Vcom.android.settings
p1294
(dp1295
g10
I1
ssg1281
(dp1296
g10
I1
sssg83
(dp1297
Vcom.android.packageinstaller
p1298
(dp1299
g10
F0.40000000000000002
ssVcom.tencent.android.qqdownloader
p1300
(dp1301
g10
F1.7
ssg245
(dp1302
g10
F0.90000000000000002
sssg85
(dp1303
Vcom.android.packageinstaller
p1304
(dp1305
g10
F2
ssVcom.qihoo.cleandroid_cn
p1306
(dp1307
g10
F1.1000000000000001
ssVcom.tencent.android.qqdownloader
p1308
(dp1309
g10
F1.8999999999999999
sssg87
(dp1310
Vcom.android.packageinstaller
p1311
(dp1312
g10
F0.90000000000000002
ssg179
(dp1313
g10
F0.40000000000000002
ssVcom.tencent.android.qqdownloader
p1314
(dp1315
g10
F1.7
sssg89
(dp1316
Vcom.jiongji.andriod.card
p1317
(dp1318
g10
F0.40000000000000002
ssg293
(dp1319
g10
I1
ssg253
(dp1320
g10
F1.5
ssg157
(dp1321
g10
I1
ssg868
(dp1322
g10
F1.7
ssg103
(dp1323
g10
F9.0999999999999996
ssVcom.huawei.android.totemweather
p1324
(dp1325
g10
I1
ssVcom.android.deskclock
p1326
(dp1327
g10
F13.799999999999999
ssVvStudio.Android.Camera360
p1328
(dp1329
g10
F2.8999999999999999
ssVcom.tencent.android.qqdownloader
p1330
(dp1331
g10
F8.3000000000000007
ssg624
(dp1332
g10
F4.7000000000000002
ssg573
(dp1333
g10
F16.5
ssg39
(dp1334
g10
F82.400000000000048
ssVcom.youku.phone
p1335
(dp1336
g10
I1
ssg41
(dp1337
g10
F14.9
ssg317
(dp1338
g10
F0.90000000000000002
ssg47
(dp1339
g10
F8.4000000000000004
ssVcom.android.gallery3d
p1340
(dp1341
g10
F4.5999999999999996
ssg703
(dp1342
g10
F13.899999999999999
ssg27
(dp1343
g10
F1.7
ssg428
(dp1344
g10
F3.2999999999999998
ssg1147
(dp1345
g10
F2.7999999999999998
ssg430
(dp1346
g10
F5.8000000000000007
ssVcom.eg.android.AlipayGphone
p1347
(dp1348
g10
I1
ssVcom.baidu.home2
p1349
(dp1350
g10
F2.3999999999999999
ssVcom.android.phone
p1351
(dp1352
g10
F10.1
ssg129
(dp1353
g10
F0.90000000000000002
ssVcom.tencent.tokenlgnl
p1354
(dp1355
g10
F1.7
ssVcom.tencent.mm
p1356
(dp1357
g10
F21.300000000000001
ssVcom.ylmf.androidclient
p1358
(dp1359
g10
F2
ssVcom.youdao.dict
p1360
(dp1361
g10
I1
ssVcom.android.flashlight
p1362
(dp1363
g10
I1
ssVmark.via
p1364
(dp1365
g10
F23.199999999999996
ssVcom.android.calculator
p1366
(dp1367
g10
F0.90000000000000002
ssVcom.baidu.netdisk
p1368
(dp1369
g10
F4.7000000000000002
ssg71
(dp1370
g10
F6.7000000000000011
ssg828
(dp1371
g10
F26.599999999999984
ssg213
(dp1372
g10
F0.90000000000000002
ssVcom.tencent.qqlive
p1373
(dp1374
g10
F2.2999999999999998
ssVcom.nd.android.pandareader
p1375
(dp1376
g10
F0.69999999999999996
ssVcom.tencent.mtt
p1377
(dp1378
g10
I1
ssVcom.kingroot.kinguser
p1379
(dp1380
g10
F15
ssVcom.sinovatech.unicom.ui
p1381
(dp1382
g10
F0.69999999999999996
ssVcom.tencent.mobileqq
p1383
(dp1384
g10
F18.799999999999997
ssVcom.android.mms
p1385
(dp1386
g10
F17.699999999999999
ssg476
(dp1387
g10
F1.3
ssVcom.android.settings
p1388
(dp1389
g10
F18.300000000000001
ssg319
(dp1390
g10
F3.5999999999999996
ssg321
(dp1391
g10
I1
ssg21
(dp1392
g10
F22.099999999999998
sssg91
(dp1393
Vcom.simple.fortuneteller
p1394
(dp1395
g10
F1.3
ssg13
(dp1396
g10
F0.69999999999999996
ssVmark.via
p1397
(dp1398
g10
F5.2000000000000011
ssg69
(dp1399
g10
F0.69999999999999996
ssg614
(dp1400
g10
F3.1000000000000001
ssg105
(dp1401
g10
F0.90000000000000002
ssg1349
(dp1402
g10
F1.3
ssg1023
(dp1403
g10
F0.90000000000000002
ssg109
(dp1404
g10
F0.40000000000000002
ssg787
(dp1405
g10
F5.2000000000000002
ssg31
(dp1406
g10
F0.40000000000000002
ssg8
(dp1407
g10
I1
ssVcom.feistma.appmove
p1408
(dp1409
g10
F12.100000000000001
ssg253
(dp1410
g10
F3.8999999999999999
ssVcom.ifeng.news2
p1411
(dp1412
g10
F5.5
ssVme.onemobile.android
p1413
(dp1414
g10
F2
ssVpredictor.namer
p1415
(dp1416
g10
F0.90000000000000002
ssVcom.android.bluetooth
p1417
(dp1418
g10
I1
ssg637
(dp1419
g10
F9.0000000000000018
ssg15
(dp1420
g10
F1.7
ssg547
(dp1421
g10
F0.40000000000000002
ssVcom.baidu.backuprestore
p1422
(dp1423
g10
F4.6000000000000005
ssVcom.tencent.token
p1424
(dp1425
g10
F1.6000000000000001
ssg643
(dp1426
g10
F0.90000000000000002
ssVcom.huawei.hidisk
p1427
(dp1428
g10
F11.399999999999999
ssVcom.eg.android.AlipayGphone
p1429
(dp1430
g10
F1.8
ssVcom.android.phone
p1431
(dp1432
g10
F58.800000000000004
ssg85
(dp1433
g10
F0.40000000000000002
ssVcom.tencent.mm
p1434
(dp1435
g10
F2.7000000000000002
ssVcom.ylmf.androidclient
p1436
(dp1437
g10
F3.7000000000000002
ssg131
(dp1438
g10
F0.40000000000000002
ssg1010
(dp1439
g10
F1.7
ssVcom.android.contacts
p1440
(dp1441
g10
F8.1999999999999993
ssVcom.huawei.KoBackup
p1442
(dp1443
g10
I1
ssg757
(dp1444
g10
F2.3999999999999999
ssg133
(dp1445
g10
F10.199999999999999
ssg207
(dp1446
g10
F1.3
ssVcom.Astro.UI
p1447
(dp1448
g10
F0.40000000000000002
ssVcom.qihoo.browser
p1449
(dp1450
g10
F10.4
ssg972
(dp1451
g10
F2
ssg167
(dp1452
g10
F0.40000000000000002
ssg77
(dp1453
g10
F0.90000000000000002
ssVcom.tencent.mobileqq
p1454
(dp1455
g10
F6.2000000000000002
ssVcom.kingroot.kinguser
p1456
(dp1457
g10
F2.5999999999999996
ssVfw.fourword
p1458
(dp1459
g10
F0.69999999999999996
ssVcom.amigosoftware.name7_5_web_android
p1460
(dp1461
g10
F0.90000000000000002
ssg942
(dp1462
g10
F1.3
ssVcn.mixiaoxiao.myappscreenmask
p1463
(dp1464
g10
I2
ssVcom.android.mms
p1465
(dp1466
g10
F5
ssVcom.baidu.BaiduMap
p1467
(dp1468
g10
F2.1000000000000001
ssVcom.baidu.tieba
p1469
(dp1470
g10
F17.699999999999999
ssVcom.huawei.android.totemweather
p1471
(dp1472
g10
I1
ssg700
(dp1473
g10
F0.40000000000000002
ssVcom.lql.yj.bgyc
p1474
(dp1475
g10
F0.40000000000000002
sssg93
(dp1476
g219
(dp1477
g10
F1.3
ssVcom.qihoo.cleandroid_cn
p1478
(dp1479
g10
F1.3
ssVcom.tencent.android.qqdownloader
p1480
(dp1481
g10
F8.0999999999999996
sssg95
(dp1482
g255
(dp1483
g10
F0.40000000000000002
ssVcom.tencent.qt.sns
p1484
(dp1485
g10
F0.90000000000000002
ssVcom.youdao.dict
p1486
(dp1487
g10
F4.7000000000000002
ssVcom.kingroot.kinguser
p1488
(dp1489
g10
F0.90000000000000002
ssVcom.tencent.mm
p1490
(dp1491
g10
F4.9000000000000004
ssVcom.android.packageinstaller
p1492
(dp1493
g10
F0.90000000000000002
ssVcom.android.mms
p1494
(dp1495
g10
F1.8
ssVcom.qihoo.cleandroid_cn
p1496
(dp1497
g10
F0.69999999999999996
ssg1048
(dp1498
g10
F0.40000000000000002
ssg1273
(dp1499
g10
F2.2999999999999998
ssVcom.android.fileexplorer
p1500
(dp1501
g10
I1
ssVcom.baidu.tieba
p1502
(dp1503
g10
F1.7
ssVyiqi.bazi
p1504
(dp1505
g10
I1
ssVcom.tencent.android.qqdownloader
p1506
(dp1507
g10
F2.7999999999999998
ssVcom.ifeng.news2
p1508
(dp1509
g10
F1.7
ssg1103
(dp1510
g10
F0.90000000000000002
ssVcom.tencent.mobileqq
p1511
(dp1512
g10
F9.5999999999999996
ssg1122
(dp1513
g10
F2.7000000000000002
ssVcom.android.deskclock
p1514
(dp1515
g10
I1
sssg97
(dp1516
Vcom.android.packageinstaller
p1517
(dp1518
g10
I1
ssg19
(dp1519
g10
F0.69999999999999996
ssVcom.qihoo.cleandroid_cn
p1520
(dp1521
g10
F0.90000000000000002
ssg384
(dp1522
g10
F0.40000000000000002
sssg99
(dp1523
g947
(dp1524
g10
F1.3
ssVcom.android.packageinstaller
p1525
(dp1526
g10
I1
ssg952
(dp1527
g10
F0.69999999999999996
sssg101
(dp1528
Vcom.kingroot.kinguser
p1529
(dp1530
g10
F0.69999999999999996
ssg203
(dp1531
g10
F1.7000000000000002
ssVcom.android.packageinstaller
p1532
(dp1533
g10
I1
ssg23
(dp1534
g10
I1
ssg25
(dp1535
g10
F0.69999999999999996
ssg970
(dp1536
g10
F0.90000000000000002
ssg199
(dp1537
g10
F1.7
sssg103
(dp1538
g480
(dp1539
g10
F4.4000000000000004
ssVcom.ifeng.news2
p1540
(dp1541
g10
F1.7
sssg105
(dp1542
g81
(dp1543
g10
F0.40000000000000002
ssVcom.tencent.mobileqq
p1544
(dp1545
g10
F0.90000000000000002
ssVcom.android.mms
p1546
(dp1547
g10
F0.90000000000000002
ssVcom.baidu.backuprestore
p1548
(dp1549
g10
I1
ssg1017
(dp1550
g10
F0.90000000000000002
ssVcom.baidu.home2
p1551
(dp1552
g10
I2
ssg75
(dp1553
g10
F1.6000000000000001
ssVcom.tencent.mm
p1554
(dp1555
g10
I1
ssVcom.tencent.tokenqqfa
p1556
(dp1557
g10
I2
sssg107
(dp1558
g247
(dp1559
g10
F1.1000000000000001
ssVcom.android.packageinstaller
p1560
(dp1561
g10
I1
ssVcom.feistma.appmove
p1562
(dp1563
g10
F1.3
ssg957
(dp1564
g10
F2.6000000000000001
ssVcom.qihoo.cleandroid_cn
p1565
(dp1566
g10
F1.3999999999999999
sssg109
(dp1567
Vcom.android.deskclock
p1568
(dp1569
g10
F2.7000000000000002
ssVcom.kingroot.kinguser
p1570
(dp1571
g10
F1.7
ssVcom.qihoo.browser
p1572
(dp1573
g10
F1.7
ssg960
(dp1574
g10
F0.90000000000000002
sssg111
(dp1575
Vcom.android.settings
p1576
(dp1577
g10
I1
sssg113
(dp1578
Vcom.android.settings
p1579
(dp1580
g10
F0.90000000000000002
ssVcom.youdao.dict
p1581
(dp1582
g10
I1
sssg115
(dp1583
Vcom.Astro.UI
p1584
(dp1585
g10
I1
ssVmark.via
p1586
(dp1587
g10
I1
ssg1228
(dp1588
g10
F0.90000000000000002
ssVcom.qihoo.cleandroid_cn
p1589
(dp1590
g10
F0.90000000000000002
sssg117
(dp1591
Vcom.kingroot.kinguser
p1592
(dp1593
g10
F5
ssg177
(dp1594
g10
F1.3
ssg15
(dp1595
g10
F0.40000000000000002
ssg311
(dp1596
g10
I1
ssg1576
(dp1597
g10
F3.2999999999999998
ssVcom.android.packageinstaller
p1598
(dp1599
g10
F13.299999999999999
ssg988
(dp1600
g10
F3.3999999999999999
ssg111
(dp1601
g10
F0.69999999999999996
ssVcom.huawei.hidisk
p1602
(dp1603
g10
F1.3
ssVcom.baidu.tieba
p1604
(dp1605
g10
I1
ssg31
(dp1606
g10
F1.7
ssVcom.android.quicksearchbox
p1607
(dp1608
g10
F1.7
ssg709
(dp1609
g10
F0.40000000000000002
ssVcom.nd.android.pandareader
p1610
(dp1611
g10
F1.7
ssVcom.qihoo.cleandroid_cn
p1612
(dp1613
g10
F1.3
ssVcom.feistma.appmove
p1614
(dp1615
g10
F0.40000000000000002
ssg1463
(dp1616
g10
F1.3999999999999999
sssg119
(dp1617
Vcom.android.deskclock
p1618
(dp1619
g10
F1.8999999999999999
ssVcom.android.flashlight
p1620
(dp1621
g10
I1
ssVcom.nrop19
p1622
(dp1623
g10
F1.7
ssVcom.tencent.android.qqdownloader
p1624
(dp1625
g10
F0.40000000000000002
ssVcom.clov4r.android.nil
p1626
(dp1627
g10
F1.3
ssVcom.tencent.mm
p1628
(dp1629
g10
F0.40000000000000002
ssg1139
(dp1630
g10
F1.5
ssVcom.android.mms
p1631
(dp1632
g10
F2.3999999999999999
ssVcom.qihoo.cleandroid_cn
p1633
(dp1634
g10
F1.8999999999999999
ssVcn.taxen.ziwei
p1635
(dp1636
g10
F7.0000000000000009
ssVcom.Astro.UI
p1637
(dp1638
g10
F0.40000000000000002
ssVcom.huawei.hidisk
p1639
(dp1640
g10
F6.1000000000000005
ssVvStudio.Android.Camera360
p1641
(dp1642
g10
F2.2999999999999998
ssVcom.baidu.tieba
p1643
(dp1644
g10
F3
ssVcom.baidu.browser.apps
p1645
(dp1646
g10
F1.3
ssVcom.android.camera
p1647
(dp1648
g10
F2.7000000000000002
ssVcom.nd.android.pandareader
p1649
(dp1650
g10
F1.3
ssVcom.tencent.mobileqq
p1651
(dp1652
g10
F2.3999999999999999
ssVcom.android.contacts
p1653
(dp1654
g10
F2.2999999999999998
ssVcom.ifeng.news2
p1655
(dp1656
g10
F2.7000000000000002
sssg121
(dp1657
Vcom.android.packageinstaller
p1658
(dp1659
g10
I1
ssVcom.ifeng.news2
p1660
(dp1661
g10
F0.90000000000000002
sssg123
(dp1662
Vcom.kingroot.kinguser
p1663
(dp1664
g10
F3.1999999999999997
ssVcom.android.contacts
p1665
(dp1666
g10
F2.5
ssVcom.tencent.qt.sns
p1667
(dp1668
g10
I1
ssVcn.mixiaoxiao.myappscreenmask
p1669
(dp1670
g10
F3.3999999999999999
ssVcom.android.packageinstaller
p1671
(dp1672
g10
F2.3999999999999999
ssVcom.android.mms
p1673
(dp1674
g10
F8.0999999999999996
ssVcom.qihoo.cleandroid_cn
p1675
(dp1676
g10
F4
ssVcom.baidu.BaiduMap
p1677
(dp1678
g10
F1.3
ssVcom.huawei.hidisk
p1679
(dp1680
g10
I1
ssVcom.qihoo.browser
p1681
(dp1682
g10
F2.3999999999999999
ssVcom.baidu.tieba
p1683
(dp1684
g10
F3.2999999999999998
ssVcom.yidalianke.app
p1685
(dp1686
g10
I1
ssVcom.tencent.android.qqdownloader
p1687
(dp1688
g10
F2.7000000000000002
ssVcom.android.settings
p1689
(dp1690
g10
F1.1000000000000001
ssVcom.tencent.mm
p1691
(dp1692
g10
F4.0999999999999996
ssVcom.feistma.appmove
p1693
(dp1694
g10
F1.6000000000000001
ssVcom.ifeng.news2
p1695
(dp1696
g10
I1
sssg125
(dp1697
Vcom.qihoo.cleandroid_cn
p1698
(dp1699
g10
F7.9000000000000012
ssVcom.tencent.tokenlgnl
p1700
(dp1701
g10
F0.90000000000000002
ssVcom.android.deskclock
p1702
(dp1703
g10
F2.7000000000000002
ssVvStudio.Android.Camera360
p1704
(dp1705
g10
I2
ssg787
(dp1706
g10
F0.40000000000000002
ssVcom.android.contacts
p1707
(dp1708
g10
F190.70000000000005
ssVcom.ifeng.news2
p1709
(dp1710
g10
F12.800000000000002
ssVcom.android.packageinstaller
p1711
(dp1712
g10
F1.3
ssVcom.sankuai.meituan
p1713
(dp1714
g10
F3.4000000000000004
ssVcn.mixiaoxiao.myappscreenmask
p1715
(dp1716
g10
F1.8
ssVcom.tencent.token
p1717
(dp1718
g10
F6.2999999999999998
ssVcom.huawei.hidisk
p1719
(dp1720
g10
F2.1000000000000001
ssg123
(dp1721
g10
F2.8999999999999999
ssVcom.tencent.mm
p1722
(dp1723
g10
F10.1
ssVcom.ylmf.androidclient
p1724
(dp1725
g10
I1
ssVcom.tencent.tokenqqfa
p1726
(dp1727
g10
F1.7
ssVcom.kingroot.kinguser
p1728
(dp1729
g10
F2.7000000000000002
ssg1366
(dp1730
g10
F1.1000000000000001
ssg133
(dp1731
g10
F3.8999999999999999
ssg1187
(dp1732
g10
F3.2999999999999998
ssVcom.qihoo.browser
p1733
(dp1734
g10
F5.5
ssVcom.tencent.mobileqq
p1735
(dp1736
g10
F9.4000000000000004
ssVmark.via
p1737
(dp1738
g10
F4.7000000000000002
ssVcom.anzhi.hwsettings
p1739
(dp1740
g10
F1.7
ssVcom.sinovatech.unicom.ui
p1741
(dp1742
g10
F1.7
ssg601
(dp1743
g10
F4
ssVcom.android.mms
p1744
(dp1745
g10
F26.599999999999984
ssVcom.baidu.tieba
p1746
(dp1747
g10
F13.6
ssg846
(dp1748
g10
F51.400000000000006
ssg606
(dp1749
g10
F3
ssg538
(dp1750
g10
F0.69999999999999996
sssg127
(dp1751
Vpredictor.namer
p1752
(dp1753
g10
F1.1000000000000001
ssVcom.android.bluetooth
p1754
(dp1755
g10
F0.40000000000000002
ssVcom.android.packageinstaller
p1756
(dp1757
g10
F3.7999999999999998
ssVcom.android.mms
p1758
(dp1759
g10
I1
ssg1131
(dp1760
g10
F0.69999999999999996
ssVcom.baidu.tieba
p1761
(dp1762
g10
F0.90000000000000002
sssg129
(dp1763
g47
(dp1764
g10
I1
ssg21
(dp1765
g10
F0.90000000000000002
sssg131
(dp1766
g577
(dp1767
g10
F0.90000000000000002
ssg81
(dp1768
g10
F0.69999999999999996
ssVcom.baidu.backuprestore
p1769
(dp1770
g10
F0.90000000000000002
ssg567
(dp1771
g10
I1
ssVcom.baidu.home2
p1772
(dp1773
g10
F3.4000000000000004
ssg1281
(dp1774
g10
F0.40000000000000002
ssg75
(dp1775
g10
F3
sssg133
(dp1776
Vcom.android.settings
p1777
(dp1778
g10
F10.800000000000001
ssVcom.qihoo.browser
p1779
(dp1780
g10
F3.1999999999999997
ssVcom.baidu.tieba
p1781
(dp1782
g10
F1.3
ssVcom.android.phone
p1783
(dp1784
g10
F2.1000000000000001
sssg135
(dp1785
Vcom.android.packageinstaller
p1786
(dp1787
g10
F1.3
ssVcom.tencent.android.qqdownloader
p1788
(dp1789
g10
F1.7
sssg137
(dp1790
Vcom.android.packageinstaller
p1791
(dp1792
g10
F1.6000000000000001
ssVcom.tencent.android.qqdownloader
p1793
(dp1794
g10
I1
sssg139
(dp1795
g43
(dp1796
g10
F1.6000000000000001
ssVcom.qihoo.cleandroid_cn
p1797
(dp1798
g10
F1.8999999999999999
ssVcom.baidu.backuprestore
p1799
(dp1800
g10
F2.3999999999999999
ssVcom.android.deskclock
p1801
(dp1802
g10
F24.5
ssVvStudio.Android.Camera360
p1803
(dp1804
g10
F0.90000000000000002
ssg109
(dp1805
g10
F1.7
ssVcom.tencent.android.qqdownloader
p1806
(dp1807
g10
I3
ssg1159
(dp1808
g10
F3.7000000000000002
ssVcom.ifeng.news2
p1809
(dp1810
g10
F9.2000000000000011
ssVcom.tencent.qt.sns
p1811
(dp1812
g10
F1.7
ssVcom.android.packageinstaller
p1813
(dp1814
g10
F5.5
ssVcom.android.gallery3d
p1815
(dp1816
g10
F0.69999999999999996
ssVcn.mixiaoxiao.myappscreenmask
p1817
(dp1818
g10
F11.400000000000002
ssg866
(dp1819
g10
F2.5999999999999996
ssVcom.android.contacts
p1820
(dp1821
g10
F5.7999999999999998
ssVcom.huawei.hidisk
p1822
(dp1823
g10
F2.4000000000000004
ssVoms.mmc.fortunetelling
p1824
(dp1825
g10
F1.7
ssVcom.android.phone
p1826
(dp1827
g10
F0.90000000000000002
ssVcom.amigosoftware.life3_3_web_android
p1828
(dp1829
g10
I1
ssVcom.tencent.mobileqq
p1830
(dp1831
g10
F8.5
ssVcom.ylmf.androidclient
p1832
(dp1833
g10
F2.7000000000000002
ssVcom.android.settings
p1834
(dp1835
g10
F7.5000000000000009
ssg1529
(dp1836
g10
F7.3000000000000016
ssg822
(dp1837
g10
I2
ssVcom.huawei.android.dsdscardmanager
p1838
(dp1839
g10
F1.3
ssVcom.Astro.UI
p1840
(dp1841
g10
F1.8999999999999999
ssVexample.yijing
p1842
(dp1843
g10
F4
ssVcom.nd.android.pandareader
p1844
(dp1845
g10
F0.40000000000000002
ssVmark.via
p1846
(dp1847
g10
F4.4000000000000004
ssg838
(dp1848
g10
F4
ssVcom.tencent.mm
p1849
(dp1850
g10
F12.700000000000003
ssVcom.android.mms
p1851
(dp1852
g10
F5.2000000000000002
ssVcom.baidu.tieba
p1853
(dp1854
g10
F32.79999999999999
ssg315
(dp1855
g10
F0.90000000000000002
ssVcom.huawei.android.totemweather
p1856
(dp1857
g10
F0.69999999999999996
ssVcom.android.quicksearchbox
p1858
(dp1859
g10
F3.5
sssg141
(dp1860
Vcom.huawei.hidisk
p1861
(dp1862
g10
F3
ssg155
(dp1863
g10
F0.90000000000000002
ssg175
(dp1864
g10
I1
ssVcom.android.settings
p1865
(dp1866
g10
F2
sssg143
(dp1867
Vcom.qihoo.browser
p1868
(dp1869
g10
I1
sssg145
(dp1870
Vcn.wps.moffice_tpt
p1871
(dp1872
g10
F2
ssg396
(dp1873
g10
F11.1
ssVcom.android.deskclock
p1874
(dp1875
g10
F25.799999999999994
ssVcom.tencent.android.qqdownloader
p1876
(dp1877
g10
F0.69999999999999996
ssVcom.ifeng.news2
p1878
(dp1879
g10
I1
ssVme.onemobile.android
p1880
(dp1881
g10
F1.7
ssg45
(dp1882
g10
F0.40000000000000002
ssVcom.android.packageinstaller
p1883
(dp1884
g10
F2.2999999999999998
ssg1068
(dp1885
g10
F0.90000000000000002
ssVcom.huawei.hidisk
p1886
(dp1887
g10
F16.399999999999999
ssVcom.android.phone
p1888
(dp1889
g10
I1
ssg197
(dp1890
g10
F1.8
ssg662
(dp1891
g10
F7.0000000000000009
ssg1083
(dp1892
g10
I1
ssVmark.via
p1893
(dp1894
g10
F15.800000000000001
ssg1496
(dp1895
g10
I1
ssVcom.tencent.mobileqq
p1896
(dp1897
g10
F5
ssVcom.kingroot.kinguser
p1898
(dp1899
g10
F9.5
ssVcn.dz52pojie.www
p1900
(dp1901
g10
F0.40000000000000002
ssg223
(dp1902
g10
F1.1000000000000001
ssVcom.huawei.android.totemweather
p1903
(dp1904
g10
F1.7
ssVcom.android.mms
p1905
(dp1906
g10
I1
ssVcom.baidu.BaiduMap
p1907
(dp1908
g10
F0.90000000000000002
ssg771
(dp1909
g10
F1.8999999999999999
sssg147
(dp1910
g1791
(dp1911
g10
F0.40000000000000002
ssg137
(dp1912
g10
F0.90000000000000002
ssVcom.tencent.android.qqdownloader
p1913
(dp1914
g10
F1.7
sssg149
(dp1915
sg151
(dp1916
g259
(dp1917
g10
F0.69999999999999996
ssVcom.android.packageinstaller
p1918
(dp1919
g10
F1.3
ssg1474
(dp1920
g10
I1
ssVcom.baidu.BaiduMap
p1921
(dp1922
g10
F0.90000000000000002
ssVcom.qihoo.browser
p1923
(dp1924
g10
F0.40000000000000002
ssg295
(dp1925
g10
F1.7
sssg153
(dp1926
Vcom.android.packageinstaller
p1927
(dp1928
g10
F5.2000000000000002
ssg49
(dp1929
g10
F0.40000000000000002
ssg235
(dp1930
g10
F0.90000000000000002
sssg155
(dp1931
g233
(dp1932
g10
F2
ssVme.onemobile.android
p1933
(dp1934
g10
F2.3999999999999999
ssVcom.android.packageinstaller
p1935
(dp1936
g10
F3.7999999999999998
ssg191
(dp1937
g10
F12.800000000000001
sssg157
(dp1938
Vcom.android.packageinstaller
p1939
(dp1940
g10
F1.7
ssg213
(dp1941
g10
I1
ssVcom.tencent.mobileqq
p1942
(dp1943
g10
F2.7000000000000002
ssVcom.qihoo.cleandroid_cn
p1944
(dp1945
g10
F1.3
sssg159
(dp1946
g127
(dp1947
g10
F1.7
ssg1752
(dp1948
g10
F0.40000000000000002
ssVcom.android.packageinstaller
p1949
(dp1950
g10
F3
sssg161
(dp1951
Vcom.baidu.tieba
p1952
(dp1953
g10
F0.69999999999999996
ssVcom.anzhi.hwsettings
p1954
(dp1955
g10
I1
ssVcom.feistma.appmove
p1956
(dp1957
g10
F0.40000000000000002
ssVcn.mixiaoxiao.myappscreenmask
p1958
(dp1959
g10
F0.90000000000000002
sssg163
(dp1960
Vcom.android.packageinstaller
p1961
(dp1962
g10
I1
ssg1675
(dp1963
g10
F2
ssVcom.tencent.android.qqdownloader
p1964
(dp1965
g10
F2.2999999999999998
ssg93
(dp1966
g10
F2.7000000000000002
sssg165
(dp1967
Vcom.kingroot.kinguser
p1968
(dp1969
g10
F0.69999999999999996
ssVcom.sinovatech.unicom.ui
p1970
(dp1971
g10
F1.8999999999999999
ssVcom.qihoo.cleandroid_cn
p1972
(dp1973
g10
F0.69999999999999996
ssVcom.tencent.android.qqdownloader
p1974
(dp1975
g10
F2.3999999999999999
ssVcom.tencent.mobileqq
p1976
(dp1977
g10
F0.90000000000000002
ssVcom.feistma.appmove
p1978
(dp1979
g10
F0.90000000000000002
sssg167
(dp1980
g371
(dp1981
g10
F0.69999999999999996
ssg237
(dp1982
g10
I1
ssVcom.baidu.BaiduMap
p1983
(dp1984
g10
F0.40000000000000002
ssg229
(dp1985
g10
F0.90000000000000002
sssg169
(dp1986
Vme.onemobile.android
p1987
(dp1988
g10
I1
ssg707
(dp1989
g10
F1.7
ssg143
(dp1990
g10
I1
ssVcn.mixiaoxiao.myappscreenmask
p1991
(dp1992
g10
F0.69999999999999996
ssg1868
(dp1993
g10
F1.8
ssg31
(dp1994
g10
F1.3
sssg171
(dp1995
Vcom.android.settings
p1996
(dp1997
g10
F1.8999999999999999
ssVcom.android.packageinstaller
p1998
(dp1999
g10
F2
ssg972
(dp2000
g10
F1.1000000000000001
sssg173
(dp2001
g725
(dp2002
g10
F0.40000000000000002
ssVcom.android.contacts
p2003
(dp2004
g10
F1.7
ssVcom.baidu.home2
p2005
(dp2006
g10
F1.7
ssVcom.qihoo.browser
p2007
(dp2008
g10
I1
ssVcom.android.phone
p2009
(dp2010
g10
F1.8999999999999999
ssVcom.feistma.appmove
p2011
(dp2012
g10
F0.90000000000000002
sssg175
(dp2013
g1133
(dp2014
g10
F1.1000000000000001
ssg155
(dp2015
g10
I1
ssg1135
(dp2016
g10
F2.2999999999999998
ssVcom.nemodigm.android.prime_fortune
p2017
(dp2018
g10
F1.6000000000000001
sssg177
(dp2019
Vcom.android.packageinstaller
p2020
(dp2021
g10
I1
ssg169
(dp2022
g10
F0.90000000000000002
ssg1868
(dp2023
g10
F0.40000000000000002
ssg143
(dp2024
g10
F0.69999999999999996
sssg179
(dp2025
Vcom.android.packageinstaller
p2026
(dp2027
g10
F1.7
ssg439
(dp2028
g10
F0.40000000000000002
ssVcom.qihoo.cleandroid_cn
p2029
(dp2030
g10
F0.90000000000000002
sssg181
(dp2031
g1147
(dp2032
g10
F0.69999999999999996
ssVcom.tencent.qqlite
p2033
(dp2034
g10
F0.69999999999999996
ssg1520
(dp2035
g10
F4.5
ssVcom.tencent.tokenlgnl
p2036
(dp2037
g10
F0.90000000000000002
ssVcom.android.deskclock
p2038
(dp2039
g10
F4.7000000000000002
ssVcom.ifeng.news2
p2040
(dp2041
g10
F6.2000000000000002
ssg41
(dp2042
g10
F0.69999999999999996
ssg500
(dp2043
g10
F0.40000000000000002
ssg1517
(dp2044
g10
F0.69999999999999996
ssVcom.sankuai.meituan
p2045
(dp2046
g10
I2
ssVcom.android.gallery3d
p2047
(dp2048
g10
F0.90000000000000002
ssg265
(dp2049
g10
F3.4000000000000004
ssg1717
(dp2050
g10
F3.5999999999999996
ssg1504
(dp2051
g10
F0.40000000000000002
ssVcom.huawei.hidisk
p2052
(dp2053
g10
F2.7999999999999998
ssVcom.eg.android.AlipayGphone
p2054
(dp2055
g10
F2.6000000000000001
ssVcom.baidu.home2
p2056
(dp2057
g10
F3.6000000000000001
ssg125
(dp2058
g10
F100.40000000000005
ssg1942
(dp2059
g10
F5.7000000000000002
ssVcom.android.flashlight
p2060
(dp2061
g10
I2
ssVmark.via
p2062
(dp2063
g10
F4.5999999999999996
ssg1366
(dp2064
g10
F0.69999999999999996
ssVcom.tencent.mm
p2065
(dp2066
g10
F17.600000000000001
ssg1185
(dp2067
g10
F0.90000000000000002
ssg594
(dp2068
g10
F3.7999999999999998
ssVcom.qihoo.browser
p2069
(dp2070
g10
F3.6000000000000001
ssg596
(dp2071
g10
F0.40000000000000002
ssVcom.kingroot.kinguser
p2072
(dp2073
g10
F1.3
ssg97
(dp2074
g10
F0.90000000000000002
ssg1739
(dp2075
g10
F0.90000000000000002
ssg1741
(dp2076
g10
F1.3
ssg601
(dp2077
g10
F5
ssg1385
(dp2078
g10
F30.79999999999999
ssVcom.baidu.tieba
p2079
(dp2080
g10
F15.300000000000001
ssVcom.android.settings
p2081
(dp2082
g10
F7.2999999999999998
ssg606
(dp2083
g10
F2.8999999999999999
ssg538
(dp2084
g10
F1.3
sssg183
(dp2085
Vcom.kingroot.kinguser
p2086
(dp2087
g10
F0.69999999999999996
ssVcom.android.contacts
p2088
(dp2089
g10
I1
ssVcn.wps.moffice_tpt
p2090
(dp2091
g10
I2
ssg1579
(dp2092
g10
F1.7
ssVcom.feistma.appmove
p2093
(dp2094
g10
F1.3
ssVcom.baidu.home2
p2095
(dp2096
g10
F7.4000000000000004
ssVcom.baidu.tieba
p2097
(dp2098
g10
I1
ssg761
(dp2099
g10
F1.8
ssg113
(dp2100
g10
I1
ssg1514
(dp2101
g10
F0.90000000000000002
sssg185
(dp2102
sg187
(dp2103
g841
(dp2104
g10
F1.3
ssVcom.baidu.tieba
p2105
(dp2106
g10
F0.40000000000000002
ssVcom.baidu.browser.apps
p2107
(dp2108
g10
I1
ssVcom.android.phone
p2109
(dp2110
g10
I2
ssVcom.android.contacts
p2111
(dp2112
g10
F5.0999999999999996
ssVcom.ifeng.news2
p2113
(dp2114
g10
F2.3999999999999999
sssg189
(dp2115
Vcom.Astro.UI
p2116
(dp2117
g10
I1
ssg1261
(dp2118
g10
F0.90000000000000002
sssg191
(dp2119
g233
(dp2120
g10
F1.1000000000000001
ssg1933
(dp2121
g10
F1.7000000000000002
ssVorg.kde.necessitas.example.YXBaZi
p2122
(dp2123
g10
F11.5
ssg1935
(dp2124
g10
F2
sssg193
(dp2125
g436
(dp2126
g10
I1
ssVcom.android.packageinstaller
p2127
(dp2128
g10
F2
sssg195
(dp2129
g1394
(dp2130
g10
F1.7
ssg1871
(dp2131
g10
F2.3999999999999999
ssg69
(dp2132
g10
F1.7000000000000002
ssVcom.qihoo.cleandroid_cn
p2133
(dp2134
g10
F3.7999999999999998
ssg1874
(dp2135
g10
F2.1000000000000001
ssg571
(dp2136
g10
F1.3
ssg31
(dp2137
g10
F0.69999999999999996
ssVcom.feistma.appmove
p2138
(dp2139
g10
F1.7999999999999998
ssg39
(dp2140
g10
F2.6000000000000001
ssVme.onemobile.android
p2141
(dp2142
g10
F1.8
ssg1415
(dp2143
g10
F1.3999999999999999
ssg317
(dp2144
g10
I5
ssg1065
(dp2145
g10
F30.79999999999999
ssg2047
(dp2146
g10
F6.1000000000000005
ssVcn.mixiaoxiao.myappscreenmask
p2147
(dp2148
g10
F1.3
ssVcom.android.contacts
p2149
(dp2150
g10
F1.7
ssVcom.eg.android.AlipayGphone
p2151
(dp2152
g10
F3.1000000000000001
ssg197
(dp2153
g10
F5.4000000000000004
ssg979
(dp2154
g10
F6.6000000000000014
ssg599
(dp2155
g10
F4.9000000000000004
ssg1691
(dp2156
g10
F5.5
ssg207
(dp2157
g10
F1.7
ssVcom.homenetworkkeeper
p2158
(dp2159
g10
F2
ssg145
(dp2160
g10
F15.9
ssVcom.kingroot.kinguser
p2161
(dp2162
g10
F3.2999999999999998
ssg1458
(dp2163
g10
F0.90000000000000002
ssg1460
(dp2164
g10
F1.3999999999999999
ssg301
(dp2165
g10
F4.4000000000000004
ssVcom.huawei.android.totemweather
p2166
(dp2167
g10
F2.2999999999999998
ssVcom.android.mms
p2168
(dp2169
g10
F0.69999999999999996
ssVcom.baidu.BaiduMap
p2170
(dp2171
g10
F2.7999999999999998
ssg89
(dp2172
g10
F4.0999999999999996
ssg1388
(dp2173
g10
F11.700000000000001
ssVcom.android.quicksearchbox
p2174
(dp2175
g10
F1.3
ssg1474
(dp2176
g10
F0.69999999999999996
sssg197
(dp2177
g1900
(dp2178
g10
F0.90000000000000002
ssVcom.huawei.android.totemweather
p2179
(dp2180
g10
F0.69999999999999996
ssVcom.qihoo.cleandroid_cn
p2181
(dp2182
g10
F0.69999999999999996
ssVcom.android.deskclock
p2183
(dp2184
g10
F0.90000000000000002
ssVcom.huawei.hidisk
p2185
(dp2186
g10
F4.7000000000000002
ssg2174
(dp2187
g10
F0.69999999999999996
ssg2149
(dp2188
g10
F1.3
sssg199
(dp2189
g203
(dp2190
g10
F3.4000000000000004
ssg223
(dp2191
g10
F1.6000000000000001
ssg225
(dp2192
g10
I1
ssg545
(dp2193
g10
F0.90000000000000002
ssVcom.android.phone
p2194
(dp2195
g10
I1
ssVcom.android.mms
p2196
(dp2197
g10
I1
ssVcom.baidu.netdisk
p2198
(dp2199
g10
F0.40000000000000002
ssg1068
(dp2200
g10
F1.3999999999999999
ssg25
(dp2201
g10
F2.6000000000000001
ssVcom.qihoo.browser
p2202
(dp2203
g10
F2.2999999999999998
ssVcom.baidu.tieba
p2204
(dp2205
g10
F7.3000000000000007
ssVcom.eg.android.AlipayGphone
p2206
(dp2207
g10
F1.7
ssVcom.android.settings
p2208
(dp2209
g10
F8.4000000000000004
ssVcom.tencent.mm
p2210
(dp2211
g10
F1.3
ssVcom.android.contacts
p2212
(dp2213
g10
F0.90000000000000002
ssVcom.ifeng.news2
p2214
(dp2215
g10
F5.2999999999999998
ssVcom.tencent.mobileqq
p2216
(dp2217
g10
F0.90000000000000002
sssg201
(dp2218
g1000
(dp2219
g10
F1.7
ssg1996
(dp2220
g10
F0.40000000000000002
ssVcom.android.packageinstaller
p2221
(dp2222
g10
F1.7
ssg936
(dp2223
g10
I1
ssg171
(dp2224
g10
F2
sssg203
(dp2225
g247
(dp2226
g10
F1.6000000000000001
ssg225
(dp2227
g10
F1.3
ssg545
(dp2228
g10
F1.6000000000000001
ssg547
(dp2229
g10
F1.7
ssg1565
(dp2230
g10
F0.90000000000000002
ssg1562
(dp2231
g10
F1.3999999999999999
ssg25
(dp2232
g10
F50.200000000000017
ssg2204
(dp2233
g10
F1.3
ssVcom.tencent.android.qqdownloader
p2234
(dp2235
g10
F1.3
ssg107
(dp2236
g10
F3.5
ssg562
(dp2237
g10
F5.0999999999999996
sssg205
(dp2238
Vcom.shoujiduoduo.ringtone
p2239
(dp2240
g10
I1
sssg207
(dp2241
g478
(dp2242
g10
F3.5
ssg1224
(dp2243
g10
F0.90000000000000002
ssg1125
(dp2244
g10
F1.5
ssg69
(dp2245
g10
F1.7
ssg159
(dp2246
g10
F0.40000000000000002
sssg209
(dp2247
Vcom.android.packageinstaller
p2248
(dp2249
g10
F1.3
ssg677
(dp2250
g10
F0.69999999999999996
ssVcom.tencent.android.qqdownloader
p2251
(dp2252
g10
I1
sssg211
(dp2253
Vcom.qihoo.browser
p2254
(dp2255
g10
F2.7000000000000002
ssVcom.android.packageinstaller
p2256
(dp2257
g10
F5
ssVcom.qihoo.cleandroid_cn
p2258
(dp2259
g10
F0.40000000000000002
sssg213
(dp2260
Vcom.android.packageinstaller
p2261
(dp2262
g10
I2
ssVcom.qihoo.cleandroid_cn
p2263
(dp2264
g10
F0.90000000000000002
ssVcom.tencent.android.qqdownloader
p2265
(dp2266
g10
F0.69999999999999996
sssg215
(dp2267
Vcom.kingroot.kinguser
p2268
(dp2269
g10
F3.2000000000000002
ssVcom.tencent.qt.sns
p2270
(dp2271
g10
F0.40000000000000002
ssg338
(dp2272
g10
I2
ssg966
(dp2273
g10
F1.7
ssVcom.baidu.tieba
p2274
(dp2275
g10
F4.4000000000000004
ssg997
(dp2276
g10
F1.3
ssVcom.tencent.android.qqdownloader
p2277
(dp2278
g10
F4.3999999999999995
ssg654
(dp2279
g10
F0.69999999999999996
ssg656
(dp2280
g10
F0.90000000000000002
ssVcom.ifeng.news2
p2281
(dp2282
g10
I1
sssg217
(dp2283
Vcom.android.packageinstaller
p2284
(dp2285
g10
F1.8999999999999999
ssg862
(dp2286
g10
F1.1000000000000001
sssg219
(dp2287
Vcom.android.packageinstaller
p2288
(dp2289
g10
F2.3999999999999999
ssVcom.qihoo.cleandroid_cn
p2290
(dp2291
g10
F1.3
ssVcom.tencent.android.qqdownloader
p2292
(dp2293
g10
F2.7000000000000002
sssg221
(dp2294
g1317
(dp2295
g10
F0.90000000000000002
ssg241
(dp2296
g10
F0.90000000000000002
ssVcom.android.mms
p2297
(dp2298
g10
F5.5
ssg1230
(dp2299
g10
F9.5000000000000018
ssVcom.baidu.backuprestore
p2300
(dp2301
g10
I1
ssVcom.android.deskclock
p2302
(dp2303
g10
F4.9000000000000004
ssg1023
(dp2304
g10
F0.40000000000000002
ssg29
(dp2305
g10
F26.199999999999999
ssVme.onemobile.android
p2306
(dp2307
g10
F3.8999999999999999
ssVcom.feistma.appmove
p2308
(dp2309
g10
F7.6000000000000005
ssVcom.ifeng.news2
p2310
(dp2311
g10
F0.69999999999999996
ssg2270
(dp2312
g10
F1.8999999999999999
ssVcom.android.packageinstaller
p2313
(dp2314
g10
F10.5
ssg639
(dp2315
g10
F0.69999999999999996
ssVcn.mixiaoxiao.myappscreenmask
p2316
(dp2317
g10
F1.7999999999999998
ssg806
(dp2318
g10
F1.6000000000000001
ssVcom.huawei.hidisk
p2319
(dp2320
g10
F0.40000000000000002
ssVcom.eg.android.AlipayGphone
p2321
(dp2322
g10
I1
ssg1824
(dp2323
g10
F0.90000000000000002
ssg434
(dp2324
g10
F1.8999999999999999
ssVcom.tencent.mobileqq
p2325
(dp2326
g10
F5.7000000000000002
ssVcom.android.phone
p2327
(dp2328
g10
F5.9000000000000004
ssg1010
(dp2329
g10
F0.69999999999999996
ssVcom.android.contacts
p2330
(dp2331
g10
F4.8999999999999995
ssg450
(dp2332
g10
F0.40000000000000002
ssVcom.baidu.netdisk
p2333
(dp2334
g10
F1.3
ssg662
(dp2335
g10
F1.7999999999999998
ssg868
(dp2336
g10
F0.40000000000000002
ssVcom.Astro.UI
p2337
(dp2338
g10
I2
ssVcom.qihoo.browser
p2339
(dp2340
g10
F3.2999999999999998
ssg759
(dp2341
g10
F0.90000000000000002
ssVcom.tencent.qqlive
p2342
(dp2343
g10
I1
ssVcom.nd.android.pandareader
p2344
(dp2345
g10
F7.6000000000000005
ssVcom.baidu.home2
p2346
(dp2347
g10
I1
ssg297
(dp2348
g10
F0.90000000000000002
ssg665
(dp2349
g10
F7.7000000000000002
ssg303
(dp2350
g10
F0.90000000000000002
ssVcom.huawei.android.totemweather
p2351
(dp2352
g10
F2.9000000000000004
ssg305
(dp2353
g10
F1.6000000000000001
ssg87
(dp2354
g10
F0.90000000000000002
ssg690
(dp2355
g10
F1.1000000000000001
ssg111
(dp2356
g10
I1
ssVcom.baidu.tieba
p2357
(dp2358
g10
F5.2999999999999998
ssg163
(dp2359
g10
F1.8999999999999999
ssg1576
(dp2360
g10
F4.2000000000000002
ssVcom.android.quicksearchbox
p2361
(dp2362
g10
F4.7000000000000002
ssg700
(dp2363
g10
F1.3
ssg93
(dp2364
g10
F0.40000000000000002
sssg223
(dp2365
Vcom.baidu.backuprestore
p2366
(dp2367
g10
F1.8999999999999999
ssg1030
(dp2368
g10
F1.6000000000000001
sssg225
(dp2369
Vmark.via
p2370
(dp2371
g10
F2.5999999999999996
ssg299
(dp2372
g10
F0.69999999999999996
ssg45
(dp2373
g10
F0.69999999999999996
ssg2072
(dp2374
g10
I1
ssVcom.tencent.mm
p2375
(dp2376
g10
I1
ssg1876
(dp2377
g10
F1.3
ssVcom.android.gallery3d
p2378
(dp2379
g10
I1
ssVcom.qihoo.cleandroid_cn
p2380
(dp2381
g10
F3.8999999999999999
ssVcom.android.contacts
p2382
(dp2383
g10
F0.69999999999999996
ssg1618
(dp2384
g10
F3.2999999999999998
ssg2319
(dp2385
g10
I1
ssVcom.qihoo.browser
p2386
(dp2387
g10
F0.90000000000000002
ssg2105
(dp2388
g10
F4.5999999999999996
ssg596
(dp2389
g10
I1
ssVcom.android.settings
p2390
(dp2391
g10
I1
ssVcom.android.quicksearchbox
p2392
(dp2393
g10
F2.2999999999999998
ssg1383
(dp2394
g10
F1.7
ssVcom.android.mms
p2395
(dp2396
g10
F3.7999999999999998
ssVcom.ifeng.news2
p2397
(dp2398
g10
F3.2999999999999998
sssg227
(dp2399
g175
(dp2400
g10
F0.40000000000000002
ssVcom.qihoo.cleandroid_cn
p2401
(dp2402
g10
F6.3999999999999995
ssVcom.tencent.android.qqdownloader
p2403
(dp2404
g10
F1.3
ssVcom.eg.android.AlipayGphone
p2405
(dp2406
g10
F1.6000000000000001
ssg117
(dp2407
g10
F11.5
ssVcom.dendroidZ.lunarCalendarLite
p2408
(dp2409
g10
I1
ssg1598
(dp2410
g10
F9.7000000000000011
ssg2147
(dp2411
g10
I2
ssg193
(dp2412
g10
F2.2999999999999998
ssVcom.huawei.hidisk
p2413
(dp2414
g10
F0.90000000000000002
ssVcom.ifeng.news2
p2415
(dp2416
g10
F2.6000000000000001
ssg436
(dp2417
g10
F1.6000000000000001
ssVcom.tencent.mm
p2418
(dp2419
g10
F5.7000000000000002
ssVcom.tencent.qt.sns
p2420
(dp2421
g10
F1.5
ssg141
(dp2422
g10
F0.69999999999999996
ssg1610
(dp2423
g10
F0.40000000000000002
ssVcom.tencent.mobileqq
p2424
(dp2425
g10
I1
ssg1592
(dp2426
g10
F2.9999999999999996
ssg469
(dp2427
g10
F0.69999999999999996
ssg472
(dp2428
g10
F0.69999999999999996
ssg1576
(dp2429
g10
F1.7
ssg1465
(dp2430
g10
F2.3999999999999999
ssg111
(dp2431
g10
F0.90000000000000002
ssg1607
(dp2432
g10
F0.40000000000000002
sssg229
(dp2433
Vcom.huawei.hidisk
p2434
(dp2435
g10
F1.3
ssg371
(dp2436
g10
F3.7000000000000002
ssVcom.android.settings
p2437
(dp2438
g10
F0.40000000000000002
ssg1983
(dp2439
g10
F2
ssg933
(dp2440
g10
F0.69999999999999996
sssg231
(dp2441
Vcom.android.packageinstaller
p2442
(dp2443
g10
F0.90000000000000002
ssg626
(dp2444
g10
F0.69999999999999996
ssVcom.tencent.android.qqdownloader
p2445
(dp2446
g10
F1.3999999999999999
sssg233
(dp2447
Vme.onemobile.android
p2448
(dp2449
g10
F2
ssVcom.android.packageinstaller
p2450
(dp2451
g10
F1.8999999999999999
ssVcom.kingroot.kinguser
p2452
(dp2453
g10
F1.1000000000000001
sssg235
(dp2454
g1005
(dp2455
g10
F0.69999999999999996
ssVcom.android.packageinstaller
p2456
(dp2457
g10
I1
ssg49
(dp2458
g10
F0.90000000000000002
sssg237
(dp2459
g536
(dp2460
g10
F0.69999999999999996
ssg371
(dp2461
g10
F1.8999999999999999
ssg1983
(dp2462
g10
F1.1000000000000001
ssg229
(dp2463
g10
I1
ssg508
(dp2464
g10
F1.3999999999999999
ssg1923
(dp2465
g10
F0.69999999999999996
ssg500
(dp2466
g10
F0.90000000000000002
ssg259
(dp2467
g10
F0.90000000000000002
sssg239
(dp2468
Vcom.baidu.home2
p2469
(dp2470
g10
F1.7
ssVcn.wps.moffice_tpt
p2471
(dp2472
g10
F0.90000000000000002
sssg241
(dp2473
Vcom.baidu.tieba
p2474
(dp2475
g10
F1.7
ssVcom.ifeng.news2
p2476
(dp2477
g10
F0.40000000000000002
ssVcom.tencent.android.qqdownloader
p2478
(dp2479
g10
I1
ssVcom.android.phone
p2480
(dp2481
g10
F0.90000000000000002
sssg243
(dp2482
g1113
(dp2483
g10
F0.90000000000000002
ssg1379
(dp2484
g10
F2.8999999999999999
ssVmark.via
p2485
(dp2486
g10
F3.3999999999999999
ssVcom.android.settings
p2487
(dp2488
g10
F0.40000000000000002
ssVcom.android.packageinstaller
p2489
(dp2490
g10
F1.6000000000000001
ssg101
(dp2491
g10
I1
ssg1358
(dp2492
g10
F0.90000000000000002
ssVcom.android.deskclock
p2493
(dp2494
g10
F3.8999999999999999
ssg808
(dp2495
g10
F1.7
ssVcom.baidu.tieba
p2496
(dp2497
g10
F2.8999999999999999
ssg997
(dp2498
g10
I1
ssg125
(dp2499
g10
F1.8999999999999999
ssg632
(dp2500
g10
F8.8000000000000007
ssVcom.qihoo.cleandroid_cn
p2501
(dp2502
g10
I1
ssg181
(dp2503
g10
F1.8999999999999999
ssVcom.ifeng.news2
p2504
(dp2505
g10
F2.3999999999999999
sssg245
(dp2506
g1298
(dp2507
g10
F1.6000000000000001
ssVcom.qihoo.cleandroid_cn
p2508
(dp2509
g10
F0.40000000000000002
ssVcom.tencent.android.qqdownloader
p2510
(dp2511
g10
I1
sssg247
(dp2512
Vcom.feistma.appmove
p2513
(dp2514
g10
F3.5
sssg249
(dp2515
Vcom.kingroot.kinguser
p2516
(dp2517
g10
F2.0999999999999996
ssg1958
(dp2518
g10
F0.40000000000000002
ssg185
(dp2519
g10
I1
ssg1061
(dp2520
g10
F1.7
ssVcom.tencent.mobileqq
p2521
(dp2522
g10
F7.6000000000000005
ssVcom.android.gallery3d
p2523
(dp2524
g10
F2.1000000000000001
ssVcom.qihoo.cleandroid_cn
p2525
(dp2526
g10
I1
ssVcom.android.contacts
p2527
(dp2528
g10
F5.8000000000000007
ssVcom.Astro.UI
p2529
(dp2530
g10
I1
ssVcom.baidu.tieba
p2531
(dp2532
g10
I2
ssg1624
(dp2533
g10
F2
ssVcom.android.phone
p2534
(dp2535
g10
I1
ssg161
(dp2536
g10
F1.6000000000000001
ssVcom.nd.android.pandareader
p2537
(dp2538
g10
F1.7000000000000002
ssVcom.tencent.mm
p2539
(dp2540
g10
F21.199999999999996
ssVcom.android.mms
p2541
(dp2542
g10
F2.2999999999999998
ssVcom.ifeng.news2
p2543
(dp2544
g10
F0.90000000000000002
ssg1264
(dp2545
g10
F3
sssg251
(dp2546
Vcom.android.packageinstaller
p2547
(dp2548
g10
I1
sssg253
(dp2549
Vcom.android.settings
p2550
(dp2551
g10
F4.4000000000000004
ssVcom.baidu.tieba
p2552
(dp2553
g10
F1.5
ssVcom.ifeng.news2
p2554
(dp2555
g10
F0.40000000000000002
ssVcom.tencent.mobileqq
p2556
(dp2557
g10
F1.7
sssg255
(dp2558
Vcom.android.packageinstaller
p2559
(dp2560
g10
F0.69999999999999996
ssVcn.mixiaoxiao.myappscreenmask
p2561
(dp2562
g10
F0.90000000000000002
ssVcom.tencent.android.qqdownloader
p2563
(dp2564
g10
I1
sssg257
(dp2565
Vcom.huawei.hidisk
p2566
(dp2567
g10
F0.69999999999999996
ssg269
(dp2568
g10
F1.3
ssVcom.android.packageinstaller
p2569
(dp2570
g10
F1.3999999999999999
ssVcom.tencent.android.qqdownloader
p2571
(dp2572
g10
F3.4000000000000004
ssVcom.qihoo.cleandroid_cn
p2573
(dp2574
g10
F0.90000000000000002
sssg259
(dp2575
g1923
(dp2576
g10
I1
ssg169
(dp2577
g10
F0.40000000000000002
ssVcom.android.packageinstaller
p2578
(dp2579
g10
F3
ssVcom.divination.name1518
p2580
(dp2581
g10
F1.6000000000000001
sssg261
(dp2582
g151
(dp2583
g10
I2
ssg259
(dp2584
g10
F0.40000000000000002
ssg1865
(dp2585
g10
F0.40000000000000002
ssVcom.android.packageinstaller
p2586
(dp2587
g10
F0.69999999999999996
ssg1474
(dp2588
g10
F0.90000000000000002
ssg1921
(dp2589
g10
F0.69999999999999996
ssVoms.mmc.independent_gm.ebook.book121
p2590
(dp2591
g10
F4.6000000000000005
ssg1861
(dp2592
g10
F1.1000000000000001
ssg295
(dp2593
g10
F1.3
sssg263
(dp2594
g17
(dp2595
g10
F0.40000000000000002
ssVcom.android.packageinstaller
p2596
(dp2597
g10
I1
ssVcom.qihoo.cleandroid_cn
p2598
(dp2599
g10
F0.90000000000000002
ssVcom.tencent.android.qqdownloader
p2600
(dp2601
g10
F0.69999999999999996
sssg265
(dp2602
Vcn.wps.moffice_tpt
p2603
(dp2604
g10
F2.7000000000000002
ssVcom.qihoo.cleandroid_cn
p2605
(dp2606
g10
F3.2999999999999998
ssVcom.huawei.android.totemweather
p2607
(dp2608
g10
I1
ssVcom.android.deskclock
p2609
(dp2610
g10
F2.1000000000000001
ssg877
(dp2611
g10
F2.5999999999999996
ssVcom.feistma.appmove
p2612
(dp2613
g10
F6.3000000000000007
ssVcom.ifeng.news2
p2614
(dp2615
g10
F5.4000000000000012
ssVme.onemobile.android
p2616
(dp2617
g10
F2.0999999999999996
ssg311
(dp2618
g10
F0.40000000000000002
ssg2221
(dp2619
g10
F4.5
ssVcom.android.gallery3d
p2620
(dp2621
g10
F1.6000000000000001
ssg1173
(dp2622
g10
F0.90000000000000002
ssVcom.eg.android.AlipayGphone
p2623
(dp2624
g10
F2.7000000000000002
ssg2418
(dp2625
g10
F2.7999999999999998
ssg1832
(dp2626
g10
F0.90000000000000002
ssVcom.xduole.Client
p2627
(dp2628
g10
F1.7
ssVmark.via
p2629
(dp2630
g10
F4.8999999999999995
ssg283
(dp2631
g10
F0.40000000000000002
ssVcom.qihoo.browser
p2632
(dp2633
g10
F7.2000000000000002
ssVcom.nd.android.pandareader
p2634
(dp2635
g10
F0.90000000000000002
ssg853
(dp2636
g10
F2
ssVcom.sinovatech.unicom.ui
p2637
(dp2638
g10
I1
ssVcom.tencent.mobileqq
p2639
(dp2640
g10
F3.1999999999999997
ssVcom.android.mms
p2641
(dp2642
g10
F1.3999999999999999
ssVcom.baidu.BaiduMap
p2643
(dp2644
g10
F3.7999999999999998
ssVcom.baidu.tieba
p2645
(dp2646
g10
F13.9
ssVcom.android.settings
p2647
(dp2648
g10
F1.1000000000000001
ssg1000
(dp2649
g10
F0.90000000000000002
sssg267
(dp2650
Vmark.via
p2651
(dp2652
g10
F5.1000000000000005
ssg1484
(dp2653
g10
I1
ssg1201
(dp2654
g10
F0.90000000000000002
ssg422
(dp2655
g10
I1
ssVcom.qihoo.cleandroid_cn
p2656
(dp2657
g10
F0.69999999999999996
ssg1169
(dp2658
g10
F0.90000000000000002
ssVcom.baidu.tieba
p2659
(dp2660
g10
I2
ssVcom.tencent.android.qqdownloader
p2661
(dp2662
g10
F1.3999999999999999
ssVcom.android.phone
p2663
(dp2664
g10
I1
ssg1120
(dp2665
g10
F1.3
ssg85
(dp2666
g10
F1.6000000000000001
ssVcom.tencent.mobileqq
p2667
(dp2668
g10
F1.7
ssg1655
(dp2669
g10
F5.6000000000000005
sssg269
(dp2670
Vcom.tencent.android.qqdownloader
p2671
(dp2672
g10
I1
sssg271
(dp2673
g577
(dp2674
g10
F1.7
ssVcom.kingroot.kinguser
p2675
(dp2676
g10
F2.2999999999999998
ssg1317
(dp2677
g10
F2.7000000000000002
ssg1275
(dp2678
g10
F1.8999999999999999
ssg761
(dp2679
g10
F2.7000000000000002
ssVcom.youdao.dict
p2680
(dp2681
g10
F3.7000000000000002
ssg1769
(dp2682
g10
F1.7
ssVcom.tencent.token
p2683
(dp2684
g10
I2
ssVcom.tencent.tokenlgnl
p2685
(dp2686
g10
F3.6000000000000001
ssg73
(dp2687
g10
F1.7
ssVcom.baidu.tieba
p2688
(dp2689
g10
I2
ssg1277
(dp2690
g10
I1
ssg1076
(dp2691
g10
F1.8
ssg149
(dp2692
g10
F0.90000000000000002
ssVcom.tencent.mobileqq
p2693
(dp2694
g10
F2.7000000000000002
ssVcom.android.contacts
p2695
(dp2696
g10
F5.7000000000000002
ssg2093
(dp2697
g10
F3.3999999999999999
ssVcom.tencent.tokenqqfa
p2698
(dp2699
g10
F2.7000000000000002
sssg273
(dp2700
Vcom.android.packageinstaller
p2701
(dp2702
g10
F3.5
ssg153
(dp2703
g10
F1.5
sssg275
(dp2704
Vcom.qihoo.browser
p2705
(dp2706
g10
F1.8999999999999999
ssg887
(dp2707
g10
F3.2999999999999998
ssg43
(dp2708
g10
F3.7999999999999998
sssg277
(dp2709
Vcom.kingroot.kinguser
p2710
(dp2711
g10
F0.69999999999999996
ssg1375
(dp2712
g10
F1.3
ssVcom.tencent.mobileqq
p2713
(dp2714
g10
I1
ssVcom.baidu.netdisk
p2715
(dp2716
g10
I1
ssVcom.ifeng.news2
p2717
(dp2718
g10
I1
sssg279
(dp2719
g860
(dp2720
g10
I1
ssg864
(dp2721
g10
F1.6000000000000001
sssg281
(dp2722
g1147
(dp2723
g10
F5.2999999999999998
ssg778
(dp2724
g10
F1.8999999999999999
ssg825
(dp2725
g10
F2.7000000000000002
ssg1079
(dp2726
g10
F0.90000000000000002
ssg402
(dp2727
g10
F2.2999999999999998
ssg1053
(dp2728
g10
F21.799999999999994
ssVcom.cl.newt66y
p2729
(dp2730
g10
F1.7
ssVcom.tencent.android.qqdownloader
p2731
(dp2732
g10
F5.4000000000000004
ssg1693
(dp2733
g10
F0.40000000000000002
ssVcom.android.contacts
p2734
(dp2735
g10
F20.699999999999999
ssVcom.ifeng.news2
p2736
(dp2737
g10
F47.499999999999986
ssVcom.tencent.qt.sns
p2738
(dp2739
g10
F4.2000000000000002
ssg45
(dp2740
g10
F0.90000000000000002
ssg365
(dp2741
g10
F0.40000000000000002
ssg892
(dp2742
g10
F2.7999999999999998
ssg1815
(dp2743
g10
F1.3
ssg1669
(dp2744
g10
F3.5999999999999996
ssVyiqi.bazi
p2745
(dp2746
g10
F0.69999999999999996
ssg808
(dp2747
g10
F9
ssg1429
(dp2748
g10
F13.000000000000004
ssVcom.baidu.home2
p2749
(dp2750
g10
F2.7000000000000002
ssg55
(dp2751
g10
F0.90000000000000002
ssg161
(dp2752
g10
F0.40000000000000002
ssg815
(dp2753
g10
F21.999999999999996
ssVcom.android.flashlight
p2754
(dp2755
g10
I1
ssVmark.via
p2756
(dp2757
g10
F2
ssg65
(dp2758
g10
F2.3999999999999999
ssVcom.android.phone
p2759
(dp2760
g10
F3.5999999999999996
ssVcom.baidu.backuprestore
p2761
(dp2762
g10
F2.7000000000000002
ssVcom.qihoo.cleandroid_cn
p2763
(dp2764
g10
F5.6000000000000005
ssg1097
(dp2765
g10
F0.69999999999999996
ssVcom.qihoo.browser
p2766
(dp2767
g10
F10.700000000000001
ssg217
(dp2768
g10
F0.69999999999999996
ssVcom.nd.android.pandareader
p2769
(dp2770
g10
F10
ssg221
(dp2771
g10
F1.6000000000000001
ssg1264
(dp2772
g10
F0.69999999999999996
ssg838
(dp2773
g10
F0.40000000000000002
ssg1381
(dp2774
g10
F2.7000000000000002
ssg1903
(dp2775
g10
F1.1000000000000001
ssVcom.android.mms
p2776
(dp2777
g10
F28.199999999999992
ssg1677
(dp2778
g10
F3.2999999999999998
ssg995
(dp2779
g10
F25.399999999999999
ssVcom.android.settings
p2780
(dp2781
g10
F5.5
ssVcom.android.quicksearchbox
p2782
(dp2783
g10
F1.1000000000000001
ssg850
(dp2784
g10
F1.7
sssg283
(dp2785
Vcom.android.packageinstaller
p2786
(dp2787
g10
F1.3
ssVcom.tencent.android.qqdownloader
p2788
(dp2789
g10
F1.7
sssg285
(dp2790
Vcom.baidu.home2
p2791
(dp2792
g10
I1
ssVcom.kingroot.kinguser
p2793
(dp2794
g10
I2
sssg287
(dp2795
Vcom.android.gallery3d
p2796
(dp2797
g10
I1
ssVcom.tencent.mobileqq
p2798
(dp2799
g10
I1
ssVcom.android.mms
p2800
(dp2801
g10
F2.7999999999999998
ssVcom.android.deskclock
p2802
(dp2803
g10
I1
ssg1053
(dp2804
g10
F0.40000000000000002
ssVcom.android.phone
p2805
(dp2806
g10
I1
ssg1081
(dp2807
g10
F0.69999999999999996
ssVcom.android.contacts
p2808
(dp2809
g10
F4
ssVcom.ifeng.news2
p2810
(dp2811
g10
F0.90000000000000002
sssg289
(dp2812
Vcom.android.packageinstaller
p2813
(dp2814
g10
F1.6000000000000001
ssVcom.qihoo.cleandroid_cn
p2815
(dp2816
g10
F1.1000000000000001
ssVcom.tencent.android.qqdownloader
p2817
(dp2818
g10
F2.2999999999999998
sssg291
(dp2819
sg293
(dp2820
g416
(dp2821
g10
F1.1000000000000001
ssg382
(dp2822
g10
F2.8999999999999999
ssVcom.picalab.comics
p2823
(dp2824
g10
I1
ssVcom.qihoo.cleandroid_cn
p2825
(dp2826
g10
F1.3
ssVcom.android.deskclock
p2827
(dp2828
g10
I2
ssg1643
(dp2829
g10
F0.90000000000000002
ssVcom.baidu.home2
p2830
(dp2831
g10
I2
ssg1651
(dp2832
g10
F1.7
ssVcom.ifeng.news2
p2833
(dp2834
g10
F0.90000000000000002
sssg295
(dp2835
g155
(dp2836
g10
F0.40000000000000002
ssg1918
(dp2837
g10
F1.7
ssg175
(dp2838
g10
F0.69999999999999996
ssg1921
(dp2839
g10
I1
ssg141
(dp2840
g10
F1.3
sssg297
(dp2841
sg299
(dp2842
Vcom.android.calculator
p2843
(dp2844
g10
I1
ssg2081
(dp2845
g10
F1.3
ssg1958
(dp2846
g10
F1.7
ssg1956
(dp2847
g10
F0.69999999999999996
ssg161
(dp2848
g10
I1
ssg1431
(dp2849
g10
F0.69999999999999996
ssVcom.android.quicksearchbox
p2850
(dp2851
g10
F1.8999999999999999
ssg1952
(dp2852
g10
F1.7000000000000002
ssVcom.android.contacts
p2853
(dp2854
g10
I1
sssg301
(dp2855
g2141
(dp2856
g10
I1
ssVcom.android.packageinstaller
p2857
(dp2858
g10
F0.40000000000000002
ssg2181
(dp2859
g10
I1
ssg1602
(dp2860
g10
F0.69999999999999996
ssVcom.qihoo.browser
p2861
(dp2862
g10
F4.4000000000000004
ssg1604
(dp2863
g10
F0.90000000000000002
sssg303
(dp2864
g1968
(dp2865
g10
F0.40000000000000002
ssg1976
(dp2866
g10
I1
ssVcom.android.mms
p2867
(dp2868
g10
I1
ssVcn.mixiaoxiao.myappscreenmask
p2869
(dp2870
g10
F2.3999999999999999
ssVcom.baidu.BaiduMap
p2871
(dp2872
g10
F1.3
ssg2782
(dp2873
g10
F2
ssVcom.qihoo.browser
p2874
(dp2875
g10
F1.7
ssVcom.ct.client
p2876
(dp2877
g10
I1
ssVcom.baidu.tieba
p2878
(dp2879
g10
F0.40000000000000002
ssVcom.tencent.android.qqdownloader
p2880
(dp2881
g10
F1.8999999999999999
ssVcom.android.phone
p2882
(dp2883
g10
F0.90000000000000002
ssVcom.qihoo.cleandroid_cn
p2884
(dp2885
g10
F1.6000000000000001
ssVcom.tencent.mm
p2886
(dp2887
g10
F2.7000000000000002
ssVcom.android.contacts
p2888
(dp2889
g10
I1
ssg1978
(dp2890
g10
F0.69999999999999996
sssg305
(dp2891
Vcom.android.packageinstaller
p2892
(dp2893
g10
F2.7000000000000002
ssVcom.qihoo.cleandroid_cn
p2894
(dp2895
g10
F0.40000000000000002
ssVcom.tencent.android.qqdownloader
p2896
(dp2897
g10
F1.8999999999999999
sssg307
(dp2898
g241
(dp2899
g10
F0.40000000000000002
ssVmark.via
p2900
(dp2901
g10
F10.699999999999999
ssg19
(dp2902
g10
F0.40000000000000002
ssg1520
(dp2903
g10
F14.500000000000004
ssg1326
(dp2904
g10
F3.8999999999999999
ssg1153
(dp2905
g10
F0.40000000000000002
ssg1330
(dp2906
g10
F6.4000000000000004
ssg1408
(dp2907
g10
F3.3999999999999999
ssVcom.android.contacts
p2908
(dp2909
g10
F52.200000000000003
ssVcom.ifeng.news2
p2910
(dp2911
g10
F11.800000000000001
ssg658
(dp2912
g10
F0.69999999999999996
ssg1517
(dp2913
g10
F5.2000000000000002
ssg1669
(dp2914
g10
F2.6000000000000001
ssVcom.tencent.token
p2915
(dp2916
g10
I2
ssVyiqi.bazi
p2917
(dp2918
g10
F0.69999999999999996
ssVcom.huawei.hidisk
p2919
(dp2920
g10
F4.7999999999999998
ssg1429
(dp2921
g10
F5.5000000000000009
ssVcom.android.phone
p2922
(dp2923
g10
F26.699999999999985
ssVcom.android.htmlviewer
p2924
(dp2925
g10
F1.3
ssg1179
(dp2926
g10
F19.699999999999996
ssg441
(dp2927
g10
F0.90000000000000002
ssg443
(dp2928
g10
F0.69999999999999996
ssVcom.kingroot.kinguser
p2929
(dp2930
g10
F7.0000000000000009
ssVcom.android.calculator
p2931
(dp2932
g10
F0.90000000000000002
ssg594
(dp2933
g10
F0.90000000000000002
ssg1681
(dp2934
g10
F3.2999999999999998
ssVcom.nd.android.pandareader
p2935
(dp2936
g10
F1.3
ssg1942
(dp2937
g10
F6
ssVcom.android.flashlight
p2938
(dp2939
g10
F1.7
ssg97
(dp2940
g10
F1.7
ssVcom.sinovatech.unicom.ui
p2941
(dp2942
g10
F1.7
ssg2351
(dp2943
g10
F0.69999999999999996
ssg2033
(dp2944
g10
F1.7000000000000002
ssVcom.baidu.BaiduMap
p2945
(dp2946
g10
F5.7000000000000002
ssVcom.baidu.tieba
p2947
(dp2948
g10
F14.4
ssVcom.android.settings
p2949
(dp2950
g10
F8.6999999999999993
ssg2361
(dp2951
g10
F1.3
sssg309
(dp2952
Vcom.huawei.android.totemweather
p2953
(dp2954
g10
F0.69999999999999996
ssVcom.android.contacts
p2955
(dp2956
g10
F1.8999999999999999
ssg2390
(dp2957
g10
F0.40000000000000002
sssg311
(dp2958
Vcom.android.settings
p2959
(dp2960
g10
F0.90000000000000002
ssVcom.android.packageinstaller
p2961
(dp2962
g10
I1
ssg77
(dp2963
g10
F0.40000000000000002
ssg15
(dp2964
g10
F0.69999999999999996
sssg313
(dp2965
Vcom.android.packageinstaller
p2966
(dp2967
g10
F1.7
ssVcom.qihoo.cleandroid_cn
p2968
(dp2969
g10
F0.90000000000000002
sssg315
(dp2970
Vcom.android.settings
p2971
(dp2972
g10
F0.90000000000000002
ssVcom.baidu.backuprestore
p2973
(dp2974
g10
F2.1000000000000001
sssg317
(dp2975
g1987
(dp2976
g10
F0.40000000000000002
ssg1458
(dp2977
g10
F0.40000000000000002
ssg1415
(dp2978
g10
F0.69999999999999996
ssg1388
(dp2979
g10
F5.5999999999999996
ssVcom.huawei.hidisk
p2980
(dp2981
g10
F5
ssg1460
(dp2982
g10
F0.69999999999999996
sssg319
(dp2983
Vcom.xduole.Client
p2984
(dp2985
g10
I1
ssg299
(dp2986
g10
F2.2999999999999998
ssg601
(dp2987
g10
I2
ssg2221
(dp2988
g10
F0.90000000000000002
ssg1612
(dp2989
g10
I1
ssg27
(dp2990
g10
I1
ssg171
(dp2991
g10
F1.1000000000000001
ssVcom.qihoo.browser
p2992
(dp2993
g10
F1.5
ssg2878
(dp2994
g10
F1.8999999999999999
ssg596
(dp2995
g10
F0.90000000000000002
ssg2327
(dp2996
g10
F0.90000000000000002
ssVcom.tencent.mm
p2997
(dp2998
g10
F1.7
ssg573
(dp2999
g10
F6.1000000000000005
ssVcom.ifeng.news2
p3000
(dp3001
g10
F1.6000000000000001
ssVcom.tencent.mobileqq
p3002
(dp3003
g10
I1
sssg321
(dp3004
g639
(dp3005
g10
F2.7000000000000002
ssg27
(dp3006
g10
F0.90000000000000002
ssg1643
(dp3007
g10
F0.69999999999999996
ssg1645
(dp3008
g10
F1.7
ssg319
(dp3009
g10
I1
ssVcom.tencent.mobileqq
p3010
(dp3011
g10
F6.1000000000000014
ssg573
(dp3012
g10
F0.69999999999999996
sssg323
(dp3013
Vmark.via
p3014
(dp3015
g10
F0.40000000000000002
ssVcom.android.packageinstaller
p3016
(dp3017
g10
I1
ssVcom.baidu.tieba
p3018
(dp3019
g10
F0.69999999999999996
ssVcom.qihoo.cleandroid_cn
p3020
(dp3021
g10
F0.90000000000000002
ssssS'edge'
p3022
g329
sS'graph'
p3023
(dp3024
sS'adjlist_dict_factory'
p3025
g326
sS'adj'
p3026
g329
sS'pred'
p3027
(dp3028
g8
(dp3029
Vcom.android.settings
p3030
g1407
sVcom.qihoo.cleandroid_cn
p3031
g390
ssg11
(dp3032
g344
g488
sVcom.tencent.qt.sns
p3033
g856
sVcom.baidu.tieba
p3034
g1336
ssg13
(dp3035
g2949
g1396
sVcom.android.packageinstaller
p3036
g902
sVcom.tencent.android.qqdownloader
p3037
g610
sVcom.tencent.mm
p3038
g2724
sg1408
g727
sVcom.ifeng.news2
p3039
g779
ssg15
(dp3040
g311
g2964
sVme.onemobile.android
p3041
g1595
sg2961
g903
sg77
g1288
sg2959
g1420
ssg17
(dp3042
g263
g2595
sg2596
g904
sg2598
g392
sg2600
g612
ssg19
(dp3043
g97
g1519
sg1517
g959
sVcom.android.mms
p3044
g2902
sg1520
g395
sg384
g2824
ssg21
(dp3045
g1335
g341
sg63
g1150
sg17
g378
sg179
g2030
sVcom.baidu.netdisk
p3046
g2502
sg105
g1550
sVcom.android.deskclock
p3047
g517
sg404
g550
sg249
g2526
sg1046
g1945
sg29
g615
sg107
g1566
sVme.onemobile.android
p3048
g1613
sg411
g729
sVcom.android.contacts
p3049
g2035
sVcom.ifeng.news2
p3050
g781
sg1043
g1497
sg115
g1590
sVcom.tencent.qt.sns
p3051
g865
sg1103
g1895
sg263
g2599
sg47
g908
sg1340
g1634
sg1422
g1018
sg426
g566
sg428
g2657
sVcom.huawei.hidisk
p3052
g2134
sVcom.eg.android.AlipayGphone
p3053
g1676
sVcom.android.phone
p3054
g1699
sg197
g2182
sg79
g1292
sg279
g2721
sg1651
g1096
sg957
g2230
sg61
g1144
sVcom.qihoo.browser
p3055
g1798
sVcom.kingroot.kinguser
p3056
g2299
sg753
g2764
sVcom.sub.bazisuanminkan
p3057
g1217
sg289
g2816
sg450
g2574
sg2337
g1231
sg848
g1973
sVexample.yijing
p3058
g2259
sg972
g2264
sg677
g2826
sg245
g2509
sg129
g1765
sg97
g1521
sg85
g1307
sg1900
g2859
sg303
g2885
sg91
g1400
sVcom.hotbody.fitzero
p3059
g2895
sg3044
g2903
sg690
g2402
sVcom.yiche.price
p3060
g2291
sg313
g2969
sVcom.baidu.tieba
p3061
g1392
sg1685
g1963
sVcom.huawei.android.totemweather
p3062
g2381
sg1607
g2989
sg323
g3021
sg703
g2606
sVcom.autohome.mycar
p3063
g1479
ssg23
(dp3064
Vcom.youku.phone
p3065
g345
sVcom.t66y.client.ui
p3066
g1534
sg2729
g1569
sVcom.feistma.appmove
p3067
g731
sg498
g784
sg1360
g2101
sg3033
g871
sg2026
g911
sg2378
g1619
sg504
g2610
sg496
g2039
sg2090
g1515
sVcom.huawei.hidisk
p3068
g2135
sVcom.android.phone
p3069
g1703
sVcom.android.htmlviewer
p3070
g2184
sg439
g2727
sVcom.android.flashlight
p3071
g2803
sVcom.kingroot.kinguser
p3072
g2303
sVcom.baidu.netdisk
p3073
g2494
sg71
g1232
sVcom.qihoo.browser
p3074
g1802
sVcom.baidu.browser.apps
p3075
g2828
sVcom.nd.android.pandareader
p3076
g1875
sVmark.via
p3077
g1152
sg2607
g2384
sVcom.android.mms
p3078
g2904
sg2947
g1327
sg2029
g403
ssg25
(dp3079
Vmark.via
p3080
g1154
sg203
g2232
sg547
g1627
sg1008
g2304
sg2300
g1024
sVcom.android.packageinstaller
p3081
g912
sg467
g2905
sVcom.qihoo.cleandroid_cn
p3082
g405
sg489
g1535
sg23
g491
sVcom.tencent.android.qqdownloader
p3083
g620
sVcom.android.settings
p3084
g1403
sg199
g2201
ssg27
(dp3085
g447
g1172
sg271
g2684
sVcom.tencent.qt.sns
p3086
g867
sVcom.android.settings
p3087
g1425
sVcom.android.packageinstaller
p3088
g939
sVcom.android.mms
p3089
g2916
sVcom.baidu.backuprestore
p3090
g1019
sVcom.qihoo.cleandroid_cn
p3091
g427
sVcom.Astro.UI
p3092
g1245
sVcom.clov4r.android.nil
p3093
g552
sg872
g1819
sVcom.baidu.tieba
p3094
g1343
sVcom.android.deskclock
p3095
g507
sVcom.android.phone
p3096
g1718
sg319
g2990
sg321
g3006
sg411
g746
sVcom.android.contacts
p3097
g2050
sVcom.ifeng.news2
p3098
g805
sVcom.tencent.mobileqq
p3099
g1071
ssg29
(dp3100
g95
g1507
sg599
g1157
sg17
g380
sVcom.qihoo.cleandroid_cn
p3101
g408
sg245
g2511
sg1903
g2377
sg3093
g560
sg1641
g2533
sg33
g714
sg37
g734
sg1709
g788
sg241
g2479
sg255
g2564
sVcom.tencent.qt.sns
p3102
g878
sg219
g2293
sg45
g896
sVcom.Astro.UI
p3103
g1236
sg263
g2601
sg2313
g916
sg2523
g1625
sg424
g2611
sg1171
g572
sg643
g2662
sVcom.huawei.hidisk
p3104
g2136
sg269
g2672
sg257
g2572
sg626
g1688
sg1273
g2690
sVcom.android.phone
p3105
g1706
sg85
g1309
sVcom.tencent.mm
p3106
g2732
sg3057
g1219
sg1556
g1774
sVcom.nrop19
p3107
g2235
sg81
g1296
sg283
g2789
sg289
g2818
sg137
g1794
sg135
g1789
sg209
g2252
sg73
g1278
sVcom.qihoo.browser
p3108
g1807
sg972
g2266
sg215
g2278
sg75
g1282
sVcom.nd.android.pandareader
p3109
g1877
sg147
g1914
sVcom.kingroot.kinguser
p3110
g2305
sg83
g1301
sVcom.android.mms
p3111
g2906
sg303
g2881
sVcom.tencent.mobileqq
p3112
g1056
sg305
g2897
sg87
g1315
sVcom.baidu.BaiduMap
p3113
g2404
sg231
g2446
sVcom.baidu.tieba
p3114
g1331
sg163
g1965
sVcom.android.deskclock
p3115
g495
sg846
g1405
sg165
g1975
sg93
g1481
ssg31
(dp3116
Vcom.android.settings
p3117
g1406
sg707
g918
sg1460
g1994
sg1987
g1606
sVcom.huawei.hidisk
p3118
g2137
ssg33
(dp3119
Vmark.via
p3120
g1158
sVcom.qihoo.cleandroid_cn
p3121
g409
sVcom.tencent.android.qqdownloader
p3122
g623
ssg35
(dp3123
Vcom.feistma.appmove
p3124
g736
ssg37
(dp3125
Vcom.jiongji.andriod.card
p3126
g2012
sg183
g2094
sVcom.qihoo.cleandroid_cn
p3127
g412
sg581
g1029
sg2095
g2697
sg247
g2514
sVcom.tencent.android.qqdownloader
p3128
g625
sg898
g1563
sg2405
g1694
sg1413
g1615
sVcom.android.packageinstaller
p3129
g924
sVcn.mixiaoxiao.myappscreenmask
p3130
g2613
sg938
g583
sVcom.huawei.hidisk
p3131
g2139
sVcom.ifeng.news2
p3132
g792
sg53
g1035
sg161
g1957
sVcom.tencent.mm
p3133
g2733
sVcom.nrop19
p3134
g2231
sVmark.via
p3135
g1160
sVcom.qihoo.browser
p3136
g1808
sVcom.tencent.mobileqq
p3137
g1058
sg766
g2309
sg1954
g2847
sg1970
g2890
sg2949
g1409
sg684
g2907
sVcom.baidu.tieba
p3138
g1332
sg2876
g1979
ssg39
(dp3139
g3065
g355
sg13
g364
sg940
g2555
sg2029
g414
sVcom.shoujiduoduo.ringtone
p3140
g1541
sg1326
g499
sg785
g2544
sVcom.tencent.token
p3141
g576
sg3037
g650
sg1408
g739
sVcom.android.contacts
p3142
g2041
sVcom.eg.android.AlipayGphone
p3143
g1696
sVcom.lanteanstudio.compass
p3144
g2477
sg797
g884
sg776
g2282
sVcom.android.packageinstaller
p3145
g925
sVcom.sankuai.meituan
p3146
g2114
sg422
g1656
sg424
g2615
sg121
g1661
sg428
g2669
sVcn.wps.moffice_tpt
p3147
g1509
sg195
g2140
sg53
g1037
sg3105
g1710
sVcom.tencent.mtt
p3148
g2718
sVcom.tencent.mobileqq
p3149
g1060
sg817
g2215
sg1088
g2811
sVcom.kingroot.kinguser
p3150
g2311
sg1366
g1210
sVcom.tencent.mm
p3151
g2737
sg825
g2505
sVcom.Astro.UI
p3152
g1251
sVcom.qihoo.browser
p3153
g1810
sVcom.baidu.browser.apps
p3154
g2834
sVcom.nd.android.pandareader
p3155
g1879
sg63
g1164
sg841
g2398
sVcom.android.mms
p3156
g2911
sVcom.baidu.BaiduMap
p3157
g2416
sg89
g1334
sg846
g1412
sg2782
g3001
ssg41
(dp3158
g2268
g2312
sg677
g2821
sVmark.via
p3159
g1166
sVcom.Astro.UI
p3160
g1241
sVcom.tencent.mm
p3161
g2739
sg2248
g928
sVcom.tencent.android.qqdownloader
p3162
g631
sg2825
g417
sg1504
g2653
sg1147
g1485
sVcom.qihoo.browser
p3163
g1812
sg2079
g1337
sVcom.eg.android.AlipayGphone
p3164
g1668
sVcom.tencent.qqlive
p3165
g2271
sVcom.baidu.BaiduMap
p3166
g2421
sg881
g1064
sVcom.android.contacts
p3167
g2042
sVcom.ifeng.news2
p3168
g798
sVcom.youku.phone
p3169
g333
ssg43
(dp3170
g275
g2708
sg2705
g1796
sg887
g931
ssg45
(dp3171
g1903
g2373
sg3109
g1882
sg2375
g2740
sg1876
g634
ssg47
(dp3172
Vcom.youku.phone
p3173
g339
sg43
g888
sg1287
g372
sg17
g376
sg19
g383
sg1520
g421
sVcom.android.deskclock
p3174
g503
sVcom.clov4r.android.nil
p3175
g546
sg426
g580
sg29
g638
sg31
g708
sg107
g1561
sg411
g743
sg3050
g800
sg3051
g861
sg3060
g2289
sg45
g893
sg3090
g1016
sVcom.tencent.mobileqq
p3176
g1066
sg478
g1136
sg97
g1518
sg283
g2787
sg69
g1225
sg3103
g1243
sg447
g1168
sg83
g1299
sg85
g1305
sg87
g1312
sg3061
g1339
sg95
g1493
sg99
g1526
sVcom.t66y.client.ui
p3177
g1533
sVcom.hfa.BestName
p3178
g2579
sg117
g1599
sVcom.android.gallery3d
p3179
g1630
sg121
g1659
sg626
g1672
sVcom.android.phone
p3180
g1712
sg127
g1757
sg129
g1764
sg135
g1787
sg159
g1950
sg1189
g1814
sg1192
g1884
sg147
g1911
sg151
g1919
sg153
g1928
sg2122
g1936
sg1046
g1940
sg1685
g1962
sg167
g1981
sg1460
g1989
sg171
g1999
sg1125
g2016
sg2580
g2021
sg179
g2027
sg3049
g2044
sg191
g2124
sg193
g2128
sg430
g2145
sVcom.ylmf.androidclient
p3181
g2193
sg2627
g2222
sVcom.nrop19
p3182
g2228
sg207
g2243
sg209
g2249
sg1842
g2257
sg972
g2262
sg348
g2272
sg217
g2285
sg245
g2507
sg3110
g2314
sg91
g1419
sg227
g2410
sg229
g2436
sg231
g2443
sg233
g2451
sg235
g2457
sg237
g2461
sg825
g2490
sVcn.taxen.ziwei
p3183
g1140
sg251
g2548
sg255
g2560
sg450
g2570
sg1415
g2587
sg263
g2597
sg936
g2619
sg273
g2702
sg1828
g2707
sg79
g1291
sg279
g2720
sg2375
g2742
sg289
g2814
sg137
g1792
sg384
g2822
sg295
g2837
sg469
g2858
sg305
g2893
sVcom.android.mms
p3184
g2913
sg311
g2962
sg313
g2967
sg1000
g2988
sg323
g3017
ssg49
(dp3185
Vcom.android.packageinstaller
p3186
g935
sg235
g2458
sVcom.shawnyu.suanming
p3187
g1929
ssg51
(dp3188
g315
g2974
sg1008
g2301
sg223
g2367
sg768
g1423
sg579
g910
sg1027
g2762
sg3091
g401
sg938
g582
sg105
g1549
sg1021
g2682
sVcom.qihoo.browser
p3189
g1800
sg1083
g2200
sg733
g641
sVcom.nd.android.pandareader
p3190
g1885
sVcom.tencent.mobileqq
p3191
g1069
sg37
g744
sVcom.tencent.tokenqqfa
p3192
g1770
ssg53
(dp3193
Vcom.kingroot.kinguser
p3194
g2323
sVcom.qihoo.browser
p3195
g1825
ssg55
(dp3196
Vcom.kingroot.kinguser
p3197
g2324
sVcom.ifeng.news2
p3198
g789
sg3106
g2751
sg1698
g435
sg2731
g651
ssg57
(dp3199
g1645
g2832
sg940
g2557
sg2033
g1943
sg1143
g464
sg61
g1142
sVcom.android.deskclock
p3200
g511
sVvStudio.Android.Camera360
p3201
g2522
sVcom.tencent.android.qqdownloader
p3202
g655
sg1057
g765
sVcom.ifeng.news2
p3203
g816
sVcom.youku.phone
p3204
g337
sVcom.tencent.qt.sns
p3205
g882
sVcom.android.packageinstaller
p3206
g980
sVcom.android.gallery3d
p3207
g1652
sVcn.mixiaoxiao.myappscreenmask
p3208
g2640
sVcom.tencent.token
p3209
g589
sg267
g2668
sg1043
g1512
sg944
g2154
sVcom.baidu.home2
p3210
g2694
sVcom.android.soundrecorder
p3211
g2118
sg835
g2714
sg952
g1545
sg3151
g2753
sVcom.ylmf.androidclient
p3212
g2217
sg1088
g2799
sVcom.android.contacts
p3213
g2059
sg221
g2326
sVcom.android.phone
p3214
g1736
sg2116
g1262
sVcom.android.quicksearchbox
p3215
g3003
sVcom.qihoo.browser
p3216
g1831
sg2342
g2279
sVcom.nd.android.pandareader
p3217
g1897
sVmark.via
p3218
g1195
sVcom.sinovatech.unicom.ui
p3219
g2866
sg841
g2394
sVcom.android.mms
p3220
g2937
sVcom.baidu.BaiduMap
p3221
g2425
sg2105
g1384
sVcom.android.settings
p3222
g1455
sg848
g1977
sg1120
g3011
ssg59
(dp3223
g1987
g1609
sg1125
g2018
sVcom.android.packageinstaller
p3224
g955
sg2258
g479
sg452
g2242
sg31
g710
ssg61
(dp3225
g1041
g1636
sg463
g1050
sg1143
g446
sVcom.tencent.android.qqdownloader
p3226
g664
ssg63
(dp3227
g855
g335
sVcom.qihoo.cleandroid_cn
p3228
g448
sVcom.android.deskclock
p3229
g515
sg571
g666
sg791
g756
sVcom.ifeng.news2
p3230
g821
sg115
g1587
sg2738
g858
sVcom.android.packageinstaller
p3231
g962
sg1169
g2630
sg1171
g600
sVyiqi.bazi
p3232
g2652
sg3104
g2155
sVcom.android.phone
p3233
g1738
sVcom.tencent.mm
p3234
g2757
sg1161
g2063
sg3057
g1221
sg396
g2486
sVcom.Astro.UI
p3235
g1257
sg139
g1847
sVcom.nd.android.pandareader
p3236
g1894
sg592
g2349
sg482
g2371
sVcom.android.mms
p3237
g2901
sVcom.baidu.tieba
p3238
g1365
sg1201
g1398
sg323
g3015
ssg65
(dp3239
g942
g2844
sg1689
g1444
sVcom.android.packageinstaller
p3240
g976
sVcom.android.mms
p3241
g2932
sVcom.android.contacts
p3242
g2064
sVcom.qihoo.browser
p3243
g1837
sVcom.baidu.tieba
p3244
g1367
sVcom.android.phone
p3245
g1730
sVcom.tencent.mm
p3246
g2758
sg1693
g758
sg1209
g823
sVcom.tencent.mobileqq
p3247
g1093
ssg67
(dp3248
Vmark.via
p3249
g1183
ssg69
(dp3250
Vcom.huawei.hidisk
p3251
g2132
sg1224
g907
sg207
g2245
sVcom.android.settings
p3252
g1399
ssg71
(dp3253
Vorg.idaxiang.android
p3254
g1585
sg3056
g2338
sVvStudio.Android.Camera360
p3255
g2530
sVcom.android.mms
p3256
g2933
sg1737
g1188
sg3211
g2117
sVcom.android.packageinstaller
p3257
g932
sVcom.android.settings
p3258
g1448
sg422
g1638
sVcom.qihoo.cleandroid_cn
p3259
g420
sVcom.tencent.token
p3260
g595
sg1326
g518
sg619
g554
sVcom.qihoo.browser
p3261
g1841
sg2947
g1370
sg3083
g635
sg3233
g1732
sVcom.tencent.mm
p3262
g2765
sVcom.android.contacts
p3263
g2068
sg498
g827
sVcom.tencent.mobileqq
p3264
g1098
ssg73
(dp3265
Vcom.baidu.home2
p3266
g2687
sg1275
g1501
ssg75
(dp3267
Vcom.android.packageinstaller
p3268
g977
sVcom.qihoo.cleandroid_cn
p3269
g460
sVcom.tencent.token
p3270
g598
sg567
g1553
sVcom.android.deskclock
p3271
g523
sg131
g1775
ssg77
(dp3272
g311
g2963
sg2959
g1453
sg2961
g923
sg15
g370
ssg79
(dp3273
g2313
g951
sg3101
g438
sg29
g652
ssg81
(dp3274
g1294
g1443
sg75
g1280
sg1556
g1768
sg567
g1543
ssg83
(dp3275
Vcom.tencent.android.qqdownloader
p3276
g683
ssg85
(dp3277
Vcom.android.settings
p3278
g1433
sVcom.tencent.android.qqdownloader
p3279
g653
sg643
g2666
ssg87
(dp3280
g465
g2354
sVcom.qihoo.cleandroid_cn
p3281
g475
sVcom.tencent.android.qqdownloader
p3282
g689
ssg89
(dp3283
g3165
g2275
sg253
g2553
sg3073
g2497
sg398
g1539
sg1326
g535
sg619
g558
sVvStudio.Android.Camera360
p3284
g2532
sg3144
g2475
sg3128
g695
sg2141
g1605
sVcom.feistma.appmove
p3285
g772
sg3167
g2080
sg39
g845
sg487
g347
sg2270
g875
sg3145
g996
sVcom.sankuai.meituan
p3286
g2106
sg3207
g1644
sg802
g2646
sVcom.tencent.token
p3287
g605
sVyiqi.bazi
p3288
g2660
sVcn.wps.moffice_tpt
p3289
g1503
sg195
g2172
sg2623
g1684
sg1051
g2689
sVcom.android.phone
p3290
g1747
sVcom.amigosoftware.name7_6_web_android
p3291
g1762
sg439
g2779
sg3181
g2205
sg658
g2098
sVcom.nrop19
p3292
g2233
sg820
g1200
sVcom.huawei.android.dsdscardmanager
p3293
g1782
sVcom.qihoo.cleandroid_cn
p3294
g481
sg1637
g1269
sg2632
g1854
sg1645
g2829
sg461
g1909
sg57
g1116
sg2268
g2358
sg1264
g2852
sg469
g2863
sVcom.sinovatech.unicom.ui
p3295
g2879
sg841
g2388
sg3078
g2948
sg161
g1953
sVcom.android.settings
p3296
g1470
sg2782
g2994
sVcom.android.camera
p3297
g3007
sg323
g3019
ssg91
(dp3298
g3204
g351
sg778
g360
sVcom.baidu.netdisk
p3299
g2488
sg1463
g2648
sVcom.android.deskclock
p3300
g537
sg29
g687
sg735
g717
sg2745
g2654
sg37
g769
sg1709
g847
sVcom.youdao.dict
p3301
g2092
sg920
g1597
sVcom.wandoujia.phoenix2.usbproxy
p3302
g2957
sg311
g2960
sg317
g2979
sVcom.android.packageinstaller
p3303
g985
sg51
g1015
sg253
g2551
sg645
g2173
sg2405
g1690
sg3105
g1748
sg79
g1290
sg336
g1117
sVcom.ylmf.androidclient
p3304
g2209
sg2984
g2220
sVcom.android.contacts
p3305
g2082
sg2756
g1202
sg133
g1778
sg2590
g1866
sg3101
g474
sVcom.Astro.UI
p3306
g1271
sVcom.qihoo.browser
p3307
g1835
sg1592
g2360
sVcom.huawei.KoBackup
p3308
g1295
sg1739
g2845
sVcom.tencent.mm
p3309
g2781
sg684
g2950
sg988
g2429
sg990
g2438
sg111
g1577
sg113
g1580
sVpredictor.namer
p3310
g2585
sVcom.baidu.tieba
p3311
g1389
sg315
g2972
sg2953
g2391
sg538
g2460
sg171
g1997
ssg93
(dp3312
Vcom.kingroot.kinguser
p3313
g2364
sg163
g1966
sg1964
g705
sg1478
g485
ssg95
(dp3314
Vmark.via
p3315
g1148
sg239
g2472
sg73
g1276
sVcom.tencent.mobileqq
p3316
g1044
sg1304
g926
sg1306
g415
sg1122
g2604
sg3266
g2678
sVcom.huawei.hidisk
p3317
g2131
sVcom.baidu.tieba
p3318
g1345
sg1308
g628
sVcom.nd.android.pandareader
p3319
g1872
sVcom.tencent.mm
p3320
g2723
sg2734
g2032
sg1360
g2091
ssg97
(dp3321
g3184
g2940
sg3049
g2074
ssg99
(dp3322
sg101
(dp3323
g23
g490
sg2268
g2336
sg2357
g1322
sVcom.baidu.netdisk
p3324
g2491
sg2270
g869
ssg103
(dp3325
Vcom.baidu.tieba
p3326
g1323
sg205
g2240
sVcom.ifeng.news2
p3327
g782
sg3294
g399
ssg105
(dp3328
g768
g1401
sg1525
g953
sg51
g1020
sg1424
g568
sg99
g1527
sVcom.baidu.home2
p3329
g2686
sVcom.tencent.mobileqq
p3330
g1080
sg733
g616
sVcom.android.phone
p3331
g1701
sVcom.baidu.tieba
p3332
g1355
sVcom.tencent.mm
p3333
g2726
sg2695
g2037
sg131
g1771
ssg107
(dp3334
Vcom.clov4r.android.nil
p3335
g561
sVcom.nrop19
p3336
g2236
sg1560
g899
sg2234
g622
sg1565
g388
ssg109
(dp3337
g1568
g493
sVcom.android.settings
p3338
g1404
sVcom.qihoo.browser
p3339
g1805
sVcom.tencent.mm
p3340
g2730
sVcom.android.packageinstaller
p3341
g915
ssg111
(dp3342
g920
g1601
sg1598
g922
sg988
g2431
sg1592
g2356
ssg113
(dp3343
g3301
g2100
ssg115
(dp3344
sg117
(dp3345
Vcom.kingroot.kinguser
p3346
g2307
sg1460
g1988
sg469
g2856
sVcom.android.settings
p3347
g1414
sg1598
g921
sg49
g1006
sg2147
g2617
sVorg.kde.necessitas.ministro
p3348
g2121
sg227
g2407
sg233
g2449
sg2413
g2142
sg235
g2455
sg1754
g2976
sVorg.kde.necessitas.example.YXBaZi
p3349
g1934
sg1610
g1881
sVcom.feistma.appmove
p3350
g740
ssg119
(dp3351
g1456
g2315
sVcom.android.flashlight
p3352
g2797
sg1010
g2229
sg1023
g548
sVcn.mixiaoxiao.myappscreenmask
p3353
g2621
sVcom.tencent.mm
p3354
g2743
sg2133
g423
sVvStudio.Android.Camera360
p3355
g2524
sg428
g2655
sg2052
g2146
sVcom.qihoo.browser
p3356
g1816
sVcom.baidu.tieba
p3357
g1341
sVcom.tencent.android.qqdownloader
p3358
g640
sg2607
g2379
sg700
g3005
sg445
g1138
sg463
g1042
sVcom.android.contacts
p3359
g2048
sVcom.ifeng.news2
p3360
g801
sg3084
g1421
ssg121
(dp3361
sg123
(dp3362
Vcom.baidu.BaiduMap
p3363
g2406
sVcom.kingroot.kinguser
p3364
g2322
sVcom.android.contacts
p3365
g2055
sg223
g2368
sg2780
g1430
sg2442
g946
sVcom.android.mms
p3366
g2921
sg1068
g1031
sg231
g2444
sg1097
g1239
sVcom.huawei.hidisk
p3367
g2152
sVcom.baidu.tieba
p3368
g1348
sVcom.ifeng.news2
p3369
g796
sVcom.tencent.android.qqdownloader
p3370
g627
sVcom.android.phone
p3371
g1721
sVcom.qihoo.cleandroid_cn
p3372
g433
sVcom.tencent.mm
p3373
g2748
sg3304
g2207
sVcn.mixiaoxiao.myappscreenmask
p3374
g2624
sg3264
g1075
ssg125
(dp3375
Vcom.jiongji.andriod.card
p3376
g2010
sg3144
g2481
sg243
g2499
sg1051
g2691
sVvStudio.Android.Camera360
p3377
g2535
sVcom.feistma.appmove
p3378
g752
sVcom.ifeng.news2
p3379
g811
sVcom.sankuai.meituan
p3380
g2110
sVcom.tencent.token
p3381
g587
sVyiqi.bazi
p3382
g2664
sVcom.tencent.mm
p3383
g2760
sVcom.ylmf.androidclient
p3384
g2195
sVcom.android.flashlight
p3385
g2806
sg181
g2058
sVcom.kingroot.kinguser
p3386
g2328
sg133
g1784
sVcom.Astro.UI
p3387
g1253
sg1779
g1827
sVcom.nd.android.pandareader
p3388
g1889
sVcom.tencent.mobileqq
p3389
g1077
sVmark.via
p3390
g1178
sg1739
g2849
sVcom.sinovatech.unicom.ui
p3391
g2883
sg2081
g1432
sVcom.android.mms
p3392
g2923
sVcom.baidu.tieba
p3393
g1352
sVcom.android.quicksearchbox
p3394
g2996
ssg127
(dp3395
g2017
g1134
sg1949
g919
sg1125
g2014
sg906
g1223
sg159
g1947
ssg129
(dp3396
g3061
g1353
sg3050
g813
ssg131
(dp3397
g3087
g1438
sVcom.baidu.backuprestore
p3398
g1032
sg1424
g591
sg567
g1557
sg271
g2699
sg3331
g1727
sVcom.tencent.mobileqq
p3399
g1086
ssg133
(dp3400
Vcom.android.settings
p3401
g1445
sg1779
g1839
sVcom.android.phone
p3402
g1731
ssg135
(dp3403
Vcom.tencent.android.qqdownloader
p3404
g674
ssg137
(dp3405
g147
g1912
sVcom.tencent.android.qqdownloader
p3406
g673
ssg139
(dp3407
g173
g2008
sg2580
g2023
sg3177
g1536
sg1817
g2633
sVcom.android.deskclock
p3408
g520
sg109
g1573
sg259
g2576
sVcom.android.contacts
p3409
g2070
sVcom.ifeng.news2
p3410
g829
sg3086
g873
sg1532
g971
sVcom.baidu.backuprestore
p3411
g1026
sVcom.eg.android.AlipayGphone
p3412
g1682
sVcom.android.phone
p3413
g1734
sg275
g2706
sVcom.tencent.mobileqq
p3414
g1100
sg1832
g2203
sVcom.android.settings
p3415
g1450
sg3194
g2340
sg65
g1205
sVcom.huawei.android.dsdscardmanager
p3416
g1780
sg1675
g456
sg211
g2255
sg143
g1869
sg1846
g1190
sg1458
g1924
sg1474
g2465
sg838
g2862
sg2941
g2875
sVcom.tencent.mm
p3417
g2767
sVcom.android.mms
p3418
g2934
sVcom.baidu.tieba
p3419
g1371
sg1324
g2387
sg2782
g2993
sg169
g1993
ssg141
(dp3420
g1752
g2591
sg1918
g965
sg295
g2840
sg1921
g2422
ssg143
(dp3421
g2578
g975
sg169
g1990
sg2580
g2024
ssg145
(dp3422
g1043
g1510
sVcom.qihoo.cleandroid_cn
p3423
g462
sg1874
g525
sVvStudio.Android.Camera360
p3424
g2538
sVcom.tencent.android.qqdownloader
p3425
g633
sg3285
g763
sVcom.ifeng.news2
p3426
g834
sVme.onemobile.android
p3427
g1611
sg1711
g978
sVcom.android.gallery3d
p3428
g1650
sVcn.mixiaoxiao.myappscreenmask
p3429
g2635
sg1719
g2160
sg1377
g2712
sg662
g2770
sg1893
g1193
sg667
g2500
sVcom.Astro.UI
p3430
g1260
sVcom.qihoo.browser
p3431
g1845
sg1898
g2345
sg3316
g1104
sVcom.android.mms
p3432
g2936
sVcom.baidu.BaiduMap
p3433
g2423
sVcom.baidu.tieba
p3434
g1376
ssg147
(dp3435
g3406
g680
ssg149
(dp3436
g3210
g2692
sg2693
g1094
ssg151
(dp3437
g930
g890
sg261
g2583
sg500
g2977
sg887
g982
sVcom.huawei.hidisk
p3438
g2163
sg536
g1459
ssg153
(dp3439
g2701
g984
sg273
g2703
ssg155
(dp3440
g175
g2015
sg1918
g986
sg141
g1863
sg191
g2123
sVcom.tencent.android.qqdownloader
p3441
g670
sg2408
g2836
sg59
g1128
ssg157
(dp3442
Vcom.android.mms
p3443
g2944
sg2656
g407
sg1637
g1267
sg1268
g1321
sg1942
g1047
sg3213
g2034
sVcom.ifeng.news2
p3444
g780
ssg159
(dp3445
g1224
g969
sg207
g2246
sg69
g1226
ssg161
(dp3446
VvStudio.Android.Camera360
p3447
g2536
sVcom.tencent.mm
p3448
g2752
sg1264
g2848
ssg163
(dp3449
g630
g876
sg3162
g696
sg3313
g2359
sVcom.android.packageinstaller
p3450
g998
sg966
g2498
sVcom.tencent.qqlive
p3451
g2276
sg3053
g1686
ssg165
(dp3452
g1970
g2877
sVcom.ifeng.news2
p3453
g849
sVcom.tencent.android.qqdownloader
p3454
g699
ssg167
(dp3455
g2959
g1452
sg77
g1284
sg15
g368
ssg169
(dp3456
g2580
g2022
sg3117
g1461
sg2578
g1002
sg1131
g2164
sg1754
g2982
sVcom.hfa.BestName
p3457
g2577
sVcom.tencent.mm
p3458
g2784
sVcom.ifeng.news2
p3459
g851
ssg171
(dp3460
g2627
g2224
sg1000
g2991
sg2221
g1003
ssg173
(dp3461
g1349
g2677
sg2675
g2295
sVcom.baidu.tieba
p3462
g1318
ssg175
(dp3463
g1865
g1395
sg1918
g900
sg1921
g2400
sg141
g1864
sg452
g2244
sVcom.huawei.hidisk
p3464
g2130
sg2408
g2838
sg478
g1126
ssg177
(dp3465
Vme.onemobile.android
p3466
g1594
sVcom.android.packageinstaller
p3467
g914
sg3178
g2581
ssg179
(dp3468
g1311
g905
sg87
g1313
sg1314
g613
ssg181
(dp3469
Vcom.jiongji.andriod.card
p3470
g2004
sVcom.youdao.dict
p3471
g2089
sg243
g2503
sVcom.huawei.android.totemweather
p3472
g2383
sVcom.android.deskclock
p3473
g497
sg1233
g2528
sg109
g1574
sVcom.android.mediacenter
p3474
g723
sVcom.feistma.appmove
p3475
g738
sg2054
g1666
sg3341
g961
sg3380
g2112
sVcom.android.gallery3d
p3476
g1654
sVcom.baidu.backuprestore
p3477
g1013
sg27
g574
sVcom.huawei.hidisk
p3478
g2150
sg3379
g794
sVcom.baidu.home2
p3479
g2696
sg810
g1708
sg2924
g2188
sg3320
g2735
sVcom.ylmf.androidclient
p3480
g2213
sVcom.android.flashlight
p3481
g2809
sg3386
g2331
sg2931
g1212
sVcom.qihoo.cleandroid_cn
p3482
g394
sVcom.Astro.UI
p3483
g1238
sVcom.qihoo.browser
p3484
g1821
sVmark.via
p3485
g1162
sg1739
g2854
sg3391
g2889
sVcom.tencent.mobileqq
p3486
g1091
sg1385
g2909
sg3094
g1333
sVcom.android.settings
p3487
g1441
sg319
g2999
sg321
g3012
sg3302
g2956
ssg183
(dp3488
g3126
g2002
sVcn.wps.moffice_tpt
p3489
g1487
sVcom.android.mms
p3490
g2912
sg113
g1582
sg2095
g2681
sVcom.baidu.tieba
p3491
g1361
sVcom.tencent.android.qqdownloader
p3492
g659
sVcom.tencent.mobileqq
p3493
g1087
sg2011
g726
ssg185
(dp3494
VvStudio.Android.Camera360
p3495
g2519
ssg187
(dp3496
g2111
g2046
sg2109
g1714
ssg189
(dp3497
Vcom.tencent.mobileqq
p3498
g1067
sVcom.ifeng.news2
p3499
g790
ssg191
(dp3500
g669
g1937
sg59
g1130
sg3441
g642
ssg193
(dp3501
g690
g2412
sg2401
g410
ssg195
(dp3502
g778
g358
sg1095
g431
sg773
g2385
sg3300
g509
sVcom.clov4r.android.nil
p3503
g556
sVcom.tencent.android.qqdownloader
p3504
g646
sg2138
g748
sVcom.ifeng.news2
p3505
g809
sg450
g2567
sVpredictor.namer
p3506
g2592
sg317
g2981
sg1065
g945
sg2047
g1640
sg745
g585
sg3359
g2053
sg2151
g1680
sg3180
g1720
sg1133
g1760
sg197
g2186
sVcom.tencent.mm
p3507
g2747
sg2017
g1132
sg2141
g1603
sg2590
g1862
sg825
g2495
sVcom.Astro.UI
p3508
g1249
sg3356
g1823
sg145
g1887
sg1651
g1073
sVmark.via
p3509
g1176
sg469
g2860
sVcom.android.settings
p3510
g1428
sVcom.android.mms
p3511
g2920
sg476
g2414
sVcom.SharkSoft.BirthdayCode
p3512
g2435
sg1643
g1346
sVcom.kingroot.kinguser
p3513
g2320
sg538
g2464
ssg197
(dp3514
g1248
g2153
sVcom.nd.android.pandareader
p3515
g1890
sVcom.android.mms
p3516
g2925
sVcom.ifeng.news2
p3517
g812
ssg199
(dp3518
g3080
g1181
sVcom.nrop19
p3519
g2237
sg776
g2280
sg2198
g2492
sg1817
g2626
sg2194
g1725
sg467
g2927
sg3066
g1537
sg506
g590
sg516
g442
sg23
g512
sVcom.clov4r.android.nil
p3520
g563
sVcom.qihoo.browser
p3521
g1833
sVcom.baidu.tieba
p3522
g1359
sVcom.tencent.android.qqdownloader
p3523
g657
sg2208
g1437
sg3190
g1892
sg3191
g1084
sVcom.ifeng.news2
p3524
g818
ssg201
(dp3525
g1000
g2985
sVcom.android.packageinstaller
p3526
g956
sg936
g2628
ssg203
(dp3527
g3080
g1182
sg547
g1623
sg1008
g2329
sVcom.baidu.backuprestore
p3528
g1011
sg1560
g958
sg467
g2928
sg516
g444
sg3066
g1531
sg23
g513
sg25
g543
sg2234
g661
sg3084
g1439
sg107
g1564
sg199
g2190
ssg205
(dp3529
g11
g343
ssg207
(dp3530
g2437
g1446
sVcom.android.packageinstaller
p3531
g963
sg2258
g453
sg3251
g2157
ssg209
(dp3532
g2813
g968
sg2815
g454
sg2817
g676
ssg211
(dp3533
g2254
g1843
ssg213
(dp3534
g766
g2341
sg1996
g1451
sg1998
g973
sg157
g1941
sg624
g760
sg1637
g1258
sVcom.huawei.hidisk
p3535
g2159
sg1268
g1372
sg171
g2000
sg3444
g830
ssg215
(dp3536
Vcom.kingroot.kinguser
p3537
g2343
sg3173
g349
sVmark.via
p3538
g1191
sg375
g974
sg377
g457
sVcom.baidu.tieba
p3539
g1374
sg379
g609
sVcom.ifeng.news2
p3540
g777
ssg217
(dp3541
g2420
g879
sg2418
g2768
sVcom.qihoo.cleandroid_cn
p3542
g458
ssg219
(dp3543
g1478
g418
sVcom.tencent.android.qqdownloader
p3544
g693
sg484
g1477
ssg221
(dp3545
g3289
g1489
sg1368
g2484
sg3528
g1009
sVcom.android.deskclock
p3546
g529
sVvStudio.Android.Camera360
p3547
g2517
sg492
g1571
sVcom.tencent.android.qqdownloader
p3548
g682
sVcom.android.mediacenter
p3549
g719
sg624
g767
sg626
g1664
sg2680
g2087
sg3177
g1530
sVcom.tencent.qt.sns
p3550
g854
sVcom.android.packageinstaller
p3551
g981
sg424
g2636
sg1171
g593
sVcom.android.contacts
p3552
g2073
sVcom.huawei.hidisk
p3553
g2162
sVcom.ifeng.news2
p3554
g837
sg1349
g2676
sVcom.android.phone
p3555
g1729
sg1377
g2711
sg3151
g2771
sg285
g2794
sg117
g1593
sVcom.sub.bazisuanminkan
p3556
g1215
sg3281
g466
sVcom.Astro.UI
p3557
g1263
sg970
g1836
sg3165
g2269
sVcom.nd.android.pandareader
p3558
g1899
sg815
g1105
sg599
g1196
sg1970
g2865
sVcom.android.settings
p3559
g1457
sVcom.android.mms
p3560
g2930
sg988
g2426
sg233
g2453
sVcom.baidu.tieba
p3561
g1380
sg3472
g2374
sg2876
g1969
ssg223
(dp3562
g3190
g1902
sg3191
g1107
sg1083
g2191
sg1068
g1014
ssg225
(dp3563
Vcom.qihoo.cleandroid_cn
p3564
g483
sVcom.android.deskclock
p3565
g531
sVcom.clov4r.android.nil
p3566
g544
sg3097
g2077
sg2113
g842
sg3146
g2104
sVcn.mixiaoxiao.myappscreenmask
p3567
g2608
sg1717
g602
sVcom.feistma.appmove
p3568
g774
sVcom.huawei.hidisk
p3569
g2167
sg3096
g1743
sg3070
g2180
sg662
g2775
sg562
g2192
sg3519
g2227
sg1737
g1197
sg1187
g1266
sg3261
g1857
sg2769
g1904
sg2929
g2352
sVcom.tencent.mobileqq
p3570
g1109
sg3560
g2943
sVcom.baidu.tieba
p3571
g1325
sVcom.android.settings
p3572
g1472
sg606
g2987
sg3302
g2954
ssg227
(dp3573
Vcom.qihoo.cleandroid_cn
p3574
g477
sVcom.tencent.android.qqdownloader
p3575
g691
sg3350
g770
sVcom.eg.android.AlipayGphone
p3576
g1678
sg117
g1600
sg295
g2839
sg261
g2589
sg1598
g989
sg2147
g2644
sg1602
g2171
sVcom.tencent.mm
p3577
g2778
sg3046
g2483
sg1610
g1908
sVcom.tencent.mobileqq
p3578
g1114
sVcom.kingroot.kinguser
p3579
g2355
sg151
g1922
sg303
g2872
sVcom.android.settings
p3580
g1468
sVcom.android.mms
p3581
g2946
sg229
g2439
sVcom.baidu.tieba
p3582
g1387
sg167
g1984
sg237
g2462
ssg229
(dp3583
g167
g1985
sg237
g2463
sg77
g1286
sVcom.android.packageinstaller
p3584
g991
sg1287
g373
ssg231
(dp3585
Vcom.android.packageinstaller
p3586
g992
sg3370
g692
ssg233
(dp3587
g2122
g1932
sg1935
g993
sVorg.kde.necessitas.ministro
p3588
g2120
ssg235
(dp3589
Vcom.android.packageinstaller
p3590
g999
sg3187
g1930
ssg237
(dp3591
g1458
g1920
sg15
g369
sg1415
g2588
sg536
g1475
sg3300
g539
sg3438
g2176
sVcom.android.phone
p3592
g1750
sg167
g1982
sg77
g1285
sg737
g2084
ssg239
(dp3593
sg241
(dp3594
Vcom.kingroot.kinguser
p3595
g2296
sVvStudio.Android.Camera360
p3596
g2520
sg2541
g2899
sg1624
g611
sVcom.tencent.mobileqq
p3597
g1062
ssg243
(dp3598
g2485
g1186
sg3451
g2273
sg1043
g1498
sg2710
g2334
sg3507
g2725
sg3450
g967
sg3423
g397
sg1377
g2716
sg3561
g1369
sg817
g2199
sg3425
g668
sg35
g721
sg461
g1873
sg1511
g1049
sVcom.android.contacts
p3599
g2067
sg3505
g826
ssg245
(dp3600
g83
g1302
sg3276
g679
ssg247
(dp3601
g387
g1559
sg3134
g2226
sg1565
g471
sg1562
g732
ssg249
(dp3602
Vmark.via
p3603
g1156
sg1088
g2804
sg1081
g2728
sVcom.android.packageinstaller
p3604
g913
sg2523
g1642
sVcom.qihoo.cleandroid_cn
p3605
g406
sVcom.Astro.UI
p3606
g1234
sVcom.qihoo.browser
p3607
g1804
sVcom.baidu.tieba
p3608
g1329
sVcom.tencent.android.qqdownloader
p3609
g621
sVcom.android.phone
p3610
g1705
sg2798
g1054
sVcom.ifeng.news2
p3611
g786
ssg251
(dp3612
sg253
(dp3613
Vcom.android.settings
p3614
g1410
sVcom.android.packageinstaller
p3615
g941
sVcom.baidu.tieba
p3616
g1320
sVcom.tencent.mobileqq
p3617
g1045
ssg255
(dp3618
g1492
g927
sg95
g1483
sg1506
g629
ssg257
(dp3619
Vcom.kingroot.kinguser
p3620
g2332
sVcom.android.packageinstaller
p3621
g964
sVcom.qihoo.cleandroid_cn
p3622
g451
sg2571
g649
ssg259
(dp3623
g1415
g2584
sg1458
g1917
sg1474
g2467
sg2586
g950
ssg261
(dp3624
Vyt.wnl
p3625
g886
sg536
g1416
sg887
g994
sVcn.skyone.calendarbig5
p3626
g1948
sg508
g2143
sg500
g2978
sg127
g1753
ssg263
(dp3627
Vcom.tencent.android.qqdownloader
p3628
g636
ssg265
(dp3629
Vcn.wps.moffice_tpt
p3630
g1513
sg2825
g425
sVcom.android.deskclock
p3631
g505
sVvStudio.Android.Camera360
p3632
g2518
sVcom.tencent.android.qqdownloader
p3633
g704
sVcom.android.contacts
p3634
g2049
sg3576
g1670
sg255
g2562
sg416
g859
sg3526
g937
sVyiqi.bazi
p3635
g2658
sg1602
g2148
sVcom.ifeng.news2
p3636
g803
sVcom.tencent.mobileqq
p3637
g1123
sVcom.android.phone
p3638
g1716
sg161
g1959
sg3577
g2744
sg201
g2223
sVme.onemobile.android
p3639
g1616
sg3521
g1818
sVcom.kingroot.kinguser
p3640
g2317
sVmark.via
p3641
g1170
sg1264
g2846
sVcom.sinovatech.unicom.ui
p3642
g2870
sg3347
g1464
sVcom.android.mms
p3643
g2914
sg2170
g2411
sVcom.baidu.tieba
p3644
g1342
sg850
g1992
ssg267
(dp3645
g3197
g2318
sg1147
g1505
sg3641
g1174
sg3234
g2746
sVcom.android.mms
p3646
g2918
sg2133
g429
sg1169
g2622
sVcom.Astro.UI
p3647
g1247
sVcom.baidu.tieba
p3648
g1344
sVcom.tencent.android.qqdownloader
p3649
g644
sg434
g1039
sg979
g1072
sg2734
g2051
sg3198
g807
sg3278
g1426
ssg269
(dp3650
g257
g2568
sg2571
g647
ssg271
(dp3651
g577
g2792
sg2675
g2347
sg3126
g2006
sg1275
g1499
sg761
g2831
sg99
g1524
sVcom.android.settings
p3652
g1402
sg1525
g948
sg183
g2096
sVcom.baidu.backuprestore
p3653
g1022
sg2683
g570
sg2036
g1552
sg73
g1274
sg239
g2470
sVcom.baidu.tieba
p3654
g1350
sg1277
g618
sVcom.tencent.mm
p3655
g2750
sg3389
g1052
sg2695
g2057
sVcom.feistma.appmove
p3656
g750
sg2698
g1773
ssg273
(dp3657
g1139
g949
sg3183
g1145
ssg275
(dp3658
g2705
g1829
sg193
g2126
sg2401
g437
sVcom.baidu.BaiduMap
p3659
g2417
ssg277
(dp3660
g3434
g1378
sVcom.tencent.mobileqq
p3661
g1078
sVcom.ifeng.news2
p3662
g836
ssg279
(dp3663
g3051
g880
sVcom.ifeng.news2
p3664
g814
ssg281
(dp3665
Vcom.youku.phone
p3666
g353
sVcom.ss.android.article.news
p3667
g362
sg179
g2028
sg2029
g440
sg1079
g1555
sg785
g2540
sVcom.tencent.android.qqdownloader
p3668
g663
sVcom.android.contacts
p3669
g2066
sg2151
g1692
sg1871
g1491
sVcom.tencent.qt.sns
p3670
g863
sg2026
g954
sVcom.android.gallery3d
p3671
g1629
sg1669
g2625
sg1034
g754
sg3367
g2156
sVcom.ifeng.news2
p3672
g824
sg3245
g1723
sVcom.tencent.mobileqq
p3673
g1082
sVcom.ylmf.androidclient
p3674
g2211
sg1088
g2807
sVcom.kingroot.kinguser
p3675
g2335
sVcom.baidu.backuprestore
p3676
g1028
sg3606
g1255
sVcom.qihoo.browser
p3677
g1850
sg217
g2286
sVcom.nd.android.pandareader
p3678
g1891
sg2900
g1180
sg472
g2887
sg3296
g1435
sg3237
g2926
sg3166
g2419
sVcom.baidu.tieba
p3679
g1357
sg1903
g2376
sg1858
g2998
ssg283
(dp3680
g703
g2631
sVcom.tencent.android.qqdownloader
p3681
g671
sg2605
g449
ssg285
(dp3682
g569
g2674
sg2683
g578
sg2698
g1767
ssg287
(dp3683
g2800
g2939
sg2796
g1621
sVcom.android.deskclock
p3684
g527
sVcom.baidu.tieba
p3685
g1363
sVcom.tencent.mm
p3686
g2755
sg2808
g2061
sVcom.ifeng.news2
p3687
g819
sg3673
g1089
ssg289
(dp3688
Vcom.tencent.android.qqdownloader
p3689
g672
ssg291
(dp3690
g33
g712
sVmark.via
p3691
g1184
sg3122
g675
ssg293
(dp3692
g209
g2250
sg97
g1522
sg187
g2108
sVcom.baidu.home2
p3693
g2679
sVcom.youdao.dict
p3694
g2099
sg601
g2389
sg1517
g901
sg19
g385
sg639
g1646
sg1520
g391
sg1717
g597
sVcom.feistma.appmove
p3695
g762
sVcom.android.deskclock
p3696
g522
sVcom.baidu.tieba
p3697
g1319
sVcom.tencent.android.qqdownloader
p3698
g678
sg606
g2995
sg1647
g3008
sVcom.tencent.mobileqq
p3699
g1102
sg3097
g2071
sVcom.ifeng.news2
p3700
g832
ssg295
(dp3701
g261
g2593
sVcom.android.packageinstaller
p3702
g929
sg151
g1925
sg930
g889
sg1921
g2409
ssg297
(dp3703
Vcom.kingroot.kinguser
p3704
g2348
sVcom.tencent.android.qqdownloader
p3705
g681
ssg299
(dp3706
g757
g1208
sg2351
g2372
sg3240
g943
sg1447
g1265
sg3447
g2545
sg161
g1955
sVcom.android.phone
p3707
g1740
sg2361
g2986
sg3448
g2772
sg3305
g2075
sg1689
g1462
ssg301
(dp3708
Vcom.tencent.mobileqq
p3709
g1106
sVcom.android.packageinstaller
p3710
g983
sg3574
g470
sg476
g2427
sVcom.huawei.hidisk
p3711
g2165
sVcom.qihoo.browser
p3712
g1848
sg197
g2178
sg3515
g1901
sVcom.tencent.mm
p3713
g2773
sVcom.ifeng.news2
p3714
g839
ssg303
(dp3715
Vcom.kingroot.kinguser
p3716
g2350
sVcn.mixiaoxiao.myappscreenmask
p3717
g2638
sg2867
g2942
sg2884
g473
sVcom.baidu.BaiduMap
p3718
g2428
sVcom.baidu.tieba
p3719
g1382
sVcom.tencent.android.qqdownloader
p3720
g686
sg2882
g1742
sg165
g1971
sVcom.tencent.mm
p3721
g2774
sg2888
g2076
sVcom.ifeng.news2
p3722
g840
ssg305
(dp3723
Vcom.kingroot.kinguser
p3724
g2353
sg3112
g1110
sg1055
g688
ssg307
(dp3725
g3147
g1495
sg516
g468
sg1079
g1547
sg3174
g533
sVvStudio.Android.Camera360
p3726
g2542
sg1876
g685
sVcom.android.contacts
p3727
g2078
sVcom.ifeng.news2
p3728
g843
sg3254
g1588
sg45
g894
sg892
g987
sg3476
g1632
sVcn.mixiaoxiao.myappscreenmask
p3729
g2642
sg506
g603
sg1679
g2169
sg1429
g1674
sVcom.android.phone
p3730
g1745
sg3291
g1759
sVcom.tencent.mm
p3731
g2777
sg3480
g2197
sVcom.android.flashlight
p3732
g2801
sVmark.via
p3733
g1198
sg2931
g1207
sg1584
g1229
sVcom.qihoo.browser
p3734
g1852
sVcom.nd.android.pandareader
p3735
g1906
sVcom.tencent.mobileqq
p3736
g1112
sVcom.kingroot.kinguser
p3737
g2298
sg1381
g2868
sg3580
g1466
sg2945
g2430
sVcom.baidu.tieba
p3738
g1386
sVcom.huawei.android.totemweather
p3739
g2396
ssg309
(dp3740
Vcom.android.deskclock
p3741
g540
ssg311
(dp3742
g3041
g1596
sVcn.mixiaoxiao.myappscreenmask
p3743
g2618
sg1614
g741
ssg313
(dp3744
sg315
(dp3745
Vcom.qihoo.browser
p3746
g1855
sVcom.tencent.android.qqdownloader
p3747
g697
ssg317
(dp3748
g778
g366
sVcom.android.settings
p3749
g1418
sg3584
g934
sg990
g2440
sg3300
g501
sg645
g2144
sg3311
g1338
sg3504
g698
sg1133
g1755
sg538
g2466
sg3038
g2741
sVcom.android.contacts
p3750
g2043
sVcom.ifeng.news2
p3751
g799
ssg319
(dp3752
g201
g2219
sg2929
g2362
sg299
g2851
sg3048
g1608
sg2941
g2873
sg2351
g2393
sg3526
g1001
sVcom.tencent.mm
p3753
g2783
sg3560
g2951
sg936
g2649
sg1717
g607
sg1907
g2432
sg3478
g2175
sVcom.qihoo.browser
p3754
g1859
sg3094
g1390
sVcom.android.htmlviewer
p3755
g2187
sg3096
g1749
sg321
g3009
sVcom.tencent.mobileqq
p3756
g1119
sg3097
g2083
ssg321
(dp3757
g1456
g2363
sg3559
g1473
sg639
g1648
sg267
g2665
sg3094
g1391
sg3358
g701
sg2667
g1121
ssg323
(dp3758
Vcom.tencent.android.qqdownloader
p3759
g702
sssb.