ccopy_reg
_reconstructor
p1
(cnetworkx.classes.digraph
DiGraph
p2
c__builtin__
object
p3
NtRp4
(dp5
S'node'
p6
(dp7
Vcom.android.browser
p8
(dp9
S'weight'
p10
F0.0010191752520268213
ssVcom.youku.phone
p11
(dp12
g10
F0.033356084153438909
ssVcom.ss.android.article.news
p13
(dp14
g10
F0.012373064258769058
ssVcom.wunding.kingline
p15
(dp16
g10
F0.14493502181311738
ssVcom.autonavi.minimap
p17
(dp18
g10
F0.00081626253216627773
ssVcom.android.deskclock
p19
(dp20
g10
F0.0001798544562400273
ssVcom.eg.android.AlipayGphone
p21
(dp22
g10
F0.001291262762748914
ssVcom.pplive.androidphone
p23
(dp24
g10
F0.024225011759714445
ssVcom.android.incallui
p25
(dp26
g10
F0.065453187113197628
ssVcom.android.dazhihui
p27
(dp28
g10
F0.030621374088045675
ssVcom.sankuai.meituan
p29
(dp30
g10
F0.00087160236485551697
ssVcom.jingdong.app.mall
p31
(dp32
g10
F0.027900498980824747
ssVcom.hexin.plat.android
p33
(dp34
g10
F0.032452200219514671
ssVme.ele
p35
(dp36
g10
F0.00053495171599597863
ssVcom.alensw.PicFolder
p37
(dp38
g10
F0.00047961188330673945
ssVcom.miui.gallery
p39
(dp40
g10
F0.0037077687901790244
ssVcom.tencent.mm
p41
(dp42
g10
F0.035122347146770462
ssVcom.android.calculator2
p43
(dp44
g10
F5.0728179965135906e-05
ssVcom.sec.spen.flashannotate
p45
(dp46
g10
F0.00045655361968622313
ssVcom.android.phone
p47
(dp48
g10
F9.2233054482065275e-06
ssVcom.achievo.vipshop
p49
(dp50
g10
F0.00026286420527388607
ssVcom.android.fileexplorer
p51
(dp52
g10
F0.00037815552337646768
ssVcom.sec.android.app.camera
p53
(dp54
g10
F0.00071480617223600596
ssVcom.android.email
p55
(dp56
g10
F0.0091679656155172883
ssVcn.wps.moffice_eng
p57
(dp58
g10
F0.00022597098348105994
ssVcom.miui.home
p59
(dp60
g10
F0.35622250302063252
ssVcom.miui.notes
p61
(dp62
g10
F8.7621401757962016e-05
ssVcom.miui.cloudservice
p63
(dp64
g10
F0.00052572841054777215
ssVcom.exam8.zhengquan
p65
(dp66
g10
F9.6844707206168541e-05
ssVcom.tuan800.tao800
p67
(dp68
g10
F7.378644358565222e-05
ssVcom.android.calendar
p69
(dp70
g10
F2.3058263620516321e-05
ssVcom.tencent.mobileqq
p71
(dp72
g10
F0.21101078204406895
ssVcom.android.mms
p73
(dp74
g10
F0.0029652927015983988
ssVcom.jm.android.jumei
p75
(dp76
g10
F0.0018031562151243762
ssVcom.android.settings
p77
(dp78
g10
F0.00049344684147904923
ssVcom.android.quicksearchbox
p79
(dp80
g10
F3.689322179282611e-05
ssVcom.xiaomi.account
p81
(dp82
g10
F5.5339832689239168e-05
sssS'graph'
p83
(dp84
sS'succ'
p85
(dp86
g8
(dp87
Vcom.android.email
p88
(dp89
g10
I1
ssVcom.ss.android.article.news
p90
(dp91
g10
F0.40000000000000002
ssg69
(dp92
g10
F0.69999999999999996
ssg73
(dp93
g10
I1
ssVcom.jingdong.app.mall
p94
(dp95
g10
F1.3
ssg33
(dp96
g10
F0.40000000000000002
ssg79
(dp97
g10
F0.40000000000000002
ssVcom.miui.home
p98
(dp99
g10
F9.0000000000000018
ssVcom.tencent.mobileqq
p100
(dp101
g10
F7.5000000000000009
ssg43
(dp102
g10
F0.69999999999999996
sssg11
(dp103
Vcom.miui.home
p104
(dp105
g10
F1.7
ssVcom.tencent.mobileqq
p106
(dp107
g10
F0.90000000000000002
sssg13
(dp108
g41
(dp109
g10
F0.69999999999999996
ssVcom.android.email
p110
(dp111
g10
F0.90000000000000002
ssg59
(dp112
g10
F3.5999999999999996
ssVcom.tencent.mobileqq
p113
(dp114
g10
F3.2999999999999998
sssg15
(dp115
g55
(dp116
g10
F0.90000000000000002
ssVcom.miui.home
p117
(dp118
g10
F2.7000000000000002
sssg17
(dp119
Vcom.miui.home
p120
(dp121
g10
I1
sssg19
(dp122
sg21
(dp123
Vcom.tencent.mm
p124
(dp125
g10
F0.90000000000000002
ssVcom.sec.spen.flashannotate
p126
(dp127
g10
I1
sssg23
(dp128
Vcom.miui.home
p129
(dp130
g10
F0.90000000000000002
ssVcom.tencent.mobileqq
p131
(dp132
g10
I1
sssg25
(dp133
g110
(dp134
g10
F0.69999999999999996
ssVcom.pplive.androidphone
p135
(dp136
g10
F0.69999999999999996
ssVcom.ss.android.article.news
p137
(dp138
g10
I2
ssVcom.tencent.mm
p139
(dp140
g10
I1
ssVcom.sec.android.app.camera
p141
(dp142
g10
F1.3999999999999999
ssVcom.android.mms
p143
(dp144
g10
I1
ssVcom.android.deskclock
p145
(dp146
g10
I1
ssVcom.hexin.plat.android
p147
(dp148
g10
F0.90000000000000002
ssVme.ele
p149
(dp150
g10
F0.90000000000000002
ssg47
(dp151
g10
I1
ssVcom.miui.home
p152
(dp153
g10
F11.5
ssVcom.tencent.mobileqq
p154
(dp155
g10
F4.5
sssg27
(dp156
Vcom.hexin.plat.android
p157
(dp158
g10
F3.5
ssVcom.miui.home
p159
(dp160
g10
F14.599999999999998
ssVcom.tencent.mobileqq
p161
(dp162
g10
F6.1999999999999993
ssVcom.android.mms
p163
(dp164
g10
F0.90000000000000002
sssg29
(dp165
Vcom.miui.home
p166
(dp167
g10
I1
sssg31
(dp168
Vcom.android.browser
p169
(dp170
g10
F2.6000000000000001
ssg29
(dp171
g10
F0.90000000000000002
ssg73
(dp172
g10
F0.69999999999999996
ssVcom.android.incallui
p173
(dp174
g10
I2
ssVcom.miui.home
p175
(dp176
g10
F10.300000000000001
ssVcom.tencent.mobileqq
p177
(dp178
g10
F8.9000000000000004
sssg33
(dp179
Vcom.android.browser
p180
(dp181
g10
F0.40000000000000002
ssVcom.android.dazhihui
p182
(dp183
g10
F0.90000000000000002
ssVcom.jingdong.app.mall
p184
(dp185
g10
F0.90000000000000002
ssVcom.android.incallui
p186
(dp187
g10
I3
ssVcom.android.quicksearchbox
p188
(dp189
g10
F0.90000000000000002
ssVcom.miui.home
p190
(dp191
g10
F14.1
ssVcom.tencent.mobileqq
p192
(dp193
g10
F1.8
ssVcom.android.calculator2
p194
(dp195
g10
F0.90000000000000002
sssg35
(dp196
Vcom.miui.home
p197
(dp198
g10
I1
ssVcom.tencent.mobileqq
p199
(dp200
g10
I1
sssg37
(dp201
Vcom.android.fileexplorer
p202
(dp203
g10
F0.40000000000000002
ssVcom.miui.home
p204
(dp205
g10
F1.7
ssVcom.tencent.mobileqq
p206
(dp207
g10
F0.90000000000000002
sssg39
(dp208
Vcom.miui.home
p209
(dp210
g10
F3
ssVcom.tencent.mobileqq
p211
(dp212
g10
F2.9000000000000004
ssg45
(dp213
g10
F0.40000000000000002
ssVcom.miui.cloudservice
p214
(dp215
g10
F2.7000000000000002
sssg41
(dp216
g61
(dp217
g10
F0.40000000000000002
ssg135
(dp218
g10
F0.90000000000000002
ssVcom.sec.spen.flashannotate
p219
(dp220
g10
I1
ssVcom.hexin.plat.android
p221
(dp222
g10
F0.40000000000000002
ssg77
(dp223
g10
F1.7
ssVcom.sankuai.meituan
p224
(dp225
g10
F0.90000000000000002
ssVcom.android.incallui
p226
(dp227
g10
I2
ssVcom.android.phone
p228
(dp229
g10
F0.90000000000000002
ssVcom.sec.android.app.camera
p230
(dp231
g10
F0.90000000000000002
ssVcom.miui.home
p232
(dp233
g10
F15.1
ssVcom.tencent.mobileqq
p234
(dp235
g10
F10.899999999999999
ssVcom.xiaomi.account
p236
(dp237
g10
F0.40000000000000002
ssg21
(dp238
g10
F0.69999999999999996
sssg43
(dp239
Vcom.miui.home
p240
(dp241
g10
F1.7
ssVcom.tencent.mobileqq
p242
(dp243
g10
F0.90000000000000002
sssg45
(dp244
Vcom.tencent.mm
p245
(dp246
g10
F2.7000000000000002
ssVcom.tencent.mobileqq
p247
(dp248
g10
F3.1000000000000001
ssg77
(dp249
g10
F0.90000000000000002
sssg47
(dp250
sg49
(dp251
Vcom.miui.home
p252
(dp253
g10
I1
sssg51
(dp254
Vcom.miui.home
p255
(dp256
g10
F1.3999999999999999
ssg177
(dp257
g10
F0.69999999999999996
ssg31
(dp258
g10
F0.90000000000000002
sssg53
(dp259
Vcom.miui.gallery
p260
(dp261
g10
I1
ssVcom.tencent.mobileqq
p262
(dp263
g10
I2
sssg55
(dp264
g69
(dp265
g10
F0.90000000000000002
ssVcom.miui.home
p266
(dp267
g10
F7.4000000000000004
ssg57
(dp268
g10
I1
ssVcom.ss.android.article.news
p269
(dp270
g10
F0.90000000000000002
ssg11
(dp271
g10
F0.90000000000000002
sssg57
(dp272
Vcom.miui.home
p273
(dp274
g10
F0.90000000000000002
ssVcom.android.email
p275
(dp276
g10
I1
sssg59
(dp277
g8
(dp278
g10
F7.8000000000000007
ssg11
(dp279
g10
I2
ssg90
(dp280
g10
F4.4000000000000004
ssg15
(dp281
g10
I1
ssVcom.alensw.PicFolder
p282
(dp283
g10
F1.7
ssg19
(dp284
g10
I1
ssg21
(dp285
g10
I2
ssg135
(dp286
g10
I1
ssVcom.android.incallui
p287
(dp288
g10
I4
ssVcom.android.dazhihui
p289
(dp290
g10
F4.4000000000000004
ssg29
(dp291
g10
I2
ssg31
(dp292
g10
F7.2000000000000002
ssg33
(dp293
g10
F15.799999999999999
ssg228
(dp294
g10
I1
ssg39
(dp295
g10
F3.0999999999999996
ssVcom.tencent.mobileqq
p296
(dp297
g10
F72.100000000000009
ssg43
(dp298
g10
I2
ssg45
(dp299
g10
F1.3
ssg49
(dp300
g10
I1
ssg51
(dp301
g10
F3.3999999999999999
ssVcom.sec.android.app.camera
p302
(dp303
g10
F6.0000000000000009
ssg55
(dp304
g10
F4.4000000000000004
ssg61
(dp305
g10
F2.7000000000000002
ssg63
(dp306
g10
F4.7000000000000002
ssg65
(dp307
g10
F1.7
ssg67
(dp308
g10
I1
ssg69
(dp309
g10
I1
ssg41
(dp310
g10
F10
ssg73
(dp311
g10
F5.2999999999999998
ssg79
(dp312
g10
F4.4000000000000004
ssg81
(dp313
g10
F3.3999999999999999
sssg61
(dp314
Vcom.android.email
p315
(dp316
g10
F0.90000000000000002
ssVcom.miui.home
p317
(dp318
g10
I1
sssg63
(dp319
g209
(dp320
g10
F5.4000000000000004
ssVcom.tencent.mm
p321
(dp322
g10
F1.3
ssg39
(dp323
g10
I2
ssg211
(dp324
g10
F3.7999999999999998
ssg45
(dp325
g10
F0.69999999999999996
sssg65
(dp326
sg67
(dp327
Vcom.miui.home
p328
(dp329
g10
I1
sssg69
(dp330
Vcom.miui.home
p331
(dp332
g10
I1
sssg71
(dp333
g8
(dp334
g10
F6.6000000000000014
ssg13
(dp335
g10
F3.2999999999999998
ssg37
(dp336
g10
I1
ssg21
(dp337
g10
F0.90000000000000002
ssVcom.android.dazhihui
p338
(dp339
g10
F4.2999999999999998
ssg31
(dp340
g10
F9.2000000000000011
ssg33
(dp341
g10
F4.5
ssg149
(dp342
g10
I1
ssg228
(dp343
g10
F0.69999999999999996
ssg39
(dp344
g10
F2.1000000000000001
ssg41
(dp345
g10
F8.6000000000000014
ssg43
(dp346
g10
F0.90000000000000002
ssg45
(dp347
g10
F5.4000000000000004
ssg51
(dp348
g10
F2.2000000000000002
ssg53
(dp349
g10
F12.800000000000001
ssg59
(dp350
g10
F80.30000000000004
ssg61
(dp351
g10
F0.90000000000000002
ssg63
(dp352
g10
F3.0999999999999996
ssg65
(dp353
g10
F0.90000000000000002
ssg73
(dp354
g10
F1.8999999999999999
ssg79
(dp355
g10
F0.90000000000000002
ssg81
(dp356
g10
F2.2000000000000002
sssg73
(dp357
Vcom.android.browser
p358
(dp359
g10
I1
ssVcom.miui.home
p360
(dp361
g10
F4.7000000000000002
ssVcom.tencent.mobileqq
p362
(dp363
g10
F1.8
ssg43
(dp364
g10
F0.40000000000000002
sssg75
(dp365
Vcom.miui.home
p366
(dp367
g10
F1.7
ssg49
(dp368
g10
F0.90000000000000002
sssg77
(dp369
Vcom.tencent.mobileqq
p370
(dp371
g10
F0.90000000000000002
ssVcom.miui.home
p372
(dp373
g10
F0.69999999999999996
ssVcom.tencent.mm
p374
(dp375
g10
I1
ssg21
(dp376
g10
F0.40000000000000002
sssg79
(dp377
Vcom.android.browser
p378
(dp379
g10
I1
ssVcom.miui.home
p380
(dp381
g10
F2.2999999999999998
ssVcom.tencent.mobileqq
p382
(dp383
g10
F0.69999999999999996
ssg282
(dp384
g10
F0.90000000000000002
sssg81
(dp385
g209
(dp386
g10
F1.1000000000000001
ssg39
(dp387
g10
F1.8
ssg211
(dp388
g10
F0.40000000000000002
ssg63
(dp389
g10
F2.7000000000000002
ssssS'edge'
p390
g86
sS'pred'
p391
(dp392
g8
(dp393
g73
g359
sVcom.jingdong.app.mall
p394
g170
sg33
g181
sg79
g379
sVcom.miui.home
p395
g278
sVcom.tencent.mobileqq
p396
g334
ssg11
(dp397
Vcom.miui.home
p398
g279
sVcom.android.email
p399
g271
ssg13
(dp400
g378
g91
sVcom.android.email
p401
g270
sg380
g280
sg71
g335
sVcom.android.incallui
p402
g138
ssg15
(dp403
Vcom.miui.home
p404
g281
ssg17
(dp405
sg19
(dp406
Vcom.android.incallui
p407
g146
sVcom.miui.home
p408
g284
ssg21
(dp409
g77
g376
sg372
g285
sg374
g238
sg370
g337
ssg23
(dp410
Vcom.android.incallui
p411
g136
sVcom.miui.home
p412
g286
sg139
g218
ssg25
(dp413
Vcom.hexin.plat.android
p414
g187
sVcom.miui.home
p415
g288
sVcom.tencent.mm
p416
g227
sVcom.jingdong.app.mall
p417
g174
ssg27
(dp418
Vcom.hexin.plat.android
p419
g183
sg159
g290
sVcom.tencent.mobileqq
p420
g339
ssg29
(dp421
Vcom.miui.home
p422
g291
sVcom.tencent.mm
p423
g225
sVcom.jingdong.app.mall
p424
g171
ssg31
(dp425
g221
g185
sg202
g258
sVcom.miui.home
p426
g292
sg206
g340
sVcom.android.browser
p427
g95
ssg33
(dp428
g8
g96
sg27
g158
sg100
g341
sVcom.android.incallui
p429
g148
sg98
g293
sVcom.tencent.mm
p430
g222
ssg35
(dp431
Vcom.android.incallui
p432
g150
sVcom.tencent.mobileqq
p433
g342
ssg37
(dp434
Vcom.android.quicksearchbox
p435
g384
sVcom.miui.home
p436
g283
sVcom.tencent.mobileqq
p437
g336
ssg39
(dp438
Vcom.miui.home
p439
g295
sVcom.tencent.mobileqq
p440
g344
sg81
g387
sg63
g323
sVcom.sec.android.app.camera
p441
g261
ssg41
(dp442
g214
g322
sg219
g246
sg77
g375
sVcom.ss.android.article.news
p443
g109
sg411
g140
sVcom.miui.home
p444
g310
sVcom.tencent.mobileqq
p445
g345
sVcom.eg.android.AlipayGphone
p446
g125
ssg43
(dp447
Vcom.hexin.plat.android
p448
g195
sg358
g102
sg360
g298
sg73
g364
sg362
g346
ssg45
(dp449
Vcom.miui.gallery
p450
g213
sVcom.miui.cloudservice
p451
g325
sVcom.tencent.mobileqq
p452
g347
sVcom.miui.home
p453
g299
sVcom.tencent.mm
p454
g220
sg446
g127
ssg47
(dp455
Vcom.android.incallui
p456
g151
sVcom.tencent.mm
p457
g229
sVcom.tencent.mobileqq
p458
g343
sVcom.miui.home
p459
g294
ssg49
(dp460
g366
g300
sg75
g368
ssg51
(dp461
g37
g203
sVcom.miui.home
p462
g301
sVcom.tencent.mobileqq
p463
g348
ssg53
(dp464
Vcom.tencent.mm
p465
g231
sVcom.miui.home
p466
g303
sVcom.tencent.mobileqq
p467
g349
sVcom.android.incallui
p468
g142
ssg55
(dp469
Vcom.android.browser
p470
g89
sVcom.miui.notes
p471
g316
sg57
g276
sVcom.ss.android.article.news
p472
g111
sg15
g116
sVcom.android.incallui
p473
g134
sg404
g304
ssg57
(dp474
Vcom.android.email
p475
g268
ssg59
(dp476
g8
g99
sVcom.youku.phone
p477
g105
sg13
g112
sg15
g118
sg37
g205
sg23
g130
sg25
g153
sg27
g160
sg224
g167
sg31
g176
sg33
g191
sg149
g198
sg17
g121
sg39
g210
sg321
g233
sg43
g241
sg49
g253
sg202
g256
sg55
g267
sg57
g274
sg471
g318
sg63
g320
sg67
g329
sg69
g332
sg71
g350
sg73
g361
sg75
g367
sg77
g373
sg79
g381
sg81
g386
ssg61
(dp478
Vcom.tencent.mobileqq
p479
g351
sVcom.miui.home
p480
g305
sVcom.tencent.mm
p481
g217
ssg63
(dp482
Vcom.miui.gallery
p483
g215
sVcom.miui.home
p484
g306
sg440
g352
sg81
g389
ssg65
(dp485
Vcom.miui.home
p486
g307
sVcom.tencent.mobileqq
p487
g353
ssg67
(dp488
Vcom.miui.home
p489
g308
ssg69
(dp490
g470
g92
sg88
g265
sVcom.miui.home
p491
g309
ssg71
(dp492
g8
g101
sg477
g107
sg13
g114
sg37
g207
sg23
g132
sVcom.android.incallui
p493
g155
sVcom.android.dazhihui
p494
g162
sg31
g178
sg33
g193
sg35
g200
sg39
g212
sg41
g235
sg43
g243
sg45
g248
sg202
g257
sVcom.sec.android.app.camera
p495
g263
sg395
g297
sg63
g324
sg77
g371
sg73
g363
sg79
g383
sg81
g388
ssg73
(dp496
Vcom.android.browser
p497
g93
sVcom.android.dazhihui
p498
g164
sVcom.jingdong.app.mall
p499
g172
sg493
g144
sVcom.miui.home
p500
g311
sVcom.tencent.mobileqq
p501
g354
ssg75
(dp502
sg77
(dp503
g454
g223
sg219
g249
ssg79
(dp504
g180
g97
sVcom.miui.home
p505
g312
sVcom.tencent.mobileqq
p506
g355
sVcom.hexin.plat.android
p507
g189
ssg81
(dp508
g321
g237
sg484
g313
sVcom.tencent.mobileqq
p509
g356
sssS'adj'
p510
g86
sb.