ccopy_reg
_reconstructor
p1
(cnetworkx.classes.digraph
DiGraph
p2
c__builtin__
object
p3
NtRp4
(dp5
S'node'
p6
(dp7
Vcom.android.browser
p8
(dp9
S'weight'
p10
F0.0012506050629973193
ssVcom.bestpay.creditcard
p11
(dp12
g10
F3.1703885707492027e-05
ssVcom.sankuai.meituan
p13
(dp14
g10
F0.009218470910269512
ssVcom.youku.phone
p15
(dp16
g10
F0.039761201803724638
ssVcom.android.updater
p17
(dp18
g10
F7.9259714268730067e-06
ssVcom.comingx.athit
p19
(dp20
g10
F0.0022679601097180904
ssVcom.android.deskclock
p21
(dp22
g10
F0.061460247007238109
ssVcom.UCMobile
p23
(dp24
g10
F0.086344966583538324
ssVcom.hunantv.imgo.activity
p25
(dp26
g10
F0.0066872553210159964
ssVcom.netease.mobimail
p27
(dp28
g10
F0.0038406992971361767
ssVcom.eg.android.AlipayGphone
p29
(dp30
g10
F0.012237133742275716
ssVcom.youdao.dict
p31
(dp32
g10
F0.0021207634975047344
ssVcom.zhihu.android
p33
(dp34
g10
F0.0028040954626644284
ssVcom.chinamworld.main
p35
(dp36
g10
F0.00010983131834381165
ssVcn.wps.moffice_eng
p37
(dp38
g10
F0.0016327501139358394
ssVcom.TianYi
p39
(dp40
g10
F0.00012738168364617331
ssVcom.android.bluetooth
p41
(dp42
g10
F5.661408162052147e-07
ssVcom.android.packageinstaller
p43
(dp44
g10
F0.0028839213177493639
ssVcom.moji.mjweather
p45
(dp46
g10
F0.0065751594394073635
ssVcom.taobao.taobao
p47
(dp48
g10
F0.011760443175030926
ssVcom.android.calculator
p49
(dp50
g10
F0.0037393600910354432
ssVme.ele
p51
(dp52
g10
F0.0013400553119577432
ssVcom.android.phone
p53
(dp54
g10
F0.057826755248833045
ssVcom.miui.gallery
p55
(dp56
g10
F0.0010949163385408852
ssVcom.tencent.mm
p57
(dp58
g10
F0.16031409492483065
ssVcom.miui.antispam
p59
(dp60
g10
F4.8121969377443254e-05
ssVcom.xindaoapp.miaodaiepay
p61
(dp62
g10
F6.510619386359969e-05
ssVcom.sankuai.meituan.takeoutnew
p63
(dp64
g10
F0.00058595574477239727
ssVcom.tencent.androidqqmail
p65
(dp66
g10
F0.00010077306528452822
ssVcom.youdao.bigbang
p67
(dp68
g10
F0.00020947210199592946
ssVcom.baidu.lbs.waimai
p69
(dp70
g10
F0.00044498668153729879
ssVcom.baidu.input
p71
(dp72
g10
F2.4910195913029449e-05
ssVcom.yipiao
p73
(dp74
g10
F0.0027593703381842164
ssVcom.android.fileexplorer
p75
(dp76
g10
F0.00067087686720317943
ssVcom.tuniu.app.ui
p77
(dp78
g10
F5.4349518355700612e-05
ssVcom.android.camera
p79
(dp80
g10
F0.013586813448108949
ssVcom.happyelements.AndroidAnimal
p81
(dp82
g10
F0.00067767055699764203
ssVcom.tencent.mobileqq
p83
(dp84
g10
F0.38865170733916649
ssVcom.kingroot.kinguser
p85
(dp86
g10
F0.012514542742216271
ssVcom.miui.notes
p87
(dp88
g10
F0.0046814184092009202
ssVcom.android.calendar
p89
(dp90
g10
F0.0023879819627535956
ssVcom.android.settings
p91
(dp92
g10
F0.0030447053095516447
ssVcom.android.mms
p93
(dp94
g10
F0.075101409973702765
ssVcom.miui.voiceassist
p95
(dp96
g10
F5.661408162052147e-06
ssVcom.miui.networkassistant
p97
(dp98
g10
F0.01544035848036482
ssVcn.chinabus.main
p99
(dp100
g10
F1.8682646934772085e-05
ssVcom.edooon.gps
p101
(dp102
g10
F6.7936897944625764e-06
ssVcom.android.quicksearchbox
p103
(dp104
g10
F6.7936897944625764e-06
ssVcom.miui.yellowpage
p105
(dp106
g10
F0.00020154613056905645
ssVcom.innorz.venus
p107
(dp108
g10
F0.0022119121689137739
ssVcom.chinatelecom.bestpayclient
p109
(dp110
g10
F0.0010598156079361619
sssS'node_dict_factory'
p111
c__builtin__
dict
p112
sS'edge_attr_dict_factory'
p113
g112
sS'succ'
p114
(dp115
g8
(dp116
Vcom.kingroot.kinguser
p117
(dp118
g10
F4.7999999999999998
ssVcom.miui.notes
p119
(dp120
g10
F3.0999999999999996
ssVcom.tencent.mobileqq
p121
(dp122
g10
F8.8000000000000007
ssVcom.android.packageinstaller
p123
(dp124
g10
F1.3
ssVcom.android.mms
p125
(dp126
g10
F4.7000000000000002
ssVcom.baidu.input
p127
(dp128
g10
F0.69999999999999996
ssVcom.UCMobile
p129
(dp130
g10
F7.5999999999999996
ssVcom.netease.mobimail
p131
(dp132
g10
I1
ssg103
(dp133
g10
F1.6000000000000001
ssVcom.miui.yellowpage
p134
(dp135
g10
I1
ssVcom.tencent.mm
p136
(dp137
g10
F4.4000000000000004
sssg11
(dp138
Vcom.android.packageinstaller
p139
(dp140
g10
F1.6000000000000001
ssVcom.android.mms
p141
(dp142
g10
F0.40000000000000002
ssVcom.chinatelecom.bestpayclient
p143
(dp144
g10
F4
sssg13
(dp145
Vcom.kingroot.kinguser
p146
(dp147
g10
F7.9000000000000012
ssVcom.android.browser
p148
(dp149
g10
F0.69999999999999996
ssVcom.tencent.mobileqq
p150
(dp151
g10
F45.600000000000009
ssVcom.android.mms
p152
(dp153
g10
I2
ssVcom.UCMobile
p154
(dp155
g10
F3.8999999999999999
ssVcom.android.phone
p156
(dp157
g10
I2
ssVcom.android.camera
p158
(dp159
g10
F0.90000000000000002
ssVcom.tencent.mm
p160
(dp161
g10
F4.2999999999999998
ssVcom.eg.android.AlipayGphone
p162
(dp163
g10
F2.7000000000000002
sssg15
(dp164
g85
(dp165
g10
F43.699999999999989
ssVcom.android.browser
p166
(dp167
g10
F1.3999999999999999
ssVcom.android.calendar
p168
(dp169
g10
F0.69999999999999996
ssg91
(dp170
g10
F12.6
ssVcom.android.packageinstaller
p171
(dp172
g10
F4.7000000000000002
ssg93
(dp173
g10
F6.4000000000000004
ssVcom.yipiao
p174
(dp175
g10
F2.8999999999999999
ssVcom.taobao.taobao
p176
(dp177
g10
F1.8999999999999999
ssVcom.android.deskclock
p178
(dp179
g10
F3.2999999999999998
ssVcom.UCMobile
p180
(dp181
g10
F7.0999999999999996
ssVcom.hunantv.imgo.activity
p182
(dp183
g10
F1.8999999999999999
ssVcom.netease.mobimail
p184
(dp185
g10
F2.7000000000000002
ssVcom.android.phone
p186
(dp187
g10
I3
ssVcom.android.camera
p188
(dp189
g10
F2.1000000000000001
ssVcom.tencent.mm
p190
(dp191
g10
F26.899999999999995
ssVcom.eg.android.AlipayGphone
p192
(dp193
g10
F3.0999999999999996
ssVcom.tencent.mobileqq
p194
(dp195
g10
F102.80000000000008
sssg17
(dp196
sg19
(dp197
Vcom.kingroot.kinguser
p198
(dp199
g10
F7.3999999999999995
ssVcom.android.browser
p200
(dp201
g10
I1
ssVcom.android.settings
p202
(dp203
g10
F1.7
ssVcom.tencent.mm
p204
(dp205
g10
F1.7000000000000002
ssVcom.android.mms
p206
(dp207
g10
I1
ssVcom.android.deskclock
p208
(dp209
g10
I1
ssVcom.android.fileexplorer
p210
(dp211
g10
I1
ssVcom.android.phone
p212
(dp213
g10
I1
ssVcom.android.camera
p214
(dp215
g10
I1
ssVcom.tencent.mobileqq
p216
(dp217
g10
F21.199999999999996
sssg21
(dp218
Vcom.youdao.dict
p219
(dp220
g10
I1
ssVcom.kingroot.kinguser
p221
(dp222
g10
F38.399999999999984
ssVcom.miui.notes
p223
(dp224
g10
F0.69999999999999996
ssg37
(dp225
g10
F0.40000000000000002
ssVcom.android.fileexplorer
p226
(dp227
g10
I1
ssg168
(dp228
g10
I1
ssVcom.tencent.mobileqq
p229
(dp230
g10
F33.599999999999994
ssVcom.moji.mjweather
p231
(dp232
g10
F2.1000000000000001
ssVcom.android.mms
p233
(dp234
g10
F10.9
ssVcom.youku.phone
p235
(dp236
g10
I1
ssVcom.UCMobile
p237
(dp238
g10
F1.6000000000000001
ssVcom.netease.mobimail
p239
(dp240
g10
I2
ssVcom.android.phone
p241
(dp242
g10
I4
ssVcom.chinamworld.main
p243
(dp244
g10
F1.7
ssVcom.tencent.mm
p245
(dp246
g10
F8.0999999999999996
ssVcom.android.settings
p247
(dp248
g10
F2.8999999999999999
sssg23
(dp249
Vcom.android.browser
p250
(dp251
g10
F11.000000000000002
ssVcom.moji.mjweather
p252
(dp253
g10
I1
ssVcom.youku.phone
p254
(dp255
g10
F5.7000000000000011
ssVcom.comingx.athit
p256
(dp257
g10
F3.6999999999999997
ssg208
(dp258
g10
F1.8999999999999999
ssVcom.netease.mobimail
p259
(dp260
g10
F2.6999999999999997
ssg29
(dp261
g10
F1.1000000000000001
ssVcom.youdao.dict
p262
(dp263
g10
F5.4000000000000004
ssVcom.zhihu.android
p264
(dp265
g10
F6.1000000000000005
ssg37
(dp266
g10
I1
ssg41
(dp267
g10
I1
ssg43
(dp268
g10
F11.700000000000001
ssVcom.sankuai.meituan
p269
(dp270
g10
I1
ssVcom.taobao.taobao
p271
(dp272
g10
I2
ssg51
(dp273
g10
F1.7000000000000002
ssVcom.android.phone
p274
(dp275
g10
F27.299999999999994
ssVcom.miui.gallery
p276
(dp277
g10
F1.7
ssVcom.tencent.mm
p278
(dp279
g10
F98.600000000000122
ssg59
(dp280
g10
F1.3
ssVcom.android.calculator
p281
(dp282
g10
F4.7000000000000002
ssg69
(dp283
g10
F1.3
ssg127
(dp284
g10
I1
ssVcom.yipiao
p285
(dp286
g10
F10.199999999999999
ssVcom.android.fileexplorer
p287
(dp288
g10
F1.3
ssg77
(dp289
g10
F0.90000000000000002
ssVcom.tencent.mobileqq
p290
(dp291
g10
F401.59999999999854
ssVcom.kingroot.kinguser
p292
(dp293
g10
F195.20000000000013
ssVcom.miui.notes
p294
(dp295
g10
F19.199999999999999
ssVcom.miui.networkassistant
p296
(dp297
g10
F3.8999999999999999
ssVcom.android.settings
p298
(dp299
g10
F22.599999999999994
ssVcom.android.mms
p300
(dp301
g10
F54.800000000000004
ssg95
(dp302
g10
F1.7
ssg99
(dp303
g10
F2
ssVcom.android.camera
p304
(dp305
g10
F6.6000000000000005
ssg109
(dp306
g10
F1.3
sssg25
(dp307
Vcom.kingroot.kinguser
p308
(dp309
g10
F4.1999999999999993
ssVcom.youku.phone
p310
(dp311
g10
F2.7000000000000002
ssVcom.UCMobile
p312
(dp313
g10
I1
ssVcom.tencent.mobileqq
p314
(dp315
g10
F110.90000000000013
ssVcom.android.mms
p316
(dp317
g10
F0.69999999999999996
ssVcom.baidu.input
p318
(dp319
g10
I1
ssVcom.taobao.taobao
p320
(dp321
g10
I1
ssVcom.android.fileexplorer
p322
(dp323
g10
F2.6000000000000001
ssVcom.yipiao
p324
(dp325
g10
I1
ssVcom.android.phone
p326
(dp327
g10
F0.90000000000000002
ssVcom.tencent.mm
p328
(dp329
g10
F4.7000000000000002
ssVcom.android.settings
p330
(dp331
g10
F0.90000000000000002
sssg27
(dp332
Vcom.kingroot.kinguser
p333
(dp334
g10
F11.800000000000001
ssVcom.moji.mjweather
p335
(dp336
g10
F2.3999999999999999
ssVcom.miui.notes
p337
(dp338
g10
I1
ssVcom.youku.phone
p339
(dp340
g10
I2
ssVcom.android.browser
p341
(dp342
g10
I1
ssVcom.android.calculator
p343
(dp344
g10
I2
ssVcom.tencent.mm
p345
(dp346
g10
F6.5000000000000009
ssVcom.android.settings
p347
(dp348
g10
F1.8999999999999999
ssVcom.android.mms
p349
(dp350
g10
I2
ssVcom.android.deskclock
p351
(dp352
g10
I1
ssg237
(dp353
g10
F2.2999999999999998
ssVcom.android.phone
p354
(dp355
g10
I1
ssVcom.tencent.mobileqq
p356
(dp357
g10
F18.099999999999998
ssVcom.miui.networkassistant
p358
(dp359
g10
F1.7
ssg37
(dp360
g10
F4.4000000000000004
sssg29
(dp361
Vcom.kingroot.kinguser
p362
(dp363
g10
F31.79999999999999
ssVcom.android.fileexplorer
p364
(dp365
g10
F1.7
ssVcom.tencent.mm
p366
(dp367
g10
F12.6
ssVcom.android.packageinstaller
p368
(dp369
g10
F0.40000000000000002
ssVcom.android.mms
p370
(dp371
g10
F16.299999999999997
ssVcom.yipiao
p372
(dp373
g10
F0.90000000000000002
ssVcom.taobao.taobao
p374
(dp375
g10
F4.0999999999999996
ssVcom.android.deskclock
p376
(dp377
g10
I1
ssVcom.UCMobile
p378
(dp379
g10
F4.2000000000000002
ssVcom.hunantv.imgo.activity
p380
(dp381
g10
F2.6000000000000001
ssVcom.android.phone
p382
(dp383
g10
F4.6000000000000005
ssg314
(dp384
g10
F28.699999999999996
sssg31
(dp385
Vcom.kingroot.kinguser
p386
(dp387
g10
F7.6000000000000014
ssVcom.tencent.mobileqq
p388
(dp389
g10
F0.69999999999999996
ssVcom.android.mms
p390
(dp391
g10
I1
ssVcom.UCMobile
p392
(dp393
g10
F3.7000000000000002
ssVcom.android.phone
p394
(dp395
g10
I1
ssVcom.android.camera
p396
(dp397
g10
F0.90000000000000002
ssVcom.tencent.mm
p398
(dp399
g10
I2
sssg33
(dp400
Vcom.kingroot.kinguser
p401
(dp402
g10
F8.4000000000000004
ssVcom.miui.networkassistant
p403
(dp404
g10
F1.8
ssVcom.android.settings
p405
(dp406
g10
F1.7
ssVcom.comingx.athit
p407
(dp408
g10
F0.69999999999999996
ssVcom.android.mms
p409
(dp410
g10
F2.2999999999999998
ssVcom.taobao.taobao
p411
(dp412
g10
I1
ssVcom.UCMobile
p413
(dp414
g10
F5.3000000000000007
ssg259
(dp415
g10
F1.7
ssVcom.tencent.mm
p416
(dp417
g10
F11.000000000000002
ssVcom.tencent.mobileqq
p418
(dp419
g10
F15
sssg35
(dp420
Vcom.android.mms
p421
(dp422
g10
F3.2999999999999998
ssVcom.tencent.mm
p423
(dp424
g10
F1.7
ssVcom.tencent.mobileqq
p425
(dp426
g10
I2
ssVcom.eg.android.AlipayGphone
p427
(dp428
g10
F3
sssg37
(dp429
Vcom.kingroot.kinguser
p430
(dp431
g10
F4.5
ssVcom.android.fileexplorer
p432
(dp433
g10
F1.7
ssVcom.android.mms
p434
(dp435
g10
I1
ssVcom.UCMobile
p436
(dp437
g10
I1
ssVcom.netease.mobimail
p438
(dp439
g10
I3
ssVcom.android.phone
p440
(dp441
g10
I1
ssVcom.tencent.mobileqq
p442
(dp443
g10
F7.2000000000000002
sssg39
(dp444
Vcom.kingroot.kinguser
p445
(dp446
g10
F1.3
ssVcom.android.packageinstaller
p447
(dp448
g10
F1.3
ssVcom.android.mms
p449
(dp450
g10
F0.40000000000000002
ssVcom.chinatelecom.bestpayclient
p451
(dp452
g10
F5.1000000000000005
sssg41
(dp453
Vcom.android.settings
p454
(dp455
g10
F1.7
ssVcom.UCMobile
p456
(dp457
g10
F0.90000000000000002
sssg43
(dp458
Vcom.kingroot.kinguser
p459
(dp460
g10
F7.0000000000000018
ssg69
(dp461
g10
F1.7
ssVcom.youku.phone
p462
(dp463
g10
F2.7000000000000002
ssg287
(dp464
g10
F0.69999999999999996
ssg298
(dp465
g10
F4.4000000000000004
ssVcom.eg.android.AlipayGphone
p466
(dp467
g10
F1.3
ssg19
(dp468
g10
F1.7
ssg449
(dp469
g10
F1.8
ssVcom.UCMobile
p470
(dp471
g10
F3.8999999999999999
ssg51
(dp472
g10
F2.3999999999999999
ssg77
(dp473
g10
I1
ssg63
(dp474
g10
F1.7
ssg41
(dp475
g10
F0.69999999999999996
ssg99
(dp476
g10
F1.8999999999999999
ssVcom.zhihu.android
p477
(dp478
g10
F0.69999999999999996
ssg107
(dp479
g10
F1.7
ssg39
(dp480
g10
F1.3
ssVcom.tencent.mm
p481
(dp482
g10
I1
ssg109
(dp483
g10
F7.4000000000000004
ssVcom.tencent.mobileqq
p484
(dp485
g10
F1.7000000000000002
sssg45
(dp486
Vcom.kingroot.kinguser
p487
(dp488
g10
F16.199999999999999
ssVcom.miui.networkassistant
p489
(dp490
g10
I1
ssVcom.tencent.mm
p491
(dp492
g10
F11
ssVcom.android.packageinstaller
p493
(dp494
g10
I1
ssVcom.android.mms
p495
(dp496
g10
F3.6000000000000001
ssVcom.taobao.taobao
p497
(dp498
g10
F1.7
ssVcom.yipiao
p499
(dp500
g10
I1
ssVcom.netease.mobimail
p501
(dp502
g10
F1.7
ssVcom.android.phone
p503
(dp504
g10
F2.8999999999999999
ssVcom.android.camera
p505
(dp506
g10
F1.7
ssg63
(dp507
g10
F1.3
ssVcom.tencent.mobileqq
p508
(dp509
g10
F21.499999999999996
ssVcom.android.settings
p510
(dp511
g10
I1
sssg47
(dp512
Vcom.kingroot.kinguser
p513
(dp514
g10
F35.600000000000001
ssVcom.sankuai.meituan
p515
(dp516
g10
F1.7
ssVcom.youku.phone
p517
(dp518
g10
F1.8999999999999999
ssVcom.android.calculator
p519
(dp520
g10
I1
ssVcom.tencent.mobileqq
p521
(dp522
g10
F73.600000000000037
ssVcom.moji.mjweather
p523
(dp524
g10
F1.8999999999999999
ssg152
(dp525
g10
F0.90000000000000002
ssVcom.UCMobile
p526
(dp527
g10
I2
ssVcom.android.phone
p528
(dp529
g10
F3.7000000000000002
ssVcom.android.camera
p530
(dp531
g10
F9.0999999999999996
ssVcom.tencent.mm
p532
(dp533
g10
F7.4000000000000012
ssVcom.eg.android.AlipayGphone
p534
(dp535
g10
F3.3999999999999999
ssVcom.android.settings
p536
(dp537
g10
F0.90000000000000002
sssg49
(dp538
Vcom.kingroot.kinguser
p539
(dp540
g10
F3.8999999999999999
ssVcom.miui.networkassistant
p541
(dp542
g10
F0.90000000000000002
ssVcom.android.settings
p543
(dp544
g10
I2
ssVcom.comingx.athit
p545
(dp546
g10
F0.90000000000000002
ssVcom.UCMobile
p547
(dp548
g10
I3
ssVcom.tencent.mm
p549
(dp550
g10
F1.7
ssVcom.eg.android.AlipayGphone
p551
(dp552
g10
I1
ssVcom.tencent.mobileqq
p553
(dp554
g10
F3.5999999999999996
sssg51
(dp555
Vcom.kingroot.kinguser
p556
(dp557
g10
F7.4000000000000004
sssg53
(dp558
Vcom.sankuai.meituan
p559
(dp560
g10
F2.7000000000000002
ssVcom.youku.phone
p561
(dp562
g10
F3
ssVcom.android.deskclock
p563
(dp564
g10
F5.7000000000000002
ssVcom.UCMobile
p565
(dp566
g10
F18.499999999999996
ssVcom.hunantv.imgo.activity
p567
(dp568
g10
F1.8999999999999999
ssVcom.netease.mobimail
p569
(dp570
g10
F3.4000000000000004
ssVcom.eg.android.AlipayGphone
p571
(dp572
g10
F5.3000000000000007
ssVcom.chinamworld.main
p573
(dp574
g10
F1.6000000000000001
ssVcom.android.packageinstaller
p575
(dp576
g10
F0.40000000000000002
ssVcom.moji.mjweather
p577
(dp578
g10
F3.7000000000000002
ssVcom.taobao.taobao
p579
(dp580
g10
F2.0999999999999996
ssVcom.miui.gallery
p581
(dp582
g10
F0.90000000000000002
ssg83
(dp583
g10
F124.80000000000008
ssVcom.miui.antispam
p584
(dp585
g10
F0.90000000000000002
ssg49
(dp586
g10
I1
ssVcom.tencent.mm
p587
(dp588
g10
F58.799999999999976
ssVcom.baidu.input
p589
(dp590
g10
F2.1000000000000001
ssVcom.android.camera
p591
(dp592
g10
F4
ssVcom.kingroot.kinguser
p593
(dp594
g10
F181.90000000000023
ssVcom.miui.notes
p595
(dp596
g10
F2.3999999999999999
ssVcom.android.calendar
p597
(dp598
g10
I1
ssVcom.android.settings
p599
(dp600
g10
F16.200000000000003
ssVcom.android.mms
p601
(dp602
g10
F49.799999999999983
ssVcom.miui.networkassistant
p603
(dp604
g10
F4.2000000000000002
ssVcom.miui.yellowpage
p605
(dp606
g10
I1
sssg55
(dp607
Vcom.kingroot.kinguser
p608
(dp609
g10
F4
ssVcom.youku.phone
p610
(dp611
g10
F0.90000000000000002
ssVcom.tencent.mobileqq
p612
(dp613
g10
F8.1999999999999993
ssVcom.yipiao
p614
(dp615
g10
F1.3
ssVcom.android.fileexplorer
p616
(dp617
g10
I1
ssVcom.android.camera
p618
(dp619
g10
I2
ssVcom.tencent.mm
p620
(dp621
g10
F2.7999999999999998
sssg57
(dp622
g166
(dp623
g10
F2.3999999999999999
ssg13
(dp624
g10
F4.4000000000000004
ssVcom.youku.phone
p625
(dp626
g10
F27.499999999999996
ssg17
(dp627
g10
F1.8999999999999999
ssVcom.comingx.athit
p628
(dp629
g10
F6.5
ssVcom.android.deskclock
p630
(dp631
g10
F6.8999999999999995
ssVcom.UCMobile
p632
(dp633
g10
F100.90000000000015
ssVcom.hunantv.imgo.activity
p634
(dp635
g10
F6.9000000000000012
ssVcom.netease.mobimail
p636
(dp637
g10
F5.8000000000000007
ssVcom.eg.android.AlipayGphone
p638
(dp639
g10
F29.799999999999994
ssVcom.youdao.dict
p640
(dp641
g10
I1
ssVcom.zhihu.android
p642
(dp643
g10
F10.900000000000002
ssg573
(dp644
g10
F2.8999999999999999
ssg43
(dp645
g10
F5
ssVcom.moji.mjweather
p646
(dp647
g10
F12
ssg47
(dp648
g10
F7.1000000000000014
ssVcom.android.phone
p649
(dp650
g10
F39.700000000000003
ssg55
(dp651
g10
I2
ssVcom.tencent.mobileqq
p652
(dp653
g10
F985.70000000000368
ssVcom.miui.antispam
p654
(dp655
g10
F1.7
ssg65
(dp656
g10
F1.7
ssg67
(dp657
g10
F3.4000000000000004
ssVcom.baidu.input
p658
(dp659
g10
F1.7
ssVcom.yipiao
p660
(dp661
g10
F11.899999999999999
ssVcom.android.fileexplorer
p662
(dp663
g10
F5.6000000000000005
ssVcom.happyelements.AndroidAnimal
p664
(dp665
g10
F4.5999999999999996
ssVcom.kingroot.kinguser
p666
(dp667
g10
F513.39999999999861
ssg87
(dp668
g10
F3.5999999999999996
ssVcom.android.calendar
p669
(dp670
g10
F4.1999999999999993
ssg298
(dp671
g10
F27.099999999999998
ssVcom.android.mms
p672
(dp673
g10
F61.100000000000001
ssg296
(dp674
g10
F1.1000000000000001
ssg188
(dp675
g10
F19.199999999999996
ssg107
(dp676
g10
F1.3
sssg59
(dp677
Vcom.kingroot.kinguser
p678
(dp679
g10
I2
ssg603
(dp680
g10
F0.90000000000000002
ssVcom.android.settings
p681
(dp682
g10
I1
ssg515
(dp683
g10
F1.7000000000000002
ssVcom.android.mms
p684
(dp685
g10
F3.4000000000000004
ssVcom.taobao.taobao
p686
(dp687
g10
F3.3999999999999999
ssVcom.UCMobile
p688
(dp689
g10
F2.2000000000000002
ssVcom.android.camera
p690
(dp691
g10
F1.3
ssVcom.tencent.mobileqq
p692
(dp693
g10
F4.4000000000000004
ssVcom.eg.android.AlipayGphone
p694
(dp695
g10
F0.69999999999999996
sssg61
(dp696
Vcom.kingroot.kinguser
p697
(dp698
g10
I1
ssVcom.bestpay.creditcard
p699
(dp700
g10
F1.3
ssVcom.chinatelecom.bestpayclient
p701
(dp702
g10
F1.7
sssg63
(dp703
Vcom.UCMobile
p704
(dp705
g10
F1.7
ssVcom.kingroot.kinguser
p706
(dp707
g10
F2.7000000000000002
ssVcom.android.packageinstaller
p708
(dp709
g10
F1.3
ssVcom.android.settings
p710
(dp711
g10
I1
sssg65
(dp712
Vcom.kingroot.kinguser
p713
(dp714
g10
I1
ssVcom.tencent.mobileqq
p715
(dp716
g10
F3.3999999999999999
ssg625
(dp717
g10
I1
sssg67
(dp718
Vcom.kingroot.kinguser
p719
(dp720
g10
I1
sssg69
(dp721
Vcom.kingroot.kinguser
p722
(dp723
g10
I1
ssg466
(dp724
g10
I1
sssg71
(dp725
Vcom.miui.notes
p726
(dp727
g10
F0.90000000000000002
ssVcom.tencent.mobileqq
p728
(dp729
g10
F5
ssVcom.android.mms
p730
(dp731
g10
F0.90000000000000002
ssVcom.UCMobile
p732
(dp733
g10
I1
ssVcom.hunantv.imgo.activity
p734
(dp735
g10
F1.7
ssVcom.android.phone
p736
(dp737
g10
I1
ssVcom.tencent.mm
p738
(dp739
g10
F1.8
ssg571
(dp740
g10
F0.90000000000000002
sssg73
(dp741
Vcom.kingroot.kinguser
p742
(dp743
g10
F6.7999999999999998
ssVcom.youku.phone
p744
(dp745
g10
F1.7
ssVcom.android.calendar
p746
(dp747
g10
I1
ssVcom.tencent.mobileqq
p748
(dp749
g10
F29.899999999999988
ssg368
(dp750
g10
F0.90000000000000002
ssVcom.moji.mjweather
p751
(dp752
g10
I1
ssg316
(dp753
g10
F0.90000000000000002
ssVcom.UCMobile
p754
(dp755
g10
F8.7000000000000011
ssg77
(dp756
g10
F0.69999999999999996
ssVcom.android.camera
p757
(dp758
g10
I1
ssVcom.miui.gallery
p759
(dp760
g10
F1.7
ssVcom.tencent.mm
p761
(dp762
g10
F8.5
ssg638
(dp763
g10
F0.69999999999999996
sssg75
(dp764
Vcom.kingroot.kinguser
p765
(dp766
g10
F6.8000000000000007
ssVcn.wps.moffice_eng
p767
(dp768
g10
F1.7
ssVcom.android.settings
p769
(dp770
g10
F2.8999999999999999
ssVcom.youku.phone
p771
(dp772
g10
F1.3
ssVcom.android.camera
p773
(dp774
g10
I1
ssVcom.miui.gallery
p775
(dp776
g10
F2.7000000000000002
ssVcom.tencent.mm
p777
(dp778
g10
F4.5
ssg29
(dp779
g10
F2
ssVcom.tencent.mobileqq
p780
(dp781
g10
F15.899999999999999
sssg77
(dp782
Vcom.tencent.mm
p783
(dp784
g10
F1.3
ssVcom.tencent.mobileqq
p785
(dp786
g10
F1.7
sssg79
(dp787
Vcom.kingroot.kinguser
p788
(dp789
g10
F69.300000000000026
ssVcom.miui.notes
p790
(dp791
g10
I1
ssVcom.youku.phone
p792
(dp793
g10
F2.2999999999999998
ssVcom.android.fileexplorer
p794
(dp795
g10
F1.3
ssVcom.android.browser
p796
(dp797
g10
F1.7
ssVcom.tencent.mm
p798
(dp799
g10
F15.300000000000002
ssVcom.android.mms
p800
(dp801
g10
F4.7000000000000002
ssVcom.taobao.taobao
p802
(dp803
g10
F2.7000000000000002
ssVcom.android.deskclock
p804
(dp805
g10
I1
ssVcom.UCMobile
p806
(dp807
g10
F5.5
ssVcom.netease.mobimail
p808
(dp809
g10
F1.7
ssVcom.android.settings
p810
(dp811
g10
F1.3
ssVcom.miui.gallery
p812
(dp813
g10
F1.7
ssVcom.tencent.mobileqq
p814
(dp815
g10
F25.799999999999997
sssg81
(dp816
Vcom.tencent.mobileqq
p817
(dp818
g10
F2.6000000000000001
ssVcom.tencent.mm
p819
(dp820
g10
F3.7999999999999998
ssVcom.youku.phone
p821
(dp822
g10
F1.7
ssVcom.yipiao
p823
(dp824
g10
F1.1000000000000001
ssg166
(dp825
g10
F1.3
sssg83
(dp826
Vcom.android.browser
p827
(dp828
g10
F9.1999999999999993
ssVcom.moji.mjweather
p829
(dp830
g10
F22.699999999999996
ssVcom.youku.phone
p831
(dp832
g10
F99.000000000000099
ssVcom.comingx.athit
p833
(dp834
g10
F27.899999999999995
ssg21
(dp835
g10
F16.800000000000001
ssVcom.UCMobile
p836
(dp837
g10
F394.99999999999858
ssVcom.hunantv.imgo.activity
p838
(dp839
g10
F98.300000000000097
ssg27
(dp840
g10
F25.099999999999991
ssVcom.eg.android.AlipayGphone
p841
(dp842
g10
F31.999999999999993
ssVcom.youdao.dict
p843
(dp844
g10
I4
ssg264
(dp845
g10
F10.6
ssg35
(dp846
g10
F2.2999999999999998
ssg37
(dp847
g10
F8.2000000000000011
ssg368
(dp848
g10
F2
ssg13
(dp849
g10
F48.800000000000004
ssVcom.taobao.taobao
p850
(dp851
g10
F71.100000000000037
ssVcom.android.phone
p852
(dp853
g10
F105.00000000000003
ssVcom.miui.gallery
p854
(dp855
g10
F5.0000000000000009
ssVcom.tencent.mm
p856
(dp857
g10
F1139.0000000000086
ssg59
(dp858
g10
F3.4000000000000004
ssg65
(dp859
g10
F6.4000000000000012
ssVcom.android.calculator
p860
(dp861
g10
F7.1000000000000005
ssg71
(dp862
g10
F6.6000000000000005
ssg660
(dp863
g10
F33.799999999999997
ssg322
(dp864
g10
F14.6
ssg77
(dp865
g10
F0.40000000000000002
ssg105
(dp866
g10
F3.4000000000000004
ssVcom.happyelements.AndroidAnimal
p867
(dp868
g10
F3.4000000000000004
ssVcom.kingroot.kinguser
p869
(dp870
g10
F775.59999999999798
ssVcom.miui.notes
p871
(dp872
g10
F11.200000000000001
ssg89
(dp873
g10
F10.700000000000001
ssVcom.android.settings
p874
(dp875
g10
F50.699999999999996
ssVcom.android.mms
p876
(dp877
g10
F157.70000000000005
ssVcom.miui.voiceassist
p878
(dp879
g10
F1.3
ssVcom.miui.networkassistant
p880
(dp881
g10
F8.1000000000000014
ssg103
(dp882
g10
F1.8999999999999999
ssVcom.android.camera
p883
(dp884
g10
F44.700000000000003
ssVcom.innorz.venus
p885
(dp886
g10
F5.7999999999999998
sssg85
(dp887
g796
(dp888
g10
F6.9000000000000012
ssg699
(dp889
g10
F0.69999999999999996
ssVcom.sankuai.meituan
p890
(dp891
g10
F7.9000000000000004
ssVcom.youku.phone
p892
(dp893
g10
F24.599999999999998
ssVcom.android.updater
p894
(dp895
g10
I1
ssg19
(dp896
g10
F1.8999999999999999
ssVcom.android.deskclock
p897
(dp898
g10
F8.9000000000000004
ssVcom.UCMobile
p899
(dp900
g10
F71
ssVcom.hunantv.imgo.activity
p901
(dp902
g10
I2
ssg27
(dp903
g10
F8.8000000000000007
ssVcom.eg.android.AlipayGphone
p904
(dp905
g10
F15.299999999999999
ssVcom.youdao.dict
p906
(dp907
g10
F1.3
ssVcom.zhihu.android
p908
(dp909
g10
F2.3999999999999999
ssg243
(dp910
g10
F1.6000000000000001
ssg767
(dp911
g10
F0.40000000000000002
ssg43
(dp912
g10
F3.6999999999999997
ssg45
(dp913
g10
F4.6000000000000005
ssVcom.taobao.taobao
p914
(dp915
g10
F18.100000000000001
ssg281
(dp916
g10
F2.3999999999999999
ssVme.ele
p917
(dp918
g10
F4.4000000000000004
ssg53
(dp919
g10
F41.59999999999998
ssVcom.xindaoapp.miaodaiepay
p920
(dp921
g10
I1
ssVcom.tencent.mm
p922
(dp923
g10
F262.19999999999999
ssVcom.miui.antispam
p924
(dp925
g10
F2.7000000000000002
ssVcom.sankuai.meituan.takeoutnew
p926
(dp927
g10
I1
ssVcom.tencent.androidqqmail
p928
(dp929
g10
F1.7
ssg67
(dp930
g10
F1.8999999999999999
ssg658
(dp931
g10
F2.5
ssVcom.yipiao
p932
(dp933
g10
F5.6000000000000005
ssVcom.android.fileexplorer
p934
(dp935
g10
F6.2999999999999998
ssg105
(dp936
g10
F0.90000000000000002
ssg867
(dp937
g10
F1.6000000000000001
ssVcom.tencent.mobileqq
p938
(dp939
g10
F324.89999999999947
ssg775
(dp940
g10
F1.3
ssg871
(dp941
g10
F6.1000000000000005
ssVcom.android.calendar
p942
(dp943
g10
F4.0999999999999996
ssVcom.android.settings
p944
(dp945
g10
F30.599999999999987
ssVcom.android.mms
p946
(dp947
g10
F81.600000000000023
ssg97
(dp948
g10
F2.2999999999999998
ssg99
(dp949
g10
F1.1000000000000001
ssVcom.android.camera
p950
(dp951
g10
F20.599999999999998
ssg885
(dp952
g10
F2.7999999999999998
ssVcom.chinatelecom.bestpayclient
p953
(dp954
g10
F8
sssg87
(dp955
Vcom.kingroot.kinguser
p956
(dp957
g10
F17.199999999999996
ssVcom.android.browser
p958
(dp959
g10
F2.7000000000000002
ssVcom.tencent.mobileqq
p960
(dp961
g10
F7.9000000000000004
ssVcom.android.mms
p962
(dp963
g10
F3.7999999999999998
ssVcom.UCMobile
p964
(dp965
g10
F14.1
ssVcom.android.phone
p966
(dp967
g10
I2
ssg276
(dp968
g10
F1.3
ssVcom.tencent.mm
p969
(dp970
g10
F3.5
sssg89
(dp971
Vcom.kingroot.kinguser
p972
(dp973
g10
F10.5
ssVcom.tencent.mobileqq
p974
(dp975
g10
F7.3000000000000007
ssg372
(dp976
g10
F0.40000000000000002
ssg836
(dp977
g10
F1.8999999999999999
ssVcom.android.phone
p978
(dp979
g10
I1
ssVcom.tencent.mm
p980
(dp981
g10
F4.0999999999999996
ssg638
(dp982
g10
F0.90000000000000002
sssg91
(dp983
g771
(dp984
g10
F8.8000000000000007
ssg256
(dp985
g10
F0.69999999999999996
ssVcom.android.deskclock
p986
(dp987
g10
I1
ssg964
(dp988
g10
F23.099999999999994
ssg380
(dp989
g10
F0.40000000000000002
ssg569
(dp990
g10
F2.5999999999999996
ssg29
(dp991
g10
F8.9000000000000021
ssVcom.zhihu.android
p992
(dp993
g10
F2.2000000000000002
ssg41
(dp994
g10
F1.3
ssVcom.android.packageinstaller
p995
(dp996
g10
I1
ssg45
(dp997
g10
F1.3
ssVcom.android.phone
p998
(dp999
g10
F10.5
ssVcom.tencent.mobileqq
p1000
(dp1001
g10
F40.999999999999986
ssg584
(dp1002
g10
I1
ssVcom.android.calculator
p1003
(dp1004
g10
F0.69999999999999996
ssg287
(dp1005
g10
I3
ssg85
(dp1006
g10
F26.299999999999997
ssg87
(dp1007
g10
I1
ssg97
(dp1008
g10
F17.100000000000001
ssVcom.tencent.mm
p1009
(dp1010
g10
F25.199999999999996
ssVcom.android.mms
p1011
(dp1012
g10
F2.3999999999999999
ssVcom.android.camera
p1013
(dp1014
g10
F0.69999999999999996
ssVcom.innorz.venus
p1015
(dp1016
g10
I1
sssg93
(dp1017
Vcom.android.browser
p1018
(dp1019
g10
F6.2999999999999998
ssVcom.bestpay.creditcard
p1020
(dp1021
g10
F1.3
ssg231
(dp1022
g10
F1.8
ssVcom.youku.phone
p1023
(dp1024
g10
I1
ssVcom.comingx.athit
p1025
(dp1026
g10
I1
ssVcom.android.deskclock
p1027
(dp1028
g10
F6.4000000000000004
ssVcom.UCMobile
p1029
(dp1030
g10
F40.200000000000003
ssVcom.netease.mobimail
p1031
(dp1032
g10
F3.2999999999999998
ssVcom.eg.android.AlipayGphone
p1033
(dp1034
g10
F11.200000000000001
ssg264
(dp1035
g10
F0.90000000000000002
ssVcom.android.packageinstaller
p1036
(dp1037
g10
F2.1000000000000001
ssg559
(dp1038
g10
I3
ssVcom.taobao.taobao
p1039
(dp1040
g10
F1.7000000000000002
ssVcom.android.phone
p1041
(dp1042
g10
F22.799999999999997
ssg1009
(dp1043
g10
F40.899999999999984
ssVcom.miui.antispam
p1044
(dp1045
g10
I1
ssVcom.baidu.input
p1046
(dp1047
g10
F0.90000000000000002
ssVcom.tencent.mobileqq
p1048
(dp1049
g10
F135.10000000000008
ssg85
(dp1050
g10
F187.20000000000019
ssVcom.miui.notes
p1051
(dp1052
g10
F3.2999999999999998
ssVcom.android.calendar
p1053
(dp1054
g10
I2
ssg91
(dp1055
g10
F7.9000000000000012
ssg878
(dp1056
g10
I1
ssg97
(dp1057
g10
F1.3999999999999999
ssg101
(dp1058
g10
I1
ssg79
(dp1059
g10
F5.9000000000000004
ssVcom.chinatelecom.bestpayclient
p1060
(dp1061
g10
F6.1000000000000005
sssg95
(dp1062
Vcom.UCMobile
p1063
(dp1064
g10
F1.8999999999999999
ssVcom.android.mms
p1065
(dp1066
g10
I1
sssg97
(dp1067
Vcom.kingroot.kinguser
p1068
(dp1069
g10
F6.9000000000000004
ssg992
(dp1070
g10
F1.7
ssVcom.android.settings
p1071
(dp1072
g10
F4.7000000000000002
ssg894
(dp1073
g10
F0.90000000000000002
ssg45
(dp1074
g10
I1
ssg324
(dp1075
g10
F0.40000000000000002
ssVcom.UCMobile
p1076
(dp1077
g10
F0.90000000000000002
ssg901
(dp1078
g10
F0.69999999999999996
ssg259
(dp1079
g10
F0.90000000000000002
ssVcom.android.phone
p1080
(dp1081
g10
F3.1999999999999997
ssVcom.tencent.mobileqq
p1082
(dp1083
g10
F3.8999999999999999
ssg694
(dp1084
g10
I1
sssg99
(dp1085
g477
(dp1086
g10
F1.8999999999999999
ssVcom.tencent.mobileqq
p1087
(dp1088
g10
F2
ssVcom.UCMobile
p1089
(dp1090
g10
F1.1000000000000001
sssg101
(dp1091
sg103
(dp1092
sg105
(dp1093
Vcom.miui.notes
p1094
(dp1095
g10
F1.3
ssVcom.android.browser
p1096
(dp1097
g10
I1
ssVcom.tencent.mm
p1098
(dp1099
g10
F1.3
ssVcom.tencent.mobileqq
p1100
(dp1101
g10
F4.4000000000000004
sssg107
(dp1102
Vcom.android.settings
p1103
(dp1104
g10
I1
ssVcom.tencent.mm
p1105
(dp1106
g10
F2.6000000000000001
ssVcom.sankuai.meituan
p1107
(dp1108
g10
I1
ssg484
(dp1109
g10
F2.7000000000000002
ssVcom.kingroot.kinguser
p1110
(dp1111
g10
F5.9000000000000004
sssg109
(dp1112
Vcom.kingroot.kinguser
p1113
(dp1114
g10
F13.4
ssg11
(dp1115
g10
F3.7000000000000002
ssg1036
(dp1116
g10
F11.799999999999999
ssVcom.android.mms
p1117
(dp1118
g10
F9.5
ssVcom.tencent.mobileqq
p1119
(dp1120
g10
F0.90000000000000002
ssg39
(dp1121
g10
F3.7999999999999998
ssssS'edge'
p1122
g115
sS'graph'
p1123
(dp1124
sS'adjlist_dict_factory'
p1125
g112
sS'adj'
p1126
g115
sS'pred'
p1127
(dp1128
g8
(dp1129
Vcom.kingroot.kinguser
p1130
g888
sg269
g149
sg119
g959
sg821
g167
sVcom.tencent.mobileqq
p1131
g828
sVcom.comingx.athit
p1132
g201
sg962
g1019
sVcom.UCMobile
p1133
g251
sVcom.netease.mobimail
p1134
g342
sVcom.miui.yellowpage
p1135
g1097
sVcom.happyelements.AndroidAnimal
p1136
g825
sg188
g797
sVcom.tencent.mm
p1137
g623
ssg11
(dp1138
g697
g889
sVcom.android.mms
p1139
g1021
sVcom.chinatelecom.bestpayclient
p1140
g1115
sg61
g700
ssg13
(dp1141
g146
g891
sVcom.tencent.mm
p1142
g624
sg601
g1038
sVcom.taobao.taobao
p1143
g516
sVcom.UCMobile
p1144
g270
sVcom.android.phone
p1145
g560
sg885
g1108
sVcom.tencent.mobileqq
p1146
g849
sg654
g683
ssg15
(dp1147
Vcom.kingroot.kinguser
p1148
g893
sVcom.yipiao
p1149
g745
sVcom.android.fileexplorer
p1150
g772
sg65
g717
sVcom.tencent.mobileqq
p1151
g832
sg171
g463
sVcom.android.mms
p1152
g1024
sVcom.taobao.taobao
p1153
g518
sVcom.android.deskclock
p1154
g236
sVcom.UCMobile
p1155
g255
sg25
g311
sVcom.netease.mobimail
p1156
g340
sVcom.android.phone
p1157
g562
sg1136
g822
sVcom.android.camera
p1158
g793
sVcom.miui.gallery
p1159
g611
sVcom.tencent.mm
p1160
g626
sg330
g984
ssg17
(dp1161
Vcom.miui.networkassistant
p1162
g1073
sVcom.kingroot.kinguser
p1163
g895
sVcom.tencent.mm
p1164
g627
ssg19
(dp1165
g459
g896
sVcom.zhihu.android
p1166
g408
sg1003
g546
sVcom.android.settings
p1167
g985
sVcom.android.packageinstaller
p1168
g468
sVcom.android.mms
p1169
g1026
sVcom.UCMobile
p1170
g257
sVcom.tencent.mm
p1171
g629
sVcom.tencent.mobileqq
p1172
g834
ssg21
(dp1173
Vcom.kingroot.kinguser
p1174
g898
sVcom.comingx.athit
p1175
g209
sVcom.youku.phone
p1176
g179
sg247
g987
sVcom.tencent.mm
p1177
g631
sVcom.android.mms
p1178
g1028
sVcom.UCMobile
p1179
g258
sVcom.netease.mobimail
p1180
g352
sVcom.android.phone
p1181
g564
sVcom.android.camera
p1182
g805
sVcom.tencent.mobileqq
p1183
g835
sVcom.eg.android.AlipayGphone
p1184
g377
ssg23
(dp1185
g250
g130
sVcom.youku.phone
p1186
g181
sVcom.android.deskclock
p1187
g238
sVcom.hunantv.imgo.activity
p1188
g313
sg1031
g353
sg638
g379
sVcom.youdao.dict
p1189
g393
sVcom.zhihu.android
p1190
g414
sg37
g437
sg41
g457
sg43
g471
sVcom.sankuai.meituan
p1191
g155
sVcom.taobao.taobao
p1192
g527
sVcom.android.phone
p1193
g566
sg974
g837
sg59
g689
sVcom.sankuai.meituan.takeoutnew
p1194
g705
sg281
g548
sg127
g733
sVcom.yipiao
p1195
g755
sg292
g900
sg87
g965
sg669
g977
sVcom.tencent.mm
p1196
g633
sVcom.android.mms
p1197
g1030
sg95
g1064
sVcom.miui.networkassistant
p1198
g1077
sg99
g1090
sVcom.android.settings
p1199
g988
sVcom.android.camera
p1200
g807
ssg25
(dp1201
Vcom.kingroot.kinguser
p1202
g902
sVcom.youku.phone
p1203
g183
sVcom.miui.networkassistant
p1204
g1078
sg769
g989
sg318
g735
sVcom.android.phone
p1205
g568
sVcom.tencent.mm
p1206
g635
sg29
g381
sVcom.tencent.mobileqq
p1207
g839
ssg27
(dp1208
Vcom.kingroot.kinguser
p1209
g903
sVcom.youku.phone
p1210
g185
sg341
g132
sVcom.miui.networkassistant
p1211
g1079
sVcom.android.settings
p1212
g990
sVcom.moji.mjweather
p1213
g502
sVcom.android.mms
p1214
g1032
sg351
g240
sVcom.UCMobile
p1215
g260
sVcom.zhihu.android
p1216
g415
sVcom.android.phone
p1217
g570
sVcom.android.camera
p1218
g809
sVcom.tencent.mm
p1219
g637
sVcn.wps.moffice_eng
p1220
g439
sVcom.tencent.mobileqq
p1221
g840
ssg29
(dp1222
Vcom.kingroot.kinguser
p1223
g905
sg69
g724
sg573
g428
sVcom.youku.phone
p1224
g193
sg287
g779
sg746
g982
sg298
g991
sVcom.android.packageinstaller
p1225
g467
sVcom.sankuai.meituan
p1226
g163
sVcom.android.mms
p1227
g1034
sg589
g740
sVcom.yipiao
p1228
g763
sg470
g261
sVcom.taobao.taobao
p1229
g535
sVcom.android.phone
p1230
g572
sVcom.android.calculator
p1231
g552
sVcom.tencent.mm
p1232
g639
sg584
g695
sg603
g1084
sVcom.tencent.mobileqq
p1233
g842
ssg31
(dp1234
Vcom.android.deskclock
p1235
g220
sVcom.tencent.mobileqq
p1236
g844
sVcom.kingroot.kinguser
p1237
g907
sVcom.tencent.mm
p1238
g641
sVcom.UCMobile
p1239
g263
ssg33
(dp1240
Vcom.kingroot.kinguser
p1241
g909
sg403
g1070
sg405
g993
sg575
g478
sVcom.tencent.mm
p1242
g643
sVcom.android.mms
p1243
g1035
sVcom.UCMobile
p1244
g265
sg99
g1086
sVcom.tencent.mobileqq
p1245
g845
ssg35
(dp1246
Vcom.android.deskclock
p1247
g244
sVcom.kingroot.kinguser
p1248
g910
sVcom.tencent.mm
p1249
g644
sVcom.tencent.mobileqq
p1250
g846
sVcom.android.phone
p1251
g574
ssg37
(dp1252
Vcom.kingroot.kinguser
p1253
g911
sVcom.android.fileexplorer
p1254
g768
sg1187
g225
sg237
g266
sg1031
g360
sVcom.tencent.mobileqq
p1255
g847
ssg39
(dp1256
g139
g480
sg143
g1121
ssg41
(dp1257
Vcom.android.settings
p1258
g994
sg995
g475
sVcom.UCMobile
p1259
g267
ssg43
(dp1260
Vcom.kingroot.kinguser
p1261
g912
sg11
g140
sVcom.youku.phone
p1262
g172
sVcom.android.browser
p1263
g124
sVcom.tencent.mm
p1264
g645
sVcom.moji.mjweather
p1265
g494
sg1117
g1037
sg372
g750
sg1258
g996
sVcom.UCMobile
p1266
g268
sg1060
g1116
sVcom.android.phone
p1267
g576
sg1194
g709
sVcom.tencent.mobileqq
p1268
g848
sg638
g369
sg39
g448
ssg45
(dp1269
g85
g913
sg97
g1074
sg91
g997
sVcom.android.mms
p1270
g1022
sVcom.taobao.taobao
p1271
g524
sVcom.android.deskclock
p1272
g232
sVcom.UCMobile
p1273
g253
sVcom.yipiao
p1274
g752
sVcom.netease.mobimail
p1275
g336
sVcom.android.phone
p1276
g578
sVcom.tencent.mm
p1277
g647
sVcom.tencent.mobileqq
p1278
g830
ssg47
(dp1279
Vcom.zhihu.android
p1280
g412
sVcom.youku.phone
p1281
g177
sVcom.kingroot.kinguser
p1282
g915
sVcom.tencent.mm
p1283
g648
sVcom.moji.mjweather
p1284
g498
sVcom.android.mms
p1285
g1040
sVcom.UCMobile
p1286
g272
sVcom.hunantv.imgo.activity
p1287
g321
sg326
g580
sg690
g803
sVcom.tencent.mobileqq
p1288
g851
sVcom.miui.antispam
p1289
g687
sVcom.eg.android.AlipayGphone
p1290
g375
ssg49
(dp1291
Vcom.kingroot.kinguser
p1292
g916
sVcom.android.settings
p1293
g1004
sVcom.taobao.taobao
p1294
g520
sVcom.UCMobile
p1295
g282
sVcom.netease.mobimail
p1296
g344
sVcom.android.phone
p1297
g586
sVcom.tencent.mobileqq
p1298
g861
ssg51
(dp1299
g704
g273
sg708
g472
sg556
g918
ssg53
(dp1300
Vcom.youdao.dict
p1301
g395
sVcom.kingroot.kinguser
p1302
g919
sVcom.sankuai.meituan
p1303
g157
sVcom.miui.notes
p1304
g967
sVcom.miui.networkassistant
p1305
g1081
sVcn.wps.moffice_eng
p1306
g441
sVcom.android.calendar
p1307
g979
sg1212
g999
sVcom.moji.mjweather
p1308
g504
sVcom.android.mms
p1309
g1042
sg589
g737
sVcom.taobao.taobao
p1310
g529
sVcom.android.deskclock
p1311
g242
sVcom.UCMobile
p1312
g275
sVcom.hunantv.imgo.activity
p1313
g327
sVcom.netease.mobimail
p1314
g355
sVcom.youku.phone
p1315
g187
sVcom.comingx.athit
p1316
g213
sVcom.tencent.mm
p1317
g650
sVcom.eg.android.AlipayGphone
p1318
g383
sVcom.tencent.mobileqq
p1319
g853
ssg55
(dp1320
Vcom.kingroot.kinguser
p1321
g940
sVcom.miui.notes
p1322
g968
sg794
g776
sVcom.tencent.mm
p1323
g651
sVcom.yipiao
p1324
g760
sVcom.UCMobile
p1325
g277
sVcom.android.phone
p1326
g582
sVcom.android.camera
p1327
g813
sVcom.tencent.mobileqq
p1328
g855
ssg57
(dp1329
g827
g137
sVcom.moji.mjweather
p1330
g492
sVcom.youku.phone
p1331
g191
sVcom.comingx.athit
p1332
g205
sVcom.android.deskclock
p1333
g246
sVcom.UCMobile
p1334
g279
sVcom.hunantv.imgo.activity
p1335
g329
sVcom.netease.mobimail
p1336
g346
sVcom.eg.android.AlipayGphone
p1337
g367
sVcom.youdao.dict
p1338
g399
sg33
g417
sVcom.chinamworld.main
p1339
g424
sg123
g482
sVcom.sankuai.meituan
p1340
g161
sVcom.taobao.taobao
p1341
g533
sg649
g588
sVcom.miui.gallery
p1342
g621
sg938
g857
sVcom.android.calculator
p1343
g550
sg71
g739
sg660
g762
sg322
g778
sVcom.tuniu.app.ui
p1344
g784
sg605
g1099
sg81
g820
sg666
g923
sg87
g970
sg669
g981
sVcom.android.settings
p1345
g1010
sVcom.android.mms
p1346
g1043
sVcom.android.camera
p1347
g799
sVcom.innorz.venus
p1348
g1106
ssg59
(dp1349
g678
g925
sVcom.android.settings
p1350
g1002
sVcom.tencent.mm
p1351
g655
sVcom.android.mms
p1352
g1045
sVcom.UCMobile
p1353
g280
sVcom.android.phone
p1354
g585
sVcom.tencent.mobileqq
p1355
g858
ssg61
(dp1356
g697
g921
ssg63
(dp1357
g706
g927
sg493
g474
sg1265
g507
ssg65
(dp1358
g1160
g656
sVcom.tencent.mobileqq
p1359
g859
sg713
g929
ssg67
(dp1360
Vcom.kingroot.kinguser
p1361
g930
sVcom.tencent.mm
p1362
g657
ssg69
(dp1363
Vcom.UCMobile
p1364
g283
sg1225
g461
ssg71
(dp1365
Vcom.android.browser
p1366
g128
sVcom.kingroot.kinguser
p1367
g931
sVcom.tencent.mobileqq
p1368
g862
sVcom.android.mms
p1369
g1047
sVcom.UCMobile
p1370
g284
sVcom.hunantv.imgo.activity
p1371
g319
sVcom.android.phone
p1372
g590
sVcom.tencent.mm
p1373
g659
ssg73
(dp1374
Vcom.kingroot.kinguser
p1375
g933
sg1204
g1075
sg746
g976
sVcom.tencent.mm
p1376
g661
sg751
g500
sVcom.UCMobile
p1377
g286
sg901
g325
sg81
g824
sg759
g615
sVcom.tencent.mobileqq
p1378
g863
sg638
g373
sVcom.youku.phone
p1379
g175
ssg75
(dp1380
Vcom.kingroot.kinguser
p1381
g935
sg767
g433
sVcom.tencent.mobileqq
p1382
g864
sg43
g464
sVcom.comingx.athit
p1383
g211
sVcom.android.deskclock
p1384
g227
sVcom.UCMobile
p1385
g288
sVcom.hunantv.imgo.activity
p1386
g323
sg298
g1005
sVcom.android.camera
p1387
g795
sg775
g617
sVcom.tencent.mm
p1388
g663
sVcom.eg.android.AlipayGphone
p1389
g365
ssg77
(dp1390
g378
g289
sg368
g473
sg1268
g865
sg372
g756
ssg79
(dp1391
g1130
g951
sVcom.comingx.athit
p1392
g215
sg1338
g397
sVcom.android.fileexplorer
p1393
g774
sVcom.tencent.mobileqq
p1394
g884
sVcom.moji.mjweather
p1395
g506
sVcom.android.mms
p1396
g1059
sVcom.taobao.taobao
p1397
g531
sVcom.android.settings
p1398
g1014
sVcom.UCMobile
p1399
g305
sVcom.yipiao
p1400
g758
sVcom.android.phone
p1401
g592
sVcom.sankuai.meituan
p1402
g159
sg581
g619
sVcom.tencent.mm
p1403
g675
sg1289
g691
sVcom.youku.phone
p1404
g189
ssg81
(dp1405
Vcom.tencent.mobileqq
p1406
g868
sVcom.tencent.mm
p1407
g665
sVcom.kingroot.kinguser
p1408
g937
ssg83
(dp1409
g8
g122
sVcom.moji.mjweather
p1410
g509
sVcom.youku.phone
p1411
g195
sg19
g217
sVcom.android.deskclock
p1412
g230
sVcom.UCMobile
p1413
g291
sg380
g315
sg636
g357
sg29
g384
sVcom.youdao.dict
p1414
g389
sg33
g419
sg243
g426
sg767
g443
sg123
g485
sg13
g151
sg411
g522
sVcom.android.phone
p1415
g583
sg55
g613
sVcom.tencent.mm
p1416
g653
sg59
g693
sVcom.tencent.androidqqmail
p1417
g716
sVcom.android.calculator
p1418
g554
sg71
g729
sVcom.yipiao
p1419
g749
sg75
g781
sg1344
g786
sVcom.miui.yellowpage
p1420
g1101
sg81
g818
sVcom.kingroot.kinguser
p1421
g939
sg871
g961
sg669
g975
sVcom.android.settings
p1422
g1001
sVcom.android.mms
p1423
g1049
sVcom.miui.networkassistant
p1424
g1083
sg99
g1088
sVcom.android.camera
p1425
g815
sg107
g1109
sVcom.chinatelecom.bestpayclient
p1426
g1120
ssg85
(dp1427
g827
g118
sVcom.sankuai.meituan
p1428
g147
sg31
g387
sg19
g199
sg21
g222
sg23
g293
sVcom.hunantv.imgo.activity
p1429
g309
sg184
g334
sg841
g363
sg15
g165
sg33
g402
sVcn.wps.moffice_eng
p1430
g431
sg1168
g460
sg1330
g488
sg1192
g514
sg860
g540
sg51
g557
sg53
g594
sg854
g609
sg57
g667
sVcom.miui.antispam
p1431
g679
sg61
g698
sg63
g707
sg1417
g714
sVcom.youdao.bigbang
p1432
g720
sVcom.baidu.lbs.waimai
p1433
g723
sg73
g743
sVcom.android.fileexplorer
p1434
g766
sVcom.TianYi
p1435
g446
sg1048
g870
sVcom.miui.notes
p1436
g957
sg89
g973
sg91
g1006
sg93
g1050
sVcom.miui.networkassistant
p1437
g1069
sg79
g789
sg1348
g1111
sg109
g1114
ssg87
(dp1438
Vcom.kingroot.kinguser
p1439
g941
sg250
g120
sg1199
g1007
sg1011
g1052
sg127
g727
sVcom.android.deskclock
p1440
g224
sVcom.UCMobile
p1441
g295
sVcom.android.camera
p1442
g791
sVcom.netease.mobimail
p1443
g338
sVcom.android.phone
p1444
g596
sg1135
g1095
sVcom.tencent.mm
p1445
g668
sVcom.tencent.mobileqq
p1446
g872
ssg89
(dp1447
g972
g943
sVcom.youku.phone
p1448
g169
sVcom.tencent.mobileqq
p1449
g873
sVcom.android.mms
p1450
g1054
sg1228
g747
sg178
g228
sVcom.android.phone
p1451
g598
sVcom.tencent.mm
p1452
g670
ssg91
(dp1453
g15
g170
sg19
g203
sVcom.android.deskclock
p1454
g248
sg1385
g299
sVcom.hunantv.imgo.activity
p1455
g331
sVcom.netease.mobimail
p1456
g348
sVcom.zhihu.android
p1457
g406
sg41
g455
sg43
g465
sVcom.moji.mjweather
p1458
g511
sVcom.taobao.taobao
p1459
g537
sVcom.android.phone
p1460
g600
sVcom.tencent.mobileqq
p1461
g875
sg584
g682
sVcom.sankuai.meituan.takeoutnew
p1462
g711
sVcom.android.calculator
p1463
g544
sg287
g770
sg85
g945
sg403
g1072
sg1264
g671
sg93
g1055
sVcom.android.camera
p1464
g811
sVcom.innorz.venus
p1465
g1104
ssg93
(dp1466
g1018
g126
sg1020
g142
sg515
g153
sg15
g173
sVcom.comingx.athit
p1467
g207
sVcom.android.deskclock
p1468
g234
sVcom.UCMobile
p1469
g301
sg901
g317
sVcom.netease.mobimail
p1470
g350
sVcom.eg.android.AlipayGphone
p1471
g371
sVcom.TianYi
p1472
g450
sVcom.zhihu.android
p1473
g410
sg573
g422
sVcn.wps.moffice_eng
p1474
g435
sg447
g469
sVcom.moji.mjweather
p1475
g496
sg1143
g525
sg1145
g602
sg1048
g877
sVcom.miui.antispam
p1476
g685
sg1414
g391
sVcom.tencent.mm
p1477
g673
sg1046
g731
sg324
g753
sVcom.kingroot.kinguser
p1478
g947
sVcom.miui.notes
p1479
g963
sVcom.android.settings
p1480
g1012
sg878
g1066
sVcom.android.camera
p1481
g801
sVcom.chinatelecom.bestpayclient
p1482
g1118
ssg95
(dp1483
Vcom.UCMobile
p1484
g302
sVcom.tencent.mobileqq
p1485
g879
sVcom.android.mms
p1486
g1056
ssg97
(dp1487
g85
g948
sg1457
g404
sVcom.android.calculator
p1488
g542
sg91
g1008
sVcom.tencent.mm
p1489
g674
sg577
g490
sg93
g1057
sVcom.UCMobile
p1490
g297
sg259
g359
sg1354
g604
sVcom.tencent.mobileqq
p1491
g881
sg584
g680
ssg99
(dp1492
Vcom.UCMobile
p1493
g303
sg575
g476
sVcom.kingroot.kinguser
p1494
g949
ssg101
(dp1495
Vcom.android.mms
p1496
g1058
ssg103
(dp1497
g8
g133
sg121
g882
ssg105
(dp1498
Vcom.kingroot.kinguser
p1499
g936
sVcom.android.phone
p1500
g606
sVcom.tencent.mobileqq
p1501
g866
sg1096
g135
ssg107
(dp1502
Vcom.tencent.mobileqq
p1503
g886
sg123
g479
sg1103
g1016
sVcom.tencent.mm
p1504
g676
sVcom.kingroot.kinguser
p1505
g952
ssg109
(dp1506
g1113
g954
sg11
g144
sVcom.android.packageinstaller
p1507
g483
sg1117
g1061
sVcom.UCMobile
p1508
g306
sg61
g702
sg39
g452
sssb.