ccopy_reg
_reconstructor
p1
(cnetworkx.classes.digraph
DiGraph
p2
c__builtin__
object
p3
NtRp4
(dp5
S'node'
p6
(dp7
Vcom.android.browser
p8
(dp9
S'weight'
p10
F0.049522634760083881
ssVcom.miui.fmradio
p11
(dp12
g10
F0.0007943752312816085
ssVcom.gamedashi.dtcq.daota
p13
(dp14
g10
F0.0013321820648822006
ssVcom.xiaomi.smarthome
p15
(dp16
g10
F4.9340076477118541e-06
ssVcom.xiaomi.hm.health
p17
(dp18
g10
F1.4802022943135562e-05
ssVcom.xiaomi.payment
p19
(dp20
g10
F0.00016282225237449117
ssVcom.sina.weibo
p21
(dp22
g10
F0.030028370543974343
ssVcom.eg.android.AlipayGphone
p23
(dp24
g10
F0.0025952880226964353
ssVcom.zhihu.android
p25
(dp26
g10
F0.0007351671395090662
ssVcom.miui.weather2
p27
(dp28
g10
F0.00028617244356728751
ssVcn.wps.moffice_eng
p29
(dp30
g10
F0.00042925866535093127
ssVcom.miui.cleanmaster
p31
(dp32
g10
F1.9736030590847416e-05
ssVcom.android.packageinstaller
p33
(dp34
g10
F0.009937091402491674
ssVcom.taobao.taobao
p35
(dp36
g10
F0.00025163439003330457
ssVme.ele
p37
(dp38
g10
F0.03613667201184162
ssVcom.android.phone
p39
(dp40
g10
F0.02083631429628716
ssVcom.miui.gallery
p41
(dp42
g10
F0.025711113852226471
ssVcom.tencent.mobileqq
p43
(dp44
g10
F0.22025903540150488
ssVcom.miui.antispam
p45
(dp46
g10
F4.9340076477118541e-05
ssVcom.android.calculator
p47
(dp48
g10
F0.00020722832120389787
ssVcom.mipay.wallet
p49
(dp50
g10
F0.00016282225237449117
ssVcom.tencent.mm
p51
(dp52
g10
F0.19499691624522017
ssVcom.nuomi
p53
(dp54
g10
F0.00048846675712347352
ssVcom.android.fileexplorer
p55
(dp56
g10
F0.0022005674108794867
ssVcom.xiaomi.gamecenter.sdk.service
p57
(dp58
g10
F1.9736030590847416e-05
ssVcom.happyelements.AndroidAnimal
p59
(dp60
g10
F0.0077907980757370172
ssVcom.duokan.reader
p61
(dp62
g10
F0.031770075243616629
ssVcom.android.deskclock
p63
(dp64
g10
F0.00082891328481559149
ssVcom.miui.player
p65
(dp66
g10
F0.10365363266313063
ssVcom.zhihu.daily.android
p67
(dp68
g10
F0.078998396447514496
ssVcom.xiaomi.vip
p69
(dp70
g10
F0.00029110645121499941
ssVcom.android.calendar
p71
(dp72
g10
F0.001721968669051437
ssVcom.android.settings
p73
(dp74
g10
F0.0086493154064388802
ssVcom.android.mms
p75
(dp76
g10
F0.000236832367090169
ssVcom.baidu.BaiduMap
p77
(dp78
g10
F0.015389169853213272
ssVcom.xiaomi.account
p79
(dp80
g10
F4.4406068829406687e-05
ssVcom.wacai365
p81
(dp82
g10
F0.042723572221536943
ssVcom.miui.securitycenter
p83
(dp84
g10
F0.00032564450474898234
ssVcom.lofter.android
p85
(dp86
g10
F0.00042432465770321943
ssVcom.duokan.phone.remotecontroller
p87
(dp88
g10
F0.00038978660416923649
ssVcom.xiaomi.mitv.phone.tvassistant
p89
(dp90
g10
F0.00078944122363389666
ssVcom.miui.barcodescanner
p91
(dp92
g10
F2.9604045886271125e-05
ssVcom.xiaomi.jr
p93
(dp94
g10
F0.00018255828296533859
ssVcom.android.camera
p95
(dp96
g10
F3.9472061181694833e-05
ssVsh.lilith.dgame.mi
p97
(dp98
g10
F0.10838534599728629
ssVcom.xxAssistant
p99
(dp100
g10
F0.00015295423707906746
sssS'node_dict_factory'
p101
c__builtin__
dict
p102
sS'edge_attr_dict_factory'
p103
g102
sS'succ'
p104
(dp105
g8
(dp106
Vcom.miui.weather2
p107
(dp108
g10
I1
ssg67
(dp109
g10
F1.3
ssVcom.tencent.mobileqq
p110
(dp111
g10
F2.7000000000000002
ssg75
(dp112
g10
I1
ssg79
(dp113
g10
F0.69999999999999996
ssg69
(dp114
g10
F0.40000000000000002
ssg59
(dp115
g10
F2.3999999999999999
ssVcom.android.camera
p116
(dp117
g10
I1
ssg51
(dp118
g10
F6.2000000000000002
ssVcom.duokan.reader
p119
(dp120
g10
F2.7000000000000002
ssVcom.eg.android.AlipayGphone
p121
(dp122
g10
F1.3
sssg11
(dp123
Vcom.miui.player
p124
(dp125
g10
I1
sssg13
(dp126
sg15
(dp127
Vcom.miui.gallery
p128
(dp129
g10
I1
sssg17
(dp130
Vcom.sina.weibo
p131
(dp132
g10
I1
sssg19
(dp133
Vcom.xiaomi.account
p134
(dp135
g10
I1
ssVcom.duokan.reader
p136
(dp137
g10
F2.2999999999999998
sssg21
(dp138
g17
(dp139
g10
F4
ssVcom.miui.player
p140
(dp141
g10
I1
ssVcom.tencent.mm
p142
(dp143
g10
F4.5999999999999996
ssVcom.tencent.mobileqq
p144
(dp145
g10
F0.90000000000000002
sssg23
(dp146
Vcom.zhihu.daily.android
p147
(dp148
g10
I1
ssg69
(dp149
g10
F0.90000000000000002
ssVme.ele
p150
(dp151
g10
I1
ssg19
(dp152
g10
F0.40000000000000002
ssVcom.tencent.mm
p153
(dp154
g10
I1
ssg79
(dp155
g10
F1.7
sssg25
(dp156
Vcom.zhihu.daily.android
p157
(dp158
g10
F5.4000000000000004
sssg27
(dp159
Vcom.android.browser
p160
(dp161
g10
F1.3999999999999999
ssVcom.zhihu.daily.android
p162
(dp163
g10
F1.7
ssVcom.tencent.mobileqq
p164
(dp165
g10
F1.3
ssg81
(dp166
g10
F0.69999999999999996
ssVcom.tencent.mm
p167
(dp168
g10
F2.6000000000000001
ssVsh.lilith.dgame.mi
p169
(dp170
g10
I1
ssVcom.eg.android.AlipayGphone
p171
(dp172
g10
F1.8999999999999999
sssg29
(dp173
Vcom.android.fileexplorer
p174
(dp175
g10
F3.7000000000000002
ssVcom.tencent.mobileqq
p176
(dp177
g10
F0.90000000000000002
sssg31
(dp178
Vcom.android.browser
p179
(dp180
g10
F1.3
ssg61
(dp181
g10
F1.7
sssg33
(dp182
Vcom.android.mms
p183
(dp184
g10
I1
ssVsh.lilith.dgame.mi
p185
(dp186
g10
F0.90000000000000002
sssg35
(dp187
Vcom.miui.weather2
p188
(dp189
g10
F0.40000000000000002
ssVcom.lofter.android
p190
(dp191
g10
I1
ssVcom.tencent.mm
p192
(dp193
g10
I1
ssg49
(dp194
g10
F0.69999999999999996
ssg93
(dp195
g10
F0.90000000000000002
sssg37
(dp196
g23
(dp197
g10
I1
sssg39
(dp198
Vcom.android.browser
p199
(dp200
g10
F1.8
ssVcom.zhihu.daily.android
p201
(dp202
g10
F0.90000000000000002
ssVcom.android.settings
p203
(dp204
g10
F1.8999999999999999
ssVcom.wacai365
p205
(dp206
g10
F1.6000000000000001
ssVcom.tencent.mm
p207
(dp208
g10
F3.5
ssVsh.lilith.dgame.mi
p209
(dp210
g10
I1
ssVcom.tencent.mobileqq
p211
(dp212
g10
I3
sssg41
(dp213
Vcom.tencent.mobileqq
p214
(dp215
g10
I2
ssVsh.lilith.dgame.mi
p216
(dp217
g10
F1.7
sssg43
(dp218
Vcom.android.browser
p219
(dp220
g10
F4.7000000000000002
ssVcom.miui.weather2
p221
(dp222
g10
I1
ssg29
(dp223
g10
F1.7000000000000002
ssg67
(dp224
g10
F5.3000000000000007
ssVcom.zhihu.android
p225
(dp226
g10
F0.90000000000000002
ssg11
(dp227
g10
I1
ssVcom.android.phone
p228
(dp229
g10
F1.8999999999999999
ssg75
(dp230
g10
F0.90000000000000002
ssg83
(dp231
g10
F2.6000000000000001
ssg55
(dp232
g10
F3.7999999999999998
ssVcom.android.settings
p233
(dp234
g10
I1
ssg59
(dp235
g10
F1.1000000000000001
ssVcom.miui.gallery
p236
(dp237
g10
I1
ssg51
(dp238
g10
F24.399999999999995
ssg216
(dp239
g10
F5.0000000000000009
ssVcom.xxAssistant
p240
(dp241
g10
F0.69999999999999996
sssg45
(dp242
g179
(dp243
g10
F0.40000000000000002
ssVcom.tencent.mm
p244
(dp245
g10
F1.7
ssVcom.android.mms
p246
(dp247
g10
I1
ssVcom.miui.securitycenter
p248
(dp249
g10
I1
ssg31
(dp250
g10
F0.90000000000000002
ssg61
(dp251
g10
F0.69999999999999996
sssg47
(dp252
Vcom.tencent.mm
p253
(dp254
g10
I1
sssg49
(dp255
g188
(dp256
g10
I1
ssg171
(dp257
g10
F1.6000000000000001
sssg51
(dp258
Vcom.android.browser
p259
(dp260
g10
F9.5000000000000018
ssVcom.miui.fmradio
p261
(dp262
g10
I1
ssVcom.sina.weibo
p263
(dp264
g10
I1
ssVcom.eg.android.AlipayGphone
p265
(dp266
g10
F1.8999999999999999
ssg27
(dp267
g10
F5.9000000000000004
ssg29
(dp268
g10
F0.90000000000000002
ssg37
(dp269
g10
I1
ssVcom.miui.player
p270
(dp271
g10
I1
ssVcom.tencent.mobileqq
p272
(dp273
g10
F19.099999999999998
ssg47
(dp274
g10
I2
ssVcom.android.fileexplorer
p275
(dp276
g10
F1.7
ssg59
(dp277
g10
F8.3000000000000007
ssVcom.duokan.reader
p278
(dp279
g10
I1
ssVcom.miui.gallery
p280
(dp281
g10
F0.90000000000000002
ssg162
(dp282
g10
F3.2999999999999998
ssVcom.android.calendar
p283
(dp284
g10
F1.8999999999999999
ssg73
(dp285
g10
F0.90000000000000002
ssVcom.android.mms
p286
(dp287
g10
I1
ssg77
(dp288
g10
I2
ssg81
(dp289
g10
F6
ssg91
(dp290
g10
F0.90000000000000002
ssVcom.android.camera
p291
(dp292
g10
F1.3999999999999999
ssg97
(dp293
g10
F20
ssg99
(dp294
g10
F2.7000000000000002
sssg53
(dp295
Vsh.lilith.dgame.mi
p296
(dp297
g10
I1
sssg55
(dp298
g29
(dp299
g10
F5.4000000000000004
ssVcom.miui.securitycenter
p300
(dp301
g10
F0.69999999999999996
ssg87
(dp302
g10
I1
ssg89
(dp303
g10
F0.90000000000000002
ssg176
(dp304
g10
F1.7
ssVcom.miui.antispam
p305
(dp306
g10
F0.40000000000000002
sssg57
(dp307
Vcom.tencent.mm
p308
(dp309
g10
F0.90000000000000002
ssVsh.lilith.dgame.mi
p310
(dp311
g10
I1
sssg59
(dp312
Vcom.tencent.mm
p313
(dp314
g10
F7.7000000000000011
sssg61
(dp315
g179
(dp316
g10
F2.7000000000000002
ssg69
(dp317
g10
F0.69999999999999996
ssVcom.xiaomi.payment
p318
(dp319
g10
F2.7000000000000002
ssVcom.tencent.mm
p320
(dp321
g10
F2.7000000000000002
ssg79
(dp322
g10
F1.7000000000000002
ssg121
(dp323
g10
F1.7
sssg63
(dp324
Vcom.android.mms
p325
(dp326
g10
I1
ssVcom.tencent.mm
p327
(dp328
g10
F2.8999999999999999
ssVsh.lilith.dgame.mi
p329
(dp330
g10
F0.90000000000000002
ssg99
(dp331
g10
F0.69999999999999996
sssg65
(dp332
Vcom.android.browser
p333
(dp334
g10
F1.6000000000000001
ssg142
(dp335
g10
I2
ssVsh.lilith.dgame.mi
p336
(dp337
g10
I2
ssVcom.android.settings
p338
(dp339
g10
I1
sssg67
(dp340
g25
(dp341
g10
F5.4000000000000004
ssVcom.android.browser
p342
(dp343
g10
I1
ssg51
(dp344
g10
F6.9000000000000012
ssVcom.android.deskclock
p345
(dp346
g10
I1
ssg57
(dp347
g10
F0.90000000000000002
ssVcom.tencent.mobileqq
p348
(dp349
g10
F2.2999999999999998
ssVsh.lilith.dgame.mi
p350
(dp351
g10
F4.5
ssg99
(dp352
g10
F1.3
sssg69
(dp353
g19
(dp354
g10
F0.90000000000000002
ssVcom.xiaomi.account
p355
(dp356
g10
F1.7
ssg136
(dp357
g10
F0.40000000000000002
sssg71
(dp358
Vcom.android.deskclock
p359
(dp360
g10
I1
ssVcom.tencent.mobileqq
p361
(dp362
g10
F2
ssVcom.tencent.mm
p363
(dp364
g10
F2.8999999999999999
ssVcom.android.browser
p365
(dp366
g10
F1.1000000000000001
sssg73
(dp367
Vcom.wacai365
p368
(dp369
g10
I1
ssVcom.android.browser
p370
(dp371
g10
I1
ssVcom.miui.player
p372
(dp373
g10
F1.8999999999999999
ssVsh.lilith.dgame.mi
p374
(dp375
g10
F0.90000000000000002
sssg75
(dp376
g265
(dp377
g10
I1
ssg51
(dp378
g10
F4.0999999999999996
ssg185
(dp379
g10
I1
ssg67
(dp380
g10
I1
ssg45
(dp381
g10
F2.7000000000000002
sssg77
(dp382
g280
(dp383
g10
I1
ssVcom.tencent.mm
p384
(dp385
g10
F1.7
ssVsh.lilith.dgame.mi
p386
(dp387
g10
F1.8999999999999999
sssg79
(dp388
g69
(dp389
g10
I1
ssg19
(dp390
g10
F3.3999999999999999
ssg136
(dp391
g10
F2.3999999999999999
sssg81
(dp392
Vcom.android.browser
p393
(dp394
g10
I1
ssVcom.zhihu.daily.android
p395
(dp396
g10
F1.8999999999999999
ssg286
(dp397
g10
F0.90000000000000002
ssVcom.tencent.mm
p398
(dp399
g10
F6.2000000000000002
ssg374
(dp400
g10
F2.5999999999999996
ssg265
(dp401
g10
F1.7
sssg83
(dp402
g179
(dp403
g10
F0.69999999999999996
ssg29
(dp404
g10
F0.69999999999999996
ssVcom.tencent.mm
p405
(dp406
g10
I1
ssg305
(dp407
g10
I1
ssg275
(dp408
g10
F1.3
ssg31
(dp409
g10
F1.7
ssg61
(dp410
g10
F1.7000000000000002
sssg85
(dp411
g49
(dp412
g10
F1.3
ssg188
(dp413
g10
F0.69999999999999996
ssg171
(dp414
g10
F0.40000000000000002
ssVcom.taobao.taobao
p415
(dp416
g10
F1.8999999999999999
ssg93
(dp417
g10
F2.1000000000000001
sssg87
(dp418
g300
(dp419
g10
F1.3
ssg89
(dp420
g10
I1
ssg305
(dp421
g10
F0.69999999999999996
sssg89
(dp422
g300
(dp423
g10
F1.7
ssg31
(dp424
g10
F0.40000000000000002
ssg305
(dp425
g10
F0.90000000000000002
sssg91
(dp426
Vcom.android.browser
p427
(dp428
g10
I1
ssg116
(dp429
g10
F0.90000000000000002
sssg93
(dp430
g49
(dp431
g10
I1
ssg188
(dp432
g10
F0.90000000000000002
ssg171
(dp433
g10
F1.1000000000000001
sssg95
(dp434
g427
(dp435
g10
F0.90000000000000002
ssVme.ele
p436
(dp437
g10
I1
ssg91
(dp438
g10
I1
sssg97
(dp439
g393
(dp440
g10
F1.1000000000000001
ssg73
(dp441
g10
I2
ssVcom.sina.weibo
p442
(dp443
g10
I1
ssg57
(dp444
g10
I1
ssg13
(dp445
g10
I2
ssg81
(dp446
g10
F6.4000000000000004
ssVcom.eg.android.AlipayGphone
p447
(dp448
g10
F0.90000000000000002
ssg91
(dp449
g10
F0.69999999999999996
ssVcom.android.phone
p450
(dp451
g10
I1
ssg291
(dp452
g10
F0.90000000000000002
ssVcom.miui.player
p453
(dp454
g10
I1
ssVcom.tencent.mm
p455
(dp456
g10
F28.999999999999989
ssg99
(dp457
g10
I5
ssg272
(dp458
g10
F3.7999999999999998
sssg99
(dp459
Vcom.tencent.mm
p460
(dp461
g10
I1
ssssS'edge'
p462
g105
sS'graph'
p463
(dp464
sS'adjlist_dict_factory'
p465
g102
sS'adj'
p466
g105
sS'pred'
p467
(dp468
g8
(dp469
Vcom.miui.weather2
p470
g161
sVcom.zhihu.daily.android
p471
g343
sg31
g180
sg283
g366
sVcom.tencent.mobileqq
p472
g220
sg305
g243
sg81
g394
sg248
g403
sg91
g428
sVcom.android.phone
p473
g200
sg291
g435
sg270
g334
sVcom.tencent.mm
p474
g260
sg169
g440
sg61
g316
sg203
g371
ssg11
(dp475
Vcom.tencent.mm
p476
g262
sVcom.tencent.mobileqq
p477
g227
ssg13
(dp478
Vsh.lilith.dgame.mi
p479
g445
ssg15
(dp480
sg17
(dp481
Vcom.sina.weibo
p482
g139
ssg19
(dp483
g69
g354
sg79
g390
sg121
g152
sg136
g319
ssg21
(dp484
g17
g132
sVcom.tencent.mm
p485
g264
sVsh.lilith.dgame.mi
p486
g443
ssg23
(dp487
g179
g122
sg188
g172
sg49
g257
sg286
g377
sg190
g414
sg119
g323
sVcom.wacai365
p488
g401
sVme.ele
p489
g197
sg93
g433
sVcom.tencent.mm
p490
g266
sVsh.lilith.dgame.mi
p491
g448
ssg25
(dp492
Vcom.tencent.mobileqq
p493
g226
sVcom.zhihu.daily.android
p494
g341
ssg27
(dp495
g160
g108
sVcom.tencent.mobileqq
p496
g222
sg49
g256
sg415
g189
sg190
g413
sg93
g432
sVcom.tencent.mm
p497
g267
ssg29
(dp498
g83
g404
sg405
g268
sVcom.tencent.mobileqq
p499
g223
sg275
g299
ssg31
(dp500
g300
g409
sg89
g424
sg305
g250
ssg33
(dp501
sg35
(dp502
g85
g416
ssg37
(dp503
g95
g437
sVcom.tencent.mm
p504
g269
sg23
g151
ssg39
(dp505
Vcom.tencent.mobileqq
p506
g229
sVsh.lilith.dgame.mi
p507
g451
ssg41
(dp508
g15
g129
sVcom.tencent.mobileqq
p509
g237
sVcom.tencent.mm
p510
g281
sg77
g383
ssg43
(dp511
g8
g111
sg470
g165
sg29
g177
sVcom.zhihu.daily.android
p512
g349
sg283
g362
sVcom.sina.weibo
p513
g145
sg275
g304
sg39
g212
sg41
g215
sVcom.tencent.mm
p514
g273
sg97
g458
ssg45
(dp515
g300
g407
sVcom.android.fileexplorer
p516
g306
sVcom.android.mms
p517
g381
sg87
g421
sg89
g425
ssg47
(dp518
Vcom.tencent.mm
p519
g274
ssg49
(dp520
Vcom.lofter.android
p521
g412
sg415
g194
sg93
g431
ssg51
(dp522
Vcom.android.browser
p523
g118
sg63
g328
sg21
g143
sg265
g154
sg470
g168
sg35
g193
sg39
g208
sg140
g335
sVcom.tencent.mobileqq
p524
g238
sg45
g245
sg47
g254
sg57
g309
sg59
g314
sVcom.duokan.reader
p525
g321
sg67
g344
sg71
g364
sg75
g378
sVcom.baidu.BaiduMap
p526
g385
sVcom.wacai365
p527
g399
sg83
g406
sVsh.lilith.dgame.mi
p528
g456
sVcom.xxAssistant
p529
g461
ssg53
(dp530
sg55
(dp531
g83
g408
sg405
g276
sg43
g232
sg29
g175
ssg57
(dp532
Vsh.lilith.dgame.mi
p533
g444
sVcom.zhihu.daily.android
p534
g347
ssg59
(dp535
g365
g115
sVcom.tencent.mm
p536
g277
sVcom.tencent.mobileqq
p537
g235
ssg61
(dp538
g179
g120
sg69
g357
sg320
g279
sg355
g391
sg300
g410
sg19
g137
sg31
g181
sg305
g251
ssg63
(dp539
Vcom.android.calendar
p540
g360
sVcom.zhihu.daily.android
p541
g346
ssg65
(dp542
Vcom.tencent.mm
p543
g271
sVcom.miui.fmradio
p544
g125
sg21
g141
sVsh.lilith.dgame.mi
p545
g454
sg338
g373
ssg67
(dp546
g523
g109
sg107
g163
sg25
g158
sg524
g224
sg75
g380
sVcom.wacai365
p547
g396
sg39
g202
sg167
g282
sVcom.eg.android.AlipayGphone
p548
g148
ssg69
(dp549
Vcom.android.browser
p550
g114
sVcom.duokan.reader
p551
g317
sg121
g149
sg79
g389
ssg71
(dp552
Vcom.tencent.mm
p553
g284
ssg73
(dp554
Vcom.tencent.mobileqq
p555
g234
sVcom.miui.player
p556
g339
sVcom.tencent.mm
p557
g285
sVsh.lilith.dgame.mi
p558
g441
sVcom.android.phone
p559
g204
ssg75
(dp560
g523
g112
sg524
g230
sg33
g184
sg488
g397
sVcom.android.deskclock
p561
g326
sg490
g287
sg45
g247
ssg77
(dp562
g510
g288
ssg79
(dp563
g550
g113
sg19
g135
sg119
g322
sg121
g155
sg69
g356
ssg81
(dp564
Vcom.miui.weather2
p565
g166
sg450
g206
sVcom.tencent.mm
p566
g289
sg169
g446
sg73
g369
ssg83
(dp567
g516
g301
sVcom.tencent.mobileqq
p568
g231
sg87
g419
sg305
g249
sg89
g423
ssg85
(dp569
g415
g191
ssg87
(dp570
g516
g302
ssg89
(dp571
g516
g303
sg87
g420
ssg91
(dp572
g291
g438
sVcom.tencent.mm
p573
g290
sVsh.lilith.dgame.mi
p574
g449
ssg93
(dp575
g85
g417
sg415
g195
ssg95
(dp576
g427
g117
sg573
g292
sg574
g452
sg91
g429
ssg97
(dp577
g53
g297
sg345
g330
sVcom.miui.gallery
p578
g217
sg565
g170
sg201
g351
sg73
g375
sg33
g186
sg57
g311
sg183
g379
sVcom.baidu.BaiduMap
p579
g387
sg368
g400
sg450
g210
sg65
g337
sg514
g293
sg509
g239
ssg99
(dp580
g345
g331
sVcom.tencent.mobileqq
p581
g241
sVcom.tencent.mm
p582
g294
sg329
g457
sg541
g352
sssb.