ccopy_reg
_reconstructor
p1
(cnetworkx.classes.digraph
DiGraph
p2
c__builtin__
object
p3
NtRp4
(dp5
S'node'
p6
(dp7
Vcom.android.notepad
p8
(dp9
S'weight'
p10
F0.0029174365457551297
ssVcom.baidu.netdisk
p11
(dp12
g10
F0.017472203312911279
ssVcom.android.deskclock
p13
(dp14
g10
F0.0016532140425945736
ssVcom.UCMobile
p15
(dp16
g10
F0.3778404486369088
ssVcom.android.launcher
p17
(dp18
g10
F0.046841064540179583
ssVcom.sina.weibo
p19
(dp20
g10
F0.05325942494084087
ssVcom.android.contacts
p21
(dp22
g10
F0.00045382346267302018
ssVcom.eg.android.AlipayGphone
p23
(dp24
g10
F0.0083957340594508732
ssVcom.youku.phone
p25
(dp26
g10
F0.032318713734642936
ssVcom.android.packageinstaller
p27
(dp28
g10
F0.00084281500210703754
ssVcom.sankuai.meituan
p29
(dp30
g10
F0.011507666374923013
ssVcom.android.gallery3d
p31
(dp32
g10
F0.0043761548186326948
ssVcom.jingdong.app.mall
p33
(dp34
g10
F0.002722940776038121
ssVcom.cmcc.wificity
p35
(dp36
g10
F0.022172517747738988
ssVcom.android.phone
p37
(dp38
g10
F0.013420208110473597
ssVcom.tencent.mobileqq
p39
(dp40
g10
F0.05724658822003955
ssVcom.duomi.android
p41
(dp42
g10
F0.0081039904048753608
ssVcom.tencent.mm
p43
(dp44
g10
F0.28934487341566989
ssVcom.sqr5.android.audioplayer
p45
(dp46
g10
F0.00032415961619501442
ssVcom.android.settings
p47
(dp48
g10
F0.0010697267334435477
ssVcom.android.mms
p49
(dp50
g10
F0.010146195986903951
ssVcom.tencent.lightalk
p51
(dp52
g10
F0.00055107134753152448
ssVcom.ting.mp3.android
p53
(dp54
g10
F0.037019028169470648
sssS'node_dict_factory'
p55
c__builtin__
dict
p56
sS'edge_attr_dict_factory'
p57
g56
sS'succ'
p58
(dp59
g8
(dp60
Vcom.tencent.mm
p61
(dp62
g10
F0.90000000000000002
ssVcom.android.mms
p63
(dp64
g10
F1.3
ssg53
(dp65
g10
F0.40000000000000002
ssVcom.UCMobile
p66
(dp67
g10
F2.7000000000000002
ssVcom.android.launcher
p68
(dp69
g10
F10.199999999999999
ssg19
(dp70
g10
F0.80000000000000004
ssVcom.eg.android.AlipayGphone
p71
(dp72
g10
F0.90000000000000002
ssVcom.tencent.mobileqq
p73
(dp74
g10
F0.40000000000000002
sssg11
(dp75
Vcom.tencent.mobileqq
p76
(dp77
g10
F5.5000000000000009
ssVcom.android.packageinstaller
p78
(dp79
g10
F1.3
ssVcom.sankuai.meituan
p80
(dp81
g10
F0.40000000000000002
ssVcom.android.deskclock
p82
(dp83
g10
F0.40000000000000002
ssVcom.UCMobile
p84
(dp85
g10
F3.1000000000000001
ssVcom.android.launcher
p86
(dp87
g10
F24.799999999999994
ssVcom.tencent.mm
p88
(dp89
g10
F5.7000000000000011
ssVcom.android.contacts
p90
(dp91
g10
F0.90000000000000002
sssg13
(dp92
Vcom.UCMobile
p93
(dp94
g10
F3.4000000000000004
ssVcom.android.mms
p95
(dp96
g10
F0.90000000000000002
ssVcom.baidu.netdisk
p97
(dp98
g10
F0.40000000000000002
ssVcom.android.launcher
p99
(dp100
g10
F5.5000000000000009
ssVcom.android.settings
p101
(dp102
g10
F0.90000000000000002
sssg15
(dp103
g45
(dp104
g10
F0.90000000000000002
ssVcom.android.notepad
p105
(dp106
g10
F2.7000000000000002
ssVcom.android.mms
p107
(dp108
g10
F1.3
ssg19
(dp109
g10
F7.1000000000000014
ssg29
(dp110
g10
F0.90000000000000002
ssg31
(dp111
g10
F1.3
ssVcom.baidu.netdisk
p112
(dp113
g10
F5.4000000000000004
ssg51
(dp114
g10
F0.90000000000000002
ssVcom.android.deskclock
p115
(dp116
g10
F0.90000000000000002
ssVcom.cmcc.wificity
p117
(dp118
g10
F0.90000000000000002
ssVcom.android.launcher
p119
(dp120
g10
F150.50000000000006
ssg47
(dp121
g10
F4.0999999999999996
ssVcom.tencent.mm
p122
(dp123
g10
F36.899999999999963
ssg27
(dp124
g10
F3
ssg23
(dp125
g10
F1.3
ssVcom.tencent.mobileqq
p126
(dp127
g10
F22.099999999999987
sssg17
(dp128
g45
(dp129
g10
F1.7
ssg33
(dp130
g10
I1
ssg27
(dp131
g10
F7.7000000000000011
ssg41
(dp132
g10
F12.599999999999998
ssVcom.youku.phone
p133
(dp134
g10
F1.7
ssg43
(dp135
g10
F218.89999999999964
ssg19
(dp136
g10
F15.299999999999997
ssg29
(dp137
g10
F6.5
ssg31
(dp138
g10
F8.5
ssg11
(dp139
g10
F21.699999999999996
ssg51
(dp140
g10
F1.7
ssg21
(dp141
g10
F3.3999999999999999
ssg53
(dp142
g10
F1.7
ssg15
(dp143
g10
F149.20000000000013
ssg35
(dp144
g10
F9
ssg8
(dp145
g10
F11.199999999999999
ssg47
(dp146
g10
F6.7000000000000011
ssVcom.tencent.mobileqq
p147
(dp148
g10
F198.09999999999982
ssg49
(dp149
g10
F25.699999999999999
ssg23
(dp150
g10
F3.3999999999999999
ssg13
(dp151
g10
F5.4000000000000004
sssg19
(dp152
Vcom.UCMobile
p153
(dp154
g10
F4.9000000000000004
ssVcom.android.settings
p155
(dp156
g10
F2.7000000000000002
ssVcom.tencent.mm
p157
(dp158
g10
F2.2000000000000002
ssVcom.android.launcher
p159
(dp160
g10
F15.299999999999997
ssVcom.tencent.mobileqq
p161
(dp162
g10
F1.3
sssg21
(dp163
g82
(dp164
g10
F0.90000000000000002
ssVcom.android.launcher
p165
(dp166
g10
I2
sssg23
(dp167
Vcom.tencent.mm
p168
(dp169
g10
F0.40000000000000002
ssVcom.tencent.mobileqq
p170
(dp171
g10
F0.90000000000000002
ssVcom.android.mms
p172
(dp173
g10
F0.90000000000000002
ssVcom.android.launcher
p174
(dp175
g10
F2.7000000000000002
sssg25
(dp176
Vcom.tencent.mm
p177
(dp178
g10
F0.40000000000000002
ssVcom.tencent.mobileqq
p179
(dp180
g10
F0.90000000000000002
ssVcom.android.launcher
p181
(dp182
g10
F2.7000000000000002
sssg27
(dp183
Vcom.UCMobile
p184
(dp185
g10
F3.1000000000000001
ssVcom.tencent.mm
p186
(dp187
g10
F0.40000000000000002
ssVcom.duomi.android
p188
(dp189
g10
F0.90000000000000002
ssVcom.android.launcher
p190
(dp191
g10
F8.5
ssVcom.tencent.mobileqq
p192
(dp193
g10
F0.40000000000000002
sssg29
(dp194
Vcom.tencent.mobileqq
p195
(dp196
g10
F0.80000000000000004
ssVcom.android.packageinstaller
p197
(dp198
g10
F0.69999999999999996
ssVcom.UCMobile
p199
(dp200
g10
F0.90000000000000002
ssVcom.android.launcher
p201
(dp202
g10
F8.1999999999999993
ssVcom.tencent.mm
p203
(dp204
g10
F1.8
ssg41
(dp205
g10
F1.8
sssg31
(dp206
Vcom.tencent.mobileqq
p207
(dp208
g10
F1.7000000000000002
ssVcom.cmcc.wificity
p209
(dp210
g10
F0.90000000000000002
ssg61
(dp211
g10
F2.6000000000000001
ssg8
(dp212
g10
F1.3
ssVcom.android.launcher
p213
(dp214
g10
F8.5
sssg33
(dp215
sg35
(dp216
Vcom.android.launcher
p217
(dp218
g10
F9.3999999999999986
ssVcom.android.mms
p219
(dp220
g10
F1.8
ssVcom.android.gallery3d
p221
(dp222
g10
F0.90000000000000002
ssVcom.UCMobile
p223
(dp224
g10
F0.40000000000000002
ssVcom.android.notepad
p225
(dp226
g10
F0.90000000000000002
ssVcom.tencent.mobileqq
p227
(dp228
g10
F0.40000000000000002
ssg71
(dp229
g10
F0.40000000000000002
sssg37
(dp230
Vcom.UCMobile
p231
(dp232
g10
I1
ssVcom.tencent.mm
p233
(dp234
g10
F0.69999999999999996
ssVcom.android.contacts
p235
(dp236
g10
I1
ssg165
(dp237
g10
F2.2000000000000002
sssg39
(dp238
Vcom.android.gallery3d
p239
(dp240
g10
F0.40000000000000002
ssVcom.android.notepad
p241
(dp242
g10
F1.7000000000000002
ssVcom.android.settings
p243
(dp244
g10
F0.90000000000000002
ssg27
(dp245
g10
F0.40000000000000002
ssVcom.sankuai.meituan
p246
(dp247
g10
F0.90000000000000002
ssVcom.android.mms
p248
(dp249
g10
F3.7999999999999998
ssg11
(dp250
g10
F4.7999999999999998
ssVcom.duomi.android
p251
(dp252
g10
F2.7000000000000002
ssVcom.UCMobile
p253
(dp254
g10
F37.599999999999973
ssg35
(dp255
g10
F0.90000000000000002
ssg17
(dp256
g10
F207.89999999999981
ssg43
(dp257
g10
F60.199999999999939
ssg21
(dp258
g10
F0.40000000000000002
ssg133
(dp259
g10
F1.3
sssg41
(dp260
g203
(dp261
g10
F5.3000000000000007
ssg197
(dp262
g10
I1
ssVcom.sankuai.meituan
p263
(dp264
g10
F0.90000000000000002
ssVcom.android.gallery3d
p265
(dp266
g10
F0.40000000000000002
ssVcom.android.launcher
p267
(dp268
g10
F12.499999999999998
ssVcom.tencent.mobileqq
p269
(dp270
g10
F0.80000000000000004
sssg43
(dp271
g45
(dp272
g10
F0.40000000000000002
ssVcom.android.launcher
p273
(dp274
g10
F229.5999999999996
ssg107
(dp275
g10
F4.8000000000000007
ssg29
(dp276
g10
F2
ssg31
(dp277
g10
F1.8
ssg11
(dp278
g10
F2
ssg41
(dp279
g10
F3.7999999999999998
ssg53
(dp280
g10
F0.90000000000000002
ssg15
(dp281
g10
F32.699999999999974
ssg35
(dp282
g10
F0.40000000000000002
ssg8
(dp283
g10
F1.7000000000000002
ssg47
(dp284
g10
F0.69999999999999996
ssg147
(dp285
g10
F83.500000000000043
ssg21
(dp286
g10
F0.90000000000000002
sssg45
(dp287
Vcom.android.launcher
p288
(dp289
g10
I1
sssg47
(dp290
Vcom.tencent.mm
p291
(dp292
g10
F0.90000000000000002
ssVcom.tencent.mobileqq
p293
(dp294
g10
F0.69999999999999996
ssVcom.sina.weibo
p295
(dp296
g10
I1
ssVcom.android.launcher
p297
(dp298
g10
F3.1999999999999997
ssVcom.UCMobile
p299
(dp300
g10
I2
sssg49
(dp301
Vcom.tencent.mobileqq
p302
(dp303
g10
F8.7000000000000011
ssVcom.android.gallery3d
p304
(dp305
g10
F0.90000000000000002
ssg97
(dp306
g10
F0.90000000000000002
ssVcom.UCMobile
p307
(dp308
g10
F1.7000000000000002
ssVcom.android.launcher
p309
(dp310
g10
F24.799999999999997
ssg243
(dp311
g10
F1.1000000000000001
ssVcom.tencent.mm
p312
(dp313
g10
F4.0999999999999996
ssg90
(dp314
g10
F0.40000000000000002
sssg51
(dp315
sg53
(dp316
Vcom.android.launcher
p317
(dp318
g10
I1
ssssS'edge'
p319
g59
sS'graph'
p320
(dp321
sS'adjlist_dict_factory'
p322
g56
sS'adj'
p323
g59
sS'pred'
p324
(dp325
g8
(dp326
g122
g283
sg31
g212
sVcom.UCMobile
p327
g106
sg209
g226
sVcom.android.launcher
p328
g145
sg161
g242
ssg11
(dp329
Vcom.tencent.mm
p330
g278
sg95
g306
sVcom.android.deskclock
p331
g98
sVcom.UCMobile
p332
g113
sVcom.android.launcher
p333
g139
sVcom.tencent.mobileqq
p334
g250
ssg13
(dp335
Vcom.UCMobile
p336
g116
sg97
g83
sVcom.android.launcher
p337
g151
sg90
g164
ssg15
(dp338
Vcom.android.launcher
p339
g143
sVcom.tencent.mm
p340
g281
sg19
g154
sg29
g200
sg49
g308
sg11
g85
sg13
g94
sVcom.cmcc.wificity
p341
g224
sVcom.android.phone
p342
g232
sg105
g67
sVcom.android.settings
p343
g300
sVcom.tencent.mobileqq
p344
g254
sg27
g185
ssg17
(dp345
g45
g289
sg13
g100
sg27
g191
sg41
g268
sg39
g256
sg19
g160
sg29
g202
sg31
g214
sg11
g87
sg25
g182
sg235
g166
sg53
g318
sg15
g120
sg35
g218
sg8
g69
sg37
g237
sg43
g274
sg49
g310
sg23
g175
sg243
g298
ssg19
(dp346
g66
g109
sVcom.android.launcher
p347
g136
sg105
g70
sg155
g296
ssg21
(dp348
Vcom.tencent.mobileqq
p349
g258
sg95
g314
sg97
g91
sVcom.android.launcher
p350
g141
sg37
g236
sVcom.tencent.mm
p351
g286
ssg23
(dp352
Vcom.UCMobile
p353
g125
sg209
g229
sg225
g72
sVcom.android.launcher
p354
g150
ssg25
(dp355
Vcom.tencent.mobileqq
p356
g259
sVcom.android.launcher
p357
g134
ssg27
(dp358
g80
g198
sVcom.baidu.netdisk
p359
g79
sVcom.UCMobile
p360
g124
sVcom.android.launcher
p361
g131
sVcom.tencent.mobileqq
p362
g245
sg41
g262
ssg29
(dp363
Vcom.tencent.mm
p364
g276
sVcom.baidu.netdisk
p365
g81
sVcom.UCMobile
p366
g110
sVcom.android.launcher
p367
g137
sVcom.tencent.mobileqq
p368
g247
sVcom.duomi.android
p369
g264
ssg31
(dp370
Vcom.tencent.mobileqq
p371
g240
sVcom.android.mms
p372
g305
sVcom.UCMobile
p373
g111
sVcom.cmcc.wificity
p374
g222
sVcom.android.launcher
p375
g138
sg122
g277
sVcom.duomi.android
p376
g266
ssg33
(dp377
Vcom.android.launcher
p378
g130
ssg35
(dp379
Vcom.tencent.mobileqq
p380
g255
sg221
g210
sVcom.tencent.mm
p381
g282
sVcom.android.launcher
p382
g144
sVcom.UCMobile
p383
g118
ssg37
(dp384
sg39
(dp385
g265
g208
sg25
g180
sVcom.android.notepad
p386
g74
sg43
g285
sVcom.android.packageinstaller
p387
g193
sg263
g196
sg49
g303
sVcom.baidu.netdisk
p388
g77
sVcom.UCMobile
p389
g127
sg117
g228
sg17
g148
sg101
g294
sVcom.sina.weibo
p390
g162
sg251
g270
sg23
g171
ssg41
(dp391
Vcom.tencent.mobileqq
p392
g252
sg197
g189
sg80
g205
sVcom.tencent.mm
p393
g279
sVcom.android.launcher
p394
g132
ssg43
(dp395
Vcom.sina.weibo
p396
g158
sg17
g135
sg107
g313
sg27
g187
sg263
g204
sg31
g211
sg388
g89
sg15
g123
sg342
g234
sg8
g62
sg243
g292
sg39
g257
sg369
g261
sg23
g169
sg25
g178
ssg45
(dp397
Vcom.UCMobile
p398
g104
sVcom.tencent.mm
p399
g272
sVcom.android.launcher
p400
g129
ssg47
(dp401
Vcom.tencent.mm
p402
g284
sVcom.android.mms
p403
g311
sg115
g102
sVcom.UCMobile
p404
g121
sVcom.android.launcher
p405
g146
sVcom.sina.weibo
p406
g156
sVcom.tencent.mobileqq
p407
g244
ssg49
(dp408
Vcom.android.launcher
p409
g149
sVcom.tencent.mobileqq
p410
g249
sg331
g96
sVcom.UCMobile
p411
g108
sg341
g220
sg386
g64
sVcom.tencent.mm
p412
g275
sg71
g173
ssg51
(dp413
Vcom.UCMobile
p414
g114
sVcom.android.launcher
p415
g140
ssg53
(dp416
g61
g280
sg68
g142
sg8
g65
sssb.