ccopy_reg
_reconstructor
p1
(cnetworkx.classes.digraph
DiGraph
p2
c__builtin__
object
p3
NtRp4
(dp5
S'node'
p6
(dp7
Vcom.android.browser
p8
(dp9
S'weight'
p10
F0.010454815208139744
ssVcom.youdao.dict
p11
(dp12
g10
F0.0021922803620093236
ssVcom.iqianjin.client
p13
(dp14
g10
F0.0002010729094273912
ssVcom.cleanmaster.mguard_cn
p15
(dp16
g10
F1.3665149184385809e-05
ssVcom.yuedong.sport
p17
(dp18
g10
F0.0012884283516706621
ssVcom.UCMobile
p19
(dp20
g10
F0.001798919281915932
ssVcom.tencent.qqmusic
p21
(dp22
g10
F0.0010248861888289358
ssVcom.yulong.android.coolshow
p23
(dp24
g10
F0.88389405995486592
ssVcom.android.contacts
p25
(dp26
g10
F0.00098681898752957524
ssVcom.eg.android.AlipayGphone
p27
(dp28
g10
F0.00049682578106088405
ssVcom.amazon.kindle
p29
(dp30
g10
F0.009097085028462553
ssVcom.android.packageinstaller
p31
(dp32
g10
F0.002598330509202502
ssVcom.android.gallery3d
p33
(dp34
g10
F0.0012542654787096976
ssVcom.taobao.taobao
p35
(dp36
g10
F0.012991652546012509
ssVcom.android.phone
p37
(dp38
g10
F0.0019043361470526226
ssVcom.tencent.mm
p39
(dp40
g10
F0.036934946081225647
ssVcom.android.calculator
p41
(dp42
g10
F0.0001366514918438581
ssVcom.jd.jrapp
p43
(dp44
g10
F0.00018935992441220336
ssVcom.nuomi
p45
(dp46
g10
F0.00019033600649680235
ssVcom.yulong.android.xtime
p47
(dp48
g10
F0.00055734287030602121
ssVcom.tencent.qqlive
p49
(dp50
g10
F0.0025290286811959738
ssVcom.icoolme.android.weather
p51
(dp52
g10
F0.00013567540975925911
ssVcom.android.email
p53
(dp54
g10
F0.00019521641691979728
ssVcom.android.fileexplorer
p55
(dp56
g10
F0.00200292043759712
ssVcom.tencent.mobileqq
p57
(dp58
g10
F0.015440642496271367
ssVcom.android.music
p59
(dp60
g10
F0.0027359580831309589
ssVcom.android.mms
p61
(dp62
g10
F0.00029477678954889389
ssVcom.baidu.BaiduMap
p63
(dp64
g10
F0.0010219579425751388
ssVcom.imohoo.favorablecard
p65
(dp66
g10
F0.00048901712438409223
ssVcom.android.settings
p67
(dp68
g10
F6.8325745921929047e-06
ssVcom.tencent.qqpimsecure
p69
(dp70
g10
F0.0065153479146982341
ssVcom.android.camera
p71
(dp72
g10
F0.00042654787096975708
sssS'node_dict_factory'
p73
c__builtin__
dict
p74
sS'edge_attr_dict_factory'
p75
g74
sS'succ'
p76
(dp77
g8
(dp78
Vcom.tencent.mobileqq
p79
(dp80
g10
F1.7
ssVcom.android.mms
p81
(dp82
g10
F1.3
ssVcom.taobao.taobao
p83
(dp84
g10
F6.5000000000000009
ssVcom.tencent.qqmusic
p85
(dp86
g10
F1.7
ssVcom.android.phone
p87
(dp88
g10
F2.3999999999999999
ssVcom.yulong.android.coolshow
p89
(dp90
g10
F10.5
ssVcom.tencent.mm
p91
(dp92
g10
F2.7999999999999998
ssVcom.android.contacts
p93
(dp94
g10
F3.3999999999999999
sssg11
(dp95
Vcom.UCMobile
p96
(dp97
g10
F0.69999999999999996
ssVcom.yulong.android.coolshow
p98
(dp99
g10
I10
ssVcom.tencent.mm
p100
(dp101
g10
F3.3999999999999999
ssVcom.tencent.mobileqq
p102
(dp103
g10
F1.3
sssg13
(dp104
Vcom.amazon.kindle
p105
(dp106
g10
I1
ssVcom.tencent.mobileqq
p107
(dp108
g10
F0.90000000000000002
ssVcom.tencent.qqlive
p109
(dp110
g10
I1
ssg65
(dp111
g10
F0.90000000000000002
ssVcom.yulong.android.xtime
p112
(dp113
g10
F0.69999999999999996
sssg15
(dp114
Vcom.yulong.android.xtime
p115
(dp116
g10
I1
ssVcom.tencent.mm
p117
(dp118
g10
I1
sssg17
(dp119
Vcom.UCMobile
p120
(dp121
g10
F0.90000000000000002
ssVcom.yulong.android.xtime
p122
(dp123
g10
F0.90000000000000002
ssVcom.tencent.mobileqq
p124
(dp125
g10
F25.499999999999993
ssVcom.android.fileexplorer
p126
(dp127
g10
F0.40000000000000002
ssVcom.android.phone
p128
(dp129
g10
F1.1000000000000001
ssVcom.yulong.android.coolshow
p130
(dp131
g10
I1
ssVcom.android.email
p132
(dp133
g10
F1.5
ssVcom.tencent.mm
p134
(dp135
g10
F7.2000000000000002
sssg19
(dp136
Vcom.yulong.android.coolshow
p137
(dp138
g10
F1.3999999999999999
ssVcom.android.packageinstaller
p139
(dp140
g10
F3.5
ssVcom.android.contacts
p141
(dp142
g10
I2
ssVcom.android.phone
p143
(dp144
g10
F3.5999999999999996
sssg21
(dp145
Vcom.android.browser
p146
(dp147
g10
I1
ssg81
(dp148
g10
F0.69999999999999996
ssVcom.android.phone
p149
(dp150
g10
F1.3
ssVcom.yulong.android.coolshow
p151
(dp152
g10
F1.7
ssVcom.tencent.mm
p153
(dp154
g10
F0.40000000000000002
ssVcom.android.contacts
p155
(dp156
g10
F1.8999999999999999
sssg23
(dp157
g8
(dp158
g10
F17.199999999999999
ssg11
(dp159
g10
I6
ssVcom.iqianjin.client
p160
(dp161
g10
F1.8999999999999999
ssVcom.cleanmaster.mguard_cn
p162
(dp163
g10
I1
ssVcom.yuedong.sport
p164
(dp165
g10
F22.599999999999991
ssg19
(dp166
g10
F6.1000000000000014
ssVcom.tencent.qqmusic
p167
(dp168
g10
F10.800000000000001
ssg25
(dp169
g10
F29.999999999999989
ssVcom.eg.android.AlipayGphone
p170
(dp171
g10
F4.7000000000000002
ssVcom.amazon.kindle
p172
(dp173
g10
F7.3000000000000007
ssVcom.android.packageinstaller
p174
(dp175
g10
F8.0000000000000018
ssg33
(dp176
g10
F18.699999999999999
ssVcom.taobao.taobao
p177
(dp178
g10
F18.900000000000002
ssg37
(dp179
g10
F74.700000000000003
ssg39
(dp180
g10
F256.20000000000044
ssVcom.android.calculator
p181
(dp182
g10
I1
ssVcom.jd.jrapp
p183
(dp184
g10
F1.3999999999999999
ssg45
(dp185
g10
F0.40000000000000002
ssVcom.yulong.android.xtime
p186
(dp187
g10
F10.300000000000001
ssg49
(dp188
g10
F8.3000000000000007
ssVcom.icoolme.android.weather
p189
(dp190
g10
F1.8999999999999999
ssVcom.android.email
p191
(dp192
g10
F8.3000000000000007
ssVcom.android.fileexplorer
p193
(dp194
g10
F2.6000000000000001
ssg57
(dp195
g10
F33.29999999999999
ssg59
(dp196
g10
F0.40000000000000002
ssg61
(dp197
g10
F17.699999999999999
ssg63
(dp198
g10
F5.7000000000000002
ssg67
(dp199
g10
F4.4000000000000004
ssVcom.tencent.qqpimsecure
p200
(dp201
g10
F6.5000000000000009
ssg71
(dp202
g10
F9.9000000000000004
sssg25
(dp203
Vcom.android.mms
p204
(dp205
g10
F6.7000000000000002
ssVcom.yuedong.sport
p206
(dp207
g10
I1
ssVcom.UCMobile
p208
(dp209
g10
F1.7
ssVcom.android.phone
p210
(dp211
g10
F20.299999999999994
ssVcom.yulong.android.coolshow
p212
(dp213
g10
F4.9000000000000004
ssVcom.tencent.mm
p214
(dp215
g10
F6.8000000000000007
sssg27
(dp216
g105
(dp217
g10
F1.8999999999999999
ssg13
(dp218
g10
I1
ssVcom.jd.jrapp
p219
(dp220
g10
F3.3999999999999999
ssVcom.taobao.taobao
p221
(dp222
g10
F0.69999999999999996
ssg112
(dp223
g10
F0.40000000000000002
ssg65
(dp224
g10
F0.69999999999999996
ssVcom.android.email
p225
(dp226
g10
I1
sssg29
(dp227
Vcom.yulong.android.coolshow
p228
(dp229
g10
I2
ssVcom.tencent.mobileqq
p230
(dp231
g10
F6.5000000000000009
ssVcom.android.browser
p232
(dp233
g10
F1.7
ssg65
(dp234
g10
I1
ssg112
(dp235
g10
F0.90000000000000002
sssg31
(dp236
Vcom.yulong.android.coolshow
p237
(dp238
g10
F6.5000000000000009
ssVcom.tencent.mm
p239
(dp240
g10
F6.5000000000000009
sssg33
(dp241
Vcom.tencent.mm
p242
(dp243
g10
F6.5000000000000009
sssg35
(dp244
Vcom.yulong.android.coolshow
p245
(dp246
g10
I1
ssVcom.tencent.mm
p247
(dp248
g10
F20.499999999999996
ssVcom.jd.jrapp
p249
(dp250
g10
F1.8999999999999999
sssg37
(dp251
g61
(dp252
g10
F3.5
ssg206
(dp253
g10
F1.3
ssg120
(dp254
g10
F2.1000000000000001
ssVcom.yulong.android.coolshow
p255
(dp256
g10
F74.399999999999991
ssVcom.tencent.mm
p257
(dp258
g10
F13.899999999999999
ssVcom.android.contacts
p259
(dp260
g10
F13.100000000000001
sssg39
(dp261
g120
(dp262
g10
F1.8999999999999999
ssVcom.yulong.android.xtime
p263
(dp264
g10
F7.5000000000000009
ssVcom.amazon.kindle
p265
(dp266
g10
F3.5
ssg59
(dp267
g10
F1.7000000000000002
ssVcom.android.mms
p268
(dp269
g10
F10.200000000000001
ssVcom.yuedong.sport
p270
(dp271
g10
F5.9000000000000004
ssVcom.jd.jrapp
p272
(dp273
g10
F0.90000000000000002
ssVcom.android.contacts
p274
(dp275
g10
F2.8999999999999999
ssg45
(dp276
g10
F3.1000000000000001
ssg193
(dp277
g10
F5.9000000000000004
ssg21
(dp278
g10
I1
ssg35
(dp279
g10
F21.199999999999996
ssVcom.tencent.qqlive
p280
(dp281
g10
I1
ssVcom.android.phone
p282
(dp283
g10
F12.5
ssg69
(dp284
g10
F0.90000000000000002
ssVcom.yulong.android.coolshow
p285
(dp286
g10
F24.099999999999991
ssg53
(dp287
g10
F12.300000000000001
ssg57
(dp288
g10
F29.399999999999984
ssg13
(dp289
g10
F0.40000000000000002
ssg27
(dp290
g10
F0.69999999999999996
ssVcom.android.settings
p291
(dp292
g10
I1
sssg41
(dp293
Vcom.yulong.android.coolshow
p294
(dp295
g10
I1
ssVcom.tencent.mm
p296
(dp297
g10
F1.7
sssg43
(dp298
g105
(dp299
g10
F0.69999999999999996
ssg13
(dp300
g10
F1.8999999999999999
ssg65
(dp301
g10
F0.40000000000000002
ssg221
(dp302
g10
F1.8999999999999999
ssg109
(dp303
g10
F0.90000000000000002
ssVcom.yulong.android.coolshow
p304
(dp305
g10
I1
ssg107
(dp306
g10
F0.69999999999999996
ssg27
(dp307
g10
I1
sssg45
(dp308
g105
(dp309
g10
F0.40000000000000002
ssg13
(dp310
g10
F0.69999999999999996
ssg272
(dp311
g10
F1.3999999999999999
ssg53
(dp312
g10
I1
ssVcom.tencent.mm
p313
(dp314
g10
F0.90000000000000002
ssg27
(dp315
g10
F0.90000000000000002
sssg47
(dp316
Vcom.tencent.mobileqq
p317
(dp318
g10
F1.8999999999999999
ssVcom.android.music
p319
(dp320
g10
F0.69999999999999996
ssg126
(dp321
g10
F1.3
ssg15
(dp322
g10
I1
ssVcom.yulong.android.coolshow
p323
(dp324
g10
I8
ssVcom.tencent.mm
p325
(dp326
g10
F8.8000000000000007
sssg49
(dp327
Vcom.yulong.android.coolshow
p328
(dp329
g10
I1
ssg107
(dp330
g10
F2.2999999999999998
ssVcom.yuedong.sport
p331
(dp332
g10
F1.7
sssg51
(dp333
Vcom.yulong.android.coolshow
p334
(dp335
g10
I1
ssVcom.tencent.mm
p336
(dp337
g10
F1.7
sssg53
(dp338
Vcom.amazon.kindle
p339
(dp340
g10
F6.5000000000000009
ssg272
(dp341
g10
F2.2999999999999998
ssVcom.nuomi
p342
(dp343
g10
F0.90000000000000002
ssg221
(dp344
g10
F0.40000000000000002
ssg313
(dp345
g10
F8.5
ssg27
(dp346
g10
F1.3999999999999999
ssVcom.tencent.mobileqq
p347
(dp348
g10
F3.5
sssg55
(dp349
Vcom.yulong.android.xtime
p350
(dp351
g10
F1.3
ssg59
(dp352
g10
F9
ssVcom.tencent.mm
p353
(dp354
g10
F6.5000000000000009
ssg51
(dp355
g10
I1
sssg57
(dp356
g96
(dp357
g10
I1
ssVcom.android.browser
p358
(dp359
g10
I1
ssg193
(dp360
g10
F3
ssg59
(dp361
g10
F2
ssg87
(dp362
g10
F1.1000000000000001
ssVcom.android.mms
p363
(dp364
g10
F1.7
ssVcom.yuedong.sport
p365
(dp366
g10
F26.199999999999992
ssg45
(dp367
g10
F0.90000000000000002
ssg186
(dp368
g10
F8.2000000000000011
ssVcom.tencent.qqlive
p369
(dp370
g10
F1.7
ssg189
(dp371
g10
I1
ssg69
(dp372
g10
I1
ssVcom.yulong.android.coolshow
p373
(dp374
g10
F9.9000000000000004
ssg53
(dp375
g10
F0.69999999999999996
ssVcom.tencent.mm
p376
(dp377
g10
F13.800000000000002
ssg93
(dp378
g10
F2.6000000000000001
sssg59
(dp379
Vcom.android.fileexplorer
p380
(dp381
g10
F3.7000000000000002
ssg350
(dp382
g10
F1.7
sssg61
(dp383
g69
(dp384
g10
F1.1000000000000001
ssVcom.tencent.mobileqq
p385
(dp386
g10
F1.6000000000000001
ssVcom.yulong.android.coolshow
p387
(dp388
g10
I1
ssVcom.tencent.mm
p389
(dp390
g10
F16.699999999999999
ssVcom.amazon.kindle
p391
(dp392
g10
I1
sssg63
(dp393
sg65
(dp394
g112
(dp395
g10
I1
sssg67
(dp396
Vcom.android.fileexplorer
p397
(dp398
g10
F1.5
ssVcom.tencent.mm
p399
(dp400
g10
F4.5
sssg69
(dp401
Vcom.tencent.mm
p402
(dp403
g10
F6.5000000000000009
sssg71
(dp404
Vcom.tencent.mm
p405
(dp406
g10
F1.8999999999999999
ssssS'edge'
p407
g77
sS'graph'
p408
(dp409
sS'adjlist_dict_factory'
p410
g74
sS'adj'
p411
g77
sS'pred'
p412
(dp413
g8
(dp414
Vcom.yulong.android.coolshow
p415
g158
sg85
g147
sg79
g359
sVcom.amazon.kindle
p416
g233
ssg11
(dp417
Vcom.yulong.android.coolshow
p418
g159
ssg13
(dp419
g342
g310
sVcom.yulong.android.coolshow
p420
g161
sg313
g289
sg27
g218
sg272
g300
ssg15
(dp421
Vcom.yulong.android.xtime
p422
g322
sVcom.yulong.android.coolshow
p423
g163
ssg17
(dp424
g124
g366
sg280
g332
sVcom.android.phone
p425
g253
sg130
g165
sVcom.tencent.mm
p426
g271
sVcom.android.contacts
p427
g207
ssg19
(dp428
Vcom.youdao.dict
p429
g97
sg102
g357
sg206
g121
sVcom.android.phone
p430
g254
sVcom.yulong.android.coolshow
p431
g166
sVcom.tencent.mm
p432
g262
sVcom.android.contacts
p433
g209
ssg21
(dp434
g151
g168
sVcom.tencent.mm
p435
g278
sVcom.android.browser
p436
g86
ssg23
(dp437
Vcom.android.browser
p438
g90
sVcom.youdao.dict
p439
g99
sg208
g138
sg41
g295
sg29
g229
sg31
g238
sg426
g286
sVcom.android.mms
p440
g388
sg17
g131
sg43
g305
sg47
g324
sVcom.icoolme.android.weather
p441
g335
sVcom.tencent.qqmusic
p442
g152
sVcom.taobao.taobao
p443
g246
sVcom.tencent.qqlive
p444
g329
sg37
g256
sVcom.tencent.mobileqq
p445
g374
sg274
g213
ssg25
(dp446
Vcom.android.browser
p447
g94
sg79
g378
sg208
g142
sVcom.tencent.qqmusic
p448
g156
sVcom.android.phone
p449
g260
sVcom.yulong.android.coolshow
p450
g169
sVcom.tencent.mm
p451
g275
ssg27
(dp452
g342
g315
sVcom.yulong.android.coolshow
p453
g171
sg53
g346
sg313
g290
sg272
g307
ssg29
(dp454
g13
g106
sVcom.android.mms
p455
g392
sg272
g299
sg342
g309
sg228
g173
sVcom.android.email
p456
g340
sVcom.tencent.mm
p457
g266
sg27
g217
ssg31
(dp458
g237
g175
sg19
g140
ssg33
(dp459
Vcom.yulong.android.coolshow
p460
g176
ssg35
(dp461
Vcom.android.browser
p462
g84
sg219
g302
sVcom.yulong.android.coolshow
p463
g178
sg225
g344
sVcom.tencent.mm
p464
g279
sVcom.eg.android.AlipayGphone
p465
g222
ssg37
(dp466
g447
g88
sg79
g362
sg206
g129
sg208
g144
sg448
g150
sVcom.yulong.android.coolshow
p467
g179
sVcom.tencent.mm
p468
g283
sVcom.android.contacts
p469
g211
ssg39
(dp470
g438
g92
sVcom.youdao.dict
p471
g101
sg162
g118
sg85
g154
sg23
g180
sVcom.android.contacts
p472
g215
sVcom.android.packageinstaller
p473
g240
sVcom.android.gallery3d
p474
g243
sVcom.taobao.taobao
p475
g248
sVcom.android.phone
p476
g258
sVcom.tencent.mobileqq
p477
g377
sg41
g297
sg45
g314
sVcom.android.fileexplorer
p478
g354
sg441
g337
sg53
g345
sVcom.yulong.android.xtime
p479
g326
sg67
g400
sVcom.android.mms
p480
g390
sVcom.yuedong.sport
p481
g135
sVcom.tencent.qqpimsecure
p482
g403
sVcom.android.camera
p483
g406
ssg41
(dp484
g294
g182
ssg43
(dp485
g221
g250
sg45
g311
sg304
g184
sg53
g341
sg313
g273
sg170
g220
ssg45
(dp486
Vcom.yulong.android.coolshow
p487
g185
sg53
g343
sVcom.tencent.mm
p488
g276
sVcom.tencent.mobileqq
p489
g367
ssg47
(dp490
g105
g235
sg13
g113
sVcom.tencent.mm
p491
g264
sVcom.yuedong.sport
p492
g123
sg65
g395
sVcom.android.fileexplorer
p493
g351
sg15
g116
sVcom.yulong.android.coolshow
p494
g187
sg317
g368
sVcom.android.music
p495
g382
sg27
g223
ssg49
(dp496
Vcom.yulong.android.coolshow
p497
g188
sVcom.iqianjin.client
p498
g110
sVcom.tencent.mm
p499
g281
sVcom.tencent.mobileqq
p500
g370
sVcom.jd.jrapp
p501
g303
ssg51
(dp502
g55
g355
sVcom.tencent.mobileqq
p503
g371
sVcom.yulong.android.coolshow
p504
g190
ssg53
(dp505
g488
g287
sVcom.yuedong.sport
p506
g133
sg45
g312
sVcom.yulong.android.coolshow
p507
g192
sg489
g375
sg170
g226
ssg55
(dp508
Vcom.tencent.mobileqq
p509
g360
sg59
g381
sg492
g127
sg122
g321
sg67
g398
sVcom.yulong.android.coolshow
p510
g194
sVcom.tencent.mm
p511
g277
ssg57
(dp512
Vcom.android.browser
p513
g80
sVcom.youdao.dict
p514
g103
sg339
g231
sg498
g108
sg480
g386
sVcom.yuedong.sport
p515
g125
sg501
g306
sg479
g318
sg109
g330
sg23
g195
sg132
g348
sg39
g288
ssg59
(dp516
g510
g196
sg511
g267
sg509
g361
sg122
g320
sg193
g352
ssg61
(dp517
Vcom.android.browser
p518
g82
sVcom.tencent.mobileqq
p519
g364
sg85
g148
sVcom.android.phone
p520
g252
sVcom.yulong.android.coolshow
p521
g197
sVcom.tencent.mm
p522
g269
sVcom.android.contacts
p523
g205
ssg63
(dp524
Vcom.yulong.android.coolshow
p525
g198
ssg65
(dp526
g105
g234
sg13
g111
sg27
g224
sg272
g301
ssg67
(dp527
Vcom.yulong.android.coolshow
p528
g199
sVcom.tencent.mm
p529
g292
ssg69
(dp530
g389
g284
sVcom.yulong.android.coolshow
p531
g201
sg480
g384
sg385
g372
ssg71
(dp532
Vcom.yulong.android.coolshow
p533
g202
sssb.