ccopy_reg
_reconstructor
p1
(cnetworkx.classes.digraph
DiGraph
p2
c__builtin__
object
p3
NtRp4
(dp5
S'node'
p6
(dp7
Vcom.meizu.media.reader
p8
(dp9
S'weight'
p10
F2.4461155684772581e-05
ssVcom.youku.phone
p11
(dp12
g10
F0.0024990315379177864
ssVim.yixin
p13
(dp14
g10
F0.00029952435532374592
ssVcom.baidu.netdisk
p15
(dp16
g10
F0.00097944464190864917
ssVcom.sdu.didi.psnger
p17
(dp18
g10
F9.4849379185852872e-06
ssVcom.android.deskclock
p19
(dp20
g10
F0.00015625187202722077
ssVcom.adsafe
p21
(dp22
g10
F4.9421518628418071e-05
ssVvStudio.Android.Camera360
p23
(dp24
g10
F0.00026058618913165894
ssVcom.meizu.mzsnssyncservice
p25
(dp26
g10
F5.2416762181655532e-05
ssVcom.android.launcher
p27
(dp28
g10
F0.71910206591932013
ssVcom.plantronics.headsetservice
p29
(dp30
g10
F8.1869990455157206e-05
ssVcom.meizu.blockservice
p31
(dp32
g10
F2.0467497613789302e-05
ssVcom.eg.android.AlipayGphone
p33
(dp34
g10
F0.0039177785676345967
ssVcom.soft.blued
p35
(dp36
g10
F0.044148891560202401
ssVcom.heqee.book.mcnxsr
p37
(dp38
g10
F0.0014237391023055389
ssVcom.sparklykey.qinsmoon.wdj
p39
(dp40
g10
F0.00026507905446151509
ssVcom.android.packageinstaller
p41
(dp42
g10
F5.0419933146163889e-05
ssVcom.sankuai.meituan
p43
(dp44
g10
F0.0024910442217758199
ssVcom.taobao.taobao
p45
(dp46
g10
F0.0012110768100256793
ssVcom.orangex.orange
p47
(dp48
g10
F4.0934995227578603e-05
ssVcom.android.video
p49
(dp50
g10
F2.296353390815385e-05
ssVcom.myzaker.ZAKER_Phone
p51
(dp52
g10
F0.0081615394753132026
ssVcom.android.gamecenter
p53
(dp54
g10
F7.288425979544483e-05
ssVcom.android.phone
p55
(dp56
g10
F0.004871264432081854
ssVcom.meizu.media.gallery
p57
(dp58
g10
F0.0047734198093427639
ssVme.topit.TopAndroid2
p59
(dp60
g10
F0.00024560997136547161
ssVcn.ibuka.manga.ui
p61
(dp62
g10
F0.00029553069725276259
ssVcom.tencent.mm
p63
(dp64
g10
F0.044707005275622311
ssVtv.danmaku.bili
p65
(dp66
g10
F0.00079873161419665567
ssVcom.youdao.dict
p67
(dp68
g10
F5.2915969440528441e-05
ssVqsbk.app
p69
(dp70
g10
F0.00022064960842182614
ssVcom.youloft.calendar
p71
(dp72
g10
F2.6957191979137129e-05
ssVus.pinguo.idcamera
p73
(dp74
g10
F7.1386638018826109e-05
ssVcom.meizu.mstore
p75
(dp76
g10
F0.0018455692360531475
ssVcom.meitu.meipaimv
p77
(dp78
g10
F1.8470668578297662e-05
ssVcom.android.calculator
p79
(dp80
g10
F0.00015125979943849167
ssVcom.meizu.media.camera
p81
(dp82
g10
F0.013900426123316174
ssVcom.yipiao
p83
(dp84
g10
F0.0001068303533988027
ssVcom.lovebizhi.wallpaper
p85
(dp86
g10
F8.2369197714030122e-05
ssVcom.android.fileexplorer
p87
(dp88
g10
F7.288425979544483e-05
ssVcom.tencent.tmgp.gb
p89
(dp90
g10
F0.0034295538684568903
ssVcom.sankuai.movie
p91
(dp92
g10
F0.00034694904491667231
ssVcom.happyelements.AndroidAnimal
p93
(dp94
g10
F0.00056859706785624428
ssVcom.jzyd.BanTang
p95
(dp96
g10
F0.00067093455592519085
ssVcom.android.vpndialogs
p97
(dp98
g10
F1.2979388730695656e-05
ssVcom.tencent.mobileqq
p99
(dp100
g10
F0.057051402373031627
ssVcom.skycall.oem
p101
(dp102
g10
F0.0021381046897526726
ssVcom.UCMobile
p103
(dp104
g10
F0.0056255666002388207
ssVcom.dianxinos.optimizer.duplay
p105
(dp106
g10
F0.00012030894938837126
ssVcom.android.settings
p107
(dp108
g10
F0.00058656852917566909
ssVcom.tuan800.tao800
p109
(dp110
g10
F0.00024560997136547161
ssVcom.android.mms
p111
(dp112
g10
F0.00022264643745731778
ssVcom.liulishuo.engzo
p113
(dp114
g10
F0.0065011761323019047
ssVcom.ting.mp3.android
p115
(dp116
g10
F0.042684217462669281
ssVcom.android.calendar
p117
(dp118
g10
F4.9920725887290981e-06
ssVcom.baidu.tieba
p119
(dp120
g10
F0.0091968953302156171
ssVcom.meizu.media.music
p121
(dp122
g10
F0.012059848959851755
ssVcom.nerser.ccser
p123
(dp124
g10
F0.00023063375359928435
ssVcom.meizu.flyme.weather
p125
(dp126
g10
F0.00072035607455360885
sssS'node_dict_factory'
p127
c__builtin__
dict
p128
sS'edge_attr_dict_factory'
p129
g128
sS'succ'
p130
(dp131
g8
(dp132
Vcom.taobao.taobao
p133
(dp134
g10
I1
ssVcom.android.launcher
p135
(dp136
g10
I1
sssg11
(dp137
Vcom.youloft.calendar
p138
(dp139
g10
F0.90000000000000002
ssVcom.meizu.mstore
p140
(dp141
g10
F1.8
ssVcom.android.settings
p142
(dp143
g10
F0.40000000000000002
ssVcom.sankuai.meituan
p144
(dp145
g10
F0.90000000000000002
ssVcom.liulishuo.engzo
p146
(dp147
g10
F0.40000000000000002
ssVcom.ting.mp3.android
p148
(dp149
g10
F0.40000000000000002
ssVcom.UCMobile
p150
(dp151
g10
F1.6000000000000001
ssVcom.baidu.tieba
p152
(dp153
g10
F0.90000000000000002
ssVcom.android.launcher
p154
(dp155
g10
F15.799999999999997
ssVcom.jzyd.BanTang
p156
(dp157
g10
F0.40000000000000002
ssg29
(dp158
g10
F1.7
ssVcn.ibuka.manga.ui
p159
(dp160
g10
F0.90000000000000002
ssVcom.tencent.mm
p161
(dp162
g10
F4.1999999999999993
ssVcom.eg.android.AlipayGphone
p163
(dp164
g10
F15.999999999999996
ssVcom.soft.blued
p165
(dp166
g10
F2.7000000000000002
sssg13
(dp167
Vcom.dianxinos.optimizer.duplay
p168
(dp169
g10
F1.3
ssVcom.tencent.mm
p170
(dp171
g10
F0.40000000000000002
ssVcom.tencent.mobileqq
p172
(dp173
g10
F1.3
ssVcom.android.launcher
p174
(dp175
g10
F17.999999999999996
ssVcom.android.phone
p176
(dp177
g10
F1.3
sssg15
(dp178
Vcom.android.launcher
p179
(dp180
g10
F8.8000000000000007
ssVcom.android.deskclock
p181
(dp182
g10
F0.69999999999999996
ssVcom.UCMobile
p183
(dp184
g10
F0.90000000000000002
ssVcom.baidu.tieba
p185
(dp186
g10
F0.90000000000000002
ssVcom.sankuai.movie
p187
(dp188
g10
F0.40000000000000002
ssVcom.android.phone
p189
(dp190
g10
F0.40000000000000002
ssVcom.tencent.mm
p191
(dp192
g10
F1.8
ssVcom.eg.android.AlipayGphone
p193
(dp194
g10
F0.90000000000000002
ssVcom.soft.blued
p195
(dp196
g10
F0.90000000000000002
sssg17
(dp197
Vcom.tencent.mobileqq
p198
(dp199
g10
F1.3
ssVcom.android.launcher
p200
(dp201
g10
F3.4000000000000004
sssg19
(dp202
g37
(dp203
g10
I1
ssVcom.meizu.mstore
p204
(dp205
g10
F0.69999999999999996
ssVcom.UCMobile
p206
(dp207
g10
I1
ssVcom.myzaker.ZAKER_Phone
p208
(dp209
g10
F1.7
ssVcom.android.launcher
p210
(dp211
g10
F8.6000000000000014
ssVcom.meizu.media.gallery
p212
(dp213
g10
I2
ssVcom.soft.blued
p214
(dp215
g10
F6.1000000000000005
ssVcom.tencent.mobileqq
p216
(dp217
g10
F2.2999999999999998
ssVcom.eg.android.AlipayGphone
p218
(dp219
g10
F0.69999999999999996
ssVcom.meizu.flyme.weather
p220
(dp221
g10
I1
sssg21
(dp222
g73
(dp223
g10
F0.90000000000000002
ssg97
(dp224
g10
F1.7
ssVcom.tencent.mm
p225
(dp226
g10
F1.7000000000000002
ssVcom.android.launcher
p227
(dp228
g10
F3.4000000000000004
ssVcom.android.settings
p229
(dp230
g10
F0.40000000000000002
sssg23
(dp231
Vcom.meizu.mstore
p232
(dp233
g10
F0.90000000000000002
ssVcom.meizu.media.camera
p234
(dp235
g10
F1.3
ssVcom.android.launcher
p236
(dp237
g10
F7.8000000000000007
ssVcom.meizu.media.gallery
p238
(dp239
g10
F0.90000000000000002
ssVcom.tencent.mm
p240
(dp241
g10
F2.5
ssVcom.soft.blued
p242
(dp243
g10
F2.2000000000000002
sssg25
(dp244
Vcom.android.mms
p245
(dp246
g10
F2.6000000000000001
ssVcom.android.launcher
p247
(dp248
g10
F6.5000000000000009
ssVcom.android.phone
p249
(dp250
g10
F1.1000000000000001
sssg27
(dp251
g8
(dp252
g10
F3
ssg11
(dp253
g10
F11.9
ssg13
(dp254
g10
F17.299999999999997
ssg15
(dp255
g10
F3.6000000000000001
ssg17
(dp256
g10
F3.3999999999999999
ssg19
(dp257
g10
F19.999999999999996
ssg21
(dp258
g10
F2.7000000000000002
ssg23
(dp259
g10
F7.1000000000000005
ssg25
(dp260
g10
F6.7999999999999998
ssg91
(dp261
g10
F7.8000000000000007
ssg29
(dp262
g10
F2.2999999999999998
ssVcom.meizu.blockservice
p263
(dp264
g10
I2
ssg33
(dp265
g10
F91.000000000000057
ssg35
(dp266
g10
F259.89999999999992
ssg39
(dp267
g10
I1
ssg41
(dp268
g10
F5.2000000000000002
ssg43
(dp269
g10
F20.199999999999996
ssg45
(dp270
g10
F22.699999999999992
ssg47
(dp271
g10
F1.7
ssg49
(dp272
g10
F5.8000000000000007
ssVcom.myzaker.ZAKER_Phone
p273
(dp274
g10
F28.999999999999993
ssg53
(dp275
g10
F2.3999999999999999
ssg55
(dp276
g10
F111.80000000000015
ssg57
(dp277
g10
F31.599999999999994
ssg61
(dp278
g10
F7.1000000000000005
ssg63
(dp279
g10
F283.59999999999957
ssg67
(dp280
g10
F5.1000000000000005
ssg69
(dp281
g10
F2.7000000000000002
ssg71
(dp282
g10
F3.3999999999999999
ssg73
(dp283
g10
F4.7000000000000002
ssVcom.meizu.mstore
p284
(dp285
g10
F30.399999999999995
ssg77
(dp286
g10
F1.7
ssg79
(dp287
g10
F10.199999999999999
ssg81
(dp288
g10
F18.199999999999999
ssg83
(dp289
g10
F7.4000000000000004
ssg85
(dp290
g10
F3.7000000000000002
ssVcom.android.fileexplorer
p291
(dp292
g10
F14.199999999999998
ssg89
(dp293
g10
F11.5
ssg93
(dp294
g10
F2.7000000000000002
ssg95
(dp295
g10
F9.1999999999999993
ssg97
(dp296
g10
F1.8
ssVcom.tencent.mobileqq
p297
(dp298
g10
F225.10000000000011
ssg101
(dp299
g10
F35.899999999999991
ssg103
(dp300
g10
F61.200000000000003
ssg105
(dp301
g10
F12.899999999999999
ssg107
(dp302
g10
F37.599999999999994
ssg109
(dp303
g10
F5.3000000000000007
ssg111
(dp304
g10
F20.699999999999992
ssVcom.liulishuo.engzo
p305
(dp306
g10
F30.499999999999993
ssg115
(dp307
g10
F29.199999999999999
ssg117
(dp308
g10
F1.3
ssg119
(dp309
g10
F40.299999999999997
ssg121
(dp310
g10
F4.7000000000000002
ssg123
(dp311
g10
F2.7000000000000002
ssg125
(dp312
g10
F17.300000000000001
sssg29
(dp313
Vcom.tencent.mm
p314
(dp315
g10
F0.90000000000000002
ssVcom.youku.phone
p316
(dp317
g10
I1
ssVcom.android.launcher
p318
(dp319
g10
I1
sssg31
(dp320
Vcom.tencent.mobileqq
p321
(dp322
g10
F0.40000000000000002
ssVcom.android.phone
p323
(dp324
g10
I1
ssVcom.tencent.mm
p325
(dp326
g10
I1
ssVcom.android.launcher
p327
(dp328
g10
F0.69999999999999996
ssVcom.soft.blued
p329
(dp330
g10
F0.90000000000000002
sssg33
(dp331
Vcom.youku.phone
p332
(dp333
g10
F15.599999999999998
ssVcom.baidu.netdisk
p334
(dp335
g10
I1
ssVcom.UCMobile
p336
(dp337
g10
F1.3
ssVcom.android.launcher
p338
(dp339
g10
F73.600000000000023
ssVcom.soft.blued
p340
(dp341
g10
F12.700000000000003
ssVcom.sankuai.meituan
p342
(dp343
g10
I3
ssVcom.taobao.taobao
p344
(dp345
g10
F1.3999999999999999
ssg47
(dp346
g10
F0.40000000000000002
ssVcom.myzaker.ZAKER_Phone
p347
(dp348
g10
F0.40000000000000002
ssVcom.android.phone
p349
(dp350
g10
F1.6000000000000001
ssVcom.meizu.media.gallery
p351
(dp352
g10
F2.2999999999999998
ssVcn.ibuka.manga.ui
p353
(dp354
g10
F0.40000000000000002
ssVcom.tencent.mm
p355
(dp356
g10
F12.5
ssVcom.meizu.mstore
p357
(dp358
g10
F2.2000000000000002
ssVcom.android.calculator
p359
(dp360
g10
F1.3
ssVcom.sankuai.movie
p361
(dp362
g10
F0.90000000000000002
ssVcom.tencent.mobileqq
p363
(dp364
g10
F17.399999999999999
ssg101
(dp365
g10
F0.90000000000000002
ssg109
(dp366
g10
F0.69999999999999996
ssVcom.android.settings
p367
(dp368
g10
F0.40000000000000002
ssVcom.android.mms
p369
(dp370
g10
F0.40000000000000002
ssVcom.liulishuo.engzo
p371
(dp372
g10
F3.1999999999999997
ssVcom.ting.mp3.android
p373
(dp374
g10
F0.90000000000000002
ssg119
(dp375
g10
F2.6000000000000001
ssg125
(dp376
g10
F0.40000000000000002
sssg35
(dp377
Vcom.youku.phone
p378
(dp379
g10
F1.8
ssVim.yixin
p380
(dp381
g10
I1
ssVcom.android.deskclock
p382
(dp383
g10
F11.899999999999999
ssVcom.UCMobile
p384
(dp385
g10
F19.899999999999995
ssVvStudio.Android.Camera360
p386
(dp387
g10
F1.3
ssVcom.android.launcher
p388
(dp389
g10
F282.59999999999962
ssg33
(dp390
g10
F15.500000000000005
ssg67
(dp391
g10
F0.40000000000000002
ssVcom.heqee.book.mcnxsr
p392
(dp393
g10
F7.1000000000000005
ssVcom.android.packageinstaller
p394
(dp395
g10
F0.69999999999999996
ssg43
(dp396
g10
F21.099999999999994
ssVcom.taobao.taobao
p397
(dp398
g10
F4
ssg49
(dp399
g10
F0.69999999999999996
ssVcom.myzaker.ZAKER_Phone
p400
(dp401
g10
F16.799999999999997
ssg53
(dp402
g10
F0.90000000000000002
ssg55
(dp403
g10
F21.999999999999993
ssg57
(dp404
g10
F8.2000000000000011
ssg61
(dp405
g10
F2.2000000000000002
ssVcom.tencent.mm
p406
(dp407
g10
F123.90000000000019
ssVus.pinguo.idcamera
p408
(dp409
g10
F1.3
ssVcom.meizu.mstore
p410
(dp411
g10
F4.2999999999999998
ssVcom.yipiao
p412
(dp413
g10
F0.90000000000000002
ssVcom.android.fileexplorer
p414
(dp415
g10
F2.2000000000000002
ssVcom.tencent.tmgp.gb
p416
(dp417
g10
F3.8999999999999999
ssg91
(dp418
g10
F2
ssVcom.jzyd.BanTang
p419
(dp420
g10
F2.2999999999999998
ssVcom.skycall.oem
p421
(dp422
g10
F4.8000000000000007
ssVcom.tuan800.tao800
p423
(dp424
g10
F0.90000000000000002
ssg105
(dp425
g10
F0.40000000000000002
ssVcom.tencent.mobileqq
p426
(dp427
g10
F98.300000000000068
ssg111
(dp428
g10
F3.7000000000000002
ssVcom.liulishuo.engzo
p429
(dp430
g10
F16.299999999999997
ssVcom.ting.mp3.android
p431
(dp432
g10
F9
ssVcom.baidu.tieba
p433
(dp434
g10
F19.099999999999998
ssg142
(dp435
g10
F6.2000000000000011
ssVcom.meizu.media.music
p436
(dp437
g10
F0.90000000000000002
ssVcom.meizu.flyme.weather
p438
(dp439
g10
F1.3999999999999999
sssg37
(dp440
Vcom.eg.android.AlipayGphone
p441
(dp442
g10
F0.40000000000000002
ssVcom.tencent.mobileqq
p443
(dp444
g10
I1
ssg204
(dp445
g10
F1.6000000000000001
ssVcom.android.launcher
p446
(dp447
g10
F3.3999999999999999
ssVcom.soft.blued
p448
(dp449
g10
F11.199999999999999
sssg39
(dp450
Vim.yixin
p451
(dp452
g10
F1.3
ssVcom.android.launcher
p453
(dp454
g10
F1.7
sssg41
(dp455
Vqsbk.app
p456
(dp457
g10
F0.69999999999999996
ssVcom.meizu.mstore
p458
(dp459
g10
F0.40000000000000002
ssVcom.liulishuo.engzo
p460
(dp461
g10
F1.3
ssVcom.UCMobile
p462
(dp463
g10
F2.7000000000000002
ssg89
(dp464
g10
F1.3
ssVcom.android.launcher
p465
(dp466
g10
F6.4000000000000004
ssVcom.tencent.mobileqq
p467
(dp468
g10
F3.2999999999999998
ssVcom.eg.android.AlipayGphone
p469
(dp470
g10
F0.90000000000000002
sssg43
(dp471
Vcom.tencent.mobileqq
p472
(dp473
g10
F3.4000000000000004
ssVcom.happyelements.AndroidAnimal
p474
(dp475
g10
F0.40000000000000002
ssVcom.ting.mp3.android
p476
(dp477
g10
F5.5999999999999996
ssVcom.UCMobile
p478
(dp479
g10
F3.2999999999999998
ssVcom.android.launcher
p480
(dp481
g10
F16.999999999999996
ssVcom.android.phone
p482
(dp483
g10
I1
ssVcom.meizu.media.gallery
p484
(dp485
g10
F3.6999999999999997
ssVcom.tencent.mm
p486
(dp487
g10
F6.7000000000000002
ssVcom.eg.android.AlipayGphone
p488
(dp489
g10
I3
ssVcom.soft.blued
p490
(dp491
g10
F19.799999999999994
sssg45
(dp492
Vcom.meizu.media.reader
p493
(dp494
g10
F1.7
ssVcom.android.launcher
p495
(dp496
g10
F13.899999999999999
ssVcom.tencent.mobileqq
p497
(dp498
g10
F4.5000000000000009
ssVcom.android.fileexplorer
p499
(dp500
g10
F0.40000000000000002
ssVcom.baidu.tieba
p501
(dp502
g10
F0.90000000000000002
ssg91
(dp503
g10
F0.90000000000000002
ssVcom.android.phone
p504
(dp505
g10
F1.3
ssg351
(dp506
g10
F1.3
ssVcom.tencent.mm
p507
(dp508
g10
F1.1000000000000001
ssVcom.eg.android.AlipayGphone
p509
(dp510
g10
I1
ssVcom.soft.blued
p511
(dp512
g10
F4.7999999999999998
sssg47
(dp513
Vcom.tencent.mobileqq
p514
(dp515
g10
F0.90000000000000002
ssVcom.android.launcher
p516
(dp517
g10
F1.7
ssVcom.soft.blued
p518
(dp519
g10
F0.40000000000000002
sssg49
(dp520
Vcom.tencent.mobileqq
p521
(dp522
g10
F0.69999999999999996
ssVcom.android.deskclock
p523
(dp524
g10
F0.40000000000000002
ssVcom.UCMobile
p525
(dp526
g10
F1.7
ssVcom.android.launcher
p527
(dp528
g10
F3.8999999999999999
ssVcom.tencent.mm
p529
(dp530
g10
F2.3999999999999999
ssVcom.eg.android.AlipayGphone
p531
(dp532
g10
F0.40000000000000002
ssVcom.soft.blued
p533
(dp534
g10
F1.8
sssg51
(dp535
Vcom.lovebizhi.wallpaper
p536
(dp537
g10
F0.90000000000000002
ssg431
(dp538
g10
F1.3
ssVcom.skycall.oem
p539
(dp540
g10
F1.3
ssVcom.sankuai.meituan
p541
(dp542
g10
F0.40000000000000002
ssg71
(dp543
g10
F0.40000000000000002
ssVcom.youdao.dict
p544
(dp545
g10
F0.69999999999999996
ssVcom.dianxinos.optimizer.duplay
p546
(dp547
g10
F0.40000000000000002
ssg107
(dp548
g10
F0.90000000000000002
ssVcom.tencent.mm
p549
(dp550
g10
F10.900000000000002
ssVcom.youku.phone
p551
(dp552
g10
F0.90000000000000002
ssg19
(dp553
g10
F5.6999999999999993
ssVcom.UCMobile
p554
(dp555
g10
F0.80000000000000004
ssVcom.baidu.tieba
p556
(dp557
g10
F0.90000000000000002
ssVcom.android.gamecenter
p558
(dp559
g10
F1.3
ssVcom.android.launcher
p560
(dp561
g10
F37.599999999999994
ssVcom.android.phone
p562
(dp563
g10
F1.1000000000000001
ssVcom.meizu.flyme.weather
p564
(dp565
g10
F1.3
ssVcom.tencent.mobileqq
p566
(dp567
g10
F2.7000000000000002
ssVcom.eg.android.AlipayGphone
p568
(dp569
g10
F1.3
ssVcom.soft.blued
p570
(dp571
g10
F19.999999999999989
sssg53
(dp572
Vcom.android.launcher
p573
(dp574
g10
I1
sssg55
(dp575
Vcom.skycall.oem
p576
(dp577
g10
F13.000000000000002
ssVcom.sankuai.meituan
p578
(dp579
g10
F1.7
ssVcom.meizu.mstore
p580
(dp581
g10
I1
ssVcom.android.calculator
p582
(dp583
g10
F0.40000000000000002
ssVcom.android.settings
p584
(dp585
g10
F2.2000000000000002
ssVim.yixin
p586
(dp587
g10
F0.69999999999999996
ssVcom.meizu.media.camera
p588
(dp589
g10
I2
ssVcom.android.mms
p590
(dp591
g10
F6.6000000000000005
ssg25
(dp592
g10
F1.7000000000000002
ssVcom.liulishuo.engzo
p593
(dp594
g10
F1.7000000000000002
ssVcom.UCMobile
p595
(dp596
g10
I1
ssVcom.tencent.tmgp.gb
p597
(dp598
g10
I1
ssVcom.myzaker.ZAKER_Phone
p599
(dp600
g10
F1.3
ssVcom.tencent.mobileqq
p601
(dp602
g10
F9.5
ssVcom.android.launcher
p603
(dp604
g10
F101.40000000000011
ssVcom.meizu.media.music
p605
(dp606
g10
F0.40000000000000002
ssVcom.baidu.tieba
p607
(dp608
g10
F0.40000000000000002
ssg263
(dp609
g10
F2.5
ssVcom.tencent.mm
p610
(dp611
g10
F13.100000000000001
ssVcom.eg.android.AlipayGphone
p612
(dp613
g10
F0.90000000000000002
ssVcom.soft.blued
p614
(dp615
g10
F16
sssg57
(dp616
g373
(dp617
g10
F0.40000000000000002
ssVcom.skycall.oem
p618
(dp619
g10
F0.69999999999999996
ssg11
(dp620
g10
F0.40000000000000002
ssVcom.dianxinos.optimizer.duplay
p621
(dp622
g10
F0.90000000000000002
ssVcom.tencent.mobileqq
p623
(dp624
g10
F4.7999999999999998
ssVcom.meizu.media.camera
p625
(dp626
g10
I1
ssVcom.taobao.taobao
p627
(dp628
g10
F0.40000000000000002
ssVcom.android.deskclock
p629
(dp630
g10
F0.40000000000000002
ssVcom.UCMobile
p631
(dp632
g10
F2.2999999999999998
ssVvStudio.Android.Camera360
p633
(dp634
g10
F1.8
ssg347
(dp635
g10
F0.90000000000000002
ssg119
(dp636
g10
F0.40000000000000002
ssVcom.android.launcher
p637
(dp638
g10
F30.699999999999989
ssg361
(dp639
g10
F0.40000000000000002
ssg95
(dp640
g10
F0.90000000000000002
ssVcom.meizu.flyme.weather
p641
(dp642
g10
I2
ssVcom.tencent.mm
p643
(dp644
g10
F8.1000000000000014
ssg33
(dp645
g10
F3.6000000000000001
ssVcom.soft.blued
p646
(dp647
g10
F4.0999999999999996
sssg59
(dp648
g85
(dp649
g10
F0.90000000000000002
ssVcom.tencent.mm
p650
(dp651
g10
F0.40000000000000002
ssVcom.android.launcher
p652
(dp653
g10
F2.7000000000000002
ssVcom.soft.blued
p654
(dp655
g10
F0.90000000000000002
sssg61
(dp656
g421
(dp657
g10
F0.90000000000000002
ssg357
(dp658
g10
F0.40000000000000002
ssVcom.myzaker.ZAKER_Phone
p659
(dp660
g10
F1.3
ssVcom.baidu.tieba
p661
(dp662
g10
F1.3
ssVcom.android.launcher
p663
(dp664
g10
F8.8000000000000007
ssVcom.tencent.mm
p665
(dp666
g10
F0.69999999999999996
ssg163
(dp667
g10
F1.8
ssVcom.meizu.flyme.weather
p668
(dp669
g10
F0.40000000000000002
sssg63
(dp670
g8
(dp671
g10
F0.90000000000000002
ssg11
(dp672
g10
F3.9000000000000004
ssg15
(dp673
g10
F2.2000000000000002
ssg17
(dp674
g10
F1.3
ssVcom.android.deskclock
p675
(dp676
g10
F2
ssVcom.UCMobile
p677
(dp678
g10
F16.600000000000001
ssg386
(dp679
g10
F2.1000000000000001
ssVcom.android.launcher
p680
(dp681
g10
F306.19999999999936
ssVcom.liulishuo.engzo
p682
(dp683
g10
F8.1999999999999993
ssVcom.eg.android.AlipayGphone
p684
(dp685
g10
F14.700000000000003
ssVcom.soft.blued
p686
(dp687
g10
F146.20000000000027
ssVcom.sankuai.meituan
p688
(dp689
g10
F4
ssVcom.taobao.taobao
p690
(dp691
g10
F3.2000000000000002
ssVcom.android.video
p692
(dp693
g10
F1.8
ssg273
(dp694
g10
F9.5999999999999996
ssg53
(dp695
g10
F0.69999999999999996
ssg55
(dp696
g10
F15.600000000000003
ssg238
(dp697
g10
F7.700000000000002
ssg159
(dp698
g10
F2.4000000000000004
ssg321
(dp699
g10
F95.800000000000068
ssg544
(dp700
g10
F2.7000000000000002
ssg69
(dp701
g10
F0.90000000000000002
ssVcom.meizu.mstore
p702
(dp703
g10
F10.899999999999999
ssg77
(dp704
g10
F0.40000000000000002
ssg79
(dp705
g10
F1.7000000000000002
ssg81
(dp706
g10
F1.8
ssg536
(dp707
g10
F0.40000000000000002
ssVcom.android.fileexplorer
p708
(dp709
g10
I1
ssVcom.tencent.tmgp.gb
p710
(dp711
g10
I1
ssg187
(dp712
g10
F0.90000000000000002
ssVcom.jzyd.BanTang
p713
(dp714
g10
F1.7000000000000002
ssg97
(dp715
g10
F1.7
ssVcom.skycall.oem
p716
(dp717
g10
F4.0999999999999996
ssg21
(dp718
g10
F1.7000000000000002
ssVcom.android.settings
p719
(dp720
g10
F5.5999999999999996
ssVcom.android.mms
p721
(dp722
g10
F2.7000000000000002
ssg31
(dp723
g10
I1
ssg115
(dp724
g10
F3.6000000000000001
ssg433
(dp725
g10
F4.7000000000000002
ssVcom.nerser.ccser
p726
(dp727
g10
F1.3
ssVcom.meizu.flyme.weather
p728
(dp729
g10
F3.7000000000000002
sssg65
(dp730
Vcom.tencent.mobileqq
p731
(dp732
g10
F0.40000000000000002
ssVcom.android.launcher
p733
(dp734
g10
F1.7
ssVcom.soft.blued
p735
(dp736
g10
F0.90000000000000002
sssg67
(dp737
Vcom.ting.mp3.android
p738
(dp739
g10
F1.3
ssVcom.tencent.mm
p740
(dp741
g10
I1
ssVcom.meizu.mstore
p742
(dp743
g10
F0.40000000000000002
ssVcom.android.launcher
p744
(dp745
g10
F3.4000000000000004
sssg69
(dp746
g677
(dp747
g10
F0.90000000000000002
ssVcom.tencent.mm
p748
(dp749
g10
F0.40000000000000002
ssVcom.youku.phone
p750
(dp751
g10
F0.90000000000000002
ssVcom.android.launcher
p752
(dp753
g10
F3.4000000000000004
ssg140
(dp754
g10
F0.40000000000000002
sssg71
(dp755
g156
(dp756
g10
F0.90000000000000002
ssVcom.android.launcher
p757
(dp758
g10
F1.7
sssg73
(dp759
g229
(dp760
g10
F1.8
ssVcom.tencent.mm
p761
(dp762
g10
F0.40000000000000002
ssVcom.android.launcher
p763
(dp764
g10
F4.0999999999999996
sssg75
(dp765
Vcom.youku.phone
p766
(dp767
g10
F1.6000000000000001
ssVcom.tuan800.tao800
p768
(dp769
g10
F2.6999999999999997
ssg514
(dp770
g10
F1.5
ssg47
(dp771
g10
F0.90000000000000002
ssg115
(dp772
g10
F1.3999999999999999
ssg21
(dp773
g10
F0.69999999999999996
ssVcom.myzaker.ZAKER_Phone
p774
(dp775
g10
F0.40000000000000002
ssVcom.baidu.tieba
p776
(dp777
g10
F0.40000000000000002
ssVcom.android.launcher
p778
(dp779
g10
F32.099999999999994
ssVcom.android.phone
p780
(dp781
g10
I1
ssVcom.meizu.media.gallery
p782
(dp783
g10
F0.90000000000000002
ssg29
(dp784
g10
F1.7
ssg97
(dp785
g10
F0.40000000000000002
ssVcom.tencent.mm
p786
(dp787
g10
F15.799999999999999
ssVcom.eg.android.AlipayGphone
p788
(dp789
g10
F2.7000000000000002
ssVcom.soft.blued
p790
(dp791
g10
F6.4000000000000004
sssg77
(dp792
sg79
(dp793
Vcom.android.settings
p794
(dp795
g10
F0.90000000000000002
ssVcom.tencent.mm
p796
(dp797
g10
F4
ssVcom.android.launcher
p798
(dp799
g10
F10.199999999999999
ssVcom.soft.blued
p800
(dp801
g10
F0.80000000000000004
sssg81
(dp802
Vcom.meizu.media.gallery
p803
(dp804
g10
F1.7
ssg79
(dp805
g10
F0.40000000000000002
ssVcom.skycall.oem
p806
(dp807
g10
F0.90000000000000002
ssVcom.tencent.mm
p808
(dp809
g10
F1.8
ssVcom.android.launcher
p810
(dp811
g10
F8.4000000000000004
sssg83
(dp812
Vcom.tencent.mobileqq
p813
(dp814
g10
F3.6000000000000001
ssVcom.liulishuo.engzo
p815
(dp816
g10
F0.40000000000000002
ssVcom.tencent.mm
p817
(dp818
g10
F2.2000000000000002
ssVcom.android.launcher
p819
(dp820
g10
F9.4000000000000004
ssVcom.soft.blued
p821
(dp822
g10
F1.3
sssg85
(dp823
Vcom.meizu.media.gallery
p824
(dp825
g10
F0.90000000000000002
ssg95
(dp826
g10
F0.40000000000000002
ssg546
(dp827
g10
F1.3
ssVcom.android.launcher
p828
(dp829
g10
F3.4000000000000004
sssg87
(dp830
g105
(dp831
g10
F1.3
ssVcom.android.settings
p832
(dp833
g10
F1.8
ssVcom.taobao.taobao
p834
(dp835
g10
F0.40000000000000002
ssVcom.android.deskclock
p836
(dp837
g10
F0.69999999999999996
ssg103
(dp838
g10
I1
ssg27
(dp839
g10
F12.6
ssg35
(dp840
g10
F2.2000000000000002
ssVcom.tencent.mm
p841
(dp842
g10
F0.90000000000000002
ssVcom.tencent.mobileqq
p843
(dp844
g10
F6.2000000000000002
sssg89
(dp845
Vcom.tencent.mm
p846
(dp847
g10
F2.7000000000000002
ssVcom.tencent.mobileqq
p848
(dp849
g10
F9.8000000000000007
ssVcom.android.launcher
p850
(dp851
g10
F11.5
ssVcom.soft.blued
p852
(dp853
g10
F3
sssg91
(dp854
Vcom.ting.mp3.android
p855
(dp856
g10
I1
ssVcom.tencent.mm
p857
(dp858
g10
F0.40000000000000002
ssVcom.tencent.mobileqq
p859
(dp860
g10
F4.3000000000000007
ssVcom.android.launcher
p861
(dp862
g10
F4.4000000000000004
sssg93
(dp863
Vcom.ting.mp3.android
p864
(dp865
g10
F0.90000000000000002
ssg719
(dp866
g10
F0.40000000000000002
ssVcom.tencent.mm
p867
(dp868
g10
F1.3
ssVcom.android.launcher
p869
(dp870
g10
F4.4000000000000004
ssVcom.android.phone
p871
(dp872
g10
F0.90000000000000002
sssg95
(dp873
Vcom.meizu.mstore
p874
(dp875
g10
F0.90000000000000002
ssVcom.tencent.mm
p876
(dp877
g10
F3
ssVcom.myzaker.ZAKER_Phone
p878
(dp879
g10
F0.69999999999999996
ssVcom.baidu.tieba
p880
(dp881
g10
F0.40000000000000002
ssVcom.android.launcher
p882
(dp883
g10
F5.8000000000000007
ssVcom.tencent.mobileqq
p884
(dp885
g10
F7.5000000000000009
ssVcom.soft.blued
p886
(dp887
g10
F6
sssg97
(dp888
Vcom.adsafe
p889
(dp890
g10
I1
ssg225
(dp891
g10
F1.7
ssg227
(dp892
g10
F1.8
sssg99
(dp893
Vcom.youku.phone
p894
(dp895
g10
F1.1000000000000001
ssg382
(dp896
g10
F3.6000000000000001
ssg103
(dp897
g10
F26.499999999999986
ssg25
(dp898
g10
F0.40000000000000002
ssg27
(dp899
g10
F249.79999999999984
ssVcom.eg.android.AlipayGphone
p900
(dp901
g10
F19.300000000000001
ssg35
(dp902
g10
F92.500000000000114
ssVcom.heqee.book.mcnxsr
p903
(dp904
g10
F1.7
ssg41
(dp905
g10
F7.5
ssVcom.sankuai.meituan
p906
(dp907
g10
F1.3
ssg45
(dp908
g10
F7.7000000000000002
ssVcom.android.video
p909
(dp910
g10
F0.90000000000000002
ssg400
(dp911
g10
F5.7999999999999998
ssg558
(dp912
g10
F0.69999999999999996
ssVcom.android.phone
p913
(dp914
g10
F12.700000000000001
ssVcom.meizu.media.gallery
p915
(dp916
g10
F5.2999999999999998
ssVcn.ibuka.manga.ui
p917
(dp918
g10
F1.1000000000000001
ssVcom.tencent.mm
p919
(dp920
g10
F101.50000000000006
ssg456
(dp921
g10
F1.3
ssVcom.meizu.mstore
p922
(dp923
g10
F2.2000000000000002
ssVcom.yipiao
p924
(dp925
g10
F1.8
ssg87
(dp926
g10
F6.8000000000000007
ssVcom.tencent.tmgp.gb
p927
(dp928
g10
F9.2000000000000011
ssVcom.sankuai.movie
p929
(dp930
g10
F2.7000000000000002
ssVcom.happyelements.AndroidAnimal
p931
(dp932
g10
I1
ssg713
(dp933
g10
F7.8000000000000007
ssVcom.skycall.oem
p934
(dp935
g10
F12.6
ssg109
(dp936
g10
F1.7000000000000002
ssVcom.android.settings
p937
(dp938
g10
F0.69999999999999996
ssVcom.android.mms
p939
(dp940
g10
I1
ssg305
(dp941
g10
F12.199999999999999
ssVcom.ting.mp3.android
p942
(dp943
g10
F3.8999999999999999
ssVcom.baidu.tieba
p944
(dp945
g10
F14.499999999999998
ssVcom.meizu.media.music
p946
(dp947
g10
F0.90000000000000002
ssg438
(dp948
g10
F1.8999999999999999
sssg101
(dp949
Vcom.tencent.mm
p950
(dp951
g10
F4
ssg590
(dp952
g10
F2.6999999999999997
ssVcom.yipiao
p953
(dp954
g10
F0.90000000000000002
ssVcom.android.deskclock
p955
(dp956
g10
F1.3
ssVcom.UCMobile
p957
(dp958
g10
I1
ssVcom.baidu.tieba
p959
(dp960
g10
F0.90000000000000002
ssVcom.meizu.mzsnssyncservice
p961
(dp962
g10
F1.3
ssVcom.android.launcher
p963
(dp964
g10
F32.29999999999999
ssVcom.android.phone
p965
(dp966
g10
F7.5000000000000009
ssg605
(dp967
g10
F0.90000000000000002
ssVcom.soft.blued
p968
(dp969
g10
F7.8000000000000007
ssVcom.tencent.mobileqq
p970
(dp971
g10
F7
ssVcom.eg.android.AlipayGphone
p972
(dp973
g10
F2
ssVcom.android.settings
p974
(dp975
g10
F0.69999999999999996
sssg103
(dp976
Vcom.baidu.netdisk
p977
(dp978
g10
F0.69999999999999996
ssg523
(dp979
g10
F3.2999999999999998
ssVcom.android.launcher
p980
(dp981
g10
F59.399999999999999
ssVcom.soft.blued
p982
(dp983
g10
F15.700000000000001
ssg41
(dp984
g10
F5.3000000000000007
ssVcom.sankuai.meituan
p985
(dp986
g10
F2.3999999999999999
ssg627
(dp987
g10
F0.90000000000000002
ssg49
(dp988
g10
F1.3
ssVcom.myzaker.ZAKER_Phone
p989
(dp990
g10
F2.2999999999999998
ssVcom.android.phone
p991
(dp992
g10
F3
ssVcom.meizu.media.gallery
p993
(dp994
g10
F2.2999999999999998
ssg61
(dp995
g10
F0.90000000000000002
ssg748
(dp996
g10
F14.9
ssVcom.meizu.mstore
p997
(dp998
g10
F1.3
ssVcom.android.fileexplorer
p999
(dp1000
g10
I1
ssg89
(dp1001
g10
F0.69999999999999996
ssVcom.tencent.mobileqq
p1002
(dp1003
g10
F32.09999999999998
ssVcom.skycall.oem
p1004
(dp1005
g10
I1
ssg117
(dp1006
g10
I1
ssVcom.android.settings
p1007
(dp1008
g10
F4.2999999999999998
ssVcom.android.mms
p1009
(dp1010
g10
F0.90000000000000002
ssVcom.liulishuo.engzo
p1011
(dp1012
g10
F4.3000000000000007
ssg621
(dp1013
g10
F0.40000000000000002
ssg661
(dp1014
g10
F1.3
sssg105
(dp1015
Vcom.android.settings
p1016
(dp1017
g10
F16.999999999999996
ssVcom.tencent.mm
p1018
(dp1019
g10
F1.8
ssVcom.myzaker.ZAKER_Phone
p1020
(dp1021
g10
F0.40000000000000002
ssVcom.baidu.tieba
p1022
(dp1023
g10
F1.3
ssVcom.android.launcher
p1024
(dp1025
g10
F11.5
ssVcom.tencent.mobileqq
p1026
(dp1027
g10
F0.40000000000000002
ssVcom.eg.android.AlipayGphone
p1028
(dp1029
g10
F1.3
ssVcom.soft.blued
p1030
(dp1031
g10
F0.40000000000000002
sssg107
(dp1032
g117
(dp1033
g10
F0.69999999999999996
ssg69
(dp1034
g10
F0.40000000000000002
ssg138
(dp1035
g10
F0.40000000000000002
ssVus.pinguo.idcamera
p1036
(dp1037
g10
I1
ssVcom.youku.phone
p1038
(dp1039
g10
F1.8
ssVcom.android.fileexplorer
p1040
(dp1041
g10
F1.7000000000000002
ssVcom.android.calculator
p1042
(dp1043
g10
F2.7000000000000002
ssVcom.meizu.media.camera
p1044
(dp1045
g10
F1.3
ssg144
(dp1046
g10
F0.40000000000000002
ssg111
(dp1047
g10
F1.3
ssg1004
(dp1048
g10
F0.69999999999999996
ssg554
(dp1049
g10
F5.9000000000000004
ssVcom.android.launcher
p1050
(dp1051
g10
F37.499999999999993
ssVcom.meizu.media.gallery
p1052
(dp1053
g10
F0.69999999999999996
ssg761
(dp1054
g10
F2.6000000000000001
ssVcom.dianxinos.optimizer.duplay
p1055
(dp1056
g10
F16.299999999999997
ssVcom.eg.android.AlipayGphone
p1057
(dp1058
g10
F1.6000000000000001
ssVcom.soft.blued
p1059
(dp1060
g10
F5.3000000000000007
sssg109
(dp1061
Vcom.meizu.mstore
p1062
(dp1063
g10
I1
ssVcom.taobao.taobao
p1064
(dp1065
g10
F0.69999999999999996
ssVcom.ting.mp3.android
p1066
(dp1067
g10
F2.7000000000000002
ssVcom.android.launcher
p1068
(dp1069
g10
F4.9000000000000004
ssVcom.tencent.mobileqq
p1070
(dp1071
g10
F1.3999999999999999
ssVcom.soft.blued
p1072
(dp1073
g10
F0.69999999999999996
sssg111
(dp1074
Vcom.skycall.oem
p1075
(dp1076
g10
F1.3999999999999999
ssVcom.meizu.mstore
p1077
(dp1078
g10
F1.3
ssVcom.android.settings
p1079
(dp1080
g10
F1.6000000000000001
ssg586
(dp1081
g10
F1.7000000000000002
ssVcom.taobao.taobao
p1082
(dp1083
g10
F1.3
ssVcom.ting.mp3.android
p1084
(dp1085
g10
I1
ssVcom.baidu.tieba
p1086
(dp1087
g10
F1.3
ssVcom.android.launcher
p1088
(dp1089
g10
F22.699999999999992
ssg249
(dp1090
g10
F8.3000000000000007
ssVcom.meizu.media.gallery
p1091
(dp1092
g10
F0.69999999999999996
ssVcom.tencent.mobileqq
p1093
(dp1094
g10
I1
ssVcom.tencent.mm
p1095
(dp1096
g10
F2.7999999999999998
ssg1057
(dp1097
g10
F0.40000000000000002
ssVcom.soft.blued
p1098
(dp1099
g10
F1.7
sssg113
(dp1100
g8
(dp1101
g10
F0.40000000000000002
ssVcom.tencent.mm
p1102
(dp1103
g10
F13.700000000000001
ssVcom.android.packageinstaller
p1104
(dp1105
g10
F0.90000000000000002
ssVcom.android.deskclock
p1106
(dp1107
g10
F0.90000000000000002
ssVcom.UCMobile
p1108
(dp1109
g10
F1.3
ssVvStudio.Android.Camera360
p1110
(dp1111
g10
F0.40000000000000002
ssVcom.baidu.tieba
p1112
(dp1113
g10
F0.90000000000000002
ssVcom.android.launcher
p1114
(dp1115
g10
F22.299999999999997
ssVcom.tencent.mobileqq
p1116
(dp1117
g10
F13.199999999999999
ssVcom.eg.android.AlipayGphone
p1118
(dp1119
g10
F3.5999999999999996
ssVcom.soft.blued
p1120
(dp1121
g10
F15.999999999999998
sssg115
(dp1122
g67
(dp1123
g10
F1.3
ssg284
(dp1124
g10
F2.2000000000000002
ssVcom.tuan800.tao800
p1125
(dp1126
g10
I1
ssg472
(dp1127
g10
F2.7000000000000002
ssg541
(dp1128
g10
F4.5
ssVcom.android.mms
p1129
(dp1130
g10
I1
ssg15
(dp1131
g10
F0.40000000000000002
ssVcom.taobao.taobao
p1132
(dp1133
g10
F1.3
ssVcom.liulishuo.engzo
p1134
(dp1135
g10
F0.90000000000000002
ssVcom.android.fileexplorer
p1136
(dp1137
g10
F0.40000000000000002
ssVcom.android.launcher
p1138
(dp1139
g10
F27.699999999999996
ssVcom.android.settings
p1140
(dp1141
g10
F1.3
ssg474
(dp1142
g10
F0.90000000000000002
ssVcom.tencent.mm
p1143
(dp1144
g10
F3.5
ssVcom.soft.blued
p1145
(dp1146
g10
F9.3000000000000025
sssg117
(dp1147
Vcom.UCMobile
p1148
(dp1149
g10
F1.7
ssVcom.android.launcher
p1150
(dp1151
g10
F0.40000000000000002
ssVcom.android.phone
p1152
(dp1153
g10
F0.90000000000000002
sssg119
(dp1154
Vcom.meizu.mstore
p1155
(dp1156
g10
F1.7000000000000002
ssVcom.android.fileexplorer
p1157
(dp1158
g10
F0.90000000000000002
ssVcom.tencent.mobileqq
p1159
(dp1160
g10
F17.899999999999999
ssg13
(dp1161
g10
F1.3
ssg369
(dp1162
g10
F0.90000000000000002
ssg909
(dp1163
g10
F0.40000000000000002
ssg1110
(dp1164
g10
F0.90000000000000002
ssVcom.android.deskclock
p1165
(dp1166
g10
F1.8999999999999999
ssVcom.UCMobile
p1167
(dp1168
g10
F1.8999999999999999
ssVcom.tencent.tmgp.gb
p1169
(dp1170
g10
F1.6000000000000001
ssVcom.myzaker.ZAKER_Phone
p1171
(dp1172
g10
F0.90000000000000002
ssVcom.android.launcher
p1173
(dp1174
g10
F38.799999999999997
ssg832
(dp1175
g10
F0.40000000000000002
ssg125
(dp1176
g10
F1.8
ssg63
(dp1177
g10
F3.5
ssVcom.soft.blued
p1178
(dp1179
g10
F21.099999999999998
sssg121
(dp1180
Vcom.skycall.oem
p1181
(dp1182
g10
F0.40000000000000002
ssVcom.tencent.mm
p1183
(dp1184
g10
F0.90000000000000002
ssVcom.android.launcher
p1185
(dp1186
g10
F5.4000000000000004
ssVcom.android.phone
p1187
(dp1188
g10
F0.90000000000000002
sssg123
(dp1189
Vcom.tencent.mm
p1190
(dp1191
g10
F0.90000000000000002
ssVcom.android.launcher
p1192
(dp1193
g10
I2
sssg125
(dp1194
Vcom.meizu.mstore
p1195
(dp1196
g10
F1.3
ssg77
(dp1197
g10
F0.90000000000000002
ssg1159
(dp1198
g10
F0.90000000000000002
ssg71
(dp1199
g10
F0.90000000000000002
ssVcom.meizu.media.camera
p1200
(dp1201
g10
F0.90000000000000002
ssg45
(dp1202
g10
F0.40000000000000002
ssVcom.android.deskclock
p1203
(dp1204
g10
F6.9000000000000004
ssg273
(dp1205
g10
F0.40000000000000002
ssVcom.android.launcher
p1206
(dp1207
g10
F20.800000000000001
ssg63
(dp1208
g10
F2.7000000000000002
ssVcom.soft.blued
p1209
(dp1210
g10
F1.1000000000000001
ssssS'edge'
p1211
g131
sS'graph'
p1212
(dp1213
sS'adjlist_dict_factory'
p1214
g128
sS'adj'
p1215
g131
sS'pred'
p1216
(dp1217
g8
(dp1218
Vcom.tencent.mm
p1219
g671
sg1132
g494
sg1114
g252
sVcom.liulishuo.engzo
p1220
g1101
ssg11
(dp1221
g456
g751
sg874
g767
sg643
g672
sVcom.myzaker.ZAKER_Phone
p1222
g552
sVcom.android.launcher
p1223
g253
sVcom.android.settings
p1224
g1039
sg238
g620
sg29
g317
sVcom.tencent.mobileqq
p1225
g895
sVcom.eg.android.AlipayGphone
p1226
g333
sVcom.soft.blued
p1227
g379
ssg13
(dp1228
Vcom.sparklykey.qinsmoon.wdj
p1229
g452
sVcom.android.mms
p1230
g1081
sVcom.baidu.tieba
p1231
g1161
sVcom.android.launcher
p1232
g254
sVcom.android.phone
p1233
g587
sVcom.soft.blued
p1234
g381
ssg15
(dp1235
Vcom.ting.mp3.android
p1236
g1131
sVcom.UCMobile
p1237
g978
sVcom.tencent.mm
p1238
g673
sg193
g335
sVcom.android.launcher
p1239
g255
ssg17
(dp1240
Vcom.tencent.mm
p1241
g674
sVcom.android.launcher
p1242
g256
ssg19
(dp1243
Vcom.skycall.oem
p1244
g956
sg525
g979
sVcom.tencent.mobileqq
p1245
g896
sVcom.baidu.netdisk
p1246
g182
sVcom.liulishuo.engzo
p1247
g1107
sg708
g837
sg49
g524
sVcom.myzaker.ZAKER_Phone
p1248
g553
sVcom.baidu.tieba
p1249
g1166
sVcom.android.launcher
p1250
g257
sVcom.meizu.media.gallery
p1251
g630
sVcom.meizu.flyme.weather
p1252
g1204
sVcom.tencent.mm
p1253
g676
sVcom.soft.blued
p1254
g383
ssg21
(dp1255
g97
g890
sVcom.tencent.mm
p1256
g718
sVcom.meizu.mstore
p1257
g773
sVcom.android.launcher
p1258
g258
ssg23
(dp1259
Vcom.liulishuo.engzo
p1260
g1111
sg1112
g1164
sVcom.android.launcher
p1261
g259
sVcom.meizu.media.gallery
p1262
g634
sg240
g679
sg242
g387
ssg25
(dp1263
Vcom.skycall.oem
p1264
g962
sVcom.tencent.mobileqq
p1265
g898
sVcom.android.launcher
p1266
g260
sVcom.android.phone
p1267
g592
ssg27
(dp1268
g8
g136
sg11
g155
sg13
g175
sg15
g180
sg17
g201
sg836
g211
sg21
g228
sg386
g237
sg25
g248
sg929
g862
sVcom.plantronics.headsetservice
p1269
g319
sg31
g328
sg33
g339
sVcom.soft.blued
p1270
g389
sg37
g447
sg1229
g454
sVcom.android.packageinstaller
p1271
g466
sVcom.sankuai.meituan
p1272
g481
sg45
g496
sg47
g517
sg909
g528
sg51
g561
sg558
g574
sg55
g604
sg57
g638
sg59
g653
sg61
g664
sg63
g681
sg65
g734
sg67
g745
sg69
g753
sg138
g758
sg73
g764
sg75
g779
sg79
g799
sVcom.meizu.media.camera
p1273
g811
sg83
g820
sVcom.lovebizhi.wallpaper
p1274
g829
sg87
g839
sVcom.tencent.tmgp.gb
p1275
g851
sg93
g870
sg95
g883
sg97
g892
sg99
g899
sg101
g964
sg103
g981
sg105
g1025
sg107
g1051
sg109
g1069
sg111
g1089
sg1220
g1115
sg431
g1139
sg117
g1151
sg119
g1174
sVcom.meizu.media.music
p1276
g1186
sg123
g1193
sg125
g1207
ssg29
(dp1277
Vcom.youku.phone
p1278
g158
sVcom.android.launcher
p1279
g262
sVcom.meizu.mstore
p1280
g784
ssg31
(dp1281
Vcom.tencent.mm
p1282
g723
sVcom.android.launcher
p1283
g264
sVcom.android.phone
p1284
g609
ssg33
(dp1285
g894
g164
sVcom.baidu.netdisk
p1286
g194
sVcom.android.deskclock
p1287
g219
sVcom.android.launcher
p1288
g265
sVcom.soft.blued
p1289
g390
sg37
g442
sVcom.android.packageinstaller
p1290
g470
sVcom.sankuai.meituan
p1291
g489
sVcom.taobao.taobao
p1292
g510
sg909
g532
sVcom.myzaker.ZAKER_Phone
p1293
g569
sVcom.android.phone
p1294
g613
sg57
g645
sg159
g667
sVcom.tencent.mobileqq
p1295
g901
sg140
g789
sVcom.tencent.mm
p1296
g685
sg101
g973
sVcom.dianxinos.optimizer.duplay
p1297
g1029
sg1079
g1058
sg111
g1097
sVcom.liulishuo.engzo
p1298
g1119
ssg35
(dp1299
Vcom.youku.phone
p1300
g166
sg977
g196
sg382
g215
sVcom.UCMobile
p1301
g983
sg23
g243
sVcom.android.launcher
p1302
g266
sg305
g1121
sVcom.eg.android.AlipayGphone
p1303
g341
sVcom.heqee.book.mcnxsr
p1304
g449
sg43
g491
sg690
g512
sg47
g519
sg49
g534
sVcom.myzaker.ZAKER_Phone
p1305
g571
sg55
g615
sVcom.meizu.media.gallery
p1306
g647
sVme.topit.TopAndroid2
p1307
g655
sVcom.tencent.mobileqq
p1308
g902
sg65
g736
sg1195
g791
sVcom.android.calculator
p1309
g801
sg924
g822
sVcom.android.fileexplorer
p1310
g840
sVcom.tencent.tmgp.gb
p1311
g853
sg95
g887
sVcom.skycall.oem
p1312
g969
sg1125
g1073
sVcom.dianxinos.optimizer.duplay
p1313
g1031
sg406
g687
sVcom.android.mms
p1314
g1099
sg31
g330
sVcom.ting.mp3.android
p1315
g1146
sg433
g1179
sVcom.android.settings
p1316
g1060
sVcom.meizu.flyme.weather
p1317
g1210
ssg37
(dp1318
Vcom.android.deskclock
p1319
g203
sg443
g904
sg448
g393
ssg39
(dp1320
Vcom.android.launcher
p1321
g267
ssg41
(dp1322
Vcom.UCMobile
p1323
g984
sg146
g1105
sVcom.tencent.mobileqq
p1324
g905
sVcom.android.launcher
p1325
g268
sVcom.soft.blued
p1326
g395
ssg43
(dp1327
g1038
g145
sg472
g907
sg1224
g1046
sg942
g1128
sVcom.UCMobile
p1328
g986
sVcom.myzaker.ZAKER_Phone
p1329
g542
sVcom.android.launcher
p1330
g269
sg482
g579
sVcom.tencent.mm
p1331
g689
sg488
g343
sVcom.soft.blued
p1332
g396
ssg45
(dp1333
g493
g134
sVcom.android.fileexplorer
p1334
g835
sg109
g1065
sg1159
g908
sg721
g1083
sVcom.ting.mp3.android
p1335
g1133
sg631
g987
sg1206
g270
sVcom.meizu.media.gallery
p1336
g628
sVcom.soft.blued
p1337
g398
sVcom.tencent.mm
p1338
g691
sg509
g345
sg125
g1202
ssg47
(dp1339
Vcom.android.launcher
p1340
g271
sg163
g346
sg357
g771
ssg49
(dp1341
Vcom.tencent.mm
p1342
g693
sVcom.UCMobile
p1343
g988
sVcom.baidu.tieba
p1344
g1163
sVcom.android.launcher
p1345
g272
sVcom.tencent.mobileqq
p1346
g910
sVcom.soft.blued
p1347
g399
ssg51
(dp1348
g232
g775
sg168
g1021
sg63
g694
sVcom.android.deskclock
p1349
g209
sVcom.UCMobile
p1350
g990
sVcom.baidu.tieba
p1351
g1172
sVcom.android.launcher
p1352
g274
sVcom.android.phone
p1353
g600
sg1251
g635
sVcom.jzyd.BanTang
p1354
g879
sVcn.ibuka.manga.ui
p1355
g660
sg668
g1205
sg514
g911
sVcom.eg.android.AlipayGphone
p1356
g348
sg518
g401
ssg53
(dp1357
g566
g912
sg400
g559
sVcom.tencent.mm
p1358
g695
sVcom.android.launcher
p1359
g275
sVcom.soft.blued
p1360
g402
ssg55
(dp1361
g934
g966
sVcom.sankuai.meituan
p1362
g483
sVcom.meizu.mstore
p1363
g781
sg117
g1153
sg406
g696
sVim.yixin
p1364
g177
sg245
g1090
sg977
g190
sVcom.meizu.mzsnssyncservice
p1365
g250
sVcom.meizu.blockservice
p1366
g324
sg336
g992
sVcom.myzaker.ZAKER_Phone
p1367
g563
sg1082
g505
sVcom.android.launcher
p1368
g276
sg93
g872
sg946
g1188
sVcom.tencent.mobileqq
p1369
g914
sVcom.eg.android.AlipayGphone
p1370
g350
sg686
g403
ssg57
(dp1371
Vcom.android.deskclock
p1372
g213
sVcom.meizu.mstore
p1373
g783
sVcom.tencent.mobileqq
p1374
g916
sg1272
g485
sg234
g804
sg939
g1092
sg1292
g506
sg1274
g825
sVcom.UCMobile
p1375
g994
sg386
g239
sVcom.android.launcher
p1376
g277
sg937
g1053
sVcom.tencent.mm
p1377
g697
sg509
g352
sg1289
g404
ssg59
(dp1378
sg61
(dp1379
g894
g160
sVcom.tencent.mm
p1380
g698
sg384
g995
sVcom.android.launcher
p1381
g278
sVcom.tencent.mobileqq
p1382
g918
sVcom.eg.android.AlipayGphone
p1383
g354
sg1059
g405
ssg63
(dp1384
g11
g162
sVim.yixin
p1385
g171
sg15
g192
sg677
g996
sg23
g241
sVcom.android.launcher
p1386
g279
sg1269
g315
sg113
g1103
sVcom.eg.android.AlipayGphone
p1387
g356
sVcom.soft.blued
p1388
g407
sg1272
g487
sVcom.taobao.taobao
p1389
g508
sg692
g530
sVcom.myzaker.ZAKER_Phone
p1390
g550
sg55
g611
sg238
g644
sg1307
g651
sg1355
g666
sVcom.tencent.mobileqq
p1391
g920
sg544
g741
sg69
g749
sg1036
g762
sg75
g787
sg79
g797
sg1273
g809
sg83
g818
sg1334
g842
sVcom.tencent.tmgp.gb
p1392
g847
sg361
g858
sg93
g868
sg713
g877
sg97
g891
sg934
g951
sg21
g226
sg621
g1019
sVcom.android.settings
p1393
g1054
sVcom.android.mms
p1394
g1096
sg31
g326
sg115
g1144
sg661
g1177
sg1276
g1184
sg123
g1191
sg668
g1208
ssg65
(dp1395
sg67
(dp1396
g431
g1123
sg599
g545
sVcom.tencent.mm
p1397
g700
sVcom.android.launcher
p1398
g280
sVcom.soft.blued
p1399
g391
ssg69
(dp1400
g1393
g1034
sg394
g457
sg761
g701
sVcom.android.launcher
p1401
g281
sVcom.tencent.mobileqq
p1402
g921
ssg71
(dp1403
Vcom.android.settings
p1404
g1035
sVcom.myzaker.ZAKER_Phone
p1405
g543
sVcom.youku.phone
p1406
g139
sVcom.android.launcher
p1407
g282
sg564
g1199
ssg73
(dp1408
Vcom.adsafe
p1409
g223
sVcom.soft.blued
p1410
g409
sVcom.android.launcher
p1411
g283
sg229
g1037
ssg75
(dp1412
Vcom.youdao.dict
p1413
g743
sg1319
g205
sg456
g754
sg750
g141
sg768
g1063
sVcom.tencent.mobileqq
p1414
g923
sg1290
g459
sVcom.android.mms
p1415
g1078
sg37
g445
sg115
g1124
sVcom.UCMobile
p1416
g998
sg1110
g233
sVcom.baidu.tieba
p1417
g1156
sg778
g285
sg780
g581
sVcom.jzyd.BanTang
p1418
g875
sg159
g658
sVcom.soft.blued
p1419
g411
sg786
g703
sg163
g358
sVcom.meizu.flyme.weather
p1420
g1196
ssg77
(dp1421
Vcom.tencent.mm
p1422
g704
sVcom.android.launcher
p1423
g286
sVcom.meizu.flyme.weather
p1424
g1197
ssg79
(dp1425
g719
g1043
sg588
g805
sVcom.android.launcher
p1426
g287
sVcom.android.phone
p1427
g583
sVcom.tencent.mm
p1428
g705
sVcom.eg.android.AlipayGphone
p1429
g360
ssg81
(dp1430
Vcom.android.settings
p1431
g1045
sVvStudio.Android.Camera360
p1432
g235
sVcom.android.launcher
p1433
g288
sVcom.android.phone
p1434
g589
sg803
g626
sVcom.tencent.mm
p1435
g706
sVcom.meizu.flyme.weather
p1436
g1201
ssg83
(dp1437
Vcom.skycall.oem
p1438
g954
sVcom.tencent.mobileqq
p1439
g925
sVcom.android.launcher
p1440
g289
sVcom.soft.blued
p1441
g413
ssg85
(dp1442
g170
g707
sg1020
g537
sg59
g649
sg652
g290
ssg87
(dp1443
Vcom.android.settings
p1444
g1041
sVcom.tencent.mm
p1445
g709
sg834
g500
sg1084
g1137
sVcom.UCMobile
p1446
g1000
sVcom.baidu.tieba
p1447
g1158
sg27
g292
sg99
g926
sg1270
g415
ssg89
(dp1448
Vcom.tencent.mm
p1449
g711
sg1271
g464
sVcom.UCMobile
p1450
g1001
sg944
g1170
sg465
g293
sVcom.android.phone
p1451
g598
sg848
g928
sg852
g417
ssg91
(dp1452
g191
g712
sg15
g188
sg397
g503
sVcom.android.launcher
p1453
g261
sVcom.meizu.media.gallery
p1454
g639
sVcom.tencent.mobileqq
p1455
g930
sVcom.eg.android.AlipayGphone
p1456
g362
sg1337
g418
ssg93
(dp1457
g148
g1142
sg144
g475
sVcom.tencent.mobileqq
p1458
g932
sVcom.android.launcher
p1459
g294
ssg95
(dp1460
g1406
g157
sVcom.tencent.mm
p1461
g714
sg138
g756
sg1274
g826
sg828
g295
sg824
g640
sVcom.tencent.mobileqq
p1462
g933
sVcom.soft.blued
p1463
g420
ssg97
(dp1464
g21
g224
sVcom.tencent.mm
p1465
g715
sg1257
g785
sg1258
g296
ssg99
(dp1466
g929
g860
sVim.yixin
p1467
g173
sg17
g199
sg382
g217
sg103
g1003
sg27
g298
sg31
g322
sg1387
g364
sg1270
g427
sg1304
g444
sg41
g468
sVcom.sankuai.meituan
p1468
g473
sg690
g498
sg47
g515
sVcom.android.video
p1469
g522
sg400
g567
sVcom.android.phone
p1470
g602
sg915
g624
sg325
g699
sg65
g732
sg357
g770
sg83
g814
sg87
g844
sVcom.tencent.tmgp.gb
p1471
g849
sg713
g885
sg576
g971
sg109
g1071
sg621
g1027
sg939
g1094
sVcom.liulishuo.engzo
p1472
g1117
sVcom.ting.mp3.android
p1473
g1127
sg119
g1160
sg125
g1198
ssg101
(dp1474
Vcom.tencent.mm
p1475
g717
sg245
g1076
sVcom.UCMobile
p1476
g1005
sVcom.myzaker.ZAKER_Phone
p1477
g540
sVcom.meizu.media.camera
p1478
g807
sVcom.android.launcher
p1479
g299
sg965
g577
sg782
g619
sg946
g1182
sVcn.ibuka.manga.ui
p1480
g657
sVcom.soft.blued
p1481
g422
sVcom.tencent.mobileqq
p1482
g935
sVcom.eg.android.AlipayGphone
p1483
g365
sVcom.android.settings
p1484
g1048
ssg103
(dp1485
g69
g747
sVcom.sankuai.meituan
p1486
g479
sg11
g151
sg117
g1149
sg107
g1049
sg41
g463
sg761
g678
sVcom.baidu.netdisk
p1487
g184
sg1004
g958
sVcom.liulishuo.engzo
p1488
g1109
sg523
g207
sg414
g838
sg49
g526
sg51
g555
sVcom.baidu.tieba
p1489
g1168
sg388
g300
sg1152
g596
sg1306
g632
sg426
g897
sVcom.eg.android.AlipayGphone
p1490
g337
sg1059
g385
ssg105
(dp1491
g1040
g831
sg1016
g1056
sg451
g169
sg536
g827
sVcom.UCMobile
p1492
g1013
sg1020
g547
sVcom.android.launcher
p1493
g301
sg1052
g622
sVcom.soft.blued
p1494
g425
ssg107
(dp1495
g1004
g975
sg73
g760
sVcom.youku.phone
p1496
g143
sg1157
g833
sg1409
g230
sg1042
g795
sVcom.tencent.mobileqq
p1497
g938
sg111
g1080
sVcom.ting.mp3.android
p1498
g1141
sg554
g1008
sg51
g548
sg1447
g1175
sg560
g302
sVcom.android.phone
p1499
g585
sVcom.happyelements.AndroidAnimal
p1500
g866
sVcom.tencent.mm
p1501
g720
sg105
g1017
sVcom.eg.android.AlipayGphone
p1502
g368
sVcom.soft.blued
p1503
g435
ssg109
(dp1504
g922
g769
sg1066
g1126
sVcom.android.launcher
p1505
g303
sVcom.tencent.mobileqq
p1506
g936
sVcom.eg.android.AlipayGphone
p1507
g366
sVcom.soft.blued
p1508
g424
ssg111
(dp1509
Vcom.skycall.oem
p1510
g952
sVcom.android.settings
p1511
g1047
sg25
g246
sg1498
g1130
sVcom.UCMobile
p1512
g1010
sVcom.baidu.tieba
p1513
g1162
sVcom.android.launcher
p1514
g304
sVcom.android.phone
p1515
g591
sVcom.tencent.mobileqq
p1516
g940
sg1095
g722
sVcom.eg.android.AlipayGphone
p1517
g370
sVcom.soft.blued
p1518
g428
ssg113
(dp1519
g551
g147
sVcom.tencent.mobileqq
p1520
g941
sg1104
g461
sg953
g816
sVcom.ting.mp3.android
p1521
g1135
sVcom.UCMobile
p1522
g1012
sVcom.android.launcher
p1523
g306
sg504
g594
sVcom.tencent.mm
p1524
g683
sg1118
g372
sVcom.soft.blued
p1525
g430
ssg115
(dp1526
g67
g739
sg768
g1067
sVcom.tencent.mobileqq
p1527
g943
sg541
g477
sg1038
g149
sVcom.meizu.media.gallery
p1528
g617
sVcom.happyelements.AndroidAnimal
p1529
g865
sVcom.myzaker.ZAKER_Phone
p1530
g538
sg778
g307
sg187
g856
sg1399
g432
sg786
g724
sg1129
g1085
sVcom.eg.android.AlipayGphone
p1531
g374
sg702
g772
ssg117
(dp1532
g974
g1033
sVcom.android.launcher
p1533
g308
sVcom.UCMobile
p1534
g1006
ssg119
(dp1535
Vcom.meizu.mstore
p1536
g777
sg378
g153
sg546
g1023
sVcom.tencent.mobileqq
p1537
g945
sg369
g1087
sg421
g960
sVcom.taobao.taobao
p1538
g502
sg1260
g1113
sg384
g1014
sVcom.myzaker.ZAKER_Phone
p1539
g557
sg1246
g186
sg637
g309
sVcom.android.phone
p1540
g608
sg57
g636
sg95
g881
sg61
g662
sg507
g725
sg33
g375
sVcom.soft.blued
p1541
g434
ssg121
(dp1542
g1181
g967
sg1187
g606
sVcom.tencent.mobileqq
p1543
g947
sVcom.android.launcher
p1544
g310
sVcom.soft.blued
p1545
g437
ssg123
(dp1546
Vcom.tencent.mm
p1547
g727
sVcom.android.launcher
p1548
g311
ssg125
(dp1549
g731
g948
sVcom.android.deskclock
p1550
g221
sg1405
g565
sg119
g1176
sg338
g312
sVcom.meizu.media.gallery
p1551
g642
sg61
g669
sVcom.tencent.mm
p1552
g729
sg33
g376
sg735
g439
sssb.