ccopy_reg
_reconstructor
p1
(cnetworkx.classes.digraph
DiGraph
p2
c__builtin__
object
p3
NtRp4
(dp5
S'node'
p6
(dp7
Vcom.android.browser
p8
(dp9
S'weight'
p10
F0.021629969063996651
ssVcom.qqgame.happymj
p11
(dp12
g10
F0.002008569222461658
ssVcom.qiyi.video
p13
(dp14
g10
F0.012344121402364863
ssVcom.sina.weibog3
p15
(dp16
g10
F0.0040019984759097861
ssVcom.snda.wifilocating
p17
(dp18
g10
F4.5419907040590254e-05
ssVcom.tencent.qqmusic
p19
(dp20
g10
F7.5699845067650426e-06
ssVcom.eg.android.AlipayGphone
p21
(dp22
g10
F0.0026696812027191385
ssVcom.oppo.preventmode
p23
(dp24
g10
F0.0026368779365231565
ssVcom.chinamworld.main
p25
(dp26
g10
F0.0021826788661172538
ssVcom.android.bluetooth
p27
(dp28
g10
F2.523328168921681e-05
ssVcom.oppo.camera
p29
(dp30
g10
F0.00044158242956129418
ssVcom.android.gallery3d
p31
(dp32
g10
F0.00041634914787207737
ssVme.ele
p33
(dp34
g10
F0.048233417948937929
ssVcom.android.phone
p35
(dp36
g10
F0.030539840828459106
ssVcom.tencent.mobileqq
p37
(dp38
g10
F0.48767606522298651
ssVcom.tudou.android
p39
(dp40
g10
F0.049782741444655845
ssVcom.baidu.lbs.waimai
p41
(dp42
g10
F0.0629519911582581
ssVcom.oppo.weather
p43
(dp44
g10
F0.00013625972112177076
ssVcom.android.fileexplorer
p45
(dp46
g10
F7.0653188729807067e-05
ssVcom.android.calendar
p47
(dp48
g10
F0.00032803266195981852
ssVcom.tencent.mm
p49
(dp50
g10
F0.19531064693087594
ssVcom.oppo.market
p51
(dp52
g10
F0.00055765552533169145
ssVcom.android.mms
p53
(dp54
g10
F0.072048589207220751
ssVcom.baidu.BaiduMap
p55
(dp56
g10
F0.0027226710942664938
ssVcom.taobao.movie.android
p57
(dp58
g10
F0.00032046267745305349
ssVcom.android.settings
p59
(dp60
g10
F0.00079737170137925118
ssVcom.oppo.alarmclock
p61
(dp62
g10
F9.8409798587945554e-05
ssVcom.oppo.speechassist
p63
(dp64
g10
F1.5139969013530085e-05
sssS'node_dict_factory'
p65
c__builtin__
dict
p66
sS'edge_attr_dict_factory'
p67
g66
sS'succ'
p68
(dp69
g8
(dp70
Vcom.oppo.preventmode
p71
(dp72
g10
I1
ssg47
(dp73
g10
F0.69999999999999996
ssVcom.tencent.mobileqq
p74
(dp75
g10
F4.7000000000000002
ssVcom.qiyi.video
p76
(dp77
g10
F1.8999999999999999
ssVcom.sina.weibog3
p78
(dp79
g10
I1
ssVcom.tudou.android
p80
(dp81
g10
F2.5999999999999996
ssVcom.android.settings
p82
(dp83
g10
F0.90000000000000002
ssVcom.tencent.mm
p84
(dp85
g10
F6.6000000000000005
sssg11
(dp86
Vcom.tencent.mobileqq
p87
(dp88
g10
F2.7000000000000002
sssg13
(dp89
Vcom.tudou.android
p90
(dp91
g10
I2
ssVcom.oppo.preventmode
p92
(dp93
g10
I1
ssVcom.tencent.mobileqq
p94
(dp95
g10
I3
sssg15
(dp96
Vcom.tudou.android
p97
(dp98
g10
F5.9000000000000004
ssVcom.tencent.mobileqq
p99
(dp100
g10
F2.6000000000000001
ssg13
(dp101
g10
F1.1000000000000001
ssg47
(dp102
g10
F0.90000000000000002
ssVcom.android.phone
p103
(dp104
g10
I1
ssVcom.tencent.mm
p105
(dp106
g10
I1
ssg63
(dp107
g10
I1
sssg17
(dp108
sg19
(dp109
sg21
(dp110
Vcom.tencent.mobileqq
p111
(dp112
g10
F0.90000000000000002
ssVme.ele
p113
(dp114
g10
I2
ssVcom.baidu.lbs.waimai
p115
(dp116
g10
F10.4
ssVcom.android.mms
p117
(dp118
g10
F10.800000000000002
ssVcom.android.settings
p119
(dp120
g10
I1
sssg23
(dp121
Vcom.android.browser
p122
(dp123
g10
I1
ssVcom.tencent.mobileqq
p124
(dp125
g10
F11
ssVcom.baidu.lbs.waimai
p126
(dp127
g10
F0.69999999999999996
ssg19
(dp128
g10
I1
ssVcom.android.phone
p129
(dp130
g10
F0.90000000000000002
ssVcom.tencent.mm
p131
(dp132
g10
F5.8999999999999995
sssg25
(dp133
Vcom.android.settings
p134
(dp135
g10
F1.8999999999999999
ssVcom.android.mms
p136
(dp137
g10
I1
ssVcom.tencent.mobileqq
p138
(dp139
g10
I1
ssVcom.android.phone
p140
(dp141
g10
F2.7000000000000002
sssg27
(dp142
g59
(dp143
g10
F1.7
ssVcom.oppo.market
p144
(dp145
g10
F1.3
sssg29
(dp146
Vcom.android.settings
p147
(dp148
g10
F1.8999999999999999
ssVcom.tencent.mm
p149
(dp150
g10
F4.7000000000000002
ssVcom.tencent.mobileqq
p151
(dp152
g10
F0.69999999999999996
ssVcom.android.phone
p153
(dp154
g10
F2
sssg31
(dp155
Vcom.android.phone
p156
(dp157
g10
F2.5999999999999996
sssg33
(dp158
Vcom.tudou.android
p159
(dp160
g10
F0.90000000000000002
ssVcom.tencent.mm
p161
(dp162
g10
I1
ssVcom.android.mms
p163
(dp164
g10
F3.3999999999999999
ssVcom.android.phone
p165
(dp166
g10
I2
ssVcom.tencent.mobileqq
p167
(dp168
g10
I1
ssVcom.eg.android.AlipayGphone
p169
(dp170
g10
I2
sssg35
(dp171
Vcom.android.browser
p172
(dp173
g10
F0.69999999999999996
ssVcom.chinamworld.main
p174
(dp175
g10
F2.6000000000000001
ssVcom.tencent.mobileqq
p176
(dp177
g10
F19.899999999999995
ssVcom.baidu.lbs.waimai
p178
(dp179
g10
I1
ssVcom.android.mms
p180
(dp181
g10
F12.800000000000001
ssg43
(dp182
g10
I1
ssVcom.oppo.alarmclock
p183
(dp184
g10
I1
ssVcom.tencent.mm
p185
(dp186
g10
F8.6999999999999993
sssg37
(dp187
Vcom.oppo.preventmode
p188
(dp189
g10
F19.800000000000001
ssg8
(dp190
g10
F7.5
ssg29
(dp191
g10
I2
ssVcom.tudou.android
p192
(dp193
g10
F8.6000000000000014
ssg31
(dp194
g10
I1
ssVcom.oppo.market
p195
(dp196
g10
I1
ssVcom.baidu.lbs.waimai
p197
(dp198
g10
F14.699999999999999
ssVcom.android.mms
p199
(dp200
g10
F19.799999999999997
ssVcom.baidu.BaiduMap
p201
(dp202
g10
I1
ssg13
(dp203
g10
F4.5
ssVcom.sina.weibog3
p204
(dp205
g10
F3.6999999999999997
ssg17
(dp206
g10
F1.6000000000000001
ssVcom.android.phone
p207
(dp208
g10
F18.199999999999999
ssVcom.qqgame.happymj
p209
(dp210
g10
I1
ssg63
(dp211
g10
F0.69999999999999996
ssg131
(dp212
g10
F41.299999999999997
ssVcom.eg.android.AlipayGphone
p213
(dp214
g10
F8.5
ssVcom.android.settings
p215
(dp216
g10
I1
sssg39
(dp217
Vcom.android.browser
p218
(dp219
g10
F1.7
ssg47
(dp220
g10
F1.3999999999999999
ssg82
(dp221
g10
I1
ssVcom.tencent.mm
p222
(dp223
g10
F1.8999999999999999
ssVcom.android.mms
p224
(dp225
g10
I3
ssg13
(dp226
g10
I2
ssg78
(dp227
g10
F1.3
ssVcom.android.phone
p228
(dp229
g10
I1
ssVcom.tencent.mobileqq
p230
(dp231
g10
F11.799999999999999
sssg41
(dp232
Vcom.tencent.mm
p233
(dp234
g10
F5.4000000000000004
ssg117
(dp235
g10
F11.6
ssVcom.oppo.weather
p236
(dp237
g10
I1
ssg33
(dp238
g10
F1.7
ssg35
(dp239
g10
F9.9000000000000004
ssVcom.tencent.mobileqq
p240
(dp241
g10
F10
ssg21
(dp242
g10
F12.600000000000001
sssg43
(dp243
sg45
(dp244
Vcom.sina.weibog3
p245
(dp246
g10
F0.90000000000000002
ssVcom.tencent.mm
p247
(dp248
g10
I1
sssg47
(dp249
sg49
(dp250
Vcom.oppo.preventmode
p251
(dp252
g10
I3
ssVcom.android.browser
p253
(dp254
g10
I1
ssVcom.oppo.camera
p255
(dp256
g10
F6.4000000000000004
ssVcom.tudou.android
p257
(dp258
g10
I2
ssVcom.android.settings
p259
(dp260
g10
I1
ssg126
(dp261
g10
F5
ssVcom.android.mms
p262
(dp263
g10
I1
ssg55
(dp264
g10
I1
ssVcom.qiyi.video
p265
(dp266
g10
F0.90000000000000002
ssVcom.sina.weibog3
p267
(dp268
g10
I4
ssVcom.android.phone
p269
(dp270
g10
F7.9000000000000012
ssg37
(dp271
g10
F23.5
ssVcom.eg.android.AlipayGphone
p272
(dp273
g10
F0.90000000000000002
ssg63
(dp274
g10
F0.90000000000000002
sssg51
(dp275
g27
(dp276
g10
I1
ssVcom.tencent.mobileqq
p277
(dp278
g10
F1.7
ssg17
(dp279
g10
F3
ssg59
(dp280
g10
F2.2999999999999998
sssg53
(dp281
Vcom.oppo.preventmode
p282
(dp283
g10
F0.90000000000000002
ssVcom.android.browser
p284
(dp285
g10
F1.8
ssVcom.chinamworld.main
p286
(dp287
g10
F2.7000000000000002
ssVcom.tudou.android
p288
(dp289
g10
F4.4000000000000004
ssg49
(dp290
g10
F7.9000000000000004
ssVcom.baidu.lbs.waimai
p291
(dp292
g10
F2.7000000000000002
ssg11
(dp293
g10
F3
ssVcom.baidu.BaiduMap
p294
(dp295
g10
I1
ssg265
(dp296
g10
F0.69999999999999996
ssg78
(dp297
g10
F0.69999999999999996
ssVme.ele
p298
(dp299
g10
F1.7
ssg140
(dp300
g10
F7.7999999999999998
ssg57
(dp301
g10
I1
ssVcom.tencent.mobileqq
p302
(dp303
g10
F16.600000000000001
ssVcom.eg.android.AlipayGphone
p304
(dp305
g10
F2.7999999999999998
sssg55
(dp306
Vcom.android.mms
p307
(dp308
g10
I1
ssVcom.android.phone
p309
(dp310
g10
I2
sssg57
(dp311
Vcom.tencent.mobileqq
p312
(dp313
g10
I1
sssg59
(dp314
Vcom.tudou.android
p315
(dp316
g10
I1
ssg144
(dp317
g10
F3.4000000000000004
ssVcom.android.mms
p318
(dp319
g10
F1.3
ssg17
(dp320
g10
F0.40000000000000002
ssVcom.android.phone
p321
(dp322
g10
I1
ssg277
(dp323
g10
F4.1999999999999993
ssVcom.eg.android.AlipayGphone
p324
(dp325
g10
F3.4000000000000004
sssg61
(dp326
Vcom.tencent.mm
p327
(dp328
g10
F0.90000000000000002
ssVcom.tencent.mobileqq
p329
(dp330
g10
I1
sssg63
(dp331
ssS'edge'
p332
g69
sS'graph'
p333
(dp334
sS'adjlist_dict_factory'
p335
g66
sS'adj'
p336
g69
sS'pred'
p337
(dp338
g8
(dp339
Vcom.oppo.preventmode
p340
g123
sVcom.tudou.android
p341
g219
sVcom.tencent.mobileqq
p342
g190
sVcom.android.mms
p343
g285
sVcom.android.phone
p344
g173
sVcom.tencent.mm
p345
g254
ssg11
(dp346
g87
g210
sVcom.android.mms
p347
g293
ssg13
(dp348
Vcom.android.browser
p349
g77
sg97
g226
sg99
g203
sVcom.android.mms
p350
g296
sVcom.sina.weibog3
p351
g101
sVcom.tencent.mm
p352
g266
ssg15
(dp353
g218
g79
sg341
g227
sVcom.tencent.mobileqq
p354
g205
sg224
g297
sg45
g246
sVcom.tencent.mm
p355
g268
ssg17
(dp356
Vcom.android.settings
p357
g320
sVcom.oppo.market
p358
g279
sg277
g206
ssg19
(dp359
Vcom.oppo.preventmode
p360
g128
ssg21
(dp361
Vcom.tencent.mobileqq
p362
g214
sg41
g242
sVcom.android.mms
p363
g305
sg33
g170
sVcom.android.settings
p364
g325
sVcom.tencent.mm
p365
g273
ssg23
(dp366
Vcom.android.browser
p367
g72
sVcom.tencent.mm
p368
g252
sVcom.tencent.mobileqq
p369
g189
sVcom.android.mms
p370
g283
sVcom.qiyi.video
p371
g93
ssg25
(dp372
g136
g287
sg140
g175
ssg27
(dp373
g51
g276
ssg29
(dp374
Vcom.tencent.mm
p375
g256
sVcom.tencent.mobileqq
p376
g191
ssg31
(dp377
Vcom.tencent.mobileqq
p378
g194
ssg33
(dp379
Vcom.baidu.lbs.waimai
p380
g238
sg363
g299
sg169
g114
ssg35
(dp381
Vcom.oppo.preventmode
p382
g130
sg31
g157
sg25
g141
sVcom.tudou.android
p383
g229
sVcom.tencent.mobileqq
p384
g208
sVcom.baidu.lbs.waimai
p385
g239
sg136
g300
sVcom.baidu.BaiduMap
p386
g310
sVcom.sina.weibog3
p387
g104
sVme.ele
p388
g166
sVcom.oppo.camera
p389
g154
sVcom.android.settings
p390
g322
sVcom.tencent.mm
p391
g270
ssg37
(dp392
g23
g125
sVcom.android.browser
p393
g75
sg61
g330
sVcom.chinamworld.main
p394
g139
sVcom.taobao.movie.android
p395
g313
sg39
g231
sg59
g323
sg144
g278
sVcom.baidu.lbs.waimai
p396
g241
sVcom.android.mms
p397
g303
sVcom.qiyi.video
p398
g95
sg15
g100
sVme.ele
p399
g168
sVcom.oppo.camera
p400
g152
sg207
g177
sg11
g88
sVcom.tencent.mm
p401
g271
sVcom.eg.android.AlipayGphone
p402
g112
ssg39
(dp403
g218
g81
sg230
g193
sg224
g289
sVcom.qiyi.video
p404
g91
sg15
g98
sg399
g160
sg82
g316
sVcom.tencent.mm
p405
g258
ssg41
(dp406
Vcom.oppo.preventmode
p407
g127
sg362
g198
sVcom.android.mms
p408
g292
sVcom.android.phone
p409
g179
sg131
g261
sg21
g116
ssg43
(dp410
Vcom.baidu.lbs.waimai
p411
g237
sVcom.android.phone
p412
g182
ssg45
(dp413
sg47
(dp414
g288
g220
sg218
g73
sg78
g102
ssg49
(dp415
g407
g132
sVcom.android.browser
p416
g85
sVcom.oppo.camera
p417
g150
sVcom.tudou.android
p418
g223
sVcom.baidu.lbs.waimai
p419
g234
sg53
g290
sVcom.sina.weibog3
p420
g106
sg45
g248
sVme.ele
p421
g162
sg207
g186
sg61
g328
sVcom.tencent.mobileqq
p422
g212
ssg51
(dp423
g27
g145
sg277
g196
sg59
g317
ssg53
(dp424
g25
g137
sg341
g225
sg364
g319
sVcom.tencent.mm
p425
g263
sg197
g235
sVcom.baidu.BaiduMap
p426
g308
sg33
g164
sVcom.android.phone
p427
g181
sVcom.tencent.mobileqq
p428
g200
sg213
g118
ssg55
(dp429
Vcom.tencent.mobileqq
p430
g202
sVcom.tencent.mm
p431
g264
sg307
g295
ssg57
(dp432
Vcom.android.mms
p433
g301
ssg59
(dp434
Vcom.android.browser
p435
g83
sVcom.chinamworld.main
p436
g135
sVcom.tudou.android
p437
g221
sg27
g143
sg51
g280
sg400
g148
sVcom.tencent.mm
p438
g260
sg138
g216
sg324
g120
ssg61
(dp439
Vcom.android.phone
p440
g184
ssg63
(dp441
Vcom.sina.weibog3
p442
g107
sVcom.tencent.mm
p443
g274
sVcom.tencent.mobileqq
p444
g211
sssb.