ccopy_reg
_reconstructor
p1
(cnetworkx.classes.digraph
DiGraph
p2
c__builtin__
object
p3
NtRp4
(dp5
S'node'
p6
(dp7
Vcom.android.browser
p8
(dp9
S'weight'
p10
F0.0076393308173373529
ssVcom.tencent.android.qqdownloader
p11
(dp12
g10
F0.00027597209442737193
ssVone.hh.oneclient
p13
(dp14
g10
F0.00098015441048970365
ssVim.yixin
p15
(dp16
g10
F0.0051709137505147485
ssVcom.mxtech.videoplayer.ad
p17
(dp18
g10
F0.0008482147002431275
ssVcom.android.deskclock
p19
(dp20
g10
F5.5496735733829883e-05
ssVcom.meizu.media.camera
p21
(dp22
g10
F0.00013906575024352701
ssVcom.tencent.qqpim
p23
(dp24
g10
F1.813901090132961e-05
ssVcom.android.launcher
p25
(dp26
g10
F0.52884048748159918
ssVcom.baoxue.player
p27
(dp28
g10
F3.5414259378786383e-05
ssVcom.hupu.games
p29
(dp30
g10
F0.004186224587299712
ssVcom.hujiang.dict
p31
(dp32
g10
F8.2057430267919666e-06
ssVcom.sina.weibo
p33
(dp34
g10
F0.029539379252815273
ssVcom.eg.android.AlipayGphone
p35
(dp36
g10
F0.0004310174495125465
ssVcom.youku.phone
p37
(dp38
g10
F0.0003226152653165052
ssVcom.zhihu.android
p39
(dp40
g10
F0.026253842933008961
ssVcn.wps.moffice_eng
p41
(dp42
g10
F1.6627426659552142e-05
ssVcom.alibaba.android.babylon
p43
(dp44
g10
F7.3419806029191281e-06
ssVcom.android.packageinstaller
p45
(dp46
g10
F0.00098015441048970365
ssVcom.sankuai.meituan
p47
(dp48
g10
F0.00010127614419909033
ssVcom.jingdong.app.mall
p49
(dp50
g10
F4.8370695736878963e-05
ssVcom.taobao.taobao
p51
(dp52
g10
F3.6493962408627433e-05
ssVcom.android.video
p53
(dp54
g10
F0.00087974202871448617
ssVcom.wumii.android.mimi
p55
(dp56
g10
F0.0002010407041564032
ssVcom.android.safe
p57
(dp58
g10
F0.000912565000821654
ssVcom.meizu.mpay
p59
(dp60
g10
F2.1594060596820965e-07
ssVcom.android.phone
p61
(dp62
g10
F0.0049333790839497177
ssVcom.meizu.media.gallery
p63
(dp64
g10
F0.00045649844101679519
ssVcom.android.htmlviewer
p65
(dp66
g10
F6.6941587850144996e-06
ssVcom.alibaba.android.rimet
p67
(dp68
g10
F6.4782181790462898e-07
ssVcom.tencent.mobileqq
p69
(dp70
g10
F0.21406235457749817
ssVme.quqi
p71
(dp72
g10
F0.0047217572901008722
ssVcom.comingx.athit
p73
(dp74
g10
F0.00054784131734134794
ssVcom.android.calculator
p75
(dp76
g10
F1.274049575212437e-05
ssVcom.renren.mobile.android
p77
(dp78
g10
F0.00090651866385454418
ssVcom.tencent.mm
p79
(dp80
g10
F0.13239815215304662
ssVcom.kugou.android
p81
(dp82
g10
F0.0070614737557664238
ssVcom.baidu.input
p83
(dp84
g10
F7.5579212088873381e-06
ssVcom.dianping.v1
p85
(dp86
g10
F2.1810001202789177e-05
ssVcom.android.fileexplorer
p87
(dp88
g10
F0.00015029466175387393
ssVcom.Qunar
p89
(dp90
g10
F1.6195545447615724e-05
ssVcom.kingsoft
p91
(dp92
g10
F4.2324358769769091e-05
ssVcom.sankuai.movie
p93
(dp94
g10
F0.00018592486173862852
ssVcom.android.email
p95
(dp96
g10
F9.1990698142457316e-05
ssVcom.android.wallpaper.livepicker
p97
(dp98
g10
F4.318812119364193e-07
ssVcom.MobileTicket
p99
(dp100
g10
F6.4782181790462898e-07
ssVcom.meizu.notepaper
p101
(dp102
g10
F0.0014213210684827561
ssVcom.zhihu.daily.android
p103
(dp104
g10
F0.0018387342598193052
ssVcom.immomo.momo
p105
(dp106
g10
F0.00092724896202749226
ssVcom.android.calendar
p107
(dp108
g10
F5.8519904217384819e-05
ssVcom.android.settings
p109
(dp110
g10
F0.00025934466776781977
ssVcom.android.mms
p111
(dp112
g10
F0.0030736985853514961
ssVcom.baidu.BaiduMap
p113
(dp114
g10
F0.00020946238778916338
ssVcom.meizu.blockservice
p115
(dp116
g10
F1.6843367265520352e-05
ssVcom.qzone
p117
(dp118
g10
F0.0017352987095605329
ssVcom.dotamax.app
p119
(dp120
g10
F0.016710563792849905
ssVcom.meizu.media.music
p121
(dp122
g10
F8.637624238728386e-07
ssVcom.meizu.flyme.weather
p123
(dp124
g10
F0.00019456248597735689
sssS'node_dict_factory'
p125
c__builtin__
dict
p126
sS'edge_attr_dict_factory'
p127
g126
sS'succ'
p128
(dp129
g8
(dp130
Vcom.kugou.android
p131
(dp132
g10
F1.8
ssVcom.zhihu.android
p133
(dp134
g10
F9.8000000000000007
ssVcom.meizu.notepaper
p135
(dp136
g10
F0.69999999999999996
ssVcom.comingx.athit
p137
(dp138
g10
F0.40000000000000002
ssVcom.baidu.BaiduMap
p139
(dp140
g10
I1
ssg75
(dp141
g10
F0.90000000000000002
ssVcom.sina.weibo
p142
(dp143
g10
F4.2999999999999998
ssVcom.meizu.media.camera
p144
(dp145
g10
F0.40000000000000002
ssVim.yixin
p146
(dp147
g10
F3.2999999999999998
ssVcom.android.mms
p148
(dp149
g10
F2.7999999999999998
ssVcom.baidu.input
p150
(dp151
g10
F0.90000000000000002
ssg51
(dp152
g10
F1.8999999999999999
ssVcom.meizu.blockservice
p153
(dp154
g10
F0.69999999999999996
ssVcom.android.deskclock
p155
(dp156
g10
I1
ssVcom.tencent.mobileqq
p157
(dp158
g10
F49.499999999999986
ssVcom.dotamax.app
p159
(dp160
g10
F2.3999999999999999
ssVcom.android.launcher
p161
(dp162
g10
F129.00000000000011
ssVcom.android.phone
p163
(dp164
g10
F1.3999999999999999
ssVcom.tencent.mm
p165
(dp166
g10
F70.799999999999997
ssVcom.meizu.flyme.weather
p167
(dp168
g10
F0.90000000000000002
sssg11
(dp169
Vcom.android.fileexplorer
p170
(dp171
g10
F0.69999999999999996
ssVcom.tencent.mm
p172
(dp173
g10
F3.7999999999999994
ssg45
(dp174
g10
F25.399999999999995
ssVcom.sina.weibo
p175
(dp176
g10
F1.7000000000000002
ssVcom.qzone
p177
(dp178
g10
F5.7000000000000002
ssVcom.dotamax.app
p179
(dp180
g10
F0.69999999999999996
ssVcom.android.launcher
p181
(dp182
g10
F17.999999999999996
ssg27
(dp183
g10
F0.69999999999999996
ssVcom.hupu.games
p184
(dp185
g10
I1
ssVcom.tencent.mobileqq
p186
(dp187
g10
F5.2999999999999998
ssg71
(dp188
g10
F0.40000000000000002
sssg13
(dp189
Vcom.android.deskclock
p190
(dp191
g10
F0.90000000000000002
ssVcom.sina.weibo
p192
(dp193
g10
F0.40000000000000002
ssVcom.tencent.mm
p194
(dp195
g10
F4.4000000000000004
ssVcom.android.launcher
p196
(dp197
g10
F9.8000000000000007
ssVcom.tencent.mobileqq
p198
(dp199
g10
F0.40000000000000002
sssg15
(dp200
Vcom.kugou.android
p201
(dp202
g10
I1
ssVcom.zhihu.android
p203
(dp204
g10
F9.6000000000000014
ssVcom.meizu.notepaper
p205
(dp206
g10
F4
ssVcom.comingx.athit
p207
(dp208
g10
F0.80000000000000004
ssVcom.zhihu.daily.android
p209
(dp210
g10
F1.3999999999999999
ssVcom.android.browser
p211
(dp212
g10
F1.7
ssg43
(dp213
g10
F0.69999999999999996
ssVcom.sina.weibo
p214
(dp215
g10
F18.599999999999998
ssVcom.android.settings
p216
(dp217
g10
F1.8999999999999999
ssVcom.android.mms
p218
(dp219
g10
F4.7000000000000002
ssVcom.jingdong.app.mall
p220
(dp221
g10
F0.90000000000000002
ssVcom.android.deskclock
p222
(dp223
g10
F0.90000000000000002
ssVcom.qzone
p224
(dp225
g10
F2.6999999999999997
ssVcom.dotamax.app
p226
(dp227
g10
F2.6999999999999997
ssVcom.android.launcher
p228
(dp229
g10
F172.90000000000012
ssVcom.renren.mobile.android
p230
(dp231
g10
F2.7000000000000002
ssVcom.meizu.media.gallery
p232
(dp233
g10
F3.1000000000000001
ssVcom.hupu.games
p234
(dp235
g10
I1
ssVcom.tencent.mm
p236
(dp237
g10
F81.600000000000037
ssVcom.eg.android.AlipayGphone
p238
(dp239
g10
F0.40000000000000002
ssVcom.tencent.mobileqq
p240
(dp241
g10
F61.399999999999984
sssg17
(dp242
Vcom.tencent.mobileqq
p243
(dp244
g10
F0.90000000000000002
ssVim.yixin
p245
(dp246
g10
F0.69999999999999996
ssVcom.android.fileexplorer
p247
(dp248
g10
I3
ssVcom.qzone
p249
(dp250
g10
F0.40000000000000002
ssVcom.dotamax.app
p251
(dp252
g10
F0.69999999999999996
ssVcom.android.launcher
p253
(dp254
g10
F2
ssVcom.tencent.mm
p255
(dp256
g10
F0.90000000000000002
sssg19
(dp257
Vcom.android.browser
p258
(dp259
g10
I1
ssVcom.zhihu.daily.android
p260
(dp261
g10
F0.69999999999999996
ssVcom.zhihu.android
p262
(dp263
g10
F1.7
ssVcom.tencent.mm
p264
(dp265
g10
F9.9000000000000004
ssVcom.sina.weibo
p266
(dp267
g10
I3
ssVim.yixin
p268
(dp269
g10
F1.6000000000000001
ssVcom.android.mms
p270
(dp271
g10
F2.7999999999999998
ssVcom.meizu.media.camera
p272
(dp273
g10
F1.6000000000000001
ssVcom.android.launcher
p274
(dp275
g10
F26.599999999999987
ssVcom.renren.mobile.android
p276
(dp277
g10
F1.3999999999999999
ssVcom.hupu.games
p278
(dp279
g10
I1
ssVcom.tencent.mobileqq
p280
(dp281
g10
F4.2000000000000002
ssVcom.meizu.flyme.weather
p282
(dp283
g10
I9
sssg21
(dp284
Vcom.zhihu.android
p285
(dp286
g10
F0.90000000000000002
ssVcom.meizu.notepaper
p287
(dp288
g10
F0.40000000000000002
ssVcom.comingx.athit
p289
(dp290
g10
F1.8
ssVcom.tencent.mm
p291
(dp292
g10
F14.600000000000003
ssVcom.sina.weibo
p293
(dp294
g10
F0.40000000000000002
ssVim.yixin
p295
(dp296
g10
F1.6000000000000001
ssVcom.dotamax.app
p297
(dp298
g10
F0.40000000000000002
ssVcom.android.launcher
p299
(dp300
g10
F25.299999999999994
ssVcom.meizu.media.gallery
p301
(dp302
g10
F15.9
ssVcom.tencent.mobileqq
p303
(dp304
g10
F4.7999999999999998
ssVcom.android.safe
p305
(dp306
g10
F1.3
sssg23
(dp307
Vcom.sina.weibo
p308
(dp309
g10
F1.7
ssVcom.tencent.mm
p310
(dp311
g10
F0.40000000000000002
ssVcom.tencent.mobileqq
p312
(dp313
g10
F2.6000000000000001
ssVcom.android.launcher
p314
(dp315
g10
F4.4000000000000004
sssg25
(dp316
g8
(dp317
g10
F144.40000000000006
ssg93
(dp318
g10
F5.0999999999999996
ssVone.hh.oneclient
p319
(dp320
g10
F7.4000000000000004
ssg15
(dp321
g10
F234.99999999999989
ssVcom.mxtech.videoplayer.ad
p322
(dp323
g10
F0.90000000000000002
ssg19
(dp324
g10
F61.199999999999996
ssg21
(dp325
g10
F36.699999999999996
ssVcom.tencent.qqpim
p326
(dp327
g10
F3.3999999999999999
ssg11
(dp328
g10
F22.799999999999994
ssVcom.hupu.games
p329
(dp330
g10
F110.60000000000014
ssg31
(dp331
g10
F1.7
ssg33
(dp332
g10
F806.00000000000375
ssg35
(dp333
g10
F39.900000000000006
ssg37
(dp334
g10
F5.4000000000000004
ssVcom.zhihu.android
p335
(dp336
g10
F332.79999999999893
ssg41
(dp337
g10
F6.7000000000000002
ssg43
(dp338
g10
I1
ssg45
(dp339
g10
F13.300000000000002
ssg47
(dp340
g10
F2.7000000000000002
ssg49
(dp341
g10
F3.7000000000000002
ssg51
(dp342
g10
F5
ssg53
(dp343
g10
F8.6000000000000014
ssg55
(dp344
g10
F18.199999999999999
ssVcom.android.safe
p345
(dp346
g10
F16.899999999999999
ssg59
(dp347
g10
F1.3
ssg61
(dp348
g10
F213.39999999999998
ssg63
(dp349
g10
F45.199999999999996
ssg67
(dp350
g10
F1.3
ssVcom.tencent.mm
p351
(dp352
g10
F6028.2999999996973
ssVme.quqi
p353
(dp354
g10
F12.799999999999999
ssg73
(dp355
g10
F55.200000000000024
ssg75
(dp356
g10
I1
ssg77
(dp357
g10
F76.80000000000004
ssg81
(dp358
g10
F130.10000000000005
ssg83
(dp359
g10
F9.0999999999999996
ssg85
(dp360
g10
F1.7
ssg87
(dp361
g10
F25.699999999999992
ssg89
(dp362
g10
F1.7
ssg91
(dp363
g10
F3.1000000000000001
ssg27
(dp364
g10
F2.6999999999999997
ssg95
(dp365
g10
F14.799999999999999
ssg97
(dp366
g10
F1.3
ssVcom.tencent.mobileqq
p367
(dp368
g10
F4935.8999999998741
ssg99
(dp369
g10
F1.7
ssg101
(dp370
g10
F184.19999999999987
ssg103
(dp371
g10
F47.500000000000014
ssg105
(dp372
g10
F38.099999999999994
ssg107
(dp373
g10
F10.399999999999999
ssg109
(dp374
g10
F38.699999999999989
ssVcom.android.mms
p375
(dp376
g10
F334.29999999999882
ssg113
(dp377
g10
F8.1000000000000014
ssg115
(dp378
g10
F16.899999999999999
ssg117
(dp379
g10
F136.10000000000019
ssVcom.dotamax.app
p380
(dp381
g10
F222.79999999999967
ssg121
(dp382
g10
F1.7
ssg123
(dp383
g10
F61.500000000000014
sssg27
(dp384
Vcom.android.launcher
p385
(dp386
g10
F1.8
ssVcom.android.packageinstaller
p387
(dp388
g10
F0.40000000000000002
ssVcom.android.fileexplorer
p389
(dp390
g10
I2
ssVcom.dotamax.app
p391
(dp392
g10
F0.69999999999999996
ssVcom.tencent.android.qqdownloader
p393
(dp394
g10
F0.69999999999999996
ssVcom.tencent.mm
p395
(dp396
g10
F0.40000000000000002
sssg29
(dp397
Vcom.zhihu.android
p398
(dp399
g10
F3.6999999999999997
ssg289
(dp400
g10
F0.40000000000000002
ssVcom.tencent.android.qqdownloader
p401
(dp402
g10
I1
ssVcom.android.browser
p403
(dp404
g10
F2.2000000000000002
ssVcom.tencent.mm
p405
(dp406
g10
F34.999999999999979
ssVim.yixin
p407
(dp408
g10
F4.2999999999999998
ssg272
(dp409
g10
F2.2000000000000002
ssVcom.android.mms
p410
(dp411
g10
F0.40000000000000002
ssVcom.android.deskclock
p412
(dp413
g10
I1
ssVcom.qzone
p414
(dp415
g10
F0.80000000000000004
ssVcom.dotamax.app
p416
(dp417
g10
F4.7000000000000002
ssVcom.android.launcher
p418
(dp419
g10
F82.700000000000045
ssVcom.android.phone
p420
(dp421
g10
I1
ssVcom.sina.weibo
p422
(dp423
g10
F5.0999999999999996
ssg35
(dp424
g10
F2.2000000000000002
ssVcom.tencent.mobileqq
p425
(dp426
g10
F26.399999999999984
sssg31
(dp427
sg33
(dp428
Vcom.android.browser
p429
(dp430
g10
F6.6000000000000005
ssVcom.android.launcher
p431
(dp432
g10
F597.59999999999911
ssVone.hh.oneclient
p433
(dp434
g10
F1.8
ssVim.yixin
p435
(dp436
g10
F13.200000000000001
ssVcom.android.deskclock
p437
(dp438
g10
F6.1000000000000005
ssVcom.meizu.media.camera
p439
(dp440
g10
F0.40000000000000002
ssg326
(dp441
g10
F0.40000000000000002
ssVcom.tencent.android.qqdownloader
p442
(dp443
g10
F1.6000000000000001
ssVcom.hupu.games
p444
(dp445
g10
F11.100000000000001
ssVcom.eg.android.AlipayGphone
p446
(dp447
g10
F1.3999999999999999
ssVcom.zhihu.android
p448
(dp449
g10
F53.499999999999943
ssVcom.android.packageinstaller
p450
(dp451
g10
F0.69999999999999996
ssg55
(dp452
g10
F1.3
ssVcom.android.safe
p453
(dp454
g10
F3.3999999999999999
ssVcom.android.phone
p455
(dp456
g10
F4.9000000000000004
ssg67
(dp457
g10
I1
ssVcom.tencent.mm
p458
(dp459
g10
F230.70000000000067
ssVcom.comingx.athit
p460
(dp461
g10
F3.8999999999999999
ssg77
(dp462
g10
F14.000000000000004
ssVcom.kugou.android
p463
(dp464
g10
F0.90000000000000002
ssVcom.tencent.mobileqq
p465
(dp466
g10
F156.70000000000039
ssg101
(dp467
g10
F2.8999999999999999
ssVcom.immomo.momo
p468
(dp469
g10
F1.1000000000000001
ssVcom.zhihu.daily.android
p470
(dp471
g10
F9.7000000000000011
ssVcom.android.settings
p472
(dp473
g10
F2.8999999999999999
ssVcom.android.mms
p474
(dp475
g10
F5.7000000000000011
ssVcom.qzone
p476
(dp477
g10
F8.4000000000000004
ssg380
(dp478
g10
F15.800000000000006
ssg167
(dp479
g10
F1.3
sssg35
(dp480
Vcom.sina.weibo
p481
(dp482
g10
F1.7999999999999998
ssVcom.sankuai.meituan
p483
(dp484
g10
I1
ssVcom.android.mms
p485
(dp486
g10
F1.8
ssVcom.android.launcher
p487
(dp488
g10
F36
ssVcom.tencent.mm
p489
(dp490
g10
F13.200000000000003
ssVcom.tencent.mobileqq
p491
(dp492
g10
F4.0999999999999996
sssg37
(dp493
Vcom.android.fileexplorer
p494
(dp495
g10
F3.7000000000000002
ssVcom.android.video
p496
(dp497
g10
F0.90000000000000002
ssVcom.tencent.mm
p498
(dp499
g10
F0.69999999999999996
ssVcom.android.launcher
p500
(dp501
g10
F4.9000000000000004
sssg39
(dp502
Vcom.android.browser
p503
(dp504
g10
F9.4000000000000021
ssVcom.android.launcher
p505
(dp506
g10
F294.0999999999994
ssVim.yixin
p507
(dp508
g10
F7.5
ssVcom.android.deskclock
p509
(dp510
g10
F1.7000000000000002
ssVcom.tencent.android.qqdownloader
p511
(dp512
g10
F0.90000000000000002
ssVcom.hupu.games
p513
(dp514
g10
F3.5
ssVcom.sina.weibo
p515
(dp516
g10
F24.299999999999986
ssVcom.eg.android.AlipayGphone
p517
(dp518
g10
F1.7000000000000002
ssVcom.android.packageinstaller
p519
(dp520
g10
F0.69999999999999996
ssVcom.renren.mobile.android
p521
(dp522
g10
F0.80000000000000004
ssVcom.tencent.mm
p523
(dp524
g10
F170.40000000000038
ssVcom.meizu.media.camera
p525
(dp526
g10
F0.40000000000000002
ssVcom.android.phone
p527
(dp528
g10
F1.3999999999999999
ssVcom.kugou.android
p529
(dp530
g10
F1.3
ssVcom.baidu.input
p531
(dp532
g10
F0.90000000000000002
ssVcom.meizu.notepaper
p533
(dp534
g10
F2.1000000000000001
ssg103
(dp535
g10
F7.1000000000000005
ssVcom.immomo.momo
p536
(dp537
g10
F2.6000000000000001
ssVcom.tencent.mobileqq
p538
(dp539
g10
F108.60000000000019
ssVcom.android.mms
p540
(dp541
g10
F3
ssVcom.meizu.blockservice
p542
(dp543
g10
I1
ssVcom.qzone
p544
(dp545
g10
F1.1000000000000001
ssVcom.dotamax.app
p546
(dp547
g10
F3.8999999999999999
ssVcom.meizu.flyme.weather
p548
(dp549
g10
F1.3
sssg41
(dp550
Vcom.meizu.media.gallery
p551
(dp552
g10
F1.3
ssVcom.tencent.mm
p553
(dp554
g10
F2.6000000000000001
ssVcom.tencent.mobileqq
p555
(dp556
g10
F1.7
ssVcom.android.launcher
p557
(dp558
g10
F3.4000000000000004
sssg43
(dp559
Vcom.android.launcher
p560
(dp561
g10
I1
sssg45
(dp562
g181
(dp563
g10
F13.1
ssg172
(dp564
g10
F3.6999999999999997
ssg175
(dp565
g10
F0.69999999999999996
ssVcom.comingx.athit
p566
(dp567
g10
F0.90000000000000002
ssg170
(dp568
g10
F0.90000000000000002
ssVcom.tencent.android.qqdownloader
p569
(dp570
g10
F16.099999999999998
ssg27
(dp571
g10
F0.90000000000000002
ssg186
(dp572
g10
F4.4000000000000004
ssg71
(dp573
g10
F1.7
sssg47
(dp574
Vcom.tencent.mobileqq
p575
(dp576
g10
F1.3
ssVcom.tencent.mm
p577
(dp578
g10
F1.3
ssVcom.eg.android.AlipayGphone
p579
(dp580
g10
I1
ssVcom.android.launcher
p581
(dp582
g10
F3.3999999999999999
sssg49
(dp583
Vcom.tencent.mobileqq
p584
(dp585
g10
F0.69999999999999996
ssVcom.tencent.mm
p586
(dp587
g10
F2.6000000000000001
ssVcom.android.launcher
p588
(dp589
g10
F2.7000000000000002
sssg51
(dp590
Vcom.android.browser
p591
(dp592
g10
F1.8999999999999999
ssVcom.tencent.mm
p593
(dp594
g10
F0.69999999999999996
ssg150
(dp595
g10
F0.40000000000000002
ssVcom.android.launcher
p596
(dp597
g10
F3
sssg53
(dp598
g37
(dp599
g10
F2.5
ssVcom.tencent.mobileqq
p600
(dp601
g10
F1.3
ssVcom.android.fileexplorer
p602
(dp603
g10
F11.399999999999999
ssVcom.qzone
p604
(dp605
g10
F0.69999999999999996
ssVcom.android.launcher
p606
(dp607
g10
F5.4000000000000004
ssVcom.tencent.mm
p608
(dp609
g10
F0.69999999999999996
sssg55
(dp610
Vcom.zhihu.android
p611
(dp612
g10
F0.40000000000000002
ssVcom.tencent.mm
p613
(dp614
g10
F5.6000000000000005
ssVcom.android.mms
p615
(dp616
g10
F0.90000000000000002
ssVcom.android.launcher
p617
(dp618
g10
F9.9000000000000004
ssVcom.sina.weibo
p619
(dp620
g10
F2.0999999999999996
ssVcom.tencent.mobileqq
p621
(dp622
g10
I1
sssg57
(dp623
Vcom.android.launcher
p624
(dp625
g10
F11.699999999999999
ssVcom.sina.weibo
p626
(dp627
g10
F2.3999999999999999
ssVcom.dotamax.app
p628
(dp629
g10
I1
ssVcom.sankuai.movie
p630
(dp631
g10
F0.40000000000000002
ssVcom.tencent.mm
p632
(dp633
g10
F7.8000000000000007
ssVcom.tencent.mobileqq
p634
(dp635
g10
F9.4000000000000004
sssg59
(dp636
Vcom.tencent.mm
p637
(dp638
g10
F0.69999999999999996
ssVcom.android.launcher
p639
(dp640
g10
F1.3
ssVcom.eg.android.AlipayGphone
p641
(dp642
g10
I1
sssg61
(dp643
Vcom.android.browser
p644
(dp645
g10
F4.7999999999999998
ssVcom.meizu.notepaper
p646
(dp647
g10
F5
ssg47
(dp648
g10
F0.90000000000000002
ssg59
(dp649
g10
I1
ssVcom.android.deskclock
p650
(dp651
g10
I1
ssVcom.zhihu.android
p652
(dp653
g10
F1.7
ssVcom.tencent.mm
p654
(dp655
g10
F92.600000000000122
ssVim.yixin
p656
(dp657
g10
F1.6000000000000001
ssVcom.android.mms
p658
(dp659
g10
F32.099999999999994
ssVcom.meizu.blockservice
p660
(dp661
g10
F0.40000000000000002
ssVcom.android.settings
p662
(dp663
g10
F0.40000000000000002
ssVcom.android.safe
p664
(dp665
g10
F0.40000000000000002
ssVcom.qzone
p666
(dp667
g10
F2.5
ssVcom.dotamax.app
p668
(dp669
g10
F2.8999999999999999
ssVcom.android.launcher
p670
(dp671
g10
F219.30000000000013
ssVcom.renren.mobile.android
p672
(dp673
g10
F1.8999999999999999
ssVcom.hupu.games
p674
(dp675
g10
I1
ssVcom.android.email
p676
(dp677
g10
F1.7
ssVcom.sina.weibo
p678
(dp679
g10
F3.6999999999999997
ssg641
(dp680
g10
F0.90000000000000002
ssVcom.tencent.mobileqq
p681
(dp682
g10
F85.400000000000077
sssg63
(dp683
Vcom.android.mms
p684
(dp685
g10
F1.3
ssVim.yixin
p686
(dp687
g10
F3.6999999999999997
ssg21
(dp688
g10
F17.5
ssVcom.meizu.blockservice
p689
(dp690
g10
F0.69999999999999996
ssg299
(dp691
g10
F32.999999999999986
ssVcom.tencent.mm
p692
(dp693
g10
F18.200000000000003
ssVcom.tencent.mobileqq
p694
(dp695
g10
F13.500000000000002
sssg65
(dp696
Vcom.android.fileexplorer
p697
(dp698
g10
I1
ssVcom.android.launcher
p699
(dp700
g10
F0.90000000000000002
sssg67
(dp701
Vcom.sina.weibo
p702
(dp703
g10
F0.90000000000000002
ssVcom.android.launcher
p704
(dp705
g10
I1
sssg69
(dp706
Vone.hh.oneclient
p707
(dp708
g10
F0.90000000000000002
ssg25
(dp709
g10
F4239.6999999999252
ssVcom.android.browser
p710
(dp711
g10
F45.899999999999977
ssVim.yixin
p712
(dp713
g10
F95.800000000000125
ssg322
(dp714
g10
F0.69999999999999996
ssVcom.android.deskclock
p715
(dp716
g10
F8.5000000000000018
ssVcom.meizu.media.camera
p717
(dp718
g10
F4.2999999999999998
ssVcom.tencent.qqpim
p719
(dp720
g10
F1.8999999999999999
ssg442
(dp721
g10
F3.9999999999999996
ssVcom.hupu.games
p722
(dp723
g10
F27.099999999999987
ssg33
(dp724
g10
F188.10000000000053
ssVcom.eg.android.AlipayGphone
p725
(dp726
g10
F4.7000000000000002
ssVcom.youku.phone
p727
(dp728
g10
F1.7000000000000002
ssVcom.zhihu.android
p729
(dp730
g10
F91.600000000000122
ssg41
(dp731
g10
F2.6000000000000001
ssg43
(dp732
g10
F1.3
ssVcom.android.packageinstaller
p733
(dp734
g10
F3.1000000000000001
ssg49
(dp735
g10
F1.3999999999999999
ssVcom.taobao.taobao
p736
(dp737
g10
F1.3
ssVcom.android.video
p738
(dp739
g10
F1.7999999999999998
ssVcom.wumii.android.mimi
p740
(dp741
g10
F2.7000000000000002
ssVcom.android.safe
p742
(dp743
g10
F5.5999999999999996
ssVcom.android.phone
p744
(dp745
g10
F56.399999999999977
ssg551
(dp746
g10
F11.4
ssg97
(dp747
g10
F0.69999999999999996
ssVcom.tencent.mm
p748
(dp749
g10
F2380.6000000000881
ssg71
(dp750
g10
F4.4000000000000004
ssg73
(dp751
g10
F15.700000000000005
ssVcom.renren.mobile.android
p752
(dp753
g10
F16.100000000000005
ssVcom.kugou.android
p754
(dp755
g10
F61.400000000000013
ssVcom.baidu.input
p756
(dp757
g10
F0.69999999999999996
ssg85
(dp758
g10
F0.90000000000000002
ssg87
(dp759
g10
F10.300000000000002
ssg89
(dp760
g10
F0.90000000000000002
ssVcom.sankuai.movie
p761
(dp762
g10
F2.2000000000000002
ssg95
(dp763
g10
F6.3000000000000007
ssVcom.meizu.notepaper
p764
(dp765
g10
F47.799999999999947
ssVcom.immomo.momo
p766
(dp767
g10
F10.200000000000001
ssVcom.zhihu.daily.android
p768
(dp769
g10
F3.9999999999999996
ssVcom.android.calendar
p770
(dp771
g10
F2.7999999999999998
ssVcom.android.settings
p772
(dp773
g10
F10.100000000000001
ssg111
(dp774
g10
F97.800000000000182
ssVcom.baidu.BaiduMap
p775
(dp776
g10
F3.3999999999999999
ssg660
(dp777
g10
F4.4000000000000004
ssVcom.qzone
p778
(dp779
g10
F66.899999999999991
ssVcom.dotamax.app
p780
(dp781
g10
F41.199999999999967
ssg121
(dp782
g10
F0.40000000000000002
ssVcom.meizu.flyme.weather
p783
(dp784
g10
F8.2000000000000011
sssg71
(dp785
Vcom.tencent.mobileqq
p786
(dp787
g10
F4.2999999999999998
ssVcom.android.packageinstaller
p788
(dp789
g10
I1
ssVcom.comingx.athit
p790
(dp791
g10
F0.69999999999999996
ssVcom.android.mms
p792
(dp793
g10
F0.40000000000000002
ssVcom.android.safe
p794
(dp795
g10
F0.40000000000000002
ssVcom.android.launcher
p796
(dp797
g10
F11.299999999999999
ssVcom.android.settings
p798
(dp799
g10
I1
ssVcom.tencent.mm
p800
(dp801
g10
F1.8999999999999999
sssg73
(dp802
Vcom.android.browser
p803
(dp804
g10
F0.69999999999999996
ssVcom.meizu.notepaper
p805
(dp806
g10
F3.3999999999999999
ssVcom.tencent.mm
p807
(dp808
g10
F13.300000000000002
ssVcom.android.packageinstaller
p809
(dp810
g10
I1
ssVcom.android.mms
p811
(dp812
g10
F0.40000000000000002
ssVcom.sina.weibo
p813
(dp814
g10
F1.1000000000000001
ssVcom.meizu.media.camera
p815
(dp816
g10
F0.90000000000000002
ssg305
(dp817
g10
F0.40000000000000002
ssVcom.android.launcher
p818
(dp819
g10
F40.399999999999991
ssVcom.hupu.games
p820
(dp821
g10
F0.40000000000000002
ssVcom.tencent.mobileqq
p822
(dp823
g10
F16.099999999999998
sssg75
(dp824
Vcom.android.browser
p825
(dp826
g10
F0.40000000000000002
ssVcom.android.launcher
p827
(dp828
g10
F1.7
ssg163
(dp829
g10
F0.90000000000000002
sssg77
(dp830
g429
(dp831
g10
F0.40000000000000002
ssVcom.tencent.android.qqdownloader
p832
(dp833
g10
F0.69999999999999996
ssVcom.zhihu.daily.android
p834
(dp835
g10
F0.90000000000000002
ssVcom.zhihu.android
p836
(dp837
g10
F6.9000000000000012
ssVcom.sina.weibo
p838
(dp839
g10
F18.100000000000001
ssVim.yixin
p840
(dp841
g10
F2.7000000000000002
ssVcom.android.mms
p842
(dp843
g10
F0.40000000000000002
ssVcom.android.deskclock
p844
(dp845
g10
F0.69999999999999996
ssVcom.qzone
p846
(dp847
g10
F3.1000000000000001
ssg380
(dp848
g10
F0.90000000000000002
ssVcom.android.launcher
p849
(dp850
g10
F68.700000000000045
ssVcom.android.phone
p851
(dp852
g10
I1
ssVcom.hupu.games
p853
(dp854
g10
F1.5
ssVcom.tencent.mm
p855
(dp856
g10
F14.300000000000004
ssg465
(dp857
g10
F12.800000000000002
sssg79
(dp858
Vcom.android.browser
p859
(dp860
g10
F66.499999999999972
ssVcom.android.launcher
p861
(dp862
g10
F3872.8999999999551
ssg707
(dp863
g10
F1.5
ssVim.yixin
p864
(dp865
g10
F81.600000000000051
ssg437
(dp866
g10
F13.400000000000002
ssVcom.meizu.media.camera
p867
(dp868
g10
F6.4000000000000004
ssVcom.tencent.qqpim
p869
(dp870
g10
F0.40000000000000002
ssg11
(dp871
g10
F5.5999999999999996
ssVcom.baoxue.player
p872
(dp873
g10
F0.40000000000000002
ssg444
(dp874
g10
F42.19999999999996
ssg660
(dp875
g10
F4.7999999999999998
ssg33
(dp876
g10
F375.09999999999775
ssVcom.eg.android.AlipayGphone
p877
(dp878
g10
F9.1000000000000014
ssg335
(dp879
g10
F136.20000000000033
ssVcn.wps.moffice_eng
p880
(dp881
g10
F3.7000000000000002
ssg45
(dp882
g10
F4
ssVcom.sankuai.meituan
p883
(dp884
g10
F0.90000000000000002
ssg49
(dp885
g10
F3
ssg51
(dp886
g10
F0.69999999999999996
ssg53
(dp887
g10
F1.6000000000000001
ssg740
(dp888
g10
F7.6000000000000014
ssg453
(dp889
g10
F4.9000000000000004
ssVcom.android.phone
p890
(dp891
g10
F52.999999999999979
ssVcom.meizu.media.gallery
p892
(dp893
g10
F12.900000000000004
ssg67
(dp894
g10
F0.69999999999999996
ssg367
(dp895
g10
F1949.7000000000414
ssg353
(dp896
g10
F3.3999999999999999
ssg73
(dp897
g10
F16.5
ssg77
(dp898
g10
F24.699999999999989
ssVcom.kugou.android
p899
(dp900
g10
F24.999999999999996
ssVcom.baidu.input
p901
(dp902
g10
F7.5
ssg85
(dp903
g10
F0.40000000000000002
ssg602
(dp904
g10
F3.1999999999999997
ssg91
(dp905
g10
F1.8
ssg93
(dp906
g10
F0.90000000000000002
ssg95
(dp907
g10
F2.2000000000000002
ssVcom.meizu.notepaper
p908
(dp909
g10
F61.19999999999996
ssVcom.immomo.momo
p910
(dp911
g10
F16.300000000000001
ssg103
(dp912
g10
F17.400000000000002
ssg107
(dp913
g10
F0.90000000000000002
ssVcom.android.settings
p914
(dp915
g10
F12.700000000000001
ssg111
(dp916
g10
F122.60000000000022
ssg113
(dp917
g10
F1.3
ssg31
(dp918
g10
F1.3
ssg117
(dp919
g10
F75.600000000000009
ssVcom.dotamax.app
p920
(dp921
g10
F86.900000000000077
ssg121
(dp922
g10
F0.90000000000000002
ssVcom.meizu.flyme.weather
p923
(dp924
g10
F12.400000000000004
sssg81
(dp925
Vcom.zhihu.android
p926
(dp927
g10
F0.40000000000000002
ssVcom.meizu.notepaper
p928
(dp929
g10
F0.40000000000000002
ssVim.yixin
p930
(dp931
g10
F4.5
ssVcom.sina.weibo
p932
(dp933
g10
F3.6000000000000005
ssVcom.tencent.mm
p934
(dp935
g10
F59.89999999999997
ssVcom.android.mms
p936
(dp937
g10
F2.1000000000000001
ssVcom.baidu.BaiduMap
p938
(dp939
g10
F0.90000000000000002
ssVcom.qzone
p940
(dp941
g10
F1.7000000000000002
ssVcom.dotamax.app
p942
(dp943
g10
F0.80000000000000004
ssVcom.android.launcher
p944
(dp945
g10
F137.10000000000011
ssVcom.android.settings
p946
(dp947
g10
F0.69999999999999996
ssVcom.tencent.mobileqq
p948
(dp949
g10
F48.199999999999989
ssVcom.eg.android.AlipayGphone
p950
(dp951
g10
F0.40000000000000002
ssg783
(dp952
g10
F0.90000000000000002
sssg83
(dp953
Vcom.zhihu.android
p954
(dp955
g10
F1.6000000000000001
ssVcom.meizu.notepaper
p956
(dp957
g10
F1.7
ssVcom.android.browser
p958
(dp959
g10
I1
ssVcom.tencent.mobileqq
p960
(dp961
g10
F0.69999999999999996
ssVim.yixin
p962
(dp963
g10
I1
ssVcom.taobao.taobao
p964
(dp965
g10
F0.69999999999999996
ssVcom.android.launcher
p966
(dp967
g10
F5.6000000000000005
ssVcom.tencent.mm
p968
(dp969
g10
F4.8000000000000007
sssg85
(dp970
Vcom.tencent.mobileqq
p971
(dp972
g10
F0.40000000000000002
ssVcom.tencent.mm
p973
(dp974
g10
F0.90000000000000002
ssVcom.android.launcher
p975
(dp976
g10
F1.7
sssg87
(dp977
g37
(dp978
g10
F4.0999999999999996
ssg600
(dp979
g10
F7.7000000000000011
ssVcom.tencent.android.qqdownloader
p980
(dp981
g10
F1.7000000000000002
ssg245
(dp982
g10
F1.3
ssg322
(dp983
g10
I1
ssVcom.android.video
p984
(dp985
g10
F8.6999999999999993
ssg604
(dp986
g10
F2
ssVcom.dotamax.app
p987
(dp988
g10
F3
ssg699
(dp989
g10
F23.099999999999991
ssVcom.android.settings
p990
(dp991
g10
I1
ssVcom.baoxue.player
p992
(dp993
g10
F2.7000000000000002
ssVcom.tencent.mm
p994
(dp995
g10
F8.5
ssg387
(dp996
g10
F0.69999999999999996
sssg89
(dp997
sg91
(dp998
Vim.yixin
p999
(dp1000
g10
F0.40000000000000002
ssVcom.tencent.mm
p1001
(dp1002
g10
I1
ssVcom.dotamax.app
p1003
(dp1004
g10
F0.90000000000000002
ssVcom.android.launcher
p1005
(dp1006
g10
F3
sssg93
(dp1007
g717
(dp1008
g10
F0.90000000000000002
ssVcom.tencent.mm
p1009
(dp1010
g10
F0.90000000000000002
ssVcom.tencent.mobileqq
p1011
(dp1012
g10
I1
ssVcom.android.launcher
p1013
(dp1014
g10
I2
sssg95
(dp1015
Vcom.meizu.notepaper
p1016
(dp1017
g10
F0.90000000000000002
ssVcom.tencent.mm
p1018
(dp1019
g10
F6
ssVim.yixin
p1020
(dp1021
g10
F0.90000000000000002
ssVcom.android.mms
p1022
(dp1023
g10
F1.8
ssVcom.meizu.blockservice
p1024
(dp1025
g10
F0.69999999999999996
ssVcom.android.launcher
p1026
(dp1027
g10
F16.599999999999998
ssVcom.android.phone
p1028
(dp1029
g10
F1.7
ssVcom.tencent.mobileqq
p1030
(dp1031
g10
F4.7999999999999998
sssg97
(dp1032
Vcom.android.settings
p1033
(dp1034
g10
F1.7
ssVim.yixin
p1035
(dp1036
g10
F0.90000000000000002
ssVcom.android.launcher
p1037
(dp1038
g10
F0.40000000000000002
sssg99
(dp1039
Vim.yixin
p1040
(dp1041
g10
F0.90000000000000002
ssVcom.android.launcher
p1042
(dp1043
g10
I1
sssg101
(dp1044
Vcom.android.browser
p1045
(dp1046
g10
F1.3
ssVim.yixin
p1047
(dp1048
g10
F1.3999999999999999
ssVcom.zhihu.android
p1049
(dp1050
g10
F0.40000000000000002
ssVcom.tencent.mm
p1051
(dp1052
g10
F52.799999999999947
ssVcom.sina.weibo
p1053
(dp1054
g10
F2.2000000000000002
ssVcom.comingx.athit
p1055
(dp1056
g10
F2.6000000000000001
ssVcom.android.mms
p1057
(dp1058
g10
F4.5
ssg756
(dp1059
g10
I1
ssVcom.qzone
p1060
(dp1061
g10
F0.40000000000000002
ssVcom.dotamax.app
p1062
(dp1063
g10
F0.90000000000000002
ssVcom.android.launcher
p1064
(dp1065
g10
F137.40000000000009
ssVcom.android.phone
p1066
(dp1067
g10
F0.90000000000000002
ssVcom.tencent.mobileqq
p1068
(dp1069
g10
F44.39999999999997
sssg103
(dp1070
Vcom.zhihu.android
p1071
(dp1072
g10
F3.2999999999999998
ssg101
(dp1073
g10
F0.90000000000000002
ssVone.hh.oneclient
p1074
(dp1075
g10
F2.2000000000000002
ssVcom.tencent.mobileqq
p1076
(dp1077
g10
F2.6000000000000001
ssVcom.sina.weibo
p1078
(dp1079
g10
F1.7
ssVim.yixin
p1080
(dp1081
g10
I1
ssg509
(dp1082
g10
F1.3999999999999999
ssg55
(dp1083
g10
F2.2000000000000002
ssVcom.android.launcher
p1084
(dp1085
g10
F30.299999999999997
ssVcom.tencent.mm
p1086
(dp1087
g10
F12.200000000000001
sssg105
(dp1088
Vcom.zhihu.android
p1089
(dp1090
g10
F1.3
ssVcom.sina.weibo
p1091
(dp1092
g10
F0.90000000000000002
ssVim.yixin
p1093
(dp1094
g10
F0.90000000000000002
ssVcom.baidu.BaiduMap
p1095
(dp1096
g10
F0.90000000000000002
ssVcom.android.launcher
p1097
(dp1098
g10
F33.699999999999989
ssVcom.tencent.mm
p1099
(dp1100
g10
F15.200000000000003
ssVcom.tencent.mobileqq
p1101
(dp1102
g10
F12.100000000000001
sssg107
(dp1103
Vcom.tencent.mobileqq
p1104
(dp1105
g10
F3.6999999999999997
ssVcom.tencent.mm
p1106
(dp1107
g10
F4.5
ssVcom.android.launcher
p1108
(dp1109
g10
F10
ssVcom.android.phone
p1110
(dp1111
g10
F0.90000000000000002
sssg109
(dp1112
g1071
(dp1113
g10
F0.40000000000000002
ssVcom.zhihu.daily.android
p1114
(dp1115
g10
F1.3999999999999999
ssg99
(dp1116
g10
F0.90000000000000002
ssVcom.tencent.mobileqq
p1117
(dp1118
g10
F6.7000000000000011
ssVcom.sina.weibo
p1119
(dp1120
g10
I2
ssVim.yixin
p1121
(dp1122
g10
F6.4000000000000004
ssVcom.android.mms
p1123
(dp1124
g10
F1.6000000000000001
ssVcom.android.deskclock
p1125
(dp1126
g10
F0.90000000000000002
ssVcom.android.fileexplorer
p1127
(dp1128
g10
F3
ssVcom.wumii.android.mimi
p1129
(dp1130
g10
F0.69999999999999996
ssVcom.meizu.media.camera
p1131
(dp1132
g10
F0.90000000000000002
ssVcom.android.launcher
p1133
(dp1134
g10
F46.200000000000003
ssg992
(dp1135
g10
F0.90000000000000002
ssg97
(dp1136
g10
I1
ssVcom.qzone
p1137
(dp1138
g10
F2.7999999999999998
ssVcom.tencent.mm
p1139
(dp1140
g10
F16.200000000000003
ssVcom.eg.android.AlipayGphone
p1141
(dp1142
g10
F0.40000000000000002
ssVme.quqi
p1143
(dp1144
g10
I1
sssg111
(dp1145
Vcom.zhihu.android
p1146
(dp1147
g10
F0.69999999999999996
ssVcom.meizu.notepaper
p1148
(dp1149
g10
F4.2000000000000002
ssg59
(dp1150
g10
F0.69999999999999996
ssVcom.android.browser
p1151
(dp1152
g10
F2.6000000000000001
ssVcom.renren.mobile.android
p1153
(dp1154
g10
F0.40000000000000002
ssVcom.tencent.mobileqq
p1155
(dp1156
g10
F76.200000000000017
ssVcom.sina.weibo
p1157
(dp1158
g10
F8.3000000000000007
ssVim.yixin
p1159
(dp1160
g10
F8.9000000000000004
ssVcom.meizu.media.camera
p1161
(dp1162
g10
F0.40000000000000002
ssg153
(dp1163
g10
I3
ssVcom.qzone
p1164
(dp1165
g10
F2.2000000000000002
ssVcom.android.safe
p1166
(dp1167
g10
F2.2000000000000002
ssVcom.android.launcher
p1168
(dp1169
g10
F228.49999999999991
ssVcom.android.phone
p1170
(dp1171
g10
F35.499999999999979
ssVcom.hupu.games
p1172
(dp1173
g10
I1
ssVcom.android.email
p1174
(dp1175
g10
F2.6000000000000001
ssVcom.tencent.mm
p1176
(dp1177
g10
F120.60000000000019
ssg725
(dp1178
g10
F1.1000000000000001
ssVcom.dotamax.app
p1179
(dp1180
g10
F2.5999999999999996
sssg113
(dp1181
Vcom.android.browser
p1182
(dp1183
g10
F1.7
ssVcom.tencent.mm
p1184
(dp1185
g10
F1.7000000000000002
ssVcom.tencent.mobileqq
p1186
(dp1187
g10
I1
ssVcom.android.launcher
p1188
(dp1189
g10
F3.7000000000000002
sssg115
(dp1190
Vcom.tencent.mm
p1191
(dp1192
g10
F8.2000000000000011
ssVim.yixin
p1193
(dp1194
g10
F0.40000000000000002
ssVcom.android.mms
p1195
(dp1196
g10
F4.1000000000000005
ssVcom.android.launcher
p1197
(dp1198
g10
F12.100000000000001
ssVcom.tencent.mobileqq
p1199
(dp1200
g10
F4.0999999999999996
sssg117
(dp1201
Vcom.kugou.android
p1202
(dp1203
g10
I1
ssVcom.zhihu.android
p1204
(dp1205
g10
F1.7000000000000002
ssVcom.meizu.notepaper
p1206
(dp1207
g10
F1.3
ssVcom.tencent.android.qqdownloader
p1208
(dp1209
g10
F8.0999999999999996
ssVcom.android.fileexplorer
p1210
(dp1211
g10
F0.40000000000000002
ssg351
(dp1212
g10
F65.899999999999977
ssVcom.renren.mobile.android
p1213
(dp1214
g10
F1.8
ssg840
(dp1215
g10
F5.6000000000000005
ssVcom.android.mms
p1216
(dp1217
g10
F0.90000000000000002
ssVcom.android.safe
p1218
(dp1219
g10
F0.90000000000000002
ssVcom.dotamax.app
p1220
(dp1221
g10
F5.3999999999999995
ssVcom.android.launcher
p1222
(dp1223
g10
F117.50000000000016
ssVcom.android.phone
p1224
(dp1225
g10
F2.7999999999999998
ssVcom.hupu.games
p1226
(dp1227
g10
F0.90000000000000002
ssVme.quqi
p1228
(dp1229
g10
F0.40000000000000002
ssVcom.sina.weibo
p1230
(dp1231
g10
F10.500000000000002
ssVcom.android.packageinstaller
p1232
(dp1233
g10
F1.3
ssVcom.tencent.mobileqq
p1234
(dp1235
g10
F53.499999999999993
sssg119
(dp1236
Vcom.android.launcher
p1237
(dp1238
g10
F186.30000000000007
ssg999
(dp1239
g10
F6.4000000000000012
ssg322
(dp1240
g10
F0.40000000000000002
ssVcom.android.deskclock
p1241
(dp1242
g10
F1.8999999999999999
ssg869
(dp1243
g10
F0.90000000000000002
ssVcom.tencent.android.qqdownloader
p1244
(dp1245
g10
F1.7
ssVcom.hupu.games
p1246
(dp1247
g10
F1.3
ssVcom.sina.weibo
p1248
(dp1249
g10
F8.6000000000000014
ssVcom.zhihu.android
p1250
(dp1251
g10
F8.3000000000000007
ssg880
(dp1252
g10
F0.90000000000000002
ssVcom.android.packageinstaller
p1253
(dp1254
g10
F0.90000000000000002
ssVcom.android.safe
p1255
(dp1256
g10
I1
ssVcom.android.phone
p1257
(dp1258
g10
I3
ssVcom.tencent.mm
p1259
(dp1260
g10
F73.899999999999977
ssVme.quqi
p1261
(dp1262
g10
F0.90000000000000002
ssVcom.renren.mobile.android
p1263
(dp1264
g10
F0.40000000000000002
ssVcom.kugou.android
p1265
(dp1266
g10
F0.90000000000000002
ssVcom.android.fileexplorer
p1267
(dp1268
g10
F2.4000000000000004
ssg872
(dp1269
g10
F0.69999999999999996
ssVcom.tencent.mobileqq
p1270
(dp1271
g10
F49.399999999999984
ssVcom.meizu.notepaper
p1272
(dp1273
g10
F0.90000000000000002
ssVcom.zhihu.daily.android
p1274
(dp1275
g10
F2.2000000000000002
ssVcom.android.settings
p1276
(dp1277
g10
F1.7
ssVcom.android.mms
p1278
(dp1279
g10
F2.6000000000000001
ssVcom.qzone
p1280
(dp1281
g10
F4.2999999999999998
sssg121
(dp1282
Vcom.meizu.media.gallery
p1283
(dp1284
g10
F0.90000000000000002
ssVcom.tencent.mm
p1285
(dp1286
g10
F0.40000000000000002
ssVcom.android.launcher
p1287
(dp1288
g10
F1.7
sssg123
(dp1289
Vim.yixin
p1290
(dp1291
g10
F5.8000000000000007
ssVcom.sina.weibo
p1292
(dp1293
g10
F2.1000000000000001
ssg264
(dp1294
g10
F14.000000000000005
ssg19
(dp1295
g10
I6
ssVcom.qzone
p1296
(dp1297
g10
F4
ssVcom.android.launcher
p1298
(dp1299
g10
F45.100000000000009
ssVcom.renren.mobile.android
p1300
(dp1301
g10
F2.2000000000000002
ssVcom.tencent.mobileqq
p1302
(dp1303
g10
F4.7000000000000002
ssssS'edge'
p1304
g129
sS'graph'
p1305
(dp1306
sS'adjlist_dict_factory'
p1307
g126
sS'adj'
p1308
g129
sS'pred'
p1309
(dp1310
g8
(dp1311
Vcom.zhihu.android
p1312
g504
sVcom.meizu.notepaper
p1313
g1046
sVim.yixin
p1314
g212
sg790
g804
sg75
g826
sVcom.tencent.mobileqq
p1315
g711
sg1051
g860
sVcom.android.mms
p1316
g1152
sg150
g959
sg51
g592
sg139
g1183
sg155
g259
sVcom.android.launcher
p1317
g317
sVcom.renren.mobile.android
p1318
g831
sVcom.hupu.games
p1319
g404
sVcom.sina.weibo
p1320
g430
sVcom.android.phone
p1321
g645
ssg11
(dp1322
Vcom.zhihu.android
p1323
g512
sVcom.sina.weibo
p1324
g443
sg1253
g570
sVcom.tencent.mm
p1325
g871
sVcom.android.fileexplorer
p1326
g981
sVcom.qzone
p1327
g1209
sg119
g1245
sVcom.android.launcher
p1328
g328
sVcom.renren.mobile.android
p1329
g833
sg872
g394
sg184
g402
sVcom.tencent.mobileqq
p1330
g721
ssg13
(dp1331
Vcom.tencent.mobileqq
p1332
g708
sVcom.sina.weibo
p1333
g434
sVcom.tencent.mm
p1334
g863
sVcom.zhihu.daily.android
p1335
g1075
sVcom.android.launcher
p1336
g320
ssg15
(dp1337
Vcom.android.browser
p1338
g147
sg322
g246
sVcom.android.deskclock
p1339
g269
sVcom.android.launcher
p1340
g321
sg234
g408
sVcom.sina.weibo
p1341
g436
sVcom.zhihu.android
p1342
g508
sVcom.android.phone
p1343
g657
sVcom.meizu.media.gallery
p1344
g687
sg97
g1036
sVcom.tencent.mm
p1345
g865
sg1300
g841
sVcom.meizu.media.camera
p1346
g296
sg83
g963
sVcom.android.fileexplorer
p1347
g982
sVcom.kingsoft
p1348
g1000
sg95
g1021
sVcom.tencent.mobileqq
p1349
g713
sVcom.kugou.android
p1350
g931
sg99
g1041
sVcom.meizu.notepaper
p1351
g1048
sVcom.immomo.momo
p1352
g1094
sVcom.zhihu.daily.android
p1353
g1081
sVcom.android.settings
p1354
g1122
sVcom.android.mms
p1355
g1160
sVcom.meizu.blockservice
p1356
g1194
sg846
g1215
sg1003
g1239
sVcom.meizu.flyme.weather
p1357
g1291
ssg17
(dp1358
g1347
g983
sVcom.tencent.mobileqq
p1359
g714
sVcom.dotamax.app
p1360
g1240
sVcom.android.launcher
p1361
g323
ssg19
(dp1362
Vcom.zhihu.android
p1363
g510
sVim.yixin
p1364
g223
sVcom.zhihu.daily.android
p1365
g1082
sVcom.android.browser
p1366
g156
sVcom.android.settings
p1367
g1126
sVcom.tencent.mm
p1368
g866
sVone.hh.oneclient
p1369
g191
sVcom.tencent.mobileqq
p1370
g716
sVcom.dotamax.app
p1371
g1242
sVcom.android.launcher
p1372
g324
sVcom.renren.mobile.android
p1373
g845
sVcom.hupu.games
p1374
g413
sVcom.sina.weibo
p1375
g438
sVcom.android.phone
p1376
g651
sVcom.meizu.flyme.weather
p1377
g1295
ssg21
(dp1378
Vcom.android.browser
p1379
g145
sVcom.android.launcher
p1380
g325
sVcom.zhihu.android
p1381
g526
sVcom.tencent.mm
p1382
g868
sVcom.sina.weibo
p1383
g440
sVcom.comingx.athit
p1384
g816
sVcom.android.mms
p1385
g1162
sg412
g273
sg761
g1008
sVcom.android.settings
p1386
g1132
sg63
g688
sg1374
g409
sVcom.tencent.mobileqq
p1387
g718
ssg23
(dp1388
g308
g441
sVcom.tencent.mm
p1389
g870
sg312
g720
sVcom.dotamax.app
p1390
g1243
sg314
g327
ssg25
(dp1391
g8
g162
sg761
g1014
sg13
g197
sVim.yixin
p1392
g229
sg17
g254
sVcom.android.deskclock
p1393
g275
sVcom.meizu.media.camera
p1394
g300
sg23
g315
sg442
g182
sg29
g419
sg33
g432
sg35
g488
sg37
g501
sg39
g506
sg880
g558
sg43
g561
sg450
g563
sg47
g582
sVcom.jingdong.app.mall
p1395
g589
sg51
g597
sg53
g607
sVcom.wumii.android.mimi
p1396
g618
sg57
g625
sg59
g640
sVcom.android.phone
p1397
g671
sVcom.meizu.media.gallery
p1398
g691
sg65
g700
sg67
g705
sg79
g862
sg71
g797
sg73
g819
sg75
g828
sVcom.renren.mobile.android
p1399
g850
sg81
g945
sg901
g967
sg85
g976
sg697
g989
sg91
g1006
sg992
g386
sg95
g1027
sg97
g1038
sg69
g709
sg99
g1043
sg908
g1065
sg766
g1098
sg103
g1085
sg107
g1109
sg109
g1134
sg218
g1169
sg139
g1189
sg115
g1198
sg117
g1223
sg380
g1238
sg121
g1288
sg923
g1299
ssg27
(dp1400
Vcom.android.launcher
p1401
g364
sg990
g1135
sVcom.android.packageinstaller
p1402
g571
sg1127
g993
sVcom.dotamax.app
p1403
g1269
sg980
g183
sg395
g873
ssg29
(dp1404
Vcom.zhihu.android
p1405
g514
sg1314
g235
sVcom.comingx.athit
p1406
g821
sVcom.tencent.android.qqdownloader
p1407
g185
sVcom.renren.mobile.android
p1408
g854
sVcom.tencent.mm
p1409
g874
sVcom.android.mms
p1410
g1173
sg412
g279
sVcom.qzone
p1411
g1227
sVcom.dotamax.app
p1412
g1247
sVcom.android.launcher
p1413
g330
sg420
g675
sVcom.sina.weibo
p1414
g445
sVcom.tencent.mobileqq
p1415
g723
ssg31
(dp1416
Vcom.tencent.mm
p1417
g918
sVcom.android.launcher
p1418
g331
ssg33
(dp1419
g707
g193
sVcom.tencent.android.qqdownloader
p1420
g176
sVcom.android.browser
p1421
g143
sg1392
g215
sVcom.android.deskclock
p1422
g267
sg272
g294
sg23
g309
sVcom.android.launcher
p1423
g332
sVcom.hupu.games
p1424
g423
sg446
g482
sVcom.zhihu.android
p1425
g516
sg1232
g565
sVcom.wumii.android.mimi
p1426
g620
sg453
g627
sVcom.android.phone
p1427
g679
sg67
g703
sg367
g724
sVcom.comingx.athit
p1428
g814
sg752
g839
sg748
g876
sVcom.kugou.android
p1429
g933
sVcom.meizu.notepaper
p1430
g1054
sVcom.immomo.momo
p1431
g1092
sVcom.zhihu.daily.android
p1432
g1079
sg472
g1120
sVcom.android.mms
p1433
g1158
sVcom.qzone
p1434
g1231
sg920
g1249
sVcom.meizu.flyme.weather
p1435
g1293
ssg35
(dp1436
Vcom.kugou.android
p1437
g951
sVcom.zhihu.android
p1438
g518
sVcom.sankuai.meituan
p1439
g580
sg59
g642
sVcom.sina.weibo
p1440
g447
sVim.yixin
p1441
g239
sVcom.android.mms
p1442
g1178
sg1413
g333
sVcom.android.settings
p1443
g1142
sg329
g424
sVcom.tencent.mm
p1444
g878
sVcom.android.phone
p1445
g680
sVcom.tencent.mobileqq
p1446
g726
ssg37
(dp1447
g602
g978
sg53
g599
sVcom.tencent.mobileqq
p1448
g728
sVcom.android.launcher
p1449
g334
ssg39
(dp1450
Vcom.kugou.android
p1451
g927
sVcom.android.browser
p1452
g134
sVcom.meizu.notepaper
p1453
g1050
sVcom.immomo.momo
p1454
g1090
sg1114
g1072
sVcom.tencent.mm
p1455
g879
sg1263
g837
sg507
g204
sVcom.android.mms
p1456
g1147
sg901
g955
sg155
g263
sVcom.wumii.android.mimi
p1457
g612
sg846
g1205
sg272
g286
sVcom.dotamax.app
p1458
g1251
sVcom.android.launcher
p1459
g336
sg914
g1113
sg29
g399
sVcom.sina.weibo
p1460
g449
sVcom.android.phone
p1461
g653
sVcom.tencent.mobileqq
p1462
g730
ssg41
(dp1463
Vcom.tencent.mm
p1464
g881
sVcom.tencent.mobileqq
p1465
g731
sVcom.dotamax.app
p1466
g1252
sVcom.android.launcher
p1467
g337
ssg43
(dp1468
g1047
g213
sVcom.tencent.mobileqq
p1469
g732
sVcom.android.launcher
p1470
g338
ssg45
(dp1471
g1323
g520
sg1055
g810
sg1328
g339
sVcom.tencent.mobileqq
p1472
g734
sg1325
g882
sVcom.android.fileexplorer
p1473
g996
sVcom.qzone
p1474
g1233
sg119
g1254
sg11
g174
sg872
g388
sg1324
g451
sg71
g789
ssg47
(dp1475
Vcom.tencent.mm
p1476
g884
sg579
g484
sVcom.android.launcher
p1477
g340
sVcom.android.phone
p1478
g648
ssg49
(dp1479
Vcom.tencent.mobileqq
p1480
g735
sVim.yixin
p1481
g221
sVcom.tencent.mm
p1482
g885
sVcom.android.launcher
p1483
g341
ssg51
(dp1484
Vcom.android.browser
p1485
g152
sVcom.tencent.mm
p1486
g886
sg150
g965
sVcom.android.launcher
p1487
g342
sVcom.tencent.mobileqq
p1488
g737
ssg53
(dp1489
g1210
g985
sVcom.tencent.mm
p1490
g887
sVcom.youku.phone
p1491
g497
sVcom.android.launcher
p1492
g343
sVcom.tencent.mobileqq
p1493
g739
ssg55
(dp1494
Vcom.zhihu.daily.android
p1495
g1083
sVcom.tencent.mm
p1496
g888
sVcom.sina.weibo
p1497
g452
sVcom.android.launcher
p1498
g344
sVcom.android.settings
p1499
g1130
sVcom.tencent.mobileqq
p1500
g741
ssg57
(dp1501
g1384
g817
sVcom.tencent.mobileqq
p1502
g743
sVcom.tencent.mm
p1503
g889
sVcom.android.mms
p1504
g1167
sVcom.qzone
p1505
g1219
sg815
g306
sVcom.dotamax.app
p1506
g1256
sVcom.android.launcher
p1507
g346
sVcom.android.phone
p1508
g665
sVcom.sina.weibo
p1509
g454
sVme.quqi
p1510
g795
ssg59
(dp1511
Vcom.android.mms
p1512
g1150
sVcom.android.launcher
p1513
g347
sg1445
g649
ssg61
(dp1514
Vcom.android.browser
p1515
g164
sVcom.meizu.notepaper
p1516
g1067
sVcom.zhihu.android
p1517
g528
sVcom.android.calendar
p1518
g1111
sVcom.sina.weibo
p1519
g456
sg658
g1171
sg75
g829
sVcom.qzone
p1520
g1225
sVcom.dotamax.app
p1521
g1258
sVcom.android.launcher
p1522
g348
sVcom.renren.mobile.android
p1523
g852
sVcom.hupu.games
p1524
g421
sg676
g1029
sVcom.tencent.mm
p1525
g891
sVcom.tencent.mobileqq
p1526
g745
ssg63
(dp1527
g41
g552
sg1465
g746
sg686
g233
sVcom.meizu.media.camera
p1528
g302
sg1380
g349
sg121
g1284
sVcom.tencent.mm
p1529
g893
ssg65
(dp1530
sg67
(dp1531
Vcom.sina.weibo
p1532
g457
sVcom.tencent.mm
p1533
g894
sVcom.android.launcher
p1534
g350
ssg69
(dp1535
Vone.hh.oneclient
p1536
g199
sVcom.android.launcher
p1537
g368
sVcom.android.browser
p1538
g158
sVim.yixin
p1539
g241
sg322
g244
sVcom.android.deskclock
p1540
g281
sg23
g313
sVcom.tencent.android.qqdownloader
p1541
g187
sVcom.hupu.games
p1542
g426
sVcom.sina.weibo
p1543
g466
sVcom.eg.android.AlipayGphone
p1544
g492
sVcom.zhihu.android
p1545
g539
sg41
g556
sVcom.android.packageinstaller
p1546
g572
sg1439
g576
sVcom.jingdong.app.mall
p1547
g585
sVcom.android.video
p1548
g601
sVcom.wumii.android.mimi
p1549
g622
sg57
g635
sg1399
g857
sg551
g695
sVcom.tencent.mm
p1550
g895
sg71
g787
sVcom.comingx.athit
p1551
g823
sg867
g304
sVcom.android.phone
p1552
g682
sVcom.kugou.android
p1553
g949
sVcom.baidu.input
p1554
g961
sg85
g972
sVcom.android.fileexplorer
p1555
g979
sg93
g1012
sVcom.android.email
p1556
g1031
sVcom.meizu.notepaper
p1557
g1069
sg766
g1102
sVcom.zhihu.daily.android
p1558
g1077
sVcom.android.calendar
p1559
g1105
sVcom.android.settings
p1560
g1118
sVcom.android.mms
p1561
g1156
sVcom.baidu.BaiduMap
p1562
g1187
sg660
g1200
sVcom.qzone
p1563
g1235
sVcom.dotamax.app
p1564
g1271
sVcom.meizu.flyme.weather
p1565
g1303
ssg71
(dp1566
Vcom.tencent.android.qqdownloader
p1567
g188
sVcom.tencent.mobileqq
p1568
g750
sVcom.android.packageinstaller
p1569
g573
sVcom.qzone
p1570
g1229
sVcom.dotamax.app
p1571
g1262
sVcom.android.launcher
p1572
g354
sg798
g1144
sVcom.tencent.mm
p1573
g896
ssg73
(dp1574
Vcom.android.browser
p1575
g138
sVcom.meizu.notepaper
p1576
g1056
sVim.yixin
p1577
g208
sVcom.sina.weibo
p1578
g461
sg809
g567
sVcom.tencent.mm
p1579
g897
sg439
g290
sVcom.android.launcher
p1580
g355
sVcom.hupu.games
p1581
g400
sVcom.tencent.mobileqq
p1582
g751
sVme.quqi
p1583
g791
ssg75
(dp1584
g1515
g141
sVcom.android.launcher
p1585
g356
ssg77
(dp1586
Vcom.zhihu.android
p1587
g522
sVcom.tencent.mobileqq
p1588
g753
sg33
g462
sVim.yixin
p1589
g231
sVcom.android.mms
p1590
g1154
sg1422
g277
sVcom.qzone
p1591
g1214
sg628
g1264
sVcom.android.launcher
p1592
g357
sVcom.android.phone
p1593
g673
sg458
g898
sg167
g1301
ssg79
(dp1594
g8
g166
sg1541
g173
sg13
g195
sg1392
g237
sVcom.mxtech.videoplayer.ad
p1595
g256
sg1393
g265
sVcom.meizu.media.camera
p1596
g292
sg326
g311
sg861
g352
sg992
g396
sg29
g406
sg33
g459
sg446
g490
sVcom.youku.phone
p1597
g499
sg39
g524
sg880
g554
sg1546
g564
sg47
g578
sg1395
g587
sg51
g594
sVcom.android.video
p1598
g609
sg1426
g614
sg345
g633
sg59
g638
sg1397
g655
sg301
g693
sg367
g749
sg353
g801
sg73
g808
sVcom.renren.mobile.android
p1599
g856
sg754
g935
sg901
g969
sg85
g974
sVcom.android.fileexplorer
p1600
g995
sg91
g1002
sg630
g1010
sg95
g1019
sg908
g1052
sg910
g1100
sg103
g1087
sg107
g1107
sg109
g1140
sg270
g1177
sg1562
g1185
sVcom.meizu.blockservice
p1601
g1192
sg117
g1212
sg380
g1260
sg121
g1286
sVcom.meizu.flyme.weather
p1602
g1294
ssg81
(dp1603
Vcom.android.browser
p1604
g132
sVcom.zhihu.android
p1605
g530
sVcom.tencent.mm
p1606
g900
sVcom.sina.weibo
p1607
g464
sg930
g202
sVcom.qzone
p1608
g1203
sVcom.dotamax.app
p1609
g1266
sVcom.android.launcher
p1610
g358
sVcom.tencent.mobileqq
p1611
g755
ssg83
(dp1612
Vcom.android.browser
p1613
g151
sVcom.meizu.notepaper
p1614
g1059
sVcom.zhihu.android
p1615
g532
sVcom.tencent.mobileqq
p1616
g757
sVcom.taobao.taobao
p1617
g595
sVcom.android.launcher
p1618
g359
sVcom.tencent.mm
p1619
g902
ssg85
(dp1620
Vcom.tencent.mobileqq
p1621
g758
sVcom.tencent.mm
p1622
g903
sVcom.android.launcher
p1623
g360
ssg87
(dp1624
g992
g390
sg37
g495
sg69
g759
sg393
g171
sg17
g248
sg53
g603
sVcom.qzone
p1625
g1211
sg391
g1268
sg25
g361
sVcom.android.settings
p1626
g1128
sg65
g698
sg1490
g904
sg387
g568
ssg89
(dp1627
Vcom.tencent.mobileqq
p1628
g760
sVcom.android.launcher
p1629
g362
ssg91
(dp1630
Vcom.tencent.mm
p1631
g905
sVcom.android.launcher
p1632
g363
ssg93
(dp1633
Vcom.tencent.mobileqq
p1634
g762
sVcom.tencent.mm
p1635
g906
sVcom.android.safe
p1636
g631
sVcom.android.launcher
p1637
g318
ssg95
(dp1638
Vcom.tencent.mobileqq
p1639
g763
sVcom.tencent.mm
p1640
g907
sg540
g1175
sVcom.android.launcher
p1641
g365
sVcom.android.phone
p1642
g677
ssg97
(dp1643
Vcom.android.settings
p1644
g1136
sVcom.tencent.mobileqq
p1645
g747
sVcom.android.launcher
p1646
g366
ssg99
(dp1647
Vcom.android.settings
p1648
g1116
sVcom.android.launcher
p1649
g369
ssg101
(dp1650
Vcom.kugou.android
p1651
g929
sVcom.zhihu.android
p1652
g534
sVcom.comingx.athit
p1653
g806
sg470
g1073
sVcom.android.browser
p1654
g136
sVcom.sina.weibo
p1655
g467
sVim.yixin
p1656
g206
sVcom.android.mms
p1657
g1149
sg756
g957
sVcom.qzone
p1658
g1207
sg439
g288
sVcom.dotamax.app
p1659
g1273
sVcom.android.launcher
p1660
g370
sVcom.android.phone
p1661
g647
sVcom.android.email
p1662
g1017
sVcom.tencent.mm
p1663
g909
sVcom.tencent.mobileqq
p1664
g765
ssg103
(dp1665
g39
g535
sg1080
g210
sg1076
g769
sVcom.renren.mobile.android
p1666
g835
sg523
g912
sg844
g261
sVcom.dotamax.app
p1667
g1275
sg505
g371
sg914
g1115
sVcom.sina.weibo
p1668
g471
ssg105
(dp1669
Vcom.tencent.mm
p1670
g911
sg1091
g469
sVcom.tencent.mobileqq
p1671
g767
sVcom.android.launcher
p1672
g372
sg1089
g537
ssg107
(dp1673
g1104
g771
sVcom.tencent.mm
p1674
g913
sVcom.android.launcher
p1675
g373
ssg109
(dp1676
Vcom.sina.weibo
p1677
g473
sVcom.tencent.mm
p1678
g915
sg1035
g217
sg1265
g947
sg1127
g991
sVcom.dotamax.app
p1679
g1277
sVcom.android.launcher
p1680
g374
sVcom.android.phone
p1681
g663
sg97
g1034
sVcom.tencent.mobileqq
p1682
g773
sVme.quqi
p1683
g799
ssg111
(dp1684
Vcom.android.browser
p1685
g149
sg1653
g812
sVcom.android.deskclock
p1686
g271
sVcom.android.launcher
p1687
g376
sVcom.hupu.games
p1688
g411
sVcom.sina.weibo
p1689
g475
sg725
g486
sVcom.zhihu.android
p1690
g541
sg1129
g616
sVcom.android.phone
p1691
g659
sVcom.meizu.media.gallery
p1692
g685
sVcom.tencent.mm
p1693
g916
sVme.quqi
p1694
g793
sVim.yixin
p1695
g219
sVcom.renren.mobile.android
p1696
g843
sVcom.kugou.android
p1697
g937
sVcom.android.email
p1698
g1023
sVcom.meizu.notepaper
p1699
g1058
sVcom.tencent.mobileqq
p1700
g774
sg115
g1196
sVcom.qzone
p1701
g1217
sVcom.dotamax.app
p1702
g1279
sVcom.android.settings
p1703
g1124
ssg113
(dp1704
Vcom.android.browser
p1705
g140
sVcom.immomo.momo
p1706
g1096
sVcom.tencent.mm
p1707
g917
sVcom.kugou.android
p1708
g939
sVcom.android.launcher
p1709
g377
sVcom.tencent.mobileqq
p1710
g776
ssg115
(dp1711
g1685
g154
sVcom.zhihu.android
p1712
g543
sVcom.tencent.mm
p1713
g875
sg148
g1163
sVcom.android.launcher
p1714
g378
sVcom.android.phone
p1715
g661
sg1692
g690
sg1698
g1025
sVcom.tencent.mobileqq
p1716
g777
ssg117
(dp1717
Vcom.kugou.android
p1718
g941
sVcom.zhihu.android
p1719
g545
sVcom.meizu.notepaper
p1720
g1061
sVim.yixin
p1721
g225
sg1208
g178
sg1595
g250
sg1300
g847
sg79
g919
sVcom.android.mms
p1722
g1165
sVcom.android.fileexplorer
p1723
g986
sVcom.android.video
p1724
g605
sVcom.dotamax.app
p1725
g1281
sg861
g379
sVcom.android.settings
p1726
g1138
sVcom.hupu.games
p1727
g415
sVcom.meizu.flyme.weather
p1728
g1297
sVcom.sina.weibo
p1729
g477
sVcom.android.phone
p1730
g667
sVcom.tencent.mobileqq
p1731
g779
ssg119
(dp1732
Vcom.zhihu.android
p1733
g547
sVcom.meizu.notepaper
p1734
g1063
sg1348
g1004
sVcom.android.browser
p1735
g160
sg521
g848
sVcom.sina.weibo
p1736
g478
sVim.yixin
p1737
g227
sVcom.kugou.android
p1738
g943
sVcom.android.mms
p1739
g1180
sVcom.tencent.android.qqdownloader
p1740
g180
sVcom.android.fileexplorer
p1741
g988
sVcom.qzone
p1742
g1221
sg1596
g298
sg1255
g629
sVcom.android.launcher
p1743
g381
sg455
g669
sg992
g392
sVcom.hupu.games
p1744
g417
sVcom.tencent.mm
p1745
g921
sg17
g252
sVcom.tencent.mobileqq
p1746
g781
ssg121
(dp1747
Vcom.tencent.mm
p1748
g922
sVcom.tencent.mobileqq
p1749
g782
sVcom.android.launcher
p1750
g382
ssg123
(dp1751
Vcom.zhihu.android
p1752
g549
sVcom.android.browser
p1753
g168
sVcom.tencent.mobileqq
p1754
g784
sVcom.sina.weibo
p1755
g479
sVcom.kugou.android
p1756
g952
sVcom.android.deskclock
p1757
g283
sVcom.android.launcher
p1758
g383
sVcom.tencent.mm
p1759
g924
sssb.