ccopy_reg
_reconstructor
p1
(cnetworkx.classes.digraph
DiGraph
p2
c__builtin__
object
p3
NtRp4
(dp5
S'node'
p6
(dp7
Vcom.android.browser
p8
(dp9
S'weight'
p10
F0.00030865389233511854
ssVcom.adobe.air
p11
(dp12
g10
F4.2378108787430463e-06
ssVcom.huawei.lcagent
p13
(dp14
g10
F0.0051035014676951681
ssVcom.kingsoft
p15
(dp16
g10
F0.0031051382044301134
ssVcom.baidu.lbs.waimai
p17
(dp18
g10
F0.00088311270034250927
ssVair.tv.douyu.android
p19
(dp20
g10
F0.0086333624957504167
ssVcom.wonder
p21
(dp22
g10
F0.00072890347114380402
ssVcom.qiyi.video
p23
(dp24
g10
F0.00092808058244472718
ssVcom.evernote
p25
(dp26
g10
F0.0011592767092739311
ssVcom.android.deskclock
p27
(dp28
g10
F0.0079294150220036563
ssVcom.UCMobile
p29
(dp30
g10
F0.14392076612086802
ssVcom.huawei.android.pushagent
p31
(dp32
g10
F2.7310336774121856e-05
ssVcom.taobao.taobao
p33
(dp34
g10
F0.0012962992610199564
ssVcom.huawei.android.internal.app
p35
(dp36
g10
F9.6527914460258275e-06
ssVcom.android.mediacenter
p37
(dp38
g10
F0.0014756999215534119
ssVcom.sina.weibo
p39
(dp40
g10
F0.0006542709128903848
ssVcom.android.contacts
p41
(dp42
g10
F0.020066269944786032
ssVcom.eg.android.AlipayGphone
p43
(dp44
g10
F0.0042114422777197562
ssVcom.huawei.android.totemweather
p45
(dp46
g10
F0.00080424233121034706
ssVcom.huawei.cloudwifi
p47
(dp48
g10
F1.0829961134565563e-05
ssVcom.huawei.android.thememanager
p49
(dp50
g10
F0.00055044454636118012
ssVcom.duowan.mobile
p51
(dp52
g10
F5.3208069921996025e-05
ssVcom.android.packageinstaller
p53
(dp54
g10
F0.00071972154757319402
ssVcom.sankuai.meituan
p55
(dp56
g10
F0.00011512719553918609
ssVcom.android.gallery3d
p57
(dp58
g10
F0.0036230928673875967
ssVcom.jingdong.app.mall
p59
(dp60
g10
F0.0014342635485168132
ssVcom.android.musicfx
p61
(dp62
g10
F1.5538639888724502e-05
ssVcom.huawei.hidisk
p63
(dp64
g10
F6.8040407997596692e-05
ssVcom.huawei.systemmanager
p65
(dp66
g10
F0.0011479758802639497
ssVcom.android.systemui
p67
(dp68
g10
F0.00027687031074454568
ssVcom.vmall.client
p69
(dp70
g10
F0.00031712951409260462
ssVcom.huawei.fans
p71
(dp72
g10
F8.9464896329019872e-05
ssVcom.tencent.mm
p73
(dp74
g10
F0.16477008934247067
ssVcom.android.settings
p75
(dp76
g10
F0.00082307704622698282
ssVim.yixin
p77
(dp78
g10
F0.00021565748694047949
ssVcom.netease.cloudmusic
p79
(dp80
g10
F0.016284023735507865
ssVcom.huawei.android.hwouc
p81
(dp82
g10
F8.0047538820701992e-05
ssVcom.huawei.phoneservice
p83
(dp84
g10
F1.8834715016635761e-06
ssVcom.android.phone
p85
(dp86
g10
F0.00067757887272347158
ssVcom.huawei.android.dsdscardmanager
p87
(dp88
g10
F2.8487506462661591e-05
ssVcom.huawei.android.launcher
p89
(dp90
g10
F0.49275310796341171
ssVcn.wps.moffice_i18n
p91
(dp92
g10
F2.9900110088909273e-05
ssVcom.huawei.camera
p93
(dp94
g10
F0.00078964542707245428
ssVcom.baidu.BaiduMap
p95
(dp96
g10
F0.0015988318709746682
ssVcom.android.email
p97
(dp98
g10
F0.0017499804589831702
ssVcom.huawei.gamebox
p99
(dp100
g10
F8.4756217574860926e-06
ssVcom.rrh.jdb
p101
(dp102
g10
F0.00032183819284676359
ssVcom.huawei.hwvplayer
p103
(dp104
g10
F4.7086787541589403e-07
ssVcom.huawei.vassistant
p105
(dp106
g10
F3.1312713715156956e-05
ssVcom.machipopo.story17
p107
(dp108
g10
F0.0008795811912768901
ssVcom.android.calendar
p109
(dp110
g10
F0.0010869984903975915
ssVcom.tencent.mobileqq
p111
(dp112
g10
F0.067038401158711666
ssVcom.baidu.input_huawei
p113
(dp114
g10
F3.2725317341404635e-05
ssVcom.example.android.notepad
p115
(dp116
g10
F0.002096774649226976
ssVcom.huawei.hwid
p117
(dp118
g10
F1.2948866573937087e-05
ssVcom.android.keyguard
p119
(dp120
g10
F1.6480375639556293e-06
ssVcom.chaozh.iReaderFree15
p121
(dp122
g10
F0.0010241376290295696
ssVcom.dotamax.app
p123
(dp124
g10
F0.032822786991615727
ssVcom.huawei.appmarket
p125
(dp126
g10
F0.0011891768193628405
ssVcom.iyuba.toelflistening
p127
(dp128
g10
F0.00040353376923142121
ssVcom.android.calculator2
p129
(dp130
g10
F0.0028150835931739226
ssVcn.coupon.kfc
p131
(dp132
g10
F0.00076045161879666884
sssS'graph'
p133
(dp134
sS'succ'
p135
(dp136
g8
(dp137
Vcom.machipopo.story17
p138
(dp139
g10
F1.3999999999999999
ssVcom.huawei.android.thememanager
p140
(dp141
g10
F0.90000000000000002
ssVcom.huawei.appmarket
p142
(dp143
g10
F0.40000000000000002
ssVcom.UCMobile
p144
(dp145
g10
F6.3000000000000007
ssVcom.huawei.android.launcher
p146
(dp147
g10
F20.399999999999995
ssVcom.dotamax.app
p148
(dp149
g10
F0.40000000000000002
ssVcom.android.systemui
p150
(dp151
g10
F2
ssVcom.android.email
p152
(dp153
g10
F10.1
ssVcom.tencent.mm
p154
(dp155
g10
F5.1000000000000005
ssVcom.android.contacts
p156
(dp157
g10
F0.69999999999999996
sssg11
(dp158
Vcom.UCMobile
p159
(dp160
g10
F0.69999999999999996
ssVcom.android.settings
p161
(dp162
g10
F0.40000000000000002
ssVcom.huawei.android.launcher
p163
(dp164
g10
F2.3999999999999999
ssVcom.android.systemui
p165
(dp166
g10
F1.8
sssg13
(dp167
Vcom.android.deskclock
p168
(dp169
g10
I1
ssVcom.tencent.mobileqq
p170
(dp171
g10
F0.69999999999999996
ssVcom.huawei.android.launcher
p172
(dp173
g10
F1.3
ssVcom.android.contacts
p174
(dp175
g10
I1
sssg15
(dp176
Vcom.baidu.input_huawei
p177
(dp178
g10
I1
ssg115
(dp179
g10
F0.90000000000000002
ssVcom.android.deskclock
p180
(dp181
g10
I1
ssVcom.huawei.android.launcher
p182
(dp183
g10
F8.0999999999999996
ssVcom.tencent.mm
p184
(dp185
g10
F1.3
ssVcom.android.contacts
p186
(dp187
g10
I1
sssg17
(dp188
Vcom.tencent.mobileqq
p189
(dp190
g10
F0.90000000000000002
ssVcom.android.packageinstaller
p191
(dp192
g10
I1
ssVcom.huawei.systemmanager
p193
(dp194
g10
F0.90000000000000002
ssVcom.huawei.android.launcher
p195
(dp196
g10
F16.199999999999999
ssVcom.android.systemui
p197
(dp198
g10
F1.3
ssVcom.tencent.mm
p199
(dp200
g10
F2.8999999999999999
ssVcom.android.contacts
p201
(dp202
g10
F5.4000000000000004
sssg19
(dp203
Vcom.tencent.mobileqq
p204
(dp205
g10
F2.6999999999999997
ssVcom.huawei.appmarket
p206
(dp207
g10
F1.7
ssVcom.UCMobile
p208
(dp209
g10
F1.3
ssVcom.huawei.systemmanager
p210
(dp211
g10
I1
ssVcom.huawei.android.launcher
p212
(dp213
g10
F19.699999999999999
ssVcom.dotamax.app
p214
(dp215
g10
F0.40000000000000002
ssVcom.android.systemui
p216
(dp217
g10
F4.7000000000000002
ssVcom.tencent.mm
p218
(dp219
g10
F4.7999999999999998
ssVcom.android.contacts
p220
(dp221
g10
F1.3
sssg21
(dp222
Vcom.huawei.android.thememanager
p223
(dp224
g10
F0.90000000000000002
ssVcom.tencent.mm
p225
(dp226
g10
F2.7000000000000002
ssVcom.huawei.android.launcher
p227
(dp228
g10
F6.2999999999999998
ssVcom.huawei.camera
p229
(dp230
g10
F0.40000000000000002
ssVcom.huawei.appmarket
p231
(dp232
g10
I1
sssg23
(dp233
Vcom.android.deskclock
p234
(dp235
g10
F0.90000000000000002
ssVcom.tencent.mm
p236
(dp237
g10
F0.90000000000000002
ssVcom.huawei.android.launcher
p238
(dp239
g10
F2.7999999999999998
ssVcom.eg.android.AlipayGphone
p240
(dp241
g10
F1.7
ssVcom.android.systemui
p242
(dp243
g10
F0.90000000000000002
sssg25
(dp244
Vcom.android.deskclock
p245
(dp246
g10
F1.3999999999999999
ssVcom.UCMobile
p247
(dp248
g10
F2
ssVcom.huawei.android.launcher
p249
(dp250
g10
F14.599999999999998
ssVcom.android.systemui
p251
(dp252
g10
F4
ssVcom.tencent.mm
p253
(dp254
g10
F1.8
ssVcom.eg.android.AlipayGphone
p255
(dp256
g10
F0.69999999999999996
sssg27
(dp257
Vcom.dotamax.app
p258
(dp259
g10
F5.5
ssVcom.huawei.lcagent
p260
(dp261
g10
F3.7000000000000002
ssVcom.netease.cloudmusic
p262
(dp263
g10
I1
ssg109
(dp264
g10
F0.90000000000000002
ssVcom.android.settings
p265
(dp266
g10
F0.90000000000000002
ssVcom.android.gallery3d
p267
(dp268
g10
F0.69999999999999996
ssVcom.baidu.BaiduMap
p269
(dp270
g10
I1
ssVcom.taobao.taobao
p271
(dp272
g10
F0.90000000000000002
ssVcom.UCMobile
p273
(dp274
g10
F12.700000000000003
ssg65
(dp275
g10
F2.5
ssVcom.huawei.android.launcher
p276
(dp277
g10
F72.000000000000014
ssVcom.example.android.notepad
p278
(dp279
g10
F0.90000000000000002
ssVcom.kingsoft
p280
(dp281
g10
I1
ssVcom.android.systemui
p282
(dp283
g10
F1.1000000000000001
ssVcom.qiyi.video
p284
(dp285
g10
I1
ssVcom.android.email
p286
(dp287
g10
F1.3
ssVcom.tencent.mm
p288
(dp289
g10
F24.79999999999999
ssVcom.android.contacts
p290
(dp291
g10
F3
ssVcom.tencent.mobileqq
p292
(dp293
g10
F1.6000000000000001
sssg29
(dp294
g8
(dp295
g10
F7.2000000000000002
ssg11
(dp296
g10
F0.40000000000000002
ssg121
(dp297
g10
F1.3
ssVim.yixin
p298
(dp299
g10
F1.3
ssVcn.wps.moffice_i18n
p300
(dp301
g10
F0.69999999999999996
ssg25
(dp302
g10
F3.6000000000000001
ssg27
(dp303
g10
F21.099999999999998
ssVcom.machipopo.story17
p304
(dp305
g10
F1.3
ssVcom.huawei.android.pushagent
p306
(dp307
g10
I1
ssVcom.android.mediacenter
p308
(dp309
g10
F1.8
ssVcom.sina.weibo
p310
(dp311
g10
F0.90000000000000002
ssVcom.android.contacts
p312
(dp313
g10
F25.399999999999984
ssVcom.eg.android.AlipayGphone
p314
(dp315
g10
F6.8000000000000007
ssg53
(dp316
g10
I4
ssVcom.android.gallery3d
p317
(dp318
g10
F7.7000000000000011
ssg59
(dp319
g10
F2.2000000000000002
ssg33
(dp320
g10
F2.6000000000000001
ssg65
(dp321
g10
F16.100000000000001
ssg251
(dp322
g10
F31.199999999999982
ssVcom.vmall.client
p323
(dp324
g10
F2.2000000000000002
ssg111
(dp325
g10
F38.09999999999998
ssVcom.android.phone
p326
(dp327
g10
F0.69999999999999996
ssg75
(dp328
g10
F23.799999999999994
ssg79
(dp329
g10
F4.9000000000000004
ssg81
(dp330
g10
I1
ssVcom.tencent.mm
p331
(dp332
g10
F130.5000000000002
ssVcom.huawei.android.launcher
p333
(dp334
g10
F507.79999999999859
ssVcom.huawei.camera
p335
(dp336
g10
F12.600000000000003
ssg19
(dp337
g10
F2.8999999999999999
ssVcom.android.email
p338
(dp339
g10
F11.600000000000003
ssVcom.rrh.jdb
p340
(dp341
g10
F1.8999999999999999
ssVcom.huawei.vassistant
p342
(dp343
g10
I2
ssVcom.android.calendar
p344
(dp345
g10
F1.8999999999999999
ssVcom.huawei.android.totemweather
p346
(dp347
g10
F2.2000000000000002
ssVcom.baidu.BaiduMap
p348
(dp349
g10
F3.3999999999999999
ssVcom.example.android.notepad
p350
(dp351
g10
F2.7000000000000002
ssVcom.huawei.hwid
p352
(dp353
g10
F3
ssVcom.dotamax.app
p354
(dp355
g10
F34.499999999999979
ssVcom.huawei.appmarket
p356
(dp357
g10
F9.4000000000000021
sssg31
(dp358
g69
(dp359
g10
F1.3
ssVcom.huawei.hwid
p360
(dp361
g10
F0.69999999999999996
ssVcom.huawei.android.launcher
p362
(dp363
g10
I1
sssg33
(dp364
Vcom.android.browser
p365
(dp366
g10
F0.90000000000000002
ssVcom.jingdong.app.mall
p367
(dp368
g10
F0.40000000000000002
ssVcom.huawei.android.launcher
p369
(dp370
g10
F22.899999999999995
ssVcom.dotamax.app
p371
(dp372
g10
I1
ssVcom.huawei.camera
p373
(dp374
g10
I1
ssVcom.android.systemui
p375
(dp376
g10
F10.200000000000003
ssVcom.tencent.mm
p377
(dp378
g10
F2.0999999999999996
ssVcom.android.contacts
p379
(dp380
g10
F0.69999999999999996
sssg35
(dp381
Vcom.huawei.android.launcher
p382
(dp383
g10
F3.2999999999999998
ssVcom.huawei.hidisk
p384
(dp385
g10
F0.90000000000000002
ssVcom.android.gallery3d
p386
(dp387
g10
F1.6000000000000001
ssVcom.tencent.mm
p388
(dp389
g10
F5.7000000000000002
ssg91
(dp390
g10
F0.90000000000000002
sssg37
(dp391
Vcom.netease.cloudmusic
p392
(dp393
g10
F4
ssVcom.UCMobile
p394
(dp395
g10
F2.5
ssVcom.android.settings
p396
(dp397
g10
F0.40000000000000002
ssVcom.android.musicfx
p398
(dp399
g10
F1.7
ssg27
(dp400
g10
F0.90000000000000002
ssg117
(dp401
g10
F5.7000000000000002
ssVcom.huawei.android.launcher
p402
(dp403
g10
F32.999999999999993
ssVcom.taobao.taobao
p404
(dp405
g10
F0.69999999999999996
ssVcom.android.systemui
p406
(dp407
g10
F6.7000000000000011
ssVcom.iyuba.toelflistening
p408
(dp409
g10
I1
ssVcom.android.email
p410
(dp411
g10
F0.40000000000000002
ssVcom.tencent.mm
p412
(dp413
g10
F5.8000000000000007
ssVcom.android.contacts
p414
(dp415
g10
F2.2999999999999998
ssVcom.tencent.mobileqq
p416
(dp417
g10
I1
sssg39
(dp418
Vcom.android.deskclock
p419
(dp420
g10
F0.40000000000000002
ssVcom.tencent.mm
p421
(dp422
g10
F0.69999999999999996
ssVcom.huawei.systemmanager
p423
(dp424
g10
I1
ssVcom.huawei.android.launcher
p425
(dp426
g10
F6.2999999999999998
ssVcom.android.systemui
p427
(dp428
g10
F1.8
sssg41
(dp429
Vcom.android.browser
p430
(dp431
g10
F2.7000000000000002
ssVcom.huawei.lcagent
p432
(dp433
g10
I1
ssVcom.evernote
p434
(dp435
g10
F1.7000000000000002
ssVcom.android.deskclock
p436
(dp437
g10
F2.2999999999999998
ssVcom.UCMobile
p438
(dp439
g10
F9.7000000000000011
ssVcom.android.mediacenter
p440
(dp441
g10
F1.8999999999999999
ssVcom.eg.android.AlipayGphone
p442
(dp443
g10
F3.6000000000000001
ssVcom.huawei.android.thememanager
p444
(dp445
g10
F1.7000000000000002
ssVcom.android.gallery3d
p446
(dp447
g10
F1.3999999999999999
ssVcom.jingdong.app.mall
p448
(dp449
g10
F0.40000000000000002
ssVcom.taobao.taobao
p450
(dp451
g10
F0.40000000000000002
ssVcom.huawei.systemmanager
p452
(dp453
g10
F3.7000000000000002
ssVcom.android.systemui
p454
(dp455
g10
F6.7000000000000011
ssVcom.tencent.mobileqq
p456
(dp457
g10
F15.200000000000003
ssVcom.android.phone
p458
(dp459
g10
F6.2999999999999998
ssVcom.android.calculator2
p460
(dp461
g10
I1
ssVcom.netease.cloudmusic
p462
(dp463
g10
F5.2999999999999998
ssVcom.baidu.lbs.waimai
p464
(dp465
g10
F2.7000000000000002
ssVcom.huawei.android.dsdscardmanager
p466
(dp467
g10
F2.7000000000000002
ssVcom.huawei.android.launcher
p468
(dp469
g10
F253.09999999999977
ssVcom.huawei.camera
p470
(dp471
g10
F5.4000000000000004
ssVcom.android.email
p472
(dp473
g10
F4.6000000000000005
ssVcom.kingsoft
p474
(dp475
g10
I1
ssg109
(dp476
g10
F2.6000000000000001
ssVcom.tencent.mm
p477
(dp478
g10
F83.700000000000045
ssVcom.baidu.BaiduMap
p479
(dp480
g10
F2.7000000000000002
ssVcom.huawei.hwid
p481
(dp482
g10
F0.69999999999999996
ssVcom.dotamax.app
p483
(dp484
g10
F3.1999999999999997
ssg396
(dp485
g10
F2.8000000000000003
sssg43
(dp486
g103
(dp487
g10
F0.40000000000000002
ssVcom.huawei.vassistant
p488
(dp489
g10
I1
ssVcom.huawei.hwid
p490
(dp491
g10
F0.69999999999999996
ssVcom.tencent.mobileqq
p492
(dp493
g10
F5.2000000000000002
ssVcom.android.packageinstaller
p494
(dp495
g10
F1.7
ssVcom.huawei.appmarket
p496
(dp497
g10
F4.2999999999999998
ssg386
(dp498
g10
F0.40000000000000002
ssVcom.baidu.BaiduMap
p499
(dp500
g10
F0.90000000000000002
ssVcom.evernote
p501
(dp502
g10
F0.90000000000000002
ssVcom.UCMobile
p503
(dp504
g10
F4.7999999999999998
ssVcom.huawei.android.launcher
p505
(dp506
g10
F64.900000000000006
ssVcom.dotamax.app
p507
(dp508
g10
F0.40000000000000002
ssVcom.android.systemui
p509
(dp510
g10
F21.099999999999998
ssVcom.huawei.android.internal.app
p511
(dp512
g10
I2
ssVcom.tencent.mm
p513
(dp514
g10
F14.600000000000001
ssVcom.android.contacts
p515
(dp516
g10
F1.3999999999999999
ssVcom.android.settings
p517
(dp518
g10
I3
sssg45
(dp519
Vcom.huawei.gamebox
p520
(dp521
g10
F0.69999999999999996
ssVcom.android.calendar
p522
(dp523
g10
F0.90000000000000002
ssVcom.tencent.mobileqq
p524
(dp525
g10
F0.40000000000000002
ssVcom.huawei.appmarket
p526
(dp527
g10
F0.40000000000000002
ssVcom.android.deskclock
p528
(dp529
g10
F3.1000000000000001
ssVcom.huawei.hwid
p530
(dp531
g10
F0.40000000000000002
ssVcom.huawei.android.launcher
p532
(dp533
g10
F23.699999999999996
ssVcom.dotamax.app
p534
(dp535
g10
F0.90000000000000002
ssVcom.android.systemui
p536
(dp537
g10
F2.6000000000000001
ssVcom.tencent.mm
p538
(dp539
g10
F5.7000000000000002
sssg47
(dp540
Vcom.UCMobile
p541
(dp542
g10
F0.90000000000000002
ssVcom.huawei.android.launcher
p543
(dp544
g10
I1
ssVcom.android.settings
p545
(dp546
g10
F0.69999999999999996
sssg49
(dp547
Vcom.android.browser
p548
(dp549
g10
F0.40000000000000002
ssVcom.huawei.hwid
p550
(dp551
g10
F2.1000000000000001
ssg522
(dp552
g10
F0.40000000000000002
ssVcom.android.gallery3d
p553
(dp554
g10
F2.0999999999999996
ssg53
(dp555
g10
F0.69999999999999996
ssVcom.android.systemui
p556
(dp557
g10
F0.90000000000000002
ssVcom.huawei.android.dsdscardmanager
p558
(dp559
g10
I1
ssVcom.android.deskclock
p560
(dp561
g10
F0.90000000000000002
ssVcom.UCMobile
p562
(dp563
g10
F0.90000000000000002
ssg89
(dp564
g10
F13
ssg229
(dp565
g10
F3.8999999999999999
ssVcom.huawei.android.totemweather
p566
(dp567
g10
F1.3
ssVcom.huawei.fans
p568
(dp569
g10
F0.69999999999999996
ssg73
(dp570
g10
F2
sssg51
(dp571
Vcom.huawei.android.launcher
p572
(dp573
g10
F0.40000000000000002
ssVcom.huawei.hwid
p574
(dp575
g10
F0.90000000000000002
ssVcom.tencent.mm
p576
(dp577
g10
F0.69999999999999996
ssVcom.huawei.appmarket
p578
(dp579
g10
I1
sssg53
(dp580
g548
(dp581
g10
I1
ssVcom.tencent.mm
p582
(dp583
g10
F1.8999999999999999
ssVcom.huawei.android.launcher
p584
(dp585
g10
F4.4000000000000004
ssVcom.baidu.lbs.waimai
p586
(dp587
g10
F0.40000000000000002
ssVcom.UCMobile
p588
(dp589
g10
F0.90000000000000002
sssg55
(dp590
Vcom.huawei.android.launcher
p591
(dp592
g10
F2.7000000000000002
ssVcom.android.systemui
p593
(dp594
g10
F1.3
sssg57
(dp595
Vcom.wonder
p596
(dp597
g10
F1.3
ssVcom.tencent.mobileqq
p598
(dp599
g10
F12.300000000000002
ssVcom.baidu.input_huawei
p600
(dp601
g10
F0.69999999999999996
ssVcom.UCMobile
p602
(dp603
g10
I1
ssVcom.huawei.android.launcher
p604
(dp605
g10
F68.700000000000003
ssVcom.dotamax.app
p606
(dp607
g10
F2.7000000000000002
ssVcom.huawei.camera
p608
(dp609
g10
F61.600000000000023
ssVcom.android.systemui
p610
(dp611
g10
F0.40000000000000002
ssVcom.android.mediacenter
p612
(dp613
g10
F0.69999999999999996
ssVcom.tencent.mm
p614
(dp615
g10
F26.099999999999991
ssVcom.android.contacts
p616
(dp617
g10
F3.8999999999999999
ssVcom.eg.android.AlipayGphone
p618
(dp619
g10
F0.90000000000000002
sssg59
(dp620
Vcom.huawei.android.launcher
p621
(dp622
g10
F7.8000000000000007
ssVcom.tencent.mm
p623
(dp624
g10
F4.5999999999999996
ssVcom.android.systemui
p625
(dp626
g10
F3.7999999999999998
sssg61
(dp627
Vcom.android.mediacenter
p628
(dp629
g10
F1.8
ssVcom.huawei.android.launcher
p630
(dp631
g10
F3
ssVcom.netease.cloudmusic
p632
(dp633
g10
F3.5
sssg63
(dp634
g49
(dp635
g10
F0.90000000000000002
ssVcom.tencent.mobileqq
p636
(dp637
g10
F0.69999999999999996
ssVair.tv.douyu.android
p638
(dp639
g10
F0.40000000000000002
ssg87
(dp640
g10
F1.7
ssVcom.taobao.taobao
p641
(dp642
g10
F0.69999999999999996
ssVcom.android.calendar
p643
(dp644
g10
F0.90000000000000002
ssg89
(dp645
g10
F6.5000000000000009
ssVcom.dotamax.app
p646
(dp647
g10
F2.2000000000000002
ssg67
(dp648
g10
F1.8
ssg35
(dp649
g10
F2.3999999999999999
ssg388
(dp650
g10
F0.90000000000000002
sssg65
(dp651
Vcom.huawei.android.dsdscardmanager
p652
(dp653
g10
I1
ssVcom.UCMobile
p654
(dp655
g10
F7.8000000000000007
ssVcom.android.settings
p656
(dp657
g10
F6
ssVcom.android.systemui
p658
(dp659
g10
F1.7000000000000002
ssg317
(dp660
g10
F1.1000000000000001
ssVcom.taobao.taobao
p661
(dp662
g10
F0.69999999999999996
ssVcom.huawei.hidisk
p663
(dp664
g10
F1.8
ssVcom.huawei.android.launcher
p665
(dp666
g10
F44.999999999999993
ssg354
(dp667
g10
F3
ssVcom.huawei.camera
p668
(dp669
g10
F1.3
ssg356
(dp670
g10
F1.3
ssVcom.qiyi.video
p671
(dp672
g10
F0.69999999999999996
ssVcom.tencent.mm
p673
(dp674
g10
F14.800000000000002
ssVcom.tencent.mobileqq
p675
(dp676
g10
F7.5000000000000009
sssg67
(dp677
Vcom.android.browser
p678
(dp679
g10
F0.90000000000000002
ssVcom.adobe.air
p680
(dp681
g10
I1
ssVcom.huawei.android.totemweather
p682
(dp683
g10
F0.90000000000000002
ssVcom.android.deskclock
p684
(dp685
g10
F3.3999999999999999
ssg503
(dp686
g10
F24.099999999999991
ssVcom.android.mediacenter
p687
(dp688
g10
F2.2999999999999998
ssVcom.android.contacts
p689
(dp690
g10
F4.4000000000000004
ssVcom.eg.android.AlipayGphone
p691
(dp692
g10
F4.7999999999999998
ssVcom.android.gallery3d
p693
(dp694
g10
F1.8
ssg367
(dp695
g10
F0.90000000000000002
ssVcom.taobao.taobao
p696
(dp697
g10
F1.7
ssVcom.huawei.hidisk
p698
(dp699
g10
F1.8
ssVcom.huawei.systemmanager
p700
(dp701
g10
F1.3999999999999999
ssg568
(dp702
g10
F1.7
ssVcom.tencent.mm
p703
(dp704
g10
F33.999999999999993
ssVcom.netease.cloudmusic
p705
(dp706
g10
F1.8999999999999999
ssVcom.huawei.android.hwouc
p707
(dp708
g10
F1.3999999999999999
ssg83
(dp709
g10
F0.69999999999999996
ssVcom.evernote
p710
(dp711
g10
F0.69999999999999996
ssVcom.huawei.android.launcher
p712
(dp713
g10
F146.40000000000018
ssVair.tv.douyu.android
p714
(dp715
g10
F2.7000000000000002
ssg338
(dp716
g10
F1.8999999999999999
ssVcom.tencent.mobileqq
p717
(dp718
g10
F19.5
ssg103
(dp719
g10
F1.3
ssg520
(dp720
g10
F1.7
ssg161
(dp721
g10
F8.2000000000000011
ssVcom.huawei.hwid
p722
(dp723
g10
F3.5999999999999996
ssVcom.dotamax.app
p724
(dp725
g10
F11.9
ssVcom.huawei.appmarket
p726
(dp727
g10
F4.6000000000000005
sssg69
(dp728
g360
(dp729
g10
I1
ssVcom.tencent.mm
p730
(dp731
g10
F0.69999999999999996
ssVcom.huawei.android.launcher
p732
(dp733
g10
F3.7000000000000002
ssVcom.android.systemui
p734
(dp735
g10
F1.3
sssg71
(dp736
Vcom.huawei.hwid
p737
(dp738
g10
I1
ssVcom.huawei.android.launcher
p739
(dp740
g10
F3.0999999999999996
ssVcom.huawei.android.totemweather
p741
(dp742
g10
F1.7000000000000002
ssVcom.tencent.mm
p743
(dp744
g10
F1.3
ssVcom.huawei.appmarket
p745
(dp746
g10
I1
sssg73
(dp747
Vcom.android.browser
p748
(dp749
g10
F2.7999999999999998
ssg13
(dp750
g10
I2
ssg121
(dp751
g10
F1.3
ssg596
(dp752
g10
F5.0999999999999996
ssg671
(dp753
g10
F1.3
ssVcom.evernote
p754
(dp755
g10
F0.80000000000000004
ssg436
(dp756
g10
F14.1
ssg29
(dp757
g10
F164.80000000000049
ssg51
(dp758
g10
F0.90000000000000002
ssg33
(dp759
g10
F5.1000000000000005
ssg35
(dp760
g10
F6
ssVcom.android.mediacenter
p761
(dp762
g10
F7.7000000000000011
ssg310
(dp763
g10
F0.40000000000000002
ssVcom.android.contacts
p764
(dp765
g10
F77.200000000000017
ssg43
(dp766
g10
F22.499999999999996
ssg444
(dp767
g10
F1.8
ssVcom.android.packageinstaller
p768
(dp769
g10
F2.6000000000000001
ssVcom.android.gallery3d
p770
(dp771
g10
F28.399999999999988
ssg59
(dp772
g10
F5.5
ssg61
(dp773
g10
F0.69999999999999996
ssg663
(dp774
g10
F4.1000000000000005
ssVcom.huawei.systemmanager
p775
(dp776
g10
F13.5
ssg610
(dp777
g10
F58.699999999999953
ssg71
(dp778
g10
F0.40000000000000002
ssg111
(dp779
g10
F153.20000000000041
ssVcom.android.settings
p780
(dp781
g10
F12.800000000000001
ssg344
(dp782
g10
F3.7999999999999998
ssg79
(dp783
g10
F7.8000000000000016
ssVcom.huawei.android.hwouc
p784
(dp785
g10
F1.3999999999999999
ssg83
(dp786
g10
F0.90000000000000002
ssg17
(dp787
g10
F1.3
ssVcom.huawei.android.launcher
p788
(dp789
g10
F1026.3000000000034
ssVcom.huawei.camera
p790
(dp791
g10
F11.700000000000003
ssVair.tv.douyu.android
p792
(dp793
g10
F1.3999999999999999
ssVcom.android.email
p794
(dp795
g10
F5.6000000000000005
ssg99
(dp796
g10
F1.7000000000000002
ssVcom.rrh.jdb
p797
(dp798
g10
F0.90000000000000002
ssVcom.kingsoft
p799
(dp800
g10
F1.3
ssg105
(dp801
g10
I5
ssg113
(dp802
g10
F2.3999999999999999
ssVcom.huawei.android.totemweather
p803
(dp804
g10
F6.0000000000000009
ssVcom.baidu.BaiduMap
p805
(dp806
g10
F2.7000000000000002
ssVcom.example.android.notepad
p807
(dp808
g10
F3.8999999999999999
ssVcom.huawei.hwid
p809
(dp810
g10
F5.6000000000000005
ssVcom.dotamax.app
p811
(dp812
g10
F39.099999999999952
ssg125
(dp813
g10
F10.1
sssg75
(dp814
Vcom.android.browser
p815
(dp816
g10
I1
ssg11
(dp817
g10
F0.69999999999999996
ssVcom.huawei.hwid
p818
(dp819
g10
F0.69999999999999996
ssVcom.huawei.android.thememanager
p820
(dp821
g10
F0.90000000000000002
ssVcom.tencent.mobileqq
p822
(dp823
g10
F1.7
ssVcom.android.systemui
p824
(dp825
g10
F2.3999999999999999
ssVcom.baidu.BaiduMap
p826
(dp827
g10
I4
ssg661
(dp828
g10
F1.3
ssVcom.UCMobile
p829
(dp830
g10
F15.400000000000002
ssVcom.huawei.systemmanager
p831
(dp832
g10
F8.1999999999999993
ssVcom.android.phone
p833
(dp834
g10
F0.69999999999999996
ssVcom.huawei.android.launcher
p835
(dp836
g10
F45.099999999999994
ssg811
(dp837
g10
F2.5
ssg356
(dp838
g10
F1.8
ssg707
(dp839
g10
F3.3999999999999999
ssVcom.tencent.mm
p840
(dp841
g10
F10.600000000000001
ssVcom.android.contacts
p842
(dp843
g10
F2
ssVcom.eg.android.AlipayGphone
p844
(dp845
g10
I2
sssg77
(dp846
Vcom.UCMobile
p847
(dp848
g10
F1.3
ssVcom.huawei.android.launcher
p849
(dp850
g10
F5.1000000000000005
ssVcom.android.contacts
p851
(dp852
g10
F0.90000000000000002
ssVcom.android.systemui
p853
(dp854
g10
F0.40000000000000002
sssg79
(dp855
g394
(dp856
g10
F3.3999999999999999
ssVcom.huawei.android.thememanager
p857
(dp858
g10
F0.90000000000000002
ssVcom.android.settings
p859
(dp860
g10
F0.90000000000000002
ssVcom.huawei.appmarket
p861
(dp862
g10
F1.3
ssVcom.android.gallery3d
p863
(dp864
g10
F1.6000000000000001
ssg61
(dp865
g10
F2.3999999999999999
ssVcom.android.deskclock
p866
(dp867
g10
F2.8999999999999999
ssg117
(dp868
g10
F1.3999999999999999
ssVcom.huawei.systemmanager
p869
(dp870
g10
F0.40000000000000002
ssg630
(dp871
g10
F45.299999999999997
ssVcom.huawei.camera
p872
(dp873
g10
F2.9999999999999996
ssVcom.android.systemui
p874
(dp875
g10
F4.2999999999999998
ssg37
(dp876
g10
F3.8000000000000003
ssVcom.android.email
p877
(dp878
g10
I1
ssVcom.tencent.mm
p879
(dp880
g10
F11.700000000000003
ssVcom.android.contacts
p881
(dp882
g10
F6.1000000000000005
sssg81
(dp883
Vcom.android.settings
p884
(dp885
g10
F4.2999999999999998
ssVcom.huawei.android.launcher
p886
(dp887
g10
I2
ssVcom.android.systemui
p888
(dp889
g10
F0.90000000000000002
sssg83
(dp890
Vcom.huawei.appmarket
p891
(dp892
g10
F0.40000000000000002
ssVcom.huawei.android.launcher
p893
(dp894
g10
F1.7
ssVcom.android.systemui
p895
(dp896
g10
F0.90000000000000002
sssg85
(dp897
Vcom.UCMobile
p898
(dp899
g10
F1.3999999999999999
ssVcom.tencent.mm
p900
(dp901
g10
F2.7999999999999998
ssVcom.huawei.android.launcher
p902
(dp903
g10
F14.200000000000005
ssVcom.android.contacts
p904
(dp905
g10
F30.399999999999999
ssg454
(dp906
g10
F0.69999999999999996
sssg87
(dp907
Vcom.netease.cloudmusic
p908
(dp909
g10
F0.40000000000000002
ssVcom.huawei.android.hwouc
p910
(dp911
g10
F0.90000000000000002
ssg49
(dp912
g10
F2.2999999999999998
ssVcom.android.settings
p913
(dp914
g10
F0.90000000000000002
ssg560
(dp915
g10
F0.40000000000000002
ssVcom.huawei.systemmanager
p916
(dp917
g10
I1
ssg89
(dp918
g10
F14.599999999999998
ssg888
(dp919
g10
F1.7000000000000002
ssg73
(dp920
g10
F1.3
ssVcom.android.contacts
p921
(dp922
g10
F3.1999999999999997
ssVcom.eg.android.AlipayGphone
p923
(dp924
g10
F0.90000000000000002
sssg89
(dp925
g8
(dp926
g10
F21.899999999999988
ssg11
(dp927
g10
F1.8
ssg432
(dp928
g10
F2.7999999999999998
ssg15
(dp929
g10
F5.4000000000000004
ssg47
(dp930
g10
I1
ssg19
(dp931
g10
F16.5
ssg596
(dp932
g10
F4.4000000000000004
ssg23
(dp933
g10
F3.2999999999999998
ssg25
(dp934
g10
F10.5
ssg27
(dp935
g10
F127.60000000000008
ssg29
(dp936
g10
F370.09999999999889
ssg31
(dp937
g10
I1
ssg33
(dp938
g10
F19.899999999999999
ssg35
(dp939
g10
F6.2000000000000011
ssg37
(dp940
g10
F28.699999999999999
ssg39
(dp941
g10
F6.7999999999999998
ssg41
(dp942
g10
F231.39999999999986
ssg43
(dp943
g10
F59.20000000000001
ssVcom.huawei.android.totemweather
p944
(dp945
g10
F21.599999999999998
ssg820
(dp946
g10
F15.199999999999999
ssVcom.duowan.mobile
p947
(dp948
g10
I1
ssg53
(dp949
g10
F5.2000000000000002
ssVcom.sankuai.meituan
p950
(dp951
g10
I1
ssg57
(dp952
g10
F76
ssg59
(dp953
g10
F12.5
ssg61
(dp954
g10
F3.1000000000000001
ssVcom.huawei.hidisk
p955
(dp956
g10
F12.6
ssg65
(dp957
g10
F36.199999999999989
ssg67
(dp958
g10
F284.39999999999952
ssg69
(dp959
g10
F6.1000000000000005
ssg568
(dp960
g10
F1.7000000000000002
ssg111
(dp961
g10
F335.89999999999901
ssVcom.android.phone
p962
(dp963
g10
F5.7000000000000011
ssg75
(dp964
g10
F57.499999999999993
ssg298
(dp965
g10
F2.7000000000000002
ssg79
(dp966
g10
F33.599999999999994
ssg910
(dp967
g10
F4.0999999999999996
ssg83
(dp968
g10
F1.3999999999999999
ssg17
(dp969
g10
F12.199999999999999
ssg466
(dp970
g10
F1.3
ssg91
(dp971
g10
F2.6999999999999997
ssg93
(dp972
g10
F68.000000000000043
ssg95
(dp973
g10
F17.600000000000001
ssg794
(dp974
g10
F36.599999999999994
ssVcom.huawei.vassistant
p975
(dp976
g10
I2
ssg797
(dp977
g10
I2
ssg103
(dp978
g10
F3.3999999999999999
ssg99
(dp979
g10
F4.0999999999999996
ssg304
(dp980
g10
F4.4000000000000004
ssg109
(dp981
g10
F19.799999999999997
ssg73
(dp982
g10
F928.800000000002
ssg113
(dp983
g10
F6.1000000000000005
ssg115
(dp984
g10
F24.599999999999998
ssg117
(dp985
g10
F29.799999999999979
ssVcom.android.keyguard
p986
(dp987
g10
I1
ssg121
(dp988
g10
F3.3999999999999999
ssg123
(dp989
g10
F154.19999999999999
ssg125
(dp990
g10
F54.600000000000023
ssg127
(dp991
g10
I1
ssVcom.android.calculator2
p992
(dp993
g10
I3
sssg91
(dp994
Vcom.huawei.android.launcher
p995
(dp996
g10
F1.3
ssVcom.tencent.mobileqq
p997
(dp998
g10
I2
ssVcom.android.contacts
p999
(dp1000
g10
F0.69999999999999996
sssg93
(dp1001
Vcom.netease.cloudmusic
p1002
(dp1003
g10
F0.40000000000000002
ssg598
(dp1004
g10
F11.500000000000002
ssg57
(dp1005
g10
F61.400000000000006
ssVcom.UCMobile
p1006
(dp1007
g10
F1.7
ssVcom.huawei.android.launcher
p1008
(dp1009
g10
F38.29999999999999
ssVcom.dotamax.app
p1010
(dp1011
g10
F0.90000000000000002
ssg612
(dp1012
g10
F0.90000000000000002
ssVcom.tencent.mm
p1013
(dp1014
g10
F10.700000000000003
ssg616
(dp1015
g10
F3.4000000000000004
sssg95
(dp1016
Vcom.android.settings
p1017
(dp1018
g10
F5.7000000000000002
ssVcom.android.deskclock
p1019
(dp1020
g10
F0.90000000000000002
ssVcom.UCMobile
p1021
(dp1022
g10
F0.90000000000000002
ssVcom.huawei.android.launcher
p1023
(dp1024
g10
F25.699999999999999
ssVcom.android.systemui
p1025
(dp1026
g10
F4.5
ssVcom.tencent.mm
p1027
(dp1028
g10
F1.8
ssg842
(dp1029
g10
F1.3
ssVcom.eg.android.AlipayGphone
p1030
(dp1031
g10
F0.40000000000000002
sssg97
(dp1032
Vcom.android.browser
p1033
(dp1034
g10
F9.7999999999999989
ssVcom.android.settings
p1035
(dp1036
g10
F0.69999999999999996
ssVcom.tencent.mm
p1037
(dp1038
g10
F11.000000000000002
ssg348
(dp1039
g10
F1.3
ssVcom.android.deskclock
p1040
(dp1041
g10
F0.69999999999999996
ssVcom.UCMobile
p1042
(dp1043
g10
F2.8999999999999999
ssVcom.huawei.android.launcher
p1044
(dp1045
g10
F43.300000000000004
ssVcom.dotamax.app
p1046
(dp1047
g10
F0.40000000000000002
ssVcom.android.systemui
p1048
(dp1049
g10
F2.7000000000000002
ssVcom.tencent.mobileqq
p1050
(dp1051
g10
F1.5
ssVcom.android.contacts
p1052
(dp1053
g10
F3.1000000000000001
sssg99
(dp1054
Vcom.huawei.hwid
p1055
(dp1056
g10
I2
ssVcom.tencent.mm
p1057
(dp1058
g10
F0.69999999999999996
ssVcom.huawei.android.launcher
p1059
(dp1060
g10
F3.7999999999999998
ssVcom.android.systemui
p1061
(dp1062
g10
F1.3
sssg101
(dp1063
Vcom.UCMobile
p1064
(dp1065
g10
I1
ssVcom.huawei.android.launcher
p1066
(dp1067
g10
I1
sssg103
(dp1068
Vcom.huawei.android.launcher
p1069
(dp1070
g10
F2.6999999999999997
ssVcom.android.systemui
p1071
(dp1072
g10
F2.3999999999999999
sssg105
(dp1073
Vcom.tencent.mm
p1074
(dp1075
g10
F3.5
ssVcom.huawei.systemmanager
p1076
(dp1077
g10
F0.90000000000000002
ssVcom.huawei.android.launcher
p1078
(dp1079
g10
F6.1000000000000005
sssg107
(dp1080
Vcom.baidu.input_huawei
p1081
(dp1082
g10
F1.7
ssVcom.android.browser
p1083
(dp1084
g10
I1
ssVcom.huawei.android.launcher
p1085
(dp1086
g10
F6.1000000000000005
ssVcom.dotamax.app
p1087
(dp1088
g10
F1.3
ssVcom.UCMobile
p1089
(dp1090
g10
F1.7
sssg109
(dp1091
Vcom.netease.cloudmusic
p1092
(dp1093
g10
F0.90000000000000002
ssVcom.tencent.mobileqq
p1094
(dp1095
g10
F0.40000000000000002
ssVcom.huawei.appmarket
p1096
(dp1097
g10
F0.90000000000000002
ssVcom.taobao.taobao
p1098
(dp1099
g10
F0.90000000000000002
ssVcom.android.deskclock
p1100
(dp1101
g10
F0.90000000000000002
ssVcom.UCMobile
p1102
(dp1103
g10
F1.3
ssVcom.huawei.android.launcher
p1104
(dp1105
g10
F21.199999999999996
ssVcom.example.android.notepad
p1106
(dp1107
g10
F1.3
ssVcom.android.systemui
p1108
(dp1109
g10
F0.40000000000000002
ssVcom.tencent.mm
p1110
(dp1111
g10
F2.5
ssVcom.android.contacts
p1112
(dp1113
g10
F2.2999999999999998
sssg111
(dp1114
g8
(dp1115
g10
F0.80000000000000004
ssg432
(dp1116
g10
F0.69999999999999996
ssg91
(dp1117
g10
F2.7000000000000002
ssg682
(dp1118
g10
F2
ssVcom.android.deskclock
p1119
(dp1120
g10
I1
ssVcom.UCMobile
p1121
(dp1122
g10
F34.899999999999984
ssg947
(dp1123
g10
F0.90000000000000002
ssVcom.huawei.android.internal.app
p1124
(dp1125
g10
I1
ssVcom.android.mediacenter
p1126
(dp1127
g10
I1
ssVcom.android.contacts
p1128
(dp1129
g10
F28.79999999999999
ssVcom.eg.android.AlipayGphone
p1130
(dp1131
g10
F9
ssVcom.huawei.hwid
p1132
(dp1133
g10
F0.69999999999999996
ssVcom.huawei.android.thememanager
p1134
(dp1135
g10
F1.3
ssg191
(dp1136
g10
F0.69999999999999996
ssVcom.android.gallery3d
p1137
(dp1138
g10
F11.800000000000001
ssg404
(dp1139
g10
F1.3
ssg698
(dp1140
g10
F0.40000000000000002
ssVcom.huawei.systemmanager
p1141
(dp1142
g10
F12.799999999999999
ssVcom.android.systemui
p1143
(dp1144
g10
F32.799999999999983
ssVcom.tencent.mm
p1145
(dp1146
g10
F135.40000000000029
ssVcom.netease.cloudmusic
p1147
(dp1148
g10
F1.3
ssVcom.baidu.lbs.waimai
p1149
(dp1150
g10
F0.90000000000000002
ssg434
(dp1151
g10
F0.69999999999999996
ssVcom.huawei.android.launcher
p1152
(dp1153
g10
F432.59999999999832
ssVcom.huawei.camera
p1154
(dp1155
g10
F19.399999999999995
ssVair.tv.douyu.android
p1156
(dp1157
g10
I1
ssg97
(dp1158
g10
I2
ssVcom.huawei.vassistant
p1159
(dp1160
g10
I2
ssVcom.android.calendar
p1161
(dp1162
g10
I1
ssVcom.android.settings
p1163
(dp1164
g10
F3.7999999999999998
ssVcom.example.android.notepad
p1165
(dp1166
g10
F1.8
ssg113
(dp1167
g10
F5.8000000000000007
ssVcom.dotamax.app
p1168
(dp1169
g10
F17.899999999999999
ssVcom.huawei.appmarket
p1170
(dp1171
g10
F1.3
sssg113
(dp1172
g1147
(dp1173
g10
F0.69999999999999996
ssVcom.tencent.mobileqq
p1174
(dp1175
g10
F4.7000000000000002
ssVcom.machipopo.story17
p1176
(dp1177
g10
F1.7
ssVcom.huawei.android.launcher
p1178
(dp1179
g10
F4.2000000000000002
ssVcom.kingsoft
p1180
(dp1181
g10
I1
ssVcom.tencent.mm
p1182
(dp1183
g10
F0.69999999999999996
ssVcom.android.contacts
p1184
(dp1185
g10
F0.90000000000000002
sssg115
(dp1186
Vcom.evernote
p1187
(dp1188
g10
F0.90000000000000002
ssVcom.UCMobile
p1189
(dp1190
g10
F1.3
ssVcom.huawei.android.launcher
p1191
(dp1192
g10
F21.799999999999997
ssVcom.android.systemui
p1193
(dp1194
g10
F0.69999999999999996
ssVcom.tencent.mm
p1195
(dp1196
g10
F5.4000000000000004
ssVcom.android.contacts
p1197
(dp1198
g10
F2.2999999999999998
sssg117
(dp1199
Vcom.huawei.gamebox
p1200
(dp1201
g10
I2
ssg392
(dp1202
g10
F0.69999999999999996
ssVcom.UCMobile
p1203
(dp1204
g10
F3
ssVcom.huawei.android.thememanager
p1205
(dp1206
g10
I1
ssg741
(dp1207
g10
F0.69999999999999996
ssg768
(dp1208
g10
F0.40000000000000002
ssVcom.huawei.appmarket
p1209
(dp1210
g10
F14.699999999999999
ssVcom.android.gallery3d
p1211
(dp1212
g10
F0.69999999999999996
ssg398
(dp1213
g10
F0.40000000000000002
ssVcom.example.android.notepad
p1214
(dp1215
g10
F0.69999999999999996
ssg127
(dp1216
g10
F0.69999999999999996
ssg402
(dp1217
g10
F21.299999999999994
ssg23
(dp1218
g10
F0.69999999999999996
ssVair.tv.douyu.android
p1219
(dp1220
g10
F0.90000000000000002
ssg734
(dp1221
g10
F2.1999999999999997
ssVcom.vmall.client
p1222
(dp1223
g10
I1
ssVcom.android.mediacenter
p1224
(dp1225
g10
I2
ssg71
(dp1226
g10
F1.8999999999999999
ssg730
(dp1227
g10
F3.4999999999999996
ssVcom.eg.android.AlipayGphone
p1228
(dp1229
g10
F1.1000000000000001
sssg119
(dp1230
Vcom.tencent.mm
p1231
(dp1232
g10
F0.90000000000000002
ssVcom.huawei.android.launcher
p1233
(dp1234
g10
F3.7000000000000002
sssg121
(dp1235
Vcom.UCMobile
p1236
(dp1237
g10
F0.90000000000000002
ssVcom.tencent.mm
p1238
(dp1239
g10
F0.40000000000000002
ssVcom.huawei.android.launcher
p1240
(dp1241
g10
F4.4000000000000004
ssVcom.huawei.hidisk
p1242
(dp1243
g10
F0.40000000000000002
ssVcom.android.systemui
p1244
(dp1245
g10
F1.8
sssg123
(dp1246
Vcom.huawei.android.dsdscardmanager
p1247
(dp1248
g10
I1
ssVcom.netease.cloudmusic
p1249
(dp1250
g10
F0.90000000000000002
ssVcom.huawei.hwid
p1251
(dp1252
g10
F1.3999999999999999
ssVcom.android.calendar
p1253
(dp1254
g10
F0.90000000000000002
ssg675
(dp1255
g10
F8.0000000000000018
ssVcom.android.packageinstaller
p1256
(dp1257
g10
F1.8999999999999999
ssVcom.huawei.appmarket
p1258
(dp1259
g10
F4.5
ssg317
(dp1260
g10
F3.4000000000000004
ssg641
(dp1261
g10
I1
ssVcom.android.deskclock
p1262
(dp1263
g10
F8.4000000000000021
ssVcom.UCMobile
p1264
(dp1265
g10
F12.300000000000004
ssVcom.huawei.systemmanager
p1266
(dp1267
g10
F3
ssVcom.huawei.android.launcher
p1268
(dp1269
g10
F133.50000000000006
ssVcom.huawei.camera
p1270
(dp1271
g10
F1.8
ssg610
(dp1272
g10
F20.999999999999996
ssg638
(dp1273
g10
F2.7000000000000002
ssg614
(dp1274
g10
F37.499999999999972
ssVcom.android.contacts
p1275
(dp1276
g10
F2.5999999999999996
ssVcom.eg.android.AlipayGphone
p1277
(dp1278
g10
F1.3
ssVcom.android.settings
p1279
(dp1280
g10
F1.8999999999999999
sssg125
(dp1281
Vcom.android.browser
p1282
(dp1283
g10
F0.90000000000000002
ssg11
(dp1284
g10
F1.3999999999999999
ssg17
(dp1285
g10
F1.3
ssg1203
(dp1286
g10
F3.3999999999999999
ssg1214
(dp1287
g10
F1.3
ssVcom.android.packageinstaller
p1288
(dp1289
g10
F0.69999999999999996
ssg19
(dp1290
g10
F3.7999999999999998
ssg1211
(dp1291
g10
F1.3
ssg23
(dp1292
g10
F1.3
ssg809
(dp1293
g10
F24.100000000000001
ssg51
(dp1294
g10
F1.7
ssVcom.huawei.android.launcher
p1295
(dp1296
g10
F52.5
ssg123
(dp1297
g10
F1.8999999999999999
ssg165
(dp1298
g10
F6.7000000000000011
ssg127
(dp1299
g10
F1.3
ssg39
(dp1300
g10
F1.7000000000000002
ssg71
(dp1301
g10
F1.7
ssVcom.tencent.mm
p1302
(dp1303
g10
F11.200000000000001
ssVcom.android.contacts
p1304
(dp1305
g10
F0.69999999999999996
ssg1228
(dp1306
g10
F3
sssg127
(dp1307
Vcom.android.mediacenter
p1308
(dp1309
g10
I1
ssVcom.android.systemui
p1310
(dp1311
g10
F0.40000000000000002
ssVcom.huawei.android.launcher
p1312
(dp1313
g10
F3.3999999999999999
ssVcom.huawei.appmarket
p1314
(dp1315
g10
F0.90000000000000002
sssg129
(dp1316
Vcom.tencent.mobileqq
p1317
(dp1318
g10
F0.40000000000000002
ssVcom.huawei.android.launcher
p1319
(dp1320
g10
F11.1
ssVcom.huawei.camera
p1321
(dp1322
g10
F0.90000000000000002
ssVcom.android.email
p1323
(dp1324
g10
F0.90000000000000002
ssVcom.tencent.mm
p1325
(dp1326
g10
F1.8
ssVcom.android.contacts
p1327
(dp1328
g10
F1.3
sssg131
(dp1329
Vcom.huawei.android.launcher
p1330
(dp1331
g10
F0.90000000000000002
ssVcom.huawei.appmarket
p1332
(dp1333
g10
I1
ssssS'edge'
p1334
g136
sS'pred'
p1335
(dp1336
g8
(dp1337
g107
g1084
sg820
g549
sVcom.tencent.mm
p1338
g749
sg53
g581
sVcom.huawei.appmarket
p1339
g1283
sg404
g366
sg1121
g295
sg1152
g926
sVcom.android.systemui
p1340
g679
sVcom.android.email
p1341
g1034
sg111
g1115
sVcom.android.contacts
p1342
g431
sVcom.android.settings
p1343
g816
ssg11
(dp1344
Vcom.UCMobile
p1345
g296
sg356
g1284
sVcom.huawei.android.launcher
p1346
g927
sg165
g681
sVcom.android.settings
p1347
g817
ssg13
(dp1348
Vcom.android.deskclock
p1349
g261
sVcom.tencent.mobileqq
p1350
g1116
sVcom.huawei.android.launcher
p1351
g928
sVcom.tencent.mm
p1352
g750
sVcom.android.contacts
p1353
g433
ssg15
(dp1354
g180
g281
sVcom.tencent.mm
p1355
g800
sVcom.huawei.android.launcher
p1356
g929
sg177
g1181
sg186
g475
ssg17
(dp1357
Vcom.tencent.mobileqq
p1358
g1150
sg191
g587
sVcom.huawei.android.launcher
p1359
g969
sVcom.huawei.appmarket
p1360
g1285
sVcom.tencent.mm
p1361
g787
sg201
g465
ssg19
(dp1362
Vcom.UCMobile
p1363
g337
sg204
g1157
sVcom.huawei.appmarket
p1364
g1290
sg1242
g639
sVcom.huawei.hwid
p1365
g1220
sVcom.huawei.android.launcher
p1366
g931
sVcom.dotamax.app
p1367
g1273
sg216
g715
sg218
g793
ssg21
(dp1368
Vcom.huawei.android.launcher
p1369
g932
sVcom.tencent.mm
p1370
g752
sVcom.android.gallery3d
p1371
g597
ssg23
(dp1372
g234
g285
sVcom.huawei.hwid
p1373
g1218
sg700
g672
sVcom.huawei.android.launcher
p1374
g933
sg891
g1292
sVcom.tencent.mm
p1375
g753
ssg25
(dp1376
Vcom.tencent.mobileqq
p1377
g1151
sVcom.example.android.notepad
p1378
g1188
sVcom.UCMobile
p1379
g302
sVcom.huawei.android.launcher
p1380
g934
sVcom.android.systemui
p1381
g711
sVcom.tencent.mm
p1382
g755
sVcom.android.contacts
p1383
g435
sVcom.eg.android.AlipayGphone
p1384
g502
ssg27
(dp1385
Vcom.huawei.android.thememanager
p1386
g561
sg260
g169
sVcom.netease.cloudmusic
p1387
g867
sg522
g1101
sg346
g529
sg310
g420
sVcom.huawei.android.dsdscardmanager
p1388
g915
sVcom.baidu.BaiduMap
p1389
g1020
sg671
g235
sVcom.evernote
p1390
g246
sg394
g303
sVcom.huawei.android.launcher
p1391
g935
sVcom.dotamax.app
p1392
g1263
sVcom.kingsoft
p1393
g181
sVcom.android.systemui
p1394
g685
sg308
g400
sg794
g1041
sg477
g756
sVcom.android.contacts
p1395
g437
sVcom.tencent.mobileqq
p1396
g1120
ssg29
(dp1397
g8
g145
sg680
g160
sVcom.huawei.camera
p1398
g1007
sg47
g542
sg298
g848
sg754
g248
sg27
g274
sg107
g1090
sVcom.android.mediacenter
p1399
g395
sVcom.android.contacts
p1400
g439
sVcom.eg.android.AlipayGphone
p1401
g504
sg820
g563
sg53
g589
sg267
g603
sVcom.huawei.systemmanager
p1402
g655
sg509
g686
sg111
g1122
sVcom.android.phone
p1403
g899
sVcom.netease.cloudmusic
p1404
g856
sVcom.huawei.appmarket
p1405
g1286
sg788
g936
sg121
g1237
sVair.tv.douyu.android
p1406
g209
sg794
g1043
sg101
g1065
sVcom.android.calendar
p1407
g1103
sVcom.tencent.mm
p1408
g757
sg805
g1022
sVcom.example.android.notepad
p1409
g1190
sVcom.huawei.hwid
p1410
g1204
sg1168
g1265
sg265
g830
ssg31
(dp1411
Vcom.UCMobile
p1412
g307
sVcom.huawei.android.launcher
p1413
g937
ssg33
(dp1414
g698
g642
sVcom.android.calendar
p1415
g1099
sg396
g828
sVcom.android.deskclock
p1416
g272
sVcom.UCMobile
p1417
g320
sg452
g662
sVcom.huawei.android.launcher
p1418
g938
sg646
g1261
sVcom.android.systemui
p1419
g697
sg1126
g405
sVcom.tencent.mm
p1420
g759
sVcom.android.contacts
p1421
g451
sVcom.tencent.mobileqq
p1422
g1139
ssg35
(dp1423
Vcom.tencent.mm
p1424
g760
sVcom.tencent.mobileqq
p1425
g1125
sVcom.huawei.android.launcher
p1426
g939
sVcom.eg.android.AlipayGphone
p1427
g512
sVcom.huawei.hidisk
p1428
g649
ssg37
(dp1429
g632
g876
sg394
g309
sg1422
g1127
sVcom.android.gallery3d
p1430
g613
sg398
g629
sg117
g1225
sg630
g940
sVcom.huawei.camera
p1431
g1012
sg406
g688
sVcom.iyuba.toelflistening
p1432
g1309
sVcom.tencent.mm
p1433
g762
sVcom.android.contacts
p1434
g441
ssg39
(dp1435
Vcom.UCMobile
p1436
g311
sVcom.tencent.mm
p1437
g763
sVcom.huawei.android.launcher
p1438
g941
sVcom.huawei.appmarket
p1439
g1300
ssg41
(dp1440
g1033
g157
sVcom.huawei.camera
p1441
g1015
sVcom.tencent.mm
p1442
g765
sg77
g852
sg300
g1000
sVcom.android.deskclock
p1443
g291
sVcom.UCMobile
p1444
g313
sVcom.android.mediacenter
p1445
g415
sg442
g516
sVcom.android.gallery3d
p1446
g617
sVcom.taobao.taobao
p1447
g380
sVcom.android.systemui
p1448
g690
sVcom.tencent.mobileqq
p1449
g1129
sg85
g905
sg129
g1328
sVcom.netease.cloudmusic
p1450
g882
sVcom.baidu.lbs.waimai
p1451
g202
sVcom.huawei.android.dsdscardmanager
p1452
g922
sVcom.huawei.android.launcher
p1453
g942
sg432
g175
sVair.tv.douyu.android
p1454
g221
sg472
g1053
sVcom.kingsoft
p1455
g187
sVcom.android.calendar
p1456
g1113
sg1035
g843
sg348
g1029
sVcom.example.android.notepad
p1457
g1198
sg600
g1185
sVcom.dotamax.app
p1458
g1276
sVcom.huawei.appmarket
p1459
g1305
ssg43
(dp1460
g386
g619
sg490
g1229
sVcom.tencent.mobileqq
p1461
g1131
sg496
g1306
sVcom.huawei.android.dsdscardmanager
p1462
g924
sVcom.baidu.BaiduMap
p1463
g1031
sg23
g241
sg501
g256
sVcom.UCMobile
p1464
g315
sVcom.huawei.android.launcher
p1465
g943
sVcom.dotamax.app
p1466
g1278
sVcom.android.systemui
p1467
g692
sVcom.tencent.mm
p1468
g766
sVcom.android.contacts
p1469
g443
sg517
g845
ssg45
(dp1470
g737
g1207
sg444
g567
sVcom.tencent.mobileqq
p1471
g1118
sVcom.UCMobile
p1472
g347
sg532
g945
sVcom.android.systemui
p1473
g683
sg568
g742
sVcom.tencent.mm
p1474
g804
ssg47
(dp1475
Vcom.huawei.android.launcher
p1476
g930
ssg49
(dp1477
g430
g141
sVcom.netease.cloudmusic
p1478
g858
sg550
g1206
sVcom.wonder
p1479
g224
sg913
g821
sg87
g912
sg63
g635
sVcom.huawei.android.launcher
p1480
g946
sVcom.tencent.mm
p1481
g767
sVcom.android.contacts
p1482
g445
sVcom.tencent.mobileqq
p1483
g1135
ssg51
(dp1484
Vcom.huawei.android.launcher
p1485
g948
sVcom.tencent.mobileqq
p1486
g1123
sg1302
g758
sVcom.huawei.appmarket
p1487
g1294
ssg53
(dp1488
g1410
g1208
sg820
g555
sg1358
g1136
sg1149
g192
sg562
g316
sVcom.huawei.android.launcher
p1489
g949
sVcom.dotamax.app
p1490
g1257
sVcom.huawei.appmarket
p1491
g1289
sVcom.tencent.mm
p1492
g769
sVcom.eg.android.AlipayGphone
p1493
g495
ssg55
(dp1494
g591
g951
ssg57
(dp1495
Vcom.netease.cloudmusic
p1496
g864
sg1132
g1212
sg223
g554
sVcom.tencent.mobileqq
p1497
g1138
sg1170
g1291
sg1040
g268
sg654
g318
sg1402
g660
sVcom.huawei.android.launcher
p1498
g952
sg354
g1260
sg93
g1005
sVcom.android.systemui
p1499
g694
sg511
g387
sVcom.tencent.mm
p1500
g771
sVcom.android.contacts
p1501
g447
sg1427
g498
ssg59
(dp1502
g271
g368
sVcom.UCMobile
p1503
g319
sVcom.huawei.android.launcher
p1504
g953
sg282
g695
sVcom.tencent.mm
p1505
g772
sVcom.android.contacts
p1506
g449
ssg61
(dp1507
Vcom.tencent.mm
p1508
g773
sg1224
g399
sVcom.huawei.android.launcher
p1509
g954
sg79
g865
sg117
g1213
ssg63
(dp1510
Vcom.tencent.mobileqq
p1511
g1140
sVcom.huawei.systemmanager
p1512
g664
sVcom.huawei.android.launcher
p1513
g956
sVcom.chaozh.iReaderFree15
p1514
g1243
sVcom.android.systemui
p1515
g699
sg35
g385
sVcom.tencent.mm
p1516
g774
ssg65
(dp1517
Vcom.baidu.lbs.waimai
p1518
g194
sVcom.huawei.vassistant
p1519
g1077
sVcom.netease.cloudmusic
p1520
g870
sVcom.tencent.mobileqq
p1521
g1142
sVcom.sina.weibo
p1522
g424
sVcom.android.systemui
p1523
g701
sVcom.huawei.android.dsdscardmanager
p1524
g917
sg638
g211
sg27
g275
sg273
g321
sVcom.huawei.android.launcher
p1525
g957
sVcom.dotamax.app
p1526
g1267
sg656
g832
sVcom.tencent.mm
p1527
g776
sVcom.android.contacts
p1528
g453
ssg67
(dp1529
g365
g151
sg11
g166
sVim.yixin
p1530
g854
sg23
g243
sg25
g252
sg1416
g283
sg1379
g322
sVcom.android.mediacenter
p1531
g407
sg310
g428
sg904
g455
sVcom.eg.android.AlipayGphone
p1532
g510
sg741
g537
sg140
g557
sg55
g594
sVcom.android.gallery3d
p1533
g611
sg59
g626
sg33
g376
sg955
g648
sVcom.huawei.systemmanager
p1534
g659
sg85
g906
sg69
g735
sVcom.tencent.mobileqq
p1535
g1144
sg161
g825
sVcom.netease.cloudmusic
p1536
g875
sg910
g889
sg83
g896
sVcom.baidu.lbs.waimai
p1537
g198
sVcom.huawei.android.dsdscardmanager
p1538
g919
sg1513
g958
sVcom.chaozh.iReaderFree15
p1539
g1245
sg1219
g217
sg338
g1049
sg103
g1072
sg520
g1062
sg1415
g1109
sg614
g777
sVcom.baidu.BaiduMap
p1540
g1026
sVcom.example.android.notepad
p1541
g1194
sg360
g1221
sVcom.dotamax.app
p1542
g1272
sg356
g1298
sg127
g1311
ssg69
(dp1543
g360
g1223
sg31
g359
sg1413
g959
sVcom.UCMobile
p1544
g324
ssg71
(dp1545
g140
g569
sVcom.huawei.appmarket
p1546
g1301
sVcom.huawei.hwid
p1547
g1226
sVcom.huawei.android.launcher
p1548
g960
sg556
g702
sVcom.tencent.mm
p1549
g778
ssg73
(dp1550
g8
g155
sVcom.android.calendar
p1551
g1111
sg1393
g185
sVcom.wonder
p1552
g226
sg284
g237
sg754
g254
sg436
g289
sVcom.UCMobile
p1553
g332
sg51
g577
sg35
g389
sVcom.android.mediacenter
p1554
g413
sg1522
g422
sg1395
g478
sVcom.eg.android.AlipayGphone
p1555
g514
sg49
g570
sg191
g583
sg1533
g615
sg59
g624
sg33
g378
sg1428
g650
sg775
g674
sg509
g704
sg1222
g731
sg71
g744
sVcom.tencent.mobileqq
p1556
g1146
sg1403
g901
sVcom.android.calculator2
p1557
g1326
sVcom.baidu.lbs.waimai
p1558
g200
sVcom.netease.cloudmusic
p1559
g880
sg1487
g1303
sg87
g920
sg89
g982
sVcom.huawei.camera
p1560
g1014
sg19
g219
sVcom.android.email
p1561
g1038
sVcom.huawei.gamebox
p1562
g1058
sVcom.huawei.vassistant
p1563
g1075
sVcom.baidu.input_huawei
p1564
g1183
sg45
g539
sVcom.baidu.BaiduMap
p1565
g1028
sVcom.example.android.notepad
p1566
g1196
sg360
g1227
sVcom.android.keyguard
p1567
g1232
sg121
g1239
sg606
g1274
sg75
g841
ssg75
(dp1568
g680
g162
sVcom.netease.cloudmusic
p1569
g860
sg47
g546
sVcom.huawei.android.hwouc
p1570
g885
sVcom.tencent.mm
p1571
g781
sVcom.huawei.android.dsdscardmanager
p1572
g914
sg95
g1018
sVcom.android.deskclock
p1573
g266
sVcom.UCMobile
p1574
g328
sVcom.huawei.systemmanager
p1575
g657
sVcom.huawei.android.launcher
p1576
g964
sVcom.dotamax.app
p1577
g1280
sVcom.android.systemui
p1578
g721
sVcom.android.mediacenter
p1579
g397
sVcom.android.email
p1580
g1036
sg675
g1164
sg1528
g485
sVcom.eg.android.AlipayGphone
p1581
g518
ssg77
(dp1582
Vcom.UCMobile
p1583
g299
sVcom.huawei.android.launcher
p1584
g965
ssg79
(dp1585
g117
g1202
sVcom.android.calendar
p1586
g1093
sVcom.tencent.mobileqq
p1587
g1148
sVcom.huawei.android.dsdscardmanager
p1588
g909
sVcom.baidu.input_huawei
p1589
g1173
sg61
g633
sg866
g263
sVcom.UCMobile
p1590
g329
sg1509
g966
sVcom.dotamax.app
p1591
g1250
sg1431
g1003
sg874
g706
sg37
g393
sg1508
g783
sg881
g463
ssg81
(dp1592
Vcom.android.settings
p1593
g839
sg1538
g911
sVcom.UCMobile
p1594
g330
sVcom.huawei.android.launcher
p1595
g967
sVcom.android.systemui
p1596
g708
sVcom.tencent.mm
p1597
g785
ssg83
(dp1598
g1057
g786
sVcom.huawei.android.launcher
p1599
g968
sg1061
g709
ssg85
(dp1600
Vcom.android.settings
p1601
g834
sVcom.huawei.android.launcher
p1602
g963
sVcom.android.contacts
p1603
g459
sVcom.UCMobile
p1604
g327
ssg87
(dp1605
g49
g559
sg63
g640
sg916
g653
sVcom.huawei.android.launcher
p1606
g970
sVcom.dotamax.app
p1607
g1248
sg921
g467
ssg89
(dp1608
g8
g147
sg11
g164
sg432
g173
sg1393
g183
sg17
g196
sg19
g213
sg21
g228
sg23
g239
sg25
g250
sg27
g277
sVcom.UCMobile
p1609
g334
sg31
g363
sg33
g370
sg511
g383
sg37
g403
sg39
g426
sg41
g469
sVcom.eg.android.AlipayGphone
p1610
g506
sg45
g533
sg47
g544
sg49
g564
sg807
g1192
sg53
g585
sg55
g592
sg317
g605
sg59
g622
sg61
g631
sg63
g645
sg775
g666
sg509
g713
sg69
g733
sg71
g740
sg111
g1153
sg75
g836
sg77
g850
sg79
g871
sg910
g887
sg83
g894
sg85
g903
sg87
g918
sg300
g996
sg1441
g1009
sg1540
g1024
sg97
g1045
sg99
g1060
sg797
g1067
sg103
g1070
sg1563
g1079
sg107
g1086
sg109
g1105
sg1408
g789
sg113
g1179
sg51
g573
sg117
g1217
sg119
g1234
sg121
g1241
sg1168
g1269
sVcom.huawei.appmarket
p1611
g1296
sg127
g1313
sg129
g1320
sg131
g1331
ssg91
(dp1612
g1124
g390
sg1425
g1117
sVcom.huawei.android.launcher
p1613
g971
sVcom.UCMobile
p1614
g301
ssg93
(dp1615
g1478
g873
sg1479
g230
sVcom.tencent.mobileqq
p1616
g1155
sg57
g609
sVcom.taobao.taobao
p1617
g374
sVcom.UCMobile
p1618
g336
sVcom.huawei.systemmanager
p1619
g669
sg1498
g972
sVcom.dotamax.app
p1620
g1271
sg992
g1322
sg1500
g791
sg1501
g471
sg223
g565
ssg95
(dp1621
g1035
g827
sg1019
g270
sVcom.UCMobile
p1622
g349
sVcom.huawei.android.launcher
p1623
g973
sg1580
g1039
sg1027
g806
sVcom.android.contacts
p1624
g480
sVcom.eg.android.AlipayGphone
p1625
g500
ssg97
(dp1626
Vcom.android.browser
p1627
g153
sVcom.netease.cloudmusic
p1628
g878
sVcom.tencent.mobileqq
p1629
g1158
sVcom.android.deskclock
p1630
g287
sg847
g339
sVcom.huawei.android.launcher
p1631
g974
sg853
g716
sVcom.android.mediacenter
p1632
g411
sVcom.tencent.mm
p1633
g795
sVcom.android.contacts
p1634
g473
sVcom.android.calculator2
p1635
g1324
ssg99
(dp1636
Vcom.huawei.android.totemweather
p1637
g521
sg739
g979
sg536
g720
sg743
g796
sg1055
g1201
ssg101
(dp1638
Vcom.huawei.android.launcher
p1639
g977
sg1064
g341
sVcom.tencent.mm
p1640
g798
ssg103
(dp1641
Vcom.huawei.android.launcher
p1642
g978
sVcom.eg.android.AlipayGphone
p1643
g487
sVcom.android.systemui
p1644
g719
ssg105
(dp1645
Vcom.huawei.android.launcher
p1646
g976
sVcom.tencent.mobileqq
p1647
g1160
sVcom.tencent.mm
p1648
g801
sVcom.eg.android.AlipayGphone
p1649
g489
sVcom.UCMobile
p1650
g343
ssg107
(dp1651
g1081
g1177
sg1083
g139
sg1085
g980
sg1089
g305
ssg109
(dp1652
Vcom.huawei.hidisk
p1653
g644
sg444
g552
sVcom.tencent.mm
p1654
g782
sVcom.android.deskclock
p1655
g264
sVcom.UCMobile
p1656
g345
sVcom.huawei.android.launcher
p1657
g981
sVcom.dotamax.app
p1658
g1254
sg566
g523
sVcom.tencent.mobileqq
p1659
g1162
sg312
g476
ssg111
(dp1660
g432
g171
sVcn.wps.moffice_i18n
p1661
g998
sVcom.android.deskclock
p1662
g293
sg503
g325
sg1126
g417
sVcom.android.contacts
p1663
g457
sg1130
g493
sVcom.android.gallery3d
p1664
g599
sVcom.huawei.hidisk
p1665
g637
sVcom.huawei.systemmanager
p1666
g676
sg375
g718
sg703
g779
sg1557
g1318
sVcom.baidu.lbs.waimai
p1667
g190
sg712
g961
sVcom.huawei.camera
p1668
g1004
sg1219
g205
sg338
g1051
sg1551
g1095
sg944
g525
sg113
g1175
sVcom.dotamax.app
p1669
g1255
sVcom.android.settings
p1670
g823
ssg113
(dp1671
Vcom.tencent.mobileqq
p1672
g1167
sVcom.android.gallery3d
p1673
g601
sg304
g1082
sVcom.huawei.android.launcher
p1674
g983
sg799
g178
sVcom.tencent.mm
p1675
g802
ssg115
(dp1676
Vcom.huawei.hwid
p1677
g1215
sVcom.android.calendar
p1678
g1107
sVcom.tencent.mobileqq
p1679
g1166
sg1100
g279
sVcom.UCMobile
p1680
g351
sVcom.huawei.android.launcher
p1681
g984
sVcom.kingsoft
p1682
g179
sg861
g1287
sVcom.tencent.mm
p1683
g808
ssg117
(dp1684
g99
g1056
sVcom.netease.cloudmusic
p1685
g868
sVcom.huawei.android.thememanager
p1686
g551
sg780
g819
sVcom.android.systemui
p1687
g723
sg51
g575
sg1637
g531
sVcom.UCMobile
p1688
g353
sg31
g361
sg630
g985
sVcom.dotamax.app
p1689
g1252
sg125
g1293
sg69
g729
sg37
g401
sg568
g738
sVcom.tencent.mm
p1690
g810
sg1434
g482
sg255
g491
sVcom.tencent.mobileqq
p1691
g1133
ssg119
(dp1692
Vcom.huawei.android.launcher
p1693
g987
ssg121
(dp1694
Vcom.huawei.android.launcher
p1695
g988
sVcom.tencent.mm
p1696
g751
sVcom.UCMobile
p1697
g297
ssg123
(dp1698
g1176
g1088
sVcom.android.browser
p1699
g149
sVair.tv.douyu.android
p1700
g215
sg698
g647
sg75
g837
sg840
g812
sg317
g607
sg1143
g725
sg641
g372
sVcom.huawei.android.totemweather
p1701
g535
sVcom.android.deskclock
p1702
g259
sVcom.UCMobile
p1703
g355
sg1402
g667
sg1295
g989
sVcom.huawei.camera
p1704
g1011
sg1611
g1297
sVcom.android.email
p1705
g1047
sVcom.tencent.mobileqq
p1706
g1169
sVcom.android.contacts
p1707
g484
sVcom.eg.android.AlipayGphone
p1708
g508
ssg125
(dp1709
Vcom.android.calendar
p1710
g1097
sVcom.netease.cloudmusic
p1711
g862
sg722
g1210
sg21
g232
sg1347
g838
sg19
g207
sg83
g892
sg51
g579
sg1701
g527
sg1345
g357
sVcom.huawei.systemmanager
p1712
g670
sVcom.android.browser
p1713
g143
sVcom.huawei.android.launcher
p1714
g990
sVcom.dotamax.app
p1715
g1259
sg1687
g727
sg127
g1315
sg131
g1333
sg71
g746
sg1690
g813
sg255
g497
sg1691
g1171
ssg127
(dp1716
Vcom.huawei.hwid
p1717
g1216
sg1308
g409
sVcom.huawei.android.launcher
p1718
g991
sVcom.huawei.appmarket
p1719
g1299
ssg129
(dp1720
Vcom.huawei.android.launcher
p1721
g993
sVcom.android.contacts
p1722
g461
ssg131
(dp1723
ssS'adj'
p1724
g136
sb.