ccopy_reg
_reconstructor
p1
(cnetworkx.classes.digraph
DiGraph
p2
c__builtin__
object
p3
NtRp4
(dp5
S'node'
p6
(dp7
Vcom.wandoujia.phoenix2
p8
(dp9
S'weight'
p10
F3.6376408524851755e-06
ssVcom.youku.phone
p11
(dp12
g10
F0.015282537585924108
ssVcom.ss.android.article.news
p13
(dp14
g10
F0.00015682273897380534
ssVcom.zq.Fate
p15
(dp16
g10
F0.00025018885418759152
ssVcom.xwtec.sd.mobileclient
p17
(dp18
g10
F7.6794640219131487e-06
ssVcom.picalab.comics
p19
(dp20
g10
F6.790262924638994e-05
ssVcom.qihoo.cleandroid_cn
p21
(dp22
g10
F0.0017812314707669078
ssVcom.android.deskclock
p23
(dp24
g10
F0.014503678261175337
ssVcom.clov4r.android.nil
p25
(dp26
g10
F0.0011199892002484912
ssVcom.tencent.token
p27
(dp28
g10
F0.0042402766870468867
ssVcom.tencent.android.qqdownloader
p29
(dp30
g10
F0.0043946743321190349
ssVcom.zappallas.android.app.shunsui
p31
(dp32
g10
F3.2334585355423781e-06
ssVcom.melot.game
p33
(dp34
g10
F8.0836463388559454e-07
ssVcom.android.mediacenter
p35
(dp36
g10
F0.00053271229373060686
ssVcom.feistma.appmove
p37
(dp38
g10
F0.01097395408731389
ssVcom.ifeng.news2
p39
(dp40
g10
F0.088404777273313334
ssVcom.tencent.qt.sns
p41
(dp42
g10
F0.012332410854558631
ssVyt.wnl
p43
(dp44
g10
F1.1721287191341121e-05
ssVcom.yaochufa.app
p45
(dp46
g10
F7.6794640219131487e-06
ssVcom.android.packageinstaller
p47
(dp48
g10
F0.010411736484446458
ssVcom.zappallas.android.google.plugin.fukaku
p49
(dp50
g10
F4.4460054863707701e-06
ssVcom.baidu.backuprestore
p51
(dp52
g10
F0.0018758101329315222
ssVoms.mmc.fortunetelling
p53
(dp54
g10
F0.00088152163325224092
ssVsogou.mobile.explorer
p55
(dp56
g10
F0.00019158241823088591
ssVcom.tencent.mobileqq
p57
(dp58
g10
F0.023319298776014689
ssVcom.nemodigm.android.prime_fortune
p59
(dp60
g10
F0.00014631399873329262
ssVcn.taxen.ziwei
p61
(dp62
g10
F0.0003265793120897802
ssVmark.via
p63
(dp64
g10
F0.079861575640093427
ssVcom.android.calculator
p65
(dp66
g10
F6.1031529858362392e-05
ssVcom.sub.bazisuanminkan
p67
(dp68
g10
F0.0049956934374129746
ssVworkshop.namestroes
p69
(dp70
g10
F6.0627347541419594e-06
ssVcom.Astro.UI
p71
(dp72
g10
F0.0062769513821216419
ssVcom.android.fileexplorer
p73
(dp74
g10
F9.296193289684338e-06
ssVcom.tencent.tokenre07
p75
(dp76
g10
F1.7379839628540283e-05
ssVcom.android.email
p77
(dp78
g10
F1.212546950828392e-06
ssVcom.culiukeji.huanletao
p79
(dp80
g10
F3.6376408524851755e-06
ssVcom.huawei.KoBackup
p81
(dp82
g10
F8.8920109727415402e-06
ssVcom.tieyou.train.ark
p83
(dp84
g10
F9.296193289684338e-06
ssVcn.highing.hichat
p85
(dp86
g10
F3.8801502426508543e-05
ssVcom.haojiazhang.activity
p87
(dp88
g10
F2.8292762185995808e-06
ssVcom.baidu.tieba
p89
(dp90
g10
F0.088015145519780486
ssVcom.android.settings
p91
(dp92
g10
F0.0052078891538079432
ssVcom.autohome.mycar
p93
(dp94
g10
F1.778402194548308e-05
ssVcn.wps.moffice_tpt
p95
(dp96
g10
F0.0017064577421324902
ssVcom.moxiu.launcher
p97
(dp98
g10
F5.9414800590591201e-05
ssVcom.baiyi_mobile.security
p99
(dp100
g10
F2.5059303650453433e-05
ssVcom.t66y.client.ui
p101
(dp102
g10
F0.00023482992614376523
ssVcom.shoujiduoduo.ringtone
p103
(dp104
g10
F0.0023527452669240231
ssVcom.tencent.tokenlgnl
p105
(dp106
g10
F0.00010266230850347051
ssVcom.storm.smart
p107
(dp108
g10
F7.2348634732760715e-05
ssVcom.cl.newt66y
p109
(dp110
g10
F0.0041929873559645794
ssVnet.ld.freevpn
p111
(dp112
g10
F8.0836463388559454e-07
ssVcom.baidu.trafficmonitor
p113
(dp114
g10
F2.8292762185995808e-06
ssVorg.idaxiang.android
p115
(dp116
g10
F0.00044581309558790541
ssVme.onemobile.android
p117
(dp118
g10
F0.00040054467609031212
ssVcom.android.gallery3d
p119
(dp120
g10
F0.0013051047014082924
ssVcom.taobao.taobao
p121
(dp122
g10
F0.00034032151086583529
ssVcom.eg.android.AlipayGphone
p123
(dp124
g10
F0.001914207453041088
ssVcom.android.phone
p125
(dp126
g10
F0.014652417353810288
ssVcom.amigosoftware.name7_6_web_android
p127
(dp128
g10
F0.0002077497109085978
ssVcn.ibuka.manga.ui
p129
(dp130
g10
F3.0313673770709797e-05
ssVcom.tencent.tokenqqfa
p131
(dp132
g10
F0.00014712236336717822
ssVcom.huawei.android.dsdscardmanager
p133
(dp134
g10
F2.9909491453766999e-05
ssVcom.julanling.dgq
p135
(dp136
g10
F2.4250939016567839e-06
ssVcom.mymoney.sms
p137
(dp138
g10
F2.5463485967396231e-05
ssVcom.qihoo.browser
p139
(dp140
g10
F0.0399174498035876
ssVoms.mmc.independent_gm.ebook.book121
p141
(dp142
g10
F4.769351339925008e-05
ssVcn.easymobi.entertainment.name
p143
(dp144
g10
F1.49547457268835e-05
ssVcom.nd.android.pandareader
p145
(dp146
g10
F0.05666029810062604
ssVcom.wenba.bangbang
p147
(dp148
g10
F4.8501878033135679e-06
ssVcom.baidu.input
p149
(dp150
g10
F1.212546950828392e-06
ssVfw.fourword
p151
(dp152
g10
F0.0001184254188642396
ssVcom.shawnyu.suanming
p153
(dp154
g10
F3.0717856087652595e-05
ssVorg.kde.necessitas.example.YXBaZi
p155
(dp156
g10
F1.3742198776055108e-05
ssVcom.tencent.qqlite
p157
(dp158
g10
F0.00010225812618652771
ssVcn.skyone.calendarbig5
p159
(dp160
g10
F1.333801645911231e-05
ssVcom.holiestar.flashoncall
p161
(dp162
g10
F1.0912922557455527e-05
ssVcom.yidalianke.app
p163
(dp164
g10
F0.00010751249630678408
ssVcom.ct.client
p165
(dp166
g10
F0.00027484397552110214
ssVcom.shuyi.Fate
p167
(dp168
g10
F1.6167292677711891e-06
ssVcom.amigosoftware.name7_5_web_android
p169
(dp170
g10
F6.871099388027554e-06
ssVorg.getlantern.firetweet
p171
(dp172
g10
F3.9205684743451334e-05
ssVcom.jiongji.andriod.card
p173
(dp174
g10
F0.00081725664485833615
ssVcom.simple.fortuneteller
p175
(dp176
g10
F0.00015601437433991977
ssVcom.divination.name1518
p177
(dp178
g10
F2.2634209748796647e-05
ssVim.yixin
p179
(dp180
g10
F1.333801645911231e-05
ssVcom.android.contacts
p181
(dp182
g10
F0.0099461184553283552
ssVcom.youdao.dict
p183
(dp184
g10
F0.0020977062249331181
ssVcom.qihoo.wifi
p185
(dp186
g10
F0.00023968011394707881
ssVcom.sankuai.meituan
p187
(dp188
g10
F0.00097205847224742751
ssVcom.android.soundrecorder
p189
(dp190
g10
F0.00049188987971938427
ssVorg.kde.necessitas.ministro
p191
(dp192
g10
F0.000147526545684121
ssVcom.amigosoftware.name7_1_web_android
p193
(dp194
g10
F2.5059303650453433e-05
ssVcom.huawei.hidisk
p195
(dp196
g10
F0.0014530354294093563
ssVcom.android.htmlviewer
p197
(dp198
g10
F0.00019602842371725668
ssVcom.ylmf.androidclient
p199
(dp200
g10
F0.010960211888537835
ssVcom.xduole.Client
p201
(dp202
g10
F1.0912922557455527e-05
ssVcom.nrop19
p203
(dp204
g10
F0.00014105962861303626
ssVcom.PEP.biaori
p205
(dp206
g10
F0.00028009834564135853
ssVcom.zappallas.android.google.cocoloni.uranaicollection
p207
(dp208
g10
F1.6571474994654687e-05
ssVcom.nuomi
p209
(dp210
g10
F6.0627347541419594e-06
ssVexample.yijing
p211
(dp212
g10
F0.00011195850179315485
ssVcom.homenetworkkeeper
p213
(dp214
g10
F0.00037710210170762988
ssVcom.tencent.qqlive
p215
(dp216
g10
F0.0030964407300987699
ssVcom.amigo.pra6
p217
(dp218
g10
F2.4250939016567838e-05
ssVcom.yiche.price
p219
(dp220
g10
F8.4878286557987425e-06
ssVcom.kingroot.kinguser
p221
(dp222
g10
F0.0048974771343958745
ssVcom.android.calendar
p223
(dp224
g10
F2.0613298164082661e-05
ssVcom.huawei.android.totemweather
p225
(dp226
g10
F0.00072631562354620669
ssVcom.baidu.BaiduMap
p227
(dp228
g10
F0.00078815551803845471
ssVcom.SharkSoft.BirthdayCode
p229
(dp230
g10
F6.0223165224476796e-05
ssVcom.ophone.reader.ui
p231
(dp232
g10
F5.2543701202563648e-06
ssVcom.phoenix.eightwords
p233
(dp234
g10
F4.4864237180650502e-05
ssVcn.skyone.UI
p235
(dp236
g10
F2.1421662797968257e-05
ssVcom.lql.yj.bgyc
p237
(dp238
g10
F6.5881717661675965e-05
ssVcom.baidu.appsearch
p239
(dp240
g10
F0.00030717856087652596
ssVcom.lanteanstudio.compass
p241
(dp242
g10
F2.8292762185995812e-05
ssVcom.baidu.netdisk
p243
(dp244
g10
F0.014935344975670246
ssVcom.sogou.novel
p245
(dp246
g10
F1.8592386579368676e-05
ssVcom.UCMobile
p247
(dp248
g10
F7.4369546317474704e-05
ssVvStudio.Android.Camera360
p249
(dp250
g10
F0.0035147694281345652
ssVcom.drcom.Android.DrCOMWS
p251
(dp252
g10
F0.0001325717999572375
ssVcom.android.launcher
p253
(dp254
g10
F0.37641014158102382
ssVcom.huawei.inputmethod.hwpal
p255
(dp256
g10
F6.1031529858362392e-05
ssVcn.mljia.o2o
p257
(dp258
g10
F1.212546950828392e-06
ssVcom.cubic.autohome
p259
(dp260
g10
F0.00010751249630678408
ssVcom.hfa.BestName
p261
(dp262
g10
F0.00012610488288615276
ssVpredictor.namer
p263
(dp264
g10
F0.00018471131884285837
ssVcom.duowan.more
p265
(dp266
g10
F2.4250939016567839e-06
ssVcn.mixiaoxiao.myappscreenmask
p267
(dp268
g10
F0.00014590981641634981
ssVyiqi.bazi
p269
(dp270
g10
F0.010804601696514857
ssVcom.pingan.papd
p271
(dp272
g10
F8.0836463388559464e-06
ssVcom.baidu.home2
p273
(dp274
g10
F0.0012165887739978198
ssVcom.nfbazi.Pibazi
p275
(dp276
g10
F9.7003756066271357e-06
ssVcom.amigosoftware.life3_3_web_android
p277
(dp278
g10
F0.0001038748554542989
ssVcom.tencent.mtt
p279
(dp280
g10
F0.00062284495040885058
ssVcom.qq.ac.android
p281
(dp282
g10
F2.0613298164082661e-05
ssVcom.tencent.mm
p283
(dp284
g10
F0.021026372491998201
ssVcom.zhenpin.luxurystore
p285
(dp286
g10
F2.8292762185995808e-06
ssVcom.mgyapp.android
p287
(dp288
g10
F0.00010064139691875653
ssVcom.android.flashlight
p289
(dp290
g10
F0.0002554432243078479
ssVcom.yoloho.dayima
p291
(dp292
g10
F2.0209115847139866e-06
ssVcom.dp.android.elong
p293
(dp294
g10
F2.4250939016567839e-06
ssVcom.baidu.browser.apps
p295
(dp296
g10
F0.0074175538805342162
ssVcom.dendroidZ.lunarCalendarLite
p297
(dp298
g10
F5.2543701202563648e-06
ssVcom.edaixi.activity
p299
(dp300
g10
F5.2543701202563648e-06
ssVcom.anzhi.hwsettings
p301
(dp302
g10
F1.2529651825226717e-05
ssVcn.dz52pojie.www
p303
(dp304
g10
F0.00030637019624264034
ssVcom.sinovatech.unicom.ui
p305
(dp306
g10
F0.00039488612365311298
ssVcom.hotbody.fitzero
p307
(dp308
g10
F2.8292762185995808e-06
ssVcom.android.mms
p309
(dp310
g10
F0.020675542240891853
ssVcom.wandoujia.phoenix2.usbproxy
p311
(dp312
g10
F1.2933834142169513e-05
ssVcom.jswtech.numengtwo
p313
(dp314
g10
F6.4264988393904774e-05
ssVcom.yunfan.topvideo
p315
(dp316
g10
F3.0717856087652595e-05
ssVcom.mx.browser
p317
(dp318
g10
F8.8111745093529814e-05
ssVcom.android.bluetooth
p319
(dp320
g10
F0.0007008521375788105
ssVcom.android.quicksearchbox
p321
(dp322
g10
F0.00016046037982629053
ssVcom.android.camera
p323
(dp324
g10
F0.00020370788773916985
ssVcom.qq.reader
p325
(dp326
g10
F6.6690082295561547e-05
sssS'node_dict_factory'
p327
c__builtin__
dict
p328
sS'edge_attr_dict_factory'
p329
g328
sS'succ'
p330
(dp331
g8
(dp332
sg11
(dp333
Vmark.via
p334
(dp335
g10
F1.3
ssVcom.tencent.qqlive
p336
(dp337
g10
F0.69999999999999996
ssVcom.android.packageinstaller
p338
(dp339
g10
F0.40000000000000002
ssVcom.qihoo.cleandroid_cn
p340
(dp341
g10
F0.90000000000000002
ssVcom.android.deskclock
p342
(dp343
g10
F2.3999999999999999
ssVcom.android.launcher
p344
(dp345
g10
F10.1
ssVcom.tencent.mm
p346
(dp347
g10
I1
ssVcom.ifeng.news2
p348
(dp349
g10
F2.6000000000000001
sssg13
(dp350
Vcom.android.settings
p351
(dp352
g10
F0.40000000000000002
ssVcom.huawei.hidisk
p353
(dp354
g10
F0.90000000000000002
ssVcom.android.launcher
p355
(dp356
g10
I3
ssVcom.android.bluetooth
p357
(dp358
g10
F0.69999999999999996
ssVcom.tencent.mm
p359
(dp360
g10
F0.69999999999999996
ssVcom.ifeng.news2
p361
(dp362
g10
F1.8
sssg15
(dp363
g77
(dp364
g10
I1
ssVcom.android.packageinstaller
p365
(dp366
g10
F0.69999999999999996
ssVcom.SharkSoft.BirthdayCode
p367
(dp368
g10
F1.3
ssVcom.android.launcher
p369
(dp370
g10
F3.3999999999999999
ssg167
(dp371
g10
F1.3
ssg237
(dp372
g10
F0.40000000000000002
sssg17
(dp373
Vcom.android.packageinstaller
p374
(dp375
g10
F1.3
ssVcom.qihoo.cleandroid_cn
p376
(dp377
g10
F0.69999999999999996
ssVcom.android.launcher
p378
(dp379
g10
I1
sssg19
(dp380
Vcom.android.packageinstaller
p381
(dp382
g10
F0.90000000000000002
ssVcom.android.launcher
p383
(dp384
g10
F3
ssVcom.baidu.browser.apps
p385
(dp386
g10
I1
sssg21
(dp387
Vcom.wandoujia.phoenix2
p388
(dp389
g10
I1
ssg29
(dp390
g10
F10.700000000000001
ssg17
(dp391
g10
F0.40000000000000002
ssg19
(dp392
g10
F0.90000000000000002
ssVcom.baidu.netdisk
p393
(dp394
g10
F0.90000000000000002
ssVcom.shoujiduoduo.ringtone
p395
(dp396
g10
F1.3999999999999999
ssVcn.mixiaoxiao.myappscreenmask
p397
(dp398
g10
F0.40000000000000002
ssVcom.clov4r.android.nil
p399
(dp400
g10
F1.8
ssVcom.android.launcher
p401
(dp402
g10
F148.90000000000012
ssVcom.storm.smart
p403
(dp404
g10
I1
ssVcom.android.contacts
p405
(dp406
g10
F1.3
ssVcom.feistma.appmove
p407
(dp408
g10
F2.6000000000000001
ssVcom.ifeng.news2
p409
(dp410
g10
F8.9000000000000004
ssg95
(dp411
g10
F0.90000000000000002
ssVcom.tencent.qt.sns
p412
(dp413
g10
F1.7000000000000002
ssVcom.Astro.UI
p414
(dp415
g10
F3.9999999999999996
ssVcom.android.packageinstaller
p416
(dp417
g10
F21.799999999999997
ssVcom.android.gallery3d
p418
(dp419
g10
F0.90000000000000002
ssVcom.baidu.backuprestore
p420
(dp421
g10
F2.7999999999999998
ssVcom.tencent.token
p422
(dp423
g10
F2.8999999999999999
ssVyiqi.bazi
p424
(dp425
g10
F1.6000000000000001
ssVcom.huawei.hidisk
p426
(dp427
g10
F6.5000000000000009
ssVcom.tencent.mm
p428
(dp429
g10
F2.2999999999999998
ssVcom.nrop19
p430
(dp431
g10
F0.90000000000000002
ssVcn.taxen.ziwei
p432
(dp433
g10
F1.5
ssVmark.via
p434
(dp435
g10
F10.100000000000003
ssg385
(dp436
g10
F0.69999999999999996
ssg285
(dp437
g10
F0.69999999999999996
ssVcom.cubic.autohome
p438
(dp439
g10
F0.69999999999999996
ssVcom.zappallas.android.google.cocoloni.uranaicollection
p440
(dp441
g10
F0.69999999999999996
ssg209
(dp442
g10
F0.69999999999999996
ssVcom.qihoo.browser
p443
(dp444
g10
F2
ssg215
(dp445
g10
F0.40000000000000002
ssVcom.tencent.tokenre07
p446
(dp447
g10
I1
ssVcom.nd.android.pandareader
p448
(dp449
g10
F2.2000000000000002
ssVcom.tencent.mobileqq
p450
(dp451
g10
F4.2000000000000002
ssVcom.kingroot.kinguser
p452
(dp453
g10
F4.7999999999999998
ssVcom.sinovatech.unicom.ui
p454
(dp455
g10
F0.69999999999999996
ssVcom.huawei.android.totemweather
p456
(dp457
g10
F0.40000000000000002
ssVcom.android.mms
p458
(dp459
g10
F1.8
ssVcom.baidu.BaiduMap
p460
(dp461
g10
F4.3999999999999995
ssVcom.baidu.tieba
p462
(dp463
g10
F10.300000000000002
ssVcom.android.settings
p464
(dp465
g10
F0.40000000000000002
ssVcom.autohome.mycar
p466
(dp467
g10
F0.69999999999999996
sssg23
(dp468
Vcom.youku.phone
p469
(dp470
g10
I1
ssVcom.t66y.client.ui
p471
(dp472
g10
I1
ssVcom.cl.newt66y
p473
(dp474
g10
F2.7000000000000002
ssVcom.android.launcher
p475
(dp476
g10
F45.799999999999997
ssVcom.ifeng.news2
p477
(dp478
g10
F4.2999999999999998
ssVcom.android.packageinstaller
p479
(dp480
g10
F2.2999999999999998
ssVcn.mixiaoxiao.myappscreenmask
p481
(dp482
g10
F1.6000000000000001
ssVcom.tencent.token
p483
(dp484
g10
F0.69999999999999996
ssVcom.huawei.hidisk
p485
(dp486
g10
F0.80000000000000004
ssg199
(dp487
g10
F0.69999999999999996
ssVcom.android.flashlight
p488
(dp489
g10
F0.90000000000000002
ssVmark.via
p490
(dp491
g10
F7.8000000000000007
ssVcom.qihoo.cleandroid_cn
p492
(dp493
g10
F0.40000000000000002
ssVcom.Astro.UI
p494
(dp495
g10
F0.90000000000000002
ssVcom.qihoo.browser
p496
(dp497
g10
F6.7000000000000002
ssVcom.nd.android.pandareader
p498
(dp499
g10
F18.999999999999996
ssVcom.kingroot.kinguser
p500
(dp501
g10
F3.7000000000000002
ssVcom.huawei.android.totemweather
p502
(dp503
g10
F4.0999999999999996
ssVcom.android.mms
p504
(dp505
g10
F2.8999999999999999
ssVcom.baidu.tieba
p506
(dp507
g10
F10.1
ssVcom.lql.yj.bgyc
p508
(dp509
g10
F0.90000000000000002
ssg311
(dp510
g10
F0.90000000000000002
sssg25
(dp511
Vcom.nrop19
p512
(dp513
g10
F45.300000000000004
ssVcom.tencent.android.qqdownloader
p514
(dp515
g10
F1.3
ssVcom.android.gallery3d
p516
(dp517
g10
F0.90000000000000002
ssVcom.qihoo.cleandroid_cn
p518
(dp519
g10
F0.90000000000000002
ssVcom.tencent.token
p520
(dp521
g10
F3.5
ssVcom.Astro.UI
p522
(dp523
g10
F0.40000000000000002
ssVcom.huawei.hidisk
p524
(dp525
g10
I1
ssVcom.baidu.tieba
p526
(dp527
g10
F0.90000000000000002
ssVcom.android.launcher
p528
(dp529
g10
F20.399999999999995
ssVcom.ylmf.androidclient
p530
(dp531
g10
F1.8
sssg27
(dp532
Vcom.mgyapp.android
p533
(dp534
g10
F0.40000000000000002
ssVmark.via
p535
(dp536
g10
F1.3
ssVcom.baidu.browser.apps
p537
(dp538
g10
F0.40000000000000002
ssVcom.huawei.android.totemweather
p539
(dp540
g10
F0.69999999999999996
ssVcom.android.packageinstaller
p541
(dp542
g10
F3.5
ssg458
(dp543
g10
F4.5
ssVcom.qihoo.cleandroid_cn
p544
(dp545
g10
F5.2000000000000002
ssVcom.tencent.tokenlgnl
p546
(dp547
g10
F2.2999999999999998
ssVcom.baidu.home2
p548
(dp549
g10
F1.7
ssVcom.huawei.hidisk
p550
(dp551
g10
F0.90000000000000002
ssVcom.tencent.android.qqdownloader
p552
(dp553
g10
F1.5
ssVcom.android.launcher
p554
(dp555
g10
F41.199999999999996
ssVcom.android.phone
p556
(dp557
g10
F0.69999999999999996
ssVcom.android.quicksearchbox
p558
(dp559
g10
I1
ssVcom.tencent.mobileqq
p560
(dp561
g10
F1.8999999999999999
ssVcom.android.contacts
p562
(dp563
g10
F6.5000000000000009
ssVcom.ifeng.news2
p564
(dp565
g10
F0.69999999999999996
ssg131
(dp566
g10
F3.5
sssg29
(dp567
g107
(dp568
g10
F0.40000000000000002
ssVcom.baidu.browser.apps
p569
(dp570
g10
F0.69999999999999996
ssg13
(dp571
g10
I1
ssg17
(dp572
g10
F0.90000000000000002
ssg179
(dp573
g10
F0.90000000000000002
ssVcom.qihoo.cleandroid_cn
p574
(dp575
g10
F8.5000000000000018
ssg245
(dp576
g10
F1.7
ssVcom.baidu.home2
p577
(dp578
g10
I1
ssVcom.clov4r.android.nil
p579
(dp580
g10
F0.90000000000000002
ssg249
(dp581
g10
F0.90000000000000002
ssVcom.android.launcher
p582
(dp583
g10
F123.60000000000024
ssg33
(dp584
g10
I1
ssVcom.feistma.appmove
p585
(dp586
g10
F3.2999999999999998
ssVcom.eg.android.AlipayGphone
p587
(dp588
g10
F0.69999999999999996
ssg241
(dp589
g10
F1.7
ssg257
(dp590
g10
F1.7
ssVcom.tencent.qt.sns
p591
(dp592
g10
F0.90000000000000002
ssg219
(dp593
g10
F5.0999999999999996
ssg45
(dp594
g10
I1
ssg265
(dp595
g10
I1
ssVcom.android.packageinstaller
p596
(dp597
g10
F33.899999999999984
ssVcom.android.gallery3d
p598
(dp599
g10
F0.69999999999999996
ssg51
(dp600
g10
F2
ssg191
(dp601
g10
F0.40000000000000002
ssVyiqi.bazi
p602
(dp603
g10
F1.7
ssg271
(dp604
g10
F1.7
ssg361
(dp605
g10
F2.9000000000000004
ssg55
(dp606
g10
I1
ssg79
(dp607
g10
I1
ssg85
(dp608
g10
F2.3999999999999999
ssVcom.tencent.mobileqq
p609
(dp610
g10
F15.5
ssVcom.cubic.autohome
p611
(dp612
g10
I1
ssVcom.youdao.dict
p613
(dp614
g10
I1
ssVcom.nrop19
p615
(dp616
g10
F0.90000000000000002
ssVcom.tencent.mm
p617
(dp618
g10
F3.4999999999999996
ssg61
(dp619
g10
F1.5
ssVmark.via
p620
(dp621
g10
F5.4000000000000004
ssVcom.baidu.netdisk
p622
(dp623
g10
I1
ssVorg.kde.necessitas.example.YXBaZi
p624
(dp625
g10
F1.7
ssg285
(dp626
g10
I1
ssg291
(dp627
g10
F1.7
ssg137
(dp628
g10
F1.7
ssg135
(dp629
g10
I1
ssg293
(dp630
g10
F1.3999999999999999
ssg209
(dp631
g10
I1
ssg215
(dp632
g10
F1.7
ssVcom.nd.android.pandareader
p633
(dp634
g10
F1.8
ssg147
(dp635
g10
I1
ssg299
(dp636
g10
I1
ssg452
(dp637
g10
F22.800000000000001
ssg83
(dp638
g10
I1
ssVcom.android.mms
p639
(dp640
g10
F0.40000000000000002
ssg305
(dp641
g10
F3
ssg91
(dp642
g10
F3.6999999999999997
ssg307
(dp643
g10
F2.3999999999999999
ssg87
(dp644
g10
F1.7
ssVcom.baidu.BaiduMap
p645
(dp646
g10
F3
ssg231
(dp647
g10
I1
ssVcom.baidu.tieba
p648
(dp649
g10
F2
ssg317
(dp650
g10
F0.90000000000000002
ssg165
(dp651
g10
F1.7
ssVcom.android.camera
p652
(dp653
g10
F1.7000000000000002
ssg325
(dp654
g10
I1
ssVcn.mixiaoxiao.myappscreenmask
p655
(dp656
g10
F2.2999999999999998
ssg93
(dp657
g10
F5.4000000000000004
sssg31
(dp658
Vcom.android.packageinstaller
p659
(dp660
g10
I1
ssVcom.nemodigm.android.prime_fortune
p661
(dp662
g10
F1.7
sssg33
(dp663
Vcom.tencent.android.qqdownloader
p664
(dp665
g10
F0.90000000000000002
ssVcom.android.launcher
p666
(dp667
g10
F1.3999999999999999
ssg293
(dp668
g10
F0.69999999999999996
sssg35
(dp669
Vcom.android.settings
p670
(dp671
g10
F0.90000000000000002
ssVcom.kingroot.kinguser
p672
(dp673
g10
F0.90000000000000002
ssVcom.baidu.netdisk
p674
(dp675
g10
F0.90000000000000002
ssVcom.android.launcher
p676
(dp677
g10
F5.4000000000000004
ssVcom.android.contacts
p678
(dp679
g10
F0.90000000000000002
sssg37
(dp680
Vcom.tencent.android.qqdownloader
p681
(dp682
g10
F1.8
ssg13
(dp683
g10
F0.69999999999999996
ssVcom.qihoo.cleandroid_cn
p684
(dp685
g10
F2.2999999999999998
ssVcom.android.deskclock
p686
(dp687
g10
F3.8999999999999999
ssg247
(dp688
g10
F1.3
ssVcom.android.launcher
p689
(dp690
g10
F42.700000000000003
ssVcom.android.contacts
p691
(dp692
g10
F2.6000000000000001
ssVcom.ifeng.news2
p693
(dp694
g10
F2.6000000000000001
ssVcom.youdao.dict
p695
(dp696
g10
F1.8
ssVme.onemobile.android
p697
(dp698
g10
F1.3
ssg313
(dp699
g10
F0.40000000000000002
ssVcom.android.packageinstaller
p700
(dp701
g10
F8.7000000000000011
ssg51
(dp702
g10
F0.40000000000000002
ssVcom.tencent.token
p703
(dp704
g10
F0.90000000000000002
ssVcom.huawei.hidisk
p705
(dp706
g10
F1.3
ssVcom.baidu.home2
p707
(dp708
g10
F4.4000000000000004
ssVcom.android.phone
p709
(dp710
g10
F1.7
ssVcom.tencent.mobileqq
p711
(dp712
g10
I1
ssVmark.via
p713
(dp714
g10
F0.90000000000000002
ssVcom.homenetworkkeeper
p715
(dp716
g10
F1.3
ssVcom.baidu.browser.apps
p717
(dp718
g10
F0.40000000000000002
ssg448
(dp719
g10
F0.69999999999999996
ssVcom.kingroot.kinguser
p720
(dp721
g10
F12
ssVcom.android.settings
p722
(dp723
g10
F6.0000000000000009
ssg227
(dp724
g10
F1.7
ssVcom.baidu.tieba
p725
(dp726
g10
F1.7
ssVcom.huawei.android.totemweather
p727
(dp728
g10
F0.40000000000000002
sssg39
(dp729
Vcom.android.launcher
p730
(dp731
g10
F192.20000000000036
ssVcom.ss.android.article.news
p732
(dp733
g10
F1.7
ssVcom.tencent.qqlite
p734
(dp735
g10
F0.90000000000000002
ssVcom.qihoo.cleandroid_cn
p736
(dp737
g10
F12.9
ssg103
(dp738
g10
F0.69999999999999996
ssVcom.android.deskclock
p739
(dp740
g10
F23.999999999999996
ssVvStudio.Android.Camera360
p741
(dp742
g10
F1.8999999999999999
ssVcom.tencent.android.qqdownloader
p743
(dp744
g10
F9.7000000000000011
ssg189
(dp745
g10
I1
ssVcom.feistma.appmove
p746
(dp747
g10
F0.90000000000000002
ssVcom.android.contacts
p748
(dp749
g10
F5.7000000000000011
ssVcom.eg.android.AlipayGphone
p750
(dp751
g10
F2.3999999999999999
ssVcom.tencent.qt.sns
p752
(dp753
g10
F4.4000000000000004
ssg357
(dp754
g10
F0.40000000000000002
ssg47
(dp755
g10
F6.4000000000000004
ssg119
(dp756
g10
F1.8999999999999999
ssVcn.mixiaoxiao.myappscreenmask
p757
(dp758
g10
F5.5
ssVcom.tencent.token
p759
(dp760
g10
F0.90000000000000002
ssVyiqi.bazi
p761
(dp762
g10
F2.6000000000000001
ssg353
(dp763
g10
F3.0999999999999996
ssVcom.android.phone
p764
(dp765
g10
F5.4000000000000004
ssVcom.android.htmlviewer
p766
(dp767
g10
F0.40000000000000002
ssg129
(dp768
g10
F0.90000000000000002
ssg281
(dp769
g10
I1
ssVcom.tencent.mobileqq
p770
(dp771
g10
F15.900000000000002
ssVcom.ylmf.androidclient
p772
(dp773
g10
F3.7000000000000002
ssg289
(dp774
g10
F0.90000000000000002
ssVmark.via
p775
(dp776
g10
F12.200000000000001
ssVcom.android.calculator
p777
(dp778
g10
F0.69999999999999996
ssg283
(dp779
g10
F51
ssVcom.baidu.netdisk
p780
(dp781
g10
F1.7
ssg71
(dp782
g10
F10.1
ssVcom.qihoo.browser
p783
(dp784
g10
F15.000000000000002
ssg336
(dp785
g10
F1.7
ssVcom.nd.android.pandareader
p786
(dp787
g10
F2.6000000000000001
ssVcom.tencent.mtt
p788
(dp789
g10
F1.7
ssg221
(dp790
g10
F8.8000000000000007
ssg454
(dp791
g10
F1.7
ssVcom.huawei.android.totemweather
p792
(dp793
g10
F2.7000000000000002
ssg309
(dp794
g10
F11.300000000000001
ssVcom.baidu.tieba
p795
(dp796
g10
F68.900000000000006
ssVcom.android.settings
p797
(dp798
g10
F3.9999999999999996
ssVcom.amigosoftware.name7_5_web_android
p799
(dp800
g10
F0.69999999999999996
sssg41
(dp801
Vmark.via
p802
(dp803
g10
F1.3
ssVcom.tencent.android.qqdownloader
p804
(dp805
g10
F0.90000000000000002
ssVcom.kingroot.kinguser
p806
(dp807
g10
I1
ssVcom.tencent.mm
p808
(dp809
g10
F0.90000000000000002
ssVcom.android.packageinstaller
p810
(dp811
g10
F1.8999999999999999
ssVcom.t66y.client.ui
p812
(dp813
g10
F0.40000000000000002
ssVcom.tencent.token
p814
(dp815
g10
F0.40000000000000002
ssVcn.mixiaoxiao.myappscreenmask
p816
(dp817
g10
F1.3
ssVcom.qihoo.browser
p818
(dp819
g10
F1.3
ssVcom.baidu.tieba
p820
(dp821
g10
F4.9000000000000004
ssg163
(dp822
g10
F0.69999999999999996
ssVcom.android.launcher
p823
(dp824
g10
F42.500000000000007
ssg217
(dp825
g10
F1.3
ssVcom.qihoo.cleandroid_cn
p826
(dp827
g10
F1.3
ssg281
(dp828
g10
F0.69999999999999996
ssVcom.tencent.mobileqq
p829
(dp830
g10
I1
ssVcom.ifeng.news2
p831
(dp832
g10
F3.1000000000000001
ssVcom.youku.phone
p833
(dp834
g10
F0.90000000000000002
sssg43
(dp835
g263
(dp836
g10
F0.40000000000000002
ssVcom.android.packageinstaller
p837
(dp838
g10
F2.2000000000000002
ssVcom.android.launcher
p839
(dp840
g10
F5.1000000000000005
sssg45
(dp841
Vcom.android.packageinstaller
p842
(dp843
g10
F0.69999999999999996
ssVcom.android.launcher
p844
(dp845
g10
F1.3
ssVcom.tencent.android.qqdownloader
p846
(dp847
g10
I1
sssg47
(dp848
g175
(dp849
g10
F0.40000000000000002
ssg569
(dp850
g10
I1
ssVyt.wnl
p851
(dp852
g10
F0.90000000000000002
ssg15
(dp853
g10
F0.69999999999999996
ssg179
(dp854
g10
F0.40000000000000002
ssVworkshop.namestroes
p855
(dp856
g10
I1
ssg21
(dp857
g10
F45.79999999999999
ssVcn.mixiaoxiao.myappscreenmask
p858
(dp859
g10
F3.6000000000000005
ssVcom.android.deskclock
p860
(dp861
g10
F2.6999999999999997
ssg579
(dp862
g10
F3.8999999999999999
ssg249
(dp863
g10
F0.40000000000000002
ssg177
(dp864
g10
F1.8
ssg109
(dp865
g10
F0.69999999999999996
ssg401
(dp866
g10
F193.70000000000007
ssVcom.zappallas.android.app.shunsui
p867
(dp868
g10
I1
ssVcom.storm.smart
p869
(dp870
g10
F1.3
ssVme.onemobile.android
p871
(dp872
g10
F9.6999999999999993
ssg261
(dp873
g10
F0.90000000000000002
ssVcom.feistma.appmove
p874
(dp875
g10
F5.5999999999999996
ssVcom.ifeng.news2
p876
(dp877
g10
F3.6000000000000001
ssg95
(dp878
g10
F1.7
ssg257
(dp879
g10
F0.90000000000000002
ssg412
(dp880
g10
F0.40000000000000002
ssg77
(dp881
g10
F0.40000000000000002
ssg263
(dp882
g10
F2.6000000000000001
ssVcom.android.bluetooth
p883
(dp884
g10
F1.3999999999999999
ssg49
(dp885
g10
F0.90000000000000002
ssVcom.baidu.backuprestore
p886
(dp887
g10
F1.1000000000000001
ssVcom.tencent.token
p888
(dp889
g10
F3.1999999999999997
ssVcom.huawei.hidisk
p890
(dp891
g10
F28.699999999999989
ssg587
(dp892
g10
I1
ssVcom.baidu.home2
p893
(dp894
g10
F1.7
ssg275
(dp895
g10
F1.5
ssg127
(dp896
g10
F1.1000000000000001
ssg79
(dp897
g10
F0.69999999999999996
ssVcom.tencent.tokenlgnl
p898
(dp899
g10
F0.90000000000000002
ssg428
(dp900
g10
F3
ssVcom.nemodigm.android.prime_fortune
p901
(dp902
g10
F2.7000000000000002
ssg201
(dp903
g10
F1.3999999999999999
ssVcom.nrop19
p904
(dp905
g10
I1
ssg19
(dp906
g10
F0.40000000000000002
ssVmark.via
p907
(dp908
g10
F2.2000000000000002
ssg440
(dp909
g10
F1.7000000000000002
ssg438
(dp910
g10
F1.3
ssg141
(dp911
g10
F0.90000000000000002
ssVcom.baidu.netdisk
p912
(dp913
g10
F0.69999999999999996
ssg209
(dp914
g10
F0.40000000000000002
ssg159
(dp915
g10
F2.2999999999999998
ssVcom.qihoo.browser
p916
(dp917
g10
F3.6000000000000001
ssVcom.homenetworkkeeper
p918
(dp919
g10
F2.5999999999999996
ssg215
(dp920
g10
F2.7000000000000002
ssg143
(dp921
g10
F0.40000000000000002
ssVcom.android.calculator
p922
(dp923
g10
F0.69999999999999996
ssg446
(dp924
g10
F0.69999999999999996
ssg145
(dp925
g10
F4.2000000000000002
ssg720
(dp926
g10
F4.7999999999999998
ssg151
(dp927
g10
F0.40000000000000002
ssg303
(dp928
g10
F0.80000000000000004
ssg153
(dp929
g10
F2.3999999999999999
ssVcom.tencent.mobileqq
p930
(dp931
g10
F3
ssg29
(dp932
g10
F24.699999999999989
ssg639
(dp933
g10
F1.8
ssVcom.baidu.BaiduMap
p934
(dp935
g10
F2.6999999999999997
ssVcom.SharkSoft.BirthdayCode
p936
(dp937
g10
I1
ssg231
(dp938
g10
F0.69999999999999996
ssg233
(dp939
g10
F1.3
ssVcom.baidu.tieba
p940
(dp941
g10
F6.5000000000000009
ssg235
(dp942
g10
F0.90000000000000002
ssVcom.android.settings
p943
(dp944
g10
F8.5
ssg169
(dp945
g10
F0.90000000000000002
ssg171
(dp946
g10
F1.3
sssg49
(dp947
Vme.onemobile.android
p948
(dp949
g10
I1
ssVcom.android.launcher
p950
(dp951
g10
F0.90000000000000002
sssg51
(dp952
Vcom.kingroot.kinguser
p953
(dp954
g10
I1
ssVcom.nrop19
p955
(dp956
g10
F0.40000000000000002
ssVcom.android.contacts
p957
(dp958
g10
F1.8999999999999999
ssg223
(dp959
g10
F1.3
ssVcom.android.settings
p960
(dp961
g10
F3.2999999999999998
ssg541
(dp962
g10
F0.80000000000000004
ssVcom.qihoo.cleandroid_cn
p963
(dp964
g10
F1.7
ssg422
(dp965
g10
F4.7999999999999998
ssg105
(dp966
g10
F2
ssVcom.baidu.home2
p967
(dp968
g10
F4.7000000000000002
ssVcom.qihoo.browser
p969
(dp970
g10
F0.90000000000000002
ssVcom.android.launcher
p971
(dp972
g10
F25.399999999999991
ssVcom.tencent.mm
p973
(dp974
g10
I2
ssg407
(dp975
g10
F0.90000000000000002
ssVcom.eg.android.AlipayGphone
p976
(dp977
g10
F0.90000000000000002
ssVcom.tencent.tokenqqfa
p978
(dp979
g10
F0.90000000000000002
sssg53
(dp980
Vcom.feistma.appmove
p981
(dp982
g10
F1.5
ssVcom.android.launcher
p983
(dp984
g10
F4.5
sssg55
(dp985
Vcom.android.launcher
p986
(dp987
g10
F1.7
ssVyiqi.bazi
p988
(dp989
g10
F0.90000000000000002
sssg57
(dp990
Vcom.tencent.android.qqdownloader
p991
(dp992
g10
F12.800000000000001
ssVcom.lanteanstudio.compass
p993
(dp994
g10
F0.40000000000000002
ssVcom.tencent.qqlite
p995
(dp996
g10
F2.7000000000000002
ssVcom.qihoo.cleandroid_cn
p997
(dp998
g10
F9.6999999999999993
ssg432
(dp999
g10
F3.5
ssVcom.baidu.home2
p1000
(dp1001
g10
I1
ssVvStudio.Android.Camera360
p1002
(dp1003
g10
F3.8999999999999995
ssVcom.android.launcher
p1004
(dp1005
g10
F137.8000000000001
ssVcom.android.contacts
p1006
(dp1007
g10
F10.600000000000001
ssVcom.ifeng.news2
p1008
(dp1009
g10
F12.000000000000002
ssVcn.wps.moffice_tpt
p1010
(dp1011
g10
F5.5999999999999996
ssVcom.tencent.qt.sns
p1012
(dp1013
g10
F1.8999999999999999
ssVcom.android.packageinstaller
p1014
(dp1015
g10
F1.1000000000000001
ssVcom.android.gallery3d
p1016
(dp1017
g10
F3.2999999999999998
ssVcn.mixiaoxiao.myappscreenmask
p1018
(dp1019
g10
F1.3
ssVcom.tencent.token
p1020
(dp1021
g10
F4
ssg602
(dp1022
g10
F1.3
ssg426
(dp1023
g10
F2.6999999999999997
ssVcom.eg.android.AlipayGphone
p1024
(dp1025
g10
F1.7000000000000002
ssVcom.android.phone
p1026
(dp1027
g10
F0.69999999999999996
ssg279
(dp1028
g10
I2
ssVcom.tencent.tokenlgnl
p1029
(dp1030
g10
F1.3
ssVcom.tencent.mm
p1031
(dp1032
g10
F18.199999999999996
ssVcom.ylmf.androidclient
p1033
(dp1034
g10
F0.69999999999999996
ssVcom.tencent.tokenqqfa
p1035
(dp1036
g10
F0.40000000000000002
ssg613
(dp1037
g10
F0.69999999999999996
ssVcom.android.flashlight
p1038
(dp1039
g10
F0.90000000000000002
ssVcom.android.calculator
p1040
(dp1041
g10
F0.90000000000000002
ssg149
(dp1042
g10
I1
ssVcom.baidu.netdisk
p1043
(dp1044
g10
F0.69999999999999996
ssVcom.Astro.UI
p1045
(dp1046
g10
F2.7999999999999998
ssVcom.qihoo.browser
p1047
(dp1048
g10
F2.0999999999999996
ssVcom.baidu.browser.apps
p1049
(dp1050
g10
F0.90000000000000002
ssVcom.huawei.inputmethod.hwpal
p1051
(dp1052
g10
F1.7
ssVcom.nd.android.pandareader
p1053
(dp1054
g10
F4.1000000000000005
ssg221
(dp1055
g10
F7.1000000000000005
ssVcn.dz52pojie.www
p1056
(dp1057
g10
F1.3
ssVcom.android.settings
p1058
(dp1059
g10
F4.9000000000000004
ssg307
(dp1060
g10
F0.40000000000000002
ssVcom.android.mms
p1061
(dp1062
g10
F3.2999999999999998
ssVcom.baidu.tieba
p1063
(dp1064
g10
F12.700000000000003
ssVcom.huawei.android.totemweather
p1065
(dp1066
g10
F0.90000000000000002
ssVcom.android.quicksearchbox
p1067
(dp1068
g10
F0.90000000000000002
ssVcom.android.camera
p1069
(dp1070
g10
F6.1000000000000005
sssg59
(dp1071
Vcom.simple.fortuneteller
p1072
(dp1073
g10
F1.7000000000000002
ssVorg.kde.necessitas.example.YXBaZi
p1074
(dp1075
g10
F1.7000000000000002
ssVorg.kde.necessitas.ministro
p1076
(dp1077
g10
F0.69999999999999996
ssVcom.android.launcher
p1078
(dp1079
g10
F10.5
ssVcom.amigosoftware.name7_6_web_android
p1080
(dp1081
g10
F0.90000000000000002
ssVcom.android.packageinstaller
p1082
(dp1083
g10
F1.3
sssg61
(dp1084
g1016
(dp1085
g10
F7.0000000000000009
ssVcom.android.packageinstaller
p1086
(dp1087
g10
F1.5
ssVcom.tencent.mobileqq
p1088
(dp1089
g10
F3.5
ssVcom.qihoo.cleandroid_cn
p1090
(dp1091
g10
F1.5
ssVcom.android.launcher
p1092
(dp1093
g10
F3.5
sssg63
(dp1094
Vcom.tencent.android.qqdownloader
p1095
(dp1096
g10
F5
ssVcom.qihoo.cleandroid_cn
p1097
(dp1098
g10
F9.4000000000000004
ssVcom.android.deskclock
p1099
(dp1100
g10
F15.999999999999998
ssVcom.clov4r.android.nil
p1101
(dp1102
g10
F0.40000000000000002
ssVvStudio.Android.Camera360
p1103
(dp1104
g10
F0.90000000000000002
ssVcom.android.launcher
p1105
(dp1106
g10
F90.800000000000054
ssg33
(dp1107
g10
F0.69999999999999996
ssVcom.feistma.appmove
p1108
(dp1109
g10
F0.40000000000000002
ssVcom.android.contacts
p1110
(dp1111
g10
I2
ssVcom.ifeng.news2
p1112
(dp1113
g10
F11.200000000000003
ssVcn.wps.moffice_tpt
p1114
(dp1115
g10
F0.90000000000000002
ssVcom.android.packageinstaller
p1116
(dp1117
g10
F5.2000000000000002
ssVcn.mixiaoxiao.myappscreenmask
p1118
(dp1119
g10
I2
ssg483
(dp1120
g10
F1.3
ssVyiqi.bazi
p1121
(dp1122
g10
F3.1000000000000001
ssVcom.huawei.hidisk
p1123
(dp1124
g10
F1.7
ssVcom.android.phone
p1125
(dp1126
g10
I1
ssVcom.tencent.mm
p1127
(dp1128
g10
F3.5999999999999996
ssVcom.ylmf.androidclient
p1129
(dp1130
g10
I1
ssVcom.nrop19
p1131
(dp1132
g10
F0.69999999999999996
ssg67
(dp1133
g10
I1
ssVcom.baidu.netdisk
p1134
(dp1135
g10
F1.7
ssVcom.Astro.UI
p1136
(dp1137
g10
I1
ssVcom.qihoo.browser
p1138
(dp1139
g10
F2.2999999999999998
ssVcom.tencent.qqlive
p1140
(dp1141
g10
F1.3
ssVcom.nd.android.pandareader
p1142
(dp1143
g10
F7.5999999999999996
ssVcom.tencent.mobileqq
p1144
(dp1145
g10
F3.5
ssVcom.kingroot.kinguser
p1146
(dp1147
g10
F15.499999999999998
ssg456
(dp1148
g10
F0.69999999999999996
ssVcom.android.mms
p1149
(dp1150
g10
I1
ssVcom.baidu.tieba
p1151
(dp1152
g10
F20.099999999999998
ssVcom.android.settings
p1153
(dp1154
g10
F3.8999999999999999
sssg65
(dp1155
Vcom.anzhi.hwsettings
p1156
(dp1157
g10
F0.90000000000000002
ssVcom.android.mms
p1158
(dp1159
g10
F0.90000000000000002
ssVcom.qihoo.browser
p1160
(dp1161
g10
F1.6000000000000001
ssVcom.android.launcher
p1162
(dp1163
g10
F8.5
ssVcom.android.contacts
p1164
(dp1165
g10
F0.40000000000000002
ssVcom.ifeng.news2
p1166
(dp1167
g10
F0.90000000000000002
sssg67
(dp1168
Vcom.kingroot.kinguser
p1169
(dp1170
g10
I1
ssVcom.tencent.android.qqdownloader
p1171
(dp1172
g10
F0.40000000000000002
ssVcom.qihoo.cleandroid_cn
p1173
(dp1174
g10
F0.90000000000000002
ssVcom.android.launcher
p1175
(dp1176
g10
F2.7000000000000002
sssg69
(dp1177
Vcom.android.packageinstaller
p1178
(dp1179
g10
F2.2999999999999998
ssVcom.android.launcher
p1180
(dp1181
g10
F0.40000000000000002
ssg159
(dp1182
g10
F2.3999999999999999
sssg71
(dp1183
g500
(dp1184
g10
F0.90000000000000002
ssVcom.android.contacts
p1185
(dp1186
g10
F2.2000000000000002
ssVcom.tencent.qt.sns
p1187
(dp1188
g10
F0.69999999999999996
ssVmark.via
p1189
(dp1190
g10
F2.1000000000000001
ssg456
(dp1191
g10
F2.2000000000000002
ssVcom.android.packageinstaller
p1192
(dp1193
g10
F0.90000000000000002
ssVcom.tencent.mm
p1194
(dp1195
g10
F1.8
ssg157
(dp1196
g10
F0.40000000000000002
ssVcom.qihoo.cleandroid_cn
p1197
(dp1198
g10
F4.1000000000000005
ssVyiqi.bazi
p1199
(dp1200
g10
I1
ssg739
(dp1201
g10
F1.8
ssVcom.huawei.hidisk
p1202
(dp1203
g10
F0.90000000000000002
ssVvStudio.Android.Camera360
p1204
(dp1205
g10
F0.40000000000000002
ssVcom.baidu.tieba
p1206
(dp1207
g10
F1.3
ssVcom.ifeng.news2
p1208
(dp1209
g10
F0.90000000000000002
ssVcom.android.launcher
p1210
(dp1211
g10
F49
ssVcom.android.settings
p1212
(dp1213
g10
F0.40000000000000002
ssVcom.nd.android.pandareader
p1214
(dp1215
g10
F1.3
ssVcom.tencent.mobileqq
p1216
(dp1217
g10
F1.8
ssVcom.android.mms
p1218
(dp1219
g10
F0.90000000000000002
ssg1024
(dp1220
g10
F0.90000000000000002
sssg73
(dp1221
Vcom.baidu.home2
p1222
(dp1223
g10
F2.3999999999999999
ssVcn.wps.moffice_tpt
p1224
(dp1225
g10
I1
ssVcom.tencent.android.qqdownloader
p1226
(dp1227
g10
F1.3
sssg75
(dp1228
g81
(dp1229
g10
F1.3
ssVcom.tencent.android.qqdownloader
p1230
(dp1231
g10
F0.69999999999999996
ssVcom.android.launcher
p1232
(dp1233
g10
F4.0999999999999996
sssg77
(dp1234
g167
(dp1235
g10
F0.69999999999999996
ssg369
(dp1236
g10
F1.3
ssVcom.zq.Fate
p1237
(dp1238
g10
I1
sssg79
(dp1239
g91
(dp1240
g10
F0.90000000000000002
ssg596
(dp1241
g10
F0.69999999999999996
ssVcom.qihoo.cleandroid_cn
p1242
(dp1243
g10
F0.40000000000000002
ssg582
(dp1244
g10
I1
sssg81
(dp1245
Vcom.android.settings
p1246
(dp1247
g10
I1
ssVcom.android.launcher
p1248
(dp1249
g10
F2.6000000000000001
ssg1230
(dp1250
g10
I1
sssg83
(dp1251
Vcom.android.launcher
p1252
(dp1253
g10
F0.69999999999999996
ssVcom.tencent.android.qqdownloader
p1254
(dp1255
g10
F1.3999999999999999
ssg245
(dp1256
g10
F0.90000000000000002
sssg85
(dp1257
Vcom.android.packageinstaller
p1258
(dp1259
g10
F0.40000000000000002
ssVcom.tencent.android.qqdownloader
p1260
(dp1261
g10
F1.3
ssVcom.android.launcher
p1262
(dp1263
g10
F3.4000000000000004
sssg87
(dp1264
Vcom.android.packageinstaller
p1265
(dp1266
g10
F0.69999999999999996
ssVcom.android.launcher
p1267
(dp1268
g10
F1.3
ssVcom.tencent.android.qqdownloader
p1269
(dp1270
g10
I1
sssg89
(dp1271
Vcom.jiongji.andriod.card
p1272
(dp1273
g10
F0.40000000000000002
ssVcom.android.launcher
p1274
(dp1275
g10
F299.69999999999959
ssg255
(dp1276
g10
F1.5
ssg157
(dp1277
g10
F0.90000000000000002
ssVcom.qihoo.cleandroid_cn
p1278
(dp1279
g10
F11.900000000000002
ssg103
(dp1280
g10
F6.4000000000000004
ssVcom.huawei.android.totemweather
p1281
(dp1282
g10
F0.90000000000000002
ssVcom.android.deskclock
p1283
(dp1284
g10
F11.5
ssVvStudio.Android.Camera360
p1285
(dp1286
g10
F2.6000000000000001
ssVcom.tencent.android.qqdownloader
p1287
(dp1288
g10
F3.7999999999999998
ssg874
(dp1289
g10
F2
ssVcom.android.contacts
p1290
(dp1291
g10
F10.4
ssg39
(dp1292
g10
F46.799999999999955
ssg1114
(dp1293
g10
F1.3
ssg41
(dp1294
g10
F9.2000000000000011
ssg319
(dp1295
g10
F0.69999999999999996
ssg810
(dp1296
g10
F5.3000000000000007
ssVcom.android.gallery3d
p1297
(dp1298
g10
F1.1000000000000001
ssg481
(dp1299
g10
F8.9000000000000004
ssg424
(dp1300
g10
F1.7000000000000002
ssVcom.huawei.hidisk
p1301
(dp1302
g10
F2.3999999999999999
ssVcom.eg.android.AlipayGphone
p1303
(dp1304
g10
F0.90000000000000002
ssVcom.baidu.home2
p1305
(dp1306
g10
F2.3999999999999999
ssVcom.android.phone
p1307
(dp1308
g10
F8.4000000000000004
ssVcom.tencent.mtt
p1309
(dp1310
g10
F0.90000000000000002
ssVcom.tencent.mobileqq
p1311
(dp1312
g10
F10.300000000000002
ssVcom.ylmf.androidclient
p1313
(dp1314
g10
F1.1000000000000001
ssVcom.android.flashlight
p1315
(dp1316
g10
F0.90000000000000002
ssVmark.via
p1317
(dp1318
g10
F12.300000000000002
ssVcom.baidu.netdisk
p1319
(dp1320
g10
F2.6000000000000001
ssg812
(dp1321
g10
F0.90000000000000002
ssg71
(dp1322
g10
F1.3
ssVcom.qihoo.browser
p1323
(dp1324
g10
F19.299999999999994
ssg213
(dp1325
g10
F0.69999999999999996
ssVcom.tencent.qqlive
p1326
(dp1327
g10
F1.3
ssVcom.android.calculator
p1328
(dp1329
g10
F0.40000000000000002
ssVcom.tencent.tokenlgnl
p1330
(dp1331
g10
F0.90000000000000002
ssVcom.kingroot.kinguser
p1332
(dp1333
g10
F8.5
ssVcom.tencent.mm
p1334
(dp1335
g10
F14.000000000000002
ssVcom.android.mms
p1336
(dp1337
g10
F11.700000000000001
ssg460
(dp1338
g10
F0.40000000000000002
ssVcom.android.settings
p1339
(dp1340
g10
F15.400000000000002
ssg321
(dp1341
g10
F1.7000000000000002
ssg323
(dp1342
g10
F0.90000000000000002
sssg91
(dp1343
Vcom.simple.fortuneteller
p1344
(dp1345
g10
F0.69999999999999996
ssg743
(dp1346
g10
F4.1000000000000005
ssg15
(dp1347
g10
F1.3
ssVcom.android.mms
p1348
(dp1349
g10
F3.8999999999999999
ssg1242
(dp1350
g10
F1.8
ssVcom.baidu.backuprestore
p1351
(dp1352
g10
F2.7000000000000002
ssg1305
(dp1353
g10
F1.3
ssVcom.clov4r.android.nil
p1354
(dp1355
g10
F0.69999999999999996
ssVcom.android.launcher
p1356
(dp1357
g10
F77.100000000000023
ssVme.onemobile.android
p1358
(dp1359
g10
F0.40000000000000002
ssVcom.feistma.appmove
p1360
(dp1361
g10
F7.8000000000000007
ssg255
(dp1362
g10
F3.5
ssVcom.ifeng.news2
p1363
(dp1364
g10
F4.0999999999999996
ssVmark.via
p1365
(dp1366
g10
F3.3999999999999999
ssVpredictor.namer
p1367
(dp1368
g10
F0.69999999999999996
ssg596
(dp1369
g10
F6.4000000000000004
ssVcn.mixiaoxiao.myappscreenmask
p1370
(dp1371
g10
F1.8
ssg602
(dp1372
g10
F0.90000000000000002
ssVcom.huawei.hidisk
p1373
(dp1374
g10
F11.300000000000001
ssVcom.eg.android.AlipayGphone
p1375
(dp1376
g10
F1.3999999999999999
ssVcom.android.phone
p1377
(dp1378
g10
F52.5
ssg85
(dp1379
g10
F0.40000000000000002
ssVcom.tencent.mm
p1380
(dp1381
g10
F2.2999999999999998
ssVcom.ylmf.androidclient
p1382
(dp1383
g10
F3.2999999999999998
ssg955
(dp1384
g10
F1.3
ssVcom.android.contacts
p1385
(dp1386
g10
F5.4000000000000004
ssVcom.huawei.KoBackup
p1387
(dp1388
g10
I1
ssg922
(dp1389
g10
F1.3
ssg133
(dp1390
g10
F10.199999999999999
ssg207
(dp1391
g10
F0.69999999999999996
ssVcom.qihoo.browser
p1392
(dp1393
g10
F8
ssg918
(dp1394
g10
F1.3999999999999999
ssg77
(dp1395
g10
F0.69999999999999996
ssVcom.kingroot.kinguser
p1396
(dp1397
g10
F1.3999999999999999
ssg1156
(dp1398
g10
F0.40000000000000002
ssVcom.tencent.mobileqq
p1399
(dp1400
g10
F3.6999999999999997
ssg105
(dp1401
g10
F0.69999999999999996
ssVcom.baidu.BaiduMap
p1402
(dp1403
g10
F1.7
ssVcom.baidu.tieba
p1404
(dp1405
g10
F13.800000000000002
ssVcom.amigosoftware.name7_5_web_android
p1406
(dp1407
g10
F0.69999999999999996
sssg93
(dp1408
g219
(dp1409
g10
F1.3
ssVcom.tencent.android.qqdownloader
p1410
(dp1411
g10
F6.7999999999999998
ssVcom.android.launcher
p1412
(dp1413
g10
F2.6999999999999997
ssVcom.qihoo.cleandroid_cn
p1414
(dp1415
g10
F0.69999999999999996
sssg95
(dp1416
g257
(dp1417
g10
F0.40000000000000002
ssVcom.tencent.qt.sns
p1418
(dp1419
g10
F0.40000000000000002
ssVcom.tencent.android.qqdownloader
p1420
(dp1421
g10
F2.3999999999999999
ssVcom.kingroot.kinguser
p1422
(dp1423
g10
F0.69999999999999996
ssVcom.tencent.mm
p1424
(dp1425
g10
F2.7000000000000002
ssVcom.android.packageinstaller
p1426
(dp1427
g10
F0.90000000000000002
ssVcom.youdao.dict
p1428
(dp1429
g10
F4.2999999999999998
ssVcom.android.mms
p1430
(dp1431
g10
F1.3999999999999999
ssVcom.qihoo.cleandroid_cn
p1432
(dp1433
g10
F0.40000000000000002
ssVyiqi.bazi
p1434
(dp1435
g10
F0.90000000000000002
ssg1222
(dp1436
g10
F2.2999999999999998
ssVcom.android.fileexplorer
p1437
(dp1438
g10
I1
ssVcom.baidu.tieba
p1439
(dp1440
g10
F1.3
ssVcom.ifeng.news2
p1441
(dp1442
g10
F1.3
ssVcom.android.launcher
p1443
(dp1444
g10
F16
ssg1053
(dp1445
g10
F0.90000000000000002
ssVcom.tencent.mobileqq
p1446
(dp1447
g10
F7.2000000000000011
ssg1018
(dp1448
g10
F2.7000000000000002
ssVcom.android.deskclock
p1449
(dp1450
g10
I1
sssg97
(dp1451
Vcom.android.packageinstaller
p1452
(dp1453
g10
F0.90000000000000002
ssVcom.qihoo.cleandroid_cn
p1454
(dp1455
g10
F0.40000000000000002
ssVcom.android.launcher
p1456
(dp1457
g10
F1.7
sssg99
(dp1458
g893
(dp1459
g10
F1.3
ssVcom.android.packageinstaller
p1460
(dp1461
g10
I1
ssg898
(dp1462
g10
F0.69999999999999996
sssg101
(dp1463
g203
(dp1464
g10
F0.40000000000000002
ssVcom.android.packageinstaller
p1465
(dp1466
g10
F0.90000000000000002
ssg23
(dp1467
g10
F0.90000000000000002
ssg916
(dp1468
g10
F0.40000000000000002
ssVcom.android.launcher
p1469
(dp1470
g10
F6.7999999999999998
ssg199
(dp1471
g10
F0.90000000000000002
sssg103
(dp1472
Vcom.kingroot.kinguser
p1473
(dp1474
g10
F0.90000000000000002
ssg462
(dp1475
g10
F4
ssVcom.ifeng.news2
p1476
(dp1477
g10
F1.3
ssVcom.android.launcher
p1478
(dp1479
g10
F4.7000000000000002
sssg105
(dp1480
Vcom.tencent.mobileqq
p1481
(dp1482
g10
F0.90000000000000002
ssVcom.android.mms
p1483
(dp1484
g10
F0.69999999999999996
ssVcom.baidu.backuprestore
p1485
(dp1486
g10
F0.90000000000000002
ssVcom.baidu.home2
p1487
(dp1488
g10
I2
ssVcom.android.launcher
p1489
(dp1490
g10
F6.2000000000000002
ssg75
(dp1491
g10
F0.40000000000000002
ssVcom.tencent.mm
p1492
(dp1493
g10
F0.90000000000000002
ssVcom.tencent.tokenqqfa
p1494
(dp1495
g10
F1.8
sssg107
(dp1496
Vcom.android.packageinstaller
p1497
(dp1498
g10
I1
ssVcom.feistma.appmove
p1499
(dp1500
g10
F0.69999999999999996
ssg904
(dp1501
g10
F2.6000000000000001
ssVcom.android.launcher
p1502
(dp1503
g10
F1.7000000000000002
ssVcom.qihoo.cleandroid_cn
p1504
(dp1505
g10
F1.3999999999999999
sssg109
(dp1506
Vcom.android.deskclock
p1507
(dp1508
g10
F2.7000000000000002
ssVcom.kingroot.kinguser
p1509
(dp1510
g10
F1.3
ssVcom.qihoo.browser
p1511
(dp1512
g10
F1.7
ssVcom.android.contacts
p1513
(dp1514
g10
F0.90000000000000002
ssVcom.android.launcher
p1515
(dp1516
g10
F2.1000000000000001
sssg111
(dp1517
Vcom.android.settings
p1518
(dp1519
g10
I1
sssg113
(dp1520
Vcom.android.settings
p1521
(dp1522
g10
F0.90000000000000002
ssVcom.youdao.dict
p1523
(dp1524
g10
I1
sssg115
(dp1525
Vmark.via
p1526
(dp1527
g10
I1
ssVcom.qihoo.cleandroid_cn
p1528
(dp1529
g10
F0.69999999999999996
ssVcom.android.launcher
p1530
(dp1531
g10
F1.8999999999999999
sssg117
(dp1532
Vcom.kingroot.kinguser
p1533
(dp1534
g10
F4.0999999999999996
ssg177
(dp1535
g10
F0.40000000000000002
ssg313
(dp1536
g10
F0.90000000000000002
ssVcom.android.settings
p1537
(dp1538
g10
F1.3999999999999999
ssVcom.android.packageinstaller
p1539
(dp1540
g10
F11
ssg934
(dp1541
g10
F2.2999999999999998
ssVcom.qihoo.cleandroid_cn
p1542
(dp1543
g10
F0.69999999999999996
ssVcom.baidu.tieba
p1544
(dp1545
g10
F0.90000000000000002
ssVcom.android.launcher
p1546
(dp1547
g10
F21.599999999999998
ssg31
(dp1548
g10
F1.3
ssVcom.android.quicksearchbox
p1549
(dp1550
g10
F1.3
ssVcom.nd.android.pandareader
p1551
(dp1552
g10
F1.3
sssg119
(dp1553
Vcom.android.flashlight
p1554
(dp1555
g10
F0.90000000000000002
ssVcom.nrop19
p1556
(dp1557
g10
F1.7
ssVcom.android.launcher
p1558
(dp1559
g10
F16.399999999999999
ssVcom.clov4r.android.nil
p1560
(dp1561
g10
F0.90000000000000002
ssVcom.tencent.mm
p1562
(dp1563
g10
F0.40000000000000002
ssVcom.android.mms
p1564
(dp1565
g10
F1.7
ssVcom.qihoo.cleandroid_cn
p1566
(dp1567
g10
F1.6000000000000001
ssVcn.taxen.ziwei
p1568
(dp1569
g10
F7.0000000000000009
ssVcom.android.deskclock
p1570
(dp1571
g10
F1.3
ssVcom.huawei.hidisk
p1572
(dp1573
g10
F5.4000000000000004
ssVvStudio.Android.Camera360
p1574
(dp1575
g10
F1.7
ssVcom.baidu.tieba
p1576
(dp1577
g10
F0.90000000000000002
ssVcom.baidu.browser.apps
p1578
(dp1579
g10
F0.69999999999999996
ssVcom.android.camera
p1580
(dp1581
g10
F2.7000000000000002
ssVcom.nd.android.pandareader
p1582
(dp1583
g10
F0.90000000000000002
ssVcom.tencent.mobileqq
p1584
(dp1585
g10
F1.3
ssVcom.android.contacts
p1586
(dp1587
g10
F2.2000000000000002
ssVcom.ifeng.news2
p1588
(dp1589
g10
F1.3
sssg121
(dp1590
Vcom.android.packageinstaller
p1591
(dp1592
g10
F0.90000000000000002
ssVcom.ifeng.news2
p1593
(dp1594
g10
F0.40000000000000002
ssVcom.android.launcher
p1595
(dp1596
g10
F1.7
sssg123
(dp1597
Vcom.kingroot.kinguser
p1598
(dp1599
g10
F2.0999999999999996
ssVcom.android.contacts
p1600
(dp1601
g10
F0.80000000000000004
ssg11
(dp1602
g10
I1
ssg344
(dp1603
g10
F27.799999999999994
ssVcom.android.packageinstaller
p1604
(dp1605
g10
F0.40000000000000002
ssVcom.android.mms
p1606
(dp1607
g10
F6.8000000000000016
ssVcom.baidu.BaiduMap
p1608
(dp1609
g10
F0.69999999999999996
ssVcn.mixiaoxiao.myappscreenmask
p1610
(dp1611
g10
F3.0999999999999996
ssVcom.huawei.hidisk
p1612
(dp1613
g10
I1
ssVcom.qihoo.browser
p1614
(dp1615
g10
F1.3
ssVcom.baidu.tieba
p1616
(dp1617
g10
F2.5
ssVcom.yidalianke.app
p1618
(dp1619
g10
F0.90000000000000002
ssVcom.tencent.android.qqdownloader
p1620
(dp1621
g10
F2.2000000000000002
ssVcom.qihoo.cleandroid_cn
p1622
(dp1623
g10
F2.2000000000000002
ssVcom.tencent.mm
p1624
(dp1625
g10
F3.7999999999999998
ssVcom.feistma.appmove
p1626
(dp1627
g10
F0.40000000000000002
ssVcom.ifeng.news2
p1628
(dp1629
g10
F0.90000000000000002
sssg125
(dp1630
Vcom.jiongji.andriod.card
p1631
(dp1632
g10
I1
ssVcom.qihoo.cleandroid_cn
p1633
(dp1634
g10
F4.5
ssVcom.tencent.tokenlgnl
p1635
(dp1636
g10
F0.40000000000000002
ssVcom.android.deskclock
p1637
(dp1638
g10
F2.2999999999999998
ssVvStudio.Android.Camera360
p1639
(dp1640
g10
I1
ssVcom.android.launcher
p1641
(dp1642
g10
F129.60000000000016
ssVcom.android.contacts
p1643
(dp1644
g10
F167.00000000000009
ssVcom.ifeng.news2
p1645
(dp1646
g10
F10.199999999999999
ssVcom.sankuai.meituan
p1647
(dp1648
g10
F3.4000000000000004
ssg267
(dp1649
g10
F2
ssVcom.tencent.token
p1650
(dp1651
g10
F2.7999999999999998
ssVcom.eg.android.AlipayGphone
p1652
(dp1653
g10
F0.69999999999999996
ssVcom.tencent.mm
p1654
(dp1655
g10
F6
ssVcom.ylmf.androidclient
p1656
(dp1657
g10
I1
ssVcom.tencent.tokenqqfa
p1658
(dp1659
g10
I1
ssVcom.kingroot.kinguser
p1660
(dp1661
g10
I3
ssg133
(dp1662
g10
F3.8999999999999999
ssg1136
(dp1663
g10
F2.7999999999999998
ssVcom.qihoo.browser
p1664
(dp1665
g10
F3
ssVcom.tencent.mobileqq
p1666
(dp1667
g10
F7
ssVmark.via
p1668
(dp1669
g10
F2.2999999999999998
ssVcom.anzhi.hwsettings
p1670
(dp1671
g10
F0.90000000000000002
ssVcom.sinovatech.unicom.ui
p1672
(dp1673
g10
F1.7
ssg797
(dp1674
g10
F47.899999999999999
ssVcom.android.mms
p1675
(dp1676
g10
F18.699999999999996
ssVcom.baidu.tieba
p1677
(dp1678
g10
F10.199999999999999
ssVcom.huawei.android.totemweather
p1679
(dp1680
g10
F1.3
ssg558
(dp1681
g10
F2.3999999999999999
sssg127
(dp1682
Vcom.baidu.tieba
p1683
(dp1684
g10
F0.40000000000000002
ssVcom.android.packageinstaller
p1685
(dp1686
g10
F2.6000000000000001
ssVcom.android.mms
p1687
(dp1688
g10
F0.90000000000000002
ssVcom.android.launcher
p1689
(dp1690
g10
F5.1000000000000005
sssg129
(dp1691
g47
(dp1692
g10
F0.90000000000000002
ssg21
(dp1693
g10
F0.69999999999999996
ssVcom.android.launcher
p1694
(dp1695
g10
F1.3999999999999999
sssg131
(dp1696
g533
(dp1697
g10
F0.90000000000000002
ssVcom.baidu.backuprestore
p1698
(dp1699
g10
F0.90000000000000002
ssg546
(dp1700
g10
F0.90000000000000002
ssVcom.baidu.home2
p1701
(dp1702
g10
F3.4000000000000004
ssVcom.android.launcher
p1703
(dp1704
g10
F4.4000000000000004
ssg75
(dp1705
g10
F1.3
sssg133
(dp1706
Vcom.android.settings
p1707
(dp1708
g10
F9.8000000000000007
ssVcom.qihoo.browser
p1709
(dp1710
g10
F2.6000000000000001
ssVcom.baidu.tieba
p1711
(dp1712
g10
F0.69999999999999996
ssVcom.android.launcher
p1713
(dp1714
g10
F3
ssVcom.android.phone
p1715
(dp1716
g10
F1.7
sssg135
(dp1717
Vcom.android.packageinstaller
p1718
(dp1719
g10
F0.40000000000000002
ssVcom.tencent.android.qqdownloader
p1720
(dp1721
g10
F0.90000000000000002
ssVcom.android.launcher
p1722
(dp1723
g10
F1.7
sssg137
(dp1724
Vcom.android.packageinstaller
p1725
(dp1726
g10
F0.69999999999999996
ssVcom.android.launcher
p1727
(dp1728
g10
F1.3
ssVcom.tencent.android.qqdownloader
p1729
(dp1730
g10
I1
sssg139
(dp1731
Vcom.tencent.android.qqdownloader
p1732
(dp1733
g10
F2.7000000000000002
ssg43
(dp1734
g10
F0.69999999999999996
ssVcom.qihoo.cleandroid_cn
p1735
(dp1736
g10
F2
ssVcom.baidu.backuprestore
p1737
(dp1738
g10
F1.3
ssVcom.android.deskclock
p1739
(dp1740
g10
F24.5
ssVvStudio.Android.Camera360
p1741
(dp1742
g10
F0.69999999999999996
ssg109
(dp1743
g10
F1.3
ssVcom.android.launcher
p1744
(dp1745
g10
F108.00000000000004
ssVcom.android.contacts
p1746
(dp1747
g10
F4.0999999999999996
ssVcom.ifeng.news2
p1748
(dp1749
g10
F5.2000000000000002
ssVcom.tencent.qt.sns
p1750
(dp1751
g10
F1.3
ssVcom.android.packageinstaller
p1752
(dp1753
g10
F3.3999999999999999
ssVcn.mixiaoxiao.myappscreenmask
p1754
(dp1755
g10
F10.200000000000003
ssg814
(dp1756
g10
F1.3
ssVcom.feistma.appmove
p1757
(dp1758
g10
F1.7000000000000002
ssVcom.huawei.hidisk
p1759
(dp1760
g10
F0.40000000000000002
ssVoms.mmc.fortunetelling
p1761
(dp1762
g10
F1.7
ssVcom.android.phone
p1763
(dp1764
g10
F1.8999999999999999
ssVcom.amigosoftware.life3_3_web_android
p1765
(dp1766
g10
I1
ssVcom.tencent.mm
p1767
(dp1768
g10
F5.4000000000000004
ssVcom.ylmf.androidclient
p1769
(dp1770
g10
F1.8
ssVcom.kingroot.kinguser
p1771
(dp1772
g10
F5.4000000000000004
ssg777
(dp1773
g10
F1.8
ssVcom.huawei.android.dsdscardmanager
p1774
(dp1775
g10
F1.3
ssVcom.Astro.UI
p1776
(dp1777
g10
F1.3
ssVexample.yijing
p1778
(dp1779
g10
F3.4000000000000004
ssVmark.via
p1780
(dp1781
g10
F3.5999999999999996
ssg1056
(dp1782
g10
F3.0999999999999996
ssVcom.tencent.mobileqq
p1783
(dp1784
g10
F6.5000000000000009
ssVcom.android.mms
p1785
(dp1786
g10
F4.5999999999999996
ssVcom.baidu.BaiduMap
p1787
(dp1788
g10
F0.40000000000000002
ssVcom.baidu.tieba
p1789
(dp1790
g10
F21.199999999999992
ssg317
(dp1791
g10
F0.40000000000000002
ssVcom.android.settings
p1792
(dp1793
g10
F6.7999999999999998
ssVcom.android.quicksearchbox
p1794
(dp1795
g10
F1.7000000000000002
sssg141
(dp1796
Vcom.huawei.hidisk
p1797
(dp1798
g10
F1.7000000000000002
ssg155
(dp1799
g10
F0.40000000000000002
ssg175
(dp1800
g10
F0.90000000000000002
ssVcom.android.launcher
p1801
(dp1802
g10
F4.4000000000000004
ssVcom.android.settings
p1803
(dp1804
g10
F0.69999999999999996
sssg143
(dp1805
Vcom.qihoo.browser
p1806
(dp1807
g10
I1
sssg145
(dp1808
Vcom.baidu.BaiduMap
p1809
(dp1810
g10
F0.69999999999999996
ssVcom.kingroot.kinguser
p1811
(dp1812
g10
F8.1999999999999993
ssg197
(dp1813
g10
F1.6000000000000001
ssVcn.wps.moffice_tpt
p1814
(dp1815
g10
F0.69999999999999996
ssVmark.via
p1816
(dp1817
g10
F9.4000000000000021
ssVcom.huawei.android.totemweather
p1818
(dp1819
g10
F1.3
ssVcom.android.packageinstaller
p1820
(dp1821
g10
F1.7
ssVcom.baidu.backuprestore
p1822
(dp1823
g10
F0.40000000000000002
ssg1432
(dp1824
g10
F0.90000000000000002
ssg393
(dp1825
g10
F9.8999999999999986
ssVcom.android.deskclock
p1826
(dp1827
g10
F25.099999999999994
ssVcom.huawei.hidisk
p1828
(dp1829
g10
F13
ssVcom.baidu.tieba
p1830
(dp1831
g10
F1.3
ssVcom.android.launcher
p1832
(dp1833
g10
F45.299999999999997
ssVcom.android.phone
p1834
(dp1835
g10
I1
ssVme.onemobile.android
p1836
(dp1837
g10
F1.3
ssg617
(dp1838
g10
F3.8999999999999999
ssg1033
(dp1839
g10
F0.90000000000000002
ssVcom.tencent.mobileqq
p1840
(dp1841
g10
F3
sssg147
(dp1842
g1727
(dp1843
g10
F0.40000000000000002
ssg137
(dp1844
g10
F0.90000000000000002
ssVcom.tencent.android.qqdownloader
p1845
(dp1846
g10
F1.7
sssg149
(dp1847
sg151
(dp1848
Vcom.lql.yj.bgyc
p1849
(dp1850
g10
F0.90000000000000002
ssg297
(dp1851
g10
F0.90000000000000002
ssVcom.baidu.BaiduMap
p1852
(dp1853
g10
F0.69999999999999996
ssVcom.android.launcher
p1854
(dp1855
g10
F3.0999999999999996
ssVcom.android.packageinstaller
p1856
(dp1857
g10
F0.40000000000000002
sssg153
(dp1858
Vcom.android.packageinstaller
p1859
(dp1860
g10
F2
ssg235
(dp1861
g10
F0.40000000000000002
ssVcom.android.launcher
p1862
(dp1863
g10
F5.6000000000000005
sssg155
(dp1864
g233
(dp1865
g10
F0.40000000000000002
ssVme.onemobile.android
p1866
(dp1867
g10
F1.3
ssVcom.android.packageinstaller
p1868
(dp1869
g10
F1.6000000000000001
ssg191
(dp1870
g10
F9.2000000000000011
ssVcom.android.launcher
p1871
(dp1872
g10
F12.4
sssg157
(dp1873
Vcom.android.packageinstaller
p1874
(dp1875
g10
F1.3
ssg213
(dp1876
g10
I1
ssVcom.tencent.mobileqq
p1877
(dp1878
g10
F2.2999999999999998
ssVcom.qihoo.cleandroid_cn
p1879
(dp1880
g10
F0.69999999999999996
ssVcom.android.launcher
p1881
(dp1882
g10
F3.1000000000000001
sssg159
(dp1883
g127
(dp1884
g10
F1.3
ssVcom.android.packageinstaller
p1885
(dp1886
g10
F1.3999999999999999
ssg1180
(dp1887
g10
F2.3999999999999999
sssg161
(dp1888
Vcom.baidu.tieba
p1889
(dp1890
g10
F0.40000000000000002
ssVcom.anzhi.hwsettings
p1891
(dp1892
g10
I1
ssVcom.android.launcher
p1893
(dp1894
g10
F0.69999999999999996
ssVcn.mixiaoxiao.myappscreenmask
p1895
(dp1896
g10
F0.90000000000000002
sssg163
(dp1897
g1604
(dp1898
g10
F0.90000000000000002
ssVcom.qihoo.cleandroid_cn
p1899
(dp1900
g10
F0.40000000000000002
ssVcom.tencent.android.qqdownloader
p1901
(dp1902
g10
F1.3
ssVcom.android.launcher
p1903
(dp1904
g10
F4.7999999999999998
ssg93
(dp1905
g10
F0.69999999999999996
sssg165
(dp1906
Vcom.kingroot.kinguser
p1907
(dp1908
g10
F0.40000000000000002
ssVcom.tencent.android.qqdownloader
p1909
(dp1910
g10
I2
ssVcom.sinovatech.unicom.ui
p1911
(dp1912
g10
F1.6000000000000001
ssVcom.android.launcher
p1913
(dp1914
g10
F3.5
ssVcom.tencent.mobileqq
p1915
(dp1916
g10
F0.40000000000000002
ssVcom.feistma.appmove
p1917
(dp1918
g10
F0.69999999999999996
sssg167
(dp1919
g237
(dp1920
g10
F0.90000000000000002
ssg229
(dp1921
g10
F0.40000000000000002
ssVcom.android.launcher
p1922
(dp1923
g10
F1.7
sssg169
(dp1924
Vme.onemobile.android
p1925
(dp1926
g10
F0.90000000000000002
ssVcom.android.packageinstaller
p1927
(dp1928
g10
F0.90000000000000002
ssg143
(dp1929
g10
F0.90000000000000002
ssg1806
(dp1930
g10
F1.1000000000000001
ssVcom.android.launcher
p1931
(dp1932
g10
F4.4000000000000004
ssg31
(dp1933
g10
F0.40000000000000002
sssg171
(dp1934
Vcom.android.settings
p1935
(dp1936
g10
F1.7
ssVcom.android.packageinstaller
p1937
(dp1938
g10
F1.3
ssg918
(dp1939
g10
F0.40000000000000002
ssVcom.android.launcher
p1940
(dp1941
g10
F1.7
sssg173
(dp1942
g695
(dp1943
g10
F0.40000000000000002
ssVcom.android.contacts
p1944
(dp1945
g10
F0.90000000000000002
ssVcom.baidu.home2
p1946
(dp1947
g10
F1.7
ssVcom.qihoo.browser
p1948
(dp1949
g10
F0.90000000000000002
ssVcom.android.launcher
p1950
(dp1951
g10
F3.1000000000000001
ssVcom.android.phone
p1952
(dp1953
g10
F1.7
ssVcom.feistma.appmove
p1954
(dp1955
g10
F0.90000000000000002
sssg175
(dp1956
g155
(dp1957
g10
F0.90000000000000002
ssVcom.android.packageinstaller
p1958
(dp1959
g10
F1.3
ssVcom.android.launcher
p1960
(dp1961
g10
F5.4000000000000004
ssg901
(dp1962
g10
F0.40000000000000002
sssg177
(dp1963
Vcom.android.packageinstaller
p1964
(dp1965
g10
F0.90000000000000002
ssg169
(dp1966
g10
F0.40000000000000002
ssVcom.android.launcher
p1967
(dp1968
g10
F2.7000000000000002
sssg179
(dp1969
Vcom.android.packageinstaller
p1970
(dp1971
g10
F1.3
ssVcom.qihoo.cleandroid_cn
p1972
(dp1973
g10
F0.69999999999999996
ssVcom.android.launcher
p1974
(dp1975
g10
I1
sssg181
(dp1976
g1134
(dp1977
g10
F0.90000000000000002
ssVcom.tencent.tokenlgnl
p1978
(dp1979
g10
F0.90000000000000002
ssVcom.android.deskclock
p1980
(dp1981
g10
F4.2999999999999998
ssVcom.android.launcher
p1982
(dp1983
g10
F133.50000000000017
ssVcom.eg.android.AlipayGphone
p1984
(dp1985
g10
F1.3
ssVcom.sankuai.meituan
p1986
(dp1987
g10
I2
ssVcom.android.gallery3d
p1988
(dp1989
g10
F0.69999999999999996
ssg267
(dp1990
g10
F2.5
ssg1650
(dp1991
g10
F3.0999999999999996
ssVcom.huawei.hidisk
p1992
(dp1993
g10
F1.3
ssVcom.ifeng.news2
p1994
(dp1995
g10
F3.6000000000000001
ssVcom.baidu.home2
p1996
(dp1997
g10
F3.6000000000000001
ssg125
(dp1998
g10
F79.900000000000006
ssVcom.tencent.mm
p1999
(dp2000
g10
F10.800000000000001
ssVcom.android.flashlight
p2001
(dp2002
g10
F1.8
ssVmark.via
p2003
(dp2004
g10
F3.6999999999999997
ssVcom.qihoo.cleandroid_cn
p2005
(dp2006
g10
F2.7000000000000002
ssVcom.Astro.UI
p2007
(dp2008
g10
F2.6000000000000001
ssVcom.qihoo.browser
p2009
(dp2010
g10
F1.7
ssVcom.tencent.mobileqq
p2011
(dp2012
g10
F4.0999999999999996
ssg97
(dp2013
g10
F0.69999999999999996
ssg1670
(dp2014
g10
F0.69999999999999996
ssg1672
(dp2015
g10
F1.3
ssg539
(dp2016
g10
F3
ssVcom.android.mms
p2017
(dp2018
g10
F23.499999999999993
ssVcom.baidu.tieba
p2019
(dp2020
g10
F8.3000000000000007
ssVcom.android.settings
p2021
(dp2022
g10
F4.3999999999999995
ssg558
(dp2023
g10
F2.7999999999999998
ssg508
(dp2024
g10
F0.40000000000000002
ssVcom.kingroot.kinguser
p2025
(dp2026
g10
F0.40000000000000002
sssg183
(dp2027
Vcom.kingroot.kinguser
p2028
(dp2029
g10
F0.69999999999999996
ssVcom.android.contacts
p2030
(dp2031
g10
I1
ssVcom.android.launcher
p2032
(dp2033
g10
F4.5999999999999996
ssg1521
(dp2034
g10
F1.7
ssVcom.feistma.appmove
p2035
(dp2036
g10
F1.3
ssVcom.baidu.home2
p2037
(dp2038
g10
F7.4000000000000004
ssVcom.baidu.tieba
p2039
(dp2040
g10
F0.90000000000000002
ssg717
(dp2041
g10
F1.8
ssg1449
(dp2042
g10
F0.69999999999999996
ssg113
(dp2043
g10
I1
ssVcn.wps.moffice_tpt
p2044
(dp2045
g10
F1.8999999999999999
sssg185
(dp2046
Vcom.android.launcher
p2047
(dp2048
g10
I1
sssg187
(dp2049
g792
(dp2050
g10
F0.69999999999999996
ssVcom.ifeng.news2
p2051
(dp2052
g10
F1.7000000000000002
ssVcom.android.contacts
p2053
(dp2054
g10
F5.0999999999999996
ssVcom.android.launcher
p2055
(dp2056
g10
F2.7000000000000002
ssVcom.android.phone
p2057
(dp2058
g10
I2
sssg189
(dp2059
Vcom.Astro.UI
p2060
(dp2061
g10
F0.90000000000000002
ssg1216
(dp2062
g10
F0.40000000000000002
ssVcom.android.launcher
p2063
(dp2064
g10
F2.7000000000000002
sssg191
(dp2065
g1866
(dp2066
g10
F0.69999999999999996
ssVorg.kde.necessitas.example.YXBaZi
p2067
(dp2068
g10
F9.3000000000000007
ssg1868
(dp2069
g10
F1.1000000000000001
ssVcom.android.launcher
p2070
(dp2071
g10
F6.7000000000000011
sssg193
(dp2072
Vcom.amigosoftware.life3_3_web_android
p2073
(dp2074
g10
F0.90000000000000002
ssVcom.android.packageinstaller
p2075
(dp2076
g10
F0.40000000000000002
ssVcom.android.launcher
p2077
(dp2078
g10
F1.7
sssg195
(dp2079
g1344
(dp2080
g10
F1.3
ssg253
(dp2081
g10
F53.900000000000013
ssg207
(dp2082
g10
F1.3
ssVcom.android.deskclock
p2083
(dp2084
g10
F1.3
ssg1095
(dp2085
g10
F0.40000000000000002
ssVcom.feistma.appmove
p2086
(dp2087
g10
F0.90000000000000002
ssg39
(dp2088
g10
F1.7000000000000002
ssg1814
(dp2089
g10
F1.8
ssVme.onemobile.android
p2090
(dp2091
g10
F0.80000000000000004
ssg1367
(dp2092
g10
F0.90000000000000002
ssg319
(dp2093
g10
I5
ssg1014
(dp2094
g10
F27.799999999999994
ssg1988
(dp2095
g10
F5.4000000000000004
ssVcn.mixiaoxiao.myappscreenmask
p2096
(dp2097
g10
F0.69999999999999996
ssVcom.android.contacts
p2098
(dp2099
g10
F1.3
ssVcom.eg.android.AlipayGphone
p2100
(dp2101
g10
F3.1000000000000001
ssg197
(dp2102
g10
F5.4000000000000004
ssg930
(dp2103
g10
F3.0999999999999996
ssg535
(dp2104
g10
F3.6000000000000005
ssg1624
(dp2105
g10
F4.2999999999999998
ssg69
(dp2106
g10
F0.40000000000000002
ssVcom.homenetworkkeeper
p2107
(dp2108
g10
F1.3
ssg145
(dp2109
g10
F13.1
ssVcom.kingroot.kinguser
p2110
(dp2111
g10
F1.7
ssVfw.fourword
p2112
(dp2113
g10
F0.40000000000000002
ssg303
(dp2114
g10
F2.8999999999999999
ssVcom.huawei.android.totemweather
p2115
(dp2116
g10
F1.7
ssVcom.android.mms
p2117
(dp2118
g10
F0.69999999999999996
ssVcom.baidu.BaiduMap
p2119
(dp2120
g10
F1.3
ssg89
(dp2121
g10
F1.8
ssVcom.android.settings
p2122
(dp2123
g10
F11.6
ssVcom.android.quicksearchbox
p2124
(dp2125
g10
F0.40000000000000002
ssg1406
(dp2126
g10
F0.90000000000000002
ssVcom.qihoo.cleandroid_cn
p2127
(dp2128
g10
F0.40000000000000002
sssg197
(dp2129
Vcn.dz52pojie.www
p2130
(dp2131
g10
F0.69999999999999996
ssVcom.huawei.android.totemweather
p2132
(dp2133
g10
F0.40000000000000002
ssg2083
(dp2134
g10
F0.69999999999999996
ssVcom.huawei.hidisk
p2135
(dp2136
g10
F4.7000000000000002
ssVcom.android.launcher
p2137
(dp2138
g10
F3.8999999999999999
ssg2098
(dp2139
g10
F0.69999999999999996
sssg199
(dp2140
g203
(dp2141
g10
F2.6000000000000001
ssg223
(dp2142
g10
F0.40000000000000002
ssg225
(dp2143
g10
F0.90000000000000002
ssVcom.android.packageinstaller
p2144
(dp2145
g10
F0.69999999999999996
ssVcom.android.phone
p2146
(dp2147
g10
I1
ssVcom.android.mms
p2148
(dp2149
g10
F0.90000000000000002
ssg780
(dp2150
g10
F0.40000000000000002
ssg1822
(dp2151
g10
F0.90000000000000002
ssg25
(dp2152
g10
F1.3999999999999999
ssVcom.qihoo.browser
p2153
(dp2154
g10
F1.3
ssVcom.baidu.tieba
p2155
(dp2156
g10
F4
ssVcom.eg.android.AlipayGphone
p2157
(dp2158
g10
F1.3
ssVcom.android.launcher
p2159
(dp2160
g10
F27.29999999999999
ssVcom.android.settings
p2161
(dp2162
g10
F7.6000000000000005
ssVcom.tencent.mm
p2163
(dp2164
g10
F0.69999999999999996
ssVcom.android.contacts
p2165
(dp2166
g10
F0.40000000000000002
ssVcom.ifeng.news2
p2167
(dp2168
g10
F4.2999999999999998
ssVcom.tencent.mobileqq
p2169
(dp2170
g10
F0.40000000000000002
sssg201
(dp2171
Vcom.android.quicksearchbox
p2172
(dp2173
g10
F1.3999999999999999
ssVcom.android.packageinstaller
p2174
(dp2175
g10
F1.7
ssg858
(dp2176
g10
F0.90000000000000002
ssVcom.android.launcher
p2177
(dp2178
g10
F2.6999999999999997
ssg171
(dp2179
g10
F0.69999999999999996
sssg203
(dp2180
g514
(dp2181
g10
F0.69999999999999996
ssg247
(dp2182
g10
F0.40000000000000002
ssg225
(dp2183
g10
F0.40000000000000002
ssg1497
(dp2184
g10
F0.69999999999999996
ssg516
(dp2185
g10
F1.7
ssg1504
(dp2186
g10
F0.90000000000000002
ssg1499
(dp2187
g10
F0.90000000000000002
ssg25
(dp2188
g10
F47.000000000000007
ssg2155
(dp2189
g10
F0.40000000000000002
ssg528
(dp2190
g10
F18.699999999999999
ssg107
(dp2191
g10
F2.5999999999999996
ssg530
(dp2192
g10
F3.5
sssg205
(dp2193
Vcom.android.launcher
p2194
(dp2195
g10
I2
sssg207
(dp2196
g1178
(dp2197
g10
F0.69999999999999996
ssg69
(dp2198
g10
F1.3
ssVcom.android.launcher
p2199
(dp2200
g10
F4.4000000000000004
ssVcom.nemodigm.android.prime_fortune
p2201
(dp2202
g10
F1.7000000000000002
sssg209
(dp2203
Vcom.android.packageinstaller
p2204
(dp2205
g10
F0.40000000000000002
ssVcom.tencent.android.qqdownloader
p2206
(dp2207
g10
F0.90000000000000002
ssVcom.android.launcher
p2208
(dp2209
g10
F1.7
sssg211
(dp2210
Vcom.qihoo.browser
p2211
(dp2212
g10
F2.7000000000000002
ssVcom.android.packageinstaller
p2213
(dp2214
g10
F1.7000000000000002
ssVcom.android.launcher
p2215
(dp2216
g10
F4.0999999999999996
sssg213
(dp2217
Vcom.android.packageinstaller
p2218
(dp2219
g10
F1.8
ssVcom.qihoo.cleandroid_cn
p2220
(dp2221
g10
F0.40000000000000002
ssVcom.android.launcher
p2222
(dp2223
g10
F5.4000000000000004
sssg215
(dp2224
g1332
(dp2225
g10
F2.3999999999999999
ssVcom.tencent.android.qqdownloader
p2226
(dp2227
g10
F2.6999999999999997
ssg338
(dp2228
g10
I2
ssg912
(dp2229
g10
F1.3
ssVcom.baidu.tieba
p2230
(dp2231
g10
F1.3
ssVcom.yidalianke.app
p2232
(dp2233
g10
F0.40000000000000002
ssVcom.android.launcher
p2234
(dp2235
g10
F11.899999999999999
ssVcom.ylmf.androidclient
p2236
(dp2237
g10
F0.69999999999999996
ssVcom.ifeng.news2
p2238
(dp2239
g10
F0.90000000000000002
sssg217
(dp2240
Vcom.android.packageinstaller
p2241
(dp2242
g10
F1.3
ssVcom.android.launcher
p2243
(dp2244
g10
F1.7
sssg219
(dp2245
Vcom.android.packageinstaller
p2246
(dp2247
g10
F1.3
ssVcom.android.launcher
p2248
(dp2249
g10
F2.3999999999999999
ssVcom.tencent.android.qqdownloader
p2250
(dp2251
g10
F2.7000000000000002
ssVcom.qihoo.cleandroid_cn
p2252
(dp2253
g10
F0.40000000000000002
sssg221
(dp2254
g1272
(dp2255
g10
F0.90000000000000002
ssVcom.android.launcher
p2256
(dp2257
g10
F47.199999999999989
ssVcom.android.mms
p2258
(dp2259
g10
F2.2000000000000002
ssVcom.qihoo.cleandroid_cn
p2260
(dp2261
g10
F4.8999999999999995
ssVcom.baidu.backuprestore
p2262
(dp2263
g10
I1
ssVcom.android.deskclock
p2264
(dp2265
g10
F1.7000000000000002
ssVcom.tencent.android.qqdownloader
p2266
(dp2267
g10
F22.599999999999998
ssVcom.feistma.appmove
p2268
(dp2269
g10
F7
ssVcom.ifeng.news2
p2270
(dp2271
g10
I1
ssg241
(dp2272
g10
F0.90000000000000002
ssVcom.tencent.qt.sns
p2273
(dp2274
g10
F0.69999999999999996
ssVcom.android.packageinstaller
p2275
(dp2276
g10
F7.6000000000000014
ssg598
(dp2277
g10
F0.40000000000000002
ssg397
(dp2278
g10
F0.90000000000000002
ssg988
(dp2279
g10
F0.40000000000000002
ssVcom.eg.android.AlipayGphone
p2280
(dp2281
g10
I1
ssg1761
(dp2282
g10
F0.90000000000000002
ssVsogou.mobile.explorer
p2283
(dp2284
g10
F1.3
ssVcom.tencent.mobileqq
p2285
(dp2286
g10
F3.1999999999999993
ssVcom.android.contacts
p2287
(dp2288
g10
F0.40000000000000002
ssVme.onemobile.android
p2289
(dp2290
g10
F3.7000000000000002
ssVcom.android.phone
p2291
(dp2292
g10
I1
ssVcom.baidu.netdisk
p2293
(dp2294
g10
F1.3
ssVcom.Astro.UI
p2295
(dp2296
g10
F0.90000000000000002
ssg165
(dp2297
g10
F0.90000000000000002
ssVcom.qihoo.browser
p2298
(dp2299
g10
F2.7000000000000002
ssg715
(dp2300
g10
F0.69999999999999996
ssVcom.tencent.qqlive
p2301
(dp2302
g10
I1
ssVcom.nd.android.pandareader
p2303
(dp2304
g10
F6.1000000000000005
ssVcom.baidu.home2
p2305
(dp2306
g10
I1
ssg299
(dp2307
g10
F0.90000000000000002
ssg620
(dp2308
g10
F6.3000000000000007
ssg305
(dp2309
g10
F0.90000000000000002
ssVcom.huawei.android.totemweather
p2310
(dp2311
g10
F1.1000000000000001
ssg307
(dp2312
g10
F1.3
ssg87
(dp2313
g10
F0.90000000000000002
ssg111
(dp2314
g10
I1
ssVcom.baidu.tieba
p2315
(dp2316
g10
F3.2999999999999998
ssg163
(dp2317
g10
F1.3
ssg1518
(dp2318
g10
F2
ssVcom.android.quicksearchbox
p2319
(dp2320
g10
F1.6000000000000001
ssg652
(dp2321
g10
F0.69999999999999996
sssg223
(dp2322
g976
(dp2323
g10
F0.40000000000000002
ssVcom.baidu.backuprestore
p2324
(dp2325
g10
F1.3
ssVcom.android.launcher
p2326
(dp2327
g10
F3.4000000000000004
sssg225
(dp2328
Vmark.via
p2329
(dp2330
g10
F1.3
ssg537
(dp2331
g10
I1
ssg2025
(dp2332
g10
F0.90000000000000002
ssVcom.tencent.mm
p2333
(dp2334
g10
F0.90000000000000002
ssVcom.tencent.android.qqdownloader
p2335
(dp2336
g10
F0.40000000000000002
ssVcom.android.gallery3d
p2337
(dp2338
g10
F0.90000000000000002
ssVcom.qihoo.cleandroid_cn
p2339
(dp2340
g10
F3.1000000000000001
ssg1570
(dp2341
g10
F1.7000000000000002
ssVcom.huawei.hidisk
p2342
(dp2343
g10
F0.90000000000000002
ssVcom.qihoo.browser
p2344
(dp2345
g10
F0.40000000000000002
ssVcom.baidu.tieba
p2346
(dp2347
g10
F3.6000000000000001
ssVcom.android.launcher
p2348
(dp2349
g10
F26.599999999999994
ssVcom.android.settings
p2350
(dp2351
g10
I1
ssVcom.android.quicksearchbox
p2352
(dp2353
g10
F1.3
ssg1311
(dp2354
g10
F0.40000000000000002
ssVcom.android.mms
p2355
(dp2356
g10
F1.1000000000000001
ssVcom.ifeng.news2
p2357
(dp2358
g10
F2.2999999999999998
sssg227
(dp2359
g117
(dp2360
g10
F5.5
ssg193
(dp2361
g10
F1.3
ssVcom.tencent.android.qqdownloader
p2362
(dp2363
g10
F0.69999999999999996
ssg1533
(dp2364
g10
F1.8
ssg1518
(dp2365
g10
F1.3999999999999999
ssg1539
(dp2366
g10
F4.2999999999999998
ssVcom.tencent.mm
p2367
(dp2368
g10
F3.5
ssg1348
(dp2369
g10
F1.7
ssg2096
(dp2370
g10
I2
ssg111
(dp2371
g10
F0.69999999999999996
ssVcom.huawei.hidisk
p2372
(dp2373
g10
F0.40000000000000002
ssVcom.eg.android.AlipayGphone
p2374
(dp2375
g10
F0.40000000000000002
ssVcom.android.launcher
p2376
(dp2377
g10
F37.699999999999996
ssg2073
(dp2378
g10
F0.40000000000000002
ssVcom.dendroidZ.lunarCalendarLite
p2379
(dp2380
g10
F0.90000000000000002
ssVcom.qihoo.cleandroid_cn
p2381
(dp2382
g10
F4.0999999999999996
ssVcom.ifeng.news2
p2383
(dp2384
g10
F0.80000000000000004
ssVcom.tencent.mobileqq
p2385
(dp2386
g10
F0.90000000000000002
sssg229
(dp2387
Vcom.huawei.hidisk
p2388
(dp2389
g10
F0.40000000000000002
ssVcom.android.packageinstaller
p2390
(dp2391
g10
F3.1999999999999997
ssVcom.baidu.BaiduMap
p2392
(dp2393
g10
F0.40000000000000002
ssVcom.android.launcher
p2394
(dp2395
g10
F4.0999999999999996
sssg231
(dp2396
g587
(dp2397
g10
F0.40000000000000002
ssVcom.android.packageinstaller
p2398
(dp2399
g10
F0.69999999999999996
ssVcom.android.launcher
p2400
(dp2401
g10
F0.90000000000000002
ssVcom.tencent.android.qqdownloader
p2402
(dp2403
g10
I1
sssg233
(dp2404
Vme.onemobile.android
p2405
(dp2406
g10
F0.40000000000000002
ssVcom.android.packageinstaller
p2407
(dp2408
g10
F1.3
ssVcom.android.launcher
p2409
(dp2410
g10
F3.4000000000000004
sssg235
(dp2411
g948
(dp2412
g10
F0.40000000000000002
ssVcom.android.packageinstaller
p2413
(dp2414
g10
I1
ssg49
(dp2415
g10
F0.69999999999999996
ssVcom.android.launcher
p2416
(dp2417
g10
F0.90000000000000002
sssg237
(dp2418
Vcom.android.settings
p2419
(dp2420
g10
F0.40000000000000002
ssg2390
(dp2421
g10
F1.3
ssg229
(dp2422
g10
F0.90000000000000002
ssg485
(dp2423
g10
F0.90000000000000002
ssVcom.android.launcher
p2424
(dp2425
g10
F4.4000000000000004
ssVcom.android.bluetooth
p2426
(dp2427
g10
F0.69999999999999996
ssg261
(dp2428
g10
F0.40000000000000002
sssg239
(dp2429
Vcom.baidu.home2
p2430
(dp2431
g10
F1.7
ssVcn.wps.moffice_tpt
p2432
(dp2433
g10
F0.90000000000000002
sssg241
(dp2434
Vcom.android.launcher
p2435
(dp2436
g10
F1.8999999999999999
ssVcom.tencent.android.qqdownloader
p2437
(dp2438
g10
I1
sssg243
(dp2439
Vcom.baidu.BaiduMap
p2440
(dp2441
g10
F0.40000000000000002
ssVcom.kingroot.kinguser
p2442
(dp2443
g10
F2.8999999999999999
ssVmark.via
p2444
(dp2445
g10
F2.6000000000000001
ssVcom.android.settings
p2446
(dp2447
g10
F0.40000000000000002
ssVcom.android.packageinstaller
p2448
(dp2449
g10
F1.3999999999999999
ssg101
(dp2450
g10
F0.90000000000000002
ssg1313
(dp2451
g10
F0.90000000000000002
ssVcom.android.deskclock
p2452
(dp2453
g10
I3
ssVcom.huawei.hidisk
p2454
(dp2455
g10
F1.3
ssVcom.baidu.tieba
p2456
(dp2457
g10
F1.8
ssg2232
(dp2458
g10
F0.90000000000000002
ssVcom.android.launcher
p2459
(dp2460
g10
F15.499999999999998
ssVcom.android.phone
p2461
(dp2462
g10
I1
ssg633
(dp2463
g10
F8.8000000000000007
ssVcom.qihoo.cleandroid_cn
p2464
(dp2465
g10
F0.90000000000000002
ssVcom.android.contacts
p2466
(dp2467
g10
F0.69999999999999996
ssVcom.ifeng.news2
p2468
(dp2469
g10
I2
sssg245
(dp2470
Vcom.android.packageinstaller
p2471
(dp2472
g10
F0.40000000000000002
ssVcom.tencent.android.qqdownloader
p2473
(dp2474
g10
F0.90000000000000002
ssg1252
(dp2475
g10
F1.7
sssg247
(dp2476
Vcom.feistma.appmove
p2477
(dp2478
g10
F1.7000000000000002
ssVcom.android.launcher
p2479
(dp2480
g10
F6.1000000000000005
sssg249
(dp2481
Vcom.kingroot.kinguser
p2482
(dp2483
g10
I1
ssVcom.tencent.android.qqdownloader
p2484
(dp2485
g10
F0.40000000000000002
ssVcom.tencent.mobileqq
p2486
(dp2487
g10
F5.6000000000000005
ssVcom.anzhi.hwsettings
p2488
(dp2489
g10
F1.7000000000000002
ssVcom.android.gallery3d
p2490
(dp2491
g10
F1.7
ssVcom.qihoo.cleandroid_cn
p2492
(dp2493
g10
F0.90000000000000002
ssVcom.android.contacts
p2494
(dp2495
g10
F3.3999999999999995
ssVcom.baidu.tieba
p2496
(dp2497
g10
F1.8
ssVcom.android.launcher
p2498
(dp2499
g10
F33.399999999999984
ssVcom.android.phone
p2500
(dp2501
g10
I1
ssg161
(dp2502
g10
F0.69999999999999996
ssVcom.nd.android.pandareader
p2503
(dp2504
g10
F0.69999999999999996
ssVcom.tencent.mm
p2505
(dp2506
g10
F18.799999999999997
ssVcom.android.mms
p2507
(dp2508
g10
F1.3
ssVcom.ifeng.news2
p2509
(dp2510
g10
F0.40000000000000002
ssg993
(dp2511
g10
F0.90000000000000002
sssg251
(dp2512
Vcom.android.packageinstaller
p2513
(dp2514
g10
F0.90000000000000002
ssVcom.android.launcher
p2515
(dp2516
g10
F1.7
sssg253
(dp2517
g8
(dp2518
g10
I1
ssVcom.youku.phone
p2519
(dp2520
g10
I3
ssg13
(dp2521
g10
F2.2999999999999998
ssg15
(dp2522
g10
F2.0999999999999996
ssg17
(dp2523
g10
F1.7
ssg19
(dp2524
g10
F3.1000000000000001
ssg21
(dp2525
g10
F186.70000000000002
ssg23
(dp2526
g10
F96.600000000000037
ssg25
(dp2527
g10
F17.599999999999998
ssg29
(dp2528
g10
F115.20000000000014
ssg31
(dp2529
g10
F2.3999999999999999
ssg33
(dp2530
g10
F1.3
ssg35
(dp2531
g10
I2
ssg37
(dp2532
g10
F50.800000000000004
ssg39
(dp2533
g10
F194.09999999999999
ssg41
(dp2534
g10
F29.199999999999996
ssg43
(dp2535
g10
F4.7999999999999998
ssg45
(dp2536
g10
F1.3
ssg47
(dp2537
g10
F202.40000000000003
ssg49
(dp2538
g10
F1.3999999999999999
ssg51
(dp2539
g10
F17.699999999999996
ssg55
(dp2540
g10
F2.6000000000000001
ssg770
(dp2541
g10
F122.3000000000001
ssVcom.nemodigm.android.prime_fortune
p2542
(dp2543
g10
F9.2000000000000011
ssg434
(dp2544
g10
F114.30000000000014
ssg65
(dp2545
g10
F10.200000000000001
ssg285
(dp2546
g10
F1.3
ssg69
(dp2547
g10
F2.3999999999999999
ssg71
(dp2548
g10
F47.5
ssg75
(dp2549
g10
F4.7000000000000002
ssg77
(dp2550
g10
F0.90000000000000002
ssg79
(dp2551
g10
F1.3
ssg81
(dp2552
g10
F1.7
ssVcn.highing.hichat
p2553
(dp2554
g10
I1
ssg87
(dp2555
g10
F0.40000000000000002
ssg89
(dp2556
g10
F238.69999999999996
ssg91
(dp2557
g10
F75.200000000000017
ssg93
(dp2558
g10
F4.7000000000000002
ssg95
(dp2559
g10
F12.9
ssg97
(dp2560
g10
I1
ssg101
(dp2561
g10
F3.5999999999999996
ssg103
(dp2562
g10
F3.5999999999999996
ssg105
(dp2563
g10
F7.8000000000000007
ssg107
(dp2564
g10
F2.1000000000000001
ssg109
(dp2565
g10
I1
ssg111
(dp2566
g10
F1.3
ssg287
(dp2567
g10
I1
ssg117
(dp2568
g10
F22.79999999999999
ssg119
(dp2569
g10
F16.099999999999998
ssg27
(dp2570
g10
F26.999999999999993
ssg587
(dp2571
g10
F19.499999999999996
ssVcom.android.phone
p2572
(dp2573
g10
F66.599999999999952
ssg127
(dp2574
g10
F2.7000000000000002
ssg129
(dp2575
g10
I1
ssg131
(dp2576
g10
F6.7999999999999998
ssVcom.huawei.android.dsdscardmanager
p2577
(dp2578
g10
F1.3
ssg141
(dp2579
g10
F4.7999999999999998
ssg159
(dp2580
g10
F0.40000000000000002
ssg1138
(dp2581
g10
F79.30000000000004
ssg143
(dp2582
g10
F1.7
ssVcom.nd.android.pandareader
p2583
(dp2584
g10
F41.79999999999999
ssg185
(dp2585
g10
I1
ssg151
(dp2586
g10
F3.3999999999999999
ssg153
(dp2587
g10
F5.2000000000000002
ssg155
(dp2588
g10
F11.500000000000002
ssg157
(dp2589
g10
F5.1000000000000005
ssg161
(dp2590
g10
F1.3
ssg163
(dp2591
g10
F5.7999999999999998
ssVcom.ct.client
p2592
(dp2593
g10
F0.90000000000000002
ssg167
(dp2594
g10
I1
ssg169
(dp2595
g10
F3.7000000000000002
ssg171
(dp2596
g10
F2.7000000000000002
ssg175
(dp2597
g10
F6.1000000000000005
ssg177
(dp2598
g10
F3.3999999999999999
ssg179
(dp2599
g10
F1.7
ssVcom.android.contacts
p2600
(dp2601
g10
F204.5
ssVcom.youdao.dict
p2602
(dp2603
g10
F1.8999999999999999
ssg191
(dp2604
g10
F7.5
ssg193
(dp2605
g10
F1.7
ssg426
(dp2606
g10
F63.40000000000002
ssg197
(dp2607
g10
F2.6000000000000001
ssg199
(dp2608
g10
F14.5
ssg201
(dp2609
g10
F2.2000000000000002
ssg203
(dp2610
g10
F16.399999999999999
ssg205
(dp2611
g10
I1
ssg207
(dp2612
g10
F3.7000000000000002
ssg209
(dp2613
g10
F0.90000000000000002
ssVexample.yijing
p2614
(dp2615
g10
I1
ssg213
(dp2616
g10
F5.7000000000000002
ssg215
(dp2617
g10
F8.3000000000000007
ssg217
(dp2618
g10
F1.7
ssg219
(dp2619
g10
F0.40000000000000002
ssg221
(dp2620
g10
F90.600000000000037
ssg223
(dp2621
g10
F3.3999999999999999
ssg225
(dp2622
g10
F29.799999999999994
ssVcom.baidu.BaiduMap
p2623
(dp2624
g10
F32.79999999999999
ssg229
(dp2625
g10
F3.4000000000000004
ssg231
(dp2626
g10
F1.3
ssg233
(dp2627
g10
F3.3999999999999999
ssg235
(dp2628
g10
F1.7
ssg237
(dp2629
g10
F5.0999999999999996
ssg241
(dp2630
g10
F3.0999999999999996
ssg243
(dp2631
g10
F15.300000000000001
ssg61
(dp2632
g10
F3.5
ssg247
(dp2633
g10
F4.4000000000000004
ssg249
(dp2634
g10
F29.399999999999995
ssg1051
(dp2635
g10
F1.3
ssg438
(dp2636
g10
I1
ssg261
(dp2637
g10
F2.7000000000000002
ssg263
(dp2638
g10
F7.8000000000000007
ssg265
(dp2639
g10
F0.90000000000000002
ssg267
(dp2640
g10
F32.299999999999983
ssg424
(dp2641
g10
F9.4000000000000004
ssg275
(dp2642
g10
F3.5
ssVcom.amigosoftware.life3_3_web_android
p2643
(dp2644
g10
F4
ssg1309
(dp2645
g10
F1.3999999999999999
ssg281
(dp2646
g10
F0.90000000000000002
ssg283
(dp2647
g10
F130.70000000000013
ssg289
(dp2648
g10
F28.699999999999996
ssg291
(dp2649
g10
F2.2999999999999998
ssg293
(dp2650
g10
F0.90000000000000002
ssg537
(dp2651
g10
F6.5
ssg297
(dp2652
g10
F3.1000000000000001
ssg299
(dp2653
g10
F0.69999999999999996
ssg301
(dp2654
g10
F6.8000000000000007
ssg303
(dp2655
g10
F7
ssg454
(dp2656
g10
F5.4000000000000004
ssVcom.hotbody.fitzero
p2657
(dp2658
g10
I1
ssVcom.android.mms
p2659
(dp2660
g10
F140.80000000000015
ssg313
(dp2661
g10
F1.7
ssg317
(dp2662
g10
F1.7
ssg319
(dp2663
g10
F5.7000000000000011
ssg321
(dp2664
g10
F23.699999999999992
ssg323
(dp2665
g10
F4.7000000000000002
ssg311
(dp2666
g10
I4
sssg255
(dp2667
Vcom.android.settings
p2668
(dp2669
g10
F4.4000000000000004
ssVcom.baidu.tieba
p2670
(dp2671
g10
F1.5
ssVcom.android.launcher
p2672
(dp2673
g10
F0.40000000000000002
ssVcom.tencent.mobileqq
p2674
(dp2675
g10
F1.7
sssg257
(dp2676
Vcom.tencent.android.qqdownloader
p2677
(dp2678
g10
F0.90000000000000002
ssVcom.android.launcher
p2679
(dp2680
g10
F1.3999999999999999
ssVcn.mixiaoxiao.myappscreenmask
p2681
(dp2682
g10
F0.69999999999999996
sssg259
(dp2683
g271
(dp2684
g10
F1.3
ssVcom.android.packageinstaller
p2685
(dp2686
g10
F0.90000000000000002
ssVcom.android.launcher
p2687
(dp2688
g10
F1.3999999999999999
ssVcom.tencent.android.qqdownloader
p2689
(dp2690
g10
F3.4000000000000004
ssVcom.qihoo.cleandroid_cn
p2691
(dp2692
g10
F0.69999999999999996
sssg261
(dp2693
Vcom.qihoo.browser
p2694
(dp2695
g10
F0.90000000000000002
ssVcom.android.packageinstaller
p2696
(dp2697
g10
F1.3
ssVcom.android.launcher
p2698
(dp2699
g10
F4.4000000000000004
ssVcom.divination.name1518
p2700
(dp2701
g10
F0.40000000000000002
sssg263
(dp2702
g151
(dp2703
g10
F1.8
ssg297
(dp2704
g10
F0.40000000000000002
ssg1849
(dp2705
g10
F0.40000000000000002
ssVoms.mmc.independent_gm.ebook.book121
p2706
(dp2707
g10
F1.7000000000000002
ssVcom.android.launcher
p2708
(dp2709
g10
F8.5
sssg265
(dp2710
Vcom.android.packageinstaller
p2711
(dp2712
g10
F0.90000000000000002
ssg574
(dp2713
g10
F0.69999999999999996
ssVcom.android.launcher
p2714
(dp2715
g10
F1.3999999999999999
sssg267
(dp2716
Vcom.tencent.android.qqdownloader
p2717
(dp2718
g10
F1.3
ssVcom.qihoo.cleandroid_cn
p2719
(dp2720
g10
F1.3
ssVcom.android.deskclock
p2721
(dp2722
g10
F0.90000000000000002
ssVcom.android.launcher
p2723
(dp2724
g10
F37.799999999999997
ssVcom.feistma.appmove
p2725
(dp2726
g10
F3.1999999999999997
ssVcom.eg.android.AlipayGphone
p2727
(dp2728
g10
F2.7000000000000002
ssVcn.wps.moffice_tpt
p2729
(dp2730
g10
F2.7000000000000002
ssg1358
(dp2731
g10
F0.90000000000000002
ssg2174
(dp2732
g10
F1.7000000000000002
ssVcom.android.gallery3d
p2733
(dp2734
g10
F0.80000000000000004
ssg1121
(dp2735
g10
F0.90000000000000002
ssVcom.ifeng.news2
p2736
(dp2737
g10
F3.4000000000000004
ssVcom.tencent.mm
p2738
(dp2739
g10
F1.7000000000000002
ssg1769
(dp2740
g10
F0.40000000000000002
ssVcom.xduole.Client
p2741
(dp2742
g10
F1.7
ssVcom.kingroot.kinguser
p2743
(dp2744
g10
F0.40000000000000002
ssVcom.qihoo.browser
p2745
(dp2746
g10
F5.7000000000000002
ssg786
(dp2747
g10
F0.40000000000000002
ssVmark.via
p2748
(dp2749
g10
F2.6999999999999997
ssVcom.sinovatech.unicom.ui
p2750
(dp2751
g10
I1
ssVcom.tencent.mobileqq
p2752
(dp2753
g10
F1.3
ssVcom.android.mms
p2754
(dp2755
g10
F0.90000000000000002
ssVcom.baidu.BaiduMap
p2756
(dp2757
g10
F3
ssVcom.baidu.tieba
p2758
(dp2759
g10
F9.5999999999999996
ssVcom.huawei.android.totemweather
p2760
(dp2761
g10
F0.90000000000000002
ssg2172
(dp2762
g10
F0.90000000000000002
sssg269
(dp2763
Vmark.via
p2764
(dp2765
g10
F3.8999999999999999
ssVcom.tencent.android.qqdownloader
p2766
(dp2767
g10
I1
ssg1418
(dp2768
g10
F0.90000000000000002
ssg1153
(dp2769
g10
F0.69999999999999996
ssg1297
(dp2770
g10
F0.90000000000000002
ssg1118
(dp2771
g10
F0.69999999999999996
ssVcom.baidu.tieba
p2772
(dp2773
g10
F0.90000000000000002
ssVcom.android.launcher
p2774
(dp2775
g10
F17.099999999999998
ssVcom.android.phone
p2776
(dp2777
g10
I1
ssg1069
(dp2778
g10
F0.69999999999999996
ssg85
(dp2779
g10
F1.3
ssVcom.tencent.mobileqq
p2780
(dp2781
g10
F1.3
ssg1588
(dp2782
g10
F2
sssg271
(dp2783
Vcom.tencent.android.qqdownloader
p2784
(dp2785
g10
I1
sssg273
(dp2786
g533
(dp2787
g10
F1.7
ssVcom.kingroot.kinguser
p2788
(dp2789
g10
F2.2999999999999998
ssg1272
(dp2790
g10
F2.7000000000000002
ssg1224
(dp2791
g10
F1.8999999999999999
ssg717
(dp2792
g10
F2.7000000000000002
ssVcom.youdao.dict
p2793
(dp2794
g10
F3.7000000000000002
ssg1698
(dp2795
g10
F1.7
ssVcom.tencent.token
p2796
(dp2797
g10
I2
ssVcom.tencent.tokenlgnl
p2798
(dp2799
g10
F3.6000000000000001
ssg73
(dp2800
g10
F1.7
ssVcom.baidu.tieba
p2801
(dp2802
g10
I2
ssg1226
(dp2803
g10
I1
ssg1026
(dp2804
g10
F1.8
ssg149
(dp2805
g10
F0.90000000000000002
ssVcom.tencent.mobileqq
p2806
(dp2807
g10
F2.7000000000000002
ssVcom.android.contacts
p2808
(dp2809
g10
F5.7000000000000002
ssg2035
(dp2810
g10
F3.3999999999999999
ssVcom.tencent.tokenqqfa
p2811
(dp2812
g10
F2.7000000000000002
sssg275
(dp2813
Vcom.android.packageinstaller
p2814
(dp2815
g10
F3.5
ssVcom.android.launcher
p2816
(dp2817
g10
F1.5
sssg277
(dp2818
Vcom.qihoo.browser
p2819
(dp2820
g10
F1.3
ssg2075
(dp2821
g10
F1.3
ssg43
(dp2822
g10
F1.3
ssVcom.android.launcher
p2823
(dp2824
g10
F6.5
sssg279
(dp2825
Vcom.kingroot.kinguser
p2826
(dp2827
g10
F0.40000000000000002
ssVcom.baidu.netdisk
p2828
(dp2829
g10
F0.90000000000000002
ssVcom.android.launcher
p2830
(dp2831
g10
F5.7000000000000002
ssVcom.nd.android.pandareader
p2832
(dp2833
g10
F0.69999999999999996
ssVcom.tencent.mobileqq
p2834
(dp2835
g10
F0.90000000000000002
ssVcom.ifeng.news2
p2836
(dp2837
g10
F0.90000000000000002
sssg281
(dp2838
Vcom.android.packageinstaller
p2839
(dp2840
g10
F0.90000000000000002
ssVcom.qihoo.cleandroid_cn
p2841
(dp2842
g10
F0.40000000000000002
ssVcom.android.launcher
p2843
(dp2844
g10
F1.7
sssg283
(dp2845
Vcom.tencent.android.qqdownloader
p2846
(dp2847
g10
F4.9000000000000004
ssg732
(dp2848
g10
F1.8999999999999999
ssVcom.baidu.netdisk
p2849
(dp2850
g10
F1.8
ssVcom.baidu.backuprestore
p2851
(dp2852
g10
F1.8999999999999999
ssg860
(dp2853
g10
F2.2000000000000002
ssg1002
(dp2854
g10
F20.399999999999995
ssVcom.cl.newt66y
p2855
(dp2856
g10
F1.7
ssVcom.android.launcher
p2857
(dp2858
g10
F158.50000000000006
ssVcom.android.contacts
p2859
(dp2860
g10
F17.200000000000003
ssg1375
(dp2861
g10
F8.8000000000000007
ssVcn.wps.moffice_tpt
p2862
(dp2863
g10
F4.2999999999999998
ssVcom.tencent.qt.sns
p2864
(dp2865
g10
F2.9000000000000004
ssg45
(dp2866
g10
F0.69999999999999996
ssg1927
(dp2867
g10
F0.40000000000000002
ssVcom.android.gallery3d
p2868
(dp2869
g10
F0.69999999999999996
ssVcn.mixiaoxiao.myappscreenmask
p2870
(dp2871
g10
F1.3999999999999999
ssVyiqi.bazi
p2872
(dp2873
g10
F0.40000000000000002
ssg2454
(dp2874
g10
F6.0000000000000009
ssVcom.ifeng.news2
p2875
(dp2876
g10
F37.59999999999998
ssVcom.baidu.home2
p2877
(dp2878
g10
F2.7000000000000002
ssg55
(dp2879
g10
F0.69999999999999996
ssg770
(dp2880
g10
F13.100000000000001
ssVcom.android.flashlight
p2881
(dp2882
g10
F0.90000000000000002
ssg802
(dp2883
g10
F0.40000000000000002
ssg65
(dp2884
g10
F1.8
ssVcom.android.phone
p2885
(dp2886
g10
F3.4000000000000004
ssVcom.qihoo.cleandroid_cn
p2887
(dp2888
g10
F2.7999999999999998
ssg1045
(dp2889
g10
F0.40000000000000002
ssVcom.qihoo.browser
p2890
(dp2891
g10
F5.3000000000000007
ssVcom.nd.android.pandareader
p2892
(dp2893
g10
F6.5
ssg221
(dp2894
g10
F1.3
ssVcom.sinovatech.unicom.ui
p2895
(dp2896
g10
F2.2999999999999998
ssVcom.android.settings
p2897
(dp2898
g10
F4.7000000000000002
ssVcom.android.mms
p2899
(dp2900
g10
F18.800000000000001
ssg1608
(dp2901
g10
F1.7000000000000002
ssVcom.baidu.tieba
p2902
(dp2903
g10
F14.600000000000003
ssg799
(dp2904
g10
F1.3
sssg285
(dp2905
Vcom.android.packageinstaller
p2906
(dp2907
g10
F0.40000000000000002
ssVcom.tencent.android.qqdownloader
p2908
(dp2909
g10
F0.90000000000000002
ssVcom.android.launcher
p2910
(dp2911
g10
F1.7
sssg287
(dp2912
Vcom.baidu.home2
p2913
(dp2914
g10
I1
ssVcom.kingroot.kinguser
p2915
(dp2916
g10
I2
sssg289
(dp2917
Vcom.android.gallery3d
p2918
(dp2919
g10
F0.90000000000000002
ssVcom.android.mms
p2920
(dp2921
g10
F1.3
ssVcom.android.launcher
p2922
(dp2923
g10
F17.999999999999996
ssVcom.tencent.mobileqq
p2924
(dp2925
g10
F0.90000000000000002
ssVcom.android.contacts
p2926
(dp2927
g10
F1.8
ssVcom.ifeng.news2
p2928
(dp2929
g10
F0.40000000000000002
sssg291
(dp2930
Vcom.android.packageinstaller
p2931
(dp2932
g10
F0.69999999999999996
ssVcom.tencent.android.qqdownloader
p2933
(dp2934
g10
F1.7
ssVcom.android.launcher
p2935
(dp2936
g10
F2.2999999999999998
ssVcom.qihoo.cleandroid_cn
p2937
(dp2938
g10
F0.40000000000000002
sssg293
(dp2939
Vcom.android.launcher
p2940
(dp2941
g10
I1
sssg295
(dp2942
Vcom.baidu.home2
p2943
(dp2944
g10
I2
ssg381
(dp2945
g10
F2.3999999999999999
ssVcom.picalab.comics
p2946
(dp2947
g10
F0.90000000000000002
ssVcom.qihoo.cleandroid_cn
p2948
(dp2949
g10
F0.69999999999999996
ssVcom.android.deskclock
p2950
(dp2951
g10
I2
ssVcom.baidu.tieba
p2952
(dp2953
g10
F0.69999999999999996
ssVcom.android.launcher
p2954
(dp2955
g10
F10.700000000000001
ssVcom.tencent.mobileqq
p2956
(dp2957
g10
F0.90000000000000002
ssg876
(dp2958
g10
F0.69999999999999996
sssg297
(dp2959
g141
(dp2960
g10
F0.69999999999999996
ssVcom.android.packageinstaller
p2961
(dp2962
g10
F1.3999999999999999
ssg1852
(dp2963
g10
I1
ssVcom.android.launcher
p2964
(dp2965
g10
F2.2000000000000002
sssg299
(dp2966
sg301
(dp2967
Vcom.android.calculator
p2968
(dp2969
g10
F0.90000000000000002
ssg2021
(dp2970
g10
F0.69999999999999996
ssg1895
(dp2971
g10
F1.7
ssg161
(dp2972
g10
I1
ssVcom.android.launcher
p2973
(dp2974
g10
F5.2999999999999998
ssg1377
(dp2975
g10
F0.40000000000000002
ssVcom.android.quicksearchbox
p2976
(dp2977
g10
F1.7
ssg1889
(dp2978
g10
F0.69999999999999996
ssVcom.android.contacts
p2979
(dp2980
g10
F0.90000000000000002
sssg303
(dp2981
g2090
(dp2982
g10
F0.90000000000000002
ssVcom.qihoo.browser
p2983
(dp2984
g10
F4.4000000000000004
ssg1544
(dp2985
g10
F0.40000000000000002
ssg2127
(dp2986
g10
F0.90000000000000002
ssVcom.android.launcher
p2987
(dp2988
g10
F5.7000000000000011
sssg305
(dp2989
Vcom.tencent.android.qqdownloader
p2990
(dp2991
g10
F1.8999999999999999
ssg1915
(dp2992
g10
F0.90000000000000002
ssVcom.android.mms
p2993
(dp2994
g10
I1
ssVcn.mixiaoxiao.myappscreenmask
p2995
(dp2996
g10
F2.3999999999999999
ssVcom.baidu.BaiduMap
p2997
(dp2998
g10
F0.69999999999999996
ssg2592
(dp2999
g10
I1
ssVcom.qihoo.browser
p3000
(dp3001
g10
F1.3
ssVcom.android.launcher
p3002
(dp3003
g10
F7.1000000000000005
ssVcom.android.phone
p3004
(dp3005
g10
F0.90000000000000002
ssVcom.android.quicksearchbox
p3006
(dp3007
g10
F0.40000000000000002
ssVcom.qihoo.cleandroid_cn
p3008
(dp3009
g10
F0.69999999999999996
ssVcom.tencent.mm
p3010
(dp3011
g10
F2.6000000000000001
ssVcom.android.contacts
p3012
(dp3013
g10
I1
ssg1917
(dp3014
g10
F0.40000000000000002
sssg307
(dp3015
Vcom.android.packageinstaller
p3016
(dp3017
g10
F0.69999999999999996
ssVcom.tencent.android.qqdownloader
p3018
(dp3019
g10
F1.7
ssVcom.android.launcher
p3020
(dp3021
g10
F2.6999999999999997
sssg309
(dp3022
Vcom.android.launcher
p3023
(dp3024
g10
F123.80000000000011
ssVmark.via
p3025
(dp3026
g10
F7.9000000000000004
ssVcom.qihoo.cleandroid_cn
p3027
(dp3028
g10
F6.9000000000000012
ssg1283
(dp3029
g10
F3.7000000000000002
ssVcom.tencent.android.qqdownloader
p3030
(dp3031
g10
F3.2999999999999998
ssg1290
(dp3032
g10
F41.499999999999979
ssg2100
(dp3033
g10
F3
ssg613
(dp3034
g10
F0.40000000000000002
ssg1452
(dp3035
g10
F3.5
ssg1610
(dp3036
g10
F2.1000000000000001
ssVcom.tencent.token
p3037
(dp3038
g10
I2
ssVcom.huawei.hidisk
p3039
(dp3040
g10
F1.7
ssVcom.ifeng.news2
p3041
(dp3042
g10
F7.8000000000000007
ssVcom.android.phone
p3043
(dp3044
g10
F20.499999999999993
ssg1999
(dp3045
g10
F13.600000000000003
ssg1129
(dp3046
g10
F0.69999999999999996
ssVcom.android.flashlight
p3047
(dp3048
g10
F0.90000000000000002
ssVcom.kingroot.kinguser
p3049
(dp3050
g10
F2.5999999999999996
ssVcom.android.calculator
p3051
(dp3052
g10
F0.40000000000000002
ssg2007
(dp3053
g10
F0.69999999999999996
ssVcom.qihoo.browser
p3054
(dp3055
g10
F2.2000000000000002
ssVcom.nd.android.pandareader
p3056
(dp3057
g10
F0.40000000000000002
ssg1144
(dp3058
g10
F3.3999999999999999
ssg97
(dp3059
g10
F1.3
ssVcom.sinovatech.unicom.ui
p3060
(dp3061
g10
F1.7
ssg943
(dp3062
g10
F6.4000000000000012
ssg734
(dp3063
g10
F0.40000000000000002
ssg1787
(dp3064
g10
F4.2999999999999998
ssVcom.baidu.tieba
p3065
(dp3066
g10
F9.0000000000000018
ssVcom.android.quicksearchbox
p3067
(dp3068
g10
F0.90000000000000002
sssg311
(dp3069
sg313
(dp3070
Vcom.android.settings
p3071
(dp3072
g10
F0.69999999999999996
ssVcom.android.packageinstaller
p3073
(dp3074
g10
F0.90000000000000002
ssVcom.android.launcher
p3075
(dp3076
g10
F1.3999999999999999
sssg315
(dp3077
Vcom.android.packageinstaller
p3078
(dp3079
g10
F1.3
ssVcom.qihoo.cleandroid_cn
p3080
(dp3081
g10
F0.69999999999999996
ssVcom.android.launcher
p3082
(dp3083
g10
I1
sssg317
(dp3084
Vcom.android.settings
p3085
(dp3086
g10
F0.90000000000000002
ssVcom.baidu.backuprestore
p3087
(dp3088
g10
F1.7
ssVcom.android.launcher
p3089
(dp3090
g10
F0.40000000000000002
sssg319
(dp3091
g1367
(dp3092
g10
F0.40000000000000002
ssg2122
(dp3093
g10
F5.5999999999999996
ssVcom.android.packageinstaller
p3094
(dp3095
g10
F1.3
ssVcom.huawei.hidisk
p3096
(dp3097
g10
F5
ssVcom.android.launcher
p3098
(dp3099
g10
F3.0999999999999996
ssg1406
(dp3100
g10
F0.40000000000000002
sssg321
(dp3101
Vcom.xduole.Client
p3102
(dp3103
g10
I1
ssg554
(dp3104
g10
F16.899999999999999
ssg539
(dp3105
g10
F1.8
ssg2174
(dp3106
g10
F0.90000000000000002
ssg1542
(dp3107
g10
I1
ssg27
(dp3108
g10
I1
ssg171
(dp3109
g10
F0.40000000000000002
ssVcom.qihoo.browser
p3110
(dp3111
g10
F0.40000000000000002
ssVcom.baidu.tieba
p3112
(dp3113
g10
F1.3
ssg537
(dp3114
g10
F0.69999999999999996
ssVcom.android.phone
p3115
(dp3116
g10
F0.69999999999999996
ssVcom.tencent.mobileqq
p3117
(dp3118
g10
F0.90000000000000002
ssVcom.tencent.mm
p3119
(dp3120
g10
F0.90000000000000002
ssg562
(dp3121
g10
F5.2000000000000002
ssVcom.ifeng.news2
p3122
(dp3123
g10
F0.69999999999999996
ssg301
(dp3124
g10
F1.7
sssg323
(dp3125
g1578
(dp3126
g10
F1.3
ssg598
(dp3127
g10
F2.7000000000000002
ssg27
(dp3128
g10
F0.69999999999999996
ssVcom.android.launcher
p3129
(dp3130
g10
F3.4000000000000004
ssg321
(dp3131
g10
F0.90000000000000002
ssVcom.tencent.mobileqq
p3132
(dp3133
g10
F4.8000000000000007
ssg562
(dp3134
g10
F0.40000000000000002
sssg325
(dp3135
Vcom.android.packageinstaller
p3136
(dp3137
g10
F0.90000000000000002
ssVcom.qihoo.cleandroid_cn
p3138
(dp3139
g10
F0.40000000000000002
ssVcom.android.launcher
p3140
(dp3141
g10
F1.7
ssssS'edge'
p3142
g331
sS'graph'
p3143
(dp3144
sS'adjlist_dict_factory'
p3145
g328
sS'adj'
p3146
g331
sS'pred'
p3147
(dp3148
g8
(dp3149
Vcom.qihoo.cleandroid_cn
p3150
g389
sVcom.android.launcher
p3151
g2518
ssg11
(dp3152
g342
g470
sVcom.tencent.qt.sns
p3153
g834
sVcom.android.launcher
p3154
g2520
sg123
g1602
ssg13
(dp3155
Vcom.tencent.mm
p3156
g2848
sVcom.tencent.android.qqdownloader
p3157
g571
sVcom.ifeng.news2
p3158
g733
sg1360
g683
sVcom.android.launcher
p3159
g2521
ssg15
(dp3160
g3071
g1347
sg3073
g853
sg77
g1238
sg3075
g2522
ssg17
(dp3161
Vcom.tencent.android.qqdownloader
p3162
g572
sg574
g391
sVcom.android.launcher
p3163
g2523
ssg19
(dp3164
g385
g2947
sg1452
g906
sg1454
g392
sVcom.android.launcher
p3165
g2524
ssg21
(dp3166
Vcom.android.launcher
p3167
g2525
sg434
g1098
sg17
g377
sg179
g1973
sg1043
g2465
sg655
g2720
sVcom.android.deskclock
p3168
g493
sg399
g519
sg249
g2493
sVcom.tencent.qqlite
p3169
g1880
sVcom.tencent.android.qqdownloader
p3170
g575
sg107
g1505
sVme.onemobile.android
p3171
g1543
sVcom.feistma.appmove
p3172
g685
sg1588
g737
sVcom.youku.phone
p3173
g341
sg115
g1529
sVcom.tencent.qt.sns
p3174
g827
sVcom.yiche.price
p3175
g2253
sg265
g2713
sg47
g857
sVcom.android.gallery3d
p3176
g1567
sg1485
g964
sg422
g545
sVcom.android.contacts
p3177
g2006
sg1010
g1433
sg2135
g2128
sg2374
g1623
sVcom.android.phone
p3178
g1634
sg129
g1693
sg281
g2842
sg2956
g998
sg904
g2186
sg61
g1091
sVcom.kingroot.kinguser
p3179
g2261
sVcom.sub.bazisuanminkan
p3180
g1174
sVcom.yoloho.dayima
p3181
g2938
sg438
g2692
sVcom.Astro.UI
p3182
g1198
sVcom.qihoo.browser
p3183
g1736
sg918
g2221
sg569
g2949
sg1053
g1824
sg79
g1243
sg97
g1455
sg2130
g2986
sVcom.sinovatech.unicom.ui
p3184
g3009
sg91
g1350
sVcom.tencent.mm
p3185
g2888
sg1675
g3028
sg645
g2382
sg315
g3081
sVcom.baidu.tieba
p3186
g1279
sg1618
g1900
sg1679
g2340
sg1549
g3107
sg325
g3139
sVcom.autohome.mycar
p3187
g1415
ssg23
(dp3188
Vcom.youku.phone
p3189
g343
sVcom.baidu.netdisk
p3190
g2453
sg2855
g1508
sVcom.android.launcher
p3191
g2526
sVcom.feistma.appmove
p3192
g687
sg477
g740
sVcom.youdao.dict
p3193
g2042
sVcom.android.packageinstaller
p3194
g861
sg2337
g1571
sg481
g2722
sVcom.android.contacts
p3195
g1981
sg2044
g1450
sVcom.huawei.hidisk
p3196
g2084
sVcom.android.phone
p3197
g1638
sg766
g2134
sg428
g2853
sVcom.kingroot.kinguser
p3198
g2265
sVcom.t66y.client.ui
p3199
g1467
sg71
g1201
sVcom.qihoo.browser
p3200
g1740
sVcom.baidu.browser.apps
p3201
g2951
sVcom.nd.android.pandareader
p3202
g1827
sVmark.via
p3203
g1100
sg2760
g2341
sg2659
g3029
sg3065
g1284
ssg25
(dp3204
Vmark.via
p3205
g1102
sg203
g2188
sg475
g2527
sVcom.android.settings
p3206
g1355
sVcom.android.packageinstaller
p3207
g862
sg516
g1561
sVcom.qihoo.cleandroid_cn
p3208
g400
sVcom.tencent.android.qqdownloader
p3209
g580
sg199
g2152
ssg27
(dp3210
Vmark.via
p3211
g1120
sg273
g2797
sVcom.tencent.qt.sns
p3212
g815
sg1116
g889
sVcom.android.mms
p3213
g3038
sVcom.baidu.backuprestore
p3214
g965
sVcom.qihoo.cleandroid_cn
p3215
g423
sVcom.android.deskclock
p3216
g484
sVcom.clov4r.android.nil
p3217
g521
sg818
g1756
sVcom.ifeng.news2
p3218
g760
sVcom.android.launcher
p3219
g2570
sVcom.android.phone
p3220
g1651
sg321
g3108
sg323
g3128
sVcom.tencent.mobileqq
p3221
g1021
sVcom.android.contacts
p3222
g1991
sg407
g704
ssg29
(dp3223
g95
g1421
sg535
g1096
sVcom.android.mms
p3224
g3031
sg2260
g390
sg245
g2474
sg1222
g2803
sVcom.clov4r.android.nil
p3225
g515
sVvStudio.Android.Camera360
p3226
g2485
sVcom.android.launcher
p3227
g2528
sg33
g665
sg37
g682
sg1645
g744
sg241
g2438
sg257
g2678
sVcom.tencent.qt.sns
p3228
g805
sg45
g847
sVcom.android.packageinstaller
p3229
g932
sg816
g2718
sg520
g553
sg602
g2767
sg550
g2085
sg271
g2785
sg259
g2690
sg587
g1621
sg85
g1261
sVcom.tencent.mm
p3230
g2847
sg3180
g1172
sVcom.nrop19
p3231
g2181
sg81
g1250
sg285
g2909
sg291
g2934
sg137
g1730
sg135
g1721
sg209
g2207
sg73
g1227
sVcom.qihoo.browser
p3232
g1733
sg215
g2227
sVcom.tencent.tokenre07
p3233
g1231
sg219
g2251
sg147
g1846
sVcom.tencent.mobileqq
p3234
g992
sVcom.kingroot.kinguser
p3235
g2267
sg83
g1255
sg305
g2991
sg797
g1346
sg307
g3019
sg87
g1270
sVcom.baidu.BaiduMap
p3236
g2363
sg231
g2403
sVcom.baidu.tieba
p3237
g1288
sg163
g1902
sg1818
g2336
sg165
g1910
sg93
g1411
ssg31
(dp3238
g1925
g1548
sg659
g868
sg1406
g1933
sVcom.android.launcher
p3239
g2529
ssg33
(dp3240
Vmark.via
p3241
g1107
sVcom.tencent.android.qqdownloader
p3242
g584
sVcom.android.launcher
p3243
g2530
ssg35
(dp3244
Vcom.android.launcher
p3245
g2531
ssg37
(dp3246
Vcom.jiongji.andriod.card
p3247
g1955
sVcom.android.launcher
p3248
g2532
sVcom.qihoo.cleandroid_cn
p3249
g408
sVcom.baidu.backuprestore
p3250
g975
sg2037
g2810
sg247
g2478
sVcom.tencent.android.qqdownloader
p3251
g586
sg403
g1500
sVcom.eg.android.AlipayGphone
p3252
g1627
sg183
g2036
sVcom.android.packageinstaller
p3253
g875
sVcn.mixiaoxiao.myappscreenmask
p3254
g2726
sVcom.huawei.hidisk
p3255
g2087
sVcom.ifeng.news2
p3256
g747
sg53
g982
sg430
g2187
sVmark.via
p3257
g1109
sg3110
g1758
sg720
g2269
sg1911
g3014
sg943
g1361
sg648
g1289
sg2592
g1918
ssg39
(dp3258
g3189
g349
sg13
g362
sg736
g410
sVcom.shoujiduoduo.ringtone
p3259
g1477
sg1283
g478
sg741
g2510
sVcom.tencent.token
p3260
g565
sg253
g2533
sVcom.feistma.appmove
p3261
g694
sVcom.android.contacts
p3262
g1995
sVcom.eg.android.AlipayGphone
p3263
g1629
sVcn.wps.moffice_tpt
p3264
g1442
sg752
g832
sg1140
g2239
sVcom.android.packageinstaller
p3265
g877
sVcom.sankuai.meituan
p3266
g2052
sg1297
g1589
sg816
g2737
sg121
g1594
sg424
g2782
sg195
g2088
sVcom.android.phone
p3267
g1646
sVcom.tencent.mtt
p3268
g2837
sVcom.tencent.mobileqq
p3269
g1009
sg772
g2168
sg1038
g2929
sVcom.kingroot.kinguser
p3270
g2271
sg1328
g1167
sVcom.tencent.mm
p3271
g2876
sg780
g2469
sVcom.Astro.UI
p3272
g1209
sg783
g1749
sVcom.baidu.browser.apps
p3273
g2958
sg1317
g1113
sg792
g2358
sg3157
g605
sVcom.android.mms
p3274
g3042
sVcom.baidu.BaiduMap
p3275
g2384
sg89
g1292
sg797
g1364
sVcom.android.quicksearchbox
p3276
g3123
ssg41
(dp3277
g1332
g2274
sg1114
g1419
sg3272
g1188
sVcom.tencent.mm
p3278
g2865
sVcom.android.packageinstaller
p3279
g880
sg2948
g413
sg1434
g2768
sVcom.tencent.android.qqdownloader
p3280
g592
sVcom.qihoo.browser
p3281
g1751
sg2019
g1294
sVcom.android.launcher
p3282
g2534
sg829
g1013
sVcom.ifeng.news2
p3283
g753
ssg43
(dp3284
g1765
g2822
sg2819
g1734
sg837
g852
sVcom.android.launcher
p3285
g2535
ssg45
(dp3286
g2333
g2866
sg2335
g594
sVcom.android.launcher
p3287
g2536
ssg47
(dp3288
Vcom.youku.phone
p3289
g339
sg43
g838
sVcom.zq.Fate
p3290
g366
sg17
g375
sg2946
g382
sg69
g1179
sVcom.android.deskclock
p3291
g480
sg121
g1592
sg29
g597
sg31
g660
sg107
g1498
sg407
g701
sVcom.ifeng.news2
p3292
g755
sVcom.tencent.qt.sns
p3293
g811
sVcom.yiche.price
p3294
g2247
sg45
g843
sg420
g962
sVcom.tencent.mobileqq
p3295
g1015
sg901
g1083
sg97
g1453
sg285
g2907
sg3080
g417
sVcom.Astro.UI
p3296
g1193
sg434
g1117
sg2553
g1259
sg87
g1266
sVcom.baidu.tieba
p3297
g1296
sg95
g1427
sg99
g1461
sVcom.t66y.client.ui
p3298
g1466
sVcom.hfa.BestName
p3299
g2697
sg117
g1540
sg422
g542
sVcom.eg.android.AlipayGphone
p3300
g1605
sg127
g1686
sg129
g1692
sg135
g1719
sg159
g1886
sVcom.qihoo.browser
p3301
g1753
sVcom.nd.android.pandareader
p3302
g1821
sg2112
g1857
sg153
g1860
sVorg.kde.necessitas.example.YXBaZi
p3303
g1869
sg995
g1875
sg1618
g1898
sg799
g1928
sg171
g1938
sg1072
g1959
sg2700
g1965
sg179
g1971
sVorg.kde.necessitas.ministro
p3304
g2069
sg193
g2076
sg426
g2094
sVcom.ylmf.androidclient
p3305
g2145
sg2741
g2175
sg615
g2184
sg2849
g2449
sg209
g2205
sVexample.yijing
p3306
g2214
sg918
g2219
sg336
g2228
sg217
g2242
sg245
g2472
sg3179
g2276
sg91
g1369
sVcom.baidu.BaiduMap
p3307
g2366
sg229
g2391
sg231
g2399
sg233
g2408
sg235
g2414
sg237
g2421
sg207
g2197
sVcn.taxen.ziwei
p3308
g1087
sg251
g2514
sg3167
g2537
sg438
g2686
sg313
g3074
sg265
g2712
sg858
g2732
sg275
g2815
sg2073
g2821
sg79
g1241
sg281
g2840
sVcom.tencent.mm
p3309
g2867
sg3181
g2932
sg137
g1726
sg385
g2945
sg297
g2962
sg2657
g3017
sVcom.android.mms
p3310
g3035
sg315
g3079
sVcom.android.bluetooth
p3311
g3095
sg2172
g3106
sg325
g3137
ssg49
(dp3312
g2413
g885
sg235
g2415
sVcom.android.launcher
p3313
g2538
ssg51
(dp3314
g317
g3088
sg689
g2539
sg953
g2263
sg223
g2325
sg960
g1352
sVcom.android.packageinstaller
p3315
g887
sg3215
g421
sg105
g1486
sg967
g2795
sg969
g1738
sg1033
g2151
sg681
g600
sVcom.nd.android.pandareader
p3316
g1823
sg973
g2852
sg37
g702
sg978
g1699
ssg53
(dp3317
Vcom.kingroot.kinguser
p3318
g2282
sVcom.qihoo.browser
p3319
g1762
ssg55
(dp3320
Vcom.kingroot.kinguser
p3321
g2284
sg3230
g2879
sg2846
g606
sVcom.android.launcher
p3322
g2540
ssg57
(dp3323
Vcom.android.gallery3d
p3324
g1585
sg2266
g610
sg1051
g2675
sVcom.android.mms
p3325
g3058
sg1090
g451
sg61
g1089
sVcom.baidu.home2
p3326
g2807
sVvStudio.Android.Camera360
p3327
g2487
sg2857
g2541
sg585
g712
sVcom.ifeng.news2
p3328
g771
sg1010
g1447
sVcom.tencent.qt.sns
p3329
g830
sVcom.android.packageinstaller
p3330
g931
sVcom.android.soundrecorder
p3331
g2062
sg1018
g2753
sg1020
g561
sg269
g2781
sVcom.huawei.hidisk
p3332
g2103
sVcom.android.phone
p3333
g1667
sg788
g2835
sg898
g1482
sg3271
g2880
sVcom.ylmf.androidclient
p3334
g2170
sg1038
g2925
sg1006
g2012
sVmark.via
p3335
g1145
sg2060
g1217
sVcom.android.quicksearchbox
p3336
g3118
sVcom.qihoo.browser
p3337
g1784
sg1578
g2957
sVcom.nd.android.pandareader
p3338
g1841
sg221
g2286
sg3184
g2992
sg792
g2354
sg734
g1878
sVcom.baidu.BaiduMap
p3339
g2386
sg2346
g1312
sVcom.android.settings
p3340
g1400
sVcom.ct.client
p3341
g1916
sg1069
g3133
ssg59
(dp3342
g1958
g902
sVcom.simple.fortuneteller
p3343
g1962
sg440
g2202
sg1078
g2543
sg31
g662
ssg61
(dp3344
g1016
g1569
sg450
g999
sVcom.android.launcher
p3345
g2632
sVcom.tencent.android.qqdownloader
p3346
g619
sg1090
g433
ssg63
(dp3347
g1095
g621
sg1319
g2445
sVcom.android.deskclock
p3348
g491
sVcom.android.launcher
p3349
g2544
sg746
g714
sVcom.ifeng.news2
p3350
g776
sg833
g335
sg115
g1527
sg2864
g803
sVcom.android.packageinstaller
p3351
g908
sg1118
g2749
sg888
g536
sg761
g2765
sg550
g2104
sg3178
g1669
sg3278
g2883
sg1110
g2004
sVcom.qihoo.cleandroid_cn
p3352
g435
sVcom.Astro.UI
p3353
g1190
sg139
g1781
sVcom.nd.android.pandareader
p3354
g1817
sg1146
g2308
sg456
g2330
sVcom.android.mms
p3355
g3026
sVcom.baidu.tieba
p3356
g1318
sg1153
g1366
ssg65
(dp3357
g1156
g2969
sg464
g1389
sVcom.android.packageinstaller
p3358
g923
sVcom.android.mms
p3359
g3052
sVcom.qihoo.browser
p3360
g1773
sVcom.baidu.tieba
p3361
g1329
sVcom.android.launcher
p3362
g2545
sVcom.tencent.mm
p3363
g2884
sg1166
g778
sVcom.tencent.mobileqq
p3364
g1041
ssg67
(dp3365
Vmark.via
p3366
g1133
ssg69
(dp3367
Vcom.huawei.hidisk
p3368
g2106
sg1178
g856
sg207
g2198
sVcom.android.launcher
p3369
g2547
ssg71
(dp3370
g1668
g1137
sVcom.android.mms
p3371
g3053
sg3270
g2296
sVcom.tencent.mobileqq
p3372
g1046
sg3331
g2061
sVcom.qihoo.cleandroid_cn
p3373
g415
sVcom.android.deskclock
p3374
g495
sg579
g523
sVcom.qihoo.browser
p3375
g1777
sg506
g1322
sVcom.android.launcher
p3376
g2548
sg3178
g1663
sVcom.tencent.mm
p3377
g2889
sg405
g2008
sg477
g782
ssg73
(dp3378
Vcom.baidu.home2
p3379
g2800
sg1224
g1438
ssg75
(dp3380
g479
g924
sg1494
g1705
sg492
g447
sVcom.android.launcher
p3381
g2549
sg546
g1491
ssg77
(dp3382
g3071
g1395
sg3073
g881
sVcom.android.launcher
p3383
g2550
sg15
g364
ssg79
(dp3384
g3229
g897
sg29
g607
sg3227
g2551
ssg81
(dp3385
g1246
g1388
sg75
g1229
sg1232
g2552
ssg83
(dp3386
Vcom.tencent.android.qqdownloader
p3387
g638
ssg85
(dp3388
Vcom.android.settings
p3389
g1379
sg1262
g2554
sVcom.tencent.android.qqdownloader
p3390
g608
sg602
g2779
ssg87
(dp3391
g452
g2313
sVcom.tencent.android.qqdownloader
p3392
g644
sVcom.android.launcher
p3393
g2555
ssg89
(dp3394
g1578
g2953
sg255
g2671
sg1278
g463
sg395
g1475
sg1283
g507
sg579
g527
sVvStudio.Android.Camera360
p3395
g2497
sVcom.tencent.android.qqdownloader
p3396
g649
sg2090
g1545
sVcom.feistma.appmove
p3397
g726
sVcom.android.contacts
p3398
g2020
sg39
g796
sVcn.wps.moffice_tpt
p3399
g1440
sg2273
g821
sVcom.android.packageinstaller
p3400
g941
sg2733
g1577
sg757
g2759
sVyiqi.bazi
p3401
g2773
sg195
g2121
sVcom.eg.android.AlipayGphone
p3402
g1617
sg1000
g2802
sVcom.android.phone
p3403
g1678
sVcom.amigosoftware.name7_6_web_android
p3404
g1684
sg1127
g2903
sg3305
g2156
sg613
g2040
sVcom.nrop19
p3405
g2189
sg775
g1152
sVcom.huawei.android.dsdscardmanager
p3406
g1712
sg1134
g2457
sVcom.Astro.UI
p3407
g1207
sg2153
g1790
sVcom.tencent.qqlive
p3408
g2231
sg448
g1831
sVcom.tencent.mobileqq
p3409
g1064
sg1332
g2316
sg1891
g2978
sVcn.dz52pojie.www
p3410
g2985
sg792
g2347
sg2659
g3066
sg161
g1890
sg253
g2556
sVcom.android.settings
p3411
g1405
sg3006
g3113
ssg91
(dp3412
g29
g642
sg732
g352
sVcom.baidu.netdisk
p3413
g2447
sg317
g3086
sVcom.android.launcher
p3414
g2557
sVcom.android.mediacenter
p3415
g671
sg746
g723
sg255
g2669
sg1645
g798
sVcom.youdao.dict
p3416
g2034
sVme.onemobile.android
p3417
g1538
sg313
g3072
sg319
g3093
sVcom.android.packageinstaller
p3418
g944
sg51
g961
sg2872
g2769
sg1301
g2123
sg3267
g1674
sg79
g1240
sVcom.tencent.mobileqq
p3419
g1059
sVcom.ylmf.androidclient
p3420
g2162
sg2979
g2022
sVmark.via
p3421
g1154
sg133
g1708
sVoms.mmc.independent_gm.ebook.book121
p3422
g1804
sg1622
g465
sVcom.Astro.UI
p3423
g1213
sVcom.qihoo.browser
p3424
g1793
sg1533
g2318
sVcom.huawei.KoBackup
p3425
g1247
sg1670
g2970
sVcom.tencent.mm
p3426
g2898
sg639
g3062
sg934
g2365
sg111
g1519
sg113
g1522
sVcom.baidu.tieba
p3427
g1340
sVcom.huawei.android.totemweather
p3428
g2351
sg508
g2420
sg171
g1936
ssg93
(dp3429
g1901
g657
sVcom.yidalianke.app
p3430
g1905
sg1903
g2558
sg1414
g467
ssg95
(dp3431
Vmark.via
p3432
g1115
sg239
g2433
sg73
g1225
sg1424
g2863
sg1258
g878
sVcom.qihoo.cleandroid_cn
p3433
g411
sg1018
g2730
sg3379
g2791
sVcom.huawei.hidisk
p3434
g2089
sVcom.baidu.tieba
p3435
g1293
sVcom.android.launcher
p3436
g2559
sVcom.nd.android.pandareader
p3437
g1815
sVcom.tencent.mobileqq
p3438
g1011
sg3193
g2045
ssg97
(dp3439
Vcom.android.mms
p3440
g3059
sVcom.android.contacts
p3441
g2013
sVcom.android.launcher
p3442
g2560
ssg99
(dp3443
sg101
(dp3444
g23
g472
sg2273
g813
sg820
g1321
sVcom.baidu.netdisk
p3445
g2450
sVcom.android.launcher
p3446
g2561
ssg103
(dp3447
Vcom.baidu.tieba
p3448
g1280
sVcom.android.launcher
p3449
g2562
sVcom.ifeng.news2
p3450
g738
sg1278
g396
ssg105
(dp3451
g960
g1401
sg1460
g899
sg51
g966
sVcom.tencent.token
p3452
g547
sg99
g1462
sVcom.baidu.home2
p3453
g2799
sVcom.baidu.tieba
p3454
g1331
sg971
g2563
sVcom.android.phone
p3455
g1636
sVcom.tencent.mobileqq
p3456
g1030
sg2808
g1979
sg131
g1700
ssg107
(dp3457
g615
g2191
sg1497
g870
sVcom.android.launcher
p3458
g2564
sg514
g568
sg1504
g404
ssg109
(dp3459
g1507
g474
sVcom.qihoo.browser
p3460
g1743
sVcom.tencent.mm
p3461
g2856
sVcom.android.packageinstaller
p3462
g865
sVcom.android.launcher
p3463
g2565
ssg111
(dp3464
g1533
g2314
sg934
g2371
sg1546
g2566
ssg113
(dp3465
g3416
g2043
ssg115
(dp3466
sg117
(dp3467
Vcom.kingroot.kinguser
p3468
g2290
sg1406
g1926
sg235
g2412
sg3410
g2982
sg1537
g1359
sg1539
g872
sg49
g949
sg2623
g2360
sVorg.kde.necessitas.ministro
p3469
g2066
sg1370
g2731
sVcom.phoenix.eightwords
p3470
g2406
sg2372
g2091
sVcom.android.launcher
p3471
g2568
sVorg.kde.necessitas.example.YXBaZi
p3472
g1867
sg1551
g1837
sVcom.feistma.appmove
p3473
g698
ssg119
(dp3474
g1396
g2277
sVcom.android.flashlight
p3475
g2919
sg955
g2185
sVcom.android.launcher
p3476
g2569
sg1354
g517
sVcom.tencent.mm
p3477
g2869
sVcn.mixiaoxiao.myappscreenmask
p3478
g2734
sg424
g2770
sg1992
g2095
sVvStudio.Android.Camera360
p3479
g2491
sVcom.baidu.tieba
p3480
g1298
sVcom.tencent.android.qqdownloader
p3481
g599
sg2760
g2338
sVcom.qihoo.cleandroid_cn
p3482
g419
sg652
g3127
sg432
g1085
sg450
g1017
sVcom.android.contacts
p3483
g1989
sVcom.ifeng.news2
p3484
g756
ssg121
(dp3485
sg123
(dp3486
Vcom.kingroot.kinguser
p3487
g2281
sVcom.android.contacts
p3488
g1985
sg2402
g588
sVcom.android.calendar
p3489
g2323
sg2897
g1376
sg2398
g892
sVcom.android.phone
p3490
g1653
sVcom.android.mms
p3491
g3033
sg2324
g977
sg231
g2397
sg1045
g1220
sg3039
g2101
sVcom.baidu.tieba
p3492
g1304
sVcom.ifeng.news2
p3493
g751
sg2400
g2571
sVcom.baidu.BaiduMap
p3494
g2375
sVcom.tencent.mm
p3495
g2861
sg3420
g2158
sg2870
g2728
sg3372
g1025
ssg125
(dp3496
g1631
g1953
sVcom.baidu.netdisk
p3497
g2462
sg1000
g2804
sVvStudio.Android.Camera360
p3498
g2501
sg1982
g2573
sVcom.feistma.appmove
p3499
g710
sVcom.ifeng.news2
p3500
g765
sVcom.sankuai.meituan
p3501
g2058
sVcom.tencent.token
p3502
g557
sVyiqi.bazi
p3503
g2777
sVcom.tencent.mm
p3504
g2886
sVcom.ylmf.androidclient
p3505
g2147
sg181
g1998
sg1660
g2292
sg133
g1716
sVcom.qihoo.browser
p3506
g1764
sVcom.nd.android.pandareader
p3507
g1835
sVcom.tencent.mobileqq
p3508
g1027
sVmark.via
p3509
g1126
sg1670
g2975
sVcom.sinovatech.unicom.ui
p3510
g3005
sg2021
g1378
sVcom.android.mms
p3511
g3044
sVcom.baidu.tieba
p3512
g1308
sVcom.android.quicksearchbox
p3513
g3116
ssg127
(dp3514
g1885
g896
sg901
g1081
sg1180
g2574
sg159
g1884
ssg129
(dp3515
g3167
g2575
sg3292
g768
ssg131
(dp3516
Vcom.baidu.backuprestore
p3517
g979
sVcom.tencent.token
p3518
g566
sg546
g1495
sg273
g2812
sVcom.android.launcher
p3519
g2576
sVcom.android.phone
p3520
g1659
sVcom.tencent.mobileqq
p3521
g1036
ssg133
(dp3522
Vcom.android.settings
p3523
g1390
sg1709
g1775
sVcom.android.launcher
p3524
g2578
sVcom.android.phone
p3525
g1662
ssg135
(dp3526
Vcom.tencent.android.qqdownloader
p3527
g629
ssg137
(dp3528
g147
g1844
sVcom.tencent.android.qqdownloader
p3529
g628
ssg139
(dp3530
g173
g1949
sg3298
g1468
sg2851
g970
sVcom.android.deskclock
p3531
g497
sg109
g1512
sg1744
g2581
sg261
g2695
sVcom.android.contacts
p3532
g2010
sVcom.ifeng.news2
p3533
g784
sg3212
g819
sg1465
g917
sg1754
g2746
sVcom.eg.android.AlipayGphone
p3534
g1615
sVcom.android.phone
p3535
g1665
sg277
g2820
sVcom.tencent.mm
p3536
g2891
sg1769
g2154
sg3318
g2299
sg65
g1161
sVcom.huawei.android.dsdscardmanager
p3537
g1710
sVcom.qihoo.cleandroid_cn
p3538
g444
sg211
g2212
sg143
g1807
sVcom.tencent.mobileqq
p3539
g1048
sg1780
g1139
sg1056
g2984
sg3060
g3001
sg1281
g2345
sVcom.android.mms
p3540
g3055
sVcom.baidu.tieba
p3541
g1324
sVcom.android.settings
p3542
g1393
sg3276
g3111
sg169
g1930
ssg141
(dp3543
Vpredictor.namer
p3544
g2707
sg2961
g911
sg2379
g2960
sg2964
g2579
ssg143
(dp3545
g1964
g921
sg169
g1929
sVcom.android.launcher
p3546
g2582
ssg145
(dp3547
g1811
g2304
sVcom.android.gallery3d
p3548
g1583
sVcom.tencent.android.qqdownloader
p3549
g634
sg1816
g1143
sVcom.Astro.UI
p3550
g1215
sg617
g2893
sVcom.android.packageinstaller
p3551
g925
sVcom.android.mms
p3552
g3057
sg684
g449
sg622
g2463
sg1826
g499
sVcom.huawei.hidisk
p3553
g2109
sg3327
g2504
sVcom.ifeng.news2
p3554
g787
sg1832
g2584
sVme.onemobile.android
p3555
g1552
sg1309
g2833
sg3438
g1054
sg3172
g719
sVcn.mixiaoxiao.myappscreenmask
p3556
g2747
sg1010
g1445
ssg147
(dp3557
g3529
g635
ssg149
(dp3558
g3326
g2805
sg2806
g1042
ssg151
(dp3559
g263
g2703
sVcom.huawei.hidisk
p3560
g2113
sVcom.android.packageinstaller
p3561
g927
sVcom.android.launcher
p3562
g2586
ssg153
(dp3563
g2814
g929
sg2816
g2587
ssg155
(dp3564
g175
g1957
sg1801
g2588
sg191
g2068
sg141
g1799
sVcom.tencent.android.qqdownloader
p3565
g625
sg59
g1075
ssg157
(dp3566
Vcom.android.mms
p3567
g3063
sg3407
g1196
sg1206
g1277
sVcom.android.launcher
p3568
g2589
sg1877
g996
sVcom.ifeng.news2
p3569
g735
ssg159
(dp3570
g1178
g915
sg69
g1182
sg2199
g2580
ssg161
(dp3571
VvStudio.Android.Camera360
p3572
g2502
sg2488
g2972
sVcom.android.launcher
p3573
g2590
ssg163
(dp3574
g591
g822
sVcom.android.launcher
p3575
g2591
sg806
g2317
sg912
g2458
sVcom.tencent.qqlive
p3576
g2233
sg3300
g1619
ssg165
(dp3577
g1911
g2999
sVcom.kingroot.kinguser
p3578
g2297
sg1913
g2593
sVcom.tencent.android.qqdownloader
p3579
g651
ssg167
(dp3580
g77
g1235
sg369
g2594
sg15
g371
ssg169
(dp3581
g2700
g1966
sVcom.android.bluetooth
p3582
g3100
sg1964
g945
sVcom.huawei.hidisk
p3583
g2126
sVcom.android.launcher
p3584
g2595
sVcom.android.settings
p3585
g1407
sVcom.tencent.mm
p3586
g2904
sVcom.ifeng.news2
p3587
g800
ssg171
(dp3588
g2172
g3109
sg3102
g2179
sg2174
g946
sVcom.android.launcher
p3589
g2596
ssg173
(dp3590
g1305
g2790
sg2788
g2255
sVcom.baidu.tieba
p3591
g1273
sVcom.android.phone
p3592
g1632
ssg175
(dp3593
Vcom.android.settings
p3594
g1345
sg2961
g849
sg141
g1800
sVcom.huawei.hidisk
p3595
g2080
sVcom.android.launcher
p3596
g2597
sg2201
g1073
ssg177
(dp3597
Vme.onemobile.android
p3598
g1535
sVcom.android.packageinstaller
p3599
g864
sVcom.hfa.BestName
p3600
g2701
sVcom.android.launcher
p3601
g2598
ssg179
(dp3602
g1265
g854
sVcom.tencent.android.qqdownloader
p3603
g573
sVcom.android.launcher
p3604
g2599
ssg181
(dp3605
Vcom.jiongji.andriod.card
p3606
g1945
sVcom.youdao.dict
p3607
g2031
sg1319
g2467
sVcom.baidu.home2
p3608
g2809
sVvStudio.Android.Camera360
p3609
g2495
sg109
g1514
sg1982
g2601
sVcom.android.mediacenter
p3610
g679
sVcom.feistma.appmove
p3611
g692
sVcom.eg.android.AlipayGphone
p3612
g1601
sg3501
g2054
sVcom.android.gallery3d
p3613
g1587
sVcom.baidu.backuprestore
p3614
g958
sg27
g563
sVcom.huawei.hidisk
p3615
g2099
sg3500
g749
sg764
g1644
sVcom.android.htmlviewer
p3616
g2139
sVcom.tencent.mm
p3617
g2860
sVcom.ylmf.androidclient
p3618
g2166
sVcom.android.flashlight
p3619
g2927
sg2025
g2288
sg3051
g1165
sVcom.qihoo.cleandroid_cn
p3620
g406
sVcom.Astro.UI
p3621
g1186
sVcom.qihoo.browser
p3622
g1747
sVmark.via
p3623
g1111
sg1670
g2980
sg3510
g3013
sVcom.tencent.mobileqq
p3624
g1007
sg1336
g3032
sVcom.baidu.tieba
p3625
g1291
sVcom.android.settings
p3626
g1386
sg321
g3121
sg323
g3134
ssg183
(dp3627
g3247
g1943
sVcn.wps.moffice_tpt
p3628
g1429
sVcom.tencent.android.qqdownloader
p3629
g614
sVcom.android.mms
p3630
g3034
sg113
g1524
sg2037
g2794
sVcom.android.launcher
p3631
g2603
sVcom.tencent.mobileqq
p3632
g1037
sg1954
g696
ssg185
(dp3633
Vcom.android.launcher
p3634
g2585
ssg187
(dp3635
g2053
g1987
sg2057
g1648
ssg189
(dp3636
Vcom.ifeng.news2
p3637
g745
ssg191
(dp3638
g624
g1870
sg1871
g2604
sg3565
g601
sg2542
g1077
ssg193
(dp3639
Vcom.baidu.BaiduMap
p3640
g2361
sVcom.android.launcher
p3641
g2605
ssg195
(dp3642
g732
g354
sg997
g427
sVcom.android.deskclock
p3643
g486
sVcom.clov4r.android.nil
p3644
g525
sVcom.android.launcher
p3645
g2606
sVcom.feistma.appmove
p3646
g706
sVcom.ifeng.news2
p3647
g763
sg319
g3097
sg1014
g891
sg1988
g1573
sg888
g551
sg3483
g1993
sg2100
g1613
sg197
g2136
sVcom.tencent.mm
p3648
g2874
sg2706
g1798
sg2849
g2455
sg3423
g1203
sg1047
g1760
sg145
g1829
sg3295
g1023
sVmark.via
p3649
g1124
sg1212
g1374
sg3491
g3040
sg460
g2373
sg936
g2389
sVcom.baidu.tieba
p3650
g1302
sg727
g2343
sg508
g2423
ssg197
(dp3651
Vcom.huawei.hidisk
p3652
g2102
sVcom.nd.android.pandareader
p3653
g1813
sVcom.ifeng.news2
p3654
g767
sVcom.android.launcher
p3655
g2607
ssg199
(dp3656
g3205
g1130
sVcom.nrop19
p3657
g2192
sg1140
g2237
sg1754
g2740
sg2146
g1657
sg458
g3046
sg471
g1471
sg780
g2451
sg23
g487
sVcom.clov4r.android.nil
p3658
g531
sg2745
g1770
sVcom.baidu.tieba
p3659
g1314
sg3191
g2608
sg2161
g1383
sg3316
g1839
sVcom.tencent.mobileqq
p3660
g1034
sVcom.ifeng.news2
p3661
g773
ssg201
(dp3662
g2172
g3103
sVcom.android.packageinstaller
p3663
g903
sg858
g2742
sVcom.android.launcher
p3664
g2609
ssg203
(dp3665
g3205
g1132
sg514
g616
sg3206
g1384
sg1497
g905
sg516
g1557
sg2262
g956
sg471
g1464
sg25
g513
sg475
g2610
sg107
g1501
sg1504
g431
sg199
g2141
ssg205
(dp3666
Vcom.android.launcher
p3667
g2611
ssg207
(dp3668
Vcom.huawei.hidisk
p3669
g2082
sVcom.android.packageinstaller
p3670
g909
sVcom.qihoo.cleandroid_cn
p3671
g441
sg3369
g2612
sVcom.android.settings
p3672
g1391
ssg209
(dp3673
g2931
g914
sVcom.tencent.android.qqdownloader
p3674
g631
sg2937
g442
sVcom.android.launcher
p3675
g2613
ssg211
(dp3676
g2211
g1779
sg2215
g2615
ssg213
(dp3677
g720
g2300
sg1935
g1394
sg1937
g919
sg157
g1876
sg874
g716
sg1373
g2108
sg1206
g1325
sg3568
g2616
sVorg.getlantern.firetweet
p3678
g1939
ssg215
(dp3679
g3235
g2302
sVcom.android.launcher
p3680
g2617
sVmark.via
p3681
g1141
sVcom.android.packageinstaller
p3682
g920
sg376
g445
sVcom.baidu.tieba
p3683
g1327
sVcom.tencent.android.qqdownloader
p3684
g632
sVcom.ifeng.news2
p3685
g785
sg3289
g337
ssg217
(dp3686
Vcom.tencent.qt.sns
p3687
g825
sVcom.android.launcher
p3688
g2618
ssg219
(dp3689
Vcom.tencent.android.qqdownloader
p3690
g593
sVcom.android.launcher
p3691
g2619
sg466
g1409
ssg221
(dp3692
g2857
g2620
sVcom.baidu.netdisk
p3693
g2443
sVcom.shoujiduoduo.ringtone
p3694
g1474
sVcom.baidu.backuprestore
p3695
g954
sg3374
g501
sVvStudio.Android.Camera360
p3696
g2483
sg473
g1510
sg3392
g637
sVcom.android.mediacenter
p3697
g673
sg874
g721
sg587
g1599
sg3399
g1423
sg287
g2916
sg591
g807
sg3253
g926
sVcn.mixiaoxiao.myappscreenmask
p3698
g2744
sVcom.android.contacts
p3699
g2026
sVcom.huawei.hidisk
p3700
g2111
sg2875
g790
sg1305
g2789
sVcom.android.phone
p3701
g1661
sg1309
g2827
sg3271
g2894
sg2793
g2029
sg871
g1534
sVcom.sub.bazisuanminkan
p3702
g1170
sVcom.qihoo.cleandroid_cn
p3703
g453
sg494
g1184
sg916
g1772
sg3408
g2225
sVcom.nd.android.pandareader
p3704
g1812
sg770
g1055
sg535
g1147
sVcom.android.settings
p3705
g1397
sVcom.android.mms
p3706
g3050
sg934
g2364
sg2230
g1333
sVcom.huawei.android.totemweather
p3707
g2332
sg2592
g1908
ssg223
(dp3708
g1033
g2142
sVcom.android.launcher
p3709
g2621
sg1822
g959
ssg225
(dp3710
Vcom.kingroot.kinguser
p3711
g2311
sg3657
g2183
sg1668
g1148
sVcn.mixiaoxiao.myappscreenmask
p3712
g2761
sVcom.sankuai.meituan
p3713
g2050
sg1633
g457
sg1650
g540
sg3222
g2016
sg1136
g1191
sVcom.huawei.hidisk
p3714
g2116
sVcom.baidu.tieba
p3715
g1282
sVcom.feistma.appmove
p3716
g728
sVcom.android.launcher
p3717
g2622
sVcom.android.phone
p3718
g1680
sg558
g3105
sg766
g2133
sg2892
g1819
sVcom.tencent.mobileqq
p3719
g1066
sg530
g2143
sg2051
g793
sVcom.android.deskclock
p3720
g503
ssg227
(dp3721
g117
g1541
sg151
g1853
sg1551
g1810
sg305
g2998
sVcom.tencent.android.qqdownloader
p3722
g646
sg1043
g2441
sVcom.android.settings
p3723
g1403
sg1539
g935
sg1785
g3064
sg1735
g461
sg229
g2393
sg2096
g2757
sVcom.huawei.hidisk
p3724
g2120
sVcom.qihoo.browser
p3725
g1788
sVcom.baidu.tieba
p3726
g1338
sg2376
g2624
sg297
g2963
sVcom.tencent.mm
p3727
g2901
sVcom.feistma.appmove
p3728
g724
sVcom.eg.android.AlipayGphone
p3729
g1609
ssg229
(dp3730
g167
g1921
sg365
g937
sg237
g2422
sg1922
g2625
sg3290
g368
ssg231
(dp3731
Vcom.android.packageinstaller
p3732
g938
sVcom.tencent.android.qqdownloader
p3733
g647
sVcom.android.launcher
p3734
g2626
ssg233
(dp3735
g3303
g1865
sg1868
g939
sVcom.android.launcher
p3736
g2627
ssg235
(dp3737
Vcom.android.packageinstaller
p3738
g942
sVcom.android.launcher
p3739
g2628
sVcom.shawnyu.suanming
p3740
g1861
ssg237
(dp3741
g2112
g1850
sg1237
g372
sg1367
g2705
sg3643
g509
sg369
g2629
sg167
g1920
sVcom.android.contacts
p3742
g2024
ssg239
(dp3743
sg241
(dp3744
Vcom.kingroot.kinguser
p3745
g2272
sVvStudio.Android.Camera360
p3746
g2511
sVcom.tencent.mobileqq
p3747
g994
sg2484
g589
sVcom.android.launcher
p3748
g2630
ssg243
(dp3749
g2444
g1135
sVcom.tencent.qqlive
p3750
g2229
sVcom.android.launcher
p3751
g2631
sg2826
g2294
sVcom.tencent.mobileqq
p3752
g1044
sVcom.android.packageinstaller
p3753
g913
sg1432
g394
sg1309
g2829
sg1830
g1320
sg772
g2150
sg3549
g623
sg35
g675
sg1053
g1825
sg3648
g2850
sg2466
g1977
sg2167
g781
ssg245
(dp3754
g83
g1256
sg3387
g576
ssg247
(dp3755
g430
g2182
sg1499
g688
sg1502
g2633
ssg249
(dp3756
Vmark.via
p3757
g1104
sVcom.android.launcher
p3758
g2634
sg1031
g2854
sVcom.android.packageinstaller
p3759
g863
sg2490
g1575
sVcom.Astro.UI
p3760
g1205
sg2890
g1742
sVcom.baidu.tieba
p3761
g1286
sVcom.tencent.android.qqdownloader
p3762
g581
sVcom.android.phone
p3763
g1640
sg2924
g1003
sVcom.ifeng.news2
p3764
g742
ssg251
(dp3765
sg253
(dp3766
g11
g345
sg13
g356
sg15
g370
sg17
g379
sg19
g384
sg21
g402
sg23
g476
sVcom.clov4r.android.nil
p3767
g529
sg1650
g555
sg29
g583
sg33
g667
sg35
g677
sg37
g690
sg3500
g731
sg752
g824
sg43
g840
sg45
g845
sg47
g866
sg49
g951
sg51
g972
sg53
g984
sg2283
g987
sg57
g1005
sg59
g1079
sg3308
g1093
sg63
g1106
sg65
g1163
sg67
g1176
sg855
g1181
sg71
g1211
sg75
g1233
sg77
g1236
sg79
g1244
sg81
g1249
sg83
g1253
sg85
g1263
sg87
g1268
sg89
g1275
sg91
g1357
sg93
g1413
sg1010
g1444
sg97
g1457
sg101
g1470
sVcom.shoujiduoduo.ringtone
p3768
g1479
sg105
g1490
sg869
g1503
sg109
g1516
sg261
g2699
sg115
g1531
sg117
g1547
sg3176
g1559
sg121
g1596
sg123
g1603
sg764
g1642
sg127
g1690
sg129
g1695
sg131
g1704
sVcom.huawei.android.dsdscardmanager
p3769
g1714
sg135
g1723
sg137
g1728
sg139
g1745
sg141
g1802
sg145
g1833
sg147
g1843
sg151
g1855
sg153
g1863
sg624
g1872
sg734
g1882
sg159
g1887
sg161
g1894
sg163
g1904
sg165
g1914
sg167
g1923
sg169
g1932
sg171
g1941
sg173
g1951
sg175
g1961
sg177
g1968
sg179
g1975
sVcom.android.contacts
p3770
g1983
sg3193
g2033
sg185
g2048
sg187
g2056
sg189
g2064
sg191
g2071
sg193
g2078
sg195
g2081
sg197
g2138
sg199
g2160
sg201
g2178
sVcom.nrop19
p3771
g2190
sg205
g2195
sg207
g2200
sg209
g2209
sg1778
g2216
sg918
g2223
sg3408
g2235
sg217
g2244
sg3294
g2249
sg221
g2257
sg223
g2327
sg539
g2349
sg227
g2377
sg229
g2395
sg231
g2401
sg233
g2410
sg235
g2417
sg237
g2425
sg241
g2436
sg243
g2460
sg245
g2475
sg247
g2480
sg249
g2499
sg251
g2516
sg1051
g2673
sg257
g2680
sg438
g2688
sg263
g2709
sg265
g2715
sg816
g2724
sg269
g2775
sg275
g2817
sg277
g2824
sVcom.tencent.mtt
p3772
g2831
sg281
g2844
sg3271
g2858
sg285
g2911
sg1038
g2923
sg291
g2936
sg293
g2941
sg295
g2955
sg297
g2965
sg301
g2974
sg303
g2988
sg305
g3003
sg307
g3021
sg2659
g3024
sg313
g3076
sg315
g3083
sg317
g3090
sg3311
g3099
sg558
g3104
sg323
g3130
sg325
g3141
ssg255
(dp3773
Vcom.android.settings
p3774
g1362
sVcom.baidu.tieba
p3775
g1276
sVcom.android.launcher
p3776
g2635
sVcom.tencent.mobileqq
p3777
g1052
ssg257
(dp3778
g1426
g879
sg95
g1417
sg1420
g590
ssg259
(dp3779
Vcom.android.launcher
p3780
g2636
sVcom.android.packageinstaller
p3781
g910
sVcom.qihoo.cleandroid_cn
p3782
g439
sg2689
g612
ssg261
(dp3783
g1856
g873
sg1849
g2428
sVcom.android.launcher
p3784
g2637
ssg263
(dp3785
g851
g836
sg2426
g3092
sg3561
g882
sg3560
g2092
sVcom.android.launcher
p3786
g2638
sg2419
g1368
ssg265
(dp3787
g3170
g595
sVcom.android.launcher
p3788
g2639
ssg267
(dp3789
Vcom.android.launcher
p3790
g2640
sVcom.qihoo.cleandroid_cn
p3791
g398
sVcom.android.deskclock
p3792
g482
sVcom.tencent.android.qqdownloader
p3793
g656
sVcom.android.contacts
p3794
g1990
sg3729
g1611
sVcn.wps.moffice_tpt
p3795
g1448
sg257
g2682
sVcom.tencent.qt.sns
p3796
g817
sg3663
g859
sVyiqi.bazi
p3797
g2771
sVcom.huawei.hidisk
p3798
g2097
sVcom.ifeng.news2
p3799
g758
sVcom.android.phone
p3800
g1649
sg161
g1896
sVcom.tencent.mm
p3801
g2871
sg201
g2176
sVcom.kingroot.kinguser
p3802
g2278
sVcom.qihoo.browser
p3803
g1755
sVcom.tencent.mobileqq
p3804
g1019
sVmark.via
p3805
g1119
sg2488
g2971
sVcom.sinovatech.unicom.ui
p3806
g2996
sg1537
g1371
sVcom.android.mms
p3807
g3036
sg2119
g2370
sVcom.baidu.tieba
p3808
g1299
ssg269
(dp3809
Vcom.kingroot.kinguser
p3810
g2279
sVcom.tencent.android.qqdownloader
p3811
g603
sg3805
g1122
sVcom.tencent.mobileqq
p3812
g1022
sVcom.qihoo.cleandroid_cn
p3813
g425
sg1118
g2735
sVcom.Astro.UI
p3814
g1200
sg1114
g1435
sg940
g1300
sVcom.android.launcher
p3815
g2641
sg2283
g989
sVcom.tencent.mm
p3816
g2873
sVcom.ifeng.news2
p3817
g762
sg3389
g1372
ssg271
(dp3818
g259
g2684
sg2689
g604
ssg273
(dp3819
g533
g2914
sg2788
g2306
sg3247
g1947
sg1224
g1436
sg717
g2944
sg99
g1459
sVcom.android.settings
p3820
g1353
sg1460
g894
sg183
g2038
sg3517
g968
sg2796
g549
sg1978
g1488
sg73
g1223
sg239
g2431
sVcom.baidu.tieba
p3821
g1306
sg1226
g578
sVcom.tencent.mm
p3822
g2878
sg3508
g1001
sg2808
g1997
sVcom.feistma.appmove
p3823
g708
sg2811
g1702
ssg275
(dp3824
g1086
g895
sVcom.android.launcher
p3825
g2642
ssg277
(dp3826
g2819
g1766
sVcom.baidu.BaiduMap
p3827
g2378
sg2823
g2644
sg193
g2074
ssg279
(dp3828
Vcom.baidu.tieba
p3829
g1310
sVcom.tencent.mobileqq
p3830
g1028
sVcom.android.launcher
p3831
g2645
sVcom.ifeng.news2
p3832
g789
ssg281
(dp3833
Vcom.tencent.qt.sns
p3834
g828
sVcom.ifeng.news2
p3835
g769
sVcom.android.launcher
p3836
g2646
ssg283
(dp3837
Vcom.youku.phone
p3838
g347
sVcom.ss.android.article.news
p3839
g360
sg1972
g429
sg1029
g1493
sVvStudio.Android.Camera360
p3840
g2506
sVcom.android.launcher
p3841
g2647
sVcom.android.contacts
p3842
g2000
sg2100
g1625
sg1814
g1425
sVcom.tencent.qt.sns
p3843
g809
sg1970
g900
sg3548
g1563
sg2870
g2739
sg3039
g2105
sVcom.ifeng.news2
p3844
g779
sg2885
g1655
sg2924
g1032
sVcom.ylmf.androidclient
p3845
g2164
sVcom.baidu.backuprestore
p3846
g974
sVcom.Astro.UI
p3847
g1195
sVcom.qihoo.browser
p3848
g1768
sVcom.nd.android.pandareader
p3849
g1838
sg3025
g1128
sg454
g3011
sg3411
g1381
sVcom.tencent.android.qqdownloader
p3850
g618
sVcom.android.mms
p3851
g3045
sVcom.baidu.BaiduMap
p3852
g2368
sVcom.baidu.tieba
p3853
g1335
sg1818
g2334
sg1794
g3120
ssg285
(dp3854
Vcom.tencent.android.qqdownloader
p3855
g626
sg2719
g437
sVcom.android.launcher
p3856
g2546
ssg287
(dp3857
g548
g2787
sg2796
g534
sVcom.android.launcher
p3858
g2567
sg2811
g1697
ssg289
(dp3859
g2918
g1555
sVcom.tencent.mobileqq
p3860
g1039
sg2920
g3048
sVcom.android.deskclock
p3861
g489
sVcom.baidu.tieba
p3862
g1316
sVcom.android.launcher
p3863
g2648
sVcom.tencent.mm
p3864
g2882
sg2926
g2002
sVcom.ifeng.news2
p3865
g774
ssg291
(dp3866
Vcom.tencent.android.qqdownloader
p3867
g627
sVcom.android.launcher
p3868
g2649
ssg293
(dp3869
g33
g668
sg666
g2650
sg3242
g630
ssg295
(dp3870
g2206
g570
sg539
g2331
sg2204
g850
sg19
g386
sVcom.android.gallery3d
p3871
g1579
sg1454
g436
sg1650
g538
sVcom.baidu.home2
p3872
g2792
sg554
g2651
sg558
g3114
sg1580
g3126
sVcom.tencent.mobileqq
p3873
g1050
sVcom.feistma.appmove
p3874
g718
sVcom.youdao.dict
p3875
g2041
ssg297
(dp3876
g263
g2704
sg151
g1851
sg1852
g2380
sg2708
g2652
ssg299
(dp3877
Vcom.kingroot.kinguser
p3878
g2307
sVcom.tencent.android.qqdownloader
p3879
g636
sVcom.android.launcher
p3880
g2653
ssg301
(dp3881
g922
g1157
sVcom.android.settings
p3882
g1398
sg1204
g2489
sg161
g1892
sVcom.android.launcher
p3883
g2654
sVcom.android.phone
p3884
g1671
sg2352
g3124
sVcom.android.contacts
p3885
g2014
ssg303
(dp3886
Vcom.android.packageinstaller
p3887
g928
sVcom.huawei.hidisk
p3888
g2114
sVcom.qihoo.browser
p3889
g1782
sVcom.android.launcher
p3890
g2655
sg197
g2131
sVcom.tencent.mobileqq
p3891
g1057
ssg305
(dp3892
Vcom.kingroot.kinguser
p3893
g2309
sVcom.tencent.android.qqdownloader
p3894
g641
sg2993
g3061
sVcom.qihoo.cleandroid_cn
p3895
g455
sVcn.mixiaoxiao.myappscreenmask
p3896
g2751
sVcom.android.launcher
p3897
g2656
sg3004
g1673
sg165
g1912
sVcom.tencent.mm
p3898
g2896
sg3012
g2015
sVcom.ifeng.news2
p3899
g791
ssg307
(dp3900
Vcom.kingroot.kinguser
p3901
g2312
sg3234
g1060
sg3020
g2658
sg991
g643
ssg309
(dp3902
Vcom.android.launcher
p3903
g2660
sVcom.qihoo.cleandroid_cn
p3904
g459
sg1029
g1484
sVcom.android.deskclock
p3905
g505
sg1574
g2508
sg846
g640
sg1290
g2018
sg1375
g1607
sg3264
g1431
sg842
g933
sg3613
g1565
sg3698
g2755
sg483
g543
sg1612
g2118
sVcom.ifeng.news2
p3906
g794
sVcom.android.phone
p3907
g1676
sg3404
g1688
sVcom.tencent.mm
p3908
g2900
sg3618
g2149
sVcom.android.flashlight
p3909
g2921
sg2743
g2259
sg3051
g1159
sVcom.Astro.UI
p3910
g1219
sg3725
g1786
sVcom.tencent.mobileqq
p3911
g1062
sVmark.via
p3912
g1150
sg2895
g2994
sg3723
g1349
sg1787
g2369
sg3625
g1337
sVcom.huawei.android.totemweather
p3913
g2356
ssg311
(dp3914
Vcom.android.deskclock
p3915
g510
sVcom.android.launcher
p3916
g2666
ssg313
(dp3917
g697
g1536
sVcom.feistma.appmove
p3918
g699
sVcom.android.launcher
p3919
g2661
ssg315
(dp3920
sg317
(dp3921
Vcom.qihoo.browser
p3922
g1791
sVcom.tencent.android.qqdownloader
p3923
g650
sVcom.android.launcher
p3924
g2662
ssg319
(dp3925
g732
g358
sVcom.android.packageinstaller
p3926
g884
sg1301
g2093
sg3650
g1295
sVcom.android.launcher
p3927
g2663
sg508
g2427
sg3647
g754
ssg321
(dp3928
g201
g2173
sg3711
g2320
sg301
g2977
sVme.onemobile.android
p3929
g1550
sVcom.sinovatech.unicom.ui
p3930
g3007
sg2310
g2353
sVcom.android.mms
p3931
g3068
sg858
g2762
sg1650
g559
sVcom.huawei.hidisk
p3932
g2125
sVcom.qihoo.browser
p3933
g1795
sVcom.baidu.tieba
p3934
g1341
sg3219
g2664
sg3220
g1681
sg323
g3131
sVcom.tencent.mobileqq
p3935
g1068
sg3222
g2023
ssg323
(dp3936
g1396
g2321
sVcom.android.launcher
p3937
g2665
sg598
g1581
sg269
g2778
sg3934
g1342
sVcom.tencent.android.qqdownloader
p3938
g653
sg2780
g1070
ssg325
(dp3939
Vcom.tencent.android.qqdownloader
p3940
g654
sssb.