ccopy_reg
_reconstructor
p1
(cnetworkx.classes.digraph
DiGraph
p2
c__builtin__
object
p3
NtRp4
(dp5
S'node'
p6
(dp7
Vcom.google.android.inputmethod.pinyin
p8
(dp9
S'weight'
p10
F1.2058534318040554e-05
ssVcom.android.browser
p11
(dp12
g10
F0.025955995119582291
ssVcom.job.android
p13
(dp14
g10
F4.9878482860985929e-05
ssVco.runner.app
p15
(dp16
g10
F0.00070103933603517579
ssVcom.netease.mobimail
p17
(dp18
g10
F0.012581162157688357
ssVcom.ss.android.article.news
p19
(dp20
g10
F0.0020019907543928693
ssVcom.android.updater
p21
(dp22
g10
F0.00017073788363952875
ssVcom.comingx.athit
p23
(dp24
g10
F0.0098244167780254035
ssVcom.baidu.netdisk
p25
(dp26
g10
F6.3581362767850197e-05
ssVcom.android.thememanager
p27
(dp28
g10
F7.5639897085890746e-05
ssVcom.offcn.android.onlineexamination
p29
(dp30
g10
F0.00029625626358640542
ssVcom.android.deskclock
p31
(dp32
g10
F0.0088205437960485276
ssVcom.happyelements.AndroidAnimal
p33
(dp34
g10
F0.0083746520838791656
ssVcom.sohu.inputmethod.sogou
p35
(dp36
g10
F0.0001194891127878564
ssVcom.miui.voiceassist
p37
(dp38
g10
F0.003907787291839551
ssVcom.android.launcher
p39
(dp40
g10
F0.2466093593958455
ssVsogou.mobile.explorer
p41
(dp42
g10
F0.00078983399783165626
ssVcom.sina.weibo
p43
(dp44
g10
F0.023836981770784801
ssVcn.jsx.youxidiantai
p45
(dp46
g10
F4.1930812515004653e-05
ssVcom.eg.android.AlipayGphone
p47
(dp48
g10
F0.0075437094463269155
ssVcom.youdao.dict
p49
(dp50
g10
F0.0025829928624439141
ssVcom.tsingzone.questionbank
p51
(dp52
g10
F1.342882230872698e-05
ssVcom.zhihu.android
p53
(dp54
g10
F0.00098468895010726614
ssVorg.mozilla.firefox
p55
(dp56
g10
F0.003134122692297995
ssVcom.hyt.android.examin
p57
(dp58
g10
F0.0058472929138571198
ssVcom.chinamworld.main
p59
(dp60
g10
F0.0037386937537888464
ssVcn.wps.moffice_eng
p61
(dp62
g10
F0.0020167898646922828
ssVoffcn.adnroid.newsletter_politics
p63
(dp64
g10
F0.00013017735911521053
ssVcom.qihoo.yunpan
p65
(dp66
g10
F5.0700655655397785e-05
ssVcom.android.packageinstaller
p67
(dp68
g10
F7.4817724291478897e-05
ssVcom.sankuai.meituan
p69
(dp70
g10
F0.0015265008216246792
ssVcom.android.soundrecorder
p71
(dp72
g10
F0.0021401157838540612
ssVcom.jingdong.app.mall
p73
(dp74
g10
F0.00098140025892961874
ssVcom.taobao.taobao
p75
(dp76
g10
F0.0011598117553169914
ssVcom.yixia.xiaokaxiu
p77
(dp78
g10
F0.0011269248435405172
ssVair.fyzb3
p79
(dp80
g10
F0.006918858122573905
ssVcom.nowcoder.app.florida
p81
(dp82
g10
F0.0023867676221776177
ssVcom.alexlee.gwyxc
p83
(dp84
g10
F0.00010331971449775656
ssVcom.android.phone
p85
(dp86
g10
F0.013947887399598999
ssVcom.alibaba.android.rimet
p87
(dp88
g10
F0.0012464139563283735
ssVcom.miui.gallery
p89
(dp90
g10
F0.00122558557886994
ssVcom.tencent.mobileqq
p91
(dp92
g10
F0.12873060905464379
ssVcom.miui.antispam
p93
(dp94
g10
F0.00037244427586857076
ssVcom.youku.phone
p95
(dp96
g10
F0.00031927710182993741
ssVorg.coursera.android
p97
(dp98
g10
F2.7405759813728533e-07
ssVcom.offcn.android.onlineexamination.syyh
p99
(dp100
g10
F0.00012798489833011224
ssVcom.fenbi.android.servant
p101
(dp102
g10
F0.0097465844201544156
ssVcom.meitu.meipaimv
p103
(dp104
g10
F0.00011126738484373784
ssVcom.android.calculator
p105
(dp106
g10
F0.015444515943026715
ssVcom.ggeye.kaoshi.gwy
p107
(dp108
g10
F0.0068333521519550718
ssVcom.tencent.mm
p109
(dp110
g10
F0.2677142609707997
ssVcom.kugou.android
p111
(dp112
g10
F0.0088139664136932337
ssVcom.xiaomi.market
p113
(dp114
g10
F0.00049905888620799656
ssVcom.android.fileexplorer
p115
(dp116
g10
F0.0025802522864625411
ssVcom.qihoo.browser
p117
(dp118
g10
F0.00024500749273473305
ssVcom.miui.yellowpage
p119
(dp120
g10
F5.8100210805104488e-05
ssVcom.brianbaek.popstar
p121
(dp122
g10
F7.1254975515694187e-06
ssVcom.miui.weather2
p123
(dp124
g10
F0.00048069702713279843
ssVcom.android.email
p125
(dp126
g10
F8.2217279441185593e-06
ssVcom.MobileTicket
p127
(dp128
g10
F0.00059388281516349725
ssVcom.miui.player
p129
(dp130
g10
F1.3702879906864265e-06
ssVcom.miui.notes
p131
(dp132
g10
F0.0018783907776329537
ssVcom.UCMobile
p133
(dp134
g10
F0.00042643362270161595
ssVcom.android.calendar
p135
(dp136
g10
F0.0012565540874594531
ssVcom.android.settings
p137
(dp138
g10
F0.0028019648833556049
ssVcom.android.mms
p139
(dp140
g10
F0.12807890008627335
ssVcom.baidu.BaiduMap
p141
(dp142
g10
F0.0020833858610396429
ssVcom.miui.video
p143
(dp144
g10
F0.00082326902480440512
ssVcom.shanbay.words
p145
(dp146
g10
F4.4123273300102937e-05
ssVtv.pps.mobile
p147
(dp148
g10
F0.0059634933354673287
ssVcom.miui.networkassistant
p149
(dp150
g10
F6.687005394549762e-05
ssVcom.fenbi.android.gaozhong
p151
(dp152
g10
F2.1102435056570968e-05
ssVcom.miui.barcodescanner
p153
(dp154
g10
F0.00010469000248844299
ssVcom.exam8.GWyuan
p155
(dp156
g10
F3.0146335795101386e-06
ssVcom.android.quicksearchbox
p157
(dp158
g10
F4.65897916833385e-06
ssVcom.android.camera
p159
(dp160
g10
F0.010640012190081965
ssVcom.mt.mtxx.mtxx
p161
(dp162
g10
F2.7405759813728533e-07
ssVcom.netease.vopen
p163
(dp164
g10
F2.7405759813728533e-07
sssS'node_dict_factory'
p165
c__builtin__
dict
p166
sS'edge_attr_dict_factory'
p167
g166
sS'succ'
p168
(dp169
g8
(dp170
Vcom.android.settings
p171
(dp172
g10
F2.7000000000000002
sssg11
(dp173
Vco.runner.app
p174
(dp175
g10
F0.40000000000000002
ssVcom.netease.mobimail
p176
(dp177
g10
F16.300000000000001
ssVcom.comingx.athit
p178
(dp179
g10
F11.399999999999999
ssg25
(dp180
g10
F0.90000000000000002
ssVcom.android.thememanager
p181
(dp182
g10
F2.2000000000000002
ssVcom.android.deskclock
p183
(dp184
g10
F1.3
ssVcom.UCMobile
p185
(dp186
g10
F2
ssVcom.sohu.inputmethod.sogou
p187
(dp188
g10
I2
ssVcom.android.launcher
p189
(dp190
g10
F273.79999999999984
ssVcom.qihoo.yunpan
p191
(dp192
g10
F0.69999999999999996
ssVcom.eg.android.AlipayGphone
p193
(dp194
g10
F0.90000000000000002
ssVcom.zhihu.android
p195
(dp196
g10
F3.8999999999999995
ssVorg.mozilla.firefox
p197
(dp198
g10
F7.5000000000000018
ssVcom.chinamworld.main
p199
(dp200
g10
F0.40000000000000002
ssVcn.wps.moffice_eng
p201
(dp202
g10
F10.300000000000001
ssVcom.sina.weibo
p203
(dp204
g10
F1.8999999999999999
ssVcom.android.packageinstaller
p205
(dp206
g10
F5.2000000000000002
ssVcom.android.soundrecorder
p207
(dp208
g10
F0.90000000000000002
ssVair.fyzb3
p209
(dp210
g10
I1
ssVcom.nowcoder.app.florida
p211
(dp212
g10
F2.2000000000000002
ssVcom.android.phone
p213
(dp214
g10
F4.6000000000000005
ssg129
(dp215
g10
F2.2999999999999998
ssVcom.tencent.mobileqq
p216
(dp217
g10
F52.799999999999955
ssVcom.miui.antispam
p218
(dp219
g10
F1.3999999999999999
ssVcom.fenbi.android.servant
p220
(dp221
g10
F1.8999999999999999
ssVcom.android.calculator
p222
(dp223
g10
F1.6000000000000001
ssVsogou.mobile.explorer
p224
(dp225
g10
F15.200000000000001
ssVcom.kugou.android
p226
(dp227
g10
F12.200000000000001
ssVcom.xiaomi.market
p228
(dp229
g10
F3.8999999999999999
ssVcom.android.fileexplorer
p230
(dp231
g10
F3.1999999999999997
ssVcom.qihoo.browser
p232
(dp233
g10
F3.2999999999999998
ssVcom.happyelements.AndroidAnimal
p234
(dp235
g10
F3.1000000000000001
ssVcom.hyt.android.examin
p236
(dp237
g10
F2.5
ssVcom.MobileTicket
p238
(dp239
g10
F1.3999999999999999
ssVcom.miui.gallery
p240
(dp241
g10
F3.0999999999999996
ssVcom.miui.notes
p242
(dp243
g10
F5.6000000000000005
ssVcom.ggeye.kaoshi.gwy
p244
(dp245
g10
F0.40000000000000002
ssVcom.tencent.mm
p246
(dp247
g10
F64.299999999999955
ssVcom.android.mms
p248
(dp249
g10
F14.200000000000001
ssVcom.baidu.BaiduMap
p250
(dp251
g10
F3.4000000000000004
ssVtv.pps.mobile
p252
(dp253
g10
F1.6000000000000001
ssVcom.miui.barcodescanner
p254
(dp255
g10
F1.7
ssVcom.android.settings
p256
(dp257
g10
F15.799999999999999
ssVcom.android.camera
p258
(dp259
g10
F4
sssg13
(dp260
Vcom.kugou.android
p261
(dp262
g10
F0.90000000000000002
ssVcom.youku.phone
p263
(dp264
g10
F0.69999999999999996
ssVcom.android.launcher
p265
(dp266
g10
F1.3999999999999999
sssg15
(dp267
Vcom.kugou.android
p268
(dp269
g10
F3.7000000000000002
ssVcom.tencent.mm
p270
(dp271
g10
F4.2999999999999998
ssVcom.android.launcher
p272
(dp273
g10
F14.399999999999999
ssVcom.tencent.mobileqq
p274
(dp275
g10
F3
sssg17
(dp276
Vcom.android.browser
p277
(dp278
g10
F24.199999999999996
ssVcom.comingx.athit
p279
(dp280
g10
F3.7000000000000002
ssVcom.sohu.inputmethod.sogou
p281
(dp282
g10
F0.40000000000000002
ssVcom.android.launcher
p283
(dp284
g10
F111.30000000000013
ssVcom.sina.weibo
p285
(dp286
g10
F3.2999999999999998
ssVcom.eg.android.AlipayGphone
p287
(dp288
g10
F0.90000000000000002
ssVorg.mozilla.firefox
p289
(dp290
g10
F1.3
ssg199
(dp291
g10
F0.69999999999999996
ssVcn.wps.moffice_eng
p292
(dp293
g10
F3.6999999999999997
ssVcom.android.soundrecorder
p294
(dp295
g10
F0.90000000000000002
ssVcom.jingdong.app.mall
p296
(dp297
g10
I1
ssVcom.android.phone
p298
(dp299
g10
F0.90000000000000002
ssVcom.miui.gallery
p300
(dp301
g10
F3.1000000000000001
ssVcom.tencent.mm
p302
(dp303
g10
F29.899999999999984
ssVcom.miui.antispam
p304
(dp305
g10
I1
ssVcom.android.calculator
p306
(dp307
g10
F1.7
ssVsogou.mobile.explorer
p308
(dp309
g10
F0.40000000000000002
ssVcom.kugou.android
p310
(dp311
g10
I1
ssVcom.xiaomi.market
p312
(dp313
g10
F0.40000000000000002
ssVcom.hyt.android.examin
p314
(dp315
g10
F3.3999999999999999
ssVcom.miui.notes
p316
(dp317
g10
F0.90000000000000002
ssVcom.android.calendar
p318
(dp319
g10
F0.90000000000000002
ssVcom.tencent.mobileqq
p320
(dp321
g10
F39.999999999999986
ssVcom.android.mms
p322
(dp323
g10
F19.100000000000001
ssVcom.miui.networkassistant
p324
(dp325
g10
F1.7
sssg19
(dp326
Vcom.android.browser
p327
(dp328
g10
F0.90000000000000002
ssVcn.wps.moffice_eng
p329
(dp330
g10
F0.69999999999999996
ssVcom.sankuai.meituan
p331
(dp332
g10
I1
ssVcom.android.mms
p333
(dp334
g10
I1
ssVcom.baidu.BaiduMap
p335
(dp336
g10
F0.69999999999999996
ssVcom.xiaomi.market
p337
(dp338
g10
F0.90000000000000002
ssVcom.android.launcher
p339
(dp340
g10
F8.3000000000000007
ssg121
(dp341
g10
F0.40000000000000002
sssg21
(dp342
Vcom.tencent.mobileqq
p343
(dp344
g10
F0.40000000000000002
ssVcom.tencent.mm
p345
(dp346
g10
F0.90000000000000002
ssVcom.android.launcher
p347
(dp348
g10
F1.7
sssg23
(dp349
Vcom.android.browser
p350
(dp351
g10
F17.599999999999998
ssVcom.hyt.android.examin
p352
(dp353
g10
F2.2999999999999998
ssVcn.wps.moffice_eng
p354
(dp355
g10
F1.7
ssVcom.netease.mobimail
p356
(dp357
g10
F3.3999999999999999
ssVcom.android.calculator
p358
(dp359
g10
F2.7999999999999998
ssVcom.tencent.mm
p360
(dp361
g10
F16.900000000000002
ssVcom.android.packageinstaller
p362
(dp363
g10
I1
ssg298
(dp364
g10
F0.69999999999999996
ssVcom.android.mms
p365
(dp366
g10
F5.6000000000000005
ssVcom.android.deskclock
p367
(dp368
g10
F0.90000000000000002
ssVcom.android.fileexplorer
p369
(dp370
g10
F3.2999999999999998
ssVcom.qihoo.browser
p371
(dp372
g10
F0.90000000000000002
ssVcom.alexlee.gwyxc
p373
(dp374
g10
F1.3
ssVcom.android.launcher
p375
(dp376
g10
F64.099999999999994
ssVcom.sina.weibo
p377
(dp378
g10
I1
ssg157
(dp379
g10
F0.40000000000000002
ssVsogou.mobile.explorer
p380
(dp381
g10
F1.1000000000000001
ssVcom.miui.gallery
p382
(dp383
g10
F0.69999999999999996
ssVcom.tencent.mobileqq
p384
(dp385
g10
F14.100000000000001
ssVcom.miui.antispam
p386
(dp387
g10
I1
ssVcom.android.settings
p388
(dp389
g10
F4
sssg25
(dp390
Vcom.UCMobile
p391
(dp392
g10
F1.3999999999999999
ssVcom.xiaomi.market
p393
(dp394
g10
F0.90000000000000002
ssVcom.android.launcher
p395
(dp396
g10
F2.5999999999999996
ssVcom.android.fileexplorer
p397
(dp398
g10
F1.1000000000000001
sssg27
(dp399
Vcom.android.browser
p400
(dp401
g10
F2.1000000000000001
ssVcom.tencent.mm
p402
(dp403
g10
F2.7999999999999998
ssVtv.pps.mobile
p404
(dp405
g10
F1.3
ssVcom.android.launcher
p406
(dp407
g10
F12.099999999999998
ssVcom.android.settings
p408
(dp409
g10
F2.7000000000000002
ssVcom.tencent.mobileqq
p410
(dp411
g10
F1.3
sssg29
(dp412
Vcom.android.launcher
p413
(dp414
g10
I2
sssg31
(dp415
Vcom.android.launcher
p416
(dp417
g10
F24.79999999999999
ssVcom.tencent.mobileqq
p418
(dp419
g10
F6.2999999999999998
ssVcom.android.mms
p420
(dp421
g10
F17.399999999999999
ssVcom.miui.voiceassist
p422
(dp423
g10
I1
ssVcom.sohu.inputmethod.sogou
p424
(dp425
g10
F0.69999999999999996
ssVcom.netease.mobimail
p426
(dp427
g10
F1.8
ssVcom.android.phone
p428
(dp429
g10
I3
ssVcom.happyelements.AndroidAnimal
p430
(dp431
g10
F1.3999999999999999
ssVcom.tencent.mm
p432
(dp433
g10
F6
sssg33
(dp434
Vcom.android.browser
p435
(dp436
g10
F1.3999999999999999
ssVcom.miui.notes
p437
(dp438
g10
F0.90000000000000002
ssVcom.youdao.dict
p439
(dp440
g10
F0.90000000000000002
ssVcom.tencent.mobileqq
p441
(dp442
g10
F5.0999999999999996
ssVcom.android.mms
p443
(dp444
g10
F6.7000000000000011
ssVcom.android.deskclock
p445
(dp446
g10
I1
ssVcom.android.launcher
p447
(dp448
g10
F55.800000000000011
ssVcom.android.phone
p449
(dp450
g10
I1
ssg59
(dp451
g10
F0.90000000000000002
ssVcom.tencent.mm
p452
(dp453
g10
F22.499999999999989
ssVcom.miui.antispam
p454
(dp455
g10
F4
ssg95
(dp456
g10
F1.3
sssg35
(dp457
Vcom.android.browser
p458
(dp459
g10
I1
ssVcom.tencent.mobileqq
p460
(dp461
g10
F1.7
ssVcom.android.launcher
p462
(dp463
g10
F2.2999999999999998
sssg37
(dp464
Vcom.android.fileexplorer
p465
(dp466
g10
F0.40000000000000002
ssg424
(dp467
g10
F0.90000000000000002
ssVcom.android.mms
p468
(dp469
g10
F2.8999999999999999
ssVcom.android.launcher
p470
(dp471
g10
F2.7000000000000002
sssg39
(dp472
g8
(dp473
g10
F1.7000000000000002
ssg11
(dp474
g10
F226.59999999999985
ssg13
(dp475
g10
F1.7
ssg15
(dp476
g10
F17.899999999999999
ssVcom.youdao.dict
p477
(dp478
g10
F7.7000000000000002
ssVcom.ss.android.article.news
p479
(dp480
g10
F4.0999999999999996
ssg23
(dp481
g10
F52.099999999999994
ssg25
(dp482
g10
F2.2999999999999998
ssg27
(dp483
g10
F11.800000000000001
ssVcom.offcn.android.onlineexamination
p484
(dp485
g10
I1
ssVcom.android.deskclock
p486
(dp487
g10
F26.099999999999994
ssg33
(dp488
g10
F56.600000000000016
ssg187
(dp489
g10
F5.7999999999999998
ssg163
(dp490
g10
F1.7
ssg17
(dp491
g10
F100.90000000000006
ssVsogou.mobile.explorer
p492
(dp493
g10
F40.399999999999999
ssg43
(dp494
g10
F103.70000000000013
ssg45
(dp495
g10
F1.7
ssg47
(dp496
g10
F93.900000000000048
ssg95
(dp497
g10
F3.6999999999999997
ssg51
(dp498
g10
F3.3999999999999999
ssVcom.zhihu.android
p499
(dp500
g10
F33.100000000000001
ssg197
(dp501
g10
F16.699999999999996
ssg57
(dp502
g10
F20.699999999999999
ssg59
(dp503
g10
F23.999999999999996
ssg61
(dp504
g10
F20.099999999999994
ssg65
(dp505
g10
F2.6000000000000001
ssg67
(dp506
g10
F9.3000000000000007
ssg69
(dp507
g10
F12.6
ssVcom.android.soundrecorder
p508
(dp509
g10
F28.199999999999999
ssg73
(dp510
g10
F1.7
ssVcom.taobao.taobao
p511
(dp512
g10
I1
ssg77
(dp513
g10
F20.999999999999996
ssg79
(dp514
g10
F23.099999999999994
ssg81
(dp515
g10
F13.800000000000001
ssg83
(dp516
g10
F6.1000000000000005
ssg85
(dp517
g10
F89.300000000000026
ssg87
(dp518
g10
F10.4
ssVcom.miui.gallery
p519
(dp520
g10
F21.299999999999994
ssg91
(dp521
g10
F2035.9000000000228
ssVcom.miui.antispam
p522
(dp523
g10
F24.300000000000001
ssg97
(dp524
g10
I1
ssg99
(dp525
g10
I1
ssg101
(dp526
g10
F41.000000000000007
ssVcom.meitu.meipaimv
p527
(dp528
g10
F2.7000000000000002
ssg105
(dp529
g10
F78.600000000000037
ssg244
(dp530
g10
F3.3999999999999999
ssg109
(dp531
g10
F1626.3000000000211
ssg111
(dp532
g10
F48.999999999999993
ssVcom.xiaomi.market
p533
(dp534
g10
F34.399999999999984
ssg115
(dp535
g10
F33.29999999999999
ssg232
(dp536
g10
F7.7000000000000002
ssg119
(dp537
g10
F3.6000000000000001
ssg121
(dp538
g10
F1.7
ssVcom.miui.weather2
p539
(dp540
g10
F4.2999999999999998
ssg125
(dp541
g10
F4
ssg127
(dp542
g10
F16.199999999999996
ssg129
(dp543
g10
F2.7000000000000002
ssg131
(dp544
g10
F20.099999999999998
ssg185
(dp545
g10
F11.5
ssg318
(dp546
g10
F26.699999999999996
ssVcom.android.settings
p547
(dp548
g10
F89.100000000000065
ssg139
(dp549
g10
F298.59999999999957
ssVcom.baidu.BaiduMap
p550
(dp551
g10
F28.099999999999994
ssg143
(dp552
g10
F1.3
ssVtv.pps.mobile
p553
(dp554
g10
F40.399999999999991
ssg324
(dp555
g10
F1.8
ssg151
(dp556
g10
F2.7000000000000002
ssg153
(dp557
g10
F8.4000000000000004
ssg155
(dp558
g10
F1.7
ssg157
(dp559
g10
F1.7
ssVcom.android.camera
p560
(dp561
g10
F159.10000000000002
ssg161
(dp562
g10
F0.69999999999999996
sssg41
(dp563
Vcom.android.browser
p564
(dp565
g10
F6.5999999999999996
ssg197
(dp566
g10
F5.4000000000000004
ssVcom.android.launcher
p567
(dp568
g10
F35.699999999999996
ssg244
(dp569
g10
F1.3
ssVcom.android.mms
p570
(dp571
g10
F2.9999999999999996
ssVcom.kugou.android
p572
(dp573
g10
F1.3
ssVcom.UCMobile
p574
(dp575
g10
F1.8999999999999999
ssVcom.netease.mobimail
p576
(dp577
g10
F1.3
ssVcom.android.settings
p578
(dp579
g10
F3
ssVcom.miui.gallery
p580
(dp581
g10
F2
ssVcom.tencent.mm
p582
(dp583
g10
F8.0000000000000018
ssVcom.tencent.mobileqq
p584
(dp585
g10
F7.7000000000000011
sssg43
(dp586
Vcom.android.browser
p587
(dp588
g10
F5.3999999999999995
ssVco.runner.app
p589
(dp590
g10
F0.40000000000000002
ssVcom.netease.mobimail
p591
(dp592
g10
F4.7000000000000002
ssVcom.comingx.athit
p593
(dp594
g10
F1.3
ssVcom.android.deskclock
p595
(dp596
g10
F2.3999999999999999
ssVcom.sohu.inputmethod.sogou
p597
(dp598
g10
F0.40000000000000002
ssVcom.android.launcher
p599
(dp600
g10
F174.19999999999993
ssVcom.yixia.xiaokaxiu
p601
(dp602
g10
F0.90000000000000002
ssVcom.eg.android.AlipayGphone
p603
(dp604
g10
F2.2999999999999998
ssVcom.zhihu.android
p605
(dp606
g10
F0.40000000000000002
ssVcom.chinamworld.main
p607
(dp608
g10
F1.7
ssVcom.taobao.taobao
p609
(dp610
g10
I1
ssVcom.android.phone
p611
(dp612
g10
I2
ssg519
(dp613
g10
I1
ssVcom.tencent.mm
p614
(dp615
g10
F41.499999999999986
ssVcom.miui.antispam
p616
(dp617
g10
F0.90000000000000002
ssVcom.fenbi.android.servant
p618
(dp619
g10
F5
ssg111
(dp620
g10
F7.5
ssVcom.xiaomi.market
p621
(dp622
g10
F1.6000000000000001
ssVcom.happyelements.AndroidAnimal
p623
(dp624
g10
I1
ssVcom.miui.weather2
p625
(dp626
g10
F0.69999999999999996
ssVcom.tencent.mobileqq
p627
(dp628
g10
F49.099999999999959
ssVcom.MobileTicket
p629
(dp630
g10
F1.7
ssVcom.miui.notes
p631
(dp632
g10
F1.3999999999999999
ssVcom.android.calendar
p633
(dp634
g10
F1.3
ssVcom.android.settings
p635
(dp636
g10
F1.8999999999999999
ssVcom.android.mms
p637
(dp638
g10
F12.500000000000002
ssVcom.miui.video
p639
(dp640
g10
I1
ssVtv.pps.mobile
p641
(dp642
g10
F1.8
ssVcom.miui.barcodescanner
p643
(dp644
g10
F2.2000000000000002
sssg45
(dp645
Vcom.android.packageinstaller
p646
(dp647
g10
I1
ssVcom.android.launcher
p648
(dp649
g10
F1.7
sssg47
(dp650
Vcom.kugou.android
p651
(dp652
g10
F0.40000000000000002
ssg127
(dp653
g10
F1.8
ssVcom.chinamworld.main
p654
(dp655
g10
F1.3
ssVcom.netease.mobimail
p656
(dp657
g10
F1.7
ssVcom.android.browser
p658
(dp659
g10
F0.90000000000000002
ssVcom.android.calculator
p660
(dp661
g10
F5.4000000000000004
ssVcom.tencent.mm
p662
(dp663
g10
F12.200000000000001
ssVcom.sankuai.meituan
p664
(dp665
g10
F1.8
ssVcom.android.mms
p666
(dp667
g10
F19.000000000000004
ssg324
(dp668
g10
I1
ssVcom.sohu.inputmethod.sogou
p669
(dp670
g10
I1
ssVcom.android.launcher
p671
(dp672
g10
F100.30000000000005
ssVcom.android.phone
p673
(dp674
g10
F0.90000000000000002
ssg161
(dp675
g10
F0.40000000000000002
ssVcom.tencent.mobileqq
p676
(dp677
g10
F22.499999999999989
sssg49
(dp678
g435
(dp679
g10
F0.90000000000000002
ssVcom.android.calculator
p680
(dp681
g10
I1
ssVcom.android.mms
p682
(dp683
g10
I3
ssVcom.android.deskclock
p684
(dp685
g10
F1.8999999999999999
ssVcom.android.launcher
p686
(dp687
g10
F8.6999999999999993
ssVcom.happyelements.AndroidAnimal
p688
(dp689
g10
F1.7
ssVcom.tencent.mm
p690
(dp691
g10
F1.8999999999999999
sssg51
(dp692
Vcom.android.browser
p693
(dp694
g10
F0.90000000000000002
ssVcom.hyt.android.examin
p695
(dp696
g10
F0.90000000000000002
ssVcom.fenbi.android.servant
p697
(dp698
g10
F0.40000000000000002
ssVcom.android.launcher
p699
(dp700
g10
F3.4000000000000004
ssVsogou.mobile.explorer
p701
(dp702
g10
F0.40000000000000002
sssg53
(dp703
Vcom.android.browser
p704
(dp705
g10
F4.2000000000000002
ssVcom.miui.barcodescanner
p706
(dp707
g10
F1.3
ssVcom.tencent.mm
p708
(dp709
g10
F4.9000000000000004
ssVcom.kugou.android
p710
(dp711
g10
F4.9000000000000004
ssVcom.baidu.BaiduMap
p712
(dp713
g10
F0.69999999999999996
ssVcom.android.launcher
p714
(dp715
g10
F37
ssg163
(dp716
g10
F0.40000000000000002
ssVcom.android.camera
p717
(dp718
g10
F0.40000000000000002
ssVcom.tencent.mobileqq
p719
(dp720
g10
F3.6000000000000001
sssg55
(dp721
Vcom.android.browser
p722
(dp723
g10
F4
ssVcom.android.launcher
p724
(dp725
g10
F13.5
ssVcom.tencent.mobileqq
p726
(dp727
g10
F3.7999999999999998
ssg572
(dp728
g10
I1
ssg312
(dp729
g10
F0.90000000000000002
ssVcom.UCMobile
p730
(dp731
g10
F1.3
ssg576
(dp732
g10
F2.7000000000000002
ssVsogou.mobile.explorer
p733
(dp734
g10
F2.2999999999999998
ssg580
(dp735
g10
F2.5999999999999996
ssVcom.tencent.mm
p736
(dp737
g10
F3.0999999999999996
sssg57
(dp738
g51
(dp739
g10
F0.40000000000000002
ssVcom.android.browser
p740
(dp741
g10
F3.5
ssg199
(dp742
g10
F0.90000000000000002
ssVcom.android.launcher
p743
(dp744
g10
F30.799999999999997
ssg697
(dp745
g10
F0.90000000000000002
ssVcom.android.calculator
p746
(dp747
g10
F4.4000000000000004
ssVcom.tencent.mobileqq
p748
(dp749
g10
F5.5
ssVcom.comingx.athit
p750
(dp751
g10
F2.7999999999999998
ssVcom.xiaomi.market
p752
(dp753
g10
F0.90000000000000002
ssg281
(dp754
g10
F0.69999999999999996
ssVcom.netease.mobimail
p755
(dp756
g10
F3.0999999999999996
ssVcom.android.phone
p757
(dp758
g10
F2.7000000000000002
ssVsogou.mobile.explorer
p759
(dp760
g10
F0.40000000000000002
ssVcom.alibaba.android.rimet
p761
(dp762
g10
F1.3
ssVcom.tencent.mm
p763
(dp764
g10
F2.1000000000000001
ssVcom.android.settings
p765
(dp766
g10
F0.69999999999999996
sssg59
(dp767
Vcom.android.browser
p768
(dp769
g10
F1.7
ssVcom.sina.weibo
p770
(dp771
g10
I1
ssVcom.android.packageinstaller
p772
(dp773
g10
F0.90000000000000002
ssVcom.android.mms
p774
(dp775
g10
F12.800000000000001
ssVcom.baidu.BaiduMap
p776
(dp777
g10
F0.40000000000000002
ssg281
(dp778
g10
I1
ssVcom.android.launcher
p779
(dp780
g10
F13.899999999999999
ssVcom.tencent.mm
p781
(dp782
g10
F5.6000000000000005
ssVcom.yixia.xiaokaxiu
p783
(dp784
g10
F1.3
ssVcom.eg.android.AlipayGphone
p785
(dp786
g10
F2.7000000000000002
ssVcom.tencent.mobileqq
p787
(dp788
g10
F1.8999999999999999
sssg61
(dp789
Vcom.android.browser
p790
(dp791
g10
F4.9000000000000004
ssVcom.netease.mobimail
p792
(dp793
g10
F2.2999999999999998
ssVcom.tencent.mm
p794
(dp795
g10
F7.0000000000000009
ssVcom.comingx.athit
p796
(dp797
g10
I1
ssVcom.android.mms
p798
(dp799
g10
F1.3
ssVcom.android.fileexplorer
p800
(dp801
g10
F1.7999999999999998
ssVcom.android.launcher
p802
(dp803
g10
F27.799999999999994
ssg207
(dp804
g10
F0.69999999999999996
ssVcom.android.camera
p805
(dp806
g10
F0.90000000000000002
ssVcom.tencent.mobileqq
p807
(dp808
g10
F10.100000000000001
sssg63
(dp809
Vcom.tencent.mobileqq
p810
(dp811
g10
F0.90000000000000002
ssVcom.android.mms
p812
(dp813
g10
I1
ssVcom.android.launcher
p814
(dp815
g10
F1.7
sssg65
(dp816
Vcom.android.fileexplorer
p817
(dp818
g10
F0.90000000000000002
ssVcom.android.launcher
p819
(dp820
g10
F1.7
sssg67
(dp821
Vcom.android.browser
p822
(dp823
g10
F3.0999999999999996
ssg254
(dp824
g10
F0.90000000000000002
ssVcom.tencent.mobileqq
p825
(dp826
g10
F0.69999999999999996
ssVcom.comingx.athit
p827
(dp828
g10
F1.3
ssVcom.android.mms
p829
(dp830
g10
F0.69999999999999996
ssVair.fyzb3
p831
(dp832
g10
F2.8999999999999999
ssVcom.nowcoder.app.florida
p833
(dp834
g10
F0.90000000000000002
ssVcom.android.launcher
p835
(dp836
g10
F12.199999999999999
ssVcom.android.settings
p837
(dp838
g10
F1.3
ssVcom.tencent.mm
p839
(dp840
g10
F3.8999999999999995
ssg45
(dp841
g10
F1.7
sssg69
(dp842
Vcom.miui.barcodescanner
p843
(dp844
g10
F1.3
ssVcom.tencent.mm
p845
(dp846
g10
F1.3999999999999999
ssVcom.android.mms
p847
(dp848
g10
F0.90000000000000002
ssVcom.baidu.BaiduMap
p849
(dp850
g10
F1.8
ssVcom.android.launcher
p851
(dp852
g10
F15.199999999999999
ssVcom.android.settings
p853
(dp854
g10
I1
ssg161
(dp855
g10
F0.90000000000000002
ssVcom.tencent.mobileqq
p856
(dp857
g10
F5.8000000000000007
ssVcom.eg.android.AlipayGphone
p858
(dp859
g10
F2.7999999999999998
sssg71
(dp860
Vcom.miui.notes
p861
(dp862
g10
I1
ssVcom.android.calculator
p863
(dp864
g10
F1.3
ssVcom.tencent.mobileqq
p865
(dp866
g10
F6.5
ssVcom.android.mms
p867
(dp868
g10
F2.7000000000000002
ssVcom.xiaomi.market
p869
(dp870
g10
I1
ssVcom.android.launcher
p871
(dp872
g10
F30.499999999999993
ssVcom.android.phone
p873
(dp874
g10
F2.6000000000000001
ssVcom.happyelements.AndroidAnimal
p875
(dp876
g10
F0.69999999999999996
ssVcom.android.camera
p877
(dp878
g10
F0.90000000000000002
ssVcom.tencent.mm
p879
(dp880
g10
F9.3000000000000007
ssVcom.miui.antispam
p881
(dp882
g10
F0.69999999999999996
ssVcom.eg.android.AlipayGphone
p883
(dp884
g10
F1.3
ssVcom.android.settings
p885
(dp886
g10
F1.6000000000000001
sssg73
(dp887
Vcom.android.mms
p888
(dp889
g10
F0.90000000000000002
ssVcom.tencent.mm
p890
(dp891
g10
F2.2999999999999998
ssVcom.android.launcher
p892
(dp893
g10
F4.0999999999999996
ssVcom.netease.mobimail
p894
(dp895
g10
I1
ssVcom.miui.antispam
p896
(dp897
g10
I1
sssg75
(dp898
Vcom.android.browser
p899
(dp900
g10
F0.90000000000000002
ssVcom.netease.mobimail
p901
(dp902
g10
I1
ssVcom.android.calculator
p903
(dp904
g10
F0.40000000000000002
ssVcom.sina.weibo
p905
(dp906
g10
I1
ssVcom.tencent.mm
p907
(dp908
g10
F0.90000000000000002
ssVcom.android.mms
p909
(dp910
g10
I1
ssg185
(dp911
g10
F0.40000000000000002
ssVcom.android.launcher
p912
(dp913
g10
F7.7999999999999998
ssVcom.android.phone
p914
(dp915
g10
I1
ssVcom.tencent.mobileqq
p916
(dp917
g10
F1.3
sssg77
(dp918
Vcom.android.launcher
p919
(dp920
g10
F24.999999999999993
ssVcom.tencent.mm
p921
(dp922
g10
F17.299999999999997
ssVcom.comingx.athit
p923
(dp924
g10
F0.90000000000000002
ssVcom.android.mms
p925
(dp926
g10
I1
ssVtv.pps.mobile
p927
(dp928
g10
F0.90000000000000002
ssVcom.netease.mobimail
p929
(dp930
g10
F0.90000000000000002
ssVcom.tencent.mobileqq
p931
(dp932
g10
F2.3999999999999999
sssg79
(dp933
Vcom.android.browser
p934
(dp935
g10
F1.3
ssVcom.fenbi.android.servant
p936
(dp937
g10
F1.3999999999999999
ssVcom.android.calculator
p938
(dp939
g10
F0.90000000000000002
ssVcom.tencent.mm
p940
(dp941
g10
F11.200000000000003
ssg67
(dp942
g10
F3.4000000000000004
ssVcom.comingx.athit
p943
(dp944
g10
F0.40000000000000002
ssg829
(dp945
g10
F3
ssg533
(dp946
g10
F0.90000000000000002
ssVtv.pps.mobile
p947
(dp948
g10
F3.1999999999999997
ssVcom.android.calendar
p949
(dp950
g10
F1.3
ssVcom.android.launcher
p951
(dp952
g10
F41.100000000000001
ssVcom.happyelements.AndroidAnimal
p953
(dp954
g10
F1.3
ssVcom.tencent.mobileqq
p955
(dp956
g10
F3.7999999999999998
ssg45
(dp957
g10
F1.7000000000000002
sssg81
(dp958
Vcom.android.browser
p959
(dp960
g10
F1.3999999999999999
ssg205
(dp961
g10
I2
ssVcom.netease.mobimail
p962
(dp963
g10
F0.69999999999999996
ssVcom.android.fileexplorer
p964
(dp965
g10
F0.90000000000000002
ssVcom.android.calendar
p966
(dp967
g10
F1.3
ssVcom.tencent.mm
p968
(dp969
g10
F3.7999999999999998
ssVcom.sina.weibo
p970
(dp971
g10
F0.40000000000000002
ssVcom.android.mms
p972
(dp973
g10
F2.7000000000000002
ssVcom.jingdong.app.mall
p974
(dp975
g10
F1.3999999999999999
ssVcom.xiaomi.market
p976
(dp977
g10
F0.40000000000000002
ssVcom.UCMobile
p978
(dp979
g10
F0.90000000000000002
ssVcom.android.launcher
p980
(dp981
g10
F16.799999999999997
ssVcom.android.settings
p982
(dp983
g10
F0.90000000000000002
ssVcom.android.camera
p984
(dp985
g10
F0.90000000000000002
ssVcom.miui.gallery
p986
(dp987
g10
F0.40000000000000002
ssVcom.tencent.mobileqq
p988
(dp989
g10
F5.2000000000000011
ssg896
(dp990
g10
F0.90000000000000002
sssg83
(dp991
Vcom.android.launcher
p992
(dp993
g10
F3.7000000000000002
sssg85
(dp994
Vcom.android.browser
p995
(dp996
g10
F3.3999999999999999
ssVtv.pps.mobile
p997
(dp998
g10
F1.3999999999999999
ssVcom.miui.notes
p999
(dp1000
g10
I1
ssVcom.netease.mobimail
p1001
(dp1002
g10
F1.7000000000000002
ssVcom.tencent.mm
p1003
(dp1004
g10
F42.199999999999982
ssVsogou.mobile.explorer
p1005
(dp1006
g10
F0.90000000000000002
ssg71
(dp1007
g10
F13.800000000000002
ssg867
(dp1008
g10
F26.099999999999991
ssg181
(dp1009
g10
F0.69999999999999996
ssVcom.xiaomi.market
p1010
(dp1011
g10
F1.6000000000000001
ssVcom.android.deskclock
p1012
(dp1013
g10
I1
ssVcom.yixia.xiaokaxiu
p1014
(dp1015
g10
I1
ssVcom.android.launcher
p1016
(dp1017
g10
F154.30000000000015
ssVcom.android.camera
p1018
(dp1019
g10
F3.6999999999999997
ssVcom.happyelements.AndroidAnimal
p1020
(dp1021
g10
I1
ssg119
(dp1022
g10
F4.5999999999999996
ssVcom.alibaba.android.rimet
p1023
(dp1024
g10
F6.6000000000000005
ssVcom.miui.gallery
p1025
(dp1026
g10
F1.3
ssVcom.tencent.mobileqq
p1027
(dp1028
g10
F54.699999999999989
ssVcom.miui.antispam
p1029
(dp1030
g10
F6.5
ssVcom.android.settings
p1031
(dp1032
g10
F4.2000000000000002
sssg87
(dp1033
Vcom.tencent.mm
p1034
(dp1035
g10
F2.7999999999999998
ssVcom.tencent.mobileqq
p1036
(dp1037
g10
F0.90000000000000002
ssVcom.android.mms
p1038
(dp1039
g10
I1
ssVcom.android.launcher
p1040
(dp1041
g10
F9.4000000000000004
ssVcom.android.phone
p1042
(dp1043
g10
F2.7000000000000002
sssg89
(dp1044
Vcom.android.browser
p1045
(dp1046
g10
F4.2999999999999998
ssVorg.mozilla.firefox
p1047
(dp1048
g10
F0.90000000000000002
ssVcom.netease.mobimail
p1049
(dp1050
g10
F1.6000000000000001
ssVcom.tencent.mm
p1051
(dp1052
g10
F11.300000000000001
ssVcom.comingx.athit
p1053
(dp1054
g10
I1
ssVcom.android.mms
p1055
(dp1056
g10
F0.69999999999999996
ssVcom.android.fileexplorer
p1057
(dp1058
g10
F2.7000000000000002
ssVcom.android.launcher
p1059
(dp1060
g10
F14.800000000000001
ssg733
(dp1061
g10
F1.3999999999999999
ssVcom.android.camera
p1062
(dp1063
g10
F4.4000000000000004
ssVcom.tencent.mobileqq
p1064
(dp1065
g10
F14.000000000000002
sssg91
(dp1066
g8
(dp1067
g10
F0.69999999999999996
ssg11
(dp1068
g10
F40.599999999999973
ssg15
(dp1069
g10
F6.2000000000000011
ssVcom.android.launcher
p1070
(dp1071
g10
F2095.9000000000242
ssVcom.ss.android.article.news
p1072
(dp1073
g10
I1
ssVcom.comingx.athit
p1074
(dp1075
g10
F11.5
ssVcom.android.thememanager
p1076
(dp1077
g10
F2.1000000000000001
ssVcom.android.deskclock
p1078
(dp1079
g10
F3.8999999999999995
ssg978
(dp1080
g10
F1.3999999999999999
ssVcom.miui.voiceassist
p1081
(dp1082
g10
F1.7
ssg591
(dp1083
g10
F54.999999999999979
ssg43
(dp1084
g10
F55.599999999999959
ssVcom.yixia.xiaokaxiu
p1085
(dp1086
g10
F0.40000000000000002
ssVcom.eg.android.AlipayGphone
p1087
(dp1088
g10
F23.79999999999999
ssg439
(dp1089
g10
F0.40000000000000002
ssVcom.tsingzone.questionbank
p1090
(dp1091
g10
F0.90000000000000002
ssg499
(dp1092
g10
F7.5000000000000009
ssVorg.mozilla.firefox
p1093
(dp1094
g10
F1.7000000000000002
ssVcom.hyt.android.examin
p1095
(dp1096
g10
F4.5
ssVcom.chinamworld.main
p1097
(dp1098
g10
F3.8999999999999999
ssg201
(dp1099
g10
F7.7000000000000002
ssg191
(dp1100
g10
I1
ssVcom.android.packageinstaller
p1101
(dp1102
g10
I1
ssVcom.sankuai.meituan
p1103
(dp1104
g10
F3.7000000000000002
ssVcom.android.soundrecorder
p1105
(dp1106
g10
F3.2999999999999998
ssVcom.youku.phone
p1107
(dp1108
g10
I1
ssVair.fyzb3
p1109
(dp1110
g10
F1.6000000000000001
ssVcom.nowcoder.app.florida
p1111
(dp1112
g10
F2.1999999999999997
ssg83
(dp1113
g10
F0.40000000000000002
ssVcom.android.phone
p1114
(dp1115
g10
F22.199999999999996
ssVcom.alibaba.android.rimet
p1116
(dp1117
g10
F0.40000000000000002
ssg519
(dp1118
g10
F8.4000000000000004
ssVcom.tencent.mm
p1119
(dp1120
g10
F614.69999999999391
ssg93
(dp1121
g10
F11.700000000000001
ssVcom.fenbi.android.servant
p1122
(dp1123
g10
F6.4000000000000012
ssg103
(dp1124
g10
I1
ssg863
(dp1125
g10
F13.700000000000003
ssVsogou.mobile.explorer
p1126
(dp1127
g10
F10.9
ssVcom.kugou.android
p1128
(dp1129
g10
F13.1
ssg228
(dp1130
g10
F4.2999999999999998
ssVcom.android.fileexplorer
p1131
(dp1132
g10
F6.5
ssVcom.qihoo.browser
p1133
(dp1134
g10
F1.3
ssg560
(dp1135
g10
F41.099999999999966
ssg234
(dp1136
g10
F6.8000000000000007
ssVcom.miui.weather2
p1137
(dp1138
g10
F0.90000000000000002
ssg125
(dp1139
g10
F0.40000000000000002
ssVcom.MobileTicket
p1140
(dp1141
g10
F6.3000000000000007
ssg131
(dp1142
g10
F1.7999999999999998
ssVcom.android.calendar
p1143
(dp1144
g10
F6.2000000000000011
ssVcom.android.settings
p1145
(dp1146
g10
F34.599999999999987
ssVcom.android.mms
p1147
(dp1148
g10
F120.60000000000019
ssVcom.baidu.BaiduMap
p1149
(dp1150
g10
F9.0000000000000018
ssg143
(dp1151
g10
F0.69999999999999996
ssVtv.pps.mobile
p1152
(dp1153
g10
F15.100000000000001
ssg149
(dp1154
g10
I1
ssg153
(dp1155
g10
F1.6000000000000001
ssg119
(dp1156
g10
F0.69999999999999996
ssg163
(dp1157
g10
F0.90000000000000002
sssg93
(dp1158
Vcom.android.browser
p1159
(dp1160
g10
F0.69999999999999996
ssVcom.android.calculator
p1161
(dp1162
g10
F1.7
ssg1031
(dp1163
g10
F7.9000000000000004
ssVcom.tencent.mm
p1164
(dp1165
g10
F7.9000000000000004
ssVcom.android.mms
p1166
(dp1167
g10
F37.5
ssVcom.jingdong.app.mall
p1168
(dp1169
g10
F0.90000000000000002
ssVcom.android.soundrecorder
p1170
(dp1171
g10
F1.3
ssVcom.android.launcher
p1172
(dp1173
g10
F23.499999999999996
ssVcom.android.phone
p1174
(dp1175
g10
F2.2000000000000002
ssVcom.happyelements.AndroidAnimal
p1176
(dp1177
g10
F3.0999999999999996
ssVcom.tencent.mobileqq
p1178
(dp1179
g10
F9.2000000000000011
sssg95
(dp1180
Vcom.tencent.mm
p1181
(dp1182
g10
F4.3000000000000007
ssVcom.tencent.mobileqq
p1183
(dp1184
g10
F2.6999999999999997
ssVcom.android.launcher
p1185
(dp1186
g10
F8
sssg97
(dp1187
Vcom.tencent.mobileqq
p1188
(dp1189
g10
F0.90000000000000002
ssVcom.android.launcher
p1190
(dp1191
g10
F1.7
sssg99
(dp1192
Vcom.android.calculator
p1193
(dp1194
g10
F0.40000000000000002
ssVcom.tencent.mm
p1195
(dp1196
g10
F0.90000000000000002
ssVcom.android.launcher
p1197
(dp1198
g10
F2.7000000000000002
sssg101
(dp1199
Vcom.kugou.android
p1200
(dp1201
g10
F3.2999999999999998
ssVcom.android.browser
p1202
(dp1203
g10
F2.7000000000000002
ssVcom.MobileTicket
p1204
(dp1205
g10
F1.3
ssg949
(dp1206
g10
F0.69999999999999996
ssVcom.sina.weibo
p1207
(dp1208
g10
F3.5
ssVcom.android.phone
p1209
(dp1210
g10
F0.90000000000000002
ssVcom.android.mms
p1211
(dp1212
g10
F2.7000000000000002
ssVcom.xiaomi.market
p1213
(dp1214
g10
I1
ssVcom.android.deskclock
p1215
(dp1216
g10
I1
ssVair.fyzb3
p1217
(dp1218
g10
F3.1000000000000001
ssg1090
(dp1219
g10
F0.40000000000000002
ssVcom.android.launcher
p1220
(dp1221
g10
F43.399999999999999
ssVcom.android.settings
p1222
(dp1223
g10
I1
ssVcom.hyt.android.examin
p1224
(dp1225
g10
F0.90000000000000002
ssVcom.tencent.mm
p1226
(dp1227
g10
F12.100000000000001
ssVcom.tencent.mobileqq
p1228
(dp1229
g10
F4.9000000000000004
sssg103
(dp1230
Vcom.tencent.mobileqq
p1231
(dp1232
g10
F0.90000000000000002
ssVcom.android.launcher
p1233
(dp1234
g10
F2.7000000000000002
sssg105
(dp1235
g651
(dp1236
g10
F0.90000000000000002
ssVcom.android.browser
p1237
(dp1238
g10
F2.2000000000000002
ssVcom.hyt.android.examin
p1239
(dp1240
g10
F6.7000000000000011
ssVcom.netease.mobimail
p1241
(dp1242
g10
F4.5999999999999996
ssVcom.fenbi.android.servant
p1243
(dp1244
g10
F0.40000000000000002
ssVcom.tencent.mm
p1245
(dp1246
g10
F17.300000000000004
ssVcom.sina.weibo
p1247
(dp1248
g10
F2.6000000000000001
ssg750
(dp1249
g10
F1.8
ssVcom.android.mms
p1250
(dp1251
g10
F12.099999999999998
ssVcom.xiaomi.market
p1252
(dp1253
g10
F0.69999999999999996
ssVcom.android.launcher
p1254
(dp1255
g10
F106.7000000000001
ssVcom.android.phone
p1256
(dp1257
g10
I2
ssVcom.android.camera
p1258
(dp1259
g10
F4.2000000000000002
ssVcom.miui.gallery
p1260
(dp1261
g10
F0.69999999999999996
ssVcom.tencent.mobileqq
p1262
(dp1263
g10
F17.600000000000001
ssVcom.miui.antispam
p1264
(dp1265
g10
I1
ssVcom.eg.android.AlipayGphone
p1266
(dp1267
g10
F6.4000000000000004
sssg107
(dp1268
Vcom.tencent.mm
p1269
(dp1270
g10
F1.3999999999999999
ssVcom.tencent.mobileqq
p1271
(dp1272
g10
F1.8
ssVcom.android.mms
p1273
(dp1274
g10
I1
ssVcom.android.launcher
p1275
(dp1276
g10
F6.4000000000000004
ssVcom.android.settings
p1277
(dp1278
g10
I1
sssg109
(dp1279
g11
(dp1280
g10
F78.000000000000014
ssVco.runner.app
p1281
(dp1282
g10
F3.8999999999999999
ssVcom.android.launcher
p1283
(dp1284
g10
F1981.6000000000295
ssg479
(dp1285
g10
F4.9000000000000004
ssVcom.comingx.athit
p1286
(dp1287
g10
F18.599999999999998
ssg1076
(dp1288
g10
F2.7000000000000002
ssg31
(dp1289
g10
F12.300000000000001
ssg978
(dp1290
g10
F2.5
ssg597
(dp1291
g10
F2
ssg422
(dp1292
g10
F0.90000000000000002
ssg17
(dp1293
g10
F49.699999999999989
ssVcom.sina.weibo
p1294
(dp1295
g10
F47.199999999999982
ssVcom.yixia.xiaokaxiu
p1296
(dp1297
g10
F21.399999999999991
ssVcom.eg.android.AlipayGphone
p1298
(dp1299
g10
F22.099999999999991
ssVcom.youdao.dict
p1300
(dp1301
g10
F0.90000000000000002
ssVcom.zhihu.android
p1302
(dp1303
g10
F8
ssg1093
(dp1304
g10
F7.1000000000000005
ssg57
(dp1305
g10
F6.1000000000000014
ssVcom.chinamworld.main
p1306
(dp1307
g10
F10.5
ssg201
(dp1308
g10
F8.5
ssg65
(dp1309
g10
F0.90000000000000002
ssVcom.android.packageinstaller
p1310
(dp1311
g10
F5.7999999999999998
ssg664
(dp1312
g10
F0.40000000000000002
ssVcom.android.soundrecorder
p1313
(dp1314
g10
F11.1
ssVcom.jingdong.app.mall
p1315
(dp1316
g10
I1
ssVair.fyzb3
p1317
(dp1318
g10
F7.2000000000000002
ssg1111
(dp1319
g10
F4.6000000000000005
ssg85
(dp1320
g10
F38.200000000000003
ssVcom.alibaba.android.rimet
p1321
(dp1322
g10
F1.8999999999999999
ssg519
(dp1323
g10
F14.5
ssVcom.tencent.mobileqq
p1324
(dp1325
g10
F630.19999999999413
ssVcom.miui.antispam
p1326
(dp1327
g10
F16.399999999999999
ssg99
(dp1328
g10
F0.90000000000000002
ssg101
(dp1329
g10
F13.6
ssg527
(dp1330
g10
F1.3
ssg105
(dp1331
g10
F21.599999999999994
ssg41
(dp1332
g10
F12.400000000000002
ssg226
(dp1333
g10
F20.199999999999999
ssVcom.xiaomi.market
p1334
(dp1335
g10
F7.1000000000000014
ssg1131
(dp1336
g10
F7.0000000000000009
ssVcom.miui.yellowpage
p1337
(dp1338
g10
F1.3
ssVcom.happyelements.AndroidAnimal
p1339
(dp1340
g10
F23.299999999999994
ssg125
(dp1341
g10
F0.69999999999999996
ssg1140
(dp1342
g10
F2.6000000000000001
ssg242
(dp1343
g10
F3.9999999999999996
ssVcom.android.calendar
p1344
(dp1345
g10
F6.5000000000000009
ssVcom.android.settings
p1346
(dp1347
g10
F39.499999999999986
ssVcom.android.mms
p1348
(dp1349
g10
F174.50000000000017
ssVcom.baidu.BaiduMap
p1350
(dp1351
g10
F15.199999999999996
ssg639
(dp1352
g10
F0.90000000000000002
ssVtv.pps.mobile
p1353
(dp1354
g10
F8.2000000000000011
ssVcom.miui.networkassistant
p1355
(dp1356
g10
I3
ssg151
(dp1357
g10
F1.3
ssg254
(dp1358
g10
F1.3
ssg155
(dp1359
g10
F0.90000000000000002
ssg560
(dp1360
g10
F48.099999999999973
ssg161
(dp1361
g10
I1
sssg111
(dp1362
Vcom.android.browser
p1363
(dp1364
g10
F8.5999999999999996
ssVorg.mozilla.firefox
p1365
(dp1366
g10
I1
ssVco.runner.app
p1367
(dp1368
g10
I2
ssg263
(dp1369
g10
I1
ssVcom.netease.mobimail
p1370
(dp1371
g10
F4.5999999999999996
ssVcom.zhihu.android
p1372
(dp1373
g10
F3.0999999999999996
ssVcom.android.calculator
p1374
(dp1375
g10
F0.40000000000000002
ssVcom.tencent.mobileqq
p1376
(dp1377
g10
F12.700000000000001
ssVcom.sina.weibo
p1378
(dp1379
g10
F6.4000000000000004
ssVcom.meitu.meipaimv
p1380
(dp1381
g10
F0.90000000000000002
ssVcom.android.mms
p1382
(dp1383
g10
I1
ssVcom.android.deskclock
p1384
(dp1385
g10
F0.90000000000000002
ssVcom.fenbi.android.servant
p1386
(dp1387
g10
I3
ssg187
(dp1388
g10
F0.69999999999999996
ssVcom.android.launcher
p1389
(dp1390
g10
F55.79999999999999
ssVsogou.mobile.explorer
p1391
(dp1392
g10
F0.40000000000000002
ssg13
(dp1393
g10
F0.90000000000000002
ssVcom.tencent.mm
p1394
(dp1395
g10
F16.200000000000003
ssVcom.yixia.xiaokaxiu
p1396
(dp1397
g10
F1.7000000000000002
ssVcom.eg.android.AlipayGphone
p1398
(dp1399
g10
F0.90000000000000002
ssVcom.android.settings
p1400
(dp1401
g10
I1
sssg113
(dp1402
Vcom.android.browser
p1403
(dp1404
g10
F3.3999999999999999
ssg17
(dp1405
g10
F0.90000000000000002
ssg25
(dp1406
g10
F0.69999999999999996
ssg391
(dp1407
g10
F0.40000000000000002
ssg13
(dp1408
g10
F0.40000000000000002
ssVcom.android.launcher
p1409
(dp1410
g10
F37.899999999999999
ssg77
(dp1411
g10
F1.3
ssg51
(dp1412
g10
F0.90000000000000002
ssg59
(dp1413
g10
F0.40000000000000002
ssg67
(dp1414
g10
F0.69999999999999996
ssVcom.android.soundrecorder
p1415
(dp1416
g10
F0.90000000000000002
ssg121
(dp1417
g10
F0.90000000000000002
ssVair.fyzb3
p1418
(dp1419
g10
F1.3
ssVcom.nowcoder.app.florida
p1420
(dp1421
g10
F0.69999999999999996
ssg83
(dp1422
g10
F1.3
ssg87
(dp1423
g10
F1.3
ssVcom.tencent.mobileqq
p1424
(dp1425
g10
F2.7000000000000002
ssg101
(dp1426
g10
F1.7
ssVcom.kugou.android
p1427
(dp1428
g10
F0.90000000000000002
ssVcom.android.fileexplorer
p1429
(dp1430
g10
F0.90000000000000002
ssg33
(dp1431
g10
F1.7000000000000002
ssg318
(dp1432
g10
F0.40000000000000002
ssVcom.tencent.mm
p1433
(dp1434
g10
F6.2000000000000002
ssg1038
(dp1435
g10
F0.69999999999999996
ssVtv.pps.mobile
p1436
(dp1437
g10
F0.90000000000000002
sssg115
(dp1438
Vcom.android.browser
p1439
(dp1440
g10
F3.2999999999999998
ssg61
(dp1441
g10
F4.7000000000000002
ssVcom.tencent.mobileqq
p1442
(dp1443
g10
F7.7000000000000011
ssVcom.android.mms
p1444
(dp1445
g10
I1
ssVcom.baidu.netdisk
p1446
(dp1447
g10
F1.3999999999999999
ssg143
(dp1448
g10
I1
ssg393
(dp1449
g10
F1.7
ssVcom.UCMobile
p1450
(dp1451
g10
I1
ssg65
(dp1452
g10
F0.40000000000000002
ssVcom.android.launcher
p1453
(dp1454
g10
F29.499999999999996
ssg157
(dp1455
g10
F0.90000000000000002
ssVcom.android.camera
p1456
(dp1457
g10
F0.90000000000000002
ssg382
(dp1458
g10
F2.7000000000000002
ssVcom.tencent.mm
p1459
(dp1460
g10
F5.7000000000000011
sssg117
(dp1461
Vcom.android.browser
p1462
(dp1463
g10
F2.5
ssVorg.mozilla.firefox
p1464
(dp1465
g10
F0.80000000000000004
ssVcom.android.settings
p1466
(dp1467
g10
F0.90000000000000002
ssVcom.UCMobile
p1468
(dp1469
g10
F3.2999999999999998
ssVcom.android.launcher
p1470
(dp1471
g10
F13.4
ssVcom.tencent.mobileqq
p1472
(dp1473
g10
F1.3
sssg119
(dp1474
Vcom.android.soundrecorder
p1475
(dp1476
g10
F1.3
ssVcom.android.launcher
p1477
(dp1478
g10
F2.3999999999999999
ssVcom.android.phone
p1479
(dp1480
g10
F3.7000000000000002
sssg121
(dp1481
g33
(dp1482
g10
F0.90000000000000002
ssVcom.android.launcher
p1483
(dp1484
g10
I1
sssg123
(dp1485
Vcom.android.camera
p1486
(dp1487
g10
F0.90000000000000002
ssVcom.tencent.mm
p1488
(dp1489
g10
F0.40000000000000002
ssVcom.tencent.mobileqq
p1490
(dp1491
g10
F1.6000000000000001
ssVcom.android.mms
p1492
(dp1493
g10
I1
ssVcom.android.launcher
p1494
(dp1495
g10
F6.0000000000000009
sssg125
(dp1496
Vcom.tencent.mm
p1497
(dp1498
g10
F1.3
ssVcom.android.launcher
p1499
(dp1500
g10
F5.1000000000000005
ssg1334
(dp1501
g10
F0.40000000000000002
sssg127
(dp1502
Vcom.android.browser
p1503
(dp1504
g10
F0.90000000000000002
ssg605
(dp1505
g10
F1.7
ssVcom.tencent.mobileqq
p1506
(dp1507
g10
F6.6000000000000005
ssVcom.sina.weibo
p1508
(dp1509
g10
I1
ssVcom.android.mms
p1510
(dp1511
g10
I1
ssVcom.android.launcher
p1512
(dp1513
g10
F16.200000000000003
ssVcom.android.phone
p1514
(dp1515
g10
F1.7
ssVcom.tencent.mm
p1516
(dp1517
g10
F2.7999999999999998
sssg129
(dp1518
Vcom.android.browser
p1519
(dp1520
g10
F1.7000000000000002
ssVcom.android.launcher
p1521
(dp1522
g10
F4.4000000000000004
ssVcom.xiaomi.market
p1523
(dp1524
g10
F0.90000000000000002
sssg131
(dp1525
Vcom.android.browser
p1526
(dp1527
g10
F4.4000000000000004
ssg539
(dp1528
g10
F0.90000000000000002
ssVcn.wps.moffice_eng
p1529
(dp1530
g10
I1
ssVcom.tencent.mobileqq
p1531
(dp1532
g10
F1.6000000000000001
ssg1313
(dp1533
g10
F0.69999999999999996
ssg81
(dp1534
g10
F0.90000000000000002
ssVcom.android.launcher
p1535
(dp1536
g10
F19.499999999999996
ssVcom.happyelements.AndroidAnimal
p1537
(dp1538
g10
F0.90000000000000002
ssVcom.android.camera
p1539
(dp1540
g10
F1.8
ssVcom.tencent.mm
p1541
(dp1542
g10
F3.8999999999999999
sssg133
(dp1543
Vcom.android.browser
p1544
(dp1545
g10
F1.6000000000000001
ssVcom.netease.mobimail
p1546
(dp1547
g10
F0.69999999999999996
ssVcom.tencent.mobileqq
p1548
(dp1549
g10
F5
ssg1446
(dp1550
g10
F0.69999999999999996
ssVcom.xiaomi.market
p1551
(dp1552
g10
F0.40000000000000002
ssg397
(dp1553
g10
F1.8
ssVcom.qihoo.browser
p1554
(dp1555
g10
F0.90000000000000002
ssVcom.android.launcher
p1556
(dp1557
g10
F10.900000000000002
ssVsogou.mobile.explorer
p1558
(dp1559
g10
I1
ssVcom.tencent.mm
p1560
(dp1561
g10
F3.2999999999999998
ssVcom.android.settings
p1562
(dp1563
g10
F1.3
sssg135
(dp1564
Vcom.chinamworld.main
p1565
(dp1566
g10
F0.40000000000000002
ssVcom.android.launcher
p1567
(dp1568
g10
F28.699999999999992
ssVcom.tencent.mobileqq
p1569
(dp1570
g10
F9.6000000000000014
ssVair.fyzb3
p1571
(dp1572
g10
I1
ssVcom.netease.mobimail
p1573
(dp1574
g10
F1.3
ssVcom.happyelements.AndroidAnimal
p1575
(dp1576
g10
F0.40000000000000002
ssVcom.android.camera
p1577
(dp1578
g10
F0.40000000000000002
ssVcom.tencent.mm
p1579
(dp1580
g10
F9.1999999999999993
sssg137
(dp1581
g8
(dp1582
g10
F4.4000000000000004
ssVcom.android.browser
p1583
(dp1584
g10
F13.300000000000002
ssVcom.comingx.athit
p1585
(dp1586
g10
F3.4000000000000004
ssVcom.android.thememanager
p1587
(dp1588
g10
F3.4000000000000004
ssVcom.UCMobile
p1589
(dp1590
g10
F0.69999999999999996
ssVcom.android.launcher
p1591
(dp1592
g10
F78.300000000000026
ssVcom.sina.weibo
p1593
(dp1594
g10
F1.8
ssVcom.eg.android.AlipayGphone
p1595
(dp1596
g10
F0.40000000000000002
ssVcom.zhihu.android
p1597
(dp1598
g10
F1.7000000000000002
ssVorg.mozilla.firefox
p1599
(dp1600
g10
F0.90000000000000002
ssg61
(dp1601
g10
F0.69999999999999996
ssVcom.sankuai.meituan
p1602
(dp1603
g10
F0.90000000000000002
ssg1170
(dp1604
g10
F0.69999999999999996
ssVcom.nowcoder.app.florida
p1605
(dp1606
g10
F1.7
ssVsogou.mobile.explorer
p1607
(dp1608
g10
F9.2000000000000011
ssVcom.tencent.mobileqq
p1609
(dp1610
g10
F23.799999999999994
ssg1029
(dp1611
g10
F8.0999999999999996
ssVcom.fenbi.android.servant
p1612
(dp1613
g10
F1.7
ssg213
(dp1614
g10
F2.7000000000000002
ssVcom.android.fileexplorer
p1615
(dp1616
g10
F1.6000000000000001
ssVcom.android.camera
p1617
(dp1618
g10
F3.3999999999999999
ssVcom.tencent.mm
p1619
(dp1620
g10
F13.800000000000001
ssVcom.android.mms
p1621
(dp1622
g10
F4.2000000000000002
ssVcom.miui.yellowpage
p1623
(dp1624
g10
F0.69999999999999996
sssg139
(dp1625
g1439
(dp1626
g10
F12.100000000000003
ssVco.runner.app
p1627
(dp1628
g10
F0.40000000000000002
ssVcom.android.launcher
p1629
(dp1630
g10
F413.79999999999853
ssVcom.ss.android.article.news
p1631
(dp1632
g10
I1
ssg943
(dp1633
g10
F2.2999999999999998
ssVcom.android.thememanager
p1634
(dp1635
g10
F0.40000000000000002
ssVcom.android.deskclock
p1636
(dp1637
g10
F4.4000000000000004
ssg591
(dp1638
g10
F22.199999999999996
ssVcom.sina.weibo
p1639
(dp1640
g10
F10.799999999999999
ssg1087
(dp1641
g10
F16
ssg57
(dp1642
g10
F0.40000000000000002
ssVcom.chinamworld.main
p1643
(dp1644
g10
F5.4000000000000012
ssVcom.sankuai.meituan
p1645
(dp1646
g10
F0.69999999999999996
ssVcom.android.soundrecorder
p1647
(dp1648
g10
F4.4000000000000004
ssg1168
(dp1649
g10
I1
ssVcom.taobao.taobao
p1650
(dp1651
g10
I1
ssVoffcn.adnroid.newsletter_politics
p1652
(dp1653
g10
I1
ssVcom.android.phone
p1654
(dp1655
g10
F21.899999999999999
ssVcom.alibaba.android.rimet
p1656
(dp1657
g10
F1.7
ssVcom.miui.gallery
p1658
(dp1659
g10
F2.9999999999999996
ssVcom.tencent.mm
p1660
(dp1661
g10
F100.7000000000001
ssVcom.miui.antispam
p1662
(dp1663
g10
F31.099999999999994
ssVcom.fenbi.android.servant
p1664
(dp1665
g10
F2.8999999999999999
ssVcom.android.calculator
p1666
(dp1667
g10
F6.8000000000000007
ssVsogou.mobile.explorer
p1668
(dp1669
g10
F1.8999999999999999
ssVcom.kugou.android
p1670
(dp1671
g10
F2.6000000000000001
ssg465
(dp1672
g10
F2.2000000000000002
ssg1623
(dp1673
g10
F0.40000000000000002
ssVcom.happyelements.AndroidAnimal
p1674
(dp1675
g10
F4.5
ssg1137
(dp1676
g10
F1.3999999999999999
ssg125
(dp1677
g10
F1.7
ssg1609
(dp1678
g10
F132.10000000000028
ssVcom.MobileTicket
p1679
(dp1680
g10
F0.69999999999999996
ssVcom.miui.player
p1681
(dp1682
g10
F0.90000000000000002
ssg131
(dp1683
g10
F1.8
ssVcom.android.calendar
p1684
(dp1685
g10
F0.40000000000000002
ssg1145
(dp1686
g10
F12.700000000000001
ssVcom.baidu.BaiduMap
p1687
(dp1688
g10
I1
ssg1081
(dp1689
g10
F0.90000000000000002
ssVtv.pps.mobile
p1690
(dp1691
g10
I1
ssg99
(dp1692
g10
F0.69999999999999996
ssg159
(dp1693
g10
F6.6000000000000005
sssg141
(dp1694
Vcom.android.browser
p1695
(dp1696
g10
F1.8
ssVcom.netease.mobimail
p1697
(dp1698
g10
F0.90000000000000002
ssVcom.android.settings
p1699
(dp1700
g10
I1
ssg1645
(dp1701
g10
F0.90000000000000002
ssVcom.android.mms
p1702
(dp1703
g10
F0.90000000000000002
ssVcom.android.launcher
p1704
(dp1705
g10
F38.799999999999997
ssVcom.android.camera
p1706
(dp1707
g10
F2.2000000000000002
ssVcom.tencent.mm
p1708
(dp1709
g10
F16.399999999999999
ssVcom.eg.android.AlipayGphone
p1710
(dp1711
g10
F0.90000000000000002
ssVcom.tencent.mobileqq
p1712
(dp1713
g10
F2.7000000000000002
sssg143
(dp1714
Vcom.tencent.mobileqq
p1715
(dp1716
g10
F0.40000000000000002
ssVcom.tencent.mm
p1717
(dp1718
g10
F0.90000000000000002
ssVcom.android.launcher
p1719
(dp1720
g10
F2.7000000000000002
sssg145
(dp1721
Vcom.fenbi.android.servant
p1722
(dp1723
g10
F1.3
ssVcom.android.launcher
p1724
(dp1725
g10
F1.7
sssg147
(dp1726
Vcom.android.browser
p1727
(dp1728
g10
F1.3999999999999999
ssVcom.netease.mobimail
p1729
(dp1730
g10
F1.8
ssVcom.tencent.mobileqq
p1731
(dp1732
g10
F18.400000000000002
ssg111
(dp1733
g10
F0.90000000000000002
ssVcom.android.mms
p1734
(dp1735
g10
F1.6000000000000001
ssg533
(dp1736
g10
F0.80000000000000004
ssg79
(dp1737
g10
F3.6000000000000001
ssVcom.android.launcher
p1738
(dp1739
g10
F49.500000000000007
ssVcom.android.phone
p1740
(dp1741
g10
I1
ssVcom.happyelements.AndroidAnimal
p1742
(dp1743
g10
F0.90000000000000002
ssVcom.tencent.mm
p1744
(dp1745
g10
F12.400000000000004
ssVcom.eg.android.AlipayGphone
p1746
(dp1747
g10
I1
ssg95
(dp1748
g10
F0.40000000000000002
sssg149
(dp1749
Vcom.tencent.mobileqq
p1750
(dp1751
g10
F0.69999999999999996
ssVcom.tencent.mm
p1752
(dp1753
g10
I2
ssVcom.android.launcher
p1754
(dp1755
g10
F3.2999999999999998
sssg151
(dp1756
Vcom.tencent.mm
p1757
(dp1758
g10
F1.3
ssVcom.android.launcher
p1759
(dp1760
g10
F2.7000000000000002
sssg153
(dp1761
Vcom.android.browser
p1762
(dp1763
g10
F4.2999999999999998
ssVcom.tencent.mm
p1764
(dp1765
g10
F2.2999999999999998
ssVcom.android.packageinstaller
p1766
(dp1767
g10
F0.40000000000000002
ssVcom.sina.weibo
p1768
(dp1769
g10
F0.69999999999999996
ssVcom.android.launcher
p1770
(dp1771
g10
F5.8999999999999995
ssVcom.tencent.mobileqq
p1772
(dp1773
g10
F1.8
sssg155
(dp1774
sg157
(dp1775
Vcom.android.browser
p1776
(dp1777
g10
I1
ssVcn.wps.moffice_eng
p1778
(dp1779
g10
F0.40000000000000002
ssVcom.android.launcher
p1780
(dp1781
g10
F0.90000000000000002
ssVcom.android.fileexplorer
p1782
(dp1783
g10
F0.69999999999999996
sssg159
(dp1784
Vcom.android.browser
p1785
(dp1786
g10
F3.5
ssVcom.miui.notes
p1787
(dp1788
g10
F0.90000000000000002
ssVcom.netease.mobimail
p1789
(dp1790
g10
F0.69999999999999996
ssg1243
(dp1791
g10
F1.3
ssVcom.zhihu.android
p1792
(dp1793
g10
F1.8
ssVcom.android.calculator
p1794
(dp1795
g10
F0.69999999999999996
ssVcom.tencent.mobileqq
p1796
(dp1797
g10
F37.799999999999969
ssVcom.android.phone
p1798
(dp1799
g10
I1
ssVcom.android.mms
p1800
(dp1801
g10
F5.7999999999999998
ssVcom.android.soundrecorder
p1802
(dp1803
g10
F1.8
ssVcom.android.fileexplorer
p1804
(dp1805
g10
F1.7000000000000002
ssVcom.android.launcher
p1806
(dp1807
g10
F145.00000000000003
ssVcom.android.settings
p1808
(dp1809
g10
F7.2000000000000002
ssVcom.happyelements.AndroidAnimal
p1810
(dp1811
g10
F0.90000000000000002
ssVsogou.mobile.explorer
p1812
(dp1813
g10
F1.7000000000000002
ssVcom.miui.gallery
p1814
(dp1815
g10
F9
ssVcom.tencent.mm
p1816
(dp1817
g10
F24.099999999999991
ssVcom.eg.android.AlipayGphone
p1818
(dp1819
g10
F0.40000000000000002
sssg161
(dp1820
Vcom.tencent.mm
p1821
(dp1822
g10
F0.90000000000000002
ssVcom.eg.android.AlipayGphone
p1823
(dp1824
g10
F0.40000000000000002
ssVcom.android.launcher
p1825
(dp1826
g10
F1.7
sssg163
(dp1827
ssS'edge'
p1828
g169
sS'graph'
p1829
(dp1830
sS'adjlist_dict_factory'
p1831
g166
sS'adj'
p1832
g169
sS'pred'
p1833
(dp1834
g8
(dp1835
Vcom.android.settings
p1836
g1582
sVcom.tencent.mobileqq
p1837
g1067
sVcom.android.launcher
p1838
g473
ssg11
(dp1839
Vcom.android.launcher
p1840
g474
sVcom.ss.android.article.news
p1841
g328
sVcom.comingx.athit
p1842
g351
sg1634
g401
sg1468
g1545
sg597
g459
sVcom.netease.mobimail
p1843
g278
sVcom.sina.weibo
p1844
g588
sVcom.eg.android.AlipayGphone
p1845
g659
sg439
g679
sg51
g694
sg1372
g705
sg1365
g723
sVcom.chinamworld.main
p1846
g769
sVcn.wps.moffice_eng
p1847
g791
sg772
g823
sg511
g900
sVair.fyzb3
p1848
g935
sVcom.nowcoder.app.florida
p1849
g960
sVcom.android.phone
p1850
g996
sg129
g1520
sVcom.tencent.mm
p1851
g1280
sVcom.miui.antispam
p1852
g1160
sVcom.fenbi.android.servant
p1853
g1203
sVcom.android.calculator
p1854
g1238
sg733
g565
sg226
g1364
sVcom.xiaomi.market
p1855
g1404
sVcom.android.fileexplorer
p1856
g1440
sg117
g1463
sVcom.happyelements.AndroidAnimal
p1857
g436
sg1095
g741
sVcom.tencent.mobileqq
p1858
g1068
sVcom.MobileTicket
p1859
g1504
sVcom.miui.gallery
p1860
g1046
sg242
g1527
sg256
g1584
sVcom.android.mms
p1861
g1626
sg250
g1696
sVtv.pps.mobile
p1862
g1728
sg706
g1763
sg157
g1777
sVcom.android.camera
p1863
g1786
ssg13
(dp1864
g1427
g1393
sVcom.android.launcher
p1865
g475
sVcom.xiaomi.market
p1866
g1408
ssg15
(dp1867
Vcom.kugou.android
p1868
g1368
sVcom.android.browser
p1869
g175
sg270
g1282
sVcom.android.mms
p1870
g1628
sg1070
g476
sVcom.sina.weibo
p1871
g590
sg91
g1069
ssg17
(dp1872
Vcom.android.browser
p1873
g177
sVcom.comingx.athit
p1874
g357
sVcom.android.deskclock
p1875
g427
sVcom.UCMobile
p1876
g1547
sVcom.android.launcher
p1877
g491
sg1639
g592
sg601
g930
sVcom.eg.android.AlipayGphone
p1878
g657
sg197
g732
sVcn.wps.moffice_eng
p1879
g793
sg73
g895
sVcom.taobao.taobao
p1880
g902
sVcom.nowcoder.app.florida
p1881
g963
sg224
g577
sg300
g1050
sg1497
g1293
sVcom.android.calculator
p1882
g1242
sVcom.android.phone
p1883
g1002
sVcom.kugou.android
p1884
g1371
sg1334
g1405
sVcom.hyt.android.examin
p1885
g756
sg318
g1574
sVcom.tencent.mobileqq
p1886
g1083
sVcom.android.mms
p1887
g1638
sVcom.baidu.BaiduMap
p1888
g1698
sg1862
g1730
sVcom.android.camera
p1889
g1790
ssg19
(dp1890
Vcom.tencent.mobileqq
p1891
g1073
sVcom.tencent.mm
p1892
g1285
sg333
g1632
sVcom.android.launcher
p1893
g480
ssg21
(dp1894
sg23
(dp1895
Vcom.android.browser
p1896
g179
sg1239
g751
sVcom.netease.mobimail
p1897
g280
sVcom.android.calculator
p1898
g1249
sVcom.tencent.mobileqq
p1899
g1075
sg362
g828
sg388
g1586
sg829
g1633
sVair.fyzb3
p1900
g944
sVcom.android.launcher
p1901
g481
sg377
g594
sVcom.miui.gallery
p1902
g1054
sVcom.tencent.mm
p1903
g1287
sVcom.yixia.xiaokaxiu
p1904
g924
sg354
g797
ssg25
(dp1905
g1450
g1550
sg1403
g180
sg397
g1447
sVcom.android.launcher
p1906
g482
sVcom.xiaomi.market
p1907
g1406
ssg27
(dp1908
g587
g182
sVcom.tencent.mobileqq
p1909
g1077
sVcom.android.mms
p1910
g1635
sVcom.android.launcher
p1911
g483
sg1850
g1009
sVcom.tencent.mm
p1912
g1288
sVcom.android.settings
p1913
g1588
ssg29
(dp1914
Vcom.android.launcher
p1915
g485
ssg31
(dp1916
Vcom.kugou.android
p1917
g1385
sVcom.android.browser
p1918
g184
sVcom.youdao.dict
p1919
g685
sVcom.fenbi.android.servant
p1920
g1216
sVcom.tencent.mm
p1921
g1289
sVcom.comingx.athit
p1922
g368
sVcom.android.mms
p1923
g1637
sVcom.android.launcher
p1924
g487
sVcom.android.phone
p1925
g1013
sVcom.happyelements.AndroidAnimal
p1926
g446
sVcom.sina.weibo
p1927
g596
sVcom.tencent.mobileqq
p1928
g1079
ssg33
(dp1929
Vcom.android.browser
p1930
g235
sg1436
g1743
sVcom.miui.notes
p1931
g1538
sg439
g689
sVcom.android.calendar
p1932
g1576
sVcom.tencent.mm
p1933
g1340
sVcom.sina.weibo
p1934
g624
sg449
g1021
sVcom.android.mms
p1935
g1675
sg337
g1431
sVcom.android.deskclock
p1936
g431
sVair.fyzb3
p1937
g954
sVcom.android.launcher
p1938
g488
sg1105
g876
sg121
g1482
sVcom.android.camera
p1939
g1811
sVcom.tencent.mobileqq
p1940
g1136
sVcom.miui.antispam
p1941
g1177
ssg35
(dp1942
g1363
g188
sg199
g778
sVcom.android.launcher
p1943
g489
sVcom.tencent.mm
p1944
g1291
sg226
g1388
sg422
g467
sVcom.android.deskclock
p1945
g425
sVcom.netease.mobimail
p1946
g282
sg236
g754
sVcom.sina.weibo
p1947
g598
sVcom.eg.android.AlipayGphone
p1948
g670
ssg37
(dp1949
g1945
g423
sVcom.android.mms
p1950
g1689
sVcom.tencent.mm
p1951
g1292
sVcom.tencent.mobileqq
p1952
g1082
ssg39
(dp1953
Vcom.android.browser
p1954
g190
sg1627
g273
sg49
g687
sg19
g340
sg21
g348
sVcom.comingx.athit
p1955
g376
sg25
g396
sg181
g407
sg29
g414
sg486
g417
sVcom.happyelements.AndroidAnimal
p1956
g448
sg13
g266
sg639
g1720
sg17
g284
sg41
g568
sg43
g600
sg45
g649
sVcom.eg.android.AlipayGphone
p1957
g672
sg95
g1186
sg51
g700
sg53
g715
sg55
g725
sVcom.hyt.android.examin
p1958
g744
sVcom.chinamworld.main
p1959
g780
sg61
g803
sVoffcn.adnroid.newsletter_politics
p1960
g815
sg191
g820
sg67
g836
sg69
g852
sVcom.android.soundrecorder
p1961
g872
sVcom.jingdong.app.mall
p1962
g893
sg75
g913
sg77
g920
sg79
g952
sg81
g981
sg83
g993
sVcom.android.phone
p1963
g1017
sVcom.alibaba.android.rimet
p1964
g1041
sg89
g1060
sg91
g1071
sg93
g1173
sg97
g1191
sg101
g1221
sg527
g1234
sg105
g1255
sg107
g1276
sVcom.tencent.mm
p1965
g1284
sg111
g1390
sg113
g1410
sVcom.android.fileexplorer
p1966
g1454
sg117
g1471
sVcom.miui.yellowpage
p1967
g1478
sg121
g1484
sg123
g1495
sg125
g1500
sg127
g1513
sg597
g463
sg129
g1522
sVcom.miui.notes
p1968
g1536
sg133
g1557
sg135
g1568
sg1145
g1592
sg139
g1630
sg141
g1705
sg1081
g471
sg145
g1725
sg147
g1739
sVcom.miui.networkassistant
p1969
g1755
sg151
g1760
sg706
g1771
sg99
g1198
sg157
g1781
sg159
g1807
sg161
g1826
ssg41
(dp1970
Vcom.kugou.android
p1971
g1392
sVcom.android.browser
p1972
g225
sg1047
g734
sVcom.comingx.athit
p1973
g381
sVcom.netease.mobimail
p1974
g309
sVcom.tencent.mobileqq
p1975
g1127
sVcom.android.phone
p1976
g1006
sVcom.android.mms
p1977
g1669
sg1589
g1559
sg567
g493
sVcom.android.settings
p1978
g1608
sVcom.android.camera
p1979
g1813
sg1860
g1061
sVcom.tencent.mm
p1980
g1332
sVcom.hyt.android.examin
p1981
g760
sg51
g702
ssg43
(dp1982
Vcom.kugou.android
p1983
g1379
sVcom.android.browser
p1984
g204
sVcom.chinamworld.main
p1985
g771
sVcom.android.launcher
p1986
g494
sVcom.fenbi.android.servant
p1987
g1208
sVcom.MobileTicket
p1988
g1509
sVcom.android.calculator
p1989
g1248
sVcom.tencent.mobileqq
p1990
g1084
sVcom.comingx.athit
p1991
g378
sg1887
g1640
sVcom.taobao.taobao
p1992
g906
sVcom.miui.barcodescanner
p1993
g1769
sVcom.nowcoder.app.florida
p1994
g971
sg591
g286
sVcom.android.settings
p1995
g1594
sVcom.tencent.mm
p1996
g1295
ssg45
(dp1997
g1418
g957
sg67
g841
sg835
g495
ssg47
(dp1998
g651
g1399
sVcom.android.browser
p1999
g194
sg1959
g786
sVcom.netease.mobimail
p2000
g288
sVcom.android.calculator
p2001
g1267
sVcom.tencent.mm
p2002
g1299
sVcom.sina.weibo
p2003
g604
sVcom.sankuai.meituan
p2004
g859
sVcom.android.mms
p2005
g1641
sVcom.baidu.BaiduMap
p2006
g1711
sVtv.pps.mobile
p2007
g1747
sVcom.android.launcher
p2008
g496
sVcom.android.soundrecorder
p2009
g884
sVcom.android.camera
p2010
g1819
sg161
g1824
sVcom.tencent.mobileqq
p2011
g1088
sg853
g1596
ssg49
(dp2012
g1857
g440
sVcom.tencent.mm
p2013
g1301
sVcom.tencent.mobileqq
p2014
g1089
sVcom.android.launcher
p2015
g478
ssg51
(dp2016
Vcom.hyt.android.examin
p2017
g739
sVcom.tencent.mobileqq
p2018
g1091
sVcom.fenbi.android.servant
p2019
g1219
sVcom.android.launcher
p2020
g498
sg752
g1412
ssg53
(dp2021
g704
g196
sg629
g1505
sVcom.android.settings
p2022
g1598
sg1508
g606
sVcom.tencent.mm
p2023
g1303
sg710
g1373
sVcom.android.launcher
p2024
g500
sVcom.android.camera
p2025
g1793
sVcom.tencent.mobileqq
p2026
g1092
ssg55
(dp2027
Vcom.android.browser
p2028
g198
sVcom.netease.mobimail
p2029
g290
sVcom.tencent.mm
p2030
g1304
sg572
g1366
sg371
g1465
sVcom.android.launcher
p2031
g501
sg224
g566
sg580
g1048
sVcom.tencent.mobileqq
p2032
g1094
sg1466
g1600
ssg57
(dp2033
g1090
g696
sg740
g237
sVcom.android.launcher
p2034
g502
sg220
g1225
sg746
g1240
sVcom.tencent.mobileqq
p2035
g1096
sg750
g353
sVcom.android.mms
p2036
g1642
sg755
g315
sVcom.tencent.mm
p2037
g1305
ssg59
(dp2038
g740
g200
sg1946
g291
sVcom.android.calendar
p2039
g1566
sg770
g608
sVcom.tencent.mm
p2040
g1307
sg637
g1644
sg228
g1413
sVcom.android.launcher
p2041
g503
sVcom.happyelements.AndroidAnimal
p2042
g451
sg236
g742
sVcom.tencent.mobileqq
p2043
g1098
sg1818
g655
ssg61
(dp2044
Vcom.android.browser
p2045
g202
sg593
g355
sg1968
g1530
sVcom.netease.mobimail
p2046
g293
sg1841
g330
sVcom.android.settings
p2047
g1601
sVcom.tencent.mm
p2048
g1308
sg1615
g1441
sVcom.android.launcher
p2049
g504
sg157
g1779
sVcom.tencent.mobileqq
p2050
g1099
ssg63
(dp2051
g812
g1653
ssg65
(dp2052
g230
g1452
sVcom.tencent.mobileqq
p2053
g1100
sVcom.tencent.mm
p2054
g1309
sVcom.android.launcher
p2055
g505
sVcom.android.browser
p2056
g192
ssg67
(dp2057
Vcom.android.browser
p2058
g206
sg1846
g773
sg254
g1767
sVcom.tencent.mobileqq
p2059
g1102
sVcom.comingx.athit
p2060
g363
sg533
g1414
sg1418
g942
sg211
g961
sg951
g506
sVcom.tencent.mm
p2061
g1311
sg45
g647
ssg69
(dp2062
Vcom.ss.android.article.news
p2063
g332
sg853
g1603
sVcom.android.mms
p2064
g1646
sg1687
g1701
sVcom.android.launcher
p2065
g507
sVcom.tencent.mm
p2066
g1312
sVcom.eg.android.AlipayGphone
p2067
g665
sVcom.tencent.mobileqq
p2068
g1104
ssg71
(dp2069
Vcom.android.browser
p2070
g208
sVcom.miui.notes
p2071
g1533
sVcn.wps.moffice_eng
p2072
g804
sVcom.netease.mobimail
p2073
g295
sg1064
g1106
sVcom.android.mms
p2074
g1648
sg869
g1416
sVcom.android.camera
p2075
g1803
sVcom.android.launcher
p2076
g509
sVcom.android.phone
p2077
g1007
sg1967
g1476
sg1541
g1314
sg881
g1171
sg885
g1604
ssg73
(dp2078
Vcom.android.launcher
p2079
g510
sg888
g1649
sVcom.nowcoder.app.florida
p2080
g975
sg894
g297
sVcom.tencent.mm
p2081
g1316
sg896
g1169
ssg75
(dp2082
g905
g610
sg909
g1651
sVcom.android.launcher
p2083
g512
ssg77
(dp2084
Vcom.chinamworld.main
p2085
g784
sVcom.tencent.mobileqq
p2086
g1086
sg921
g1297
sVcom.kugou.android
p2087
g1397
sVcom.xiaomi.market
p2088
g1411
sVcom.android.launcher
p2089
g513
sVcom.android.phone
p2090
g1015
sVcom.sina.weibo
p2091
g602
ssg79
(dp2092
g934
g210
sg936
g1218
sg949
g1572
sVcom.tencent.mobileqq
p2093
g1110
sg67
g832
sg533
g1419
sVtv.pps.mobile
p2094
g1737
sVcom.android.launcher
p2095
g514
sVcom.tencent.mm
p2096
g1318
ssg81
(dp2097
g2058
g212
sVcom.miui.notes
p2098
g1534
sVcom.tencent.mm
p2099
g1319
sVcom.android.packageinstaller
p2100
g834
sg976
g1421
sVcom.android.launcher
p2101
g515
sVcom.android.settings
p2102
g1606
sVcom.tencent.mobileqq
p2103
g1112
ssg83
(dp2104
Vcom.comingx.athit
p2105
g374
sg1715
g1113
sVcom.android.launcher
p2106
g516
sVcom.xiaomi.market
p2107
g1422
ssg85
(dp2108
Vcom.android.browser
p2109
g214
sVcom.android.launcher
p2110
g517
sVcom.comingx.athit
p2111
g364
sVcom.android.deskclock
p2112
g429
sVcom.netease.mobimail
p2113
g299
sVcom.sina.weibo
p2114
g612
sVcom.eg.android.AlipayGphone
p2115
g674
sVcom.android.soundrecorder
p2116
g874
sVcom.taobao.taobao
p2117
g915
sg87
g1043
sVcom.tencent.mm
p2118
g1320
sVcom.miui.antispam
p2119
g1175
sVcom.fenbi.android.servant
p2120
g1210
sVcom.android.calculator
p2121
g1257
sg1337
g1480
sg1176
g450
sVcom.hyt.android.examin
p2122
g758
sVcom.tencent.mobileqq
p2123
g1115
sVcom.MobileTicket
p2124
g1515
sg256
g1614
sVcom.android.mms
p2125
g1655
sVtv.pps.mobile
p2126
g1741
sVcom.android.camera
p2127
g1799
ssg87
(dp2128
Vcom.tencent.mm
p2129
g1322
sg1038
g1657
sVcom.xiaomi.market
p2130
g1423
sVcom.android.launcher
p2131
g518
sg1042
g1024
sVcom.hyt.android.examin
p2132
g762
sVcom.tencent.mobileqq
p2133
g1117
ssg89
(dp2134
g564
g241
sg1093
g735
sVcom.netease.mobimail
p2135
g301
sVcom.android.calculator
p2136
g1261
sVcom.sina.weibo
p2137
g613
sVcom.comingx.athit
p2138
g383
sVcom.android.mms
p2139
g1659
sVsogou.mobile.explorer
p2140
g581
sVcom.android.fileexplorer
p2141
g1458
sVcom.nowcoder.app.florida
p2142
g987
sVcom.android.launcher
p2143
g520
sVcom.android.phone
p2144
g1026
sVcom.android.camera
p2145
g1815
sVcom.tencent.mm
p2146
g1323
sVcom.tencent.mobileqq
p2147
g1118
ssg91
(dp2148
g11
g217
sVco.runner.app
p2149
g275
sVcom.android.launcher
p2150
g521
sg21
g344
sg1286
g385
sVcom.android.thememanager
p2151
g411
sg595
g419
sg978
g1549
sg35
g461
sVcom.netease.mobimail
p2152
g321
sg1294
g628
sg1396
g932
sg1957
g677
sg95
g1184
sg1597
g720
sg55
g727
sg654
g788
sVcn.wps.moffice_eng
p2153
g808
sg1960
g811
sg2100
g826
sg69
g857
sVcom.android.soundrecorder
p2154
g866
sg75
g917
sVair.fyzb3
p2155
g956
sg81
g989
sVcom.android.phone
p2156
g1028
sVcom.alibaba.android.rimet
p2157
g1037
sVcom.miui.gallery
p2158
g1065
sg1965
g1325
sg93
g1179
sg97
g1189
sVcom.miui.networkassistant
p2159
g1751
sg101
g1229
sg1380
g1232
sg105
g1263
sVsogou.mobile.explorer
p2160
g585
sVcom.kugou.android
p2161
g1377
sg113
g1425
sg1966
g1443
sg232
g1473
sVcom.happyelements.AndroidAnimal
p2162
g442
sVcom.miui.weather2
p2163
g1491
sVcom.hyt.android.examin
p2164
g749
sg1140
g1507
sVcom.miui.notes
p2165
g1532
sg135
g1570
sg1145
g1610
sg1147
g1678
sg1149
g1713
sVcom.miui.video
p2166
g1716
sg1690
g1732
sg107
g1272
sg843
g1773
sVcom.android.camera
p2167
g1797
ssg93
(dp2168
Vcom.android.browser
p2169
g219
sVcom.netease.mobimail
p2170
g305
sVcom.android.calculator
p2171
g1265
sg1031
g1611
sVcom.sina.weibo
p2172
g617
sVcom.comingx.athit
p2173
g387
sg1166
g1663
sg974
g897
sVcom.android.soundrecorder
p2174
g882
sg2080
g990
sVcom.android.launcher
p2175
g523
sg1174
g1030
sVcom.happyelements.AndroidAnimal
p2176
g455
sVcom.tencent.mm
p2177
g1327
sVcom.tencent.mobileqq
p2178
g1121
ssg95
(dp2179
g261
g1369
sg1436
g1748
sg13
g264
sVcom.android.launcher
p2180
g497
sg1742
g456
sg1183
g1108
ssg97
(dp2181
Vcom.android.launcher
p2182
g524
ssg99
(dp2183
Vcom.tencent.mm
p2184
g1328
sVcom.android.mms
p2185
g1692
sVcom.android.launcher
p2186
g525
ssg101
(dp2187
g1200
g1387
sg1090
g698
sVcom.android.browser
p2188
g221
sVcom.android.calculator
p2189
g1244
sg1222
g1613
sVcom.sina.weibo
p2190
g619
sVcom.tencent.mm
p2191
g1329
sg1211
g1665
sVcom.xiaomi.market
p2192
g1426
sVair.fyzb3
p2193
g937
sVcom.android.launcher
p2194
g526
sVcom.android.camera
p2195
g1791
sg695
g745
sg1228
g1123
sg145
g1723
ssg103
(dp2196
Vcom.kugou.android
p2197
g1381
sVcom.tencent.mm
p2198
g1330
sVcom.tencent.mobileqq
p2199
g1124
sVcom.android.launcher
p2200
g528
ssg105
(dp2201
g651
g1375
sVcom.android.browser
p2202
g223
sVcom.youdao.dict
p2203
g681
sVcom.netease.mobimail
p2204
g307
sVcom.tencent.mm
p2205
g1331
sVcom.comingx.athit
p2206
g359
sVcom.android.soundrecorder
p2207
g864
sVcom.android.mms
p2208
g1667
sVcom.taobao.taobao
p2209
g904
sVair.fyzb3
p2210
g939
sVcom.android.launcher
p2211
g529
sVcom.offcn.android.onlineexamination.syyh
p2212
g1194
sVcom.android.camera
p2213
g1795
sVcom.hyt.android.examin
p2214
g747
sVcom.tencent.mobileqq
p2215
g1125
sVcom.miui.antispam
p2216
g1162
sVcom.eg.android.AlipayGphone
p2217
g661
ssg107
(dp2218
Vcom.android.browser
p2219
g245
sVcom.android.launcher
p2220
g530
sVsogou.mobile.explorer
p2221
g569
ssg109
(dp2222
g1439
g247
sg1627
g271
sVcom.android.launcher
p2223
g531
sg21
g346
sg1955
g361
sVcom.android.thememanager
p2224
g403
sg1936
g433
sg133
g1561
sg2209
g908
sVcom.netease.mobimail
p2225
g303
sVcom.sina.weibo
p2226
g615
sVcom.yixia.xiaokaxiu
p2227
g922
sg603
g663
sVcom.youdao.dict
p2228
g691
sg53
g709
sg55
g737
sg1958
g764
sVcom.chinamworld.main
p2229
g782
sg61
g795
sVcom.android.packageinstaller
p2230
g840
sg664
g846
sg1313
g880
sVcom.jingdong.app.mall
p2231
g891
sg95
g1182
sg2155
g941
sg81
g969
sg2156
g1004
sVcom.alibaba.android.rimet
p2232
g1035
sVcom.miui.gallery
p2233
g1052
sVcom.tencent.mobileqq
p2234
g1120
sg1662
g1165
sg1355
g1753
sg101
g1227
sg105
g1246
sg2140
g583
sVcom.kugou.android
p2235
g1395
sg113
g1434
sg1966
g1460
sg1956
g453
sg2163
g1489
sVcom.android.email
p2236
g1498
sg1859
g1517
sg2071
g1542
sg135
g1580
sg1145
g1620
sg139
g1661
sVcom.baidu.BaiduMap
p2237
g1709
sg2166
g1718
sg147
g1745
sg107
g1270
sg151
g1758
sg643
g1765
sg2212
g1196
sg159
g1817
sg161
g1822
ssg111
(dp2238
Vcom.android.browser
p2239
g227
sg197
g728
sVco.runner.app
p2240
g269
sVcom.netease.mobimail
p2241
g311
sVcom.fenbi.android.servant
p2242
g1201
sg499
g711
sVcom.android.calculator
p2243
g1236
sVcom.sina.weibo
p2244
g620
sg1382
g1671
sg1866
g1428
sg641
g1733
sg13
g262
sVcom.android.launcher
p2245
g532
sg224
g573
sVcom.tencent.mm
p2246
g1333
sVcom.eg.android.AlipayGphone
p2247
g652
sg1376
g1129
ssg113
(dp2248
Vcom.UCMobile
p2249
g1552
sVcom.android.browser
p2250
g229
sg289
g729
sg129
g1524
sVcom.netease.mobimail
p2251
g313
sg479
g338
sVcom.android.fileexplorer
p2252
g1449
sVcom.android.calculator
p2253
g1253
sVcom.tencent.mobileqq
p2254
g1130
sg1768
g622
sVcom.android.soundrecorder
p2255
g870
sg1446
g394
sg2094
g1736
sg79
g946
sVcom.nowcoder.app.florida
p2256
g977
sVcom.fenbi.android.servant
p2257
g1214
sVcom.android.launcher
p2258
g534
sVcom.android.phone
p2259
g1011
sVcom.android.email
p2260
g1501
sg1497
g1335
sg2017
g753
ssg115
(dp2261
g790
g231
sg1605
g965
sg1847
g801
sVcom.tencent.mm
p2262
g1336
sVcom.comingx.athit
p2263
g370
sVcom.android.mms
p2264
g1672
sg25
g398
sg1081
g466
sg393
g1430
sg391
g1553
sg191
g818
sg39
g535
sg2047
g1616
sg157
g1783
sVcom.android.camera
p2265
g1805
sg382
g1058
sVcom.tencent.mobileqq
p2266
g1132
ssg117
(dp2267
g1462
g233
sVcom.comingx.athit
p2268
g372
sg1472
g1134
sg1470
g536
sVcom.UCMobile
p2269
g1555
ssg119
(dp2270
Vcom.android.settings
p2271
g1624
sVcom.android.mms
p2272
g1673
sVcom.android.launcher
p2273
g537
sVcom.android.phone
p2274
g1022
sVcom.tencent.mm
p2275
g1338
sVcom.tencent.mobileqq
p2276
g1156
ssg121
(dp2277
Vcom.android.launcher
p2278
g538
sg479
g341
sg337
g1417
ssg123
(dp2279
Vcom.android.mms
p2280
g1676
sVcom.sina.weibo
p2281
g626
sVcom.miui.notes
p2282
g1528
sVcom.android.launcher
p2283
g540
sVcom.tencent.mobileqq
p2284
g1138
ssg125
(dp2285
Vcom.tencent.mm
p2286
g1341
sVcom.tencent.mobileqq
p2287
g1139
sVcom.android.mms
p2288
g1677
sVcom.android.launcher
p2289
g541
ssg127
(dp2290
g1503
g239
sVcom.fenbi.android.servant
p2291
g1205
sVcom.tencent.mm
p2292
g1342
sg1508
g630
sVcom.android.mms
p2293
g1680
sVcom.android.launcher
p2294
g542
sVcom.tencent.mobileqq
p2295
g1141
sVcom.eg.android.AlipayGphone
p2296
g653
ssg129
(dp2297
Vcom.android.browser
p2298
g215
sVcom.android.mms
p2299
g1682
sVcom.android.launcher
p2300
g543
ssg131
(dp2301
Vcom.android.browser
p2302
g243
sVcom.netease.mobimail
p2303
g317
sVcom.android.mms
p2304
g1683
sVcom.sina.weibo
p2305
g632
sVcom.android.soundrecorder
p2306
g862
sVcom.android.launcher
p2307
g544
sVcom.android.phone
p2308
g1000
sg1537
g438
sg1539
g1788
sVcom.tencent.mm
p2309
g1343
sVcom.tencent.mobileqq
p2310
g1142
ssg133
(dp2311
g899
g186
sg1599
g731
sg1133
g1469
sVcom.tencent.mobileqq
p2312
g1080
sg1558
g575
sg25
g392
sg511
g911
sg1907
g1407
sg397
g1451
sVcom.nowcoder.app.florida
p2313
g979
sVcom.android.launcher
p2314
g545
sVcom.android.settings
p2315
g1590
sVcom.tencent.mm
p2316
g1290
ssg135
(dp2317
Vcom.android.launcher
p2318
g546
sVcom.fenbi.android.servant
p2319
g1206
sVcom.sina.weibo
p2320
g634
sVcom.tencent.mm
p2321
g1345
sVcom.android.mms
p2322
g1685
sg1334
g1432
sg1217
g950
sVcom.nowcoder.app.florida
p2323
g967
sg17
g319
sVcom.tencent.mobileqq
p2324
g1144
ssg137
(dp2325
g8
g172
sg2109
g257
sVcom.comingx.athit
p2326
g389
sg1587
g409
sg1589
g1563
sVcom.android.launcher
p2327
g548
sVcom.sina.weibo
p2328
g636
sVcom.android.packageinstaller
p2329
g838
sVcom.sankuai.meituan
p2330
g854
sg2174
g886
sVcom.nowcoder.app.florida
p2331
g983
sVsogou.mobile.explorer
p2332
g579
sVcom.tencent.mobileqq
p2333
g1146
sg2119
g1163
sVcom.fenbi.android.servant
p2334
g1223
sg1174
g1032
sVcom.kugou.android
p2335
g1401
sVcom.qihoo.browser
p2336
g1467
sVcom.hyt.android.examin
p2337
g766
sVcom.ggeye.kaoshi.gwy
p2338
g1278
sg1579
g1347
sg1147
g1686
sg1350
g1700
sVcom.android.camera
p2339
g1809
ssg139
(dp2340
Vcom.android.browser
p2341
g249
sg1300
g683
sVcom.ss.android.article.news
p2342
g334
sVcom.comingx.athit
p2343
g366
sVcom.android.deskclock
p2344
g421
sVcom.netease.mobimail
p2345
g323
sg770
g638
sg1085
g926
sg47
g667
sg59
g775
sVcn.wps.moffice_eng
p2346
g799
sg63
g813
sVcom.android.packageinstaller
p2347
g830
sg69
g848
sg2116
g868
sg974
g889
sg75
g910
sVair.fyzb3
p2348
g945
sVcom.nowcoder.app.florida
p2349
g973
sVcom.android.phone
p2350
g1008
sg87
g1039
sg1658
g1056
sVcom.tencent.mm
p2351
g1349
sg93
g1167
sVcom.fenbi.android.servant
p2352
g1212
sVcom.android.calculator
p2353
g1251
sg1668
g571
sVcom.kugou.android
p2354
g1383
sg2130
g1435
sVcom.android.fileexplorer
p2355
g1445
sVcom.happyelements.AndroidAnimal
p2356
g444
sg625
g1493
sg2333
g1148
sVcom.MobileTicket
p2357
g1511
sVcom.ggeye.kaoshi.gwy
p2358
g1274
sg137
g1622
sVcom.baidu.BaiduMap
p2359
g1703
sg37
g469
sVtv.pps.mobile
p2360
g1735
sVcom.android.launcher
p2361
g549
sVcom.android.camera
p2362
g1801
ssg141
(dp2363
Vcom.zhihu.android
p2364
g713
sVcom.chinamworld.main
p2365
g777
sg2063
g336
sVcom.android.browser
p2366
g251
sVcom.tencent.mm
p2367
g1351
sg1645
g850
sg2064
g1688
sg1704
g551
sVcom.tencent.mobileqq
p2368
g1150
ssg143
(dp2369
g1131
g1448
sVcom.sina.weibo
p2370
g640
sVcom.tencent.mm
p2371
g1352
sg2266
g1151
sVcom.android.launcher
p2372
g552
ssg145
(dp2373
sg147
(dp2374
g934
g253
sVcom.tencent.mobileqq
p2375
g1153
sVcom.tencent.mm
p2376
g1354
sVcom.android.mms
p2377
g1691
sVcom.android.thememanager
p2378
g405
sVcom.xiaomi.market
p2379
g1437
sVair.fyzb3
p2380
g948
sg1738
g554
sg1740
g998
sg2244
g642
sVcom.yixia.xiaokaxiu
p2381
g928
ssg149
(dp2382
Vcom.tencent.mm
p2383
g1356
sg287
g668
sVcom.tencent.mobileqq
p2384
g1154
sVcom.android.launcher
p2385
g555
sg2000
g325
ssg151
(dp2386
Vcom.tencent.mm
p2387
g1357
sVcom.android.launcher
p2388
g556
ssg153
(dp2389
Vcom.zhihu.android
p2390
g707
sVcom.android.browser
p2391
g255
sVcom.tencent.mm
p2392
g1358
sVcom.android.packageinstaller
p2393
g824
sVcom.sankuai.meituan
p2394
g844
sVcom.android.launcher
p2395
g557
sVcom.sina.weibo
p2396
g644
sVcom.tencent.mobileqq
p2397
g1155
ssg155
(dp2398
Vcom.tencent.mm
p2399
g1359
sVcom.android.launcher
p2400
g558
ssg157
(dp2401
g369
g1455
sVcom.comingx.athit
p2402
g379
sVcom.android.launcher
p2403
g559
ssg159
(dp2404
Vcom.android.calendar
p2405
g1578
sg1785
g259
sVcom.miui.notes
p2406
g1540
sVcn.wps.moffice_eng
p2407
g806
sVcom.zhihu.android
p2408
g718
sVcom.android.calculator
p2409
g1259
sVcom.tencent.mm
p2410
g1360
sVcom.android.mms
p2411
g1693
sVcom.baidu.BaiduMap
p2412
g1707
sVcom.android.soundrecorder
p2413
g878
sVcom.android.fileexplorer
p2414
g1457
sg2142
g985
sVcom.android.launcher
p2415
g561
sVcom.android.phone
p2416
g1019
sVcom.miui.weather2
p2417
g1487
sg1814
g1063
sVcom.tencent.mobileqq
p2418
g1135
sg1808
g1618
ssg161
(dp2419
g664
g855
sg845
g1361
sVcom.android.launcher
p2420
g562
sg2067
g675
ssg163
(dp2421
g1597
g716
sg719
g1157
sVcom.android.launcher
p2422
g490
sssb.