ccopy_reg
_reconstructor
p1
(cnetworkx.classes.digraph
DiGraph
p2
c__builtin__
object
p3
NtRp4
(dp5
S'node'
p6
(dp7
Vcom.android.browser
p8
(dp9
S'weight'
p10
F0.010520307314131571
ssVcom.tencent.game.rhythmmaster
p11
(dp12
g10
F0.00091651053918071043
ssVcom.tencent.android.qqdownloader
p13
(dp14
g10
F0.00058829757361775388
ssVcom.autonavi.minimap
p15
(dp16
g10
F0.00099890902562638955
ssVcom.android.thememanager
p17
(dp18
g10
F1.8873396336719805e-05
ssVcom.tencent.tmgp.carrot2
p19
(dp20
g10
F0.016809291234918543
ssVcom.android.deskclock
p21
(dp22
g10
F0.0059128969742723381
ssVcom.chinamworld.bocmbci
p23
(dp24
g10
F0.00021451226080271778
ssVcom.snda.wifilocating
p25
(dp26
g10
F0.00021865520146199772
ssVcom.tencent.qqpim
p27
(dp28
g10
F9.0224041024319055e-05
ssVcom.android.launcher
p29
(dp30
g10
F0.60008746208058483
ssVcom.storm.smart
p31
(dp32
g10
F0.0069228538416568081
ssVcom.android.contacts
p33
(dp34
g10
F0.02481483356886718
ssVcom.anzogame.game
p35
(dp36
g10
F0.002682784240253732
ssVcom.tencent.gamejoy
p37
(dp38
g10
F0.0013832818534595856
ssVcom.android.packageinstaller
p39
(dp40
g10
F0.0034372597669826044
ssVcom.android.gallery3d
p41
(dp42
g10
F0.00076644402196679202
ssVcom.android.mms
p43
(dp44
g10
F0.00067023573332351306
ssVcom.meizu.mzsnssyncservice
p45
(dp46
g10
F0.0027812941625966112
ssVcom.taobao.taobao
p47
(dp48
g10
F0.0045351390416917929
ssVcom.android.video
p49
(dp50
g10
F0.0086891275427298294
ssVcom.android.phone
p51
(dp52
g10
F0.011635218678217799
ssVcom.tencent.mtt
p53
(dp54
g10
F0.00068220422856143286
ssVcom.tencent.mobileqq
p55
(dp56
g10
F0.095718040665264209
ssVcom.alex.lookwifipassword
p57
(dp58
g10
F1.9333723076639799e-05
ssVcom.meizu.mstore
p59
(dp60
g10
F0.00037608694651463607
ssVcom.android.calculator
p61
(dp62
g10
F0.00049024797801479488
ssVcom.tencent.mm
p63
(dp64
g10
F0.012044449150006674
ssVcom.baidu.input
p65
(dp66
g10
F0.00057586875163991404
ssVcom.tencent.token
p67
(dp68
g10
F0.0054732849376487435
ssVcom.android.soundrecorder
p69
(dp70
g10
F3.2222871794399665e-06
ssVcom.android.fileexplorer
p71
(dp72
g10
F0.00057632907837983397
ssVcom.happyelements.AndroidAnimal.qq
p73
(dp74
g10
F0.0022882842241422961
ssVcom.qiyi.video
p75
(dp76
g10
F2.4397317215759747e-05
ssVcom.tencent.qqlive
p77
(dp78
g10
F0.024540939158614786
ssVcom.android.email
p79
(dp80
g10
F3.2222871794399665e-06
ssVcom.chaozh.iReaderFree
p81
(dp82
g10
F0.092682646142231762
ssVcom.meizu.notepaper
p83
(dp84
g10
F3.1762545054479671e-05
ssVcom.meizu.cloud
p85
(dp86
g10
F1.7952742856879814e-05
ssVcom.meizu.usetips
p87
(dp88
g10
F0.00011001809084087886
ssVcom.android.calendar
p89
(dp90
g10
F0.0022127906387954168
ssVcom.android.settings
p91
(dp92
g10
F0.0015038874593186243
ssVcom.tencent.pao
p93
(dp94
g10
F0.043714468529762428
ssVcom.qidian.QDReader
p95
(dp96
g10
F0.00039496034285135589
ssVcom.yuedong.sport
p97
(dp98
g10
F0.0097400534899671782
ssVcom.ss.android.essay.joke
p99
(dp100
g10
F0.0013188361098707862
ssVcom.tencent.qqpimsecure
p101
(dp102
g10
F0.00071626840731551253
ssVcom.meizu.media.music
p103
(dp104
g10
F9.2065347983999045e-07
ssVcom.sohu.sohuvideo
p105
(dp106
g10
F4.5112020512159528e-05
sssS'node_dict_factory'
p107
c__builtin__
dict
p108
sS'edge_attr_dict_factory'
p109
g108
sS'succ'
p110
(dp111
g8
(dp112
Vcom.android.calculator
p113
(dp114
g10
F0.90000000000000002
ssVcom.tencent.gamejoy
p115
(dp116
g10
F0.69999999999999996
ssVcom.tencent.mm
p117
(dp118
g10
F3.3999999999999999
ssVcom.android.settings
p119
(dp120
g10
F4.5
ssVcom.android.packageinstaller
p121
(dp122
g10
F5.6999999999999993
ssVcom.tencent.pao
p123
(dp124
g10
F3.9999999999999996
ssVcom.android.gallery3d
p125
(dp126
g10
F0.90000000000000002
ssVcom.taobao.taobao
p127
(dp128
g10
F1.3
ssg105
(dp129
g10
F1.3
ssVcom.android.deskclock
p130
(dp131
g10
F2.2999999999999998
ssVcom.tencent.qqpimsecure
p132
(dp133
g10
F1.8
ssVcom.android.phone
p134
(dp135
g10
F1.7
ssVcom.android.launcher
p136
(dp137
g10
F62.200000000000024
ssVcom.autonavi.minimap
p138
(dp139
g10
F3.1999999999999997
ssVcom.storm.smart
p140
(dp141
g10
F0.90000000000000002
ssVcom.tencent.mobileqq
p142
(dp143
g10
F27.499999999999986
ssVcom.android.contacts
p144
(dp145
g10
F4.7999999999999998
ssVcom.chaozh.iReaderFree
p146
(dp147
g10
F4.2999999999999998
ssg57
(dp148
g10
F1.3
sssg11
(dp149
Vcom.android.launcher
p150
(dp151
g10
F10.800000000000001
ssVcom.tencent.pao
p152
(dp153
g10
F1.3
ssVcom.happyelements.AndroidAnimal.qq
p154
(dp155
g10
F1.3
ssVcom.tencent.qqlive
p156
(dp157
g10
F1.3
ssVcom.tencent.mobileqq
p158
(dp159
g10
F10.700000000000001
ssVcom.chaozh.iReaderFree
p160
(dp161
g10
F0.69999999999999996
sssg13
(dp162
Vcom.tencent.game.rhythmmaster
p163
(dp164
g10
F1.3
ssVcom.tencent.qqlive
p165
(dp166
g10
F1.3
ssVcom.tencent.gamejoy
p167
(dp168
g10
F2.2000000000000002
ssVcom.android.settings
p169
(dp170
g10
F0.90000000000000002
ssVcom.android.packageinstaller
p171
(dp172
g10
F15.899999999999999
ssVcom.tencent.pao
p173
(dp174
g10
F1.8999999999999999
ssg67
(dp175
g10
F1.7000000000000002
ssVcom.android.launcher
p176
(dp177
g10
F16.799999999999997
ssVcom.android.phone
p178
(dp179
g10
F0.69999999999999996
ssVcom.storm.smart
p180
(dp181
g10
F0.40000000000000002
ssVcom.tencent.mobileqq
p182
(dp183
g10
F7.0000000000000009
ssVcom.android.contacts
p184
(dp185
g10
F0.90000000000000002
ssVcom.chaozh.iReaderFree
p186
(dp187
g10
F0.40000000000000002
sssg15
(dp188
Vcom.android.browser
p189
(dp190
g10
F1.3999999999999999
ssVcom.android.packageinstaller
p191
(dp192
g10
F1.3
ssVcom.yuedong.sport
p193
(dp194
g10
F2.7000000000000002
ssg25
(dp195
g10
F0.90000000000000002
ssVcom.android.launcher
p196
(dp197
g10
F5.3000000000000007
ssVcom.storm.smart
p198
(dp199
g10
F0.90000000000000002
ssVcom.tencent.mm
p200
(dp201
g10
F0.69999999999999996
sssg17
(dp202
Vcom.android.settings
p203
(dp204
g10
F1.7
ssVcom.meizu.mstore
p205
(dp206
g10
I2
sssg19
(dp207
Vcom.android.browser
p208
(dp209
g10
F0.69999999999999996
ssVcom.android.settings
p210
(dp211
g10
F0.90000000000000002
ssVcom.taobao.taobao
p212
(dp213
g10
F0.90000000000000002
ssVcom.android.deskclock
p214
(dp215
g10
I1
ssVcom.android.launcher
p216
(dp217
g10
F17.399999999999999
ssVcom.android.phone
p218
(dp219
g10
I3
ssVcom.tencent.mobileqq
p220
(dp221
g10
F1.8999999999999999
ssVcom.android.contacts
p222
(dp223
g10
F1.8
sssg21
(dp224
Vcom.android.launcher
p225
(dp226
g10
F47.199999999999989
ssVcom.android.settings
p227
(dp228
g10
I1
ssVcom.tencent.mm
p229
(dp230
g10
F1.6000000000000001
ssVcom.tencent.pao
p231
(dp232
g10
F6.7999999999999998
ssVcom.meizu.mzsnssyncservice
p233
(dp234
g10
F3.7000000000000002
ssVcom.tencent.tmgp.carrot2
p235
(dp236
g10
I1
ssVcom.tencent.qqpimsecure
p237
(dp238
g10
F0.69999999999999996
ssVcom.tencent.qqlive
p239
(dp240
g10
F4
ssVcom.android.phone
p241
(dp242
g10
F1.8
ssVcom.storm.smart
p243
(dp244
g10
F0.90000000000000002
ssVcom.tencent.mobileqq
p245
(dp246
g10
F10.700000000000001
ssVcom.android.contacts
p247
(dp248
g10
F1.8999999999999999
ssVcom.chaozh.iReaderFree
p249
(dp250
g10
I6
sssg23
(dp251
Vcom.anzogame.game
p252
(dp253
g10
F1.3
ssVcom.tencent.mobileqq
p254
(dp255
g10
F0.69999999999999996
ssVcom.taobao.taobao
p256
(dp257
g10
F0.90000000000000002
ssVcom.android.launcher
p258
(dp259
g10
F5.7000000000000002
sssg25
(dp260
g189
(dp261
g10
F2.2000000000000002
ssg138
(dp262
g10
F0.40000000000000002
ssVcom.android.packageinstaller
p263
(dp264
g10
F0.69999999999999996
ssVcom.tencent.pao
p265
(dp266
g10
F1.6000000000000001
ssVcom.android.launcher
p267
(dp268
g10
F8.4000000000000004
ssVcom.tencent.mobileqq
p269
(dp270
g10
F2.2000000000000002
sssg27
(dp271
Vcom.tencent.qqpimsecure
p272
(dp273
g10
F1.3
ssVcom.tencent.mobileqq
p274
(dp275
g10
I1
ssVcom.android.launcher
p276
(dp277
g10
F1.7
sssg29
(dp278
g8
(dp279
g10
F74.000000000000057
ssg11
(dp280
g10
F14.599999999999998
ssg15
(dp281
g10
F15.5
ssg17
(dp282
g10
F2.6000000000000001
ssg19
(dp283
g10
F36
ssg21
(dp284
g10
F117.60000000000002
ssg23
(dp285
g10
F6.1000000000000005
ssg25
(dp286
g10
F10.100000000000001
ssg67
(dp287
g10
F26.699999999999992
ssg13
(dp288
g10
F19.499999999999996
ssg31
(dp289
g10
F31.699999999999992
ssVcom.android.contacts
p290
(dp291
g10
F150.20000000000002
ssg35
(dp292
g10
F10.799999999999999
ssg37
(dp293
g10
F15.499999999999996
ssg39
(dp294
g10
F17.200000000000003
ssg41
(dp295
g10
F36.799999999999997
ssg43
(dp296
g10
F12.4
ssg45
(dp297
g10
F16.299999999999997
ssg47
(dp298
g10
F21.79999999999999
ssg49
(dp299
g10
F27.199999999999989
ssVcom.android.phone
p300
(dp301
g10
F111.10000000000007
ssg53
(dp302
g10
F4.7999999999999998
ssg55
(dp303
g10
F307.4999999999996
ssg57
(dp304
g10
I1
ssg59
(dp305
g10
F5.1000000000000005
ssVcom.android.calculator
p306
(dp307
g10
F11.100000000000001
ssg63
(dp308
g10
F83.400000000000034
ssg65
(dp309
g10
F7.4000000000000004
ssg69
(dp310
g10
F1.7
ssg71
(dp311
g10
F44.800000000000004
ssg73
(dp312
g10
F20.499999999999996
ssg77
(dp313
g10
F79.000000000000014
ssg79
(dp314
g10
I2
ssg81
(dp315
g10
F156.60000000000002
ssg83
(dp316
g10
F6.1000000000000005
ssg85
(dp317
g10
F0.69999999999999996
ssg89
(dp318
g10
F9.7000000000000011
ssVcom.android.settings
p319
(dp320
g10
F61.800000000000004
ssVcom.tencent.pao
p321
(dp322
g10
F199.20000000000019
ssg95
(dp323
g10
F2.7000000000000002
ssg97
(dp324
g10
F37.5
ssg99
(dp325
g10
I3
ssg101
(dp326
g10
F39.29999999999999
ssg103
(dp327
g10
I1
ssg105
(dp328
g10
I1
sssg31
(dp329
Vcom.android.browser
p330
(dp331
g10
F1.3
ssVcom.android.launcher
p332
(dp333
g10
F23.599999999999998
ssVcom.autonavi.minimap
p334
(dp335
g10
F0.90000000000000002
ssVcom.tencent.pao
p336
(dp337
g10
F0.40000000000000002
ssVcom.tencent.token
p338
(dp339
g10
F2.2999999999999998
ssVcom.android.deskclock
p340
(dp341
g10
F1.8
ssVcom.tencent.qqlive
p342
(dp343
g10
F4.0999999999999996
ssVcom.android.settings
p344
(dp345
g10
F0.90000000000000002
ssVcom.tencent.qqpimsecure
p346
(dp347
g10
F0.90000000000000002
ssVcom.android.contacts
p348
(dp349
g10
I1
ssVcom.chaozh.iReaderFree
p350
(dp351
g10
F2.2000000000000002
sssg33
(dp352
Vcom.android.browser
p353
(dp354
g10
F1.8999999999999999
ssVcom.tencent.game.rhythmmaster
p355
(dp356
g10
F0.40000000000000002
ssVcom.autonavi.minimap
p357
(dp358
g10
F2.5
ssg17
(dp359
g10
F0.40000000000000002
ssVcom.tencent.tmgp.carrot2
p360
(dp361
g10
F1.8
ssVcom.snda.wifilocating
p362
(dp363
g10
F0.90000000000000002
ssg45
(dp364
g10
F5.5
ssVcom.android.launcher
p365
(dp366
g10
F75.30000000000004
ssVcom.storm.smart
p367
(dp368
g10
I1
ssVcom.tencent.gamejoy
p369
(dp370
g10
F0.90000000000000002
ssVcom.android.gallery3d
p371
(dp372
g10
F0.90000000000000002
ssVcom.android.mms
p373
(dp374
g10
F4.5999999999999996
ssVcom.taobao.taobao
p375
(dp376
g10
F1.3
ssg51
(dp377
g10
F55.200000000000017
ssVcom.tencent.mm
p378
(dp379
g10
F3.6999999999999997
ssVcom.chaozh.iReaderFree
p380
(dp381
g10
F1.3
ssVcom.tencent.mobileqq
p382
(dp383
g10
F7.4000000000000012
ssVcom.tencent.pao
p384
(dp385
g10
F8.9000000000000021
ssVcom.qidian.QDReader
p386
(dp387
g10
F0.90000000000000002
ssg97
(dp388
g10
F1.3
ssVcom.ss.android.essay.joke
p389
(dp390
g10
F0.90000000000000002
ssVcom.android.settings
p391
(dp392
g10
F3.9999999999999996
ssVcom.tencent.qqpimsecure
p393
(dp394
g10
F0.69999999999999996
sssg35
(dp395
Vcom.tencent.mobileqq
p396
(dp397
g10
F5.5
ssVcom.android.packageinstaller
p398
(dp399
g10
I1
ssVcom.android.deskclock
p400
(dp401
g10
F2.6000000000000001
ssVcom.chinamworld.bocmbci
p402
(dp403
g10
F0.69999999999999996
ssVcom.android.launcher
p404
(dp405
g10
F7.2000000000000011
ssg63
(dp406
g10
F0.40000000000000002
sssg37
(dp407
Vcom.android.launcher
p408
(dp409
g10
F11.4
ssVcom.tencent.mm
p410
(dp411
g10
F2.6000000000000001
ssVcom.tencent.pao
p412
(dp413
g10
F3.2999999999999998
ssVcom.tencent.android.qqdownloader
p414
(dp415
g10
F1.7
ssVcom.tencent.mtt
p416
(dp417
g10
F1.3
ssVcom.tencent.mobileqq
p418
(dp419
g10
F9.5
ssg186
(dp420
g10
F0.90000000000000002
sssg39
(dp421
Vcom.android.browser
p422
(dp423
g10
I2
ssg11
(dp424
g10
F2
ssVcom.android.launcher
p425
(dp426
g10
F19.399999999999999
ssVcom.autonavi.minimap
p427
(dp428
g10
F1.7
ssg402
(dp429
g10
F0.90000000000000002
ssVcom.tencent.android.qqdownloader
p430
(dp431
g10
F13.999999999999998
ssg252
(dp432
g10
F0.40000000000000002
ssg167
(dp433
g10
F2.0999999999999996
ssg67
(dp434
g10
I1
ssg53
(dp435
g10
F0.40000000000000002
ssVcom.tencent.mm
p436
(dp437
g10
F1.1000000000000001
ssg57
(dp438
g10
F0.69999999999999996
ssVcom.happyelements.AndroidAnimal.qq
p439
(dp440
g10
F1.3
ssg165
(dp441
g10
F1.6000000000000001
ssg158
(dp442
g10
F7.8000000000000007
ssg119
(dp443
g10
F1.8999999999999999
ssVcom.tencent.pao
p444
(dp445
g10
F0.69999999999999996
ssg95
(dp446
g10
F0.40000000000000002
ssVcom.yuedong.sport
p447
(dp448
g10
F2.2999999999999998
ssg99
(dp449
g10
F0.40000000000000002
ssVcom.tencent.qqpimsecure
p450
(dp451
g10
I1
ssg105
(dp452
g10
F0.69999999999999996
sssg41
(dp453
Vcom.meizu.mstore
p454
(dp455
g10
F0.90000000000000002
ssVcom.android.calendar
p456
(dp457
g10
F2.8999999999999999
ssVcom.yuedong.sport
p458
(dp459
g10
F0.90000000000000002
ssVcom.android.fileexplorer
p460
(dp461
g10
F2.2999999999999998
ssVcom.android.launcher
p462
(dp463
g10
F15.300000000000001
ssVcom.android.phone
p464
(dp465
g10
F0.90000000000000002
ssVcom.storm.smart
p466
(dp467
g10
F0.90000000000000002
ssVcom.tencent.mobileqq
p468
(dp469
g10
F4.7000000000000002
ssVcom.android.contacts
p470
(dp471
g10
F1.6000000000000001
sssg43
(dp472
Vcom.android.browser
p473
(dp474
g10
F0.90000000000000002
ssVcom.android.calculator
p475
(dp476
g10
I1
ssVcom.android.settings
p477
(dp478
g10
F0.40000000000000002
ssVcom.tencent.mm
p479
(dp480
g10
F1.3
ssg97
(dp481
g10
F1.7
ssVcom.autonavi.minimap
p482
(dp483
g10
F0.40000000000000002
ssVcom.android.launcher
p484
(dp485
g10
F16.600000000000001
ssVcom.android.phone
p486
(dp487
g10
F1.3999999999999999
ssVcom.tencent.qqpimsecure
p488
(dp489
g10
F1.3
ssVcom.tencent.mobileqq
p490
(dp491
g10
F3.7999999999999998
ssVcom.android.contacts
p492
(dp493
g10
F7.5000000000000009
sssg45
(dp494
Vcom.autonavi.minimap
p495
(dp496
g10
F0.90000000000000002
ssVcom.android.mms
p497
(dp498
g10
F1.7
ssVcom.tencent.token
p499
(dp500
g10
F0.40000000000000002
ssVcom.android.deskclock
p501
(dp502
g10
I1
ssVcom.android.launcher
p503
(dp504
g10
F6.1000000000000005
ssVcom.android.phone
p505
(dp506
g10
F0.90000000000000002
ssVcom.tencent.mobileqq
p507
(dp508
g10
F1.8
ssVcom.android.contacts
p509
(dp510
g10
F4.5
ssVcom.chaozh.iReaderFree
p511
(dp512
g10
F0.90000000000000002
sssg47
(dp513
Vcom.android.browser
p514
(dp515
g10
F5.0999999999999996
ssVcom.tencent.android.qqdownloader
p516
(dp517
g10
F0.69999999999999996
ssVcom.tencent.mobileqq
p518
(dp519
g10
F2.2999999999999998
ssVcom.yuedong.sport
p520
(dp521
g10
I2
ssVcom.baidu.input
p522
(dp523
g10
I1
ssVcom.android.deskclock
p524
(dp525
g10
F0.90000000000000002
ssVcom.chinamworld.bocmbci
p526
(dp527
g10
F0.90000000000000002
ssVcom.android.launcher
p528
(dp529
g10
F19.599999999999998
ssVcom.tencent.qqpimsecure
p530
(dp531
g10
F0.69999999999999996
ssVcom.tencent.mm
p532
(dp533
g10
F0.90000000000000002
sssg49
(dp534
g83
(dp535
g10
F0.40000000000000002
ssg85
(dp536
g10
F2.6000000000000001
ssVcom.android.calendar
p537
(dp538
g10
F0.90000000000000002
ssVcom.android.settings
p539
(dp540
g10
F1.3
ssVcom.yuedong.sport
p541
(dp542
g10
F0.90000000000000002
ssVcom.meizu.mzsnssyncservice
p543
(dp544
g10
F0.90000000000000002
ssVcom.android.deskclock
p545
(dp546
g10
I1
ssVcom.android.fileexplorer
p547
(dp548
g10
F23.799999999999997
ssVcom.android.launcher
p549
(dp550
g10
F23.599999999999994
ssVcom.android.phone
p551
(dp552
g10
I2
ssVcom.android.email
p553
(dp554
g10
F0.69999999999999996
ssVcom.tencent.mobileqq
p555
(dp556
g10
F1.7000000000000002
ssVcom.chaozh.iReaderFree
p557
(dp558
g10
F0.90000000000000002
sssg51
(dp559
Vcom.android.browser
p560
(dp561
g10
F2.8999999999999999
ssg497
(dp562
g10
F3.2000000000000002
ssg360
(dp563
g10
F5.4000000000000004
ssVcom.android.deskclock
p564
(dp565
g10
F1.6000000000000001
ssg375
(dp566
g10
F0.69999999999999996
ssVcom.android.launcher
p567
(dp568
g10
F85.700000000000074
ssg367
(dp569
g10
F0.90000000000000002
ssVcom.android.contacts
p570
(dp571
g10
F147.40000000000006
ssVcom.android.gallery3d
p572
(dp573
g10
F3.5999999999999996
ssg45
(dp574
g10
F11.899999999999999
ssVcom.android.video
p575
(dp576
g10
F1.8999999999999999
ssVcom.autonavi.minimap
p577
(dp578
g10
F2.0999999999999996
ssVcom.tencent.mm
p579
(dp580
g10
F3.0999999999999996
ssVcom.tencent.token
p581
(dp582
g10
I2
ssVcom.android.fileexplorer
p583
(dp584
g10
F2.5999999999999996
ssVcom.happyelements.AndroidAnimal.qq
p585
(dp586
g10
F1.8999999999999999
ssVcom.tencent.qqlive
p587
(dp588
g10
F3.7000000000000002
ssVcom.chaozh.iReaderFree
p589
(dp590
g10
F9.5
ssg382
(dp591
g10
F26.499999999999993
ssVcom.tencent.pao
p592
(dp593
g10
F16.800000000000001
ssg386
(dp594
g10
F0.69999999999999996
ssVcom.yuedong.sport
p595
(dp596
g10
I2
ssg389
(dp597
g10
F0.69999999999999996
ssg391
(dp598
g10
F2.5
ssVcom.tencent.qqpimsecure
p599
(dp600
g10
F1.3
sssg53
(dp601
Vcom.tencent.mm
p602
(dp603
g10
F1.3999999999999999
ssVcom.tencent.mobileqq
p604
(dp605
g10
F18.999999999999996
ssVcom.android.launcher
p606
(dp607
g10
F2.2000000000000002
sssg55
(dp608
Vcom.android.browser
p609
(dp610
g10
F19.800000000000001
ssVcom.tencent.game.rhythmmaster
p611
(dp612
g10
F6.7000000000000002
ssVcom.tencent.android.qqdownloader
p613
(dp614
g10
F6.6000000000000005
ssg17
(dp615
g10
F1.3999999999999999
ssVcom.tencent.tmgp.carrot2
p616
(dp617
g10
F2.7000000000000002
ssVcom.android.deskclock
p618
(dp619
g10
F12.800000000000002
ssVcom.snda.wifilocating
p620
(dp621
g10
F1.8
ssVcom.tencent.qqpim
p622
(dp623
g10
I1
ssVcom.android.launcher
p624
(dp625
g10
F260.2000000000001
ssVcom.android.contacts
p626
(dp627
g10
F12.300000000000001
ssVcom.anzogame.game
p628
(dp629
g10
F1.8999999999999999
ssg37
(dp630
g10
F12.100000000000001
ssVcom.android.packageinstaller
p631
(dp632
g10
F4.7000000000000002
ssVcom.android.gallery3d
p633
(dp634
g10
F11.199999999999999
ssg47
(dp635
g10
F3.7999999999999998
ssVcom.android.video
p636
(dp637
g10
F1.8
ssg178
(dp638
g10
F19.5
ssg53
(dp639
g10
F16.599999999999998
ssg63
(dp640
g10
F26.099999999999987
ssg205
(dp641
g10
F0.80000000000000004
ssVcom.meizu.mzsnssyncservice
p642
(dp643
g10
F2.7999999999999998
ssVcom.baidu.input
p644
(dp645
g10
F1.3
ssVcom.tencent.token
p646
(dp647
g10
F24.199999999999996
ssVcom.android.fileexplorer
p648
(dp649
g10
F5.1000000000000005
ssVcom.happyelements.AndroidAnimal.qq
p650
(dp651
g10
F3.3999999999999999
ssg77
(dp652
g10
F17.899999999999999
ssg81
(dp653
g10
F5.4000000000000004
ssg537
(dp654
g10
F0.40000000000000002
ssg391
(dp655
g10
F9.5999999999999996
ssVcom.tencent.pao
p656
(dp657
g10
F125.00000000000011
ssVcom.yuedong.sport
p658
(dp659
g10
F5.9000000000000004
ssg99
(dp660
g10
F0.69999999999999996
ssg101
(dp661
g10
F9.3000000000000007
sssg57
(dp662
Vcom.android.launcher
p663
(dp664
g10
I1
sssg59
(dp665
Vcom.meizu.cloud
p666
(dp667
g10
I1
ssg319
(dp668
g10
F1.6000000000000001
ssVcom.android.gallery3d
p669
(dp670
g10
F0.90000000000000002
ssVcom.android.thememanager
p671
(dp672
g10
I1
ssg71
(dp673
g10
F2.6000000000000001
ssVcom.android.video
p674
(dp675
g10
F0.69999999999999996
ssVcom.android.launcher
p676
(dp677
g10
F2.7000000000000002
sssg61
(dp678
Vcom.android.browser
p679
(dp680
g10
F0.90000000000000002
ssVcom.android.launcher
p681
(dp682
g10
F7.7000000000000011
ssVcom.android.packageinstaller
p683
(dp684
g10
F0.69999999999999996
ssVcom.tencent.pao
p685
(dp686
g10
F0.90000000000000002
ssVcom.android.mms
p687
(dp688
g10
F2.2999999999999998
ssVcom.yuedong.sport
p689
(dp690
g10
F2.7000000000000002
ssg73
(dp691
g10
F0.90000000000000002
ssVcom.tencent.android.qqdownloader
p692
(dp693
g10
F1.3
ssg488
(dp694
g10
F0.40000000000000002
sssg63
(dp695
g466
(dp696
g10
F0.40000000000000002
ssVcom.meizu.notepaper
p697
(dp698
g10
F0.90000000000000002
ssVcom.android.mms
p699
(dp700
g10
F0.90000000000000002
ssVcom.tencent.qqlive
p701
(dp702
g10
F0.69999999999999996
ssVcom.android.browser
p703
(dp704
g10
F3.7999999999999998
ssVcom.android.settings
p705
(dp706
g10
F2.7000000000000002
ssg412
(dp707
g10
F15.199999999999999
ssg41
(dp708
g10
F2.7000000000000002
ssg65
(dp709
g10
F2.6000000000000001
ssVcom.tencent.token
p710
(dp711
g10
F0.90000000000000002
ssVcom.android.fileexplorer
p712
(dp713
g10
F0.90000000000000002
ssVcom.android.launcher
p714
(dp715
g10
F52.799999999999997
ssVcom.tencent.qqpimsecure
p716
(dp717
g10
F2.5999999999999996
ssVcom.tencent.mobileqq
p718
(dp719
g10
F21.299999999999994
ssVcom.android.contacts
p720
(dp721
g10
F2.2999999999999998
ssg81
(dp722
g10
F0.90000000000000002
sssg65
(dp723
Vcom.tencent.mobileqq
p724
(dp725
g10
F1.3
ssVcom.taobao.taobao
p726
(dp727
g10
F1.7
ssVcom.android.launcher
p728
(dp729
g10
F2.8999999999999999
sssg67
(dp730
Vcom.tencent.qqlive
p731
(dp732
g10
F2.3999999999999999
ssVcom.tencent.android.qqdownloader
p733
(dp734
g10
I2
ssg167
(dp735
g10
F0.69999999999999996
ssg169
(dp736
g10
F0.69999999999999996
ssVcom.android.packageinstaller
p737
(dp738
g10
F0.90000000000000002
ssVcom.tencent.pao
p739
(dp740
g10
F0.69999999999999996
ssVcom.android.gallery3d
p741
(dp742
g10
F4
ssVcom.yuedong.sport
p743
(dp744
g10
I1
ssVcom.taobao.taobao
p745
(dp746
g10
F0.69999999999999996
ssVcom.android.contacts
p747
(dp748
g10
F0.40000000000000002
ssVcom.android.launcher
p749
(dp750
g10
F16.600000000000001
ssVcom.android.phone
p751
(dp752
g10
I1
ssVcom.storm.smart
p753
(dp754
g10
F3.7000000000000002
ssg644
(dp755
g10
F0.69999999999999996
ssVcom.tencent.mobileqq
p756
(dp757
g10
F19.299999999999997
ssVcom.android.mms
p758
(dp759
g10
F0.90000000000000002
sssg69
(dp760
Vcom.android.browser
p761
(dp762
g10
F0.90000000000000002
ssVcom.android.launcher
p763
(dp764
g10
F1.7
ssVcom.android.settings
p765
(dp766
g10
F0.40000000000000002
sssg71
(dp767
Vcom.android.browser
p768
(dp769
g10
I1
ssg83
(dp770
g10
F0.90000000000000002
ssg85
(dp771
g10
F5.1000000000000005
ssVcom.meizu.mstore
p772
(dp773
g10
F1.3
ssg319
(dp774
g10
I10
ssg41
(dp775
g10
F2.8999999999999999
ssVcom.yuedong.sport
p776
(dp777
g10
F1.7
ssg49
(dp778
g10
F19.899999999999999
ssVcom.android.launcher
p779
(dp780
g10
F14.200000000000001
ssg553
(dp781
g10
F0.90000000000000002
ssVcom.tencent.mm
p782
(dp783
g10
F0.40000000000000002
ssVcom.tencent.mobileqq
p784
(dp785
g10
F2.3999999999999999
sssg73
(dp786
g631
(dp787
g10
F1.7
ssVcom.tencent.pao
p788
(dp789
g10
F1.3
ssVcom.tencent.mobileqq
p790
(dp791
g10
F4.0999999999999996
ssVcom.chaozh.iReaderFree
p792
(dp793
g10
F1.3
ssVcom.android.launcher
p794
(dp795
g10
F5.7000000000000002
sssg75
(dp796
Vcom.tencent.qqpimsecure
p797
(dp798
g10
F0.90000000000000002
ssVcom.android.browser
p799
(dp800
g10
F0.40000000000000002
ssVcom.android.launcher
p801
(dp802
g10
F1.7
sssg77
(dp803
g330
(dp804
g10
F0.69999999999999996
ssg85
(dp805
g10
F0.40000000000000002
ssVcom.tencent.android.qqdownloader
p806
(dp807
g10
F0.90000000000000002
ssVcom.android.settings
p808
(dp809
g10
F1.8
ssVcom.android.packageinstaller
p810
(dp811
g10
F0.69999999999999996
ssVcom.tencent.pao
p812
(dp813
g10
F2.7999999999999998
ssg346
(dp814
g10
F0.40000000000000002
ssVcom.yuedong.sport
p815
(dp816
g10
F0.90000000000000002
ssg67
(dp817
g10
F3.3999999999999999
ssVcom.android.deskclock
p818
(dp819
g10
F4.2999999999999998
ssVcom.android.fileexplorer
p820
(dp821
g10
F5.7000000000000002
ssVcom.android.video
p822
(dp823
g10
F2.7000000000000002
ssVcom.taobao.taobao
p824
(dp825
g10
F0.90000000000000002
ssVcom.android.launcher
p826
(dp827
g10
F57.90000000000002
ssVcom.android.phone
p828
(dp829
g10
I1
ssg31
(dp830
g10
F8.5000000000000018
ssVcom.android.gallery3d
p831
(dp832
g10
F0.90000000000000002
ssVcom.tencent.mobileqq
p833
(dp834
g10
F12
ssVcom.android.contacts
p835
(dp836
g10
F2.7000000000000002
ssVcom.chaozh.iReaderFree
p837
(dp838
g10
F1.3
ssg99
(dp839
g10
F0.90000000000000002
sssg79
(dp840
Vcom.chaozh.iReaderFree
p841
(dp842
g10
F0.90000000000000002
ssVcom.android.launcher
p843
(dp844
g10
I2
sssg81
(dp845
Vcom.android.browser
p846
(dp847
g10
F1.8
ssVcom.android.gallery3d
p848
(dp849
g10
F1.3
ssg342
(dp850
g10
F1.6000000000000001
ssVcom.android.calculator
p851
(dp852
g10
F0.90000000000000002
ssVcom.autonavi.minimap
p853
(dp854
g10
F0.90000000000000002
ssg121
(dp855
g10
F0.40000000000000002
ssVcom.tencent.pao
p856
(dp857
g10
F3.7999999999999998
ssVcom.android.mms
p858
(dp859
g10
F0.90000000000000002
ssVcom.tencent.tmgp.carrot2
p860
(dp861
g10
F0.90000000000000002
ssVcom.android.deskclock
p862
(dp863
g10
F4.7000000000000002
ssVcom.android.fileexplorer
p864
(dp865
g10
F2.2000000000000002
ssVcom.happyelements.AndroidAnimal.qq
p866
(dp867
g10
F0.90000000000000002
ssVcom.snda.wifilocating
p868
(dp869
g10
F0.90000000000000002
ssVcom.android.launcher
p870
(dp871
g10
F66.40000000000002
ssg300
(dp872
g10
F5.7000000000000002
ssVcom.storm.smart
p873
(dp874
g10
F1.3999999999999999
ssVcom.tencent.mobileqq
p875
(dp876
g10
F4
ssVcom.android.contacts
p877
(dp878
g10
F5.4000000000000004
sssg83
(dp879
Vcom.tencent.mobileqq
p880
(dp881
g10
F0.90000000000000002
ssg782
(dp882
g10
F0.90000000000000002
ssVcom.android.launcher
p883
(dp884
g10
I3
sssg85
(dp885
Vcom.android.fileexplorer
p886
(dp887
g10
F4.7000000000000002
ssVcom.android.video
p888
(dp889
g10
F3
ssg772
(dp890
g10
F1.7
sssg87
(dp891
Vcom.android.settings
p892
(dp893
g10
F0.90000000000000002
ssVcom.android.launcher
p894
(dp895
g10
F1.7
ssVcom.android.browser
p896
(dp897
g10
F0.40000000000000002
sssg89
(dp898
g555
(dp899
g10
F0.90000000000000002
ssVcom.android.gallery3d
p900
(dp901
g10
F7.0000000000000009
ssVcom.android.launcher
p902
(dp903
g10
F2.8999999999999999
sssg91
(dp904
Vcom.android.browser
p905
(dp906
g10
F3.1000000000000001
ssg355
(dp907
g10
F0.90000000000000002
ssg59
(dp908
g10
F2.7000000000000002
ssVcom.android.launcher
p909
(dp910
g10
F36.900000000000006
ssVcom.android.packageinstaller
p911
(dp912
g10
F1.7
ssVcom.tencent.pao
p913
(dp914
g10
F5.5000000000000009
ssg95
(dp915
g10
F0.90000000000000002
ssVcom.baidu.input
p916
(dp917
g10
F0.40000000000000002
ssg17
(dp918
g10
F2.7000000000000002
ssVcom.yuedong.sport
p919
(dp920
g10
I3
ssVcom.android.deskclock
p921
(dp922
g10
F3.1999999999999997
ssg71
(dp923
g10
F11.5
ssg49
(dp924
g10
F6.7000000000000011
ssVcom.tencent.token
p925
(dp926
g10
F0.90000000000000002
ssVcom.tencent.android.qqdownloader
p927
(dp928
g10
F1.8999999999999999
ssVcom.android.phone
p929
(dp930
g10
I1
ssVcom.tencent.qqpimsecure
p931
(dp932
g10
F1.1000000000000001
ssVcom.android.gallery3d
p933
(dp934
g10
F0.90000000000000002
ssg436
(dp935
g10
F4
ssg290
(dp936
g10
F0.80000000000000004
ssVcom.tencent.mobileqq
p937
(dp938
g10
F6.3000000000000007
sssg93
(dp939
Vcom.android.browser
p940
(dp941
g10
F5.2000000000000002
ssg11
(dp942
g10
F2.1000000000000001
ssVcom.android.launcher
p943
(dp944
g10
F181.2999999999999
ssVcom.tencent.tmgp.carrot2
p945
(dp946
g10
F0.90000000000000002
ssVcom.android.deskclock
p947
(dp948
g10
F9.7000000000000011
ssg824
(dp949
g10
F0.40000000000000002
ssVcom.tencent.android.qqdownloader
p950
(dp951
g10
F4.6999999999999993
ssVcom.android.contacts
p952
(dp953
g10
F5.3000000000000007
ssg35
(dp954
g10
F3.1000000000000001
ssVcom.tencent.gamejoy
p955
(dp956
g10
F0.40000000000000002
ssg39
(dp957
g10
F1.6000000000000001
ssg646
(dp958
g10
F3.1000000000000001
ssVcom.android.video
p959
(dp960
g10
F2.2000000000000002
ssVcom.android.phone
p961
(dp962
g10
F2.0999999999999996
ssVcom.tencent.mm
p963
(dp964
g10
F19.100000000000001
ssVcom.android.calculator
p965
(dp966
g10
F0.90000000000000002
ssVcom.android.fileexplorer
p967
(dp968
g10
F1.7000000000000002
ssVcom.tencent.qqlive
p969
(dp970
g10
F2.7999999999999998
ssVcom.chaozh.iReaderFree
p971
(dp972
g10
F1.2000000000000002
ssg697
(dp973
g10
F0.40000000000000002
ssg396
(dp974
g10
F86.000000000000043
ssg699
(dp975
g10
F0.40000000000000002
ssVcom.android.settings
p976
(dp977
g10
F4.7000000000000002
ssg101
(dp978
g10
F8.9000000000000021
sssg95
(dp979
g380
(dp980
g10
F0.90000000000000002
ssg290
(dp981
g10
F0.90000000000000002
ssVcom.android.launcher
p982
(dp983
g10
I2
sssg97
(dp984
g768
(dp985
g10
F1.3
ssVcom.tencent.pao
p986
(dp987
g10
F2.9000000000000004
ssVcom.android.calculator
p988
(dp989
g10
F2.6999999999999997
ssg477
(dp990
g10
F5.4000000000000004
ssg191
(dp991
g10
F3.0999999999999996
ssg200
(dp992
g10
F0.90000000000000002
ssVcom.android.gallery3d
p993
(dp994
g10
F2.5999999999999996
ssVcom.android.mms
p995
(dp996
g10
F0.90000000000000002
ssVcom.taobao.taobao
p997
(dp998
g10
F0.40000000000000002
ssVcom.android.contacts
p999
(dp1000
g10
F0.90000000000000002
ssVcom.android.fileexplorer
p1001
(dp1002
g10
I1
ssVcom.android.video
p1003
(dp1004
g10
F0.40000000000000002
ssVcom.tencent.token
p1005
(dp1006
g10
F0.90000000000000002
ssVcom.android.launcher
p1007
(dp1008
g10
F46.799999999999997
ssVcom.autonavi.minimap
p1009
(dp1010
g10
F2.6000000000000001
ssg530
(dp1011
g10
F0.90000000000000002
ssg79
(dp1012
g10
F0.90000000000000002
ssVcom.tencent.mobileqq
p1013
(dp1014
g10
F6.8000000000000007
ssVcom.android.phone
p1015
(dp1016
g10
I1
ssg841
(dp1017
g10
F0.40000000000000002
sssg99
(dp1018
Vcom.android.settings
p1019
(dp1020
g10
F0.90000000000000002
ssVcom.tencent.pao
p1021
(dp1022
g10
F0.40000000000000002
ssVcom.android.deskclock
p1023
(dp1024
g10
F0.90000000000000002
ssVcom.android.launcher
p1025
(dp1026
g10
F3.7000000000000002
ssVcom.android.phone
p1027
(dp1028
g10
I1
ssVcom.android.contacts
p1029
(dp1030
g10
F0.90000000000000002
sssg101
(dp1031
Vcom.android.browser
p1032
(dp1033
g10
F2.2000000000000002
ssVcom.anzogame.game
p1034
(dp1035
g10
F0.90000000000000002
ssg37
(dp1036
g10
F2.7000000000000002
ssVcom.android.settings
p1037
(dp1038
g10
F1.3999999999999999
ssVcom.android.packageinstaller
p1039
(dp1040
g10
F1.7
ssVcom.tencent.pao
p1041
(dp1042
g10
F0.40000000000000002
ssVcom.android.gallery3d
p1043
(dp1044
g10
F0.69999999999999996
ssVcom.yuedong.sport
p1045
(dp1046
g10
F0.90000000000000002
ssg997
(dp1047
g10
F1.3
ssg522
(dp1048
g10
F0.69999999999999996
ssVcom.android.deskclock
p1049
(dp1050
g10
F0.90000000000000002
ssVcom.android.launcher
p1051
(dp1052
g10
F25.399999999999991
ssVcom.storm.smart
p1053
(dp1054
g10
F0.90000000000000002
ssg410
(dp1055
g10
F1.3999999999999999
ssg971
(dp1056
g10
F2.2000000000000002
ssVcom.tencent.mobileqq
p1057
(dp1058
g10
F5.0999999999999996
sssg103
(dp1059
g761
(dp1060
g10
F0.40000000000000002
ssg69
(dp1061
g10
F0.90000000000000002
ssVcom.android.launcher
p1062
(dp1063
g10
F1.7
sssg105
(dp1064
Vcom.android.launcher
p1065
(dp1066
g10
I1
ssssS'edge'
p1067
g111
sS'graph'
p1068
(dp1069
sS'adjlist_dict_factory'
p1070
g108
sS'adj'
p1071
g111
sS'pred'
p1072
(dp1073
g8
(dp1074
Vcom.autonavi.minimap
p1075
g190
sg75
g800
sVcom.tencent.tmgp.carrot2
p1076
g209
sg25
g261
sVcom.android.launcher
p1077
g279
sVcom.storm.smart
p1078
g331
sg87
g897
sg263
g423
sg69
g762
sg127
g515
sVcom.android.contacts
p1079
g354
sVcom.android.phone
p1080
g561
sVcom.tencent.mm
p1081
g704
sg113
g680
sg1001
g769
sVcom.tencent.qqlive
p1082
g804
sVcom.chaozh.iReaderFree
p1083
g847
sVcom.tencent.mobileqq
p1084
g610
sVcom.tencent.pao
p1085
g941
sVcom.android.mms
p1086
g474
sVcom.yuedong.sport
p1087
g985
sg765
g906
sVcom.tencent.qqpimsecure
p1088
g1033
sg103
g1060
ssg11
(dp1089
Vcom.tencent.android.qqdownloader
p1090
g164
sVcom.android.settings
p1091
g907
sg39
g424
sVcom.tencent.pao
p1092
g942
sVcom.android.launcher
p1093
g280
sg158
g612
sVcom.android.contacts
p1094
g356
ssg13
(dp1095
Vcom.tencent.qqlive
p1096
g807
sVcom.tencent.gamejoy
p1097
g415
sVcom.android.calculator
p1098
g693
sVcom.android.settings
p1099
g928
sVcom.android.packageinstaller
p1100
g431
sVcom.tencent.pao
p1101
g951
sg67
g734
sVcom.taobao.taobao
p1102
g517
sVcom.android.launcher
p1103
g288
sVcom.tencent.mobileqq
p1104
g614
ssg15
(dp1105
g189
g139
sg191
g428
sg1086
g483
sg776
g1010
sVcom.meizu.mzsnssyncservice
p1106
g496
sg25
g262
sVcom.android.launcher
p1107
g281
sVcom.android.phone
p1108
g578
sg367
g335
sVcom.android.contacts
p1109
g358
sVcom.chaozh.iReaderFree
p1110
g854
ssg17
(dp1111
g391
g918
sVcom.tencent.mobileqq
p1112
g615
sVcom.android.contacts
p1113
g359
sVcom.android.launcher
p1114
g282
sVcom.meizu.mstore
p1115
g672
ssg19
(dp1116
Vcom.tencent.pao
p1117
g946
sg214
g236
sVcom.android.launcher
p1118
g283
sVcom.android.phone
p1119
g563
sVcom.tencent.mobileqq
p1120
g617
sVcom.android.contacts
p1121
g361
sVcom.chaozh.iReaderFree
p1122
g861
ssg21
(dp1123
Vcom.android.browser
p1124
g131
sVcom.anzogame.game
p1125
g401
sVcom.tencent.qqlive
p1126
g819
sVcom.android.settings
p1127
g922
sVcom.tencent.pao
p1128
g948
sVcom.meizu.mzsnssyncservice
p1129
g502
sVcom.tencent.tmgp.carrot2
p1130
g215
sVcom.tencent.qqpimsecure
p1131
g1050
sVcom.android.video
p1132
g546
sVcom.taobao.taobao
p1133
g525
sVcom.android.launcher
p1134
g284
sg241
g565
sVcom.storm.smart
p1135
g341
sg245
g619
sVcom.chaozh.iReaderFree
p1136
g863
sVcom.ss.android.essay.joke
p1137
g1024
ssg23
(dp1138
g628
g403
sg398
g429
sVcom.taobao.taobao
p1139
g527
sVcom.android.launcher
p1140
g285
ssg25
(dp1141
Vcom.chaozh.iReaderFree
p1142
g869
sg1075
g195
sVcom.tencent.mobileqq
p1143
g621
sVcom.android.contacts
p1144
g363
sg196
g286
ssg27
(dp1145
g274
g623
ssg29
(dp1146
g8
g137
sVcom.tencent.game.rhythmmaster
p1147
g151
sg1075
g197
sg75
g802
sVcom.tencent.tmgp.carrot2
p1148
g217
sg862
g226
sg23
g259
sg25
g268
sg27
g277
sg13
g177
sVcom.storm.smart
p1149
g333
sVcom.android.contacts
p1150
g366
sg35
g405
sg37
g409
sg39
g426
sVcom.android.gallery3d
p1151
g463
sg687
g485
sg1106
g504
sg47
g529
sVcom.android.video
p1152
g550
sVcom.android.phone
p1153
g568
sVcom.tencent.mtt
p1154
g607
sg55
g625
sg57
g664
sg59
g677
sg61
g682
sg63
g715
sg916
g729
sVcom.tencent.token
p1155
g750
sg69
g764
sg712
g780
sVcom.happyelements.AndroidAnimal.qq
p1156
g795
sVcom.tencent.qqlive
p1157
g827
sg79
g844
sVcom.chaozh.iReaderFree
p1158
g871
sg83
g884
sg87
g895
sVcom.android.calendar
p1159
g903
sg91
g910
sg93
g944
sg95
g983
sVcom.yuedong.sport
p1160
g1008
sVcom.ss.android.essay.joke
p1161
g1026
sg101
g1052
sg103
g1063
sg105
g1066
ssg31
(dp1162
g330
g141
sVcom.android.launcher
p1163
g289
sg334
g199
sVcom.tencent.android.qqdownloader
p1164
g181
sVcom.android.gallery3d
p1165
g467
sg338
g754
sVcom.android.deskclock
p1166
g244
sVcom.tencent.qqlive
p1167
g830
sVcom.android.phone
p1168
g569
sg346
g1054
sVcom.tencent.mm
p1169
g696
sVcom.android.contacts
p1170
g368
sVcom.chaozh.iReaderFree
p1171
g874
ssg33
(dp1172
Vcom.android.browser
p1173
g145
sg1151
g471
sVcom.tencent.qqlive
p1174
g836
sVcom.tencent.android.qqdownloader
p1175
g185
sg119
g936
sVcom.tencent.mm
p1176
g721
sVcom.tencent.pao
p1177
g953
sg95
g981
sVcom.android.mms
p1178
g493
sVcom.meizu.mzsnssyncservice
p1179
g510
sg1148
g223
sVcom.android.deskclock
p1180
g248
sVcom.tencent.token
p1181
g748
sVcom.android.launcher
p1182
g291
sg51
g571
sg466
g349
sVcom.yuedong.sport
p1183
g1000
sVcom.tencent.mobileqq
p1184
g627
sVcom.chaozh.iReaderFree
p1185
g878
sg1161
g1030
ssg35
(dp1186
g398
g432
sg93
g954
sg402
g253
sg943
g292
sVcom.tencent.qqpimsecure
p1187
g1035
sVcom.tencent.mobileqq
p1188
g629
ssg37
(dp1189
Vcom.android.browser
p1190
g116
sg733
g168
sg810
g433
sVcom.tencent.pao
p1191
g956
sg67
g735
sVcom.android.launcher
p1192
g293
sg101
g1036
sVcom.tencent.mobileqq
p1193
g630
sVcom.android.contacts
p1194
g370
ssg39
(dp1195
g846
g122
sg628
g399
sg1096
g811
sVcom.tencent.android.qqdownloader
p1196
g172
sg1098
g684
sVcom.android.settings
p1197
g912
sg1092
g957
sVcom.yuedong.sport
p1198
g991
sg67
g738
sg154
g787
sVcom.snda.wifilocating
p1199
g264
sg1093
g294
sg1009
g192
sVcom.tencent.qqpimsecure
p1200
g1040
sVcom.tencent.mobileqq
p1201
g632
sg1083
g855
ssg41
(dp1202
Vcom.android.browser
p1203
g126
sVcom.tencent.qqlive
p1204
g832
sVcom.meizu.mstore
p1205
g670
sVcom.android.calendar
p1206
g901
sVcom.tencent.mobileqq
p1207
g634
sVcom.android.phone
p1208
g573
sVcom.yuedong.sport
p1209
g994
sVcom.tencent.token
p1210
g742
sg712
g775
sVcom.android.launcher
p1211
g295
sVcom.android.settings
p1212
g934
sVcom.tencent.qqpimsecure
p1213
g1044
sVcom.tencent.mm
p1214
g708
sVcom.android.contacts
p1215
g372
sVcom.chaozh.iReaderFree
p1216
g849
ssg43
(dp1217
Vcom.android.calculator
p1218
g688
sVcom.tencent.pao
p1219
g975
sVcom.yuedong.sport
p1220
g996
sg1179
g498
sg1181
g759
sVcom.android.launcher
p1221
g296
sVcom.android.phone
p1222
g562
sVcom.tencent.mm
p1223
g700
sg509
g374
sVcom.chaozh.iReaderFree
p1224
g859
ssg45
(dp1225
Vcom.android.deskclock
p1226
g234
sVcom.android.video
p1227
g544
sVcom.android.launcher
p1228
g297
sVcom.android.phone
p1229
g574
sVcom.tencent.mobileqq
p1230
g643
sVcom.android.contacts
p1231
g364
ssg47
(dp1232
Vcom.android.browser
p1233
g128
sVcom.tencent.qqlive
p1234
g825
sVcom.tencent.pao
p1235
g949
sg520
g998
sVcom.tencent.token
p1236
g746
sg1076
g213
sg526
g257
sVcom.android.launcher
p1237
g298
sVcom.android.phone
p1238
g566
sg530
g1047
sg522
g727
sVcom.tencent.mobileqq
p1239
g635
sVcom.android.contacts
p1240
g376
ssg49
(dp1241
g85
g889
sVcom.android.launcher
p1242
g299
sVcom.android.settings
p1243
g924
sVcom.tencent.pao
p1244
g960
sVcom.yuedong.sport
p1245
g1004
sVcom.android.fileexplorer
p1246
g778
sVcom.tencent.qqlive
p1247
g823
sVcom.android.phone
p1248
g576
sVcom.tencent.mobileqq
p1249
g637
sg772
g675
ssg51
(dp1250
g353
g135
sVcom.android.gallery3d
p1251
g465
sVcom.tencent.qqlive
p1252
g829
sg1175
g179
sVcom.android.settings
p1253
g930
sVcom.tencent.pao
p1254
g962
sg758
g487
sVcom.yuedong.sport
p1255
g1016
sVcom.meizu.mzsnssyncservice
p1256
g506
sVcom.tencent.tmgp.carrot2
p1257
g219
sg947
g242
sVcom.android.video
p1258
g552
sVcom.tencent.token
p1259
g752
sVcom.android.launcher
p1260
g301
sVcom.tencent.mobileqq
p1261
g638
sg33
g377
sg1185
g872
sVcom.ss.android.essay.joke
p1262
g1028
ssg53
(dp1263
Vcom.android.packageinstaller
p1264
g435
sVcom.tencent.mobileqq
p1265
g639
sVcom.android.launcher
p1266
g302
sVcom.tencent.gamejoy
p1267
g417
ssg55
(dp1268
g1190
g143
sg11
g159
sg29
g303
sVcom.tencent.tmgp.carrot2
p1269
g221
sVcom.android.deskclock
p1270
g246
sg402
g255
sg868
g270
sg27
g275
sg613
g183
sVcom.android.contacts
p1271
g383
sg35
g397
sg115
g419
sg39
g442
sg125
g469
sg67
g757
sg1102
g519
sVcom.android.video
p1272
g556
sVcom.android.phone
p1273
g591
sg53
g605
sVcom.tencent.mm
p1274
g719
sVcom.meizu.mzsnssyncservice
p1275
g508
sg644
g725
sg460
g785
sg1156
g791
sVcom.tencent.qqlive
p1276
g834
sg160
g876
sg697
g881
sg537
g899
sg1091
g938
sg93
g974
sVcom.android.mms
p1277
g491
sVcom.yuedong.sport
p1278
g1014
sg237
g1058
ssg57
(dp1279
Vcom.android.browser
p1280
g148
sg263
g438
sVcom.android.launcher
p1281
g304
ssg59
(dp1282
Vcom.meizu.cloud
p1283
g890
sg91
g908
sg669
g455
sg17
g206
sVcom.android.fileexplorer
p1284
g773
sg909
g305
sg1112
g641
ssg61
(dp1285
Vcom.android.browser
p1286
g114
sg986
g966
sg687
g476
sVcom.yuedong.sport
p1287
g989
sVcom.android.launcher
p1288
g307
sVcom.chaozh.iReaderFree
p1289
g852
ssg63
(dp1290
Vcom.android.browser
p1291
g118
sg35
g406
sg83
g882
sg37
g411
sg1197
g935
sg911
g437
sg412
g964
sg699
g480
sVcom.yuedong.sport
p1292
g992
sg47
g533
sg720
g379
sVcom.android.deskclock
p1293
g230
sVcom.android.fileexplorer
p1294
g783
sg404
g308
sVcom.android.phone
p1295
g580
sg101
g1055
sVcom.tencent.mtt
p1296
g603
sg396
g640
sg427
g201
ssg65
(dp1297
Vcom.android.settings
p1298
g917
sg997
g523
sVcom.tencent.token
p1299
g755
sVcom.android.launcher
p1300
g309
sg530
g1048
sVcom.tencent.mm
p1301
g709
sVcom.tencent.mobileqq
p1302
g645
ssg67
(dp1303
g1096
g817
sVcom.android.launcher
p1304
g287
sVcom.tencent.mm
p1305
g711
sg169
g926
sg810
g434
sVcom.tencent.pao
p1306
g958
sVcom.yuedong.sport
p1307
g1006
sVcom.meizu.mzsnssyncservice
p1308
g500
sg806
g175
sVcom.android.phone
p1309
g582
sVcom.storm.smart
p1310
g339
sVcom.tencent.mobileqq
p1311
g647
ssg69
(dp1312
g103
g1061
sVcom.android.launcher
p1313
g310
ssg71
(dp1314
g85
g887
sg701
g821
sg59
g673
sg91
g923
sg1244
g968
sg1043
g461
sg1087
g1002
sg49
g548
sg909
g311
sVcom.android.phone
p1315
g584
sg1214
g713
sVcom.chaozh.iReaderFree
p1316
g865
sVcom.tencent.mobileqq
p1317
g649
ssg73
(dp1318
Vcom.tencent.game.rhythmmaster
p1319
g155
sg61
g691
sg631
g440
sg681
g312
sVcom.android.phone
p1320
g586
sg1201
g651
sVcom.chaozh.iReaderFree
p1321
g867
ssg75
(dp1322
sg77
(dp1323
g1147
g157
sVcom.tencent.android.qqdownloader
p1324
g166
sVcom.tencent.mm
p1325
g702
sVcom.android.packageinstaller
p1326
g441
sVcom.tencent.pao
p1327
g970
sVcom.tencent.token
p1328
g732
sVcom.android.deskclock
p1329
g240
sg29
g313
sVcom.android.phone
p1330
g588
sg873
g343
sg55
g652
sg1171
g850
ssg79
(dp1331
Vcom.android.fileexplorer
p1332
g781
sVcom.android.video
p1333
g554
sVcom.yuedong.sport
p1334
g1012
sVcom.android.launcher
p1335
g314
ssg81
(dp1336
g330
g147
sVcom.tencent.game.rhythmmaster
p1337
g161
sVcom.tencent.qqlive
p1338
g838
sg955
g420
sg396
g653
sVcom.tencent.android.qqdownloader
p1339
g187
sVcom.tencent.pao
p1340
g972
sg386
g980
sg1334
g1017
sVcom.meizu.mzsnssyncservice
p1341
g512
sg862
g250
sVcom.tencent.qqpimsecure
p1342
g1056
sVcom.android.video
p1343
g558
sVcom.happyelements.AndroidAnimal.qq
p1344
g793
sVcom.android.launcher
p1345
g315
sVcom.android.phone
p1346
g590
sg1149
g351
sg79
g842
sg63
g722
sg1150
g381
ssg83
(dp1347
g1294
g770
sVcom.android.video
p1348
g535
sVcom.tencent.pao
p1349
g973
sVcom.tencent.mm
p1350
g698
sVcom.android.launcher
p1351
g316
ssg85
(dp1352
Vcom.android.fileexplorer
p1353
g771
sg822
g536
sVcom.android.launcher
p1354
g317
sg1247
g805
sg772
g667
ssg87
(dp1355
sg89
(dp1356
Vcom.tencent.mobileqq
p1357
g654
sg1272
g538
sg900
g457
sVcom.android.launcher
p1358
g318
ssg91
(dp1359
g846
g120
sg909
g320
sVcom.android.thememanager
p1360
g204
sVcom.tencent.tmgp.carrot2
p1361
g211
sVcom.android.deskclock
p1362
g228
sVcom.tencent.android.qqdownloader
p1363
g170
sVcom.storm.smart
p1364
g345
sg87
g893
sg121
g443
sg69
g766
sg646
g736
sg1113
g392
sVcom.android.video
p1365
g540
sVcom.android.phone
p1366
g598
sVcom.tencent.mm
p1367
g706
sg59
g668
sg71
g774
sVcom.tencent.qqlive
p1368
g809
sg1112
g655
sVcom.tencent.pao
p1369
g977
sVcom.android.mms
p1370
g478
sg97
g990
sg389
g1020
sVcom.tencent.qqpimsecure
p1371
g1038
ssg93
(dp1372
Vcom.android.browser
p1373
g124
sVcom.tencent.game.rhythmmaster
p1374
g153
sVcom.android.launcher
p1375
g322
sVcom.android.deskclock
p1376
g232
sg362
g266
sg950
g174
sVcom.storm.smart
p1377
g337
sVcom.android.contacts
p1378
g385
sg37
g413
sVcom.android.packageinstaller
p1379
g445
sg925
g740
sVcom.android.phone
p1380
g593
sVcom.tencent.mobileqq
p1381
g657
sg965
g686
sg1156
g789
sg1276
g813
sVcom.chaozh.iReaderFree
p1382
g857
sg410
g707
sVcom.yuedong.sport
p1383
g987
sg389
g1022
sg976
g914
sVcom.tencent.qqpimsecure
p1384
g1042
ssg95
(dp1385
g119
g915
sg121
g446
sg1150
g387
sVcom.android.launcher
p1386
g323
sVcom.android.phone
p1387
g594
ssg97
(dp1388
Vcom.tencent.qqlive
p1389
g816
sg988
g690
sg1009
g194
sg191
g448
sVcom.android.phone
p1390
g596
sg993
g459
sg1370
g481
sVcom.taobao.taobao
p1391
g521
sVcom.android.fileexplorer
p1392
g777
sg1365
g542
sg1155
g744
sVcom.android.launcher
p1393
g324
sVcom.android.settings
p1394
g920
sVcom.tencent.qqpimsecure
p1395
g1046
sVcom.tencent.mobileqq
p1396
g659
sVcom.android.contacts
p1397
g388
ssg99
(dp1398
Vcom.tencent.qqlive
p1399
g839
sVcom.android.packageinstaller
p1400
g449
sVcom.android.launcher
p1401
g325
sVcom.android.phone
p1402
g597
sVcom.tencent.mobileqq
p1403
g660
sVcom.android.contacts
p1404
g390
ssg101
(dp1405
Vcom.android.browser
p1406
g133
sg165
g814
sg475
g694
sg579
g717
sg1039
g451
sg656
g978
sVcom.android.mms
p1407
g489
sg520
g1011
sg1391
g531
sg130
g238
sg27
g273
sVcom.android.launcher
p1408
g326
sg1295
g600
sg180
g347
sg75
g798
sg1193
g661
sVcom.android.contacts
p1409
g394
sVcom.android.settings
p1410
g932
ssg103
(dp1411
g1313
g327
ssg105
(dp1412
g799
g129
sVcom.android.packageinstaller
p1413
g452
sVcom.android.launcher
p1414
g328
sssb.