ccopy_reg
_reconstructor
p1
(cnetworkx.classes.digraph
DiGraph
p2
c__builtin__
object
p3
NtRp4
(dp5
S'node'
p6
(dp7
Vcom.android.browser
p8
(dp9
S'weight'
p10
F0.08764046006136042
ssVcom.linkedin.android
p11
(dp12
g10
F8.2255113762604173e-05
ssVcom.adobe.reader
p13
(dp14
g10
F0.00078851453882772282
ssVcom.shanbay.listen
p15
(dp16
g10
F0.00072044134123108489
ssVcom.gotokeep.keep
p17
(dp18
g10
F0.00018625583231302324
ssVcom.autonavi.minimap
p19
(dp20
g10
F5.3891281430671705e-05
ssVcom.amap.android.location
p21
(dp22
g10
F3.7818443109243302e-06
ssVcom.android.thememanager
p23
(dp24
g10
F6.0509508974789283e-05
ssVcom.huawei.android.totemweather
p25
(dp26
g10
F5.2945820352940623e-05
ssVcom.android.deskclock
p27
(dp28
g10
F0.0014758647423382199
ssVcom.taou.maimai
p29
(dp30
g10
F0.0062201884303927915
ssVcom.huawei.android.pushagent
p31
(dp32
g10
F2.9309293409663556e-05
ssVcom.record.myLife
p33
(dp34
g10
F0.00064385899393486722
ssVcom.google.android.youtube
p35
(dp36
g10
F1.1345532932772991e-05
ssVcom.android.notepad
p37
(dp38
g10
F7.5636886218486595e-05
ssVcom.smartapp.easyvpn
p39
(dp40
g10
F0.00028931108978571125
ssVcom.huawei.dataservicediagnose
p41
(dp42
g10
F3.7818443109243302e-06
ssVcom.hupu.games
p43
(dp44
g10
F0.0090102440707772163
ssVfm.jihua.kecheng
p45
(dp46
g10
F0.0019835773410798109
ssVcom.sina.weibo
p47
(dp48
g10
F0.00099367959269536774
ssVcom.android.contacts
p49
(dp50
g10
F0.0091492268492036847
ssVcom.eg.android.AlipayGphone
p51
(dp52
g10
F0.0013198636645125911
ssVcom.android.wifi
p53
(dp54
g10
F3.4982059876050053e-05
ssVcom.zhihu.android
p55
(dp56
g10
F0.015077267806577572
ssVcom.android.email
p57
(dp58
g10
F0.001077825628613434
ssVcom.hipu.yidian
p59
(dp60
g10
F0.0055593111370587653
ssVcom.netease.edu.study
p61
(dp62
g10
F0.0018871403111512407
ssVcom.microsoft.office.officehub
p63
(dp64
g10
F3.4036598798318971e-05
ssVcom.android.packageinstaller
p65
(dp66
g10
F0.00124895408368276
ssVcom.sankuai.meituan
p67
(dp68
g10
F0.00071193219153150515
ssVcom.android.gallery3d
p69
(dp70
g10
F0.00014843738920377995
ssVcom.sdu.didi.psnger
p71
(dp72
g10
F6.7127736518906854e-05
ssVcom.taobao.taobao
p73
(dp74
g10
F0.0007232777244642781
ssVcom.android.vpndialogs
p75
(dp76
g10
F0.00020327413171218275
ssVcom.huawei.hidisk
p77
(dp78
g10
F0.00039709365264705467
ssVme.ele
p79
(dp80
g10
F0.0015401560956239335
ssVcom.android.hwmirror
p81
(dp82
g10
F0.0012168084070399031
ssVcom.google.android.gsf.login
p83
(dp84
g10
F6.5236814363444691e-05
ssVcom.android.phone
p85
(dp86
g10
F0.00076298708972898359
ssVcom.vmall.client
p87
(dp88
g10
F1.1345532932772991e-05
ssVcom.tencent.mtt
p89
(dp90
g10
F0.24109919304897015
ssVcom.huawei.fans
p91
(dp92
g10
F0.00041411195204621416
ssVcom.tencent.mm
p93
(dp94
g10
F0.041351631156724356
ssVcom.shanbay.words
p95
(dp96
g10
F2.8363832331932475e-05
ssVcom.sankuai.meituan.takeoutnew
p97
(dp98
g10
F0.0031947129816533278
ssVcom.android.video
p99
(dp100
g10
F0.0031862038319537479
ssVcom.google.android.gm
p101
(dp102
g10
F0.00010305525747268799
ssVcom.huawei.magnifier
p103
(dp104
g10
F6.6182275441175779e-06
ssVandroid.zhibo8
p105
(dp106
g10
F0.031764655828531177
ssVcom.netease.cloudmusic
p107
(dp108
g10
F0.16563343528555288
ssVcom.huawei.android.hwouc
p109
(dp110
g10
F0.00012480086226050288
ssVcom.baidu.lbs.waimai
p111
(dp112
g10
F0.0066673915201595942
ssVcom.nice.main
p113
(dp114
g10
F7.0909580829831194e-05
ssVcom.biganiseed.reindeer
p115
(dp116
g10
F0.00024771080236554363
ssVcom.android.fileexplorer
p117
(dp118
g10
F4.1600287420167631e-05
ssVcom.netease.newsreader.activity
p119
(dp120
g10
F0.0013368819639117506
ssVcom.instagram.android
p121
(dp122
g10
F0.0017216846225483013
ssVcom.qiyi.video
p123
(dp124
g10
F0.016345131111814955
ssVcom.huawei.lcagent
p125
(dp126
g10
F9.4546107773108243e-06
ssVcom.googlesuit.ggkj
p127
(dp128
g10
F6.1454970052520364e-05
ssVcom.iflytek.ringdiyclient
p129
(dp130
g10
F0.00031767492211764374
ssVcom.bubugao.yhglobal
p131
(dp132
g10
F2.5527449098739227e-05
ssVcom.alibaba.android.rimet
p133
(dp134
g10
F0.00011629171256092315
ssVcom.tencent.mobileqq
p135
(dp136
g10
F0.26771486784817788
ssVcom.facebook.orca
p137
(dp138
g10
F0.00015505561674789754
ssVcom.huawei.vassistant
p139
(dp140
g10
F0.00038858450294747493
ssVcom.immomo.momo
p141
(dp142
g10
F0.00066276821548948888
ssVcom.twitter.android
p143
(dp144
g10
F0.013137181675073391
ssVcom.android.calendar
p145
(dp146
g10
F0.00013614639519327588
ssVcom.android.settings
p147
(dp148
g10
F0.020018247398800211
ssVcom.xdf.recite
p149
(dp150
g10
F0.0092929369330188097
ssVcom.baidu.input_huawei
p151
(dp152
g10
F9.4546107773108243e-06
ssVcom.liulishuo.engzo
p153
(dp154
g10
F0.00072422318554200924
ssVcom.huawei.hwid
p155
(dp156
g10
F6.4291353285713616e-05
ssVcom.android.keyguard
p157
(dp158
g10
F0.00056727664663864955
ssVcom.baidu.tieba
p159
(dp160
g10
F0.011436297196235174
ssVcom.android.mediacenter
p161
(dp162
g10
F4.1600287420167631e-05
ssVcom.huawei.appmarket
p163
(dp164
g10
F0.0096418120707015796
ssVcom.huawei.android.internal.app
p165
(dp166
g10
F1.7963760476890567e-05
ssVcom.android.camera
p167
(dp168
g10
F0.0003989845748025168
ssVcom.google.android.gms
p169
(dp170
g10
F1.2290994010504072e-05
ssVfq.router2
p171
(dp172
g10
F0.00012952816764915829
ssVcom.jhss.youguu
p173
(dp174
g10
F1.9854682632352734e-05
sssS'node_dict_factory'
p175
c__builtin__
dict
p176
sS'edge_attr_dict_factory'
p177
g176
sS'succ'
p178
(dp179
g8
(dp180
g17
(dp181
g10
I1
ssVcom.android.deskclock
p182
(dp183
g10
F1.8999999999999999
ssVcom.taou.maimai
p184
(dp185
g10
I2
ssVcom.huawei.appmarket
p186
(dp187
g10
F7.4000000000000004
ssVcom.microsoft.office.officehub
p188
(dp189
g10
F3.4000000000000004
ssVcom.sina.weibo
p190
(dp191
g10
I1
ssVcom.android.contacts
p192
(dp193
g10
F6.8000000000000007
ssVcom.android.packageinstaller
p194
(dp195
g10
F4.4000000000000004
ssg35
(dp196
g10
F1.3
ssg143
(dp197
g10
F1.1000000000000001
ssVcom.vmall.client
p198
(dp199
g10
F1.1000000000000001
ssVcom.tencent.mtt
p200
(dp201
g10
F5.4000000000000004
ssVcom.huawei.fans
p202
(dp203
g10
F7.1000000000000005
ssVcom.tencent.mm
p204
(dp205
g10
F5.0999999999999996
ssVcom.sankuai.meituan.takeoutnew
p206
(dp207
g10
F0.90000000000000002
ssVcom.netease.cloudmusic
p208
(dp209
g10
I3
ssVcom.baidu.lbs.waimai
p210
(dp211
g10
I1
ssg125
(dp212
g10
F0.90000000000000002
ssVcom.android.vpndialogs
p213
(dp214
g10
F0.90000000000000002
ssg135
(dp215
g10
F20.099999999999991
ssVcom.android.settings
p216
(dp217
g10
F14.000000000000004
ssVcom.huawei.hwid
p218
(dp219
g10
F1.3
ssg115
(dp220
g10
F1.7
ssVfq.router2
p221
(dp222
g10
F0.69999999999999996
sssg11
(dp223
sg13
(dp224
Vcom.huawei.hidisk
p225
(dp226
g10
F0.40000000000000002
ssVcom.tencent.mobileqq
p227
(dp228
g10
F1.7
ssVcom.qiyi.video
p229
(dp230
g10
F0.90000000000000002
sssg15
(dp231
Vcom.android.settings
p232
(dp233
g10
F1.3
ssVcom.android.email
p234
(dp235
g10
F0.69999999999999996
ssVcom.tencent.mm
p236
(dp237
g10
I1
ssVcom.huawei.appmarket
p238
(dp239
g10
I1
sssg17
(dp240
Vcom.android.browser
p241
(dp242
g10
I1
ssVcom.huawei.appmarket
p243
(dp244
g10
F0.40000000000000002
ssVcom.tencent.mobileqq
p245
(dp246
g10
F0.90000000000000002
ssVcom.android.settings
p247
(dp248
g10
F0.69999999999999996
sssg19
(dp249
sg21
(dp250
Vcom.twitter.android
p251
(dp252
g10
F0.90000000000000002
ssVcom.android.settings
p253
(dp254
g10
I1
ssg117
(dp255
g10
F0.40000000000000002
ssg137
(dp256
g10
F0.69999999999999996
sssg23
(dp257
Vcom.netease.cloudmusic
p258
(dp259
g10
F0.69999999999999996
ssVcom.taou.maimai
p260
(dp261
g10
F0.90000000000000002
ssVcom.android.settings
p262
(dp263
g10
I1
ssVcom.tencent.mm
p264
(dp265
g10
I1
ssVcom.android.deskclock
p266
(dp267
g10
F2.3999999999999999
ssVcom.huawei.hwid
p268
(dp269
g10
F0.90000000000000002
ssVcom.huawei.appmarket
p270
(dp271
g10
F1.7
ssVcom.tencent.mtt
p272
(dp273
g10
I1
ssVcom.iflytek.ringdiyclient
p274
(dp275
g10
F0.90000000000000002
ssVcom.tencent.mobileqq
p276
(dp277
g10
F0.40000000000000002
sssg25
(dp278
Vcom.huawei.hidisk
p279
(dp280
g10
F1.3
ssVcom.tencent.mtt
p281
(dp282
g10
F1.7
ssg69
(dp283
g10
F1.7
ssVcom.android.packageinstaller
p284
(dp285
g10
F0.40000000000000002
ssVcom.huawei.appmarket
p286
(dp287
g10
F0.90000000000000002
sssg27
(dp288
Vcom.huawei.hwid
p289
(dp290
g10
F0.69999999999999996
ssVcom.android.browser
p291
(dp292
g10
I1
ssVcom.android.vpndialogs
p293
(dp294
g10
F0.40000000000000002
ssVcom.netease.cloudmusic
p295
(dp296
g10
F1.8999999999999999
ssVcom.taou.maimai
p297
(dp298
g10
F1.3999999999999999
ssVcom.tencent.mm
p299
(dp300
g10
F2.5999999999999996
ssVcom.android.settings
p301
(dp302
g10
F5.9000000000000004
ssg65
(dp303
g10
F0.40000000000000002
ssVcom.huawei.appmarket
p304
(dp305
g10
F1.3
ssg69
(dp306
g10
F1.3
ssVfq.router2
p307
(dp308
g10
F0.69999999999999996
ssVcom.android.thememanager
p309
(dp310
g10
I2
ssVcom.twitter.android
p311
(dp312
g10
I1
ssg279
(dp313
g10
F0.69999999999999996
ssVcom.record.myLife
p314
(dp315
g10
F1.8999999999999999
ssVcom.huawei.lcagent
p316
(dp317
g10
F1.6000000000000001
ssVcom.huawei.android.totemweather
p318
(dp319
g10
I1
ssVcom.tencent.mtt
p320
(dp321
g10
F9.3000000000000007
ssVfm.jihua.kecheng
p322
(dp323
g10
I2
ssVcom.tencent.mobileqq
p324
(dp325
g10
F29.299999999999994
ssVcom.android.contacts
p326
(dp327
g10
I1
sssg29
(dp328
Vcom.qiyi.video
p329
(dp330
g10
I1
ssg71
(dp331
g10
F0.69999999999999996
ssg31
(dp332
g10
I1
ssVfm.jihua.kecheng
p333
(dp334
g10
F2.7999999999999998
ssVcom.hupu.games
p335
(dp336
g10
F2.2999999999999998
ssVcom.smartapp.easyvpn
p337
(dp338
g10
F2
ssg47
(dp339
g10
F0.69999999999999996
ssVcom.zhihu.android
p340
(dp341
g10
F3.5999999999999996
ssVcom.instagram.android
p342
(dp343
g10
F0.69999999999999996
ssVcom.hipu.yidian
p344
(dp345
g10
F0.69999999999999996
ssVcom.android.packageinstaller
p346
(dp347
g10
F0.90000000000000002
ssg61
(dp348
g10
F1.6000000000000001
ssVcom.taobao.taobao
p349
(dp350
g10
I1
ssVcom.twitter.android
p351
(dp352
g10
F4.7999999999999998
ssVcom.tencent.mtt
p353
(dp354
g10
F12.300000000000001
ssVcom.tencent.mm
p355
(dp356
g10
F6.7000000000000011
ssVandroid.zhibo8
p357
(dp358
g10
F2.6000000000000001
ssVcom.netease.cloudmusic
p359
(dp360
g10
I1
ssVcom.baidu.lbs.waimai
p361
(dp362
g10
F0.90000000000000002
ssVcom.netease.newsreader.activity
p363
(dp364
g10
I1
ssVcom.android.vpndialogs
p365
(dp366
g10
F2.4000000000000004
ssVcom.alibaba.android.rimet
p367
(dp368
g10
I1
ssVcom.tencent.mobileqq
p369
(dp370
g10
F22.899999999999995
ssVcom.android.email
p371
(dp372
g10
F2.7999999999999998
ssVcom.android.settings
p373
(dp374
g10
F35.699999999999989
ssVcom.huawei.hwid
p375
(dp376
g10
F0.69999999999999996
ssVcom.baidu.tieba
p377
(dp378
g10
I1
ssg163
(dp379
g10
F1.3
sssg31
(dp380
g155
(dp381
g10
F0.40000000000000002
ssg373
(dp382
g10
F0.90000000000000002
ssg369
(dp383
g10
I1
ssg163
(dp384
g10
F0.69999999999999996
sssg33
(dp385
Vcom.android.deskclock
p386
(dp387
g10
I1
ssVcom.android.settings
p388
(dp389
g10
F3.7999999999999998
ssVcom.android.packageinstaller
p390
(dp391
g10
I1
ssVcom.tencent.mobileqq
p392
(dp393
g10
F9
ssVcom.taou.maimai
p394
(dp395
g10
F0.90000000000000002
sssg35
(dp396
g143
(dp397
g10
F1.7
ssVcom.android.settings
p398
(dp399
g10
F2.7999999999999998
ssg169
(dp400
g10
F0.69999999999999996
ssg21
(dp401
g10
F0.40000000000000002
sssg37
(dp402
Vcom.tencent.mm
p403
(dp404
g10
F1.6000000000000001
ssVcom.tencent.mobileqq
p405
(dp406
g10
F1.8999999999999999
ssVcom.android.settings
p407
(dp408
g10
F1.1000000000000001
sssg39
(dp409
Vcom.android.browser
p410
(dp411
g10
F2.0999999999999996
ssVcom.android.email
p412
(dp413
g10
F6.7000000000000011
ssVcom.zhihu.android
p414
(dp415
g10
F2.6000000000000001
ssVcom.android.settings
p416
(dp417
g10
F6.1000000000000005
ssVcom.android.packageinstaller
p418
(dp419
g10
F0.80000000000000004
ssVfq.router2
p420
(dp421
g10
F0.40000000000000002
ssVcom.twitter.android
p422
(dp423
g10
F23.299999999999994
ssVcom.taou.maimai
p424
(dp425
g10
F1.8
ssVcom.instagram.android
p426
(dp427
g10
F3
ssVcom.baidu.tieba
p428
(dp429
g10
F1.3
ssVcom.huawei.appmarket
p430
(dp431
g10
F4.7000000000000002
ssVcom.tencent.mtt
p432
(dp433
g10
F6.2000000000000002
ssg75
(dp434
g10
F22.399999999999995
ssVcom.tencent.mm
p435
(dp436
g10
F0.40000000000000002
ssVcom.tencent.mobileqq
p437
(dp438
g10
F0.40000000000000002
sssg41
(dp439
Vcom.taou.maimai
p440
(dp441
g10
F0.90000000000000002
ssVcom.tencent.mobileqq
p442
(dp443
g10
I1
ssVcom.android.settings
p444
(dp445
g10
F0.69999999999999996
sssg43
(dp446
Vcom.instagram.android
p447
(dp448
g10
F1.7
ssVcom.huawei.hidisk
p449
(dp450
g10
F0.69999999999999996
ssVcom.tencent.mobileqq
p451
(dp452
g10
F12.400000000000002
ssg270
(dp453
g10
F0.40000000000000002
ssg61
(dp454
g10
F0.40000000000000002
ssVcom.android.thememanager
p455
(dp456
g10
F0.69999999999999996
ssVcom.android.deskclock
p457
(dp458
g10
F0.90000000000000002
ssVcom.taou.maimai
p459
(dp460
g10
F2.7999999999999998
ssVcom.android.settings
p461
(dp462
g10
F5.7999999999999998
ssVcom.huawei.android.internal.app
p463
(dp464
g10
F0.40000000000000002
ssVcom.tencent.mtt
p465
(dp466
g10
F9.1000000000000014
ssVcom.android.vpndialogs
p467
(dp468
g10
F0.40000000000000002
ssVcom.tencent.mm
p469
(dp470
g10
F1.8
ssVcom.android.contacts
p471
(dp472
g10
I1
ssg11
(dp473
g10
I1
sssg45
(dp474
Vcom.huawei.hidisk
p475
(dp476
g10
F0.69999999999999996
ssVcom.smartapp.easyvpn
p477
(dp478
g10
F1.7
ssVcom.huawei.hwid
p479
(dp480
g10
F0.90000000000000002
ssVcom.android.settings
p481
(dp482
g10
F12.700000000000001
ssVfq.router2
p483
(dp484
g10
F3.4000000000000004
ssVcom.taobao.taobao
p485
(dp486
g10
F3
ssVcom.android.contacts
p487
(dp488
g10
I2
ssVcom.twitter.android
p489
(dp490
g10
F0.80000000000000004
ssVcom.taou.maimai
p491
(dp492
g10
I3
ssVcom.baidu.tieba
p493
(dp494
g10
F2.6000000000000001
ssVcom.android.vpndialogs
p495
(dp496
g10
F2.7000000000000002
ssVcom.huawei.appmarket
p497
(dp498
g10
F0.40000000000000002
ssVcom.huawei.android.internal.app
p499
(dp500
g10
F0.40000000000000002
ssVcom.tencent.mtt
p501
(dp502
g10
F2.2999999999999998
ssVcom.android.email
p503
(dp504
g10
I1
ssVcom.tencent.mm
p505
(dp506
g10
F2.3999999999999999
ssVcom.android.mediacenter
p507
(dp508
g10
F1.7
ssVcom.tencent.mobileqq
p509
(dp510
g10
F1.3999999999999999
sssg47
(dp511
Vcom.zhihu.android
p512
(dp513
g10
F1.3
ssVcom.tencent.mobileqq
p514
(dp515
g10
I2
ssVcom.android.settings
p516
(dp517
g10
F2.5
ssVcom.hupu.games
p518
(dp519
g10
F1.1000000000000001
ssVfm.jihua.kecheng
p520
(dp521
g10
I1
ssVcom.tencent.mm
p522
(dp523
g10
F1.6000000000000001
ssVcom.tencent.mtt
p524
(dp525
g10
F1.3999999999999999
sssg49
(dp526
Vcom.android.browser
p527
(dp528
g10
F2.2999999999999998
ssVcom.android.deskclock
p529
(dp530
g10
F1.7
ssVcom.taou.maimai
p531
(dp532
g10
F7.3000000000000016
ssg37
(dp533
g10
I1
ssVcom.hupu.games
p534
(dp535
g10
I1
ssVfm.jihua.kecheng
p536
(dp537
g10
I2
ssg190
(dp538
g10
F0.69999999999999996
ssVcom.zhihu.android
p539
(dp540
g10
F0.90000000000000002
ssVcom.android.email
p541
(dp542
g10
F1.3
ssVcom.android.packageinstaller
p543
(dp544
g10
F0.69999999999999996
ssVcom.android.gallery3d
p545
(dp546
g10
F0.40000000000000002
ssVcom.taobao.taobao
p547
(dp548
g10
I2
ssVcom.twitter.android
p549
(dp550
g10
I1
ssg79
(dp551
g10
F1.1000000000000001
ssg85
(dp552
g10
I4
ssVcom.vmall.client
p553
(dp554
g10
F0.90000000000000002
ssVcom.tencent.mtt
p555
(dp556
g10
F15.200000000000001
ssVcom.tencent.mm
p557
(dp558
g10
F22.099999999999998
ssg97
(dp559
g10
F1.6000000000000001
ssVandroid.zhibo8
p560
(dp561
g10
F0.40000000000000002
ssVcom.netease.cloudmusic
p562
(dp563
g10
F1.7
ssVcom.baidu.lbs.waimai
p564
(dp565
g10
F2.2999999999999998
ssVcom.android.vpndialogs
p566
(dp567
g10
F2.7999999999999998
ssVcom.tencent.mobileqq
p568
(dp569
g10
F80.100000000000037
ssVcom.huawei.vassistant
p570
(dp571
g10
F1.8999999999999999
ssVcom.android.settings
p572
(dp573
g10
F25.799999999999994
ssVcom.xdf.recite
p574
(dp575
g10
I1
ssVcom.huawei.hwid
p576
(dp577
g10
F0.90000000000000002
ssVcom.android.keyguard
p578
(dp579
g10
I1
ssVcom.baidu.tieba
p580
(dp581
g10
F0.90000000000000002
ssVcom.huawei.appmarket
p582
(dp583
g10
I1
ssVcom.android.camera
p584
(dp585
g10
F3.4999999999999996
ssVfq.router2
p586
(dp587
g10
F0.69999999999999996
sssg51
(dp588
Vcom.tencent.mobileqq
p589
(dp590
g10
I3
ssVcom.baidu.lbs.waimai
p591
(dp592
g10
I1
ssVme.ele
p593
(dp594
g10
I1
ssVcom.huawei.appmarket
p595
(dp596
g10
F0.90000000000000002
ssVcom.android.settings
p597
(dp598
g10
I1
ssVcom.tencent.mm
p599
(dp600
g10
F0.90000000000000002
ssVcom.android.contacts
p601
(dp602
g10
F0.90000000000000002
ssVcom.sankuai.meituan.takeoutnew
p603
(dp604
g10
I1
sssg53
(dp605
sg55
(dp606
Vcom.twitter.android
p607
(dp608
g10
I1
ssVcom.android.settings
p609
(dp610
g10
F19.699999999999999
ssVcom.android.packageinstaller
p611
(dp612
g10
F0.90000000000000002
ssg545
(dp613
g10
F1.8
ssVcom.android.deskclock
p614
(dp615
g10
F1.8
ssVcom.taou.maimai
p616
(dp617
g10
I2
ssVcom.baidu.tieba
p618
(dp619
g10
F2.3999999999999999
ssg165
(dp620
g10
F3.1000000000000001
ssVcom.android.camera
p621
(dp622
g10
I1
ssVcom.tencent.mtt
p623
(dp624
g10
F4.2999999999999998
ssg566
(dp625
g10
F2.5999999999999996
ssg522
(dp626
g10
F3.9999999999999996
ssg131
(dp627
g10
F0.69999999999999996
ssVcom.tencent.mobileqq
p628
(dp629
g10
F90.600000000000094
sssg57
(dp630
g101
(dp631
g10
F0.69999999999999996
ssVcom.smartapp.easyvpn
p632
(dp633
g10
F3.4000000000000004
ssVcom.android.calendar
p634
(dp635
g10
I1
ssVcom.android.settings
p636
(dp637
g10
F11.4
ssVcom.tencent.mm
p638
(dp639
g10
F0.90000000000000002
ssVfq.router2
p640
(dp641
g10
F3
ssVcom.twitter.android
p642
(dp643
g10
F2.7999999999999998
ssVcom.instagram.android
p644
(dp645
g10
F1.7
ssVcom.huawei.appmarket
p646
(dp647
g10
F0.90000000000000002
ssVcom.tencent.mtt
p648
(dp649
g10
F2.7000000000000002
ssVcom.android.vpndialogs
p650
(dp651
g10
F6.7000000000000011
ssVcom.tencent.mobileqq
p652
(dp653
g10
F6.2000000000000002
ssVcom.android.contacts
p654
(dp655
g10
F1.8999999999999999
ssg83
(dp656
g10
F0.40000000000000002
ssVcom.alibaba.android.rimet
p657
(dp658
g10
F0.69999999999999996
sssg59
(dp659
Vcom.zhihu.android
p660
(dp661
g10
F1.3999999999999999
ssVcom.netease.cloudmusic
p662
(dp663
g10
I1
ssVcom.android.settings
p664
(dp665
g10
F4.7000000000000002
ssVcom.taou.maimai
p666
(dp667
g10
I2
ssg377
(dp668
g10
F0.90000000000000002
ssVcom.tencent.mtt
p669
(dp670
g10
F1.7
ssVcom.tencent.mm
p671
(dp672
g10
F2.2000000000000002
ssVcom.android.contacts
p673
(dp674
g10
F0.90000000000000002
ssVcom.tencent.mobileqq
p675
(dp676
g10
F15.899999999999999
sssg61
(dp677
Vcom.android.settings
p678
(dp679
g10
F1.8
ssVcom.hupu.games
p680
(dp681
g10
F1.7
ssg447
(dp682
g10
F0.40000000000000002
ssVcom.tencent.mobileqq
p683
(dp684
g10
I1
sssg63
(dp685
Vcom.android.browser
p686
(dp687
g10
F2.7000000000000002
ssVcom.tencent.mm
p688
(dp689
g10
F1.7
ssVcom.tencent.mobileqq
p690
(dp691
g10
F3.3999999999999999
sssg65
(dp692
Vcom.android.browser
p693
(dp694
g10
F5
ssVcom.record.myLife
p695
(dp696
g10
F1.7
ssVcom.android.deskclock
p697
(dp698
g10
F0.90000000000000002
ssg297
(dp699
g10
F0.69999999999999996
ssVcom.huawei.appmarket
p700
(dp701
g10
F2.5
ssg39
(dp702
g10
F1.3
ssVcom.android.contacts
p703
(dp704
g10
I1
ssVcom.zhihu.android
p705
(dp706
g10
F1.6000000000000001
ssg121
(dp707
g10
F6.6000000000000005
ssVcom.huawei.hidisk
p708
(dp709
g10
F2.7000000000000002
ssg131
(dp710
g10
I1
ssVcom.huawei.fans
p711
(dp712
g10
F4
ssg392
(dp713
g10
F4.7000000000000002
ssVandroid.zhibo8
p714
(dp715
g10
F0.90000000000000002
ssVcom.baidu.lbs.waimai
p716
(dp717
g10
F0.90000000000000002
ssg75
(dp718
g10
F2.2999999999999998
ssVcom.tencent.mtt
p719
(dp720
g10
F35.099999999999987
ssg127
(dp721
g10
F0.90000000000000002
ssVcom.android.settings
p722
(dp723
g10
F5.7000000000000002
ssVcom.huawei.hwid
p724
(dp725
g10
F0.69999999999999996
ssVcom.baidu.tieba
p726
(dp727
g10
F0.90000000000000002
ssg115
(dp728
g10
F0.90000000000000002
ssg171
(dp729
g10
F1.7000000000000002
sssg67
(dp730
Vcom.taou.maimai
p731
(dp732
g10
F0.40000000000000002
ssVme.ele
p733
(dp734
g10
F0.69999999999999996
ssVcom.baidu.lbs.waimai
p735
(dp736
g10
I2
ssVcom.sankuai.meituan.takeoutnew
p737
(dp738
g10
F0.90000000000000002
sssg69
(dp739
Vcom.android.fileexplorer
p740
(dp741
g10
F0.69999999999999996
ssVcom.android.settings
p742
(dp743
g10
F1.7
ssVcom.twitter.android
p744
(dp745
g10
F2.2999999999999998
ssg279
(dp746
g10
F2.7000000000000002
ssVcom.android.camera
p747
(dp748
g10
I1
ssVcom.tencent.mtt
p749
(dp750
g10
F1.7000000000000002
sssg71
(dp751
Vcom.android.settings
p752
(dp753
g10
F2.7000000000000002
sssg73
(dp754
Vcom.android.browser
p755
(dp756
g10
F1.3
ssVcom.android.email
p757
(dp758
g10
F0.69999999999999996
ssg560
(dp759
g10
F0.69999999999999996
ssVcom.android.settings
p760
(dp761
g10
F4
ssVcom.taou.maimai
p762
(dp763
g10
F2.8999999999999999
ssVcom.tencent.mtt
p764
(dp765
g10
F0.90000000000000002
ssVfm.jihua.kecheng
p766
(dp767
g10
F0.69999999999999996
ssVcom.tencent.mobileqq
p768
(dp769
g10
F1.3999999999999999
ssVcom.eg.android.AlipayGphone
p770
(dp771
g10
I1
sssg75
(dp772
g693
(dp773
g10
F1.3
ssVcom.taou.maimai
p774
(dp775
g10
F2.5999999999999996
ssVcom.smartapp.easyvpn
p776
(dp777
g10
F18.800000000000001
ssg414
(dp778
g10
F2.2999999999999998
ssg426
(dp779
g10
F4.2999999999999998
ssg418
(dp780
g10
F4.4000000000000004
ssg545
(dp781
g10
I1
ssVcom.twitter.android
p782
(dp783
g10
F17.800000000000001
ssg432
(dp784
g10
F10
ssg711
(dp785
g10
F2.2999999999999998
ssVcom.tencent.mm
p786
(dp787
g10
F2.7999999999999998
ssVcom.sankuai.meituan.takeoutnew
p788
(dp789
g10
F0.69999999999999996
ssVcom.netease.cloudmusic
p790
(dp791
g10
F0.90000000000000002
ssg113
(dp792
g10
F0.69999999999999996
ssg412
(dp793
g10
F5.4000000000000004
ssVcom.tencent.mobileqq
p794
(dp795
g10
F4.2999999999999998
ssVcom.huawei.vassistant
p796
(dp797
g10
F1.1000000000000001
ssg416
(dp798
g10
F17
ssg375
(dp799
g10
F0.80000000000000004
ssVcom.baidu.tieba
p800
(dp801
g10
I1
ssg430
(dp802
g10
F2.7999999999999998
ssVfq.router2
p803
(dp804
g10
F13.6
sssg77
(dp805
Vcom.android.browser
p806
(dp807
g10
F1.3
ssVcom.baidu.lbs.waimai
p808
(dp809
g10
F1.1000000000000001
ssVcom.android.settings
p810
(dp811
g10
F4.7000000000000002
ssVcom.android.packageinstaller
p812
(dp813
g10
I1
ssVcom.adobe.reader
p814
(dp815
g10
F0.90000000000000002
ssVcom.android.gallery3d
p816
(dp817
g10
I1
ssVcom.taou.maimai
p818
(dp819
g10
F1.3999999999999999
ssVcom.android.video
p820
(dp821
g10
F7.2000000000000011
ssVcom.huawei.android.internal.app
p822
(dp823
g10
F9.6000000000000014
ssVcom.tencent.mtt
p824
(dp825
g10
F9.5
ssVcom.tencent.mobileqq
p826
(dp827
g10
F2.1000000000000001
sssg79
(dp828
g599
(dp829
g10
F6.7000000000000011
ssg564
(dp830
g10
I2
ssg491
(dp831
g10
F3.3999999999999999
ssg481
(dp832
g10
F1.1000000000000001
ssg133
(dp833
g10
I1
ssg45
(dp834
g10
F1.3
ssVcom.tencent.mobileqq
p835
(dp836
g10
F2.6000000000000001
ssVcom.tencent.mtt
p837
(dp838
g10
F0.90000000000000002
ssg51
(dp839
g10
F2.7999999999999998
ssVcom.sankuai.meituan.takeoutnew
p840
(dp841
g10
F3.4000000000000004
sssg81
(dp842
Vcom.android.settings
p843
(dp844
g10
F1.8999999999999999
ssVcom.tencent.mtt
p845
(dp846
g10
F0.90000000000000002
ssVcom.smartapp.easyvpn
p847
(dp848
g10
F0.69999999999999996
ssg103
(dp849
g10
I1
ssVcom.android.vpndialogs
p850
(dp851
g10
F0.40000000000000002
sssg83
(dp852
Vcom.google.android.gm
p853
(dp854
g10
I1
ssVcom.android.settings
p855
(dp856
g10
F1.3
ssVcom.google.android.gms
p857
(dp858
g10
F0.69999999999999996
sssg85
(dp859
Vcom.android.contacts
p860
(dp861
g10
F6.9000000000000004
sssg87
(dp862
Vcom.android.settings
p863
(dp864
g10
I2
ssVcom.android.email
p865
(dp866
g10
F0.40000000000000002
ssVcom.android.vpndialogs
p867
(dp868
g10
F0.90000000000000002
ssg586
(dp869
g10
F1.7
sssg89
(dp870
Vcom.android.browser
p871
(dp872
g10
F7.2000000000000002
ssVcom.tencent.mm
p873
(dp874
g10
F39.899999999999984
ssg123
(dp875
g10
F2.5
ssVcom.android.deskclock
p876
(dp877
g10
F3.3999999999999999
ssg29
(dp878
g10
F12.499999999999998
ssg31
(dp879
g10
F0.90000000000000002
ssVcom.huawei.appmarket
p880
(dp881
g10
F24.399999999999991
ssVfm.jihua.kecheng
p882
(dp883
g10
F0.69999999999999996
ssg15
(dp884
g10
F0.90000000000000002
ssVcom.huawei.android.internal.app
p885
(dp886
g10
F2.5
ssg161
(dp887
g10
F1.1000000000000001
ssg39
(dp888
g10
F7.8000000000000016
ssg47
(dp889
g10
I2
ssVcom.android.contacts
p890
(dp891
g10
F7.9000000000000012
ssg83
(dp892
g10
F0.69999999999999996
ssg512
(dp893
g10
F6.5
ssg75
(dp894
g10
F10.100000000000001
ssg344
(dp895
g10
I2
ssg65
(dp896
g10
F35.399999999999991
ssg61
(dp897
g10
F0.69999999999999996
ssVme.ele
p898
(dp899
g10
F0.90000000000000002
ssg422
(dp900
g10
F5.3999999999999995
ssVcom.huawei.hidisk
p901
(dp902
g10
F4.7000000000000002
ssVcom.android.video
p903
(dp904
g10
F1.8
ssVcom.eg.android.AlipayGphone
p905
(dp906
g10
F0.80000000000000004
ssg198
(dp907
g10
I1
ssVcom.huawei.fans
p908
(dp909
g10
F1.7
ssVcom.tencent.mobileqq
p910
(dp911
g10
F226.00000000000009
ssVcom.hupu.games
p912
(dp913
g10
F6.2000000000000002
ssVcom.sankuai.meituan.takeoutnew
p914
(dp915
g10
F2
ssVandroid.zhibo8
p916
(dp917
g10
F10.5
ssVcom.netease.cloudmusic
p918
(dp919
g10
F3
ssVcom.baidu.lbs.waimai
p920
(dp921
g10
F4.7000000000000002
ssg121
(dp922
g10
F2.7000000000000002
ssg455
(dp923
g10
F1.8999999999999999
ssg129
(dp924
g10
F0.69999999999999996
ssg127
(dp925
g10
I1
ssg101
(dp926
g10
F1.7000000000000002
ssg412
(dp927
g10
I3
ssg796
(dp928
g10
F3.8999999999999999
ssg141
(dp929
g10
F1.3999999999999999
ssg145
(dp930
g10
F0.69999999999999996
ssg722
(dp931
g10
F102.40000000000008
ssVcom.huawei.hwid
p932
(dp933
g10
F8.2000000000000011
ssg726
(dp934
g10
F15.599999999999998
ssVcom.xdf.recite
p935
(dp936
g10
F2.7000000000000002
ssg171
(dp937
g10
F6.5999999999999996
sssg91
(dp938
Vcom.android.browser
p939
(dp940
g10
F8.9000000000000004
ssVcom.instagram.android
p941
(dp942
g10
F1.1000000000000001
ssg194
(dp943
g10
F4.7999999999999998
ssg115
(dp944
g10
F0.40000000000000002
ssVcom.twitter.android
p945
(dp946
g10
F1.6000000000000001
ssVcom.huawei.hwid
p947
(dp948
g10
F2.2999999999999998
ssVcom.huawei.appmarket
p949
(dp950
g10
F2.3999999999999999
ssVcom.tencent.mtt
p951
(dp952
g10
F0.40000000000000002
ssg213
(dp953
g10
F3.5
ssg221
(dp954
g10
F1.8999999999999999
sssg93
(dp955
g871
(dp956
g10
F4
ssVcom.record.myLife
p957
(dp958
g10
F1.3
ssVcom.android.deskclock
p959
(dp960
g10
F3.2999999999999998
ssg491
(dp961
g10
F10.300000000000001
ssVcom.smartapp.easyvpn
p962
(dp963
g10
F1.3999999999999999
ssg518
(dp964
g10
F2
ssg45
(dp965
g10
F2.5
ssVcom.sina.weibo
p966
(dp967
g10
F1.7
ssVcom.android.contacts
p968
(dp969
g10
F4.2000000000000002
ssg905
(dp970
g10
F1.7
ssVcom.zhihu.android
p971
(dp972
g10
F7.6000000000000005
ssg129
(dp973
g10
F1.3
ssg63
(dp974
g10
F3
ssVcom.android.packageinstaller
p975
(dp976
g10
F1.3
ssVcom.android.gallery3d
p977
(dp978
g10
F0.90000000000000002
ssg744
(dp979
g10
F1.3
ssVme.ele
p980
(dp981
g10
F3.7000000000000002
ssg553
(dp982
g10
I1
ssVcom.tencent.mtt
p983
(dp984
g10
F49.100000000000001
ssVcom.tencent.mobileqq
p985
(dp986
g10
F80.700000000000045
ssVcom.shanbay.words
p987
(dp988
g10
F1.8999999999999999
ssg788
(dp989
g10
F4.7000000000000002
ssVandroid.zhibo8
p990
(dp991
g10
F0.90000000000000002
ssg918
(dp992
g10
F1.7
ssVcom.huawei.appmarket
p993
(dp994
g10
F6.6000000000000014
ssVcom.android.vpndialogs
p995
(dp996
g10
F2.7999999999999998
ssVcom.android.email
p997
(dp998
g10
F1.8999999999999999
ssVcom.android.settings
p999
(dp1000
g10
F78.30000000000004
ssVcom.liulishuo.engzo
p1001
(dp1002
g10
F2.7000000000000002
ssVcom.huawei.hwid
p1003
(dp1004
g10
F3.4000000000000004
ssVcom.baidu.tieba
p1005
(dp1006
g10
F9.5000000000000018
ssVcom.xdf.recite
p1007
(dp1008
g10
F2.2000000000000002
ssg747
(dp1009
g10
F0.69999999999999996
ssVfq.router2
p1010
(dp1011
g10
F2
sssg95
(dp1012
Vcom.tencent.mm
p1013
(dp1014
g10
F1.8999999999999999
sssg97
(dp1015
Vcom.android.settings
p1016
(dp1017
g10
F2.1000000000000001
ssVcom.tencent.mm
p1018
(dp1019
g10
F11.5
ssg564
(dp1020
g10
F2.5999999999999996
ssVcom.taou.maimai
p1021
(dp1022
g10
F2.7999999999999998
ssg79
(dp1023
g10
F6.6000000000000005
ssg837
(dp1024
g10
F0.69999999999999996
ssVcom.tencent.mobileqq
p1025
(dp1026
g10
F1.3999999999999999
ssg51
(dp1027
g10
F1.7
sssg99
(dp1028
g818
(dp1029
g10
F0.90000000000000002
ssVcom.android.settings
p1030
(dp1031
g10
F1.6000000000000001
ssg808
(dp1032
g10
F2.2999999999999998
ssVcom.huawei.hidisk
p1033
(dp1034
g10
F6.8000000000000007
ssVcom.huawei.hwid
p1035
(dp1036
g10
I1
ssVme.ele
p1037
(dp1038
g10
F0.40000000000000002
ssVcom.huawei.android.internal.app
p1039
(dp1040
g10
F3.6000000000000001
ssVcom.android.camera
p1041
(dp1042
g10
F1.7
ssVcom.tencent.mtt
p1043
(dp1044
g10
I1
ssVcom.tencent.mobileqq
p1045
(dp1046
g10
F2.2999999999999998
ssVcom.sankuai.meituan.takeoutnew
p1047
(dp1048
g10
F0.69999999999999996
sssg101
(dp1049
g855
(dp1050
g10
F2.3999999999999999
ssg857
(dp1051
g10
F1.3
ssVcom.android.email
p1052
(dp1053
g10
F0.40000000000000002
ssg83
(dp1054
g10
I1
sssg103
(dp1055
Vcom.android.settings
p1056
(dp1057
g10
I1
ssg847
(dp1058
g10
F1.3
ssg850
(dp1059
g10
F0.69999999999999996
sssg105
(dp1060
Vcom.android.settings
p1061
(dp1062
g10
F7.3000000000000007
ssVcom.baidu.lbs.waimai
p1063
(dp1064
g10
F1.3
ssVcom.taou.maimai
p1065
(dp1066
g10
F1.8999999999999999
ssVcom.tencent.mtt
p1067
(dp1068
g10
F7.9000000000000012
ssVcom.tencent.mobileqq
p1069
(dp1070
g10
F10.200000000000001
ssVcom.hupu.games
p1071
(dp1072
g10
F2.7000000000000002
ssVcom.sankuai.meituan.takeoutnew
p1073
(dp1074
g10
F1.1000000000000001
sssg107
(dp1075
Vcom.twitter.android
p1076
(dp1077
g10
I1
ssVcom.android.vpndialogs
p1078
(dp1079
g10
F0.69999999999999996
ssVcom.taou.maimai
p1080
(dp1081
g10
F8.6000000000000014
ssVcom.android.calendar
p1082
(dp1083
g10
I1
ssVcom.android.settings
p1084
(dp1085
g10
F25.799999999999994
ssVcom.tencent.mm
p1086
(dp1087
g10
I3
ssVfq.router2
p1088
(dp1089
g10
F1.3
ssg23
(dp1090
g10
F1.6000000000000001
ssg27
(dp1091
g10
F8.6000000000000014
ssg77
(dp1092
g10
F1.7
ssVcom.android.keyguard
p1093
(dp1094
g10
I2
ssg286
(dp1095
g10
F1.7
ssVfm.jihua.kecheng
p1096
(dp1097
g10
F3.6000000000000001
ssg125
(dp1098
g10
I1
ssVcom.huawei.android.totemweather
p1099
(dp1100
g10
I1
ssg87
(dp1101
g10
I1
ssVcom.tencent.mtt
p1102
(dp1103
g10
F10.1
ssVcom.iflytek.ringdiyclient
p1104
(dp1105
g10
I1
ssVcom.tencent.mobileqq
p1106
(dp1107
g10
F36.699999999999996
ssVcom.android.contacts
p1108
(dp1109
g10
I4
sssg109
(dp1110
Vcom.android.settings
p1111
(dp1112
g10
F0.90000000000000002
ssVcom.tencent.mobileqq
p1113
(dp1114
g10
F6.1000000000000005
sssg111
(dp1115
Vcom.huawei.vassistant
p1116
(dp1117
g10
F0.90000000000000002
ssVcom.android.settings
p1118
(dp1119
g10
F1.8
ssg47
(dp1120
g10
F0.40000000000000002
ssVcom.tencent.mm
p1121
(dp1122
g10
F4.7000000000000002
ssVme.ele
p1123
(dp1124
g10
F6.4000000000000012
ssg1021
(dp1125
g10
F3.2999999999999998
ssg157
(dp1126
g10
I1
ssVcom.tencent.mtt
p1127
(dp1128
g10
F2
ssVcom.tencent.mobileqq
p1129
(dp1130
g10
F10.600000000000001
ssVcom.android.contacts
p1131
(dp1132
g10
I1
ssg51
(dp1133
g10
I2
ssg914
(dp1134
g10
F19.499999999999996
sssg113
(dp1135
sg115
(dp1136
Vcom.android.browser
p1137
(dp1138
g10
F1.3
ssVcom.android.packageinstaller
p1139
(dp1140
g10
F0.69999999999999996
ssVcom.huawei.fans
p1141
(dp1142
g10
I2
ssVcom.tencent.mobileqq
p1143
(dp1144
g10
I1
sssg117
(dp1145
Vcom.twitter.android
p1146
(dp1147
g10
F3.4000000000000004
ssVcom.facebook.orca
p1148
(dp1149
g10
I1
ssVcom.android.gallery3d
p1150
(dp1151
g10
F1.3
ssVcom.google.android.youtube
p1152
(dp1153
g10
F0.90000000000000002
ssVcom.android.settings
p1154
(dp1155
g10
F1.1000000000000001
sssg119
(dp1156
Vcom.tencent.mtt
p1157
(dp1158
g10
F1.3
ssVcom.tencent.mobileqq
p1159
(dp1160
g10
F14.199999999999999
sssg121
(dp1161
Vcom.zhihu.android
p1162
(dp1163
g10
F0.69999999999999996
ssVcom.android.vpndialogs
p1164
(dp1165
g10
F9.4000000000000021
ssg790
(dp1166
g10
F0.40000000000000002
ssVcom.android.settings
p1167
(dp1168
g10
F7.9000000000000012
ssVcom.android.packageinstaller
p1169
(dp1170
g10
F4.3999999999999995
ssVcom.tencent.mm
p1171
(dp1172
g10
F0.69999999999999996
ssg113
(dp1173
g10
I1
ssVcom.twitter.android
p1174
(dp1175
g10
F2.7000000000000002
ssg708
(dp1176
g10
F3.2999999999999998
ssVcom.android.video
p1177
(dp1178
g10
F0.40000000000000002
ssg800
(dp1179
g10
F0.69999999999999996
ssg788
(dp1180
g10
F0.40000000000000002
ssg463
(dp1181
g10
F0.69999999999999996
ssVcom.tencent.mtt
p1182
(dp1183
g10
F3.1000000000000001
ssVcom.smartapp.easyvpn
p1184
(dp1185
g10
F1.3
ssg420
(dp1186
g10
F1.3
ssVcom.tencent.mobileqq
p1187
(dp1188
g10
F0.90000000000000002
sssg123
(dp1189
g225
(dp1190
g10
F0.90000000000000002
ssVcom.android.settings
p1191
(dp1192
g10
F7.4000000000000012
ssg814
(dp1193
g10
F0.40000000000000002
ssVcom.netease.edu.study
p1194
(dp1195
g10
F0.90000000000000002
ssVcom.android.deskclock
p1196
(dp1197
g10
F0.69999999999999996
ssVcom.taou.maimai
p1198
(dp1199
g10
F0.90000000000000002
ssg680
(dp1200
g10
F0.69999999999999996
ssVcom.tencent.mobileqq
p1201
(dp1202
g10
F16.299999999999997
sssg125
(dp1203
Vcom.taou.maimai
p1204
(dp1205
g10
F0.90000000000000002
ssVcom.tencent.mobileqq
p1206
(dp1207
g10
I1
ssVandroid.zhibo8
p1208
(dp1209
g10
I1
ssVcom.android.settings
p1210
(dp1211
g10
F0.69999999999999996
sssg127
(dp1212
Vcom.android.settings
p1213
(dp1214
g10
F2
ssVcom.tencent.mtt
p1215
(dp1216
g10
I1
sssg129
(dp1217
g266
(dp1218
g10
F1.3
ssVcom.android.settings
p1219
(dp1220
g10
F2.3999999999999999
ssg23
(dp1221
g10
F2
ssg918
(dp1222
g10
I2
sssg131
(dp1223
g705
(dp1224
g10
F1.8999999999999999
sssg133
(dp1225
Vme.ele
p1226
(dp1227
g10
I1
ssVcom.tencent.mtt
p1228
(dp1229
g10
I1
ssg344
(dp1230
g10
F0.90000000000000002
sssg135
(dp1231
Vcom.android.browser
p1232
(dp1233
g10
F13.100000000000001
ssg131
(dp1234
g10
F0.90000000000000002
ssg316
(dp1235
g10
I1
ssg19
(dp1236
g10
I1
ssVcom.qiyi.video
p1237
(dp1238
g10
F15.1
ssg71
(dp1239
g10
F1.7000000000000002
ssVcom.android.deskclock
p1240
(dp1241
g10
F10.800000000000002
ssVcom.taou.maimai
p1242
(dp1243
g10
F41.499999999999986
ssg33
(dp1244
g10
F7.4000000000000004
ssVcom.android.notepad
p1245
(dp1246
g10
F1.8999999999999999
ssg962
(dp1247
g10
F7.4000000000000012
ssg518
(dp1248
g10
F15.600000000000001
ssg45
(dp1249
g10
F3.6000000000000001
ssg47
(dp1250
g10
F1.3
ssg49
(dp1251
g10
F96.700000000000031
ssg51
(dp1252
g10
F4
ssg55
(dp1253
g10
F104.50000000000013
ssg129
(dp1254
g10
F0.40000000000000002
ssg59
(dp1255
g10
F20.399999999999995
ssg65
(dp1256
g10
F12.200000000000003
ssg13
(dp1257
g10
F3.7000000000000002
ssVcom.android.gallery3d
p1258
(dp1259
g10
F2.7000000000000002
ssVcom.taobao.taobao
p1260
(dp1261
g10
I1
ssVcom.twitter.android
p1262
(dp1263
g10
F6.7999999999999998
ssg225
(dp1264
g10
F1.7
ssg79
(dp1265
g10
F6.1000000000000005
ssg11
(dp1266
g10
F0.69999999999999996
ssg553
(dp1267
g10
F0.69999999999999996
ssVcom.tencent.mtt
p1268
(dp1269
g10
F284.99999999999972
ssg61
(dp1270
g10
F2.3999999999999999
ssg93
(dp1271
g10
F145.20000000000019
ssg63
(dp1272
g10
F5.0999999999999996
ssg97
(dp1273
g10
F6.5000000000000009
ssVandroid.zhibo8
p1274
(dp1275
g10
F7.4000000000000012
ssg107
(dp1276
g10
F25.799999999999994
ssg109
(dp1277
g10
F6.4000000000000004
ssg564
(dp1278
g10
F7.9000000000000012
ssg119
(dp1279
g10
F12.899999999999999
ssg342
(dp1280
g10
F0.90000000000000002
ssg455
(dp1281
g10
F2.0999999999999996
ssg650
(dp1282
g10
F10.200000000000001
ssg57
(dp1283
g10
F11.000000000000002
ssg657
(dp1284
g10
F1.8999999999999999
ssVcom.huawei.vassistant
p1285
(dp1286
g10
F3.7000000000000002
ssVcom.immomo.momo
p1287
(dp1288
g10
F1.8999999999999999
ssg145
(dp1289
g10
F3.6999999999999997
ssg147
(dp1290
g10
F232.70000000000016
ssVcom.xdf.recite
p1291
(dp1292
g10
F9.6999999999999993
ssg151
(dp1293
g10
I1
ssVcom.liulishuo.engzo
p1294
(dp1295
g10
I1
ssg155
(dp1296
g10
F12.400000000000002
ssVcom.android.keyguard
p1297
(dp1298
g10
I2
ssg159
(dp1299
g10
F51.000000000000007
ssg163
(dp1300
g10
F33.099999999999994
ssg165
(dp1301
g10
F2.2000000000000002
ssVcom.android.camera
p1302
(dp1303
g10
F8.6000000000000014
ssVfq.router2
p1304
(dp1305
g10
F4.7000000000000002
sssg137
(dp1306
Vcom.twitter.android
p1307
(dp1308
g10
F0.40000000000000002
ssg117
(dp1309
g10
I1
ssg1152
(dp1310
g10
F1.7
ssg1154
(dp1311
g10
F2
sssg139
(dp1312
g103
(dp1313
g10
F2
ssVcom.android.hwmirror
p1314
(dp1315
g10
F3
ssVcom.tencent.mm
p1316
(dp1317
g10
F0.69999999999999996
ssVcom.huawei.hidisk
p1318
(dp1319
g10
I1
ssVcom.baidu.tieba
p1320
(dp1321
g10
F0.90000000000000002
ssVcom.android.settings
p1322
(dp1323
g10
F1.5
ssVcom.tencent.mtt
p1324
(dp1325
g10
F3.7999999999999998
ssg847
(dp1326
g10
F0.40000000000000002
ssVcom.tencent.mobileqq
p1327
(dp1328
g10
F5
ssg161
(dp1329
g10
F1.8999999999999999
sssg141
(dp1330
Vcom.android.settings
p1331
(dp1332
g10
I1
ssVcom.tencent.mobileqq
p1333
(dp1334
g10
I1
ssVcom.netease.cloudmusic
p1335
(dp1336
g10
F0.90000000000000002
sssg143
(dp1337
g21
(dp1338
g10
F0.69999999999999996
ssg137
(dp1339
g10
F1.7
ssVcom.taobao.taobao
p1340
(dp1341
g10
I1
ssVcom.hupu.games
p1342
(dp1343
g10
I1
ssg337
(dp1344
g10
F7.5
ssVcom.sina.weibo
p1345
(dp1346
g10
I1
ssg11
(dp1347
g10
F0.90000000000000002
ssg539
(dp1348
g10
F5.3000000000000007
ssg365
(dp1349
g10
F20.299999999999997
ssg418
(dp1350
g10
F1.6000000000000001
ssg977
(dp1351
g10
F3.5
ssg1152
(dp1352
g10
F0.40000000000000002
ssVcom.tencent.mtt
p1353
(dp1354
g10
F5.2999999999999998
ssg435
(dp1355
g10
F3.3999999999999999
ssg117
(dp1356
g10
F3.5999999999999996
ssg941
(dp1357
g10
I6
ssVcom.android.email
p1358
(dp1359
g10
F3.6000000000000001
ssVcom.tencent.mobileqq
p1360
(dp1361
g10
F4.2999999999999998
ssg424
(dp1362
g10
F1.3999999999999999
ssg398
(dp1363
g10
F13.4
ssVcom.huawei.hwid
p1364
(dp1365
g10
F3.3999999999999999
ssg428
(dp1366
g10
F2.1000000000000001
ssVcom.huawei.appmarket
p1367
(dp1368
g10
F6.7000000000000002
ssg747
(dp1369
g10
F0.40000000000000002
ssg169
(dp1370
g10
F0.90000000000000002
ssg420
(dp1371
g10
F2.3999999999999999
sssg145
(dp1372
Vcom.android.deskclock
p1373
(dp1374
g10
I1
sssg147
(dp1375
g1232
(dp1376
g10
F12.299999999999999
ssg131
(dp1377
g10
F0.40000000000000002
ssg21
(dp1378
g10
F0.90000000000000002
ssVcom.qiyi.video
p1379
(dp1380
g10
F4
ssg71
(dp1381
g10
F2.7000000000000002
ssg266
(dp1382
g10
F15.200000000000001
ssVcom.taou.maimai
p1383
(dp1384
g10
F9.1000000000000014
ssg957
(dp1385
g10
I2
ssg847
(dp1386
g10
F7.7000000000000002
ssg518
(dp1387
g10
F6
ssVfm.jihua.kecheng
p1388
(dp1389
g10
F7.2999999999999998
ssVcom.sina.weibo
p1390
(dp1391
g10
F3.1999999999999997
ssVcom.android.contacts
p1392
(dp1393
g10
F6.0999999999999996
ssg660
(dp1394
g10
F9.6000000000000014
ssg129
(dp1395
g10
F3.3999999999999999
ssg59
(dp1396
g10
F5
ssg65
(dp1397
g10
F1.3999999999999999
ssg977
(dp1398
g10
I1
ssVcom.android.video
p1399
(dp1400
g10
F0.69999999999999996
ssVcom.taobao.taobao
p1401
(dp1402
g10
I1
ssg251
(dp1403
g10
F7.1000000000000014
ssVcom.huawei.hidisk
p1404
(dp1405
g10
F3.1999999999999997
ssVme.ele
p1406
(dp1407
g10
F0.40000000000000002
ssg1102
(dp1408
g10
F70.500000000000014
ssg908
(dp1409
g10
F2
ssVcom.tencent.mm
p1410
(dp1411
g10
F29.299999999999986
ssVcom.sankuai.meituan.takeoutnew
p1412
(dp1413
g10
F3.3999999999999999
ssg105
(dp1414
g10
F4.7999999999999998
ssVcom.netease.cloudmusic
p1415
(dp1416
g10
F7.8999999999999995
ssg109
(dp1417
g10
I1
ssVcom.baidu.lbs.waimai
p1418
(dp1419
g10
F5.4000000000000004
ssg117
(dp1420
g10
F1.1000000000000001
ssVcom.instagram.android
p1421
(dp1422
g10
F2.8999999999999999
ssg23
(dp1423
g10
F3.1999999999999997
ssVcom.android.vpndialogs
p1424
(dp1425
g10
F14.300000000000002
ssg234
(dp1426
g10
F6.7000000000000002
ssg657
(dp1427
g10
F1.3
ssg324
(dp1428
g10
F78.300000000000054
ssg173
(dp1429
g10
F0.40000000000000002
ssVcom.immomo.momo
p1430
(dp1431
g10
F0.69999999999999996
ssg137
(dp1432
g10
F1.3
ssg145
(dp1433
g10
F1.3999999999999999
ssg25
(dp1434
g10
I1
ssVcom.xdf.recite
p1435
(dp1436
g10
F4
ssg796
(dp1437
g10
F2.2999999999999998
ssg155
(dp1438
g10
F7.5000000000000009
ssg493
(dp1439
g10
F4.5
ssg163
(dp1440
g10
F14.200000000000001
ssg499
(dp1441
g10
F0.90000000000000002
ssg747
(dp1442
g10
F2.7999999999999998
ssg169
(dp1443
g10
I2
ssg1010
(dp1444
g10
F1.7
sssg149
(dp1445
Vcom.android.settings
p1446
(dp1447
g10
F9.6000000000000014
ssg1013
(dp1448
g10
F5.5
ssg153
(dp1449
g10
F2.6000000000000001
ssVcom.android.deskclock
p1450
(dp1451
g10
F1.3
ssg15
(dp1452
g10
I1
ssVcom.tencent.mobileqq
p1453
(dp1454
g10
F12.399999999999999
ssg95
(dp1455
g10
F1.3999999999999999
sssg151
(dp1456
g33
(dp1457
g10
F0.40000000000000002
ssVcom.tencent.mobileqq
p1458
(dp1459
g10
F1.7
ssVcom.huawei.appmarket
p1460
(dp1461
g10
F0.90000000000000002
sssg153
(dp1462
g1453
(dp1463
g10
F1.3
ssVcom.tencent.mm
p1464
(dp1465
g10
F2.7000000000000002
ssg1007
(dp1466
g10
F1.7
sssg155
(dp1467
g123
(dp1468
g10
F1.3
ssVcom.taou.maimai
p1469
(dp1470
g10
F0.90000000000000002
ssVcom.android.mediacenter
p1471
(dp1472
g10
I1
ssVcom.smartapp.easyvpn
p1473
(dp1474
g10
F0.40000000000000002
ssg1390
(dp1475
g10
F0.90000000000000002
ssg173
(dp1476
g10
F0.90000000000000002
ssVcom.android.packageinstaller
p1477
(dp1478
g10
F2.2999999999999998
ssVcom.twitter.android
p1479
(dp1480
g10
F0.90000000000000002
ssVcom.android.video
p1481
(dp1482
g10
I1
ssVcom.tencent.mtt
p1483
(dp1484
g10
F11.300000000000001
ssVcom.huawei.fans
p1485
(dp1486
g10
I1
ssg355
(dp1487
g10
F4.4000000000000004
ssg105
(dp1488
g10
F0.90000000000000002
ssVcom.huawei.appmarket
p1489
(dp1490
g10
F22.699999999999999
ssg1424
(dp1491
g10
F3.2999999999999998
ssVcom.tencent.mobileqq
p1492
(dp1493
g10
F7.0000000000000009
ssVcom.huawei.vassistant
p1494
(dp1495
g10
F1.1000000000000001
ssg141
(dp1496
g10
F0.90000000000000002
ssVcom.android.settings
p1497
(dp1498
g10
F6.6000000000000014
ssg25
(dp1499
g10
F0.40000000000000002
ssg1041
(dp1500
g10
F0.90000000000000002
ssVfq.router2
p1501
(dp1502
g10
F1.7
sssg157
(dp1503
Vcom.android.browser
p1504
(dp1505
g10
I1
ssVcom.netease.cloudmusic
p1506
(dp1507
g10
I1
ssVcom.android.settings
p1508
(dp1509
g10
F3.9999999999999996
ssVcom.taou.maimai
p1510
(dp1511
g10
F0.90000000000000002
ssVcom.baidu.tieba
p1512
(dp1513
g10
F0.90000000000000002
ssVcom.tencent.mtt
p1514
(dp1515
g10
F3.7999999999999998
ssVfm.jihua.kecheng
p1516
(dp1517
g10
I1
ssVcom.tencent.mm
p1518
(dp1519
g10
F1.8999999999999999
ssVcom.android.contacts
p1520
(dp1521
g10
I1
ssVcom.tencent.mobileqq
p1522
(dp1523
g10
F2.8999999999999999
sssg159
(dp1524
g475
(dp1525
g10
F0.90000000000000002
ssg55
(dp1526
g10
F1.7
ssVcom.android.email
p1527
(dp1528
g10
F0.90000000000000002
ssVcom.android.contacts
p1529
(dp1530
g10
F0.90000000000000002
ssg1430
(dp1531
g10
F0.40000000000000002
ssg790
(dp1532
g10
I1
ssVcom.android.browser
p1533
(dp1534
g10
F0.90000000000000002
ssVcom.tencent.mobileqq
p1535
(dp1536
g10
F49.100000000000009
ssg497
(dp1537
g10
F1.7
ssg1010
(dp1538
g10
F0.40000000000000002
ssg1399
(dp1539
g10
F0.40000000000000002
ssVcom.huawei.hwid
p1540
(dp1541
g10
F0.90000000000000002
ssVcom.netease.newsreader.activity
p1542
(dp1543
g10
F1.7000000000000002
ssg999
(dp1544
g10
F19.899999999999999
ssg499
(dp1545
g10
F0.69999999999999996
ssVcom.tencent.mtt
p1546
(dp1547
g10
F6.2999999999999998
ssVcom.android.vpndialogs
p1548
(dp1549
g10
F2.2999999999999998
ssg93
(dp1550
g10
F3
ssVcom.hupu.games
p1551
(dp1552
g10
F2.4000000000000004
sssg161
(dp1553
g479
(dp1554
g10
I1
ssVcom.tencent.mtt
p1555
(dp1556
g10
F0.40000000000000002
ssVcom.huawei.vassistant
p1557
(dp1558
g10
F5
ssVcom.android.settings
p1559
(dp1560
g10
F1.7
sssg163
(dp1561
g410
(dp1562
g10
F2.2999999999999998
ssg33
(dp1563
g10
F1.3
ssg123
(dp1564
g10
F2.3999999999999999
ssg1469
(dp1565
g10
F2.7000000000000002
ssg39
(dp1566
g10
F2.0999999999999996
ssg1390
(dp1567
g10
F0.69999999999999996
ssg83
(dp1568
g10
F0.90000000000000002
ssg234
(dp1569
g10
F2.6000000000000001
ssg173
(dp1570
g10
F1.7
ssg1477
(dp1571
g10
F6.2000000000000011
ssg35
(dp1572
g10
F1.7
ssg143
(dp1573
g10
F3
ssg198
(dp1574
g10
F0.90000000000000002
ssg1483
(dp1575
g10
F28.599999999999991
ssg355
(dp1576
g10
F9.2000000000000028
ssg105
(dp1577
g10
F1.7
ssVcom.netease.cloudmusic
p1578
(dp1579
g10
I1
ssVcom.xdf.recite
p1580
(dp1581
g10
I1
ssg121
(dp1582
g10
F0.40000000000000002
ssVcom.android.thememanager
p1583
(dp1584
g10
F0.40000000000000002
ssg1424
(dp1585
g10
F4.0999999999999996
ssVcom.tencent.mobileqq
p1586
(dp1587
g10
F22.999999999999996
ssg101
(dp1588
g10
F1.7
ssg141
(dp1589
g10
F1.7
ssVcom.android.settings
p1590
(dp1591
g10
F15.699999999999999
ssg155
(dp1592
g10
F34.299999999999997
ssVcom.baidu.tieba
p1593
(dp1594
g10
F0.90000000000000002
ssg25
(dp1595
g10
F0.69999999999999996
ssg169
(dp1596
g10
F0.40000000000000002
ssg1501
(dp1597
g10
F2
sssg165
(dp1598
Vcom.zhihu.android
p1599
(dp1600
g10
F2.2000000000000002
ssVcom.huawei.hidisk
p1601
(dp1602
g10
F4.5
ssVcom.android.settings
p1603
(dp1604
g10
F0.40000000000000002
ssg808
(dp1605
g10
F1.6000000000000001
ssg818
(dp1606
g10
F0.69999999999999996
ssg820
(dp1607
g10
F9.6000000000000014
ssg1043
(dp1608
g10
F0.90000000000000002
ssVcom.tencent.mobileqq
p1609
(dp1610
g10
F4.6999999999999993
ssg1047
(dp1611
g10
F0.40000000000000002
sssg167
(dp1612
Vcom.huawei.vassistant
p1613
(dp1614
g10
I1
ssg479
(dp1615
g10
F0.69999999999999996
ssVcom.tencent.mobileqq
p1616
(dp1617
g10
F8.9000000000000004
ssg1258
(dp1618
g10
F1.8999999999999999
ssg744
(dp1619
g10
F1.7
ssg740
(dp1620
g10
F1.3
ssVcom.android.settings
p1621
(dp1622
g10
F3.5
ssg507
(dp1623
g10
F1.3
ssVfm.jihua.kecheng
p1624
(dp1625
g10
I1
ssVcom.tencent.mm
p1626
(dp1627
g10
F0.90000000000000002
ssVcom.android.contacts
p1628
(dp1629
g10
I2
sssg169
(dp1630
g251
(dp1631
g10
F0.69999999999999996
ssg253
(dp1632
g10
F2.5999999999999996
ssg1052
(dp1633
g10
F0.90000000000000002
ssg21
(dp1634
g10
I1
ssg137
(dp1635
g10
F0.40000000000000002
sssg171
(dp1636
Vcom.android.email
p1637
(dp1638
g10
F3.3999999999999999
ssVcom.instagram.android
p1639
(dp1640
g10
F7.1000000000000023
ssVcom.taou.maimai
p1641
(dp1642
g10
F3
ssVcom.android.settings
p1643
(dp1644
g10
F0.40000000000000002
ssVcom.android.packageinstaller
p1645
(dp1646
g10
F4.2999999999999998
ssg113
(dp1647
g10
F1.3
ssg945
(dp1648
g10
F11.499999999999998
ssVcom.huawei.hwid
p1649
(dp1650
g10
F0.69999999999999996
ssVcom.huawei.appmarket
p1651
(dp1652
g10
F1.7000000000000002
ssg1184
(dp1653
g10
F0.40000000000000002
ssg1342
(dp1654
g10
F0.69999999999999996
ssVcom.android.vpndialogs
p1655
(dp1656
g10
F12.399999999999999
ssVcom.tencent.mobileqq
p1657
(dp1658
g10
F5.7000000000000011
ssVcom.tencent.mtt
p1659
(dp1660
g10
F2
ssg11
(dp1661
g10
F0.40000000000000002
sssg173
(dp1662
Vcom.android.settings
p1663
(dp1664
g10
I1
ssg25
(dp1665
g10
F0.90000000000000002
ssssS'edge'
p1666
g179
sS'graph'
p1667
(dp1668
sS'adjlist_dict_factory'
p1669
g176
sS'adj'
p1670
g179
sS'pred'
p1671
(dp1672
g8
(dp1673
Vcom.huawei.fans
p1674
g940
sg17
g242
sVcom.android.settings
p1675
g1376
sg194
g694
sVcom.biganiseed.reindeer
p1676
g1138
sg485
g756
sVcom.android.deskclock
p1677
g292
sg708
g807
sVcom.android.keyguard
p1678
g1505
sVcom.baidu.tieba
p1679
g1534
sVcom.android.vpndialogs
p1680
g773
sg430
g1562
sg63
g687
sVcom.tencent.mtt
p1681
g872
sg776
g411
sVcom.tencent.mm
p1682
g956
sVcom.android.contacts
p1683
g528
sVcom.tencent.mobileqq
p1684
g1233
ssg11
(dp1685
Vcom.twitter.android
p1686
g1347
sg1657
g1266
sg1342
g473
sg1304
g1661
ssg13
(dp1687
g225
g815
sVcom.tencent.mobileqq
p1688
g1257
sg229
g1193
ssg15
(dp1689
Vcom.tencent.mtt
p1690
g884
sg935
g1452
ssg17
(dp1691
Vcom.android.browser
p1692
g181
ssg19
(dp1693
Vcom.tencent.mobileqq
p1694
g1236
ssg21
(dp1695
g143
g1338
sg398
g1378
sg169
g1634
sg35
g401
ssg23
(dp1696
g918
g1090
sg1219
g1423
sg266
g310
sVcom.huawei.appmarket
p1697
g1584
sVcom.hupu.games
p1698
g456
sg129
g1221
sVcom.tencent.mobileqq
p1699
g1281
sVcom.tencent.mtt
p1700
g923
ssg25
(dp1701
g173
g1665
sVcom.netease.cloudmusic
p1702
g1100
sg1663
g1434
sVcom.android.deskclock
p1703
g319
sVcom.huawei.hwid
p1704
g1499
sVcom.huawei.appmarket
p1705
g1595
ssg27
(dp1706
Vcom.android.browser
p1707
g183
sg957
g387
sVcom.netease.cloudmusic
p1708
g1091
sVcom.zhihu.android
p1709
g615
sg145
g1374
sg262
g1382
sVcom.android.packageinstaller
p1710
g698
sVcom.tencent.mm
p1711
g960
sg23
g267
sVcom.qiyi.video
p1712
g1197
sVcom.xdf.recite
p1713
g1451
sVcom.tencent.mtt
p1714
g877
sg274
g1218
sVcom.tencent.mobileqq
p1715
g1241
sVcom.android.contacts
p1716
g530
sg534
g458
ssg29
(dp1717
Vcom.android.browser
p1718
g185
sVcom.record.myLife
p1719
g395
sVcom.android.thememanager
p1720
g261
sg697
g298
sg885
g1606
sg41
g441
sVcom.hupu.games
p1721
g460
sVcom.smartapp.easyvpn
p1722
g425
sVcom.android.contacts
p1723
g532
sVcom.zhihu.android
p1724
g617
sg45
g492
sVcom.hipu.yidian
p1725
g667
sg1710
g699
sVcom.sankuai.meituan
p1726
g732
sg903
g1029
sVcom.taobao.taobao
p1727
g763
sg422
g1362
sVcom.huawei.hidisk
p1728
g819
sg980
g831
sVcom.tencent.mtt
p1729
g878
sVcom.tencent.mobileqq
p1730
g1243
sVcom.sankuai.meituan.takeoutnew
p1731
g1022
sVandroid.zhibo8
p1732
g1066
sVcom.netease.cloudmusic
p1733
g1081
sVcom.baidu.lbs.waimai
p1734
g1125
sVcom.android.settings
p1735
g1384
sVcom.qiyi.video
p1736
g1199
sg316
g1205
sVcom.android.vpndialogs
p1737
g775
sVcom.tencent.mm
p1738
g961
sVcom.huawei.hwid
p1739
g1470
sVcom.android.keyguard
p1740
g1511
sVcom.huawei.appmarket
p1741
g1565
sg1088
g1642
ssg31
(dp1742
Vcom.taou.maimai
p1743
g332
sVcom.tencent.mtt
p1744
g879
ssg33
(dp1745
g151
g1457
sVcom.android.settings
p1746
g1385
sg390
g696
sVcom.android.deskclock
p1747
g315
sg1460
g1563
sVcom.tencent.mm
p1748
g958
sg1458
g1244
ssg35
(dp1749
g251
g1352
sg410
g196
sg137
g1310
sg117
g1153
sVcom.huawei.appmarket
p1750
g1572
ssg37
(dp1751
Vcom.tencent.mobileqq
p1752
g1246
sVcom.android.contacts
p1753
g533
ssg39
(dp1754
g103
g1058
sVcom.android.email
p1755
g633
sVcom.huawei.vassistant
p1756
g1326
sg1540
g1474
sg1056
g1386
sg1477
g702
sVcom.tencent.mm
p1757
g963
sg221
g1653
sg422
g1344
sg424
g338
sg941
g1185
sVfm.jihua.kecheng
p1758
g478
sVcom.huawei.appmarket
p1759
g1566
sg951
g888
sg75
g777
sg1314
g848
sVcom.tencent.mobileqq
p1760
g1247
ssg41
(dp1761
sg43
(dp1762
Vandroid.zhibo8
p1763
g1072
sVcom.tencent.mm
p1764
g964
sg1390
g519
sg1194
g681
sg1304
g1654
sg329
g1200
sg1686
g1343
sVcom.taou.maimai
p1765
g336
sVcom.baidu.tieba
p1766
g1552
sg516
g1387
sVcom.tencent.mtt
p1767
g913
sVcom.tencent.mobileqq
p1768
g1248
sg1529
g535
ssg45
(dp1769
Vcom.netease.cloudmusic
p1770
g1097
sg1738
g965
sVcom.sina.weibo
p1771
g521
sVcom.android.keyguard
p1772
g1517
sg1727
g767
sVcom.android.deskclock
p1773
g323
sVcom.taou.maimai
p1774
g334
sVme.ele
p1775
g834
sVcom.android.settings
p1776
g1389
sVcom.android.camera
p1777
g1625
sVcom.tencent.mtt
p1778
g883
sg835
g1249
sVcom.android.contacts
p1779
g537
ssg47
(dp1780
Vcom.android.browser
p1781
g191
sVcom.taou.maimai
p1782
g339
sVcom.android.settings
p1783
g1391
sVcom.tencent.mm
p1784
g967
sVcom.baidu.lbs.waimai
p1785
g1120
sVcom.twitter.android
p1786
g1346
sVcom.huawei.hwid
p1787
g1475
sVcom.huawei.appmarket
p1788
g1567
sVcom.tencent.mtt
p1789
g889
sVcom.tencent.mobileqq
p1790
g1250
sVcom.android.contacts
p1791
g538
ssg49
(dp1792
Vcom.android.browser
p1793
g193
sVfm.jihua.kecheng
p1794
g488
sVcom.hipu.yidian
p1795
g674
sVcom.netease.cloudmusic
p1796
g1109
sVcom.tencent.mobileqq
p1797
g1251
sVcom.android.packageinstaller
p1798
g704
sVcom.baidu.lbs.waimai
p1799
g1132
sg529
g327
sVcom.android.keyguard
p1800
g1521
sVcom.baidu.tieba
p1801
g1530
sg85
g861
sVcom.android.camera
p1802
g1629
sg43
g472
sVcom.android.email
p1803
g655
sVcom.tencent.mm
p1804
g969
sVcom.tencent.mtt
p1805
g891
sVcom.eg.android.AlipayGphone
p1806
g602
sVcom.android.settings
p1807
g1393
ssg51
(dp1808
Vcom.tencent.mm
p1809
g970
sg564
g1133
sg73
g771
sg79
g839
sVcom.tencent.mtt
p1810
g906
sVcom.tencent.mobileqq
p1811
g1252
sg97
g1027
ssg53
(dp1812
sg55
(dp1813
g611
g706
sVcom.android.vpndialogs
p1814
g778
sVcom.hipu.yidian
p1815
g661
sVcom.tencent.mobileqq
p1816
g1253
sg47
g513
sg131
g1224
sg549
g1348
sVcom.taou.maimai
p1817
g341
sVcom.instagram.android
p1818
g1163
sVcom.baidu.tieba
p1819
g1526
sVcom.android.settings
p1820
g1394
sg165
g1600
sg1789
g893
sVcom.smartapp.easyvpn
p1821
g415
sg522
g972
sVcom.android.contacts
p1822
g540
ssg57
(dp1823
g853
g1053
sg850
g793
sg232
g1426
sg640
g1638
sVcom.taobao.taobao
p1824
g758
sVcom.android.contacts
p1825
g542
sVcom.twitter.android
p1826
g1359
sVcom.taou.maimai
p1827
g372
sVfm.jihua.kecheng
p1828
g504
sVcom.shanbay.listen
p1829
g235
sg238
g1569
sg553
g866
sVcom.baidu.tieba
p1830
g1528
sVcom.tencent.mtt
p1831
g927
sg847
g413
sVcom.tencent.mm
p1832
g998
sg857
g1633
sVcom.tencent.mobileqq
p1833
g1283
ssg59
(dp1834
Vcom.android.settings
p1835
g1396
sg367
g1230
sVcom.tencent.mobileqq
p1836
g1255
sg1228
g895
sVcom.taou.maimai
p1837
g345
ssg61
(dp1838
g459
g348
sg1721
g454
sVcom.tencent.mobileqq
p1839
g1270
sg465
g897
sg329
g1195
ssg63
(dp1840
Vcom.tencent.mm
p1841
g974
sVcom.tencent.mobileqq
p1842
g1272
sg686
g189
ssg65
(dp1843
g708
g813
sVcom.twitter.android
p1844
g1350
sVcom.android.vpndialogs
p1845
g780
sVcom.android.contacts
p1846
g544
sg939
g195
sg33
g391
sg301
g1397
sVcom.tencent.mm
p1847
g976
sg1676
g1140
sg171
g1646
sg1099
g285
sVcom.android.deskclock
p1848
g303
sVcom.huawei.hwid
p1849
g1478
sg1421
g1170
sg949
g1571
sVcom.taou.maimai
p1850
g347
sVcom.zhihu.android
p1851
g612
sg320
g896
sVcom.smartapp.easyvpn
p1852
g419
sg324
g1256
sg1674
g943
ssg67
(dp1853
sg69
(dp1854
Vcom.twitter.android
p1855
g1351
sg740
g1151
sg318
g283
sg435
g978
sg1703
g306
sg279
g817
sg539
g613
sVcom.android.settings
p1856
g1398
sVcom.android.camera
p1857
g1618
sg566
g781
sVcom.tencent.mobileqq
p1858
g1259
sg1822
g546
ssg71
(dp1859
Vcom.taou.maimai
p1860
g331
sVcom.tencent.mobileqq
p1861
g1239
sVcom.android.settings
p1862
g1381
ssg73
(dp1863
g760
g1402
sVcom.twitter.android
p1864
g1341
sVcom.taou.maimai
p1865
g350
sVfm.jihua.kecheng
p1866
g486
sVcom.tencent.mobileqq
p1867
g1261
sVcom.android.contacts
p1868
g548
ssg75
(dp1869
g939
g214
sVcom.android.deskclock
p1870
g294
sg424
g366
sg39
g434
sVcom.hupu.games
p1871
g468
sg1758
g496
sg1822
g567
sg539
g625
sg1421
g1165
sg1477
g718
sg351
g1349
sg1314
g851
sg553
g868
sg951
g894
sg1674
g953
sg1757
g996
sg103
g1059
sVcom.netease.cloudmusic
p1872
g1079
sg1358
g651
sg1360
g1282
sVcom.android.settings
p1873
g1425
sg1003
g1491
sg428
g1549
sVcom.huawei.appmarket
p1874
g1585
sg171
g1656
ssg77
(dp1875
Vcom.instagram.android
p1876
g1176
sVcom.huawei.vassistant
p1877
g1319
sVcom.netease.cloudmusic
p1878
g1092
sg318
g280
sVcom.android.packageinstaller
p1879
g709
sg13
g226
sg69
g746
sg229
g1190
sg1703
g313
sVcom.android.video
p1880
g1034
sVcom.baidu.tieba
p1881
g1525
sVcom.android.settings
p1882
g1405
sg885
g1602
sg824
g902
sg882
g476
sg227
g1264
sVcom.hupu.games
p1883
g450
ssg79
(dp1884
g1726
g734
sVcom.tencent.mobileqq
p1885
g1265
sVcom.baidu.lbs.waimai
p1886
g1124
sVcom.tencent.mtt
p1887
g899
sVcom.android.video
p1888
g1038
sVcom.android.settings
p1889
g1407
sg133
g1227
sg1738
g981
sVcom.android.contacts
p1890
g551
sVcom.eg.android.AlipayGphone
p1891
g594
sg97
g1023
ssg81
(dp1892
Vcom.huawei.vassistant
p1893
g1315
ssg83
(dp1894
g101
g1054
sVcom.tencent.mtt
p1895
g892
sg412
g656
sg646
g1568
ssg85
(dp1896
Vcom.android.contacts
p1897
g552
ssg87
(dp1898
Vcom.android.browser
p1899
g199
sVcom.netease.cloudmusic
p1900
g1101
sVcom.tencent.mm
p1901
g982
sVcom.huawei.appmarket
p1902
g1574
sVcom.tencent.mtt
p1903
g907
sVcom.tencent.mobileqq
p1904
g1267
sVcom.android.contacts
p1905
g554
ssg89
(dp1906
g871
g201
sg127
g1216
sg1099
g282
sg1848
g321
sVcom.taou.maimai
p1907
g354
sg822
g1608
sg1471
g1556
sg1388
g502
sVcom.sina.weibo
p1908
g525
sg654
g556
sg971
g624
sg39
g433
sVcom.hipu.yidian
p1909
g670
sg65
g720
sg69
g750
sg733
g838
sg547
g765
sg422
g1354
sg77
g825
sg820
g1044
sg81
g846
sg367
g1229
sg1485
g952
sVcom.tencent.mm
p1910
g984
sg1721
g466
sg737
g1024
sg1274
g1068
sg107
g1103
sg1799
g1128
sg119
g1158
sg1421
g1183
sg1583
g273
sg75
g784
sg1803
g649
sVcom.tencent.mobileqq
p1911
g1269
sg139
g1325
sg1084
g1408
sg155
g1484
sVcom.android.keyguard
p1912
g1515
sVcom.baidu.tieba
p1913
g1547
sg163
g1575
sVfq.router2
p1914
g1660
ssg91
(dp1915
g939
g203
sVcom.android.settings
p1916
g1409
sg194
g712
sg947
g1486
sg115
g1142
sVcom.tencent.mtt
p1917
g909
sg213
g785
ssg93
(dp1918
Vcom.android.browser
p1919
g205
sg1245
g404
sg1720
g265
sVcom.android.deskclock
p1920
g300
sg1469
g356
sg15
g237
sVcom.microsoft.office.officehub
p1921
g689
sg1871
g470
sVcom.smartapp.easyvpn
p1922
g436
sg47
g523
sVcom.android.contacts
p1923
g558
sg1891
g600
sg512
g626
sVfm.jihua.kecheng
p1924
g506
sVcom.hipu.yidian
p1925
g672
sg782
g1355
sVme.ele
p1926
g829
sVcom.tencent.mtt
p1927
g874
sVcom.tencent.mobileqq
p1928
g1271
sg95
g1014
sg206
g1019
sVcom.netease.cloudmusic
p1929
g1087
sVcom.baidu.lbs.waimai
p1930
g1122
sVcom.instagram.android
p1931
g1172
sVcom.android.vpndialogs
p1932
g787
sg757
g639
sVcom.huawei.vassistant
p1933
g1317
sg1118
g1411
sg149
g1448
sg153
g1465
sg1739
g1487
sVcom.android.keyguard
p1934
g1519
sg159
g1550
sg1741
g1576
sVcom.android.camera
p1935
g1627
ssg95
(dp1936
g1013
g988
sg149
g1455
ssg97
(dp1937
Vcom.android.browser
p1938
g207
sg1931
g1180
sVandroid.zhibo8
p1939
g1074
sg1889
g1413
sg1171
g989
sg920
g1134
sg1037
g841
sg1888
g1048
sVcom.huawei.android.internal.app
p1940
g1611
sg1726
g738
sVcom.tencent.mtt
p1941
g915
sVcom.android.vpndialogs
p1942
g789
sVcom.tencent.mobileqq
p1943
g1273
sg1890
g559
sVcom.eg.android.AlipayGphone
p1944
g604
ssg99
(dp1945
g447
g1178
sVcom.huawei.hidisk
p1946
g821
sVcom.android.settings
p1947
g1400
sg1035
g1482
sg1881
g1539
sg822
g1607
sVcom.tencent.mtt
p1948
g904
ssg101
(dp1949
g1831
g926
sg412
g631
sg83
g854
sg646
g1588
ssg103
(dp1950
g1314
g849
sVcom.huawei.vassistant
p1951
g1313
ssg105
(dp1952
Vcom.taou.maimai
p1953
g358
sVcom.android.settings
p1954
g1414
sg346
g715
sVcom.tencent.mm
p1955
g991
sg547
g759
sVcom.huawei.hwid
p1956
g1488
sVcom.huawei.lcagent
p1957
g1209
sVcom.huawei.appmarket
p1958
g1577
sg1067
g917
sVcom.tencent.mobileqq
p1959
g1275
sg1868
g561
ssg107
(dp1960
g1707
g209
sg342
g1166
sg1430
g1336
sg1795
g663
sg1084
g1416
sg23
g259
sVcom.android.deskclock
p1961
g296
sVcom.taou.maimai
p1962
g360
sVcom.android.keyguard
p1963
g1507
sg800
g1532
sVcom.android.vpndialogs
p1964
g791
sVcom.huawei.appmarket
p1965
g1579
sVcom.tencent.mtt
p1966
g919
sg129
g1222
sg873
g992
sVcom.android.contacts
p1967
g563
sVcom.tencent.mobileqq
p1968
g1276
ssg109
(dp1969
Vcom.android.settings
p1970
g1417
sVcom.tencent.mobileqq
p1971
g1277
ssg111
(dp1972
g1938
g211
sVandroid.zhibo8
p1973
g1064
sVcom.huawei.hidisk
p1974
g809
sg1889
g1419
sVcom.android.packageinstaller
p1975
g717
sg67
g736
sVcom.android.video
p1976
g1032
sg1907
g362
sg79
g830
sg1940
g1605
sg1941
g921
sg1811
g1278
sg1890
g565
sVcom.eg.android.AlipayGphone
p1977
g592
sg97
g1020
ssg113
(dp1978
Vcom.instagram.android
p1979
g1173
sVcom.android.vpndialogs
p1980
g792
sg420
g1647
ssg115
(dp1981
g693
g220
sVcom.android.packageinstaller
p1982
g728
sVcom.huawei.fans
p1983
g944
ssg117
(dp1984
g253
g1420
sg977
g741
sg21
g255
sg251
g1356
sg137
g1309
sg747
g1620
ssg119
(dp1985
Vcom.baidu.tieba
p1986
g1543
sVcom.tencent.mobileqq
p1987
g1279
sVcom.taou.maimai
p1988
g364
ssg121
(dp1989
g1637
g645
sVcom.android.vpndialogs
p1990
g779
sg1213
g1422
sVcom.android.packageinstaller
p1991
g707
sg1194
g682
sg945
g1357
sg1641
g343
sVcom.huawei.appmarket
p1992
g1582
sVcom.tencent.mtt
p1993
g922
sVcom.smartapp.easyvpn
p1994
g427
sg803
g1640
sVcom.huawei.fans
p1995
g942
sg680
g448
sVcom.tencent.mobileqq
p1996
g1280
ssg123
(dp1997
g1198
g330
sg1191
g1380
sg13
g230
sVcom.huawei.hwid
p1998
g1468
sVcom.huawei.appmarket
p1999
g1564
sVcom.tencent.mtt
p2000
g875
sg1201
g1238
ssg125
(dp2001
Vcom.android.deskclock
p2002
g317
sVcom.android.browser
p2003
g212
sVcom.tencent.mobileqq
p2004
g1235
sVcom.netease.cloudmusic
p2005
g1098
ssg127
(dp2006
Vcom.android.packageinstaller
p2007
g721
sVcom.tencent.mtt
p2008
g925
ssg129
(dp2009
g918
g1105
sVcom.tencent.mobileqq
p2010
g1254
sg23
g275
sVcom.android.settings
p2011
g1395
sg1966
g924
sg873
g973
ssg131
(dp2012
Vcom.android.settings
p2013
g1377
sg611
g710
sVcom.tencent.mobileqq
p2014
g1234
sg1851
g627
ssg133
(dp2015
g232
g1427
sVme.ele
p2016
g833
sg234
g658
sVcom.tencent.mobileqq
p2017
g1284
sg1837
g368
ssg135
(dp2018
g8
g215
sg33
g393
sg17
g246
sg123
g1202
sg1848
g325
sg1743
g370
sg31
g383
sVfm.jihua.kecheng
p2019
g510
sg1245
g406
sg188
g691
sg41
g443
sg1871
g452
sVcom.smartapp.easyvpn
p2020
g438
sg47
g515
sg49
g569
sg1806
g590
sg55
g629
sVcom.android.vpndialogs
p2021
g795
sVcom.hipu.yidian
p2022
g676
sg390
g713
sg13
g228
sVcom.netease.edu.study
p2023
g684
sg1399
g1046
sg547
g769
sg1826
g1361
sg225
g827
sg1775
g836
sVcom.biganiseed.reindeer
p2024
g1144
sg89
g911
sg93
g986
sg206
g1026
sg105
g1070
sg107
g1107
sg109
g1114
sVcom.baidu.lbs.waimai
p2025
g1130
sg119
g1160
sVcom.instagram.android
p2026
g1188
sg455
g277
sg316
g1207
sg1803
g653
sg139
g1328
sg1287
g1334
sg151
g1459
sg301
g1428
sg1007
g1454
sg1001
g1463
sg1739
g1493
sVcom.android.keyguard
p2027
g1523
sg159
g1536
sVcom.huawei.appmarket
p2028
g1587
sg165
g1610
sg167
g1617
sg1304
g1658
ssg137
(dp2029
g251
g1339
sg253
g1432
sg169
g1635
sg21
g256
sg117
g1149
ssg139
(dp2030
g1873
g1437
sVcom.baidu.lbs.waimai
p2031
g1117
sVcom.android.contacts
p2032
g571
sg479
g1495
sVcom.android.camera
p2033
g1614
sVcom.tencent.mtt
p2034
g928
sg1424
g797
sVcom.tencent.mobileqq
p2035
g1286
sg161
g1558
ssg141
(dp2036
Vcom.android.settings
p2037
g1431
sVcom.huawei.hwid
p2038
g1496
sVcom.baidu.tieba
p2039
g1531
sVcom.huawei.appmarket
p2040
g1589
sVcom.tencent.mtt
p2041
g929
sVcom.tencent.mobileqq
p2042
g1288
ssg143
(dp2043
Vcom.android.browser
p2044
g197
sg21
g252
sVcom.android.deskclock
p2045
g312
sg424
g352
sg1722
g423
sg1758
g490
sg1822
g550
sVcom.zhihu.android
p2046
g608
sVcom.android.vpndialogs
p2047
g783
sg977
g745
sg35
g397
sVcom.tencent.mtt
p2048
g900
sg1995
g946
sg435
g979
sg1872
g1077
sg740
g1147
sg2026
g1175
sVcom.android.email
p2049
g643
sVcom.tencent.mobileqq
p2050
g1263
sg1148
g1308
sg398
g1403
sg1649
g1480
sg1750
g1573
sg747
g1619
sg169
g1631
sg221
g1648
ssg145
(dp2051
Vcom.android.settings
p2052
g1433
sVcom.tencent.mtt
p2053
g930
sVcom.android.email
p2054
g635
sVcom.tencent.mobileqq
p2055
g1289
sVcom.netease.cloudmusic
p2056
g1083
ssg147
(dp2057
Vcom.android.browser
p2058
g217
sVcom.record.myLife
p2059
g389
sg316
g1211
sg17
g248
sg2023
g679
sg21
g254
sg23
g263
sg71
g753
sg1848
g302
sg1743
g374
sg31
g382
sg35
g399
sg1829
g233
sg337
g417
sg41
g445
sg1871
g462
sg45
g482
sg1390
g517
sVcom.android.contacts
p2060
g573
sg83
g856
sg55
g610
sg129
g1220
sg173
g1664
sg65
g723
sg816
g743
sg1880
g1031
sg485
g761
sg143
g1363
sg901
g811
sg980
g832
sg81
g844
sVcom.eg.android.AlipayGphone
p2061
g598
sg87
g864
sg320
g931
sVcom.tencent.mobileqq
p2062
g1290
sg1731
g1017
sg103
g1057
sVandroid.zhibo8
p2063
g1062
sg107
g1085
sg109
g1112
sg1799
g1119
sg117
g1155
sg507
g1560
sg426
g1168
sg123
g1192
sg365
g798
sg57
g637
sg885
g1604
sg127
g1214
sg101
g1050
sg139
g1323
sg1430
g1332
sg137
g1311
sg93
g1000
sVcom.xdf.recite
p2064
g1447
sg218
g1498
sg1912
g1509
sg159
g1544
sVcom.huawei.appmarket
p2065
g1591
sg1245
g408
sVcom.android.camera
p2066
g1622
sg169
g1632
sVcom.hipu.yidian
p2067
g665
sVfq.router2
p2068
g1644
ssg149
(dp2069
g1464
g1008
sg1001
g1466
sVcom.huawei.appmarket
p2070
g1581
sg1690
g936
sVcom.tencent.mobileqq
p2071
g1292
sVcom.android.contacts
p2072
g575
sVcom.android.settings
p2073
g1436
ssg151
(dp2074
Vcom.tencent.mobileqq
p2075
g1293
ssg153
(dp2076
Vcom.tencent.mobileqq
p2077
g1295
sg1464
g1002
sVcom.xdf.recite
p2078
g1449
ssg155
(dp2079
Vcom.android.browser
p2080
g219
sVcom.baidu.tieba
p2081
g1541
sg1737
g799
sg373
g1438
sVcom.android.packageinstaller
p2082
g725
sVcom.tencent.mm
p2083
g1004
sVfq.router2
p2084
g1650
sg455
g269
sg99
g1036
sVcom.twitter.android
p2085
g1365
sg774
g376
sg31
g381
sg1624
g480
sg507
g1554
sVcom.android.deskclock
p2086
g290
sg163
g1592
sg1777
g1615
sVcom.tencent.mtt
p2087
g933
sg91
g948
sg369
g1296
sVcom.android.contacts
p2088
g577
ssg157
(dp2089
g111
g1126
sVcom.tencent.mobileqq
p2090
g1298
sVcom.android.contacts
p2091
g579
sVcom.netease.cloudmusic
p2092
g1094
ssg159
(dp2093
Vcom.zhihu.android
p2094
g619
sVcom.smartapp.easyvpn
p2095
g429
sg139
g1321
sVcom.hipu.yidian
p2096
g668
sg1776
g1439
sg65
g727
sVcom.twitter.android
p2097
g1366
sVcom.taou.maimai
p2098
g378
sVcom.android.keyguard
p2099
g1513
sg342
g1179
sg1964
g801
sVcom.huawei.appmarket
p2100
g1594
sg320
g934
sg1388
g494
sVcom.tencent.mm
p2101
g1006
sVcom.android.contacts
p2102
g581
sg1928
g1299
ssg161
(dp2103
g1777
g1623
sg2034
g887
sg1624
g508
sg796
g1329
sg479
g1472
ssg163
(dp2104
g2080
g187
sg17
g244
sg455
g271
sg2086
g305
sg1743
g379
sg31
g384
sVfm.jihua.kecheng
p2105
g498
sg1829
g239
sg1698
g453
sg39
g431
sg2088
g583
sVcom.eg.android.AlipayGphone
p2106
g596
sg75
g802
sVcom.android.packageinstaller
p2107
g701
sg2085
g1368
sg2087
g881
sg91
g950
sVcom.tencent.mm
p2108
g994
sg1702
g1095
sg412
g647
sg369
g1300
sg151
g1461
sg373
g1440
sg1739
g1490
sg2081
g1537
sg1099
g287
sg483
g1652
ssg165
(dp2109
Vcom.zhihu.android
p2110
g620
sg447
g1181
sg1947
g1441
sg1946
g823
sg1399
g1040
sg1881
g1545
sg1948
g886
sg882
g500
sVcom.tencent.mobileqq
p2111
g1301
sg1883
g464
ssg167
(dp2112
Vcom.zhihu.android
p2113
g622
sVcom.tencent.mobileqq
p2114
g1303
sg977
g748
sVcom.twitter.android
p2115
g1369
sg1035
g1500
sg99
g1042
sg1856
g1442
sg435
g1009
sVcom.android.contacts
p2116
g585
ssg169
(dp2117
g101
g1051
sg398
g1443
sg35
g400
sg143
g1370
sVcom.huawei.appmarket
p2118
g1596
sg83
g858
ssg171
(dp2119
Vcom.android.browser
p2120
g222
sVcom.android.email
p2121
g641
sg1655
g804
sg1872
g1089
sg553
g869
sVcom.tencent.mm
p2122
g1011
sVcom.android.packageinstaller
p2123
g729
sVcom.twitter.android
p2124
g1371
sVcom.huawei.hwid
p2125
g1502
sVcom.instagram.android
p2126
g1186
sVfm.jihua.kecheng
p2127
g484
sg1870
g308
sVcom.huawei.appmarket
p2128
g1597
sVcom.smartapp.easyvpn
p2129
g421
sg1830
g1538
sVcom.tencent.mtt
p2130
g937
sg1995
g954
sVcom.tencent.mobileqq
p2131
g1305
sg1905
g587
sVcom.android.settings
p2132
g1444
ssg173
(dp2133
g1704
g1476
sg247
g1429
sg243
g1570
sssb.