ccopy_reg
_reconstructor
p1
(cnetworkx.classes.digraph
DiGraph
p2
c__builtin__
object
p3
NtRp4
(dp5
S'node'
p6
(dp7
Vcom.android.browser
p8
(dp9
S'weight'
p10
F0.0010091919155001644
ssVcom.bestpay.creditcard
p11
(dp12
g10
F2.558386023902635e-05
ssVcom.sankuai.meituan
p13
(dp14
g10
F0.0074389642191440373
ssVcom.youku.phone
p15
(dp16
g10
F0.032085815576916046
ssVcom.android.updater
p17
(dp18
g10
F6.3959650597565874e-06
ssVcom.comingx.athit
p19
(dp20
g10
F0.001830159716384635
ssVcom.android.deskclock
p21
(dp22
g10
F0.049596140491941082
ssVcom.UCMobile
p23
(dp24
g10
F0.069677186506341138
ssVcom.hunantv.imgo.activity
p25
(dp26
g10
F0.0053963670918460585
ssVcom.netease.mobimail
p27
(dp28
g10
F0.0030993019260991922
ssVcom.eg.android.AlipayGphone
p29
(dp30
g10
F0.0098749131976170468
ssVcom.youdao.dict
p31
(dp32
g10
F0.0017113775081320126
ssVcom.zhihu.android
p33
(dp34
g10
F0.0022628010672124557
ssVcom.chinamworld.main
p35
(dp36
g10
F8.8629801542341284e-05
ssVcn.wps.moffice_eng
p37
(dp38
g10
F0.0013175688023098571
ssVcom.TianYi
p39
(dp40
g10
F0.00010279229560323087
ssVcom.android.packageinstaller
p41
(dp42
g10
F0.0023272175724571471
ssVcom.moji.mjweather
p43
(dp44
g10
F0.0053059098717152149
ssVcom.taobao.taobao
p45
(dp46
g10
F0.0094902415847374008
ssVme.ele
p47
(dp48
g10
F0.0010813749497459888
ssVcom.android.systemui
p49
(dp50
g10
F0.001233964401885896
ssVcom.miui.gallery
p51
(dp52
g10
F0.00088355688754066007
ssVcom.tencent.mm
p53
(dp54
g10
F0.12936753042651949
ssVcom.miui.antispam
p55
(dp56
g10
F3.8832645005664998e-05
ssVcom.xindaoapp.miaodaiepay
p57
(dp58
g10
F5.2538284419429114e-05
ssVcom.android.calculator2
p59
(dp60
g10
F0.0030175249442637329
ssVcom.baidu.lbs.waimai
p61
(dp62
g10
F0.00035908775264061987
ssVcom.tencent.androidqqmail
p63
(dp64
g10
F8.1320127188333759e-05
ssVcom.youdao.bigbang
p65
(dp66
g10
F0.0001690362194364241
ssVcom.android.phone
p67
(dp68
g10
F0.046664047366689811
ssVcom.baidu.input
p69
(dp70
g10
F2.0101604473520706e-05
ssVcom.yipiao
p71
(dp72
g10
F0.0022267095500895437
ssVcom.android.fileexplorer
p73
(dp74
g10
F0.00054137275684368259
ssVcom.tuniu.app.ui
p75
(dp76
g10
F4.3858046124045175e-05
ssVcom.miui.yellowpage
p77
(dp78
g10
F0.00016264025437666752
ssVcom.happyelements.AndroidAnimal
p79
(dp80
g10
F0.00054685501260918828
ssVcom.mediatek.bluetooth
p81
(dp82
g10
F4.5685464712547055e-07
ssVcom.tencent.mobileqq
p83
(dp84
g10
F0.31362751726910565
ssVcom.kingroot.kinguser
p85
(dp86
g10
F0.010098771974708527
ssVcom.miui.home
p87
(dp88
g10
F0.1918031139212748
ssVcom.miui.notes
p89
(dp90
g10
F0.0037777310770805159
ssVcom.android.calendar
p91
(dp92
g10
F0.0019270129015752349
ssVcom.android.settings
p93
(dp94
g10
F0.0024569642922407805
ssVcom.android.mms
p95
(dp96
g10
F0.060604053214429299
ssVcom.miui.voiceassist
p97
(dp98
g10
F4.5685464712547054e-06
ssVcom.miui.networkassistant
p99
(dp100
g10
F0.012459796791052958
ssVcn.chinabus.main
p101
(dp102
g10
F1.5076203355140528e-05
ssVcom.edooon.gps
p103
(dp104
g10
F5.4822557655056469e-06
ssVcom.android.quicksearchbox
p105
(dp106
g10
F5.4822557655056469e-06
ssVcom.android.camera
p107
(dp108
g10
F0.010964054676364169
ssVcom.innorz.venus
p109
(dp110
g10
F0.0017849311063192134
ssVcom.sankuai.meituan.takeoutnew
p111
(dp112
g10
F0.00047284455977486203
ssVcom.chinatelecom.bestpayclient
p113
(dp114
g10
F0.00085523189941888087
sssS'graph'
p115
(dp116
sS'succ'
p117
(dp118
g8
(dp119
Vcom.kingroot.kinguser
p120
(dp121
g10
F4.4000000000000004
ssVcom.miui.notes
p122
(dp123
g10
F0.90000000000000002
ssVcom.tencent.mobileqq
p124
(dp125
g10
F5.3000000000000007
ssVcom.android.packageinstaller
p126
(dp127
g10
F1.3
ssVcom.android.mms
p128
(dp129
g10
F2.6000000000000001
ssVcom.UCMobile
p130
(dp131
g10
F3
ssVcom.netease.mobimail
p132
(dp133
g10
I1
ssg105
(dp134
g10
F0.40000000000000002
ssVcom.miui.yellowpage
p135
(dp136
g10
I1
ssVcom.miui.home
p137
(dp138
g10
F25.499999999999993
ssVcom.tencent.mm
p139
(dp140
g10
F3.8999999999999999
sssg11
(dp141
Vcom.android.packageinstaller
p142
(dp143
g10
F1.3
ssVcom.miui.home
p144
(dp145
g10
F0.90000000000000002
ssVcom.android.mms
p146
(dp147
g10
F0.40000000000000002
ssVcom.chinatelecom.bestpayclient
p148
(dp149
g10
F3.4000000000000004
sssg13
(dp150
Vcom.kingroot.kinguser
p151
(dp152
g10
F6.4000000000000004
ssVcom.tencent.mobileqq
p153
(dp154
g10
F39.799999999999983
ssVcom.android.mms
p155
(dp156
g10
I2
ssVcom.UCMobile
p157
(dp158
g10
F1.3
ssVcom.android.phone
p159
(dp160
g10
F1.8999999999999999
ssVcom.android.camera
p161
(dp162
g10
F0.90000000000000002
ssVcom.miui.home
p163
(dp164
g10
F26.399999999999995
ssVcom.tencent.mm
p165
(dp166
g10
F1.7000000000000002
ssVcom.eg.android.AlipayGphone
p167
(dp168
g10
F2.2999999999999998
sssg15
(dp169
Vcom.android.browser
p170
(dp171
g10
I1
ssVcom.kingroot.kinguser
p172
(dp173
g10
F40.100000000000001
ssVcom.tencent.mobileqq
p174
(dp175
g10
F86.000000000000028
ssVcom.android.packageinstaller
p176
(dp177
g10
F3.8000000000000003
ssVcom.android.phone
p178
(dp179
g10
I2
ssVcom.android.mms
p180
(dp181
g10
F3.6000000000000001
ssVcom.yipiao
p182
(dp183
g10
F2.5
ssVcom.taobao.taobao
p184
(dp185
g10
F1.3
ssVcom.android.deskclock
p186
(dp187
g10
F0.40000000000000002
ssVcom.UCMobile
p188
(dp189
g10
F4.7999999999999998
ssVcom.hunantv.imgo.activity
p190
(dp191
g10
F1.6000000000000001
ssVcom.netease.mobimail
p192
(dp193
g10
F2.7000000000000002
ssVcom.android.systemui
p194
(dp195
g10
F0.90000000000000002
ssVcom.android.camera
p196
(dp197
g10
F1.3
ssg87
(dp198
g10
F93.600000000000037
ssVcom.tencent.mm
p199
(dp200
g10
F14.800000000000004
ssVcom.eg.android.AlipayGphone
p201
(dp202
g10
F1.7
ssVcom.android.settings
p203
(dp204
g10
F10.699999999999999
sssg17
(dp205
sg19
(dp206
Vcom.kingroot.kinguser
p207
(dp208
g10
F6.2000000000000002
ssVcom.android.browser
p209
(dp210
g10
F0.90000000000000002
ssVcom.android.settings
p211
(dp212
g10
F1.3
ssVcom.tencent.mm
p213
(dp214
g10
F0.40000000000000002
ssVcom.android.mms
p215
(dp216
g10
I1
ssVcom.android.deskclock
p217
(dp218
g10
F0.90000000000000002
ssVcom.android.fileexplorer
p219
(dp220
g10
F0.90000000000000002
ssVcom.miui.home
p221
(dp222
g10
F15.899999999999999
ssVcom.tencent.mobileqq
p223
(dp224
g10
F18.499999999999993
sssg21
(dp225
Vcom.kingroot.kinguser
p226
(dp227
g10
F37
ssVcom.moji.mjweather
p228
(dp229
g10
F1.7
ssVcom.chinamworld.main
p230
(dp231
g10
F1.3
ssVcom.youdao.dict
p232
(dp233
g10
F0.90000000000000002
ssVcom.android.fileexplorer
p234
(dp235
g10
F0.90000000000000002
ssVcom.android.calendar
p236
(dp237
g10
F0.90000000000000002
ssVcom.tencent.mobileqq
p238
(dp239
g10
F22.199999999999992
ssVcom.android.phone
p240
(dp241
g10
I4
ssVcom.android.mms
p242
(dp243
g10
F11.4
ssVcom.UCMobile
p244
(dp245
g10
F0.40000000000000002
ssVcom.netease.mobimail
p246
(dp247
g10
F1.8999999999999999
ssVcom.android.settings
p248
(dp249
g10
F2.7000000000000002
ssVcom.miui.home
p250
(dp251
g10
F46.899999999999999
ssVcom.tencent.mm
p252
(dp253
g10
F3.1000000000000001
ssVcom.youku.phone
p254
(dp255
g10
F0.90000000000000002
sssg23
(dp256
Vcom.android.browser
p257
(dp258
g10
F5.6000000000000005
ssVcom.moji.mjweather
p259
(dp260
g10
I1
ssVcom.youdao.dict
p261
(dp262
g10
F3.6000000000000001
ssVcom.comingx.athit
p263
(dp264
g10
F2.2000000000000002
ssg217
(dp265
g10
F0.40000000000000002
ssVcom.netease.mobimail
p266
(dp267
g10
F1.3
ssVcom.eg.android.AlipayGphone
p268
(dp269
g10
F0.69999999999999996
ssVcom.youku.phone
p270
(dp271
g10
F2.2000000000000002
ssVcom.zhihu.android
p272
(dp273
g10
F4.5999999999999996
ssg37
(dp274
g10
I1
ssg41
(dp275
g10
F11
ssVcom.sankuai.meituan
p276
(dp277
g10
F0.90000000000000002
ssVcom.taobao.taobao
p278
(dp279
g10
F1.8
ssg47
(dp280
g10
F1.7000000000000002
ssVcom.android.phone
p281
(dp282
g10
F24.699999999999992
ssVcom.miui.gallery
p283
(dp284
g10
F0.90000000000000002
ssVcom.tencent.mm
p285
(dp286
g10
F75.600000000000051
ssg55
(dp287
g10
F1.3
ssVcom.android.calculator2
p288
(dp289
g10
F2.6000000000000001
ssg61
(dp290
g10
F1.3
ssVcom.baidu.input
p291
(dp292
g10
I1
ssVcom.yipiao
p293
(dp294
g10
F6.5000000000000009
ssVcom.android.fileexplorer
p295
(dp296
g10
F0.40000000000000002
ssg75
(dp297
g10
F0.90000000000000002
ssg81
(dp298
g10
I1
ssVcom.tencent.mobileqq
p299
(dp300
g10
F347.69999999999902
ssVcom.kingroot.kinguser
p301
(dp302
g10
F182.2000000000001
ssVcom.miui.home
p303
(dp304
g10
F337.29999999999916
ssVcom.miui.notes
p305
(dp306
g10
F12.800000000000004
ssVcom.miui.networkassistant
p307
(dp308
g10
F3
ssVcom.android.settings
p309
(dp310
g10
F16.700000000000003
ssVcom.android.mms
p311
(dp312
g10
F47.899999999999991
ssg97
(dp313
g10
F1.7
ssg101
(dp314
g10
F1.7000000000000002
ssVcom.android.camera
p315
(dp316
g10
F4.7000000000000002
ssg113
(dp317
g10
F1.3
sssg25
(dp318
Vcom.kingroot.kinguser
p319
(dp320
g10
F4.5
ssVcom.youku.phone
p321
(dp322
g10
F0.90000000000000002
ssVcom.UCMobile
p323
(dp324
g10
F0.90000000000000002
ssVcom.tencent.mobileqq
p325
(dp326
g10
F104.40000000000013
ssVcom.android.mms
p327
(dp328
g10
F0.40000000000000002
ssVcom.baidu.input
p329
(dp330
g10
I1
ssVcom.taobao.taobao
p331
(dp332
g10
F0.90000000000000002
ssVcom.android.fileexplorer
p333
(dp334
g10
F1.3
ssVcom.yipiao
p335
(dp336
g10
I1
ssVcom.android.settings
p337
(dp338
g10
F0.40000000000000002
ssVcom.miui.home
p339
(dp340
g10
F19.399999999999999
ssVcom.tencent.mm
p341
(dp342
g10
F3.2999999999999998
sssg27
(dp343
Vcom.kingroot.kinguser
p344
(dp345
g10
F12.4
ssVcom.miui.notes
p346
(dp347
g10
F0.90000000000000002
ssVcom.youku.phone
p348
(dp349
g10
I2
ssVcom.android.browser
p350
(dp351
g10
I1
ssVcom.miui.networkassistant
p352
(dp353
g10
F0.90000000000000002
ssVcom.tencent.mm
p354
(dp355
g10
F2.7999999999999998
ssVcom.moji.mjweather
p356
(dp357
g10
F2.3999999999999999
ssVcom.android.mms
p358
(dp359
g10
I1
ssVcom.android.calculator2
p360
(dp361
g10
F0.90000000000000002
ssVcom.android.deskclock
p362
(dp363
g10
I1
ssVcom.UCMobile
p364
(dp365
g10
F0.40000000000000002
ssVcom.android.phone
p366
(dp367
g10
I2
ssVcom.miui.home
p368
(dp369
g10
F25.199999999999992
ssVcom.tencent.mobileqq
p370
(dp371
g10
F13.100000000000003
ssVcn.wps.moffice_eng
p372
(dp373
g10
F3.6999999999999997
ssVcom.android.settings
p374
(dp375
g10
F1.3999999999999999
sssg29
(dp376
Vcom.kingroot.kinguser
p377
(dp378
g10
F28.999999999999996
ssVcom.android.fileexplorer
p379
(dp380
g10
F1.3
ssVcom.tencent.mm
p381
(dp382
g10
F7.8000000000000016
ssVcom.android.mms
p383
(dp384
g10
F15.1
ssVcom.yipiao
p385
(dp386
g10
F0.40000000000000002
ssVcom.taobao.taobao
p387
(dp388
g10
F3.3999999999999999
ssVcom.android.deskclock
p389
(dp390
g10
F0.90000000000000002
ssVcom.UCMobile
p391
(dp392
g10
F2.4000000000000004
ssVcom.hunantv.imgo.activity
p393
(dp394
g10
F1.3
ssVcom.android.phone
p395
(dp396
g10
F3.6000000000000001
ssVcom.miui.home
p397
(dp398
g10
F60.300000000000018
ssg325
(dp399
g10
F21.699999999999996
sssg31
(dp400
Vcom.kingroot.kinguser
p401
(dp402
g10
F6.8000000000000007
ssVcom.tencent.mobileqq
p403
(dp404
g10
F0.40000000000000002
ssVcom.android.mms
p405
(dp406
g10
I1
ssVcom.UCMobile
p407
(dp408
g10
F2.7000000000000002
ssVcom.android.phone
p409
(dp410
g10
F1.8999999999999999
ssVcom.android.camera
p411
(dp412
g10
F0.40000000000000002
ssVcom.miui.home
p413
(dp414
g10
F12.899999999999999
ssVcom.tencent.mm
p415
(dp416
g10
F1.8
sssg33
(dp417
Vcom.kingroot.kinguser
p418
(dp419
g10
F6.5999999999999996
ssVcom.miui.networkassistant
p420
(dp421
g10
F1.1000000000000001
ssVcom.android.settings
p422
(dp423
g10
F1.3
ssVcom.android.mms
p424
(dp425
g10
F1.7
ssVcom.taobao.taobao
p426
(dp427
g10
F0.90000000000000002
ssVcom.UCMobile
p428
(dp429
g10
F2.6000000000000001
ssVcom.netease.mobimail
p430
(dp431
g10
F0.90000000000000002
ssVcom.miui.home
p432
(dp433
g10
F30.599999999999991
ssVcom.tencent.mm
p434
(dp435
g10
F6.6000000000000014
ssVcom.tencent.mobileqq
p436
(dp437
g10
F6.2000000000000011
sssg35
(dp438
Vcom.android.mms
p439
(dp440
g10
F1.3999999999999999
ssVcom.tencent.mm
p441
(dp442
g10
F1.3
ssVcom.miui.home
p443
(dp444
g10
F7.4000000000000004
ssVcom.tencent.mobileqq
p445
(dp446
g10
F1.8
ssVcom.eg.android.AlipayGphone
p447
(dp448
g10
F1.7000000000000002
sssg37
(dp449
Vcom.kingroot.kinguser
p450
(dp451
g10
F3.6000000000000001
ssVcom.android.fileexplorer
p452
(dp453
g10
F1.3
ssVcom.android.mms
p454
(dp455
g10
I1
ssVcom.UCMobile
p456
(dp457
g10
I1
ssVcom.netease.mobimail
p458
(dp459
g10
I3
ssVcom.miui.home
p460
(dp461
g10
I3
ssVcom.tencent.mobileqq
p462
(dp463
g10
F5.5999999999999996
sssg39
(dp464
Vcom.kingroot.kinguser
p465
(dp466
g10
F1.3
ssVcom.android.packageinstaller
p467
(dp468
g10
F1.3
ssVcom.android.mms
p469
(dp470
g10
F0.40000000000000002
ssVcom.chinatelecom.bestpayclient
p471
(dp472
g10
F5.1000000000000005
sssg41
(dp473
Vcom.kingroot.kinguser
p474
(dp475
g10
F6.7000000000000011
ssg61
(dp476
g10
F1.7
ssVcom.youku.phone
p477
(dp478
g10
F2.7000000000000002
ssg101
(dp479
g10
F1.7
ssg309
(dp480
g10
F2.7999999999999998
ssg268
(dp481
g10
F1.3
ssg19
(dp482
g10
F1.7
ssg469
(dp483
g10
F1.8
ssVcom.UCMobile
p484
(dp485
g10
F3.8999999999999999
ssg47
(dp486
g10
F2.3999999999999999
ssg75
(dp487
g10
I1
ssg111
(dp488
g10
F1.7
ssg39
(dp489
g10
F1.3
ssg109
(dp490
g10
F1.7
ssVcom.miui.home
p491
(dp492
g10
F3.8999999999999999
ssVcom.tencent.mm
p493
(dp494
g10
I1
ssg81
(dp495
g10
F0.69999999999999996
ssg113
(dp496
g10
F7.4000000000000004
ssVcom.tencent.mobileqq
p497
(dp498
g10
F1.3
sssg43
(dp499
Vcom.kingroot.kinguser
p500
(dp501
g10
F15.499999999999998
ssVcom.miui.networkassistant
p502
(dp503
g10
I1
ssVcom.tencent.mobileqq
p504
(dp505
g10
F15.199999999999998
ssVcom.android.packageinstaller
p506
(dp507
g10
I1
ssVcom.android.mms
p508
(dp509
g10
F0.40000000000000002
ssVcom.taobao.taobao
p510
(dp511
g10
F1.3
ssg111
(dp512
g10
F1.3
ssVcom.yipiao
p513
(dp514
g10
I1
ssVcom.netease.mobimail
p515
(dp516
g10
F1.7
ssVcom.android.phone
p517
(dp518
g10
F1.8999999999999999
ssVcom.android.camera
p519
(dp520
g10
F0.90000000000000002
ssVcom.miui.home
p521
(dp522
g10
F36.199999999999989
ssVcom.tencent.mm
p523
(dp524
g10
F6.1000000000000005
ssVcom.android.settings
p525
(dp526
g10
I1
sssg45
(dp527
Vcom.kingroot.kinguser
p528
(dp529
g10
F31.699999999999999
ssVcom.sankuai.meituan
p530
(dp531
g10
F1.3
ssVcom.youku.phone
p532
(dp533
g10
F1.3
ssVcom.tencent.mobileqq
p534
(dp535
g10
F62.600000000000016
ssVcom.moji.mjweather
p536
(dp537
g10
F0.90000000000000002
ssg155
(dp538
g10
F0.69999999999999996
ssVcom.UCMobile
p539
(dp540
g10
F1.8
ssVcom.android.phone
p541
(dp542
g10
F3.2000000000000002
ssVcom.android.camera
p543
(dp544
g10
F7
ssVcom.miui.home
p545
(dp546
g10
F61.000000000000036
ssVcom.tencent.mm
p547
(dp548
g10
F4.2000000000000002
ssVcom.eg.android.AlipayGphone
p549
(dp550
g10
F3
ssVcom.android.settings
p551
(dp552
g10
F0.90000000000000002
sssg47
(dp553
Vcom.kingroot.kinguser
p554
(dp555
g10
F7.3000000000000007
ssVcom.miui.home
p556
(dp557
g10
F2.7000000000000002
sssg49
(dp558
Vcom.kingroot.kinguser
p559
(dp560
g10
F0.69999999999999996
ssVcom.youku.phone
p561
(dp562
g10
F1.8
ssVcom.tencent.mobileqq
p563
(dp564
g10
F1.3
ssVcom.UCMobile
p565
(dp566
g10
F0.90000000000000002
ssVcom.miui.home
p567
(dp568
g10
F9.7999999999999989
ssVcom.tencent.mm
p569
(dp570
g10
F0.40000000000000002
sssg51
(dp571
Vcom.kingroot.kinguser
p572
(dp573
g10
F3.1000000000000001
ssVcom.youku.phone
p574
(dp575
g10
F0.69999999999999996
ssVcom.tencent.mobileqq
p576
(dp577
g10
F6.7000000000000011
ssVcom.yipiao
p578
(dp579
g10
F1.3
ssVcom.android.fileexplorer
p580
(dp581
g10
I1
ssVcom.android.camera
p582
(dp583
g10
I2
ssVcom.miui.home
p584
(dp585
g10
F7.0000000000000009
ssVcom.tencent.mm
p586
(dp587
g10
F1.6000000000000001
sssg53
(dp588
g170
(dp589
g10
F2.1000000000000001
ssVcom.moji.mjweather
p590
(dp591
g10
F9.3000000000000025
ssVcom.youku.phone
p592
(dp593
g10
F14.200000000000003
ssg17
(dp594
g10
F1.3
ssVcom.comingx.athit
p595
(dp596
g10
F3.8999999999999999
ssVcom.android.deskclock
p597
(dp598
g10
F3.2999999999999998
ssVcom.UCMobile
p599
(dp600
g10
F64.099999999999994
ssVcom.hunantv.imgo.activity
p601
(dp602
g10
F3.3999999999999999
ssVcom.netease.mobimail
p603
(dp604
g10
F1.5
ssVcom.eg.android.AlipayGphone
p605
(dp606
g10
F19.599999999999994
ssVcom.zhihu.android
p607
(dp608
g10
F5.5000000000000009
ssVcom.chinamworld.main
p609
(dp610
g10
F2.2000000000000002
ssg41
(dp611
g10
F4.0999999999999996
ssg13
(dp612
g10
F3.5
ssg45
(dp613
g10
F2.2000000000000002
ssVcom.android.phone
p614
(dp615
g10
F32.099999999999994
ssg51
(dp616
g10
F1.8999999999999999
ssVcom.tencent.mobileqq
p617
(dp618
g10
F813.29999999999882
ssVcom.miui.antispam
p619
(dp620
g10
F1.7
ssg63
(dp621
g10
F0.90000000000000002
ssg65
(dp622
g10
F2.6000000000000001
ssVcom.baidu.input
p623
(dp624
g10
F1.7
ssVcom.yipiao
p625
(dp626
g10
F5.3000000000000007
ssVcom.android.fileexplorer
p627
(dp628
g10
F2.5
ssVcom.happyelements.AndroidAnimal
p629
(dp630
g10
F2.2999999999999998
ssVcom.kingroot.kinguser
p631
(dp632
g10
F472.8999999999989
ssVcom.miui.home
p633
(dp634
g10
F907.600000000004
ssg89
(dp635
g10
F2.5
ssVcom.android.calendar
p636
(dp637
g10
F1.7000000000000002
ssVcom.android.settings
p638
(dp639
g10
F22.299999999999997
ssVcom.android.mms
p640
(dp641
g10
F49.799999999999997
ssg411
(dp642
g10
F10.200000000000001
ssg109
(dp643
g10
F1.3
sssg55
(dp644
Vcom.kingroot.kinguser
p645
(dp646
g10
I2
ssVcom.miui.networkassistant
p647
(dp648
g10
F0.90000000000000002
ssVcom.android.settings
p649
(dp650
g10
I1
ssg530
(dp651
g10
F0.40000000000000002
ssVcom.android.mms
p652
(dp653
g10
F2.6000000000000001
ssVcom.taobao.taobao
p654
(dp655
g10
F2.6000000000000001
ssVcom.UCMobile
p656
(dp657
g10
F1.3
ssVcom.android.camera
p658
(dp659
g10
F0.69999999999999996
ssVcom.miui.home
p660
(dp661
g10
F6.1000000000000005
ssVcom.tencent.mobileqq
p662
(dp663
g10
F3.3999999999999999
ssVcom.eg.android.AlipayGphone
p664
(dp665
g10
F0.40000000000000002
sssg57
(dp666
Vcom.kingroot.kinguser
p667
(dp668
g10
I1
ssVcom.bestpay.creditcard
p669
(dp670
g10
F1.3
ssVcom.chinatelecom.bestpayclient
p671
(dp672
g10
F1.7
sssg59
(dp673
Vcom.kingroot.kinguser
p674
(dp675
g10
F3.7000000000000002
ssVcom.miui.networkassistant
p676
(dp677
g10
F0.69999999999999996
ssVcom.tencent.mobileqq
p678
(dp679
g10
F3.3999999999999999
ssVcom.comingx.athit
p680
(dp681
g10
F0.40000000000000002
ssVcom.UCMobile
p682
(dp683
g10
F1.8
ssVcom.android.settings
p684
(dp685
g10
F0.90000000000000002
ssVcom.miui.home
p686
(dp687
g10
F14.799999999999999
ssVcom.tencent.mm
p688
(dp689
g10
F1.3
ssVcom.eg.android.AlipayGphone
p690
(dp691
g10
F0.90000000000000002
sssg61
(dp692
Vcom.kingroot.kinguser
p693
(dp694
g10
F0.90000000000000002
ssVcom.miui.home
p695
(dp696
g10
F1.7
ssg268
(dp697
g10
I1
sssg63
(dp698
Vcom.kingroot.kinguser
p699
(dp700
g10
I1
ssVcom.miui.home
p701
(dp702
g10
F6.7999999999999998
ssVcom.tencent.mobileqq
p703
(dp704
g10
F3.3999999999999999
ssg592
(dp705
g10
F0.90000000000000002
sssg65
(dp706
Vcom.kingroot.kinguser
p707
(dp708
g10
I1
ssVcom.miui.home
p709
(dp710
g10
I1
sssg67
(dp711
Vcom.sankuai.meituan
p712
(dp713
g10
F1.3999999999999999
ssVcom.youku.phone
p714
(dp715
g10
F2.3999999999999999
ssVcom.android.deskclock
p716
(dp717
g10
F5.7000000000000002
ssVcom.UCMobile
p718
(dp719
g10
F13.899999999999999
ssVcom.hunantv.imgo.activity
p720
(dp721
g10
F1.7
ssVcom.netease.mobimail
p722
(dp723
g10
F3
ssVcom.eg.android.AlipayGphone
p724
(dp725
g10
F3.8000000000000003
ssg609
(dp726
g10
F0.69999999999999996
ssVcom.moji.mjweather
p727
(dp728
g10
F2.8999999999999999
ssVcom.taobao.taobao
p729
(dp730
g10
F1.7000000000000002
ssVcom.miui.home
p731
(dp732
g10
F185.70000000000022
ssVcom.tencent.mm
p733
(dp734
g10
F42.699999999999982
ssVcom.miui.antispam
p735
(dp736
g10
F0.69999999999999996
ssVcom.baidu.input
p737
(dp738
g10
F1.7
ssVcom.android.camera
p739
(dp740
g10
F1.8
ssVcom.tencent.mobileqq
p741
(dp742
g10
F95.700000000000102
ssVcom.kingroot.kinguser
p743
(dp744
g10
F162.60000000000008
ssVcom.android.calendar
p745
(dp746
g10
I1
ssVcom.android.settings
p747
(dp748
g10
F14.1
ssVcom.android.mms
p749
(dp750
g10
F49.199999999999996
ssg502
(dp751
g10
F3.1000000000000001
ssVcom.miui.yellowpage
p752
(dp753
g10
I1
sssg69
(dp754
Vcom.miui.notes
p755
(dp756
g10
F0.69999999999999996
ssVcom.tencent.mobileqq
p757
(dp758
g10
F4.5999999999999996
ssVcom.android.mms
p759
(dp760
g10
F0.90000000000000002
ssVcom.UCMobile
p761
(dp762
g10
I1
ssVcom.hunantv.imgo.activity
p763
(dp764
g10
F1.7
ssVcom.android.phone
p765
(dp766
g10
I1
ssVcom.miui.home
p767
(dp768
g10
F4.5999999999999996
ssVcom.tencent.mm
p769
(dp770
g10
F1.1000000000000001
ssg724
(dp771
g10
F0.90000000000000002
sssg71
(dp772
Vcom.kingroot.kinguser
p773
(dp774
g10
F6.2000000000000011
ssVcom.miui.gallery
p775
(dp776
g10
F1.7
ssVcom.youku.phone
p777
(dp778
g10
F1.3
ssVcom.android.calendar
p779
(dp780
g10
F0.90000000000000002
ssVcom.tencent.mobileqq
p781
(dp782
g10
F22.099999999999994
ssVcom.android.packageinstaller
p783
(dp784
g10
F0.69999999999999996
ssVcom.moji.mjweather
p785
(dp786
g10
F0.90000000000000002
ssg327
(dp787
g10
F0.69999999999999996
ssVcom.UCMobile
p788
(dp789
g10
F4.5999999999999996
ssg75
(dp790
g10
F0.40000000000000002
ssVcom.android.camera
p791
(dp792
g10
F0.90000000000000002
ssVcom.miui.home
p793
(dp794
g10
F33.699999999999996
ssVcom.tencent.mm
p795
(dp796
g10
F4.9000000000000004
sssg73
(dp797
Vcom.kingroot.kinguser
p798
(dp799
g10
F6.4000000000000004
ssVcom.miui.gallery
p800
(dp801
g10
F2.7000000000000002
ssVcn.wps.moffice_eng
p802
(dp803
g10
F1.3999999999999999
ssVcom.android.settings
p804
(dp805
g10
F2.5
ssVcom.youku.phone
p806
(dp807
g10
F0.40000000000000002
ssVcom.miui.home
p808
(dp809
g10
F22.599999999999998
ssVcom.tencent.mm
p810
(dp811
g10
F2.1000000000000001
ssg29
(dp812
g10
F0.40000000000000002
ssVcom.tencent.mobileqq
p813
(dp814
g10
F12.700000000000001
sssg75
(dp815
Vcom.tencent.mm
p816
(dp817
g10
F0.40000000000000002
ssVcom.miui.home
p818
(dp819
g10
F1.7
ssVcom.tencent.mobileqq
p820
(dp821
g10
F0.90000000000000002
sssg77
(dp822
Vcom.miui.notes
p823
(dp824
g10
F0.40000000000000002
ssVcom.android.browser
p825
(dp826
g10
I1
ssVcom.tencent.mm
p827
(dp828
g10
F0.40000000000000002
ssVcom.miui.home
p829
(dp830
g10
F5
ssVcom.tencent.mobileqq
p831
(dp832
g10
F3.1999999999999997
sssg79
(dp833
Vcom.tencent.mobileqq
p834
(dp835
g10
F1.3999999999999999
ssVcom.miui.home
p836
(dp837
g10
F6.1000000000000005
ssVcom.tencent.mm
p838
(dp839
g10
F3.2000000000000002
ssVcom.youku.phone
p840
(dp841
g10
F1.3
ssg170
(dp842
g10
F0.69999999999999996
sssg81
(dp843
Vcom.android.settings
p844
(dp845
g10
F1.7
ssVcom.UCMobile
p846
(dp847
g10
F0.90000000000000002
sssg83
(dp848
Vcom.android.browser
p849
(dp850
g10
F5.5000000000000009
ssVcom.moji.mjweather
p851
(dp852
g10
F17.000000000000004
ssVcom.youku.phone
p853
(dp854
g10
F82.000000000000028
ssg263
(dp855
g10
F20.399999999999995
ssg21
(dp856
g10
F9.9000000000000004
ssVcom.UCMobile
p857
(dp858
g10
F323.59999999999911
ssg601
(dp859
g10
F96.200000000000102
ssg27
(dp860
g10
F17.300000000000001
ssVcom.eg.android.AlipayGphone
p861
(dp862
g10
F21.999999999999993
ssVcom.youdao.dict
p863
(dp864
g10
F1.8999999999999999
ssVcom.zhihu.android
p865
(dp866
g10
F5.5999999999999996
ssg35
(dp867
g10
F1.3
ssg37
(dp868
g10
F6.5
ssg176
(dp869
g10
F0.69999999999999996
ssg13
(dp870
g10
F41
ssVcom.taobao.taobao
p871
(dp872
g10
F63.800000000000018
ssVcom.android.phone
p873
(dp874
g10
F83.800000000000026
ssVcom.miui.home
p875
(dp876
g10
F1630.6000000000211
ssg53
(dp877
g10
F934.79999999999802
ssg55
(dp878
g10
F3.4000000000000004
ssVcom.android.calculator2
p879
(dp880
g10
F3.9999999999999996
ssg63
(dp881
g10
F3.7999999999999998
ssg69
(dp882
g10
F4.5999999999999996
ssg625
(dp883
g10
F26.199999999999999
ssg333
(dp884
g10
F9.5000000000000018
ssg77
(dp885
g10
F2.6000000000000001
ssVcom.happyelements.AndroidAnimal
p886
(dp887
g10
F2.6000000000000001
ssg631
(dp888
g10
F682.59999999999968
ssVcom.miui.gallery
p889
(dp890
g10
F4.9000000000000004
ssVcom.miui.notes
p891
(dp892
g10
F6.3000000000000007
ssg91
(dp893
g10
F5.4000000000000004
ssVcom.android.settings
p894
(dp895
g10
F39.799999999999997
ssVcom.android.mms
p896
(dp897
g10
F132.10000000000025
ssVcom.miui.voiceassist
p898
(dp899
g10
F0.90000000000000002
ssVcom.miui.networkassistant
p900
(dp901
g10
F4.4000000000000004
ssg105
(dp902
g10
F1.3
ssVcom.android.camera
p903
(dp904
g10
F25.899999999999995
ssVcom.innorz.venus
p905
(dp906
g10
F4.9000000000000004
sssg85
(dp907
Vcom.android.browser
p908
(dp909
g10
F6.5000000000000009
ssg669
(dp910
g10
F0.69999999999999996
ssVcom.sankuai.meituan
p911
(dp912
g10
F4.4000000000000004
ssVcom.youku.phone
p913
(dp914
g10
F19.899999999999999
ssVcom.android.updater
p915
(dp916
g10
F0.90000000000000002
ssg19
(dp917
g10
F1.8999999999999999
ssVcom.android.deskclock
p918
(dp919
g10
F8.9000000000000004
ssVcom.UCMobile
p920
(dp921
g10
F54.700000000000003
ssVcom.hunantv.imgo.activity
p922
(dp923
g10
F1.8999999999999999
ssg27
(dp924
g10
F7
ssVcom.eg.android.AlipayGphone
p925
(dp926
g10
F11.799999999999999
ssg863
(dp927
g10
F0.69999999999999996
ssVcom.zhihu.android
p928
(dp929
g10
I2
ssg230
(dp930
g10
F0.69999999999999996
ssg126
(dp931
g10
F3.2999999999999998
ssg43
(dp932
g10
F4
ssVcom.taobao.taobao
p933
(dp934
g10
F13.9
ssVme.ele
p935
(dp936
g10
F4.4000000000000004
ssg67
(dp937
g10
F38.899999999999991
ssVcom.miui.home
p938
(dp939
g10
F425.19999999999703
ssVcom.tencent.mm
p940
(dp941
g10
F214.79999999999998
ssVcom.miui.antispam
p942
(dp943
g10
F2.7000000000000002
ssVcom.xindaoapp.miaodaiepay
p944
(dp945
g10
I1
ssVcom.android.calculator2
p946
(dp947
g10
I2
ssVcom.tencent.androidqqmail
p948
(dp949
g10
F1.7
ssg65
(dp950
g10
F1.7
ssg623
(dp951
g10
F2.5
ssVcom.yipiao
p952
(dp953
g10
F3.6000000000000001
ssVcom.android.fileexplorer
p954
(dp955
g10
F4.7999999999999998
ssg77
(dp956
g10
F0.69999999999999996
ssg886
(dp957
g10
F0.69999999999999996
ssVcom.tencent.mobileqq
p958
(dp959
g10
F267.19999999999999
ssg800
(dp960
g10
F1.3
ssg891
(dp961
g10
F5.5
ssVcom.android.calendar
p962
(dp963
g10
I2
ssVcom.android.settings
p964
(dp965
g10
F24.999999999999993
ssVcom.android.mms
p966
(dp967
g10
F73.800000000000011
ssg99
(dp968
g10
F1.8999999999999999
ssg101
(dp969
g10
F0.69999999999999996
ssVcom.android.camera
p970
(dp971
g10
F18.699999999999999
ssg905
(dp972
g10
F2.6000000000000001
ssVcom.sankuai.meituan.takeoutnew
p973
(dp974
g10
I1
ssVcom.chinatelecom.bestpayclient
p975
(dp976
g10
F8
sssg87
(dp977
g170
(dp978
g10
F19.899999999999999
ssg13
(dp979
g10
F19.299999999999997
ssg561
(dp980
g10
F70.200000000000031
ssg17
(dp981
g10
F3.3999999999999999
ssg263
(dp982
g10
F11.899999999999999
ssg186
(dp983
g10
F17.100000000000001
ssg599
(dp984
g10
F283.89999999999941
ssg393
(dp985
g10
F14.9
ssg27
(dp986
g10
F27.699999999999992
ssg29
(dp987
g10
F57.600000000000023
ssg39
(dp988
g10
F0.40000000000000002
ssg607
(dp989
g10
F21.399999999999995
ssg35
(dp990
g10
F7.1000000000000005
ssg37
(dp991
g10
F3.5
ssg41
(dp992
g10
F8.5000000000000018
ssg43
(dp993
g10
F22.899999999999995
ssg45
(dp994
g10
F45.500000000000007
ssVcom.android.phone
p995
(dp996
g10
F81.600000000000023
ssg51
(dp997
g10
F5.2999999999999998
ssVcom.tencent.mm
p998
(dp999
g10
F787.60000000000309
ssVcom.miui.antispam
p1000
(dp1001
g10
F1.8999999999999999
ssg288
(dp1002
g10
F6.1000000000000005
ssg261
(dp1003
g10
F7.1000000000000005
ssg63
(dp1004
g10
F7.8000000000000007
ssg65
(dp1005
g10
F2.7000000000000002
ssVcom.android.systemui
p1006
(dp1007
g10
F2.7000000000000002
ssg69
(dp1008
g10
F3.9999999999999996
ssg625
(dp1009
g10
F37.499999999999993
ssg295
(dp1010
g10
F23.299999999999997
ssg75
(dp1011
g10
F0.69999999999999996
ssg107
(dp1012
g10
F73.500000000000028
ssVcom.happyelements.AndroidAnimal
p1013
(dp1014
g10
F5.4000000000000004
ssg83
(dp1015
g10
F1170.4000000000062
ssg85
(dp1016
g10
F668.09999999999434
ssg89
(dp1017
g10
F35.399999999999991
ssg99
(dp1018
g10
F17.599999999999998
ssg93
(dp1019
g10
F80.500000000000043
ssVcom.android.mms
p1020
(dp1021
g10
F180.50000000000009
ssg898
(dp1022
g10
F0.40000000000000002
ssg91
(dp1023
g10
F13.999999999999998
ssVcn.chinabus.main
p1024
(dp1025
g10
I1
ssg103
(dp1026
g10
F1.7
ssg105
(dp1027
g10
F3.3999999999999999
ssg77
(dp1028
g10
F2.7000000000000002
ssg905
(dp1029
g10
F5.4000000000000004
ssVcom.chinatelecom.bestpayclient
p1030
(dp1031
g10
F1.7
sssg89
(dp1032
Vcom.kingroot.kinguser
p1033
(dp1034
g10
F14.700000000000001
ssg283
(dp1035
g10
F0.40000000000000002
ssVcom.android.browser
p1036
(dp1037
g10
F0.40000000000000002
ssVcom.tencent.mobileqq
p1038
(dp1039
g10
F4.9000000000000004
ssVcom.android.mms
p1040
(dp1041
g10
F2.7999999999999998
ssVcom.UCMobile
p1042
(dp1043
g10
F10.800000000000002
ssVcom.android.phone
p1044
(dp1045
g10
I1
ssVcom.miui.home
p1046
(dp1047
g10
F38.999999999999993
ssVcom.tencent.mm
p1048
(dp1049
g10
F1.7000000000000002
sssg91
(dp1050
Vcom.kingroot.kinguser
p1051
(dp1052
g10
F8.9000000000000021
ssVcom.tencent.mobileqq
p1053
(dp1054
g10
F2.2000000000000002
ssg857
(dp1055
g10
F1.3
ssVcom.android.phone
p1056
(dp1057
g10
I1
ssVcom.miui.home
p1058
(dp1059
g10
F15.1
ssVcom.tencent.mm
p1060
(dp1061
g10
F2.7000000000000002
ssg605
(dp1062
g10
F0.40000000000000002
sssg93
(dp1063
g85
(dp1064
g10
F23.999999999999996
ssg89
(dp1065
g10
F0.90000000000000002
ssg806
(dp1066
g10
F7.9000000000000004
ssg1042
(dp1067
g10
F18.199999999999999
ssg99
(dp1068
g10
F16.199999999999999
ssVcom.tencent.mobileqq
p1069
(dp1070
g10
F26.79999999999999
ssVcom.android.packageinstaller
p1071
(dp1072
g10
I1
ssg43
(dp1073
g10
F0.69999999999999996
ssVcom.android.mms
p1074
(dp1075
g10
F1.1000000000000001
ssg81
(dp1076
g10
F1.3
ssVcom.android.deskclock
p1077
(dp1078
g10
I1
ssg295
(dp1079
g10
F2.7000000000000002
ssVcom.zhihu.android
p1080
(dp1081
g10
F1.1000000000000001
ssg722
(dp1082
g10
F1.8
ssVcom.android.phone
p1083
(dp1084
g10
F9.6000000000000014
ssVcom.innorz.venus
p1085
(dp1086
g10
F0.90000000000000002
ssg938
(dp1087
g10
F105.10000000000007
ssVcom.tencent.mm
p1088
(dp1089
g10
F16.600000000000001
ssg735
(dp1090
g10
I1
ssg29
(dp1091
g10
F4.5999999999999996
sssg95
(dp1092
Vcom.android.browser
p1093
(dp1094
g10
F4.7999999999999998
ssVcom.bestpay.creditcard
p1095
(dp1096
g10
F1.3
ssVcom.moji.mjweather
p1097
(dp1098
g10
F1.3
ssVcom.youku.phone
p1099
(dp1100
g10
I1
ssVcom.comingx.athit
p1101
(dp1102
g10
I1
ssVcom.android.deskclock
p1103
(dp1104
g10
F4.0999999999999996
ssVcom.UCMobile
p1105
(dp1106
g10
F28.899999999999988
ssVcom.netease.mobimail
p1107
(dp1108
g10
F3.1999999999999997
ssg861
(dp1109
g10
F8.6999999999999993
ssg272
(dp1110
g10
F0.40000000000000002
ssVcom.android.packageinstaller
p1111
(dp1112
g10
F2.1000000000000001
ssVcom.sankuai.meituan
p1113
(dp1114
g10
F2.8999999999999999
ssVcom.taobao.taobao
p1115
(dp1116
g10
F0.69999999999999996
ssVcom.android.phone
p1117
(dp1118
g10
F13.5
ssVcom.miui.home
p1119
(dp1120
g10
F248.00000000000006
ssVcom.tencent.mm
p1121
(dp1122
g10
F29.699999999999989
ssVcom.miui.antispam
p1123
(dp1124
g10
I1
ssVcom.baidu.input
p1125
(dp1126
g10
F0.90000000000000002
ssVcom.tencent.mobileqq
p1127
(dp1128
g10
F104.30000000000014
ssg85
(dp1129
g10
F160.60000000000014
ssVcom.miui.notes
p1130
(dp1131
g10
F1.1000000000000001
ssVcom.miui.networkassistant
p1132
(dp1133
g10
I1
ssg93
(dp1134
g10
F7.1000000000000005
ssg898
(dp1135
g10
I1
ssVcom.android.calendar
p1136
(dp1137
g10
F1.8999999999999999
ssg103
(dp1138
g10
F0.90000000000000002
ssg107
(dp1139
g10
F3.7000000000000002
ssVcom.chinatelecom.bestpayclient
p1140
(dp1141
g10
F6.1000000000000005
sssg97
(dp1142
Vcom.UCMobile
p1143
(dp1144
g10
F1.7
ssVcom.miui.home
p1145
(dp1146
g10
F1.3
ssVcom.android.mms
p1147
(dp1148
g10
I1
sssg99
(dp1149
Vcom.kingroot.kinguser
p1150
(dp1151
g10
F6.5999999999999996
ssVcom.zhihu.android
p1152
(dp1153
g10
F0.90000000000000002
ssVcom.android.settings
p1154
(dp1155
g10
F4.7000000000000002
ssg915
(dp1156
g10
F0.40000000000000002
ssg43
(dp1157
g10
F0.90000000000000002
ssVcom.UCMobile
p1158
(dp1159
g10
F0.69999999999999996
ssg922
(dp1160
g10
F0.40000000000000002
ssg430
(dp1161
g10
F0.40000000000000002
ssVcom.android.phone
p1162
(dp1163
g10
F2
ssg938
(dp1164
g10
F20.099999999999998
ssVcom.tencent.mobileqq
p1165
(dp1166
g10
F1.6000000000000001
ssg664
(dp1167
g10
F0.90000000000000002
sssg101
(dp1168
Vcom.zhihu.android
p1169
(dp1170
g10
F1.3
ssVcom.miui.home
p1171
(dp1172
g10
F3.4000000000000004
ssVcom.tencent.mobileqq
p1173
(dp1174
g10
F0.40000000000000002
sssg103
(dp1175
sg105
(dp1176
Vcom.miui.home
p1177
(dp1178
g10
I1
sssg107
(dp1179
Vcom.kingroot.kinguser
p1180
(dp1181
g10
F62.600000000000009
ssVcom.miui.gallery
p1182
(dp1183
g10
F1.3999999999999999
ssVcom.miui.notes
p1184
(dp1185
g10
F0.90000000000000002
ssVcom.youku.phone
p1186
(dp1187
g10
F1.3999999999999999
ssVcom.android.fileexplorer
p1188
(dp1189
g10
F0.69999999999999996
ssg908
(dp1190
g10
F1.7
ssVcom.tencent.mm
p1191
(dp1192
g10
F10.400000000000002
ssVcom.android.mms
p1193
(dp1194
g10
F4.2999999999999998
ssVcom.taobao.taobao
p1195
(dp1196
g10
F2.7000000000000002
ssVcom.UCMobile
p1197
(dp1198
g10
F2.3999999999999999
ssVcom.netease.mobimail
p1199
(dp1200
g10
F1.3
ssVcom.android.settings
p1201
(dp1202
g10
F0.69999999999999996
ssVcom.miui.home
p1203
(dp1204
g10
F71.400000000000034
ssVcom.tencent.mobileqq
p1205
(dp1206
g10
F17.100000000000001
sssg109
(dp1207
Vcom.android.settings
p1208
(dp1209
g10
I1
ssVcom.sankuai.meituan
p1210
(dp1211
g10
F0.90000000000000002
ssVcom.miui.home
p1212
(dp1213
g10
F6.6000000000000005
ssg497
(dp1214
g10
F2.7000000000000002
ssVcom.kingroot.kinguser
p1215
(dp1216
g10
F2.8999999999999999
sssg111
(dp1217
Vcom.UCMobile
p1218
(dp1219
g10
F1.3
ssVcom.kingroot.kinguser
p1220
(dp1221
g10
F2.7000000000000002
ssVcom.android.packageinstaller
p1222
(dp1223
g10
F0.69999999999999996
ssVcom.miui.home
p1224
(dp1225
g10
I1
ssVcom.android.settings
p1226
(dp1227
g10
I1
sssg113
(dp1228
Vcom.kingroot.kinguser
p1229
(dp1230
g10
F13.300000000000001
ssg11
(dp1231
g10
F3.7000000000000002
ssg1111
(dp1232
g10
F11.199999999999999
ssVcom.android.mms
p1233
(dp1234
g10
F9.5
ssg144
(dp1235
g10
F3.4000000000000004
ssVcom.tencent.mobileqq
p1236
(dp1237
g10
F0.40000000000000002
ssg39
(dp1238
g10
F3.3999999999999999
ssssS'edge'
p1239
g118
sS'pred'
p1240
(dp1241
g8
(dp1242
Vcom.kingroot.kinguser
p1243
g909
sg122
g1037
sg840
g171
sVcom.tencent.mobileqq
p1244
g850
sVcom.comingx.athit
p1245
g210
sg1040
g1094
sg130
g258
sVcom.netease.mobimail
p1246
g351
sVcom.miui.yellowpage
p1247
g826
sVcom.happyelements.AndroidAnimal
p1248
g842
sg196
g1190
sVcom.miui.home
p1249
g978
sVcom.tencent.mm
p1250
g589
ssg11
(dp1251
g667
g910
sVcom.android.mms
p1252
g1096
sVcom.chinatelecom.bestpayclient
p1253
g1231
sg57
g670
ssg13
(dp1254
g151
g912
sVcom.tencent.mm
p1255
g612
sVcom.android.mms
p1256
g1114
sVcom.taobao.taobao
p1257
g531
sVcom.UCMobile
p1258
g277
sVcom.android.phone
p1259
g713
sg905
g1211
sVcom.miui.home
p1260
g979
sVcom.tencent.mobileqq
p1261
g870
sVcom.miui.antispam
p1262
g651
ssg15
(dp1263
Vcom.UCMobile
p1264
g271
sVcom.kingroot.kinguser
p1265
g914
sVcom.miui.gallery
p1266
g575
sVcom.yipiao
p1267
g778
sg63
g705
sg174
g854
sg176
g478
sVcom.android.phone
p1268
g715
sVcom.android.mms
p1269
g1100
sVcom.taobao.taobao
p1270
g533
sVcom.android.deskclock
p1271
g255
sVcom.android.fileexplorer
p1272
g807
sVcom.hunantv.imgo.activity
p1273
g322
sVcom.netease.mobimail
p1274
g349
sVcom.android.systemui
p1275
g562
sVcom.happyelements.AndroidAnimal
p1276
g841
sVcom.android.camera
p1277
g1187
sVcom.miui.home
p1278
g980
sVcom.tencent.mm
p1279
g593
sg337
g1066
ssg17
(dp1280
Vcom.miui.networkassistant
p1281
g1156
sVcom.kingroot.kinguser
p1282
g916
sVcom.miui.home
p1283
g981
sVcom.tencent.mm
p1284
g594
ssg19
(dp1285
g474
g917
sVcom.tencent.mm
p1286
g596
sVcom.android.packageinstaller
p1287
g482
sVcom.android.mms
p1288
g1102
sVcom.UCMobile
p1289
g264
sVcom.miui.home
p1290
g982
sVcom.tencent.mobileqq
p1291
g855
sVcom.android.calculator2
p1292
g681
ssg21
(dp1293
Vcom.kingroot.kinguser
p1294
g919
sVcom.comingx.athit
p1295
g218
sVcom.youku.phone
p1296
g187
sg248
g1078
sVcom.tencent.mm
p1297
g598
sVcom.android.mms
p1298
g1104
sVcom.UCMobile
p1299
g265
sVcom.netease.mobimail
p1300
g363
sVcom.android.phone
p1301
g717
sVcom.miui.home
p1302
g983
sVcom.tencent.mobileqq
p1303
g856
sVcom.eg.android.AlipayGphone
p1304
g390
ssg23
(dp1305
Vcom.android.browser
p1306
g131
sVcom.youku.phone
p1307
g189
sVcom.android.deskclock
p1308
g245
sVcom.hunantv.imgo.activity
p1309
g324
sVcom.netease.mobimail
p1310
g365
sVcom.eg.android.AlipayGphone
p1311
g392
sVcom.youdao.dict
p1312
g408
sVcom.zhihu.android
p1313
g429
sg37
g457
sg41
g485
sg276
g158
sVcom.taobao.taobao
p1314
g540
sVcom.android.systemui
p1315
g566
sVcom.miui.home
p1316
g984
sg1053
g858
sg55
g657
sg288
g683
sVcom.android.phone
p1317
g719
sg291
g762
sVcom.yipiao
p1318
g789
sg81
g847
sg301
g921
sg89
g1043
sg636
g1055
sVcom.tencent.mm
p1319
g600
sVcom.android.mms
p1320
g1106
sg97
g1144
sVcom.miui.networkassistant
p1321
g1159
sVcom.android.settings
p1322
g1067
sVcom.android.camera
p1323
g1198
sVcom.sankuai.meituan.takeoutnew
p1324
g1219
ssg25
(dp1325
Vcom.kingroot.kinguser
p1326
g923
sVcom.youku.phone
p1327
g191
sVcom.miui.networkassistant
p1328
g1160
sVcom.tencent.mm
p1329
g602
sg329
g764
sVcom.android.phone
p1330
g721
sVcom.miui.home
p1331
g985
sVcom.tencent.mobileqq
p1332
g859
sVcom.eg.android.AlipayGphone
p1333
g394
ssg27
(dp1334
Vcom.UCMobile
p1335
g267
sVcom.kingroot.kinguser
p1336
g924
sVcom.moji.mjweather
p1337
g516
sVcom.youku.phone
p1338
g193
sg350
g133
sVcom.miui.networkassistant
p1339
g1161
sVcom.android.settings
p1340
g1082
sVcom.tencent.mm
p1341
g604
sVcom.android.mms
p1342
g1108
sg362
g247
sg1152
g431
sVcom.android.phone
p1343
g723
sVcom.android.camera
p1344
g1200
sVcom.miui.home
p1345
g986
sVcom.tencent.mobileqq
p1346
g860
sVcn.wps.moffice_eng
p1347
g459
ssg29
(dp1348
Vcom.youku.phone
p1349
g202
sVcom.kingroot.kinguser
p1350
g926
sg61
g697
sg609
g448
sg647
g1167
sVcom.UCMobile
p1351
g269
sg779
g1062
sg804
g1091
sVcom.android.packageinstaller
p1352
g481
sVcom.sankuai.meituan
p1353
g168
sVcom.android.mms
p1354
g1109
sVcom.android.calculator2
p1355
g691
sVcom.taobao.taobao
p1356
g550
sg737
g771
sg295
g812
sVcom.android.phone
p1357
g725
sVcom.miui.home
p1358
g987
sg1060
g606
sg735
g665
sVcom.tencent.mobileqq
p1359
g862
ssg31
(dp1360
Vcom.android.deskclock
p1361
g233
sVcom.UCMobile
p1362
g262
sVcom.miui.home
p1363
g1003
sVcom.tencent.mobileqq
p1364
g864
sVcom.kingroot.kinguser
p1365
g927
ssg33
(dp1366
Vcom.kingroot.kinguser
p1367
g929
sg1339
g1153
sg1154
g1081
sg1320
g1110
sg1105
g273
sg101
g1170
sVcom.miui.home
p1368
g989
sVcom.tencent.mm
p1369
g608
sVcom.tencent.mobileqq
p1370
g866
ssg35
(dp1371
Vcom.kingroot.kinguser
p1372
g930
sVcom.tencent.mobileqq
p1373
g867
sVcom.android.deskclock
p1374
g231
sVcom.android.phone
p1375
g726
sVcom.miui.home
p1376
g990
sVcom.tencent.mm
p1377
g610
ssg37
(dp1378
g364
g274
sVcom.miui.home
p1379
g991
sVcom.tencent.mobileqq
p1380
g868
sVcom.netease.mobimail
p1381
g373
sg954
g803
ssg39
(dp1382
g142
g489
sg144
g988
sg1030
g1238
ssg41
(dp1383
Vcom.kingroot.kinguser
p1384
g931
sg11
g143
sVcom.youku.phone
p1385
g177
sVcom.android.browser
p1386
g127
sVcom.tencent.mobileqq
p1387
g869
sVcom.moji.mjweather
p1388
g507
sg1233
g1112
sg385
g784
sVcom.UCMobile
p1389
g275
sg1324
g1223
sVcom.android.settings
p1390
g1072
sVcom.miui.home
p1391
g992
sVcom.tencent.mm
p1392
g611
sg1140
g1232
sg39
g468
ssg43
(dp1393
g85
g932
sg99
g1157
sVcom.tencent.mobileqq
p1394
g852
sVcom.android.phone
p1395
g728
sVcom.android.mms
p1396
g1098
sVcom.taobao.taobao
p1397
g537
sVcom.android.deskclock
p1398
g229
sVcom.UCMobile
p1399
g260
sVcom.yipiao
p1400
g786
sVcom.netease.mobimail
p1401
g357
sg964
g1073
sg938
g993
sVcom.tencent.mm
p1402
g591
ssg45
(dp1403
Vcom.zhihu.android
p1404
g427
sVcom.youku.phone
p1405
g185
sVcom.kingroot.kinguser
p1406
g934
sVcom.tencent.mm
p1407
g613
sVcom.moji.mjweather
p1408
g511
sVcom.android.mms
p1409
g1116
sVcom.UCMobile
p1410
g279
sVcom.hunantv.imgo.activity
p1411
g332
sVcom.android.phone
p1412
g730
sg658
g1196
sVcom.miui.home
p1413
g994
sVcom.tencent.mobileqq
p1414
g872
sVcom.miui.antispam
p1415
g655
sVcom.eg.android.AlipayGphone
p1416
g388
ssg47
(dp1417
g1218
g280
sg1222
g486
sg554
g936
ssg49
(dp1418
Vcom.miui.home
p1419
g1007
sVcom.youku.phone
p1420
g195
ssg51
(dp1421
Vcom.kingroot.kinguser
p1422
g960
sVcom.miui.notes
p1423
g1035
sg1188
g801
sVcom.tencent.mm
p1424
g616
sVcom.yipiao
p1425
g776
sVcom.UCMobile
p1426
g284
sVcom.android.camera
p1427
g1183
sVcom.miui.home
p1428
g997
sVcom.tencent.mobileqq
p1429
g890
ssg53
(dp1430
Vcom.android.browser
p1431
g140
sVcom.moji.mjweather
p1432
g524
sVcom.youku.phone
p1433
g200
sVcom.comingx.athit
p1434
g214
sVcom.android.deskclock
p1435
g253
sVcom.UCMobile
p1436
g286
sVcom.hunantv.imgo.activity
p1437
g342
sg603
g355
sVcom.eg.android.AlipayGphone
p1438
g382
sVcom.youdao.dict
p1439
g416
sg33
g435
sVcom.chinamworld.main
p1440
g442
sg126
g494
sVcom.sankuai.meituan
p1441
g166
sVcom.taobao.taobao
p1442
g548
sg1006
g570
sVcom.miui.home
p1443
g999
sVcom.tencent.mobileqq
p1444
g877
sVcom.android.calculator2
p1445
g689
sg614
g734
sg69
g770
sVcom.yipiao
p1446
g796
sg333
g811
sVcom.tuniu.app.ui
p1447
g817
sg752
g828
sg79
g839
sg631
g941
sVcom.miui.gallery
p1448
g587
sg89
g1049
sg779
g1061
sVcom.android.settings
p1449
g1089
sVcom.android.mms
p1450
g1122
sVcom.android.camera
p1451
g1192
ssg55
(dp1452
g645
g943
sVcom.android.settings
p1453
g1090
sVcom.tencent.mm
p1454
g620
sVcom.android.mms
p1455
g1124
sVcom.UCMobile
p1456
g287
sVcom.android.phone
p1457
g736
sVcom.miui.home
p1458
g1001
sVcom.tencent.mobileqq
p1459
g878
ssg57
(dp1460
g667
g945
ssg59
(dp1461
Vcom.UCMobile
p1462
g289
sVcom.miui.home
p1463
g1002
sg678
g880
sVcom.netease.mobimail
p1464
g361
sVcom.kingroot.kinguser
p1465
g947
ssg61
(dp1466
Vcom.UCMobile
p1467
g290
sg1352
g476
ssg63
(dp1468
g1279
g621
sVcom.miui.home
p1469
g1004
sVcom.tencent.mobileqq
p1470
g881
sg699
g949
ssg65
(dp1471
Vcom.kingroot.kinguser
p1472
g950
sVcom.miui.home
p1473
g1005
sVcom.tencent.mm
p1474
g622
ssg67
(dp1475
Vcom.kingroot.kinguser
p1476
g937
sVcom.sankuai.meituan
p1477
g160
sVcom.miui.notes
p1478
g1045
sVcom.youdao.dict
p1479
g410
sVcom.android.calendar
p1480
g1057
sVcom.tencent.mobileqq
p1481
g874
sVcom.moji.mjweather
p1482
g518
sVcom.android.mms
p1483
g1118
sg737
g766
sVcom.taobao.taobao
p1484
g542
sVcom.android.deskclock
p1485
g241
sVcom.UCMobile
p1486
g282
sVcom.miui.networkassistant
p1487
g1163
sVcom.netease.mobimail
p1488
g367
sg1340
g1084
sVcom.miui.home
p1489
g996
sVcom.tencent.mm
p1490
g615
sVcom.eg.android.AlipayGphone
p1491
g396
sVcom.youku.phone
p1492
g179
ssg69
(dp1493
Vcom.kingroot.kinguser
p1494
g951
sVcom.tencent.mobileqq
p1495
g882
sVcom.android.mms
p1496
g1126
sVcom.UCMobile
p1497
g292
sVcom.hunantv.imgo.activity
p1498
g330
sVcom.android.phone
p1499
g738
sVcom.miui.home
p1500
g1008
sVcom.tencent.mm
p1501
g624
ssg71
(dp1502
Vcom.kingroot.kinguser
p1503
g953
sg775
g579
sVcom.youku.phone
p1504
g183
sVcom.tencent.mm
p1505
g626
sg785
g514
sVcom.UCMobile
p1506
g294
sg922
g336
sVcom.miui.home
p1507
g1009
sVcom.tencent.mobileqq
p1508
g883
sg605
g386
ssg73
(dp1509
Vcom.kingroot.kinguser
p1510
g955
sg800
g581
sg802
g453
sVcom.tencent.mobileqq
p1511
g884
sg595
g220
sVcom.android.deskclock
p1512
g235
sg484
g296
sVcom.hunantv.imgo.activity
p1513
g334
sg309
g1079
sVcom.android.camera
p1514
g1189
sg491
g1010
sVcom.tencent.mm
p1515
g628
sVcom.eg.android.AlipayGphone
p1516
g380
ssg75
(dp1517
Vcom.UCMobile
p1518
g297
sg783
g487
sVcom.miui.home
p1519
g1011
sg385
g790
ssg77
(dp1520
Vcom.kingroot.kinguser
p1521
g956
sVcom.miui.home
p1522
g1028
sVcom.tencent.mobileqq
p1523
g885
sVcom.android.phone
p1524
g753
sg825
g136
ssg79
(dp1525
Vcom.tencent.mobileqq
p1526
g887
sg836
g1014
sVcom.tencent.mm
p1527
g630
sVcom.kingroot.kinguser
p1528
g957
ssg81
(dp1529
g1390
g1076
sg1071
g495
sVcom.UCMobile
p1530
g298
ssg83
(dp1531
g8
g125
sg13
g154
sVcom.youku.phone
p1532
g175
sg1101
g224
sVcom.android.deskclock
p1533
g239
sVcom.UCMobile
p1534
g300
sg393
g326
sVcom.netease.mobimail
p1535
g371
sVcom.eg.android.AlipayGphone
p1536
g399
sVcom.youdao.dict
p1537
g404
sVcom.zhihu.android
p1538
g437
sg230
g446
sg802
g463
sg126
g498
sVcom.moji.mjweather
p1539
g505
sg426
g535
sVcom.android.systemui
p1540
g564
sg51
g577
sVcom.tencent.mm
p1541
g618
sg55
g663
sVcom.android.calculator2
p1542
g679
sVcom.tencent.androidqqmail
p1543
g704
sg614
g742
sg69
g758
sg625
g782
sg333
g814
sg1447
g821
sVcom.miui.yellowpage
p1544
g832
sg1013
g835
sVcom.kingroot.kinguser
p1545
g959
sVcom.miui.home
p1546
g1015
sg891
g1039
sg636
g1054
sVcom.android.settings
p1547
g1070
sVcom.android.mms
p1548
g1128
sg420
g1166
sg1024
g1174
sVcom.android.camera
p1549
g1206
sg109
g1214
sVcom.chinatelecom.bestpayclient
p1550
g1237
ssg85
(dp1551
g1431
g121
sVcom.sankuai.meituan
p1552
g152
sVcom.youku.phone
p1553
g173
sg19
g208
sg21
g227
sg23
g302
sVcom.hunantv.imgo.activity
p1554
g320
sg192
g345
sVcom.eg.android.AlipayGphone
p1555
g378
sg31
g402
sg33
g419
sVcn.wps.moffice_eng
p1556
g451
sg1287
g475
sVcom.moji.mjweather
p1557
g501
sg1314
g529
sg47
g555
sg1315
g560
sg1119
g1016
sg53
g632
sVcom.miui.antispam
p1558
g646
sg57
g668
sVcom.android.calculator2
p1559
g675
sVcom.baidu.lbs.waimai
p1560
g694
sg1543
g700
sVcom.youdao.bigbang
p1561
g708
sg67
g744
sg71
g774
sVcom.android.fileexplorer
p1562
g799
sVcom.TianYi
p1563
g466
sg1444
g888
sVcom.miui.gallery
p1564
g573
sVcom.miui.notes
p1565
g1034
sg91
g1052
sg93
g1064
sg95
g1129
sVcom.miui.networkassistant
p1566
g1151
sg107
g1181
sVcom.innorz.venus
p1567
g1216
sg111
g1221
sg113
g1230
ssg87
(dp1568
g8
g138
sg11
g145
sg1441
g164
sg15
g198
sg19
g222
sg1435
g251
sg23
g304
sg25
g340
sg1274
g369
sg29
g398
sg1439
g414
sg33
g433
sg35
g444
sg802
g461
sg41
g492
sg43
g522
sg1314
g546
sVme.ele
p1569
g557
sg49
g568
sg51
g585
sg998
g634
sg1000
g661
sg59
g687
sg1560
g696
sg63
g702
sg65
g710
sg873
g732
sg69
g768
sVcom.yipiao
p1570
g794
sg73
g809
sg1447
g819
sg1544
g830
sg79
g837
sg83
g876
sg85
g939
sg89
g1047
sg636
g1059
sg93
g1087
sg95
g1120
sg97
g1146
sg99
g1164
sg101
g1172
sg105
g1178
sVcom.android.camera
p1571
g1204
sVcom.innorz.venus
p1572
g1213
sg1324
g1225
sg1253
g1235
ssg89
(dp1573
Vcom.kingroot.kinguser
p1574
g961
sg257
g123
sg1322
g1065
sVcom.android.mms
p1575
g1131
sg291
g756
sVcom.UCMobile
p1576
g306
sVcom.netease.mobimail
p1577
g347
sVcom.android.camera
p1578
g1185
sg135
g824
sVcom.miui.home
p1579
g1017
sVcom.tencent.mm
p1580
g635
sVcom.tencent.mobileqq
p1581
g892
ssg91
(dp1582
g1051
g963
sVcom.tencent.mobileqq
p1583
g893
sVcom.android.mms
p1584
g1137
sVcom.yipiao
p1585
g780
sg186
g237
sVcom.android.phone
p1586
g746
sVcom.miui.home
p1587
g1023
sVcom.tencent.mm
p1588
g637
ssg93
(dp1589
g270
g204
sg19
g212
sVcom.android.deskclock
p1590
g249
sg1389
g310
sVcom.hunantv.imgo.activity
p1591
g338
sVcom.netease.mobimail
p1592
g375
sVcom.zhihu.android
p1593
g423
sg41
g480
sVcom.moji.mjweather
p1594
g526
sVcom.taobao.taobao
p1595
g552
sVcom.android.phone
p1596
g748
sg1119
g1019
sVcom.tencent.mm
p1597
g639
sg735
g650
sVcom.sankuai.meituan.takeoutnew
p1598
g1227
sg295
g805
sg81
g845
sg85
g965
sg420
g1155
sVcom.tencent.mobileqq
p1599
g895
sg95
g1134
sg1323
g1202
sVcom.innorz.venus
p1600
g1209
sg360
g685
ssg95
(dp1601
g1093
g129
sg1095
g147
sg530
g156
sVcom.youku.phone
p1602
g181
sVcom.comingx.athit
p1603
g216
sVcom.android.deskclock
p1604
g243
sVcom.UCMobile
p1605
g312
sg922
g328
sVcom.netease.mobimail
p1606
g359
sVcom.eg.android.AlipayGphone
p1607
g384
sVcom.TianYi
p1608
g470
sVcom.zhihu.android
p1609
g425
sVcom.chinamworld.main
p1610
g440
sVcn.wps.moffice_eng
p1611
g455
sg467
g483
sg1097
g509
sg1257
g538
sg1117
g750
sVcom.miui.home
p1612
g1021
sg1127
g897
sg1000
g653
sg1537
g406
sVcom.tencent.mm
p1613
g641
sg1125
g760
sg335
g787
sVcom.kingroot.kinguser
p1614
g967
sVcom.miui.notes
p1615
g1041
sVcom.android.settings
p1616
g1075
sg898
g1148
sVcom.android.camera
p1617
g1194
sVcom.chinatelecom.bestpayclient
p1618
g1234
ssg97
(dp1619
Vcom.UCMobile
p1620
g313
sVcom.miui.home
p1621
g1022
sVcom.tencent.mobileqq
p1622
g899
sVcom.android.mms
p1623
g1135
ssg99
(dp1624
g85
g968
sg1593
g421
sg93
g1068
sg727
g503
sVcom.android.mms
p1625
g1133
sg1197
g308
sg430
g353
sg1395
g751
sg1119
g1018
sVcom.tencent.mobileqq
p1626
g901
sg735
g648
sg360
g677
ssg101
(dp1627
Vcom.UCMobile
p1628
g314
sVcom.android.packageinstaller
p1629
g479
sg1171
g1025
sVcom.kingroot.kinguser
p1630
g969
ssg103
(dp1631
Vcom.miui.home
p1632
g1026
sVcom.android.mms
p1633
g1138
ssg105
(dp1634
g8
g134
sg137
g1027
sg124
g902
ssg107
(dp1635
g1243
g971
sVcom.miui.gallery
p1636
g583
sVcom.youku.phone
p1637
g197
sVcom.tencent.mobileqq
p1638
g904
sVcom.moji.mjweather
p1639
g520
sVcom.android.mms
p1640
g1139
sVcom.taobao.taobao
p1641
g544
sVcom.UCMobile
p1642
g316
sVcom.yipiao
p1643
g792
sVcom.android.phone
p1644
g740
sVcom.sankuai.meituan
p1645
g162
sVcom.miui.home
p1646
g1012
sg415
g642
sg1415
g659
sg1439
g412
ssg109
(dp1647
Vcom.kingroot.kinguser
p1648
g972
sg1208
g1086
sg126
g490
sVcom.tencent.mm
p1649
g643
sVcom.miui.home
p1650
g1029
sVcom.tencent.mobileqq
p1651
g906
ssg111
(dp1652
g1220
g974
sg506
g488
sg1388
g512
ssg113
(dp1653
g1229
g976
sg11
g149
sVcom.android.packageinstaller
p1654
g496
sg1233
g1141
sVcom.UCMobile
p1655
g317
sg144
g1031
sg57
g672
sg39
g472
sssS'adj'
p1656
g118
sb.