ccopy_reg
_reconstructor
p1
(cnetworkx.classes.digraph
DiGraph
p2
c__builtin__
object
p3
NtRp4
(dp5
S'node'
p6
(dp7
Vcom.youku.phone
p8
(dp9
S'weight'
p10
F0.033906951435178891
ssVcom.baidu.netdisk
p11
(dp12
g10
F0.018330839341586178
ssVcom.android.deskclock
p13
(dp14
g10
F0.0017344578968847776
ssVcom.UCMobile
p15
(dp16
g10
F0.39640865188409741
ssVcom.android.notepad
p17
(dp18
g10
F0.0030608080533260783
ssVcom.sina.weibo
p19
(dp20
g10
F0.055876751462386069
ssVcom.android.contacts
p21
(dp22
g10
F0.00047612569718405657
ssVcom.eg.android.AlipayGphone
p23
(dp24
g10
F0.0088083253979050462
ssVcom.android.packageinstaller
p25
(dp26
g10
F0.00088423343762753371
ssVcom.sankuai.meituan
p27
(dp28
g10
F0.012073187321452863
ssVcom.android.gallery3d
p29
(dp30
g10
F0.0045912120799891168
ssVcom.jingdong.app.mall
p31
(dp32
g10
F0.0028567541831043394
ssVcom.cmcc.wificity
p33
(dp34
g10
F0.023262141205278194
ssVcom.android.phone
p35
(dp36
g10
F0.014079717045299959
ssVcom.tencent.mobileqq
p37
(dp38
g10
F0.060059855801931711
ssVcom.duomi.android
p39
(dp40
g10
F0.0085022445925724398
ssVcom.tencent.mm
p41
(dp42
g10
F0.30356414093320638
ssVcom.sqr5.android.audioplayer
p43
(dp44
g10
F0.00034008978370289757
ssVcom.android.settings
p45
(dp46
g10
F0.001122296286219562
ssVcom.android.mms
p47
(dp48
g10
F0.010644810229900693
ssVcom.tencent.lightalk
p49
(dp50
g10
F0.00057815263229492591
ssVcom.ting.mp3.android
p51
(dp52
g10
F0.038838253298870903
sssS'node_dict_factory'
p53
c__builtin__
dict
p54
sS'edge_attr_dict_factory'
p55
g54
sS'succ'
p56
(dp57
g8
(dp58
Vcom.tencent.mm
p59
(dp60
g10
F1.6000000000000001
ssVcom.tencent.mobileqq
p61
(dp62
g10
F1.3999999999999999
sssg11
(dp63
Vcom.tencent.mobileqq
p64
(dp65
g10
F10.700000000000001
ssVcom.android.packageinstaller
p66
(dp67
g10
F2.2999999999999998
ssVcom.sankuai.meituan
p68
(dp69
g10
F0.90000000000000002
ssVcom.android.gallery3d
p70
(dp71
g10
F0.40000000000000002
ssVcom.android.contacts
p72
(dp73
g10
I1
ssVcom.android.deskclock
p74
(dp75
g10
F0.90000000000000002
ssVcom.UCMobile
p76
(dp77
g10
F7.2000000000000002
ssVcom.tencent.mm
p78
(dp79
g10
F12
ssg39
(dp80
g10
F0.69999999999999996
sssg13
(dp81
Vcom.tencent.mobileqq
p82
(dp83
g10
F0.40000000000000002
ssVcom.android.mms
p84
(dp85
g10
I1
ssVcom.baidu.netdisk
p86
(dp87
g10
F0.90000000000000002
ssVcom.UCMobile
p88
(dp89
g10
F5.2000000000000002
ssVcom.android.settings
p90
(dp91
g10
F0.90000000000000002
ssVcom.tencent.mm
p92
(dp93
g10
F1.1000000000000001
ssg72
(dp94
g10
F0.69999999999999996
sssg15
(dp95
g43
(dp96
g10
F1.3999999999999999
ssg8
(dp97
g10
I1
ssVcom.android.mms
p98
(dp99
g10
F3.7999999999999998
ssg19
(dp100
g10
F12.099999999999998
ssg27
(dp101
g10
F1.3999999999999999
ssg29
(dp102
g10
F2.6000000000000001
ssVcom.baidu.netdisk
p103
(dp104
g10
F6.4000000000000004
ssg49
(dp105
g10
I1
ssVcom.duomi.android
p106
(dp107
g10
F2.0999999999999996
ssVcom.android.deskclock
p108
(dp109
g10
I1
ssVcom.cmcc.wificity
p110
(dp111
g10
I2
ssg17
(dp112
g10
F5.9000000000000004
ssg45
(dp113
g10
F5.7999999999999998
ssVcom.tencent.mm
p114
(dp115
g10
F69.200000000000017
ssg25
(dp116
g10
F4.5
ssg23
(dp117
g10
F1.8999999999999999
ssVcom.tencent.mobileqq
p118
(dp119
g10
F47.099999999999994
sssg17
(dp120
Vcom.tencent.mm
p121
(dp122
g10
F1.7
ssVcom.android.mms
p123
(dp124
g10
F1.8999999999999999
ssg51
(dp125
g10
F0.90000000000000002
ssVcom.UCMobile
p126
(dp127
g10
F4.8000000000000007
ssg19
(dp128
g10
F2.6000000000000001
ssVcom.eg.android.AlipayGphone
p129
(dp130
g10
I1
ssVcom.tencent.mobileqq
p131
(dp132
g10
F0.90000000000000002
sssg19
(dp133
Vcom.UCMobile
p134
(dp135
g10
F8.4000000000000004
ssVcom.android.settings
p136
(dp137
g10
F3.3999999999999999
ssVcom.tencent.mm
p138
(dp139
g10
F3.5999999999999996
ssVcom.android.notepad
p140
(dp141
g10
F1.1000000000000001
ssVcom.tencent.mobileqq
p142
(dp143
g10
F3
sssg21
(dp144
g74
(dp145
g10
I1
sssg23
(dp146
Vcom.tencent.mm
p147
(dp148
g10
F0.90000000000000002
ssVcom.tencent.mobileqq
p149
(dp150
g10
I1
ssVcom.android.mms
p151
(dp152
g10
I1
sssg25
(dp153
Vcom.UCMobile
p154
(dp155
g10
F3.8999999999999999
ssVcom.tencent.mm
p156
(dp157
g10
F2
ssVcom.duomi.android
p158
(dp159
g10
I1
ssVcom.tencent.mobileqq
p160
(dp161
g10
F2.6999999999999997
sssg27
(dp162
Vcom.UCMobile
p163
(dp164
g10
I1
ssVcom.android.packageinstaller
p165
(dp166
g10
F0.90000000000000002
ssVcom.tencent.mm
p167
(dp168
g10
F3.7999999999999998
ssg39
(dp169
g10
F3.4000000000000004
ssVcom.tencent.mobileqq
p170
(dp171
g10
F2.6000000000000001
sssg29
(dp172
g121
(dp173
g10
F4.9000000000000004
ssVcom.android.mms
p174
(dp175
g10
F0.80000000000000004
ssg51
(dp176
g10
F0.69999999999999996
ssVcom.UCMobile
p177
(dp178
g10
F0.69999999999999996
ssVcom.cmcc.wificity
p179
(dp180
g10
I1
ssg17
(dp181
g10
F1.8999999999999999
ssVcom.tencent.mobileqq
p182
(dp183
g10
F2.7999999999999998
ssg129
(dp184
g10
F0.69999999999999996
sssg31
(dp185
Vcom.tencent.mobileqq
p186
(dp187
g10
F1.8999999999999999
sssg33
(dp188
Vcom.android.mms
p189
(dp190
g10
F3.5999999999999996
ssVcom.android.gallery3d
p191
(dp192
g10
I1
ssVcom.UCMobile
p193
(dp194
g10
F2
ssVcom.android.notepad
p195
(dp196
g10
F1.7
ssVcom.android.settings
p197
(dp198
g10
F1.1000000000000001
ssVcom.tencent.mm
p199
(dp200
g10
F0.69999999999999996
ssg129
(dp201
g10
F1.3
ssVcom.tencent.mobileqq
p202
(dp203
g10
F0.90000000000000002
sssg35
(dp204
Vcom.UCMobile
p205
(dp206
g10
I1
ssVcom.tencent.mm
p207
(dp208
g10
F1.3
ssVcom.android.contacts
p209
(dp210
g10
I1
ssVcom.tencent.mobileqq
p211
(dp212
g10
F0.69999999999999996
sssg37
(dp213
g43
(dp214
g10
F0.69999999999999996
ssVcom.sina.weibo
p215
(dp216
g10
F0.69999999999999996
ssVcom.android.gallery3d
p217
(dp218
g10
F1.6000000000000001
ssVcom.youku.phone
p219
(dp220
g10
F1.8999999999999999
ssg45
(dp221
g10
F2.1000000000000001
ssg25
(dp222
g10
F2
ssg27
(dp223
g10
F2.3999999999999999
ssVcom.android.mms
p224
(dp225
g10
F8.6000000000000014
ssg11
(dp226
g10
F8.8000000000000007
ssVcom.duomi.android
p227
(dp228
g10
F4.1999999999999993
ssVcom.UCMobile
p229
(dp230
g10
F65.5
ssg33
(dp231
g10
F1.8999999999999999
ssg140
(dp232
g10
F3.1999999999999997
ssg41
(dp233
g10
F101.00000000000009
ssg21
(dp234
g10
F0.90000000000000002
ssg23
(dp235
g10
F0.69999999999999996
sssg39
(dp236
g167
(dp237
g10
F9.4000000000000004
ssg165
(dp238
g10
I1
ssVcom.sankuai.meituan
p239
(dp240
g10
I1
ssg217
(dp241
g10
F0.90000000000000002
ssVcom.UCMobile
p242
(dp243
g10
F1.3999999999999999
ssg170
(dp244
g10
F4
sssg41
(dp245
g43
(dp246
g10
F0.90000000000000002
ssg215
(dp247
g10
F0.40000000000000002
ssg219
(dp248
g10
F1.1000000000000001
ssg98
(dp249
g10
F10.700000000000001
ssg25
(dp250
g10
F1.8
ssg27
(dp251
g10
F3.1999999999999997
ssg29
(dp252
g10
F3.5
ssg11
(dp253
g10
F7.1000000000000014
ssg39
(dp254
g10
F8
ssg51
(dp255
g10
F1.3999999999999999
ssg15
(dp256
g10
F66.699999999999974
ssg33
(dp257
g10
F2.7000000000000002
ssg17
(dp258
g10
F3.5
ssg45
(dp259
g10
F1.6000000000000001
ssVcom.tencent.mobileqq
p260
(dp261
g10
F129.10000000000014
ssg21
(dp262
g10
I1
ssg23
(dp263
g10
F0.40000000000000002
sssg43
(dp264
sg45
(dp265
Vcom.tencent.mm
p266
(dp267
g10
F1.7
ssVcom.sina.weibo
p268
(dp269
g10
I1
ssVcom.android.notepad
p270
(dp271
g10
F0.40000000000000002
ssg82
(dp272
g10
F0.90000000000000002
ssVcom.UCMobile
p273
(dp274
g10
I2
sssg47
(dp275
Vcom.tencent.mobileqq
p276
(dp277
g10
F13.199999999999999
ssVcom.android.gallery3d
p278
(dp279
g10
I1
ssg86
(dp280
g10
I1
ssg74
(dp281
g10
F0.69999999999999996
ssVcom.UCMobile
p282
(dp283
g10
F4.7999999999999998
ssVcom.android.settings
p284
(dp285
g10
F1.8
ssVcom.tencent.mm
p286
(dp287
g10
F8.3000000000000007
ssg72
(dp288
g10
F0.90000000000000002
sssg49
(dp289
sg51
(dp290
ssS'edge'
p291
g57
sS'graph'
p292
(dp293
sS'adjlist_dict_factory'
p294
g54
sS'adj'
p295
g57
sS'pred'
p296
(dp297
g8
(dp298
Vcom.UCMobile
p299
g97
sg59
g248
sVcom.tencent.mobileqq
p300
g220
ssg11
(dp301
Vcom.android.deskclock
p302
g87
sVcom.tencent.mobileqq
p303
g226
sVcom.tencent.mm
p304
g253
sg84
g280
sVcom.UCMobile
p305
g104
ssg13
(dp306
Vcom.UCMobile
p307
g109
sg84
g281
sg86
g75
sg72
g145
ssg15
(dp308
g27
g164
sg19
g135
sg25
g155
sVcom.tencent.mm
p309
g256
sg47
g283
sg11
g77
sg13
g89
sg33
g194
sVcom.android.phone
p310
g206
sVcom.android.notepad
p311
g127
sg197
g274
sg217
g178
sVcom.tencent.mobileqq
p312
g230
sg227
g243
ssg17
(dp313
g90
g271
sg114
g258
sg29
g181
sg15
g112
sVcom.cmcc.wificity
p314
g196
sVcom.sina.weibo
p315
g141
sg142
g232
ssg19
(dp316
Vcom.UCMobile
p317
g100
sg136
g269
sg138
g247
sg311
g128
sg142
g216
ssg21
(dp318
Vcom.tencent.mobileqq
p319
g234
sg84
g288
sg86
g73
sg302
g94
sg35
g210
sVcom.tencent.mm
p320
g262
ssg23
(dp321
Vcom.tencent.mm
p322
g263
sg191
g184
sVcom.UCMobile
p323
g117
sg314
g201
sg195
g130
sVcom.tencent.mobileqq
p324
g235
ssg25
(dp325
Vcom.tencent.mm
p326
g250
sg68
g166
sVcom.baidu.netdisk
p327
g67
sVcom.UCMobile
p328
g116
sVcom.tencent.mobileqq
p329
g222
sg39
g238
ssg27
(dp330
Vcom.UCMobile
p331
g101
sVcom.tencent.mm
p332
g251
sVcom.tencent.mobileqq
p333
g223
sVcom.baidu.netdisk
p334
g69
sVcom.duomi.android
p335
g240
ssg29
(dp336
Vcom.tencent.mobileqq
p337
g218
sVcom.android.mms
p338
g279
sVcom.baidu.netdisk
p339
g71
sg15
g102
sg314
g192
sg309
g252
sg106
g241
ssg31
(dp340
sg33
(dp341
Vcom.tencent.mobileqq
p342
g231
sg191
g180
sVcom.tencent.mm
p343
g257
sVcom.UCMobile
p344
g111
ssg35
(dp345
sg37
(dp346
g217
g183
sg8
g62
sg315
g143
sg25
g161
sVcom.sankuai.meituan
p347
g171
sg47
g277
sVcom.baidu.netdisk
p348
g65
sg31
g187
sg108
g83
sVcom.UCMobile
p349
g119
sVcom.cmcc.wificity
p350
g203
sg270
g132
sg310
g212
sg41
g261
sg335
g244
sg23
g150
sg90
g272
ssg39
(dp351
Vcom.tencent.mm
p352
g254
sg165
g159
sg68
g169
sg334
g80
sVcom.UCMobile
p353
g107
sVcom.tencent.mobileqq
p354
g228
ssg41
(dp355
g315
g139
sg8
g60
sg29
g173
sg25
g157
sg347
g168
sg98
g287
sg348
g79
sg13
g93
sg15
g115
sg350
g200
sg310
g208
sg17
g122
sg284
g267
sg37
g233
sg335
g237
sg23
g148
ssg43
(dp356
Vcom.UCMobile
p357
g96
sVcom.tencent.mm
p358
g246
sVcom.tencent.mobileqq
p359
g214
ssg45
(dp360
Vcom.tencent.mm
p361
g259
sVcom.android.mms
p362
g285
sg108
g91
sVcom.UCMobile
p363
g113
sg33
g198
sVcom.sina.weibo
p364
g137
sVcom.tencent.mobileqq
p365
g221
ssg47
(dp366
Vcom.tencent.mobileqq
p367
g225
sg70
g175
sg302
g85
sVcom.UCMobile
p368
g99
sg33
g190
sg270
g124
sVcom.tencent.mm
p369
g249
sg129
g152
ssg49
(dp370
Vcom.UCMobile
p371
g105
ssg51
(dp372
g29
g176
sg114
g255
sg17
g125
sssb.