ccopy_reg
_reconstructor
p1
(cnetworkx.classes.digraph
DiGraph
p2
c__builtin__
object
p3
NtRp4
(dp5
S'node'
p6
(dp7
Vcom.android.browser
p8
(dp9
S'weight'
p10
F0.017475826713702004
ssVcom.lingan.seeyou
p11
(dp12
g10
F0.0006623861127325331
ssVcom.youdao.dict
p13
(dp14
g10
F0.011037230667715656
ssVcom.suning.mobile.ebuy
p15
(dp16
g10
F0.00075374971448874449
ssVone.hh.oneclient
p17
(dp18
g10
F0.0033296957084485955
ssVcom.qiyi.video
p19
(dp20
g10
F0.065614293327919196
ssVcom.tengchong.juhuiwan
p21
(dp22
g10
F7.6136334796842877e-06
ssVcom.douban.daily
p23
(dp24
g10
F1.7765144785930004e-05
ssVcom.taobao.taobao
p25
(dp26
g10
F0.020615181585158491
ssVcom.sankuai.meituan
p27
(dp28
g10
F0.00042128771920919725
ssVcom.sina.weibo
p29
(dp30
g10
F0.075192244245362028
ssVcom.eg.android.AlipayGphone
p31
(dp32
g10
F0.0035378016902266325
ssVcn.dxy.android.aspirin
p33
(dp34
g10
F0.00017511357003273861
ssVcom.oppo.preventmode
p35
(dp36
g10
F0.004999619318326016
ssVcom.zhihu.android
p37
(dp38
g10
F0.011161586681217165
ssVcom.ywqc.three
p39
(dp40
g10
F0.042689642920589806
ssVcn.wps.moffice_eng
p41
(dp42
g10
F0.0026850747405019922
ssVcom.qihoo.freewifi
p43
(dp44
g10
F0.0062761718650864145
ssVcom.android.packageinstaller
p45
(dp46
g10
F0.00014465903611400146
ssVcom.oppo.camera
p47
(dp48
g10
F0.00095931781844022033
ssVcom.android.gallery3d
p49
(dp50
g10
F0.0011395071441260818
ssVme.ele
p51
(dp52
g10
F0.020810598177803719
ssVcom.qihoo360.mobilesafe
p53
(dp54
g10
F0.032601578560008122
ssVcn.ledongli.ldl
p55
(dp56
g10
F0.0019719310712382307
ssVcom.tencent.tmgp.qjnn
p57
(dp58
g10
F0.15587391822957644
ssVcom.android.phone
p59
(dp60
g10
F0.044166687815648552
ssVcom.tencent.mobileqq
p61
(dp62
g10
F0.090962617059614753
ssVcom.duomi.android
p63
(dp64
g10
F0.014668933837525062
ssVcom.sankuai.meituan.takeoutnew
p65
(dp66
g10
F0.0036646955815547041
ssVcom.android.flashlight
p67
(dp68
g10
F0.00092886328452148313
ssVcom.qihoo.secstore
p69
(dp70
g10
F0.0015404918407227876
ssVcom.android.calculator
p71
(dp72
g10
F0.0020810598177803722
ssVfm.xiami.main
p73
(dp74
g10
F0.0029388625231581353
ssVcom.nearme.themespace
p75
(dp76
g10
F0.00094662842930741311
ssVcom.qihoo360.contacts
p77
(dp78
g10
F0.072722889120117762
ssVcom.oppo.weather
p79
(dp80
g10
F0.0035251123010938252
ssVcom.android.fileexplorer
p81
(dp82
g10
F0.00010912874654214146
ssVcom.Qunar
p83
(dp84
g10
F0.00057863614445600585
ssVcom.jzyd.BanTang
p85
(dp86
g10
F0.0004593558866076187
ssVcom.dianping.v1
p87
(dp88
g10
F0.00092886328452148313
ssVcom.MobileTicket
p89
(dp90
g10
F0.0010912874654214145
ssVcom.douban.frodo
p91
(dp92
g10
F0.00044920437530137302
ssVcom.kibey.echo
p93
(dp94
g10
F0.023617491053980661
ssVcom.android.calendar
p95
(dp96
g10
F0.00010405299088901861
ssVcom.tencent.mm
p97
(dp98
g10
F0.18411288480572546
ssVcom.oppo.market
p99
(dp100
g10
F1.0151511306245717e-05
ssVcom.android.mms
p101
(dp102
g10
F0.01352942669339898
ssVcom.shanbay.words
p103
(dp104
g10
F0.040819226962414031
ssVcom.xiaoenai.app
p105
(dp106
g10
F0.01319188894246631
ssVcom.greenpoint.android.mc10086.activity
p107
(dp108
g10
F0.0014491282389665762
ssVcom.android.settings
p109
(dp110
g10
F0.00019287871481866862
ssVcom.oppo.alarmclock
p111
(dp112
g10
F0.0010430677867167475
ssVcom.oppo.speechassist
p113
(dp114
g10
F1.2689389132807147e-05
sssS'node_dict_factory'
p115
c__builtin__
dict
p116
sS'edge_attr_dict_factory'
p117
g116
sS'succ'
p118
(dp119
g8
(dp120
Vcom.ywqc.three
p121
(dp122
g10
I2
ssVcom.kibey.echo
p123
(dp124
g10
F0.69999999999999996
ssg15
(dp125
g10
F4.4000000000000004
ssVcom.qihoo.freewifi
p126
(dp127
g10
F4.9000000000000004
ssVcom.tencent.mobileqq
p128
(dp129
g10
F7.8000000000000007
ssVcom.sina.weibo
p130
(dp131
g10
F3.2000000000000002
ssVcom.android.mms
p132
(dp133
g10
F4.0999999999999996
ssVme.ele
p134
(dp135
g10
I1
ssVcom.qihoo360.contacts
p136
(dp137
g10
F19.599999999999998
ssVcom.tencent.tmgp.qjnn
p138
(dp139
g10
I4
ssVcom.qihoo360.mobilesafe
p140
(dp141
g10
F6.0999999999999996
ssVcom.android.phone
p142
(dp143
g10
F1.3999999999999999
ssVcom.oppo.alarmclock
p144
(dp145
g10
I1
ssVcom.tencent.mm
p146
(dp147
g10
F17.899999999999999
ssVcom.duomi.android
p148
(dp149
g10
I2
ssVcom.eg.android.AlipayGphone
p150
(dp151
g10
F1.3
sssg11
(dp152
Vcom.tencent.mm
p153
(dp154
g10
F5.9000000000000004
ssVcom.qihoo360.contacts
p155
(dp156
g10
F5.0999999999999996
sssg13
(dp157
Vcom.android.browser
p158
(dp159
g10
I2
ssVcom.qihoo.secstore
p160
(dp161
g10
F2.3999999999999999
ssVcom.qihoo.freewifi
p162
(dp163
g10
F0.90000000000000002
ssVcom.tencent.mm
p164
(dp165
g10
F1.8
ssVcom.android.mms
p166
(dp167
g10
I1
ssVcom.qihoo360.mobilesafe
p168
(dp169
g10
F3.7000000000000002
ssVcom.tencent.mobileqq
p170
(dp171
g10
I1
ssVcom.shanbay.words
p172
(dp173
g10
F1.7
sssg15
(dp174
Vcom.android.browser
p175
(dp176
g10
F3.3999999999999999
ssg132
(dp177
g10
F2.7000000000000002
sssg17
(dp178
Vcom.android.browser
p179
(dp180
g10
I1
ssVcom.kibey.echo
p181
(dp182
g10
I1
ssVcom.tencent.mobileqq
p183
(dp184
g10
F1.8999999999999999
sssg19
(dp185
Vcom.oppo.preventmode
p186
(dp187
g10
I2
ssVcom.android.browser
p188
(dp189
g10
F1.8
ssVcom.android.flashlight
p190
(dp191
g10
I1
ssVcom.youdao.dict
p192
(dp193
g10
I1
ssVcn.ledongli.ldl
p194
(dp195
g10
F1.7
ssVcom.sina.weibo
p196
(dp197
g10
F2.3999999999999999
ssVcom.android.mms
p198
(dp199
g10
I1
ssVcom.tencent.tmgp.qjnn
p200
(dp201
g10
I1
ssVcom.qihoo360.contacts
p202
(dp203
g10
F4.2999999999999998
ssVcom.xiaoenai.app
p204
(dp205
g10
F3.7000000000000002
ssVme.ele
p206
(dp207
g10
F1.7
ssVcom.qihoo360.mobilesafe
p208
(dp209
g10
F2.8999999999999999
ssVcom.android.phone
p210
(dp211
g10
F3.7000000000000002
ssVcom.oppo.alarmclock
p212
(dp213
g10
F1.7000000000000002
ssVcom.tencent.mm
p214
(dp215
g10
F7.0000000000000009
ssVcn.wps.moffice_eng
p216
(dp217
g10
F0.69999999999999996
ssVcom.tencent.mobileqq
p218
(dp219
g10
F1.8999999999999999
sssg21
(dp220
sg23
(dp221
sg25
(dp222
Vcom.android.browser
p223
(dp224
g10
I1
ssVcom.android.gallery3d
p225
(dp226
g10
I1
ssVcom.android.settings
p227
(dp228
g10
I1
ssVcom.android.mms
p229
(dp230
g10
F4.2999999999999998
ssg75
(dp231
g10
F1.6000000000000001
ssVcom.qihoo360.contacts
p232
(dp233
g10
F3.3999999999999999
ssVcom.tencent.tmgp.qjnn
p234
(dp235
g10
F2.8999999999999999
ssVcom.android.phone
p236
(dp237
g10
F1.7000000000000002
ssVcom.oppo.alarmclock
p238
(dp239
g10
I1
ssVcom.tencent.mm
p240
(dp241
g10
F8.5
ssVcom.eg.android.AlipayGphone
p242
(dp243
g10
F1.7
ssg113
(dp244
g10
I1
sssg27
(dp245
Vcom.tencent.mm
p246
(dp247
g10
I2
sssg29
(dp248
Vcom.zhihu.android
p249
(dp250
g10
I1
ssVcom.android.gallery3d
p251
(dp252
g10
I1
ssg123
(dp253
g10
F4.0999999999999996
ssVcom.shanbay.words
p254
(dp255
g10
F0.40000000000000002
ssVcom.qihoo.freewifi
p256
(dp257
g10
F2.2999999999999998
ssVcom.android.browser
p258
(dp259
g10
I1
ssVcom.tencent.mobileqq
p260
(dp261
g10
F11.199999999999999
ssVcom.qihoo360.mobilesafe
p262
(dp263
g10
F4.4000000000000004
ssVcom.android.mms
p264
(dp265
g10
F4
ssVcom.tencent.tmgp.qjnn
p266
(dp267
g10
F4.7000000000000002
ssg77
(dp268
g10
F3.2999999999999998
ssVcom.taobao.taobao
p269
(dp270
g10
I1
ssVme.ele
p271
(dp272
g10
I1
ssVcom.ywqc.three
p273
(dp274
g10
I1
ssVcom.qiyi.video
p275
(dp276
g10
F2.8999999999999999
ssVcom.android.phone
p277
(dp278
g10
F6.5999999999999996
ssg212
(dp279
g10
I1
ssVcom.tencent.mm
p280
(dp281
g10
F88.600000000000065
ssVcom.duomi.android
p282
(dp283
g10
F1.8999999999999999
sssg31
(dp284
Vcom.android.browser
p285
(dp286
g10
F1.7000000000000002
ssVcom.android.mms
p287
(dp288
g10
I2
ssVcom.tencent.tmgp.qjnn
p289
(dp290
g10
F1.8999999999999999
ssVcom.qihoo360.contacts
p291
(dp292
g10
F6
ssVme.ele
p293
(dp294
g10
F5.6000000000000005
ssVcom.taobao.taobao
p295
(dp296
g10
F1.7
ssVcom.tencent.mm
p297
(dp298
g10
F8.9000000000000021
ssVcom.shanbay.words
p299
(dp300
g10
I1
ssg113
(dp301
g10
F1.3
sssg33
(dp302
Vcom.qihoo.secstore
p303
(dp304
g10
I1
sssg35
(dp305
Vcom.android.browser
p306
(dp307
g10
F0.90000000000000002
ssVcom.android.flashlight
p308
(dp309
g10
I1
ssVcom.ywqc.three
p310
(dp311
g10
I1
ssVcom.kibey.echo
p312
(dp313
g10
I1
ssVcom.youdao.dict
p314
(dp315
g10
I1
ssg162
(dp316
g10
F0.69999999999999996
ssVcn.ledongli.ldl
p317
(dp318
g10
I2
ssVcom.tencent.mm
p319
(dp320
g10
F11.900000000000002
ssg109
(dp321
g10
F0.69999999999999996
ssVcom.android.gallery3d
p322
(dp323
g10
I1
ssVcom.android.mms
p324
(dp325
g10
I2
ssg77
(dp326
g10
F20.799999999999997
ssVcom.oppo.weather
p327
(dp328
g10
F5.5999999999999996
ssVcom.android.calendar
p329
(dp330
g10
I1
ssVcom.tencent.tmgp.qjnn
p331
(dp332
g10
I1
ssVcom.oppo.camera
p333
(dp334
g10
I1
ssVcom.android.phone
p335
(dp336
g10
F5.9000000000000004
ssVcom.sina.weibo
p337
(dp338
g10
F2.7999999999999998
ssVcom.shanbay.words
p339
(dp340
g10
F2.7000000000000002
ssVcom.tencent.mobileqq
p341
(dp342
g10
F2.8999999999999999
sssg37
(dp343
Vcom.tencent.mm
p344
(dp345
g10
F12.199999999999999
ssg19
(dp346
g10
I1
ssVcom.tencent.mobileqq
p347
(dp348
g10
F2.8999999999999999
ssVcom.android.mms
p349
(dp350
g10
I1
ssVcom.qihoo360.contacts
p351
(dp352
g10
F5.2999999999999998
sssg39
(dp353
Vcom.oppo.preventmode
p354
(dp355
g10
F2.8999999999999999
ssVcom.android.browser
p356
(dp357
g10
I2
ssVcom.qihoo.secstore
p358
(dp359
g10
F0.90000000000000002
ssVcom.qihoo.freewifi
p360
(dp361
g10
F1.8999999999999999
ssVcom.tencent.mobileqq
p362
(dp363
g10
F2.7000000000000002
ssVcom.sina.weibo
p364
(dp365
g10
F0.90000000000000002
ssVcom.android.mms
p366
(dp367
g10
I1
ssVcom.qihoo360.contacts
p368
(dp369
g10
F6.3000000000000007
ssg79
(dp370
g10
F0.90000000000000002
ssg57
(dp371
g10
F2.2000000000000002
ssg53
(dp372
g10
F3.7000000000000002
ssVcom.android.phone
p373
(dp374
g10
F2.3999999999999999
ssVcom.tencent.mm
p375
(dp376
g10
F10.600000000000001
sssg41
(dp377
Vcom.android.browser
p378
(dp379
g10
F1.3999999999999999
ssVcom.tencent.mm
p380
(dp381
g10
F5.8000000000000007
ssVcom.tencent.mobileqq
p382
(dp383
g10
F5.1000000000000005
ssVcom.android.fileexplorer
p384
(dp385
g10
F6.1000000000000005
ssVcom.oppo.alarmclock
p386
(dp387
g10
I1
sssg43
(dp388
Vcom.android.browser
p389
(dp390
g10
I2
ssVcom.tencent.mm
p391
(dp392
g10
F2.7999999999999998
ssVcom.android.mms
p393
(dp394
g10
F0.40000000000000002
ssVcom.qiyi.video
p395
(dp396
g10
I2
ssVcom.tencent.tmgp.qjnn
p397
(dp398
g10
F5.7000000000000002
ssVcom.tencent.mobileqq
p399
(dp400
g10
F0.69999999999999996
sssg45
(dp401
Vcom.tencent.mm
p402
(dp403
g10
F1.3999999999999999
ssVcom.qihoo.secstore
p404
(dp405
g10
F1.8999999999999999
ssVcom.qihoo360.mobilesafe
p406
(dp407
g10
F1.7
sssg47
(dp408
Vcom.oppo.preventmode
p409
(dp410
g10
I1
ssVcom.xiaoenai.app
p411
(dp412
g10
I1
ssVcom.tencent.mobileqq
p413
(dp414
g10
F1.7
sssg49
(dp415
Vcom.oppo.preventmode
p416
(dp417
g10
I1
ssVcom.xiaoenai.app
p418
(dp419
g10
F1.7
ssVcom.tencent.mobileqq
p420
(dp421
g10
F2.8999999999999999
ssVcom.oppo.camera
p422
(dp423
g10
I1
ssVcom.taobao.taobao
p424
(dp425
g10
I1
ssVcom.tencent.mm
p426
(dp427
g10
F1.7
sssg51
(dp428
Vcom.oppo.preventmode
p429
(dp430
g10
I1
ssg188
(dp431
g10
I1
ssVcom.qihoo360.contacts
p432
(dp433
g10
F2.2999999999999998
ssVcom.qihoo.freewifi
p434
(dp435
g10
I1
ssVcom.sina.weibo
p436
(dp437
g10
I2
ssVcom.android.mms
p438
(dp439
g10
F3.2999999999999998
ssVcom.qihoo360.mobilesafe
p440
(dp441
g10
F1.8999999999999999
ssVcom.taobao.taobao
p442
(dp443
g10
F0.69999999999999996
ssg289
(dp444
g10
F0.69999999999999996
ssg395
(dp445
g10
F0.90000000000000002
ssVcom.oppo.weather
p446
(dp447
g10
F1.3
ssVcom.tencent.mm
p448
(dp449
g10
F32.699999999999996
ssVcom.eg.android.AlipayGphone
p450
(dp451
g10
F5.4000000000000004
ssVcom.sankuai.meituan.takeoutnew
p452
(dp453
g10
F4.4000000000000004
sssg53
(dp454
Vcom.android.browser
p455
(dp456
g10
F2.5999999999999996
ssVcom.kibey.echo
p457
(dp458
g10
F4.9000000000000004
ssg69
(dp459
g10
F17.899999999999999
ssg15
(dp460
g10
F1.7
ssg442
(dp461
g10
F1.3
ssVcn.ledongli.ldl
p462
(dp463
g10
I1
ssVcom.tencent.mm
p464
(dp465
g10
F12.700000000000001
ssg45
(dp466
g10
F2.5999999999999996
ssg132
(dp467
g10
F3.5999999999999996
ssVcom.nearme.themespace
p468
(dp469
g10
F0.90000000000000002
ssVcom.qihoo360.contacts
p470
(dp471
g10
F4.4000000000000004
ssg79
(dp472
g10
I1
ssVcom.sina.weibo
p473
(dp474
g10
I1
ssVcom.tencent.tmgp.qjnn
p475
(dp476
g10
F2.3999999999999999
ssg83
(dp477
g10
F1.7
ssVcom.android.phone
p478
(dp479
g10
F1.8999999999999999
ssVcom.qiyi.video
p480
(dp481
g10
I1
ssVcom.tencent.mobileqq
p482
(dp483
g10
I1
ssg99
(dp484
g10
I1
ssVcom.eg.android.AlipayGphone
p485
(dp486
g10
I3
ssg33
(dp487
g10
F1.3
sssg55
(dp488
Vcom.oppo.preventmode
p489
(dp490
g10
I3
ssg356
(dp491
g10
F0.90000000000000002
ssVcom.ywqc.three
p492
(dp493
g10
I2
ssVcom.android.mms
p494
(dp495
g10
F0.90000000000000002
ssg25
(dp496
g10
I1
ssVcom.oppo.weather
p497
(dp498
g10
I2
ssVcom.tencent.tmgp.qjnn
p499
(dp500
g10
F0.90000000000000002
ssVcom.qihoo360.contacts
p501
(dp502
g10
F3.7999999999999998
ssVcom.android.phone
p503
(dp504
g10
F3.1999999999999997
ssVcom.qiyi.video
p505
(dp506
g10
F0.90000000000000002
ssg87
(dp507
g10
F2.7000000000000002
ssVcom.tencent.mm
p508
(dp509
g10
F14.5
sssg57
(dp510
Vcom.android.browser
p511
(dp512
g10
I4
ssg11
(dp513
g10
F1.6000000000000001
ssVcom.suning.mobile.ebuy
p514
(dp515
g10
I1
ssVcom.qiyi.video
p516
(dp517
g10
F3.3999999999999999
ssVcom.taobao.taobao
p518
(dp519
g10
F0.90000000000000002
ssg130
(dp520
g10
F4.4000000000000004
ssg242
(dp521
g10
F0.69999999999999996
ssVcom.oppo.preventmode
p522
(dp523
g10
F3.7999999999999998
ssVcom.ywqc.three
p524
(dp525
g10
I2
ssg216
(dp526
g10
F2.2999999999999998
ssVcom.qihoo.freewifi
p527
(dp528
g10
I4
ssVcom.android.gallery3d
p529
(dp530
g10
F1.3
ssVcom.qihoo360.mobilesafe
p531
(dp532
g10
F9.8000000000000007
ssVme.ele
p533
(dp534
g10
I1
ssVcom.android.phone
p535
(dp536
g10
F9.4000000000000004
ssVcom.tencent.mobileqq
p537
(dp538
g10
F7.7999999999999998
ssVcom.shanbay.words
p539
(dp540
g10
I2
ssVcn.ledongli.ldl
p541
(dp542
g10
I1
ssVcom.qihoo360.contacts
p543
(dp544
g10
F5.0999999999999996
ssVcom.oppo.weather
p545
(dp546
g10
I1
ssVcom.xiaoenai.app
p547
(dp548
g10
I3
ssVcom.kibey.echo
p549
(dp550
g10
I1
ssVcom.android.calendar
p551
(dp552
g10
I1
ssVcom.tencent.mm
p553
(dp554
g10
F49.600000000000001
ssg393
(dp555
g10
F4.5999999999999996
ssVcom.oppo.alarmclock
p556
(dp557
g10
F1.7
sssg59
(dp558
Vcom.oppo.preventmode
p559
(dp560
g10
I2
ssVcom.android.browser
p561
(dp562
g10
F2.3999999999999999
ssVcom.xiaoenai.app
p563
(dp564
g10
I1
ssg69
(dp565
g10
F1.3
ssVcn.ledongli.ldl
p566
(dp567
g10
I1
ssVcom.tencent.mm
p568
(dp569
g10
F18.600000000000001
ssVcom.sina.weibo
p570
(dp571
g10
F5.7000000000000002
ssVcom.android.mms
p572
(dp573
g10
F4.5
ssVcom.qihoo360.contacts
p574
(dp575
g10
F51
ssVcom.oppo.weather
p576
(dp577
g10
F0.90000000000000002
ssVcom.tencent.tmgp.qjnn
p578
(dp579
g10
F6.6000000000000005
ssVcom.qihoo360.mobilesafe
p580
(dp581
g10
F14.5
ssVcom.oppo.alarmclock
p582
(dp583
g10
F1.3
ssVcom.jzyd.BanTang
p584
(dp585
g10
I1
ssVcom.qiyi.video
p586
(dp587
g10
F1.8999999999999999
ssg87
(dp588
g10
F0.90000000000000002
ssVcom.tencent.mobileqq
p589
(dp590
g10
F7.8000000000000016
ssVcom.eg.android.AlipayGphone
p591
(dp592
g10
F1.7
ssVcom.sankuai.meituan.takeoutnew
p593
(dp594
g10
F3.5
sssg61
(dp595
Vcom.android.browser
p596
(dp597
g10
F4.2999999999999998
ssVcom.qihoo360.mobilesafe
p598
(dp599
g10
I1
ssVcom.sina.weibo
p600
(dp601
g10
F10.699999999999999
ssg35
(dp602
g10
F2.5
ssVcom.zhihu.android
p603
(dp604
g10
F1.7
ssVcom.ywqc.three
p605
(dp606
g10
F2.2999999999999998
ssVcn.wps.moffice_eng
p607
(dp608
g10
F5.4000000000000004
ssVcom.oppo.camera
p609
(dp610
g10
I1
ssVcom.android.gallery3d
p611
(dp612
g10
I1
ssg269
(dp613
g10
F1.3
ssg57
(dp614
g10
F7.4000000000000004
ssVcom.android.phone
p615
(dp616
g10
F7.4000000000000004
ssg97
(dp617
g10
F42.799999999999983
ssg254
(dp618
g10
F0.90000000000000002
ssg67
(dp619
g10
I1
ssVcn.ledongli.ldl
p620
(dp621
g10
I1
ssVcom.qihoo360.contacts
p622
(dp623
g10
F12.000000000000002
ssVcom.oppo.weather
p624
(dp625
g10
I1
ssVcom.dianping.v1
p626
(dp627
g10
F2.3999999999999999
ssVcom.xiaoenai.app
p628
(dp629
g10
F1.8999999999999999
ssVcom.android.calendar
p630
(dp631
g10
F4
ssVcom.android.mms
p632
(dp633
g10
F3.4000000000000004
ssg386
(dp634
g10
F0.90000000000000002
sssg63
(dp635
g8
(dp636
g10
F2.6000000000000001
ssVcom.qihoo.freewifi
p637
(dp638
g10
I1
ssVcn.ledongli.ldl
p639
(dp640
g10
I2
ssVcom.sina.weibo
p641
(dp642
g10
F2.7000000000000002
ssVcom.android.mms
p643
(dp644
g10
I1
ssVcom.qihoo360.contacts
p645
(dp646
g10
F1.3
ssVcom.oppo.alarmclock
p647
(dp648
g10
F2.7000000000000002
ssVcom.tencent.mm
p649
(dp650
g10
F8.4000000000000004
sssg65
(dp651
g434
(dp652
g10
F0.90000000000000002
ssg440
(dp653
g10
F2.2999999999999998
ssg442
(dp654
g10
F0.40000000000000002
ssg51
(dp655
g10
F5.7000000000000002
ssVcom.qihoo360.contacts
p656
(dp657
g10
I1
ssg395
(dp658
g10
F0.69999999999999996
ssg448
(dp659
g10
F7.0000000000000009
sssg67
(dp660
Vcom.tencent.mm
p661
(dp662
g10
F5
ssVcom.tencent.mobileqq
p663
(dp664
g10
I1
sssg69
(dp665
g457
(dp666
g10
F3.1000000000000001
ssVcom.android.packageinstaller
p667
(dp668
g10
F1.8999999999999999
ssVcom.qihoo360.mobilesafe
p669
(dp670
g10
F11
ssg83
(dp671
g10
F0.90000000000000002
ssVcom.tencent.mm
p672
(dp673
g10
F2.6000000000000001
ssg33
(dp674
g10
F2.7000000000000002
sssg71
(dp675
g47
(dp676
g10
I1
sssg73
(dp677
Vcom.oppo.preventmode
p678
(dp679
g10
F0.90000000000000002
ssVcom.sina.weibo
p680
(dp681
g10
I1
ssg93
(dp682
g10
F2.7000000000000002
ssVcom.qihoo360.contacts
p683
(dp684
g10
F0.90000000000000002
ssVcom.tencent.mobileqq
p685
(dp686
g10
F0.90000000000000002
sssg75
(dp687
Vcom.tencent.mm
p688
(dp689
g10
I1
sssg77
(dp690
g596
(dp691
g10
F22.599999999999994
ssVcom.lingan.seeyou
p692
(dp693
g10
F3
ssg19
(dp694
g10
F3.8999999999999999
ssg140
(dp695
g10
F2.2000000000000002
ssVcom.sina.weibo
p696
(dp697
g10
F2.2999999999999998
ssVcom.eg.android.AlipayGphone
p698
(dp699
g10
F3.5999999999999996
ssVcom.oppo.preventmode
p700
(dp701
g10
I11
ssVcom.zhihu.android
p702
(dp703
g10
I3
ssVcom.ywqc.three
p704
(dp705
g10
F2.8999999999999999
ssVcom.qihoo.freewifi
p706
(dp707
g10
F2.8999999999999999
ssVcom.android.gallery3d
p708
(dp709
g10
I1
ssVcom.tencent.tmgp.qjnn
p710
(dp711
g10
F4.5999999999999996
ssVcom.taobao.taobao
p712
(dp713
g10
F3.1000000000000001
ssVme.ele
p714
(dp715
g10
F2.8999999999999999
ssg59
(dp716
g10
F37.599999999999994
ssg128
(dp717
g10
F8.7000000000000011
ssVcom.shanbay.words
p718
(dp719
g10
F1.7
ssVcom.sankuai.meituan.takeoutnew
p720
(dp721
g10
I1
ssVcn.ledongli.ldl
p722
(dp723
g10
I2
ssg146
(dp724
g10
F41.799999999999997
ssg576
(dp725
g10
F2.1000000000000001
ssVcom.Qunar
p726
(dp727
g10
F2.1000000000000001
ssVcom.kibey.echo
p728
(dp729
g10
F0.90000000000000002
ssg109
(dp730
g10
F2.3999999999999999
ssVcom.android.mms
p731
(dp732
g10
F3.7000000000000002
ssVcom.duomi.android
p733
(dp734
g10
F2.3999999999999999
ssg212
(dp735
g10
F2.3999999999999999
sssg79
(dp736
Vcom.oppo.preventmode
p737
(dp738
g10
I1
ssVcom.tencent.mm
p739
(dp740
g10
F2.7000000000000002
ssVcom.tencent.tmgp.qjnn
p741
(dp742
g10
I2
ssVcom.tencent.mobileqq
p743
(dp744
g10
F5.5000000000000009
ssVcom.qihoo360.contacts
p745
(dp746
g10
I1
sssg81
(dp747
Vcn.wps.moffice_eng
p748
(dp749
g10
F4.4000000000000004
sssg83
(dp750
Vcom.tencent.mm
p751
(dp752
g10
F1.8999999999999999
ssVcom.qihoo.secstore
p753
(dp754
g10
I1
ssVcom.qihoo360.mobilesafe
p755
(dp756
g10
F0.90000000000000002
sssg85
(dp757
g101
(dp758
g10
I1
ssVcom.android.phone
p759
(dp760
g10
I1
sssg87
(dp761
g499
(dp762
g10
I1
ssVcom.tencent.mm
p763
(dp764
g10
F4.7000000000000002
ssVcom.qihoo360.contacts
p765
(dp766
g10
F0.90000000000000002
sssg89
(dp767
sg91
(dp768
Vone.hh.oneclient
p769
(dp770
g10
I1
ssg179
(dp771
g10
F0.90000000000000002
sssg93
(dp772
g678
(dp773
g10
I2
ssVcom.android.browser
p774
(dp775
g10
I1
ssVcom.android.flashlight
p776
(dp777
g10
I1
ssVcom.qihoo.secstore
p778
(dp779
g10
F1.8
ssg17
(dp780
g10
F0.90000000000000002
ssVcom.tencent.mm
p781
(dp782
g10
F17.699999999999996
ssVcom.android.packageinstaller
p783
(dp784
g10
F0.40000000000000002
ssg264
(dp785
g10
F0.69999999999999996
ssg683
(dp786
g10
I1
ssVcom.qihoo360.mobilesafe
p787
(dp788
g10
F5.4000000000000004
ssVcom.sina.weibo
p789
(dp790
g10
F4.2999999999999998
ssg282
(dp791
g10
F3.7000000000000002
sssg95
(dp792
Vcn.ledongli.ldl
p793
(dp794
g10
I1
ssVcom.oppo.preventmode
p795
(dp796
g10
I1
ssVcom.tencent.mm
p797
(dp798
g10
I1
ssVcom.tencent.mobileqq
p799
(dp800
g10
I1
ssVcom.android.mms
p801
(dp802
g10
F0.90000000000000002
sssg97
(dp803
Vcom.android.browser
p804
(dp805
g10
F20.099999999999998
ssg11
(dp806
g10
F7.7000000000000011
ssVcom.youdao.dict
p807
(dp808
g10
I1
ssg15
(dp809
g10
F0.69999999999999996
ssg17
(dp810
g10
I1
ssg505
(dp811
g10
I3
ssg21
(dp812
g10
F1.8999999999999999
ssg23
(dp813
g10
I1
ssg140
(dp814
g10
F17
ssg27
(dp815
g10
I1
ssg29
(dp816
g10
F91.300000000000054
ssg31
(dp817
g10
F10.000000000000002
ssg35
(dp818
g10
F12.9
ssVcom.zhihu.android
p819
(dp820
g10
F11.199999999999999
ssVcom.ywqc.three
p821
(dp822
g10
F2.7000000000000002
ssVcn.wps.moffice_eng
p823
(dp824
g10
F4.6000000000000005
ssVcom.qihoo.freewifi
p825
(dp826
g10
F4.4000000000000004
ssg783
(dp827
g10
I1
ssVcom.oppo.camera
p828
(dp829
g10
I2
ssVcom.android.gallery3d
p830
(dp831
g10
F4
ssg57
(dp832
g10
F24.599999999999998
ssg712
(dp833
g10
F15.499999999999998
ssVme.ele
p834
(dp835
g10
F27.499999999999996
ssVcom.android.phone
p836
(dp837
g10
F16.700000000000003
ssVcom.tencent.mobileqq
p838
(dp839
g10
F58.699999999999996
ssVcom.shanbay.words
p840
(dp841
g10
F23.399999999999995
ssVcom.sankuai.meituan.takeoutnew
p842
(dp843
g10
F6.4000000000000004
ssg308
(dp844
g10
F0.90000000000000002
ssVcom.qihoo.secstore
p845
(dp846
g10
F1.7
ssVcn.ledongli.ldl
p847
(dp848
g10
F13
ssg77
(dp849
g10
F54.699999999999996
ssVcom.dianping.v1
p850
(dp851
g10
F7.3000000000000007
ssg726
(dp852
g10
F1.8999999999999999
ssg446
(dp853
g10
F1.7
ssg89
(dp854
g10
I1
ssVcom.xiaoenai.app
p855
(dp856
g10
F9.3000000000000007
ssg123
(dp857
g10
F18.999999999999996
ssg109
(dp858
g10
F6.6000000000000005
ssg632
(dp859
g10
F29.399999999999991
ssVcom.duomi.android
p860
(dp861
g10
F8
ssg111
(dp862
g10
F2.8999999999999999
sssg99
(dp863
g468
(dp864
g10
I1
ssVcom.qihoo360.contacts
p865
(dp866
g10
I1
sssg101
(dp867
g596
(dp868
g10
F9.3000000000000007
ssVcom.xiaoenai.app
p869
(dp870
g10
I1
ssVcom.kibey.echo
p871
(dp872
g10
F0.90000000000000002
ssVcom.youdao.dict
p873
(dp874
g10
I1
ssVcom.suning.mobile.ebuy
p875
(dp876
g10
F3.4000000000000004
ssVcom.tencent.mobileqq
p877
(dp878
g10
F3.5
ssVcom.sina.weibo
p879
(dp880
g10
F2.7000000000000002
ssVcom.android.settings
p881
(dp882
g10
I1
ssVcom.tencent.tmgp.qjnn
p883
(dp884
g10
I1
ssVcom.taobao.taobao
p885
(dp886
g10
F2.8999999999999999
ssVcom.oppo.weather
p887
(dp888
g10
F1.7
ssVme.ele
p889
(dp890
g10
F2.2999999999999998
ssg622
(dp891
g10
F19.299999999999997
ssVcom.qihoo360.mobilesafe
p892
(dp893
g10
F2
ssg236
(dp894
g10
F2.6000000000000001
ssVcom.qiyi.video
p895
(dp896
g10
I1
ssVcom.tencent.mm
p897
(dp898
g10
F14.699999999999999
ssVcom.shanbay.words
p899
(dp900
g10
F3
ssg31
(dp901
g10
F6
ssg113
(dp902
g10
F0.69999999999999996
sssg103
(dp903
Vcom.oppo.preventmode
p904
(dp905
g10
I1
ssg89
(dp906
g10
F1.8999999999999999
ssVcom.zhihu.android
p907
(dp908
g10
F1.8999999999999999
ssg830
(dp909
g10
F1.7
ssVcom.tencent.mm
p910
(dp911
g10
F27.399999999999995
ssVcom.android.mms
p912
(dp913
g10
F4.4000000000000004
ssVcom.qihoo360.contacts
p914
(dp915
g10
F1.3
ssVcom.taobao.taobao
p916
(dp917
g10
F0.90000000000000002
ssVcom.android.phone
p918
(dp919
g10
I1
ssVcom.tencent.mobileqq
p920
(dp921
g10
F2.3999999999999999
sssg105
(dp922
Vcom.tencent.mobileqq
p923
(dp924
g10
F3.5
ssg529
(dp925
g10
F0.69999999999999996
ssVcom.android.mms
p926
(dp927
g10
F0.90000000000000002
ssVcom.qiyi.video
p928
(dp929
g10
F2.8999999999999999
ssg81
(dp930
g10
I1
ssVcom.tencent.tmgp.qjnn
p931
(dp932
g10
I2
ssVcom.android.phone
p933
(dp934
g10
F1.8999999999999999
ssVcom.tencent.mm
p935
(dp936
g10
F9.3999999999999986
sssg107
(dp937
Vcom.android.browser
p938
(dp939
g10
F0.90000000000000002
ssg128
(dp940
g10
F0.40000000000000002
ssVcom.qihoo360.contacts
p941
(dp942
g10
F2.7000000000000002
sssg109
(dp943
Vcom.sina.weibo
p944
(dp945
g10
I1
ssVcom.tencent.mm
p946
(dp947
g10
F2.7000000000000002
ssVcom.android.mms
p948
(dp949
g10
I1
ssg75
(dp950
g10
F1.8999999999999999
ssVcom.qihoo.freewifi
p951
(dp952
g10
I2
sssg111
(dp953
Vcom.kibey.echo
p954
(dp955
g10
I1
ssVcn.wps.moffice_eng
p956
(dp957
g10
I1
ssVcom.tencent.mm
p958
(dp959
g10
F3.7000000000000002
ssVcom.qihoo360.mobilesafe
p960
(dp961
g10
I1
ssVcom.sina.weibo
p962
(dp963
g10
I1
ssVcom.duomi.android
p964
(dp965
g10
F3.5999999999999996
ssVcom.tencent.mobileqq
p966
(dp967
g10
F1.8999999999999999
sssg113
(dp968
ssS'edge'
p969
g119
sS'graph'
p970
(dp971
sS'adjlist_dict_factory'
p972
g116
sS'adj'
p973
g119
sS'pred'
p974
(dp975
g8
(dp976
g769
g180
sg192
g159
sg875
g176
sVcom.qiyi.video
p977
g189
sVcom.taobao.taobao
p978
g224
sVcom.sina.weibo
p979
g259
sVcom.eg.android.AlipayGphone
p980
g286
sVcom.oppo.preventmode
p981
g307
sg492
g357
sg607
g379
sg637
g390
sVcom.tencent.tmgp.qjnn
p982
g512
sg140
g456
sg206
g431
sVcom.android.phone
p983
g562
sVcom.tencent.mm
p984
g805
sg63
g636
sVcn.ledongli.ldl
p985
g491
sg622
g691
sg91
g771
sVcom.kibey.echo
p986
g775
sVcom.tencent.mobileqq
p987
g597
sg632
g868
sVcom.greenpoint.android.mc10086.activity
p988
g939
ssg11
(dp989
Vcom.tencent.tmgp.qjnn
p990
g513
sVcom.tencent.mm
p991
g806
sg155
g693
ssg13
(dp992
g981
g315
sg166
g874
sVcom.tencent.mm
p993
g808
sVcom.qiyi.video
p994
g193
ssg15
(dp995
Vcom.android.browser
p996
g125
sVcom.tencent.tmgp.qjnn
p997
g515
sVcom.tencent.mm
p998
g809
sg132
g876
sVcom.qihoo360.mobilesafe
p999
g460
ssg17
(dp1000
Vcom.tencent.mm
p1001
g810
sg91
g770
sVcom.kibey.echo
p1002
g780
ssg19
(dp1003
Vcom.zhihu.android
p1004
g346
sVcom.xiaoenai.app
p1005
g929
sg434
g396
sVcn.ledongli.ldl
p1006
g506
sVcom.tencent.mm
p1007
g811
sg198
g896
sg51
g445
sVcom.qihoo360.contacts
p1008
g694
sVcom.tencent.tmgp.qjnn
p1009
g517
sVcom.qihoo360.mobilesafe
p1010
g481
sVcom.android.phone
p1011
g587
sVcom.sina.weibo
p1012
g276
sg65
g658
ssg21
(dp1013
Vcom.tencent.mm
p1014
g812
ssg23
(dp1015
Vcom.tencent.mm
p1016
g813
ssg25
(dp1017
g225
g425
sVcn.ledongli.ldl
p1018
g496
sVcom.tencent.mobileqq
p1019
g613
sVcom.sina.weibo
p1020
g270
sg229
g886
sVcom.tencent.tmgp.qjnn
p1021
g519
sVcom.qihoo360.contacts
p1022
g713
sVme.ele
p1023
g443
sVcom.qihoo360.mobilesafe
p1024
g461
sVcom.tencent.mm
p1025
g833
sg254
g917
sg31
g296
sVcom.sankuai.meituan.takeoutnew
p1026
g654
ssg27
(dp1027
Vcom.tencent.mm
p1028
g815
ssg29
(dp1029
Vcom.oppo.preventmode
p1030
g338
sVcom.android.browser
p1031
g131
sVcom.ywqc.three
p1032
g365
sg986
g790
sVcom.tencent.mobileqq
p1033
g601
sVfm.xiami.main
p1034
g681
sg264
g880
sVme.ele
p1035
g437
sVcom.qihoo360.contacts
p1036
g697
sVcom.tencent.tmgp.qjnn
p1037
g520
sVcom.qiyi.video
p1038
g197
sVcom.qihoo360.mobilesafe
p1039
g474
sVcom.android.phone
p1040
g571
sg212
g963
sVcom.tencent.mm
p1041
g816
sVcom.duomi.android
p1042
g642
sVcom.android.settings
p1043
g945
ssg31
(dp1044
Vcom.android.browser
p1045
g151
sVcom.android.mms
p1046
g901
sg1021
g521
sg291
g699
sg518
g243
sVme.ele
p1047
g451
sVcom.qihoo360.mobilesafe
p1048
g486
sVcom.android.phone
p1049
g592
sVcom.tencent.mm
p1050
g817
ssg33
(dp1051
Vcom.qihoo.secstore
p1052
g674
sVcom.qihoo360.mobilesafe
p1053
g487
ssg35
(dp1054
Vcom.ywqc.three
p1055
g355
sVcom.kibey.echo
p1056
g773
sVcn.ledongli.ldl
p1057
g490
sg61
g602
sVfm.xiami.main
p1058
g679
sVcom.android.gallery3d
p1059
g417
sVme.ele
p1060
g430
sVcom.qihoo360.contacts
p1061
g701
sVcom.oppo.weather
p1062
g738
sVcom.android.calendar
p1063
g796
sVcom.tencent.tmgp.qjnn
p1064
g523
sVcom.oppo.camera
p1065
g410
sg516
g187
sVcom.android.phone
p1066
g560
sg97
g818
sVcom.shanbay.words
p1067
g905
ssg37
(dp1068
g344
g820
sVcom.sina.weibo
p1069
g250
sg347
g604
sVcom.shanbay.words
p1070
g908
sVcom.qihoo360.contacts
p1071
g703
ssg39
(dp1072
g354
g311
sVcom.android.browser
p1073
g122
sg985
g493
sg362
g606
sVcom.sina.weibo
p1074
g274
sg368
g705
sVcom.tencent.tmgp.qjnn
p1075
g525
sVcom.tencent.mm
p1076
g822
ssg41
(dp1077
Vcom.tencent.mobileqq
p1078
g608
sVcom.qiyi.video
p1079
g217
sg384
g749
sg200
g526
sg386
g957
sVcom.tencent.mm
p1080
g824
ssg43
(dp1081
g981
g316
sVcom.android.browser
p1082
g127
sVcom.ywqc.three
p1083
g361
sg314
g163
sVcom.sina.weibo
p1084
g257
sVcom.tencent.tmgp.qjnn
p1085
g528
sVcom.qihoo360.contacts
p1086
g707
sg51
g435
sVcom.android.settings
p1087
g952
sVcom.tencent.mm
p1088
g826
sVcom.duomi.android
p1089
g638
sg65
g652
ssg45
(dp1090
g672
g827
sVcom.kibey.echo
p1091
g784
sVcom.qihoo.secstore
p1092
g668
sVcom.qihoo360.mobilesafe
p1093
g466
ssg47
(dp1094
g71
g676
sVcom.tencent.mobileqq
p1095
g610
sVcom.android.gallery3d
p1096
g423
sVcom.tencent.mm
p1097
g829
sg409
g334
ssg49
(dp1098
Vcom.oppo.preventmode
p1099
g323
sVcom.xiaoenai.app
p1100
g925
sVcom.sina.weibo
p1101
g252
sVcom.qihoo360.contacts
p1102
g709
sVcom.tencent.tmgp.qjnn
p1103
g530
sVcom.taobao.taobao
p1104
g226
sVcom.tencent.mm
p1105
g831
sVcom.shanbay.words
p1106
g909
sVcom.tencent.mobileqq
p1107
g612
ssg51
(dp1108
g188
g135
sVcom.sina.weibo
p1109
g272
sVcom.android.mms
p1110
g890
sg977
g207
sVcom.tencent.tmgp.qjnn
p1111
g534
sVcom.qihoo360.contacts
p1112
g715
sVcom.tencent.mm
p1113
g835
sg450
g294
sg65
g655
ssg53
(dp1114
g13
g169
sVcom.android.browser
p1115
g141
sVcom.ywqc.three
p1116
g372
sg457
g788
sg69
g670
sVcom.sina.weibo
p1117
g263
sg45
g407
sVcom.android.mms
p1118
g893
sVme.ele
p1119
g441
sVcom.qihoo360.contacts
p1120
g695
sVcom.tencent.tmgp.qjnn
p1121
g532
sg83
g756
sVcom.tencent.mobileqq
p1122
g599
sVcom.android.phone
p1123
g581
sVcom.oppo.alarmclock
p1124
g961
sVcom.qiyi.video
p1125
g209
sVcom.tencent.mm
p1126
g814
sg452
g653
ssg55
(dp1127
Vcom.oppo.preventmode
p1128
g318
sg95
g794
sVcom.tencent.mobileqq
p1129
g621
sVcom.qihoo360.mobilesafe
p1130
g463
sVcom.qihoo360.contacts
p1131
g723
sVcom.tencent.tmgp.qjnn
p1132
g542
sVcom.qiyi.video
p1133
g195
sVcom.android.phone
p1134
g567
sg214
g848
sVcom.duomi.android
p1135
g640
ssg57
(dp1136
g522
g332
sVcom.android.browser
p1137
g139
sVcom.xiaoenai.app
p1138
g932
sg39
g371
sg43
g398
sg566
g500
sg362
g614
sVcom.sina.weibo
p1139
g267
sg1118
g884
sVme.ele
p1140
g444
sg543
g711
sVcom.taobao.taobao
p1141
g235
sg87
g762
sVcom.qihoo360.mobilesafe
p1142
g476
sg535
g579
sg1079
g201
sVcom.oppo.weather
p1143
g742
sg375
g832
sVcom.eg.android.AlipayGphone
p1144
g290
ssg59
(dp1145
Vcom.oppo.preventmode
p1146
g336
sg561
g143
sVcom.xiaoenai.app
p1147
g934
sVcom.ywqc.three
p1148
g374
sVcn.ledongli.ldl
p1149
g504
sVcom.tencent.mobileqq
p1150
g616
sVcom.tencent.mm
p1151
g837
sVcom.qihoo360.mobilesafe
p1152
g479
sg229
g894
sVcom.qiyi.video
p1153
g211
sVcom.taobao.taobao
p1154
g237
sVcom.tencent.tmgp.qjnn
p1155
g536
sVcom.qihoo360.contacts
p1156
g716
sVcom.jzyd.BanTang
p1157
g760
sg1117
g278
sVcom.shanbay.words
p1158
g919
ssg61
(dp1159
g938
g129
sg807
g171
sVone.hh.oneclient
p1160
g184
sVcom.qiyi.video
p1161
g219
sg29
g261
sVcom.oppo.preventmode
p1162
g342
sg37
g348
sg39
g363
sg41
g383
sg43
g400
sg1065
g414
sg49
g421
sVcom.qihoo360.mobilesafe
p1163
g483
sVcom.tencent.tmgp.qjnn
p1164
g538
sg373
g590
sVcom.tencent.mm
p1165
g839
sVcom.shanbay.words
p1166
g921
sg67
g664
sVcom.qihoo360.contacts
p1167
g717
sVcom.oppo.weather
p1168
g744
sVcom.xiaoenai.app
p1169
g924
sg630
g800
sg731
g878
sg988
g940
sg1034
g686
sVcom.oppo.alarmclock
p1170
g967
ssg63
(dp1171
g8
g149
sVcom.kibey.echo
p1172
g791
sVcom.tencent.mm
p1173
g861
sVcom.qihoo360.contacts
p1174
g734
sVcom.oppo.alarmclock
p1175
g965
sVcom.sina.weibo
p1176
g283
ssg65
(dp1177
g1119
g453
sg448
g843
sg656
g721
sVcom.android.phone
p1178
g594
ssg67
(dp1179
Vcom.oppo.preventmode
p1180
g309
sVcom.kibey.echo
p1181
g777
sVcom.tencent.mm
p1182
g844
sVcom.tencent.mobileqq
p1183
g619
sVcom.qiyi.video
p1184
g191
ssg69
(dp1185
Vcom.ywqc.three
p1186
g359
sg457
g779
sg13
g161
sg667
g405
sg1152
g459
sg83
g754
sg478
g565
sg672
g846
sg33
g304
ssg71
(dp1187
sg73
(dp1188
sg75
(dp1189
g227
g950
sg99
g864
sVcom.qihoo360.mobilesafe
p1190
g469
sVcom.taobao.taobao
p1191
g231
ssg77
(dp1192
g596
g137
sVcom.lingan.seeyou
p1193
g156
sg19
g203
sg1154
g233
sg337
g268
sVcom.eg.android.AlipayGphone
p1194
g292
sg1030
g326
sVcom.zhihu.android
p1195
g352
sVcom.ywqc.three
p1196
g369
sVme.ele
p1197
g433
sg140
g471
sVcom.tencent.tmgp.qjnn
p1198
g544
sg59
g575
sg319
g849
sVcom.shanbay.words
p1199
g915
sVcom.sankuai.meituan.takeoutnew
p1200
g657
sg55
g502
sg87
g766
sVcom.oppo.weather
p1201
g746
sg93
g786
sg987
g623
sVcom.oppo.market
p1202
g866
sg632
g891
sg860
g646
sg107
g942
sg73
g684
ssg79
(dp1203
Vcom.oppo.preventmode
p1204
g328
sg1116
g370
sVcn.ledongli.ldl
p1205
g498
sVcom.tencent.mm
p1206
g853
sVcom.android.mms
p1207
g888
sVme.ele
p1208
g447
sVcom.qihoo360.contacts
p1209
g725
sVcom.tencent.tmgp.qjnn
p1210
g546
sg53
g472
sVcom.android.phone
p1211
g577
sVcom.tencent.mobileqq
p1212
g625
ssg81
(dp1213
g105
g930
sVcn.wps.moffice_eng
p1214
g385
ssg83
(dp1215
Vcom.tencent.mm
p1216
g852
sVcom.qihoo360.contacts
p1217
g727
sVcom.qihoo.secstore
p1218
g671
sVcom.qihoo360.mobilesafe
p1219
g477
ssg85
(dp1220
g759
g585
ssg87
(dp1221
g566
g507
sVcom.tencent.mobileqq
p1222
g627
sg763
g851
sg1134
g588
ssg89
(dp1223
Vcom.tencent.mm
p1224
g854
sVcom.shanbay.words
p1225
g906
ssg91
(dp1226
sg93
(dp1227
g678
g313
sg774
g124
sg160
g666
sg17
g182
sg781
g857
sg264
g872
sg168
g458
sVcom.tencent.tmgp.qjnn
p1228
g550
sVcom.qihoo360.contacts
p1229
g729
sg73
g682
sg1175
g955
sg789
g253
ssg95
(dp1230
g795
g330
sVcom.tencent.tmgp.qjnn
p1231
g552
sVcom.tencent.mobileqq
p1232
g631
ssg97
(dp1233
Vcom.android.browser
p1234
g147
sg1193
g154
sg192
g165
sg1133
g215
sg1141
g241
sg570
g281
sg1194
g298
sg1030
g320
sg37
g345
sg39
g376
sg607
g381
sg43
g392
sg783
g403
sg27
g247
sg322
g427
sVme.ele
p1235
g449
sVcom.qihoo360.mobilesafe
p1236
g465
sVcom.tencent.tmgp.qjnn
p1237
g554
sVcom.android.phone
p1238
g569
sg61
g617
sg103
g911
sVcom.sankuai.meituan.takeoutnew
p1239
g659
sg67
g662
sVcom.qihoo.secstore
p1240
g673
sg55
g509
sVcom.nearme.themespace
p1241
g689
sVcom.qihoo360.contacts
p1242
g724
sVcom.oppo.weather
p1243
g740
sVcom.Qunar
p1244
g752
sVcom.dianping.v1
p1245
g764
sVcom.xiaoenai.app
p1246
g936
sg986
g782
sVcom.android.calendar
p1247
g798
sVcom.android.settings
p1248
g947
sg494
g898
sg860
g650
sVcom.oppo.alarmclock
p1249
g959
ssg99
(dp1250
g1190
g484
ssg101
(dp1251
Vcom.android.browser
p1252
g133
sVcom.youdao.dict
p1253
g167
sg15
g177
sVcom.qiyi.video
p1254
g199
sg1154
g230
sg789
g265
sg31
g288
sVcom.oppo.preventmode
p1255
g325
sVcom.zhihu.android
p1256
g350
sVcom.ywqc.three
p1257
g367
sg43
g394
sg397
g555
sg999
g467
sVme.ele
p1258
g439
sVcom.android.phone
p1259
g573
sg987
g633
sVcom.duomi.android
p1260
g644
sg55
g495
sVcom.tencent.mm
p1261
g859
sVcom.qihoo360.contacts
p1262
g732
sg85
g758
sVcom.xiaoenai.app
p1263
g927
sg123
g785
sg1247
g802
sg881
g949
sVcom.shanbay.words
p1264
g913
ssg103
(dp1265
Vcom.oppo.preventmode
p1266
g340
sVcom.youdao.dict
p1267
g173
sVcom.sina.weibo
p1268
g255
sg912
g900
sg914
g719
sVcom.tencent.tmgp.qjnn
p1269
g540
sVcom.tencent.mm
p1270
g841
sVcom.eg.android.AlipayGphone
p1271
g300
sVcom.tencent.mobileqq
p1272
g618
ssg105
(dp1273
Vcom.tencent.mm
p1274
g856
sVcom.oppo.camera
p1275
g412
sg529
g419
sVcom.android.mms
p1276
g870
sVcom.qiyi.video
p1277
g205
sVcom.tencent.tmgp.qjnn
p1278
g548
sVcom.android.phone
p1279
g564
sVcom.tencent.mobileqq
p1280
g629
ssg107
(dp1281
sg109
(dp1282
Vcom.oppo.preventmode
p1283
g321
sVcom.android.mms
p1284
g882
sVcom.tencent.mm
p1285
g858
sg1191
g228
sVcom.qihoo360.contacts
p1286
g730
ssg111
(dp1287
g804
g145
sg216
g387
sg196
g279
sVcom.qihoo360.contacts
p1288
g735
sVcom.taobao.taobao
p1289
g239
sVcom.tencent.tmgp.qjnn
p1290
g557
sg1038
g213
sVcom.android.phone
p1291
g583
sVcom.tencent.mm
p1292
g862
sVcom.duomi.android
p1293
g648
sVcom.tencent.mobileqq
p1294
g634
ssg113
(dp1295
g287
g902
sg295
g244
sg31
g301
sssb.