ccopy_reg
_reconstructor
p1
(cnetworkx.classes.digraph
DiGraph
p2
c__builtin__
object
p3
NtRp4
(dp5
S'node'
p6
(dp7
Vcom.android.browser
p8
(dp9
S'weight'
p10
F0.010694306516889818
ssVcom.qqgame.happymj
p11
(dp12
g10
F0.00099307839330894715
ssVcom.qiyi.video
p13
(dp14
g10
F0.0061031903267178009
ssVcom.sina.weibog3
p15
(dp16
g10
F0.00197867127109044
ssVcom.snda.wifilocating
p17
(dp18
g10
F2.2456546582363127e-05
ssVcom.oppo.gallery3d
p19
(dp20
g10
F0.00020585167700499534
ssVcom.eg.android.AlipayGphone
p21
(dp22
g10
F0.001319945904674455
ssVcom.oppo.preventmode
p23
(dp24
g10
F0.0013037272876983037
ssVcom.android.dialer
p25
(dp26
g10
F0.0023367284304870077
ssVcom.chinamworld.main
p27
(dp28
g10
F0.0010791618218746724
ssVcom.android.bluetooth
p29
(dp30
g10
F1.247585921242396e-05
ssVcom.oppo.camera
p31
(dp32
g10
F0.0002183275362174193
ssVme.ele
p33
(dp34
g10
F0.023847604884548398
ssVcom.android.phone
p35
(dp36
g10
F0.012762803974309711
ssVcom.tencent.mobileqq
p37
(dp38
g10
F0.24111718824075415
ssVcom.oppo.filemanager
p39
(dp40
g10
F3.4932405794787086e-05
ssVcom.tudou.android
p41
(dp42
g10
F0.024613622640191232
ssVcom.baidu.lbs.waimai
p43
(dp44
g10
F0.031124773563155295
ssVcom.oppo.weather
p45
(dp46
g10
F6.7369639747089381e-05
ssVcom.oppo.launcher
p47
(dp48
g10
F0.50557920423979597
ssVcom.android.calendar
p49
(dp50
g10
F0.00016218616976151147
ssVcom.tencent.mm
p51
(dp52
g10
F0.096565645476003936
ssVcom.oppo.market
p53
(dp54
g10
F0.00027571648859456949
ssVcom.android.mms
p55
(dp56
g10
F0.03562232080923413
ssVcom.baidu.BaiduMap
p57
(dp58
g10
F0.0013461452090205452
ssVcom.taobao.movie.android
p59
(dp60
g10
F0.00015844341199778428
ssVcom.android.settings
p61
(dp62
g10
F0.00039423715111259713
ssVcom.oppo.alarmclock
p63
(dp64
g10
F4.865585092845344e-05
ssVcom.tencent.qqmusic
p65
(dp66
g10
F3.7427577637271877e-06
ssVcom.oppo.speechassist
p67
(dp68
g10
F7.4855155274543754e-06
sssS'graph'
p69
(dp70
sS'succ'
p71
(dp72
g8
(dp73
Vcom.sina.weibog3
p74
(dp75
g10
F0.90000000000000002
ssVcom.tudou.android
p76
(dp77
g10
F1.3
ssVcom.tencent.mobileqq
p78
(dp79
g10
F3.1999999999999997
ssVcom.oppo.launcher
p80
(dp81
g10
F18.5
ssVcom.android.settings
p82
(dp83
g10
F0.69999999999999996
ssVcom.tencent.mm
p84
(dp85
g10
F3
sssg11
(dp86
Vcom.oppo.launcher
p87
(dp88
g10
F1.7
ssVcom.tencent.mobileqq
p89
(dp90
g10
F2.2999999999999998
sssg13
(dp91
Vcom.oppo.launcher
p92
(dp93
g10
F6.7000000000000002
ssVcom.tudou.android
p94
(dp95
g10
F1.8
ssVcom.tencent.mobileqq
p96
(dp97
g10
F1.8999999999999999
sssg15
(dp98
Vcom.tudou.android
p99
(dp100
g10
F3.5
ssVcom.tencent.mobileqq
p101
(dp102
g10
F1.3
ssVcom.oppo.launcher
p103
(dp104
g10
F11.5
ssg49
(dp105
g10
F0.40000000000000002
ssVcom.android.phone
p106
(dp107
g10
F0.90000000000000002
ssVcom.tencent.mm
p108
(dp109
g10
F0.90000000000000002
ssg67
(dp110
g10
I1
sssg17
(dp111
Vcom.oppo.launcher
p112
(dp113
g10
I1
sssg19
(dp114
Vcom.oppo.launcher
p115
(dp116
g10
I1
ssVcom.android.dialer
p117
(dp118
g10
F1.3
ssVcom.android.phone
p119
(dp120
g10
F0.69999999999999996
sssg21
(dp121
Vcom.android.settings
p122
(dp123
g10
I1
ssVcom.baidu.lbs.waimai
p124
(dp125
g10
F10.100000000000001
ssVcom.android.mms
p126
(dp127
g10
F8.1000000000000014
ssVcom.oppo.launcher
p128
(dp129
g10
F6.5
ssVme.ele
p130
(dp131
g10
I2
ssVcom.tencent.mobileqq
p132
(dp133
g10
F0.90000000000000002
sssg23
(dp134
Vcom.oppo.camera
p135
(dp136
g10
F0.90000000000000002
ssVcom.tencent.mobileqq
p137
(dp138
g10
F6.8000000000000007
ssVcom.baidu.lbs.waimai
p139
(dp140
g10
F0.69999999999999996
ssVcom.oppo.launcher
p141
(dp142
g10
F11.699999999999999
ssg65
(dp143
g10
F0.90000000000000002
ssVcom.android.phone
p144
(dp145
g10
F0.90000000000000002
ssVcom.tencent.mm
p146
(dp147
g10
F3.5
sssg25
(dp148
Vcom.chinamworld.main
p149
(dp150
g10
F0.40000000000000002
ssVcom.tencent.mm
p151
(dp152
g10
F0.90000000000000002
ssVcom.android.mms
p153
(dp154
g10
F2.7999999999999998
ssVcom.oppo.launcher
p155
(dp156
g10
F13.199999999999999
ssg119
(dp157
g10
F6.7000000000000002
ssVcom.tencent.mobileqq
p158
(dp159
g10
F2.1000000000000001
sssg27
(dp160
Vcom.android.dialer
p161
(dp162
g10
F0.90000000000000002
ssVcom.android.settings
p163
(dp164
g10
F1.7
ssVcom.android.mms
p165
(dp166
g10
I1
ssVcom.oppo.launcher
p167
(dp168
g10
F4
ssVcom.android.phone
p169
(dp170
g10
F1.7
ssVcom.tencent.mobileqq
p171
(dp172
g10
F0.90000000000000002
sssg29
(dp173
g61
(dp174
g10
F1.7
ssVcom.oppo.market
p175
(dp176
g10
F1.3
sssg31
(dp177
Vcom.tencent.mm
p178
(dp179
g10
F3.7000000000000002
sssg33
(dp180
Vcom.tudou.android
p181
(dp182
g10
F0.40000000000000002
ssVcom.tencent.mm
p183
(dp184
g10
I1
ssVcom.android.mms
p185
(dp186
g10
F3.3999999999999999
ssVcom.oppo.launcher
p187
(dp188
g10
F1.7
ssVcom.android.phone
p189
(dp190
g10
I2
ssVcom.tencent.mobileqq
p191
(dp192
g10
F0.90000000000000002
ssVcom.eg.android.AlipayGphone
p193
(dp194
g10
I2
sssg35
(dp195
Vcom.android.dialer
p196
(dp197
g10
F11.9
ssVcom.chinamworld.main
p198
(dp199
g10
I1
ssVcom.tencent.mobileqq
p200
(dp201
g10
F10.300000000000001
ssg153
(dp202
g10
F8
ssg45
(dp203
g10
F0.90000000000000002
ssVcom.oppo.launcher
p204
(dp205
g10
F17.5
ssg151
(dp206
g10
F2.7000000000000002
sssg37
(dp207
Vcom.oppo.preventmode
p208
(dp209
g10
I17
ssg8
(dp210
g10
F4.4000000000000004
ssg31
(dp211
g10
I2
ssg15
(dp212
g10
F3.2999999999999998
ssVcom.tudou.android
p213
(dp214
g10
F5.1999999999999993
ssVcom.qqgame.happymj
p215
(dp216
g10
I1
ssVcom.oppo.market
p217
(dp218
g10
F0.90000000000000002
ssVcom.baidu.lbs.waimai
p219
(dp220
g10
F10.300000000000001
ssVcom.android.mms
p221
(dp222
g10
F17.799999999999997
ssg13
(dp223
g10
F3.6000000000000001
ssVcom.oppo.launcher
p224
(dp225
g10
F100.80000000000008
ssVcom.android.dialer
p226
(dp227
g10
F3
ssg17
(dp228
g10
F0.69999999999999996
ssVcom.android.phone
p229
(dp230
g10
F12.700000000000001
ssg67
(dp231
g10
F0.40000000000000002
ssg146
(dp232
g10
F28.899999999999988
ssVcom.eg.android.AlipayGphone
p233
(dp234
g10
F6.6000000000000005
ssVcom.android.settings
p235
(dp236
g10
I1
sssg39
(dp237
Vcom.oppo.launcher
p238
(dp239
g10
F1.7
ssVcom.sina.weibog3
p240
(dp241
g10
F0.40000000000000002
ssVcom.tencent.mm
p242
(dp243
g10
F0.90000000000000002
sssg41
(dp244
g74
(dp245
g10
F0.40000000000000002
ssVcom.android.dialer
p246
(dp247
g10
F1.3
ssVcom.android.browser
p248
(dp249
g10
F1.3
ssg49
(dp250
g10
F0.90000000000000002
ssg82
(dp251
g10
I1
ssVcom.tencent.mm
p252
(dp253
g10
F0.90000000000000002
ssVcom.android.mms
p254
(dp255
g10
I4
ssg13
(dp256
g10
F1.8
ssVcom.oppo.launcher
p257
(dp258
g10
F29.099999999999994
ssVcom.android.phone
p259
(dp260
g10
F1.7
ssVcom.tencent.mobileqq
p261
(dp262
g10
F9.8000000000000007
sssg43
(dp263
Vcom.tencent.mm
p264
(dp265
g10
F3.1000000000000001
ssg126
(dp266
g10
F10.9
ssVcom.oppo.weather
p267
(dp268
g10
F0.90000000000000002
ssg128
(dp269
g10
F15.400000000000002
ssg33
(dp270
g10
F1.3
ssg35
(dp271
g10
F9.9000000000000004
ssVcom.tencent.mobileqq
p272
(dp273
g10
F8.1999999999999993
ssg21
(dp274
g10
F12.4
sssg45
(dp275
sg47
(dp276
g8
(dp277
g10
F14.200000000000001
ssg11
(dp278
g10
F1.7
ssg13
(dp279
g10
F10.800000000000001
ssg15
(dp280
g10
F14.4
ssg17
(dp281
g10
F2.2999999999999998
ssg65
(dp282
g10
F1.7
ssg233
(dp283
g10
F14.800000000000001
ssVcom.oppo.preventmode
p284
(dp285
g10
F13.9
ssg25
(dp286
g10
F20.599999999999994
ssg149
(dp287
g10
F2.7000000000000002
ssVcom.oppo.camera
p288
(dp289
g10
I2
ssg33
(dp290
g10
F4.0999999999999996
ssg229
(dp291
g10
F22.5
ssg37
(dp292
g10
F78.400000000000006
ssg39
(dp293
g10
I1
ssg41
(dp294
g10
F23.299999999999997
ssg219
(dp295
g10
F16.199999999999999
ssg45
(dp296
g10
F2.7000000000000002
ssg49
(dp297
g10
F1.7
ssg51
(dp298
g10
F55.800000000000018
ssg217
(dp299
g10
I1
ssg55
(dp300
g10
F25.699999999999992
ssg57
(dp301
g10
I1
ssVcom.taobao.movie.android
p302
(dp303
g10
I1
ssg82
(dp304
g10
F9.6999999999999993
ssg63
(dp305
g10
I2
ssg67
(dp306
g10
F0.90000000000000002
sssg49
(dp307
sg51
(dp308
Vcom.oppo.preventmode
p309
(dp310
g10
I3
ssVcom.sina.weibog3
p311
(dp312
g10
F3.6000000000000001
ssVcom.oppo.camera
p313
(dp314
g10
F6.4000000000000004
ssVcom.android.browser
p315
(dp316
g10
F0.90000000000000002
ssVcom.tudou.android
p317
(dp318
g10
F0.90000000000000002
ssVcom.android.settings
p319
(dp320
g10
I1
ssg139
(dp321
g10
F3.5999999999999996
ssVcom.android.mms
p322
(dp323
g10
I2
ssg57
(dp324
g10
F0.90000000000000002
ssVcom.qiyi.video
p325
(dp326
g10
F0.40000000000000002
ssVcom.oppo.launcher
p327
(dp328
g10
F57.000000000000014
ssVcom.android.dialer
p329
(dp330
g10
F1.3
ssVcom.android.phone
p331
(dp332
g10
F5.4000000000000004
ssVcom.tencent.mobileqq
p333
(dp334
g10
F20.499999999999996
ssVcom.eg.android.AlipayGphone
p335
(dp336
g10
F0.69999999999999996
ssg67
(dp337
g10
F0.69999999999999996
sssg53
(dp338
Vcom.oppo.launcher
p339
(dp340
g10
F2.2000000000000002
ssg29
(dp341
g10
I1
ssVcom.tencent.mobileqq
p342
(dp343
g10
F1.7
ssg17
(dp344
g10
F2.0999999999999996
ssg61
(dp345
g10
F2.2999999999999998
sssg55
(dp346
g248
(dp347
g10
F0.69999999999999996
ssg161
(dp348
g10
F3.2999999999999998
ssVcom.chinamworld.main
p349
(dp350
g10
F3.5
ssVcom.tudou.android
p351
(dp352
g10
I4
ssg51
(dp353
g10
F3.2999999999999998
ssVcom.baidu.lbs.waimai
p354
(dp355
g10
I1
ssg11
(dp356
g10
F1.3
ssVcom.baidu.BaiduMap
p357
(dp358
g10
I1
ssVcom.oppo.launcher
p359
(dp360
g10
F26.699999999999996
ssVme.ele
p361
(dp362
g10
F1.3
ssg169
(dp363
g10
F2.8999999999999999
ssVcom.tencent.mobileqq
p364
(dp365
g10
F11.1
ssVcom.eg.android.AlipayGphone
p366
(dp367
g10
F1.7
ssg163
(dp368
g10
F0.69999999999999996
sssg57
(dp369
Vcom.oppo.launcher
p370
(dp371
g10
I1
ssVcom.android.mms
p372
(dp373
g10
I1
ssVcom.tencent.mobileqq
p374
(dp375
g10
F0.90000000000000002
ssVcom.android.phone
p376
(dp377
g10
I2
sssg59
(dp378
Vcom.oppo.launcher
p379
(dp380
g10
F2.7000000000000002
sssg61
(dp381
Vcom.tudou.android
p382
(dp383
g10
F0.90000000000000002
ssg175
(dp384
g10
F3.1000000000000001
ssVcom.android.mms
p385
(dp386
g10
F0.69999999999999996
ssg339
(dp387
g10
F11.499999999999998
ssg342
(dp388
g10
F2.6000000000000001
ssVcom.eg.android.AlipayGphone
p389
(dp390
g10
F2.2000000000000002
sssg63
(dp391
sg65
(dp392
Vcom.oppo.launcher
p393
(dp394
g10
I1
sssg67
(dp395
ssS'edge'
p396
g72
sS'pred'
p397
(dp398
g8
(dp399
Vcom.oppo.launcher
p400
g277
sVcom.tudou.android
p401
g249
sVcom.tencent.mm
p402
g316
sVcom.tencent.mobileqq
p403
g210
sg254
g347
ssg11
(dp404
Vcom.oppo.launcher
p405
g278
sg89
g216
sVcom.android.mms
p406
g356
ssg13
(dp407
Vcom.oppo.launcher
p408
g279
sg99
g256
sVcom.tencent.mm
p409
g326
sg101
g223
ssg15
(dp410
g39
g241
sg248
g75
sg351
g245
sVcom.tencent.mobileqq
p411
g212
sVcom.oppo.launcher
p412
g280
sVcom.tencent.mm
p413
g312
ssg17
(dp414
g339
g281
sVcom.oppo.market
p415
g344
sg342
g228
ssg19
(dp416
sg21
(dp417
Vcom.android.settings
p418
g390
sVcom.tencent.mm
p419
g336
sg43
g274
sVcom.android.mms
p420
g367
sVcom.oppo.launcher
p421
g283
sg33
g194
sVcom.tencent.mobileqq
p422
g234
ssg23
(dp423
Vcom.oppo.launcher
p424
g285
sVcom.tencent.mm
p425
g310
sVcom.tencent.mobileqq
p426
g209
ssg25
(dp427
g149
g162
sVcom.tudou.android
p428
g247
sVcom.tencent.mm
p429
g330
sg153
g348
sVcom.oppo.launcher
p430
g286
sg331
g197
sg19
g118
sVcom.tencent.mobileqq
p431
g227
ssg27
(dp432
Vcom.oppo.launcher
p433
g287
sVcom.android.dialer
p434
g150
sg165
g350
sg169
g199
ssg29
(dp435
g53
g341
ssg31
(dp436
Vcom.oppo.launcher
p437
g289
sVcom.tencent.mm
p438
g314
sVcom.tencent.mobileqq
p439
g211
sVcom.oppo.preventmode
p440
g136
ssg33
(dp441
Vcom.oppo.launcher
p442
g290
sVcom.baidu.lbs.waimai
p443
g270
sg420
g362
sg193
g131
ssg35
(dp444
Vcom.oppo.preventmode
p445
g145
sVcom.sina.weibog3
p446
g107
sg117
g157
sg27
g170
sVcom.tudou.android
p447
g260
sVcom.tencent.mobileqq
p448
g230
sVcom.baidu.lbs.waimai
p449
g271
sg165
g363
sVcom.baidu.BaiduMap
p450
g377
sVcom.oppo.launcher
p451
g291
sVme.ele
p452
g190
sg19
g120
sVcom.tencent.mm
p453
g332
ssg37
(dp454
g23
g138
sVcom.sina.weibog3
p455
g102
sg196
g159
sVcom.chinamworld.main
p456
g172
sVcom.android.browser
p457
g79
sg41
g262
sg61
g388
sg175
g343
sVcom.baidu.lbs.waimai
p458
g273
sVcom.android.mms
p459
g365
sVcom.baidu.BaiduMap
p460
g375
sVcom.qiyi.video
p461
g97
sVcom.oppo.launcher
p462
g292
sVme.ele
p463
g192
sVcom.android.phone
p464
g201
sg11
g90
sg84
g334
sVcom.eg.android.AlipayGphone
p465
g133
ssg39
(dp466
Vcom.oppo.launcher
p467
g293
ssg41
(dp468
Vcom.sina.weibog3
p469
g100
sg248
g77
sg261
g214
sg254
g352
sVcom.qiyi.video
p470
g95
sVcom.oppo.launcher
p471
g294
sg463
g182
sg82
g383
sVcom.tencent.mm
p472
g318
ssg43
(dp473
Vcom.oppo.preventmode
p474
g140
sg422
g220
sVcom.android.mms
p475
g355
sg421
g295
sg146
g321
sg21
g125
ssg45
(dp476
Vcom.oppo.launcher
p477
g296
sVcom.baidu.lbs.waimai
p478
g268
sVcom.android.phone
p479
g203
ssg47
(dp480
g8
g81
sg11
g88
sg13
g93
sg15
g104
sg17
g113
sg19
g116
sg21
g129
sg474
g142
sg196
g156
sg149
g168
sg463
g188
sVcom.android.phone
p481
g205
sg403
g225
sg39
g239
sg41
g258
sg43
g269
sg51
g328
sg175
g340
sg55
g360
sg460
g371
sg59
g380
sVcom.android.settings
p482
g387
sg65
g394
ssg49
(dp483
g74
g105
sVcom.oppo.launcher
p484
g297
sg76
g250
ssg51
(dp485
g474
g147
sg457
g85
sg196
g152
sVcom.sina.weibog3
p486
g109
sg39
g243
sVcom.baidu.lbs.waimai
p487
g265
sg55
g353
sg47
g298
sVcom.tudou.android
p488
g253
sVme.ele
p489
g184
sVcom.oppo.camera
p490
g179
sVcom.android.phone
p491
g206
sVcom.tencent.mobileqq
p492
g232
ssg53
(dp493
g339
g299
sg29
g176
sg342
g218
sg61
g384
ssg55
(dp494
g434
g154
sg27
g166
sg401
g255
sVcom.tencent.mm
p495
g323
sg219
g266
sVcom.baidu.BaiduMap
p496
g373
sg47
g300
sg33
g186
sVcom.android.phone
p497
g202
sVcom.tencent.mobileqq
p498
g222
sg233
g127
sg122
g386
ssg57
(dp499
Vcom.oppo.launcher
p500
g301
sg372
g358
sVcom.tencent.mm
p501
g324
ssg59
(dp502
g379
g303
ssg61
(dp503
Vcom.android.browser
p504
g83
sVcom.chinamworld.main
p505
g164
sVcom.tudou.android
p506
g251
sg29
g174
sg53
g345
sVcom.tencent.mm
p507
g320
sVcom.android.mms
p508
g368
sVcom.oppo.launcher
p509
g304
sg171
g236
sg389
g123
ssg63
(dp510
Vcom.oppo.launcher
p511
g305
ssg65
(dp512
Vcom.oppo.launcher
p513
g282
sVcom.oppo.preventmode
p514
g143
ssg67
(dp515
Vcom.oppo.launcher
p516
g306
sVcom.tencent.mm
p517
g337
sVcom.tencent.mobileqq
p518
g231
sVcom.sina.weibog3
p519
g110
sssS'adj'
p520
g72
sb.