ccopy_reg
_reconstructor
p1
(cnetworkx.classes.digraph
DiGraph
p2
c__builtin__
object
p3
NtRp4
(dp5
S'node'
p6
(dp7
Vcom.joym.xiongchumo2.sj360
p8
(dp9
S'weight'
p10
F0.0011603828062488196
ssVcom.lxd.bwjy.qihu
p11
(dp12
g10
F6.22218437969734e-05
ssVcom.jumo.leidian.nl_360
p13
(dp14
g10
F0.001065412623611334
ssVcom.qihoo.gameunion
p15
(dp16
g10
F0.00010806951817369064
ssVcom.qiyi.video
p17
(dp18
g10
F0.10030161220072112
ssVcom.UCMobile
p19
(dp20
g10
F0.00074993695944773197
ssVcom.disney.chukong.WMW
p21
(dp22
g10
F0.007732974411539641
ssVcom.taobao.taobao
p23
(dp24
g10
F0.017043327143897294
ssVcom.sg.ultrmanydmm
p25
(dp26
g10
F0.00031984210934233692
ssVcom.sina.weibo
p27
(dp28
g10
F0.00069426478341886103
ssVcom.qihoo.appstore
p29
(dp30
g10
F0.013611301233411602
ssVcn.kuwo.player
p31
(dp32
g10
F0.044009400956469817
ssVcom.sonyericsson.soundlevelalert
p33
(dp34
g10
F5.4580564734187192e-06
ssVcom.android.packageinstaller
p35
(dp36
g10
F0.0051414891979604336
ssVcom.sonyericsson.album
p37
(dp38
g10
F0.00014736752478230542
ssVcom.baidu.searchbox
p39
(dp40
g10
F0.04958316822712501
ssVcom.sonyericsson.android.socialphonebook
p41
(dp42
g10
F5.4580564734187192e-06
ssVcom.skymoons.hqg.a360
p43
(dp44
g10
F0.0076489203418489927
ssVcom.tencent.mm
p45
(dp46
g10
F0.0079556631156551243
ssVcom.sonyericsson.music
p47
(dp48
g10
F2.1832225893674877e-05
ssVcom.game.FarmGame2.gc
p49
(dp50
g10
F0.0030859851300709439
ssVcom.sonyericsson.setupwizard
p51
(dp52
g10
F0.0062069018215717671
ssVcom.sonyericsson.android.camera
p53
(dp54
g10
F0.0014714920252336867
ssVcom.supercleaner
p55
(dp56
g10
F0.0009464269924908059
ssVcom.android.phone
p57
(dp58
g10
F2.1832225893674876e-06
ssVcom.leo.myworldstr
p59
(dp60
g10
F6.8771511565075859e-05
ssVcom.rebeltwins.daddywasathief
p61
(dp62
g10
F0.0010610461784325989
ssVcom.qihoo.explorer
p63
(dp64
g10
F0.0016265008290787784
ssVcom.tiancity.mpopkart.qihu360
p65
(dp66
g10
F7.3137956743810832e-05
ssVcom.example.app_log_dhao
p67
(dp68
g10
F2.1832225893674876e-06
ssVcom.imangi.templerun2
p69
(dp70
g10
F0.00013645141183546799
ssVcom.dianxinos.superuser
p71
(dp72
g10
F0.0072504822192894268
ssVcom.tencent.mobileqq
p73
(dp74
g10
F0.044428579693628373
ssVcom.sonyericsson.home
p75
(dp76
g10
F0.59435833450681552
ssVcom.kingroot.kinguser
p77
(dp78
g10
F2.1832225893674877e-05
ssVcom.android.settings
p79
(dp80
g10
F0.070024681331372796
ssVcom.tencent.pao
p81
(dp82
g10
F0.00097808372003663452
ssVcom.gamedo.ZombieTerminator
p83
(dp84
g10
F0.00078923496605634677
ssVcom.jm.android.jumei
p85
(dp86
g10
F0.00024015448483042366
ssVcom.mojang.minecraftpe_5
p87
(dp88
g10
F0.0098594332135835735
sssS'graph'
p89
(dp90
sS'succ'
p91
(dp92
g8
(dp93
Vcom.sonyericsson.home
p94
(dp95
g10
I4
sssg11
(dp96
Vcom.sonyericsson.home
p97
(dp98
g10
I1
ssVcom.android.packageinstaller
p99
(dp100
g10
F0.69999999999999996
ssVcom.qihoo.appstore
p101
(dp102
g10
F1.3
sssg13
(dp103
Vcom.sonyericsson.home
p104
(dp105
g10
I1
ssVcom.android.packageinstaller
p106
(dp107
g10
F0.90000000000000002
ssVcom.dianxinos.superuser
p108
(dp109
g10
F0.40000000000000002
ssVcom.qihoo.appstore
p110
(dp111
g10
F3
sssg15
(dp112
Vcom.sonyericsson.home
p113
(dp114
g10
F1.7
ssVcom.qihoo.appstore
p115
(dp116
g10
F1.3
ssVcom.dianxinos.superuser
p117
(dp118
g10
I1
sssg17
(dp119
Vcom.sonyericsson.home
p120
(dp121
g10
F26.599999999999994
ssg33
(dp122
g10
I1
ssVcom.sonyericsson.album
p123
(dp124
g10
F0.90000000000000002
ssVcom.taobao.taobao
p125
(dp126
g10
F0.40000000000000002
ssVcom.baidu.searchbox
p127
(dp128
g10
F4.9000000000000004
ssVcom.tencent.mobileqq
p129
(dp130
g10
F2
sssg19
(dp131
Vcom.sonyericsson.home
p132
(dp133
g10
F3.3999999999999999
ssVcom.sonyericsson.album
p134
(dp135
g10
F0.90000000000000002
ssVcom.tencent.mobileqq
p136
(dp137
g10
I2
ssVcom.qiyi.video
p138
(dp139
g10
F0.69999999999999996
sssg21
(dp140
Vcom.sonyericsson.home
p141
(dp142
g10
F5.7000000000000002
ssVcom.joym.xiongchumo2.sj360
p143
(dp144
g10
F1.8
ssg23
(dp145
g10
F1.8999999999999999
sssg23
(dp146
Vcom.sonyericsson.home
p147
(dp148
g10
F12.799999999999999
ssVcn.kuwo.player
p149
(dp150
g10
I2
ssVcom.game.FarmGame2.gc
p151
(dp152
g10
F0.90000000000000002
ssVcom.baidu.searchbox
p153
(dp154
g10
F1.3
ssVcom.qiyi.video
p155
(dp156
g10
F0.40000000000000002
ssVcom.tencent.mobileqq
p157
(dp158
g10
F2.8999999999999999
sssg25
(dp159
Vcom.sonyericsson.home
p160
(dp161
g10
I1
ssVcom.android.packageinstaller
p162
(dp163
g10
F0.69999999999999996
ssVcom.qihoo.appstore
p164
(dp165
g10
F0.90000000000000002
sssg27
(dp166
Vcn.kuwo.player
p167
(dp168
g10
F1.3999999999999999
ssVcom.sonyericsson.home
p169
(dp170
g10
F3.7000000000000002
ssVcom.tencent.mobileqq
p171
(dp172
g10
F0.90000000000000002
sssg29
(dp173
Vcom.sonyericsson.home
p174
(dp175
g10
F43.199999999999996
ssVcom.supercleaner
p176
(dp177
g10
F10.300000000000001
ssg13
(dp178
g10
F1.7
ssVcom.android.settings
p179
(dp180
g10
F0.90000000000000002
ssg35
(dp181
g10
F17.5
ssg25
(dp182
g10
F0.90000000000000002
ssg59
(dp183
g10
F0.40000000000000002
ssg63
(dp184
g10
F1.3
ssVcom.jm.android.jumei
p185
(dp186
g10
F0.40000000000000002
ssg19
(dp187
g10
F0.69999999999999996
ssg69
(dp188
g10
F0.69999999999999996
ssVcom.qiyi.video
p189
(dp190
g10
F0.90000000000000002
ssVcom.dianxinos.superuser
p191
(dp192
g10
F30.199999999999992
ssg65
(dp193
g10
F0.69999999999999996
sssg31
(dp194
Vcom.sonyericsson.home
p195
(dp196
g10
F42.999999999999993
ssg43
(dp197
g10
I1
ssVcom.supercleaner
p198
(dp199
g10
F1.8999999999999999
ssVcom.android.packageinstaller
p200
(dp201
g10
F0.69999999999999996
ssg37
(dp202
g10
F0.69999999999999996
ssVcom.qiyi.video
p203
(dp204
g10
F1.3
ssVcom.taobao.taobao
p205
(dp206
g10
I1
ssVcom.qihoo.explorer
p207
(dp208
g10
F0.90000000000000002
ssVcom.jm.android.jumei
p209
(dp210
g10
F1.3
ssVcom.baidu.searchbox
p211
(dp212
g10
F4.4000000000000004
ssVcom.dianxinos.superuser
p213
(dp214
g10
F0.90000000000000002
ssVcom.qihoo.appstore
p215
(dp216
g10
I1
ssVcom.tencent.mobileqq
p217
(dp218
g10
F20.100000000000001
ssg47
(dp219
g10
F0.69999999999999996
sssg33
(dp220
Vcom.sonyericsson.home
p221
(dp222
g10
F0.90000000000000002
ssg127
(dp223
g10
F0.69999999999999996
ssVcom.qiyi.video
p224
(dp225
g10
I1
sssg35
(dp226
Vcom.sonyericsson.home
p227
(dp228
g10
F13.600000000000001
ssg77
(dp229
g10
F1.7
ssVcom.supercleaner
p230
(dp231
g10
F11.199999999999999
ssg15
(dp232
g10
F1.7000000000000002
ssg63
(dp233
g10
F0.69999999999999996
ssg65
(dp234
g10
I1
ssg19
(dp235
g10
F0.40000000000000002
ssVcom.baidu.searchbox
p236
(dp237
g10
F4.4000000000000004
ssg108
(dp238
g10
F13.300000000000001
ssVcom.mojang.minecraftpe_5
p239
(dp240
g10
I1
ssVcom.qihoo.appstore
p241
(dp242
g10
F17.699999999999999
sssg37
(dp243
Vcom.sonyericsson.home
p244
(dp245
g10
F4.4000000000000004
ssVcom.UCMobile
p246
(dp247
g10
F3.4000000000000004
ssVcom.sonyericsson.android.camera
p248
(dp249
g10
F3.6000000000000001
ssVcom.tencent.mobileqq
p250
(dp251
g10
F3.6999999999999997
ssg138
(dp252
g10
I1
sssg39
(dp253
Vcom.sonyericsson.home
p254
(dp255
g10
F26.899999999999991
ssg167
(dp256
g10
F1.6000000000000001
ssg15
(dp257
g10
F1.7
ssVcom.supercleaner
p258
(dp259
g10
F1.7000000000000002
ssVcom.android.settings
p260
(dp261
g10
F0.90000000000000002
ssVcom.android.packageinstaller
p262
(dp263
g10
F6.1000000000000005
ssg37
(dp264
g10
I2
ssVcom.qiyi.video
p265
(dp266
g10
F3.5
ssVcom.sonyericsson.android.camera
p267
(dp268
g10
F0.90000000000000002
ssg125
(dp269
g10
F0.90000000000000002
ssVcom.tencent.mobileqq
p270
(dp271
g10
F2.2999999999999998
ssg33
(dp272
g10
F0.69999999999999996
ssg117
(dp273
g10
F0.90000000000000002
ssg27
(dp274
g10
F1.3
ssg47
(dp275
g10
I1
sssg41
(dp276
Vcom.sonyericsson.home
p277
(dp278
g10
F0.90000000000000002
ssVcom.qihoo.explorer
p279
(dp280
g10
F0.69999999999999996
ssg57
(dp281
g10
I1
sssg43
(dp282
Vcom.sonyericsson.home
p283
(dp284
g10
F3.7000000000000002
ssVcom.tencent.mm
p285
(dp286
g10
F0.90000000000000002
ssg200
(dp287
g10
F2.2000000000000002
ssVcom.baidu.searchbox
p288
(dp289
g10
F1.7
ssg213
(dp290
g10
I1
ssVcom.tencent.mobileqq
p291
(dp292
g10
F1.3
sssg45
(dp293
Vcom.sonyericsson.home
p294
(dp295
g10
F4.4000000000000004
ssg31
(dp296
g10
F0.90000000000000002
ssg291
(dp297
g10
F0.90000000000000002
ssg211
(dp298
g10
F0.40000000000000002
sssg47
(dp299
Vcom.sonyericsson.home
p300
(dp301
g10
F0.90000000000000002
ssg167
(dp302
g10
F0.40000000000000002
ssg27
(dp303
g10
F0.69999999999999996
ssVcom.baidu.searchbox
p304
(dp305
g10
I1
sssg49
(dp306
Vcom.sonyericsson.home
p307
(dp308
g10
I2
ssVcom.joym.xiongchumo2.sj360
p309
(dp310
g10
I1
sssg51
(dp311
Vcom.sonyericsson.home
p312
(dp313
g10
F10.5
ssg79
(dp314
g10
I10
ssVcom.android.packageinstaller
p315
(dp316
g10
F0.40000000000000002
ssVcom.dianxinos.superuser
p317
(dp318
g10
F1.3999999999999999
ssVcom.qihoo.appstore
p319
(dp320
g10
F3.8999999999999999
sssg53
(dp321
Vcn.kuwo.player
p322
(dp323
g10
I1
ssVcom.sonyericsson.home
p324
(dp325
g10
F2.2999999999999998
ssVcom.sonyericsson.album
p326
(dp327
g10
F4.0999999999999996
ssg138
(dp328
g10
F0.40000000000000002
ssg246
(dp329
g10
F2.7000000000000002
ssVcom.baidu.searchbox
p330
(dp331
g10
F0.90000000000000002
sssg55
(dp332
g75
(dp333
g10
F11.699999999999999
ssVcom.kingroot.kinguser
p334
(dp335
g10
I1
ssg35
(dp336
g10
F10.800000000000001
ssg15
(dp337
g10
F0.69999999999999996
ssVcom.baidu.searchbox
p338
(dp339
g10
F1.3
ssg67
(dp340
g10
F0.69999999999999996
ssVcn.kuwo.player
p341
(dp342
g10
F0.90000000000000002
ssVcom.qiyi.video
p343
(dp344
g10
F0.90000000000000002
ssg191
(dp345
g10
F7.7000000000000002
ssg73
(dp346
g10
I1
ssVcom.qihoo.appstore
p347
(dp348
g10
F12.9
sssg57
(dp349
g277
(dp350
g10
I1
ssg279
(dp351
g10
F0.90000000000000002
sssg59
(dp352
Vcom.sonyericsson.home
p353
(dp354
g10
I2
sssg61
(dp355
Vcom.sonyericsson.home
p356
(dp357
g10
I1
sssg63
(dp358
Vcom.sonyericsson.home
p359
(dp360
g10
F4.8000000000000007
ssg31
(dp361
g10
F0.40000000000000002
ssg57
(dp362
g10
F0.69999999999999996
ssg85
(dp363
g10
F0.90000000000000002
ssg19
(dp364
g10
I1
ssg41
(dp365
g10
F0.90000000000000002
ssg45
(dp366
g10
F0.90000000000000002
ssVcom.qihoo.appstore
p367
(dp368
g10
F0.40000000000000002
sssg65
(dp369
Vcom.sonyericsson.home
p370
(dp371
g10
F0.90000000000000002
ssVcom.dianxinos.superuser
p372
(dp373
g10
I1
sssg67
(dp374
Vcom.sonyericsson.home
p375
(dp376
g10
F1.7
ssg29
(dp377
g10
F0.90000000000000002
sssg69
(dp378
Vcom.sonyericsson.home
p379
(dp380
g10
F6.1000000000000005
sssg71
(dp381
Vcom.sonyericsson.home
p382
(dp383
g10
F19.999999999999996
ssg77
(dp384
g10
F1.3
ssg230
(dp385
g10
F7.1000000000000005
ssg13
(dp386
g10
F0.90000000000000002
ssVcom.android.packageinstaller
p387
(dp388
g10
F24.999999999999996
ssVcom.qihoo.gameunion
p389
(dp390
g10
I1
ssg59
(dp391
g10
F0.90000000000000002
ssg65
(dp392
g10
F0.90000000000000002
ssg69
(dp393
g10
F1.7000000000000002
ssg25
(dp394
g10
F0.40000000000000002
ssVcom.mojang.minecraftpe_5
p395
(dp396
g10
F2.2999999999999998
ssVcom.tencent.mobileqq
p397
(dp398
g10
I1
ssVcom.qihoo.appstore
p399
(dp400
g10
F15.000000000000004
sssg73
(dp401
g75
(dp402
g10
F46.399999999999991
ssVcn.kuwo.player
p403
(dp404
g10
F16.5
ssVcom.sonyericsson.setupwizard
p405
(dp406
g10
F1.7
ssVcom.sonyericsson.android.camera
p407
(dp408
g10
F2.3999999999999999
ssVcom.baidu.searchbox
p409
(dp410
g10
F3.4999999999999996
ssVcom.android.settings
p411
(dp412
g10
F0.90000000000000002
ssg262
(dp413
g10
F0.80000000000000004
ssg81
(dp414
g10
I1
ssg155
(dp415
g10
F3.6000000000000001
ssVcom.UCMobile
p416
(dp417
g10
F0.69999999999999996
ssg67
(dp418
g10
F0.90000000000000002
ssVcom.taobao.taobao
p419
(dp420
g10
F2.2000000000000002
ssg71
(dp421
g10
I1
ssVcom.sonyericsson.album
p422
(dp423
g10
F1.8
ssVcom.skymoons.hqg.a360
p424
(dp425
g10
F0.90000000000000002
ssg29
(dp426
g10
F2.4000000000000004
sssg75
(dp427
g37
(dp428
g10
F10.800000000000001
ssg13
(dp429
g10
F2.2999999999999998
ssg17
(dp430
g10
F33.899999999999991
ssg19
(dp431
g10
F5.1000000000000005
ssVcom.disney.chukong.WMW
p432
(dp433
g10
I3
ssg23
(dp434
g10
F9.4000000000000004
ssg25
(dp435
g10
F1.7
ssg27
(dp436
g10
I1
ssg29
(dp437
g10
F39.099999999999994
ssg31
(dp438
g10
F34.899999999999991
ssg33
(dp439
g10
F1.3
ssg35
(dp440
g10
F10.099999999999998
ssVcom.joym.xiongchumo2.sj360
p441
(dp442
g10
F4.4000000000000004
ssVcom.baidu.searchbox
p443
(dp444
g10
F30.699999999999989
ssg41
(dp445
g10
I1
ssVcom.skymoons.hqg.a360
p446
(dp447
g10
I3
ssg45
(dp448
g10
F2.7000000000000002
ssg47
(dp449
g10
F0.90000000000000002
ssg151
(dp450
g10
I2
ssVcom.sonyericsson.setupwizard
p451
(dp452
g10
F5.4000000000000004
ssg407
(dp453
g10
F6
ssg176
(dp454
g10
F3.7000000000000002
ssg57
(dp455
g10
F0.90000000000000002
ssg59
(dp456
g10
F1.7
ssVcom.rebeltwins.daddywasathief
p457
(dp458
g10
I1
ssg63
(dp459
g10
F7.7000000000000002
ssg67
(dp460
g10
I1
ssg69
(dp461
g10
F6.1000000000000005
ssg191
(dp462
g10
F10.600000000000001
ssg157
(dp463
g10
F30.999999999999996
ssg260
(dp464
g10
F5.7000000000000002
ssg85
(dp465
g10
F6.5
ssg395
(dp466
g10
F3.7000000000000002
sssg77
(dp467
Vcom.sonyericsson.home
p468
(dp469
g10
F1.7
ssg230
(dp470
g10
I1
ssVcom.qihoo.appstore
p471
(dp472
g10
F1.3
sssg79
(dp473
Vcom.sonyericsson.home
p474
(dp475
g10
F11
ssVcom.sonyericsson.setupwizard
p476
(dp477
g10
I8
ssVcom.sonyericsson.android.camera
p478
(dp479
g10
F0.40000000000000002
ssVcom.sonyericsson.album
p480
(dp481
g10
F0.90000000000000002
ssVcom.qihoo.explorer
p482
(dp483
g10
F0.40000000000000002
ssg185
(dp484
g10
F0.90000000000000002
ssVcom.baidu.searchbox
p485
(dp486
g10
F0.40000000000000002
ssg317
(dp487
g10
F0.80000000000000004
ssVcom.tencent.mobileqq
p488
(dp489
g10
F0.90000000000000002
ssg319
(dp490
g10
F2.0999999999999996
sssg81
(dp491
Vcom.sonyericsson.home
p492
(dp493
g10
I1
ssVcom.android.packageinstaller
p494
(dp495
g10
F0.69999999999999996
ssVcom.qihoo.appstore
p496
(dp497
g10
F0.90000000000000002
sssg83
(dp498
Vcom.sonyericsson.home
p499
(dp500
g10
I1
ssVcom.android.packageinstaller
p501
(dp502
g10
F0.69999999999999996
ssVcom.qihoo.appstore
p503
(dp504
g10
F1.3
sssg85
(dp505
Vcom.sonyericsson.home
p506
(dp507
g10
F3.7000000000000002
ssVcom.android.packageinstaller
p508
(dp509
g10
F0.69999999999999996
ssg45
(dp510
g10
F0.40000000000000002
ssg482
(dp511
g10
F0.90000000000000002
ssg367
(dp512
g10
F0.90000000000000002
sssg87
(dp513
Vcom.sonyericsson.home
p514
(dp515
g10
F9.3000000000000007
ssVcom.android.settings
p516
(dp517
g10
F0.90000000000000002
ssg480
(dp518
g10
F0.40000000000000002
ssVcom.leo.myworldstr
p519
(dp520
g10
I1
ssVcom.dianxinos.superuser
p521
(dp522
g10
I1
ssVcom.tencent.mobileqq
p523
(dp524
g10
I3
ssssS'edge'
p525
g92
sS'pred'
p526
(dp527
g8
(dp528
g49
g310
sVcom.sonyericsson.home
p529
g442
sVcom.disney.chukong.WMW
p530
g144
ssg11
(dp531
sg13
(dp532
Vcom.sonyericsson.home
p533
g429
sg317
g386
sVcom.qihoo.appstore
p534
g178
ssg15
(dp535
Vcom.android.packageinstaller
p536
g232
sVcom.baidu.searchbox
p537
g257
sVcom.supercleaner
p538
g337
sg117
g390
ssg17
(dp539
Vcom.sonyericsson.home
p540
g430
sVcn.kuwo.player
p541
g204
sVcom.sonyericsson.android.camera
p542
g328
sVcom.supercleaner
p543
g344
sg33
g225
sg134
g252
sg419
g156
sg246
g139
sVcom.baidu.searchbox
p544
g266
sg157
g415
sVcom.qihoo.appstore
p545
g190
ssg19
(dp546
g227
g431
sg248
g329
sg35
g235
sVcom.sonyericsson.album
p547
g247
sg63
g364
sVcom.tencent.mobileqq
p548
g417
sg241
g187
ssg21
(dp549
g141
g433
ssg23
(dp550
Vcom.sonyericsson.home
p551
g434
sVcn.kuwo.player
p552
g206
sVcom.baidu.searchbox
p553
g269
sVcom.disney.chukong.WMW
p554
g145
sVcom.qiyi.video
p555
g126
sVcom.tencent.mobileqq
p556
g420
ssg25
(dp557
Vcom.sonyericsson.home
p558
g435
sVcom.qihoo.appstore
p559
g182
sVcom.dianxinos.superuser
p560
g394
ssg27
(dp561
g300
g436
sVcom.baidu.searchbox
p562
g274
sg47
g303
ssg29
(dp563
g75
g437
sVcn.kuwo.player
p564
g216
sg451
g320
sg15
g116
sg11
g102
sVcom.supercleaner
p565
g348
sVcom.jumo.leidian.nl_360
p566
g111
sVcom.android.settings
p567
g490
sg35
g242
sg25
g165
sVcom.qihoo.explorer
p568
g368
sg85
g512
sg81
g497
sg67
g377
sg83
g504
sg71
g400
sg73
g426
sg77
g472
ssg31
(dp569
Vcom.sonyericsson.home
p570
g438
sg53
g323
sg258
g342
sg45
g296
sg304
g256
sVcom.taobao.taobao
p571
g150
sg482
g361
sVcom.tencent.mobileqq
p572
g404
sg27
g168
sg47
g302
ssg33
(dp573
Vcom.sonyericsson.home
p574
g439
sg265
g122
sg544
g272
ssg35
(dp575
Vcom.sonyericsson.home
p576
g440
sVcn.kuwo.player
p577
g201
sVcom.sonyericsson.setupwizard
p578
g316
sg81
g495
sg11
g100
sg565
g336
sVcom.jumo.leidian.nl_360
p579
g107
sVcom.dianxinos.superuser
p580
g388
sg288
g263
sg85
g509
sg83
g502
sg25
g163
sg43
g287
sVcom.tencent.mobileqq
p581
g413
sg347
g181
ssg37
(dp582
g294
g428
sg31
g202
sg267
g327
sg516
g481
sg138
g124
sg246
g135
sg211
g264
sg250
g423
sVcom.mojang.minecraftpe_5
p583
g518
ssg39
(dp584
Vcom.sonyericsson.home
p585
g444
sg31
g212
sg267
g331
sg258
g339
sg33
g223
sg262
g237
sg265
g128
sg125
g154
sg270
g410
sVcom.android.settings
p586
g486
sg424
g289
sg45
g298
sg47
g305
ssg41
(dp587
Vcom.sonyericsson.home
p588
g445
sVcom.qihoo.explorer
p589
g365
ssg43
(dp590
g577
g197
sVcom.sonyericsson.home
p591
g447
sg581
g425
ssg45
(dp592
Vcom.sonyericsson.home
p593
g448
sVcom.skymoons.hqg.a360
p594
g286
sg482
g366
sg185
g510
ssg47
(dp595
Vcn.kuwo.player
p596
g219
sVcom.sonyericsson.home
p597
g449
sg562
g275
ssg49
(dp598
Vcom.sonyericsson.home
p599
g450
sVcom.taobao.taobao
p600
g152
ssg51
(dp601
Vcom.sonyericsson.home
p602
g452
sg79
g477
sVcom.tencent.mobileqq
p603
g406
ssg53
(dp604
Vcom.sonyericsson.home
p605
g453
sg516
g479
sg547
g249
sVcom.tencent.mobileqq
p606
g408
sVcom.baidu.searchbox
p607
g268
ssg55
(dp608
Vcom.sonyericsson.home
p609
g454
sVcn.kuwo.player
p610
g199
sg77
g470
sg387
g231
sVcom.baidu.searchbox
p611
g259
sg580
g385
sVcom.qihoo.appstore
p612
g177
ssg57
(dp613
g588
g455
sg589
g362
sg41
g281
ssg59
(dp614
Vcom.sonyericsson.home
p615
g456
sg87
g520
sVcom.dianxinos.superuser
p616
g391
sVcom.qihoo.appstore
p617
g183
ssg61
(dp618
g356
g458
ssg63
(dp619
g227
g459
sVcn.kuwo.player
p620
g208
sg179
g483
sg35
g233
sg57
g351
sg185
g511
sg41
g280
sg347
g184
ssg65
(dp621
Vcom.android.packageinstaller
p622
g234
sVcom.dianxinos.superuser
p623
g392
sVcom.qihoo.appstore
p624
g193
ssg67
(dp625
g75
g460
sg73
g418
sg55
g340
ssg69
(dp626
Vcom.sonyericsson.home
p627
g461
sVcom.qihoo.appstore
p628
g188
sVcom.dianxinos.superuser
p629
g393
ssg71
(dp630
g609
g462
sg577
g214
sVcom.sonyericsson.setupwizard
p631
g318
sg176
g345
sg579
g109
sVcom.android.settings
p632
g487
sg106
g238
sg15
g118
sg537
g273
sg65
g373
sg395
g522
sg43
g290
sVcom.tencent.mobileqq
p633
g421
sg612
g192
ssg73
(dp634
Vcom.sonyericsson.home
p635
g463
sVcn.kuwo.player
p636
g218
sg134
g251
sg55
g346
sg586
g489
sg285
g297
sVcom.baidu.searchbox
p637
g271
sg416
g137
sg419
g158
sg71
g398
sVcom.qiyi.video
p638
g130
sg594
g292
sVcom.sina.weibo
p639
g172
sVcom.mojang.minecraftpe_5
p640
g524
ssg75
(dp641
Vcom.sonyericsson.album
p642
g245
sg11
g98
sg566
g105
sg15
g114
sg17
g121
sVcom.UCMobile
p643
g133
sg21
g142
sg39
g255
sg25
g161
sg639
g170
sg29
g175
sg31
g196
sg33
g222
sg35
g228
sg8
g95
sVcom.taobao.taobao
p644
g148
sg41
g278
sg594
g284
sg45
g295
sg47
g301
sg151
g308
sg451
g313
sg267
g325
sg55
g333
sg57
g350
sg59
g354
sg61
g357
sg568
g360
sg65
g371
sg67
g376
sg69
g380
sg71
g383
sg73
g402
sg77
g469
sg179
g475
sg81
g493
sg83
g500
sg85
g507
sg87
g515
ssg77
(dp645
g387
g229
sg230
g335
sg580
g384
ssg79
(dp646
g254
g464
sg51
g314
sg39
g261
sVcom.qihoo.appstore
p647
g180
sg603
g412
sg583
g517
ssg81
(dp648
Vcom.tencent.mobileqq
p649
g414
ssg83
(dp650
sg85
(dp651
Vcom.sonyericsson.home
p652
g465
sg179
g484
sVcn.kuwo.player
p653
g210
sg568
g363
sg647
g186
ssg87
(dp654
Vcom.sonyericsson.home
p655
g466
sVcom.android.packageinstaller
p656
g240
sVcom.dianxinos.superuser
p657
g396
sssS'adj'
p658
g92
sb.