ccopy_reg
_reconstructor
p1
(cnetworkx.classes.digraph
DiGraph
p2
c__builtin__
object
p3
NtRp4
(dp5
S'node'
p6
(dp7
Vcom.android.browser
p8
(dp9
S'weight'
p10
F0.00056871777337541725
ssVcom.youku.phone
p11
(dp12
g10
F0.0043899513926712727
ssVcom.qiyi.video
p13
(dp14
g10
F0.023918791912867627
ssVcom.huanxiao.store
p15
(dp16
g10
F0.00037799972852746769
ssVcom.android.deskclock
p17
(dp18
g10
F0.00066321770550728423
ssVcom.UCMobile
p19
(dp20
g10
F0.11021612993568849
ssVcom.hunantv.imgo.activity
p21
(dp22
g10
F0.013068481523545087
ssVcom.android.launcher
p23
(dp24
g10
F0.41493202018518549
ssVcom.sina.weibo
p25
(dp26
g10
F0.033946093802350814
ssVcom.eg.android.AlipayGphone
p27
(dp28
g10
F0.0040944243321861615
ssVcom.miui.weather2
p29
(dp30
g10
F0.0016236806520838953
ssVcom.android.packageinstaller
p31
(dp32
g10
F0.00011168173797402454
ssVcom.android.soundrecorder
p33
(dp34
g10
F0.00010309083505294574
ssVme.ele
p35
(dp36
g10
F0.0010120083641030841
ssVcom.xiaomi.market
p37
(dp38
g10
F0.00016322715550049741
ssVcom.nowcoder.app.florida
p39
(dp40
g10
F0.018449823113308856
ssVcom.android.phone
p41
(dp42
g10
F0.0038762153979907598
ssVcom.miui.gallery
p43
(dp44
g10
F0.00010137265446872997
ssVcom.tencent.mobileqq
p45
(dp46
g10
F0.030875705098357249
ssVcom.miui.antispam
p47
(dp48
g10
F2.9209069931667957e-05
ssVcom.baidu.lbs.waimai
p49
(dp50
g10
F0.0010876083098085776
ssVcom.android.calculator
p51
(dp52
g10
F0.0083366121946148782
ssVcom.tencent.mm
p53
(dp54
g10
F0.064091572152416357
ssVcom.dianping.v1
p55
(dp56
g10
F0.00027490889347452194
ssVcom.android.fileexplorer
p57
(dp58
g10
F0.00021477257302697028
ssVcom.miui.yellowpage
p59
(dp60
g10
F0.00014948171082677131
ssVcom.happyelements.AndroidAnimal
p61
(dp62
g10
F0.0027628343794189455
ssVcom.android.email
p63
(dp64
g10
F0.0022387893012331384
ssVcom.duokan.reader
p65
(dp66
g10
F0.24699704988393689
ssVcom.miui.notes
p67
(dp68
g10
F0.0080874760099035933
ssVcom.miui.networkassistant
p69
(dp70
g10
F3.4363611684315242e-05
ssVcom.android.settings
p71
(dp72
g10
F0.0001408908079056925
ssVcom.android.mms
p73
(dp74
g10
F0.0026116344880079585
ssVcom.android.calendar
p75
(dp76
g10
F3.7799972852746768e-05
ssVcom.miui.barcodescanner
p77
(dp78
g10
F4.4672695189609819e-05
ssVcom.android.quicksearchbox
p79
(dp80
g10
F1.3745444673726097e-05
ssVcom.android.camera
p81
(dp82
g10
F0.00013573626615304523
ssVcom.xiaomi.account
p83
(dp84
g10
F4.2954514605394053e-05
ssVcom.yidian.xiaomi
p85
(dp86
g10
F0.00017525441959000774
sssS'node_dict_factory'
p87
c__builtin__
dict
p88
sS'edge_attr_dict_factory'
p89
g88
sS'succ'
p90
(dp91
g8
(dp92
Vcom.android.launcher
p93
(dp94
g10
F7.7000000000000011
ssVcom.android.settings
p95
(dp96
g10
F0.90000000000000002
ssg31
(dp97
g10
F1.7
ssVcom.android.mms
p98
(dp99
g10
I1
ssVcom.xiaomi.market
p100
(dp101
g10
F0.90000000000000002
ssVcom.miui.barcodescanner
p102
(dp103
g10
F0.90000000000000002
ssVcom.android.email
p104
(dp105
g10
I1
ssVcom.tencent.mobileqq
p106
(dp107
g10
F3.7000000000000002
sssg11
(dp108
Vcom.tencent.mobileqq
p109
(dp110
g10
I1
ssVcom.duokan.reader
p111
(dp112
g10
I1
ssVcom.android.launcher
p113
(dp114
g10
I1
sssg13
(dp115
Vcom.tencent.mm
p116
(dp117
g10
F3.8999999999999999
ssVcom.sina.weibo
p118
(dp119
g10
I1
ssg27
(dp120
g10
F0.90000000000000002
ssVcom.android.launcher
p121
(dp122
g10
F6.2999999999999998
ssVcom.tencent.mobileqq
p123
(dp124
g10
F0.69999999999999996
sssg15
(dp125
Vcom.tencent.mm
p126
(dp127
g10
F0.90000000000000002
ssVcom.android.mms
p128
(dp129
g10
F1.3
ssVcom.android.launcher
p130
(dp131
g10
F5.2999999999999998
ssVcom.xiaomi.market
p132
(dp133
g10
I1
sssg17
(dp134
Vcom.android.quicksearchbox
p135
(dp136
g10
F0.90000000000000002
ssVcom.duokan.reader
p137
(dp138
g10
I4
ssVcom.android.launcher
p139
(dp140
g10
I5
sssg19
(dp141
g75
(dp142
g10
F0.40000000000000002
ssVcom.miui.weather2
p143
(dp144
g10
F0.90000000000000002
ssg69
(dp145
g10
F0.69999999999999996
ssVcom.tencent.mm
p146
(dp147
g10
F17.399999999999999
ssVcom.android.mms
p148
(dp149
g10
F6
ssVcom.android.deskclock
p150
(dp151
g10
F0.90000000000000002
ssVcom.android.fileexplorer
p152
(dp153
g10
F2.7000000000000002
ssVme.ele
p154
(dp155
g10
F1.8
ssVcom.android.launcher
p156
(dp157
g10
F64.400000000000006
ssVcom.android.phone
p158
(dp159
g10
F3.8999999999999999
ssVcom.android.calculator
p160
(dp161
g10
F1.8999999999999999
ssVcom.android.email
p162
(dp163
g10
F0.90000000000000002
ssVcom.sina.weibo
p164
(dp165
g10
F4
ssVcom.duokan.reader
p166
(dp167
g10
F3.8999999999999999
ssVcom.tencent.mobileqq
p168
(dp169
g10
F30.499999999999996
sssg21
(dp170
Vcom.tencent.mm
p171
(dp172
g10
F0.69999999999999996
ssVcom.qiyi.video
p173
(dp174
g10
F0.90000000000000002
ssVcom.android.launcher
p175
(dp176
g10
I2
sssg23
(dp177
g8
(dp178
g10
F4.5999999999999996
ssg13
(dp179
g10
F3.7000000000000002
ssVcom.huanxiao.store
p180
(dp181
g10
I1
ssg17
(dp182
g10
F15.300000000000001
ssVcom.UCMobile
p183
(dp184
g10
F22
ssVcom.hunantv.imgo.activity
p185
(dp186
g10
F1.7
ssg25
(dp187
g10
F34.799999999999997
ssg27
(dp188
g10
F16.199999999999999
ssg29
(dp189
g10
F23.5
ssg31
(dp190
g10
F2.7000000000000002
ssg33
(dp191
g10
F2.7000000000000002
ssg35
(dp192
g10
F7.1000000000000005
ssg37
(dp193
g10
F6
ssVcom.nowcoder.app.florida
p194
(dp195
g10
F1.8999999999999999
ssg41
(dp196
g10
F23.399999999999995
ssg43
(dp197
g10
F2.8999999999999999
ssg53
(dp198
g10
F146.80000000000007
ssg51
(dp199
g10
I3
ssg49
(dp200
g10
F3.2999999999999998
ssg55
(dp201
g10
F4.7000000000000002
ssg152
(dp202
g10
F7.4000000000000004
ssg59
(dp203
g10
F3.6000000000000001
ssVcom.happyelements.AndroidAnimal
p204
(dp205
g10
I6
ssVcom.android.email
p206
(dp207
g10
F12.600000000000001
ssVcom.duokan.reader
p208
(dp209
g10
F48.000000000000007
ssVcom.tencent.mobileqq
p210
(dp211
g10
F119.60000000000011
ssVcom.miui.notes
p212
(dp213
g10
F11.4
ssg69
(dp214
g10
F4.0999999999999996
ssg71
(dp215
g10
F7.9000000000000004
ssVcom.android.mms
p216
(dp217
g10
F44.900000000000006
ssg75
(dp218
g10
F3.3999999999999999
ssg77
(dp219
g10
F4.0999999999999996
ssg79
(dp220
g10
F2.7000000000000002
ssg81
(dp221
g10
I1
ssg83
(dp222
g10
F1.3
ssg85
(dp223
g10
F3.3999999999999999
sssg25
(dp224
Vcom.android.browser
p225
(dp226
g10
F1.3999999999999999
ssVcom.miui.weather2
p227
(dp228
g10
F2.2000000000000002
ssVcom.android.launcher
p229
(dp230
g10
F44.600000000000001
ssVcom.android.calendar
p231
(dp232
g10
F0.40000000000000002
ssg210
(dp233
g10
F5.7999999999999998
ssg31
(dp234
g10
F0.40000000000000002
ssVcom.baidu.lbs.waimai
p235
(dp236
g10
F1.3
ssg216
(dp237
g10
F0.69999999999999996
ssVcom.UCMobile
p238
(dp239
g10
F1.3999999999999999
ssg185
(dp240
g10
F0.40000000000000002
ssg77
(dp241
g10
F0.90000000000000002
ssVcom.tencent.mm
p242
(dp243
g10
F12.100000000000003
ssVcom.duokan.reader
p244
(dp245
g10
F0.90000000000000002
ssVcom.eg.android.AlipayGphone
p246
(dp247
g10
F0.90000000000000002
sssg27
(dp248
Vcom.miui.weather2
p249
(dp250
g10
F0.40000000000000002
ssVcom.tencent.mobileqq
p251
(dp252
g10
F1.3
ssVcom.baidu.lbs.waimai
p253
(dp254
g10
F2.7000000000000002
ssVcom.android.mms
p255
(dp256
g10
F1.8999999999999999
ssVcom.UCMobile
p257
(dp258
g10
F0.69999999999999996
ssVme.ele
p259
(dp260
g10
I2
ssVcom.android.launcher
p261
(dp262
g10
F18.299999999999997
ssVcom.android.phone
p263
(dp264
g10
F0.90000000000000002
ssVcom.happyelements.AndroidAnimal
p265
(dp266
g10
F1.3
ssVcom.tencent.mm
p267
(dp268
g10
F2.7000000000000002
ssVcom.duokan.reader
p269
(dp270
g10
F1.8
sssg29
(dp271
g231
(dp272
g10
F0.90000000000000002
ssVcom.tencent.mobileqq
p273
(dp274
g10
F2.2000000000000002
ssVcom.android.mms
p275
(dp276
g10
F0.90000000000000002
ssVcom.qiyi.video
p277
(dp278
g10
F0.90000000000000002
ssVcom.android.fileexplorer
p279
(dp280
g10
F0.40000000000000002
ssVcom.android.launcher
p281
(dp282
g10
F14.699999999999999
ssVcom.tencent.mm
p283
(dp284
g10
F1.3
ssVcom.duokan.reader
p285
(dp286
g10
I1
sssg31
(dp287
Vcom.android.launcher
p288
(dp289
g10
F0.90000000000000002
ssVcom.xiaomi.market
p290
(dp291
g10
I1
sssg33
(dp292
Vcom.android.launcher
p293
(dp294
g10
F2.7000000000000002
sssg35
(dp295
Vcom.UCMobile
p296
(dp297
g10
F1.8
ssVcom.tencent.mm
p298
(dp299
g10
I1
ssVcom.eg.android.AlipayGphone
p300
(dp301
g10
I1
ssVcom.android.launcher
p302
(dp303
g10
F7.4000000000000004
ssVcom.android.phone
p304
(dp305
g10
F1.6000000000000001
sssg37
(dp306
Vcom.android.settings
p307
(dp308
g10
I1
ssVcom.android.packageinstaller
p309
(dp310
g10
F1.8999999999999999
ssg49
(dp311
g10
F1.7
ssg288
(dp312
g10
F2.3999999999999999
ssVcom.android.email
p313
(dp314
g10
I1
ssVcom.eg.android.AlipayGphone
p315
(dp316
g10
F1.3
sssg39
(dp317
Vcom.miui.notes
p318
(dp319
g10
F0.90000000000000002
ssVcom.tencent.mm
p320
(dp321
g10
F2.7000000000000002
ssVcom.android.mms
p322
(dp323
g10
I1
ssVcom.android.deskclock
p324
(dp325
g10
F0.90000000000000002
ssVcom.android.launcher
p326
(dp327
g10
F11.5
ssVcom.tencent.mobileqq
p328
(dp329
g10
F8.6999999999999993
sssg41
(dp330
Vcom.miui.notes
p331
(dp332
g10
I1
ssVcom.tencent.mobileqq
p333
(dp334
g10
F1.8
ssVcom.sina.weibo
p335
(dp336
g10
F0.90000000000000002
ssVcom.android.mms
p337
(dp338
g10
F0.40000000000000002
ssVcom.android.launcher
p339
(dp340
g10
F17.199999999999999
ssg59
(dp341
g10
F3.8999999999999999
ssVcom.tencent.mm
p342
(dp343
g10
F7.4000000000000004
ssVcom.duokan.reader
p344
(dp345
g10
F5.9000000000000004
ssVcom.eg.android.AlipayGphone
p346
(dp347
g10
I1
sssg43
(dp348
Vcom.tencent.mm
p349
(dp350
g10
F0.90000000000000002
ssVcom.android.mms
p351
(dp352
g10
F0.90000000000000002
ssVcom.eg.android.AlipayGphone
p353
(dp354
g10
F0.40000000000000002
ssVcom.android.launcher
p355
(dp356
g10
F3.4000000000000004
sssg45
(dp357
Vcom.android.browser
p358
(dp359
g10
I1
ssVcom.miui.weather2
p360
(dp361
g10
F0.69999999999999996
ssVcom.youku.phone
p362
(dp363
g10
I1
ssVcom.UCMobile
p364
(dp365
g10
F12
ssg69
(dp366
g10
F3.1000000000000001
ssVcom.sina.weibo
p367
(dp368
g10
F6.2999999999999998
ssg235
(dp369
g10
F0.69999999999999996
ssVcom.android.mms
p370
(dp371
g10
F11.300000000000001
ssVcom.miui.yellowpage
p372
(dp373
g10
I1
ssVcom.android.deskclock
p374
(dp375
g10
F0.90000000000000002
ssg57
(dp376
g10
F1.7
ssVcom.nowcoder.app.florida
p377
(dp378
g10
I2
ssVcom.android.phone
p379
(dp380
g10
F0.90000000000000002
ssg23
(dp381
g10
F122.60000000000008
ssVcom.android.settings
p382
(dp383
g10
F0.90000000000000002
ssg135
(dp384
g10
F0.40000000000000002
ssVcom.miui.notes
p385
(dp386
g10
F1.8999999999999999
ssVcom.android.email
p387
(dp388
g10
I1
ssVcom.tencent.mm
p389
(dp390
g10
F24.299999999999994
ssg65
(dp391
g10
F41.70000000000001
ssVcom.yidian.xiaomi
p392
(dp393
g10
F0.90000000000000002
sssg47
(dp394
sg49
(dp395
Vcom.tencent.mm
p396
(dp397
g10
F1.3
ssg257
(dp398
g10
F1.3
ssVcom.android.launcher
p399
(dp400
g10
F4.0999999999999996
ssVcom.android.phone
p401
(dp402
g10
F0.90000000000000002
ssg333
(dp403
g10
F0.40000000000000002
ssVcom.duokan.reader
p404
(dp405
g10
F1.7
ssg315
(dp406
g10
F4.7000000000000002
sssg51
(dp407
Vcom.tencent.mobileqq
p408
(dp409
g10
I1
ssVcom.miui.notes
p410
(dp411
g10
F0.90000000000000002
ssVcom.duokan.reader
p412
(dp413
g10
I1
ssVcom.android.launcher
p414
(dp415
g10
F8.6999999999999993
sssg53
(dp416
Vcom.android.browser
p417
(dp418
g10
I1
ssVcom.miui.weather2
p419
(dp420
g10
F0.90000000000000002
ssg75
(dp421
g10
F0.90000000000000002
ssVcom.tencent.mobileqq
p422
(dp423
g10
F35.199999999999996
ssg31
(dp424
g10
F0.90000000000000002
ssg216
(dp425
g10
F12.5
ssVme.ele
p426
(dp427
g10
F1.8999999999999999
ssg47
(dp428
g10
I1
ssVcom.android.deskclock
p429
(dp430
g10
I2
ssVcom.UCMobile
p431
(dp432
g10
F14.300000000000001
ssg194
(dp433
g10
I1
ssg185
(dp434
g10
F0.90000000000000002
ssVcom.android.launcher
p435
(dp436
g10
F148.30000000000007
ssVcom.android.phone
p437
(dp438
g10
F4.8000000000000007
ssVcom.happyelements.AndroidAnimal
p439
(dp440
g10
F3.5999999999999996
ssVcom.miui.notes
p441
(dp442
g10
F3.1999999999999997
ssg63
(dp443
g10
F5.2000000000000002
ssVcom.sina.weibo
p444
(dp445
g10
F7.9000000000000012
ssVcom.duokan.reader
p446
(dp447
g10
F20.300000000000001
ssVcom.eg.android.AlipayGphone
p448
(dp449
g10
F3.6000000000000001
ssg83
(dp450
g10
F0.69999999999999996
sssg55
(dp451
Vcom.android.launcher
p452
(dp453
g10
I2
sssg57
(dp454
Vcom.android.deskclock
p455
(dp456
g10
F0.69999999999999996
ssVcom.sina.weibo
p457
(dp458
g10
F0.90000000000000002
ssg65
(dp459
g10
I4
ssg23
(dp460
g10
F6.7000000000000011
sssg59
(dp461
g337
(dp462
g10
F0.90000000000000002
ssVcom.android.launcher
p463
(dp464
g10
F1.7
sssg61
(dp465
Vcom.miui.notes
p466
(dp467
g10
I1
ssVcom.UCMobile
p468
(dp469
g10
I1
ssVcom.tencent.mobileqq
p470
(dp471
g10
F1.8
ssg277
(dp472
g10
F0.40000000000000002
ssVcom.dianping.v1
p473
(dp474
g10
F1.3
ssg152
(dp475
g10
F0.69999999999999996
ssVcom.android.launcher
p476
(dp477
g10
F13.5
ssg249
(dp478
g10
F0.90000000000000002
ssVcom.tencent.mm
p479
(dp480
g10
F0.90000000000000002
sssg63
(dp481
Vcom.android.browser
p482
(dp483
g10
I1
ssVcom.tencent.mobileqq
p484
(dp485
g10
I5
ssVcom.android.mms
p486
(dp487
g10
F2.2000000000000002
ssVcom.xiaomi.market
p488
(dp489
g10
I1
ssVcom.UCMobile
p490
(dp491
g10
I1
ssVcom.android.launcher
p492
(dp493
g10
F15.6
ssVcom.tencent.mm
p494
(dp495
g10
F2.0999999999999996
ssVcom.duokan.reader
p496
(dp497
g10
I1
sssg65
(dp498
Vcom.youku.phone
p499
(dp500
g10
I1
ssg455
(dp501
g10
F8.6999999999999993
ssg23
(dp502
g10
F121.60000000000009
ssVcom.sina.weibo
p503
(dp504
g10
F2.7999999999999998
ssVcom.eg.android.AlipayGphone
p505
(dp506
g10
F1.7
ssVcom.miui.weather2
p507
(dp508
g10
F4
ssg35
(dp509
g10
F1.3
ssg401
(dp510
g10
F7.7000000000000011
ssg53
(dp511
g10
F23.999999999999996
ssVcom.miui.antispam
p512
(dp513
g10
I1
ssVcom.android.calculator
p514
(dp515
g10
I1
ssVcom.baidu.lbs.waimai
p516
(dp517
g10
F0.90000000000000002
ssVcom.xiaomi.market
p518
(dp519
g10
F1.3
ssVcom.android.fileexplorer
p520
(dp521
g10
F2.8999999999999999
ssVcom.android.email
p522
(dp523
g10
F2.7000000000000002
ssVcom.tencent.mobileqq
p524
(dp525
g10
F71.300000000000011
ssVcom.android.settings
p526
(dp527
g10
F2.7999999999999998
ssg73
(dp528
g10
F6.8000000000000007
ssVcom.miui.barcodescanner
p529
(dp530
g10
F0.90000000000000002
ssg59
(dp531
g10
F0.40000000000000002
ssg83
(dp532
g10
I1
ssg85
(dp533
g10
F1.3
sssg67
(dp534
g482
(dp535
g10
F0.69999999999999996
ssVcom.tencent.mobileqq
p536
(dp537
g10
F1.8999999999999999
ssVcom.android.mms
p538
(dp539
g10
I1
ssVcom.android.launcher
p540
(dp541
g10
F15.099999999999998
ssg206
(dp542
g10
F1.3
ssVcom.tencent.mm
p543
(dp544
g10
F3.1999999999999997
ssVcom.duokan.reader
p545
(dp546
g10
F0.40000000000000002
sssg69
(dp547
Vcom.android.mms
p548
(dp549
g10
F1.7000000000000002
ssVcom.miui.weather2
p550
(dp551
g10
F0.90000000000000002
ssVcom.tencent.mobileqq
p552
(dp553
g10
I1
ssVcom.android.launcher
p554
(dp555
g10
F5.7999999999999998
sssg71
(dp556
Vcom.sina.weibo
p557
(dp558
g10
F0.90000000000000002
ssg309
(dp559
g10
I1
ssVcom.tencent.mm
p560
(dp561
g10
F0.90000000000000002
ssVcom.android.launcher
p562
(dp563
g10
F3.4000000000000004
ssg290
(dp564
g10
F0.90000000000000002
sssg73
(dp565
g550
(dp566
g10
F0.69999999999999996
ssg279
(dp567
g10
F1.3
ssVcom.miui.networkassistant
p568
(dp569
g10
I1
ssVcom.tencent.mm
p570
(dp571
g10
F9.1999999999999993
ssVcom.sina.weibo
p572
(dp573
g10
I1
ssVcom.UCMobile
p574
(dp575
g10
I1
ssVcom.android.launcher
p576
(dp577
g10
F36.79999999999999
ssg441
(dp578
g10
F1.3999999999999999
ssg422
(dp579
g10
F8.2000000000000011
ssVcom.duokan.reader
p580
(dp581
g10
F5.1000000000000005
ssVcom.eg.android.AlipayGphone
p582
(dp583
g10
F2.7999999999999998
sssg75
(dp584
Vcom.android.launcher
p585
(dp586
g10
I1
sssg77
(dp587
g225
(dp588
g10
F2.3999999999999999
ssg93
(dp589
g10
F1.8
ssg95
(dp590
g10
F0.69999999999999996
sssg79
(dp591
sg81
(dp592
g43
(dp593
g10
I1
ssVcom.android.launcher
p594
(dp595
g10
I3
sssg83
(dp596
sg85
(dp597
Vcom.tencent.mobileqq
p598
(dp599
g10
F1.3
ssVcom.android.launcher
p600
(dp601
g10
F2.7000000000000002
ssssS'edge'
p602
g91
sS'graph'
p603
(dp604
sS'adjlist_dict_factory'
p605
g88
sS'adj'
p606
g91
sS'pred'
p607
(dp608
g8
(dp609
g67
g535
sVcom.android.launcher
p610
g178
sVcom.sina.weibo
p611
g226
sg77
g588
sg206
g483
sVcom.tencent.mm
p612
g418
sVcom.tencent.mobileqq
p613
g359
ssg11
(dp614
g109
g363
sVcom.duokan.reader
p615
g500
ssg13
(dp616
g265
g472
sg249
g278
sVcom.hunantv.imgo.activity
p617
g174
sVcom.android.launcher
p618
g179
ssg15
(dp619
Vcom.android.launcher
p620
g181
ssg17
(dp621
Vcom.UCMobile
p622
g151
sVcom.tencent.mobileqq
p623
g375
sVcom.android.fileexplorer
p624
g456
sVcom.nowcoder.app.florida
p625
g325
sVcom.android.launcher
p626
g182
sVcom.tencent.mm
p627
g430
sg208
g501
ssg19
(dp628
g253
g398
sVcom.sina.weibo
p629
g239
sVcom.tencent.mm
p630
g432
sg148
g575
sg154
g297
sVcom.android.launcher
p631
g184
sVcom.happyelements.AndroidAnimal
p632
g469
sVcom.android.email
p633
g491
sg168
g365
sVcom.eg.android.AlipayGphone
p634
g258
ssg21
(dp635
g116
g434
sg118
g240
sVcom.android.launcher
p636
g186
ssg23
(dp637
g225
g94
sVcom.youku.phone
p638
g114
sg13
g122
sg15
g131
sg455
g140
sg19
g157
sg21
g176
sVcom.sina.weibo
p639
g230
sg246
g262
sVcom.miui.weather2
p640
g282
sg309
g289
sg33
g294
sVme.ele
p641
g303
sVcom.xiaomi.market
p642
g312
sg39
g327
sg41
g340
sVcom.miui.gallery
p643
g356
sVcom.tencent.mm
p644
g436
sVcom.android.calculator
p645
g415
sg253
g400
sg473
g453
sg57
g460
sVcom.android.camera
p646
g595
sg61
g477
sVcom.android.email
p647
g493
sg65
g502
sg45
g381
sg67
g541
sg69
g555
sg526
g563
sVcom.android.mms
p648
g577
sg231
g586
sg77
g589
sg59
g464
sg85
g601
ssg25
(dp649
Vcom.UCMobile
p650
g165
sg210
g368
sVcom.android.mms
p651
g573
sVcom.qiyi.video
p652
g119
sg152
g458
sVcom.android.launcher
p653
g187
sg41
g336
sVcom.tencent.mm
p654
g445
sVcom.duokan.reader
p655
g504
sVcom.android.settings
p656
g558
ssg27
(dp657
g267
g449
sg49
g406
sg255
g583
sVcom.qiyi.video
p658
g120
sg37
g316
sVme.ele
p659
g301
sVcom.android.launcher
p660
g188
sVcom.android.phone
p661
g347
sg643
g354
sVcom.sina.weibo
p662
g247
sg269
g506
ssg29
(dp663
g568
g551
sVcom.tencent.mobileqq
p664
g361
sVcom.tencent.mm
p665
g420
sg548
g566
sVcom.UCMobile
p666
g144
sVcom.android.launcher
p667
g189
sg265
g478
sVcom.sina.weibo
p668
g228
sVcom.duokan.reader
p669
g508
sVcom.eg.android.AlipayGphone
p670
g250
ssg31
(dp671
g417
g97
sg307
g559
sVcom.sina.weibo
p672
g234
sg642
g310
sVcom.android.launcher
p673
g190
sg612
g424
ssg33
(dp674
Vcom.android.launcher
p675
g191
ssg35
(dp676
Vcom.UCMobile
p677
g155
sVcom.eg.android.AlipayGphone
p678
g260
sg298
g427
sVcom.duokan.reader
p679
g509
sVcom.android.launcher
p680
g192
ssg37
(dp681
Vcom.android.browser
p682
g101
sg307
g564
sg309
g291
sg15
g133
sVcom.android.launcher
p683
g193
sg313
g489
sVcom.duokan.reader
p684
g519
ssg39
(dp685
Vcom.tencent.mobileqq
p686
g378
sg320
g433
sg326
g195
ssg41
(dp687
Vcom.tencent.mobileqq
p688
g380
sVcom.baidu.lbs.waimai
p689
g402
sVcom.UCMobile
p690
g159
sg641
g305
sVcom.android.launcher
p691
g196
sVcom.tencent.mm
p692
g438
sg404
g510
sVcom.eg.android.AlipayGphone
p693
g264
ssg43
(dp694
g81
g593
sVcom.android.launcher
p695
g197
ssg45
(dp696
Vcom.android.calculator
p697
g409
sVcom.android.browser
p698
g107
sg227
g274
sg11
g110
sg69
g553
sVcom.sina.weibo
p699
g233
sg689
g403
sg216
g579
sVcom.qiyi.video
p700
g124
sVcom.UCMobile
p701
g169
sVcom.nowcoder.app.florida
p702
g329
sVcom.android.launcher
p703
g211
sg401
g334
sg61
g471
sg385
g537
sVcom.android.email
p704
g485
sVcom.tencent.mm
p705
g423
sVcom.duokan.reader
p706
g525
sVcom.eg.android.AlipayGphone
p707
g252
sg392
g599
ssg47
(dp708
Vcom.tencent.mm
p709
g428
sVcom.duokan.reader
p710
g513
ssg49
(dp711
Vcom.sina.weibo
p712
g236
sg37
g311
sg683
g200
sVcom.tencent.mobileqq
p713
g369
sVcom.duokan.reader
p714
g517
sg315
g254
ssg51
(dp715
Vcom.UCMobile
p716
g161
sVcom.duokan.reader
p717
g515
sVcom.android.launcher
p718
g199
ssg53
(dp719
Vcom.miui.gallery
p720
g350
sg227
g284
sg526
g561
sVcom.baidu.lbs.waimai
p721
g397
sg216
g571
sg35
g299
sg652
g117
sg180
g127
sg650
g147
sg39
g321
sg617
g172
sVcom.android.launcher
p722
g198
sg437
g343
sVcom.happyelements.AndroidAnimal
p723
g480
sVcom.miui.notes
p724
g544
sVcom.android.email
p725
g495
sg164
g243
sVcom.duokan.reader
p726
g511
sVcom.eg.android.AlipayGphone
p727
g268
sg422
g390
ssg55
(dp728
Vcom.happyelements.AndroidAnimal
p729
g474
sVcom.android.launcher
p730
g201
ssg57
(dp731
g550
g280
sg275
g567
sg468
g153
sVcom.android.launcher
p732
g202
sg632
g475
sg45
g376
sg65
g521
ssg59
(dp733
Vcom.tencent.mobileqq
p734
g373
sVcom.duokan.reader
p735
g531
sVcom.android.launcher
p736
g203
sVcom.android.phone
p737
g341
ssg61
(dp738
Vcom.tencent.mm
p739
g440
sg448
g266
sVcom.android.launcher
p740
g205
ssg63
(dp741
g482
g105
sg67
g542
sVcom.tencent.mm
p742
g443
sg518
g314
sg490
g163
sg540
g207
sVcom.tencent.mobileqq
p743
g388
sVcom.duokan.reader
p744
g523
ssg65
(dp745
g640
g286
sg499
g112
sVcom.UCMobile
p746
g167
sVcom.android.calculator
p747
g413
sg45
g391
sVcom.sina.weibo
p748
g245
sg689
g405
sg275
g581
sVcom.android.deskclock
p749
g138
sg57
g459
sVcom.android.launcher
p750
g209
sg401
g345
sVcom.miui.notes
p751
g546
sVcom.android.email
p752
g497
sVcom.tencent.mm
p753
g447
sVcom.eg.android.AlipayGphone
p754
g270
ssg67
(dp755
Vcom.android.calculator
p756
g411
sVcom.tencent.mobileqq
p757
g386
sg486
g578
sVcom.nowcoder.app.florida
p758
g319
sVcom.android.launcher
p759
g213
sVcom.android.phone
p760
g332
sVcom.happyelements.AndroidAnimal
p761
g467
sVcom.tencent.mm
p762
g442
ssg69
(dp763
Vcom.UCMobile
p764
g145
sVcom.tencent.mobileqq
p765
g366
sg548
g569
sVcom.android.launcher
p766
g214
ssg71
(dp767
Vcom.android.browser
p768
g96
sVcom.android.launcher
p769
g215
sg642
g308
sg102
g590
sVcom.tencent.mobileqq
p770
g383
sVcom.duokan.reader
p771
g527
ssg73
(dp772
Vcom.android.browser
p773
g99
sg643
g352
sg550
g276
sg69
g549
sVcom.sina.weibo
p774
g237
sVcom.huanxiao.store
p775
g129
sg364
g149
sVcom.nowcoder.app.florida
p776
g323
sVcom.android.launcher
p777
g217
sg737
g338
sVcom.miui.notes
p778
g539
sg59
g462
sg725
g487
sg705
g425
sVcom.duokan.reader
p779
g528
sVcom.eg.android.AlipayGphone
p780
g256
sVcom.tencent.mobileqq
p781
g371
ssg75
(dp782
Vcom.UCMobile
p783
g142
sVcom.sina.weibo
p784
g232
sVcom.miui.weather2
p785
g272
sVcom.tencent.mm
p786
g421
sVcom.android.launcher
p787
g218
ssg77
(dp788
g225
g103
sg611
g241
sVcom.duokan.reader
p789
g530
sVcom.android.launcher
p790
g219
ssg79
(dp791
g374
g136
sg623
g384
sVcom.android.launcher
p792
g220
ssg81
(dp793
g695
g221
ssg83
(dp794
Vcom.tencent.mm
p795
g450
sg545
g532
sVcom.android.launcher
p796
g222
ssg85
(dp797
Vcom.tencent.mobileqq
p798
g393
sVcom.duokan.reader
p799
g533
sVcom.android.launcher
p800
g223
sssb.