ccopy_reg
_reconstructor
p1
(cnetworkx.classes.digraph
DiGraph
p2
c__builtin__
object
p3
NtRp4
(dp5
S'node'
p6
(dp7
Vcom.huawei.android.multiscreen
p8
(dp9
S'weight'
p10
F9.1941848619585082e-07
ssVcom.android.browser
p11
(dp12
g10
F0.0042045007373736256
ssVcom.mobilecaltronics.calculator
p13
(dp14
g10
F0.0014306151645207439
ssVcom.moji.mjweather
p15
(dp16
g10
F0.0082618945169559161
ssVcom.youdao.dict
p17
(dp18
g10
F0.061796874712681721
ssVcom.android.soundrecorder
p19
(dp20
g10
F1.8388369723917016e-06
ssVcom.baidu.netdisk
p21
(dp22
g10
F0.018637532133676093
ssVcom.UCMobile
p23
(dp24
g10
F0.13534024000500164
ssVcom.huawei.android.dlna
p25
(dp26
g10
F4.5970924309792542e-06
ssVcom.sohu.inputmethod.sogou
p27
(dp28
g10
F1.1952440320546062e-05
ssVcom.taobao.taobao
p29
(dp30
g10
F0.011181048210627742
ssVcom.android.notepad
p31
(dp32
g10
F0.0011262876455899174
ssVcom.iBookStar.activity
p33
(dp34
g10
F0.00042569075910867896
ssVcom.sina.weibo
p35
(dp36
g10
F0.11433060817694025
ssVcom.android.contacts
p37
(dp38
g10
F0.0056121304397394739
ssVcom.eg.android.AlipayGphone
p39
(dp40
g10
F0.00091390197527867569
ssVcom.docin.zlibrary.ui.android
p41
(dp42
g10
F0.0064966110234598818
ssVcn.wps.moffice_eng
p43
(dp44
g10
F0.0037971983479888642
ssVcom.changba
p45
(dp46
g10
F0.01014026648425404
ssVair.fyzb3
p47
(dp48
g10
F0.0046881148611126432
ssVcom.android.bluetooth
p49
(dp50
g10
F6.4359294033709561e-06
ssVcom.android.packageinstaller
p51
(dp52
g10
F1.3791277292937763e-05
ssVcom.sankuai.meituan
p53
(dp54
g10
F0.0012237460051266775
ssVcom.android.gallery3d
p55
(dp56
g10
F0.0099784488306835697
ssVcom.android.video
p57
(dp58
g10
F0.00057739480933099432
ssVcom.qihoo360.mobilesafe
p59
(dp60
g10
F0.027044694771450953
ssVcom.huawei.hidisk
p61
(dp62
g10
F0.0038707518268845322
ssVme.ele
p63
(dp64
g10
F0.00092033790468204675
ssVcom.fanli.android.apps
p65
(dp66
g10
F0.00022801578457657101
ssVcom.mediatek.FMRadio
p67
(dp68
g10
F0.0064184604521332345
ssVcom.android.phone
p69
(dp70
g10
F0.0072735196442953757
ssVcom.tencent.mobileqq
p71
(dp72
g10
F0.25384776636472961
ssVcn.com.fetion
p73
(dp74
g10
F0.002385890971678233
ssVcom.kugou.android
p75
(dp76
g10
F0.011656387567990997
ssVcom.zhangyu
p77
(dp78
g10
F0.00070703281588460935
ssVcom.xtuone.android.syllabus
p79
(dp80
g10
F0.00037420332388171131
ssVcom.jiongji.andriod.card
p81
(dp82
g10
F0.10889868376049516
ssVcom.android.email
p83
(dp84
g10
F9.1941848619585082e-07
ssVcom.eusoft.ting.en
p85
(dp86
g10
F2.4824299127287974e-05
ssVinsigma.waybook
p87
(dp88
g10
F0.0038799460117464905
ssVcom.immomo.momo
p89
(dp90
g10
F0.00014710695779133614
ssVcom.codoon.gps
p91
(dp92
g10
F0.00015630114265329463
ssVcom.android.calendar
p93
(dp94
g10
F1.1033021834350209e-05
ssVcom.tencent.mm
p95
(dp96
g10
F0.076575607459793832
ssVcom.android.mms
p97
(dp98
g10
F0.017755809805414271
ssVcom.tiexue.ms
p99
(dp100
g10
F0.070092787713626883
ssVcom.appcenter.TheOnion
p101
(dp102
g10
F1.7468951237721166e-05
ssVcom.huawei.hwid
p103
(dp104
g10
F8.2747663757626579e-06
ssVcom.mediatek.data
p105
(dp106
g10
F0.00034570135080963993
ssVcom.baidu.tieba
p107
(dp108
g10
F0.0029936265910536905
ssVcom.android.mediacenter
p109
(dp110
g10
F3.585732096163818e-05
ssVcom.android.settings
p111
(dp112
g10
F0.0041180753996712159
ssVcom.snda.wifilocating
p113
(dp114
g10
F8.2747663757626579e-06
sssS'node_dict_factory'
p115
c__builtin__
dict
p116
sS'edge_attr_dict_factory'
p117
g116
sS'succ'
p118
(dp119
g8
(dp120
Vcom.qihoo360.mobilesafe
p121
(dp122
g10
I1
sssg11
(dp123
g25
(dp124
g10
F1.7
ssVcom.youdao.dict
p125
(dp126
g10
F3.9999999999999996
ssVcom.baidu.netdisk
p127
(dp128
g10
F5.1000000000000005
ssVcom.UCMobile
p129
(dp130
g10
F64.000000000000014
ssVcom.taobao.taobao
p131
(dp132
g10
F5.5
ssVcom.sina.weibo
p133
(dp134
g10
F45.699999999999989
ssVcom.android.contacts
p135
(dp136
g10
F2.3999999999999999
ssVcom.eg.android.AlipayGphone
p137
(dp138
g10
I1
ssVcn.wps.moffice_eng
p139
(dp140
g10
F2.8999999999999999
ssVcom.changba
p141
(dp142
g10
I1
ssVcom.sankuai.meituan
p143
(dp144
g10
I1
ssVcom.android.gallery3d
p145
(dp146
g10
F0.69999999999999996
ssVcom.moji.mjweather
p147
(dp148
g10
I1
ssVcom.qihoo360.mobilesafe
p149
(dp150
g10
F3.8999999999999995
ssVcom.huawei.hidisk
p151
(dp152
g10
F0.90000000000000002
ssg65
(dp153
g10
F0.40000000000000002
ssVcom.mediatek.FMRadio
p154
(dp155
g10
F1.8
ssVcom.android.phone
p156
(dp157
g10
F0.69999999999999996
ssVcom.tencent.mobileqq
p158
(dp159
g10
F63.599999999999973
ssVcn.com.fetion
p160
(dp161
g10
I1
ssVcom.docin.zlibrary.ui.android
p162
(dp163
g10
F0.90000000000000002
ssVcom.tencent.mm
p164
(dp165
g10
F38.099999999999973
ssVcom.android.mms
p166
(dp167
g10
F2.9000000000000004
ssVcom.tiexue.ms
p168
(dp169
g10
F16.200000000000003
ssVcom.android.settings
p170
(dp171
g10
F66.499999999999986
sssg13
(dp172
Vcom.jiongji.andriod.card
p173
(dp174
g10
F1.7
ssVcn.wps.moffice_eng
p175
(dp176
g10
F1.3
ssVcom.baidu.netdisk
p177
(dp178
g10
I1
ssVcom.qihoo360.mobilesafe
p179
(dp180
g10
I1
ssVcom.UCMobile
p181
(dp182
g10
F1.7
ssVcom.tencent.mobileqq
p183
(dp184
g10
F3.2999999999999998
ssVcom.eg.android.AlipayGphone
p185
(dp186
g10
F2.2999999999999998
sssg15
(dp187
Vcom.youdao.dict
p188
(dp189
g10
F6.2000000000000011
ssVcom.android.browser
p190
(dp191
g10
I1
ssVcom.jiongji.andriod.card
p192
(dp193
g10
I3
ssVcom.android.gallery3d
p194
(dp195
g10
I1
ssVinsigma.waybook
p196
(dp197
g10
I1
ssVcom.appcenter.TheOnion
p198
(dp199
g10
F1.7
ssVcom.android.calendar
p200
(dp201
g10
I1
ssVcom.sina.weibo
p202
(dp203
g10
I2
ssVcom.tencent.mm
p204
(dp205
g10
F20.199999999999999
ssVcom.kugou.android
p206
(dp207
g10
F0.69999999999999996
ssVcom.tiexue.ms
p208
(dp209
g10
F3.2000000000000002
ssVcom.UCMobile
p210
(dp211
g10
F1.3
ssVcom.baidu.tieba
p212
(dp213
g10
I1
ssVcom.qihoo360.mobilesafe
p214
(dp215
g10
F2.2999999999999998
ssVcom.android.phone
p216
(dp217
g10
F0.69999999999999996
ssVcom.docin.zlibrary.ui.android
p218
(dp219
g10
F0.40000000000000002
ssVcom.tencent.mobileqq
p220
(dp221
g10
F13.6
ssVcom.android.contacts
p222
(dp223
g10
F0.90000000000000002
ssVcom.android.settings
p224
(dp225
g10
F2
sssg17
(dp226
Vcom.android.browser
p227
(dp228
g10
F5
ssVcom.jiongji.andriod.card
p229
(dp230
g10
I1
ssVcom.sankuai.meituan
p231
(dp232
g10
F2.2999999999999998
ssVcom.baidu.netdisk
p233
(dp234
g10
F0.69999999999999996
ssVcom.UCMobile
p235
(dp236
g10
F58.000000000000007
ssVcom.snda.wifilocating
p237
(dp238
g10
I1
ssg31
(dp239
g10
F1.7
ssg33
(dp240
g10
F1.3
ssVcom.sina.weibo
p241
(dp242
g10
F8.4000000000000004
ssVcom.android.contacts
p243
(dp244
g10
F5
ssVcom.eg.android.AlipayGphone
p245
(dp246
g10
I1
ssVcn.wps.moffice_eng
p247
(dp248
g10
F0.69999999999999996
ssVcom.changba
p249
(dp250
g10
F8.8000000000000007
ssVcom.moji.mjweather
p251
(dp252
g10
I2
ssVcom.android.gallery3d
p253
(dp254
g10
F2.6999999999999997
ssVcom.taobao.taobao
p255
(dp256
g10
F5.7000000000000002
ssg61
(dp257
g10
F5.4000000000000004
ssVcom.android.video
p258
(dp259
g10
F0.90000000000000002
ssVcom.mediatek.FMRadio
p260
(dp261
g10
F1.3
ssVcom.android.phone
p262
(dp263
g10
F10.899999999999999
ssVcom.tencent.mm
p264
(dp265
g10
F41.899999999999984
ssVcom.xtuone.android.syllabus
p266
(dp267
g10
I1
ssVcom.docin.zlibrary.ui.android
p268
(dp269
g10
F1.7
ssVcom.tencent.mobileqq
p270
(dp271
g10
F76.700000000000031
ssg196
(dp272
g10
F0.90000000000000002
ssVcom.android.calendar
p273
(dp274
g10
F1.7
ssVcom.android.settings
p275
(dp276
g10
F7.8000000000000007
ssVcom.android.mms
p277
(dp278
g10
F8.7000000000000011
ssVcom.tiexue.ms
p279
(dp280
g10
F5.2000000000000002
ssVcom.baidu.tieba
p281
(dp282
g10
F0.69999999999999996
sssg19
(dp283
sg21
(dp284
Vcom.android.browser
p285
(dp286
g10
F2.6000000000000001
ssVcom.mobilecaltronics.calculator
p287
(dp288
g10
F0.90000000000000002
ssVair.fyzb3
p289
(dp290
g10
F2.7000000000000002
ssg89
(dp291
g10
I1
ssVcom.changba
p292
(dp293
g10
F4
ssVcom.huawei.hidisk
p294
(dp295
g10
F2.7000000000000002
ssVcom.tencent.mm
p296
(dp297
g10
F18.199999999999999
ssVcom.sina.weibo
p298
(dp299
g10
F7.6000000000000014
ssg97
(dp300
g10
F7.1000000000000005
ssVcom.tiexue.ms
p301
(dp302
g10
F2.6000000000000001
ssVcom.UCMobile
p303
(dp304
g10
F12.000000000000002
ssVcom.baidu.tieba
p305
(dp306
g10
F2.7000000000000002
ssVcom.taobao.taobao
p307
(dp308
g10
I1
ssVcom.android.notepad
p309
(dp310
g10
F2.6000000000000001
ssVcom.android.settings
p311
(dp312
g10
F6.7000000000000002
ssVcom.tencent.mobileqq
p313
(dp314
g10
F38.199999999999982
ssg185
(dp315
g10
F1.7
ssVcom.youdao.dict
p316
(dp317
g10
F0.40000000000000002
sssg23
(dp318
Vcom.android.browser
p319
(dp320
g10
F66.100000000000023
ssg13
(dp321
g10
F1.8999999999999999
ssVcom.sankuai.meituan
p322
(dp323
g10
F2.3999999999999999
ssVcom.youdao.dict
p324
(dp325
g10
F57.499999999999993
ssg253
(dp326
g10
F2.6000000000000001
ssg177
(dp327
g10
F25.299999999999986
ssg91
(dp328
g10
F2.3999999999999999
ssg27
(dp329
g10
F2.6000000000000001
ssVcom.taobao.taobao
p330
(dp331
g10
F5.7000000000000002
ssVcom.android.notepad
p332
(dp333
g10
F2.2999999999999998
ssVcom.sina.weibo
p334
(dp335
g10
F47.29999999999999
ssg37
(dp336
g10
F9.5999999999999996
ssVcom.eg.android.AlipayGphone
p337
(dp338
g10
F2.3999999999999999
ssVcn.wps.moffice_eng
p339
(dp340
g10
F8.5
ssg294
(dp341
g10
F8.3000000000000007
ssg51
(dp342
g10
F1.3
ssg15
(dp343
g10
F2.3999999999999999
ssg19
(dp344
g10
I1
ssg59
(dp345
g10
F7.1000000000000005
ssVair.fyzb3
p346
(dp347
g10
F5.1000000000000005
ssg63
(dp348
g10
F0.90000000000000002
ssVcom.mediatek.FMRadio
p349
(dp350
g10
F8.7000000000000011
ssg69
(dp351
g10
F7.2999999999999998
ssVcom.tencent.mm
p352
(dp353
g10
F168.8000000000001
ssVcom.kugou.android
p354
(dp355
g10
I1
ssg77
(dp356
g10
F2.2000000000000002
ssg79
(dp357
g10
F0.40000000000000002
ssVcom.jiongji.andriod.card
p358
(dp359
g10
F16.899999999999999
ssg41
(dp360
g10
F1.6000000000000001
ssVinsigma.waybook
p361
(dp362
g10
I1
ssVcom.tencent.mobileqq
p363
(dp364
g10
F282.49999999999955
ssVcom.android.mms
p365
(dp366
g10
F19.099999999999998
ssVcom.tiexue.ms
p367
(dp368
g10
F52.299999999999997
ssg103
(dp369
g10
F0.90000000000000002
ssg281
(dp370
g10
F1.3
ssg170
(dp371
g10
F82.200000000000003
sssg25
(dp372
Vcom.UCMobile
p373
(dp374
g10
F1.3
ssVcom.tencent.mobileqq
p375
(dp376
g10
F0.69999999999999996
ssVcom.tiexue.ms
p377
(dp378
g10
I1
sssg27
(dp379
Vcom.UCMobile
p380
(dp381
g10
F1.3
ssVcom.tencent.mobileqq
p382
(dp383
g10
F3.7000000000000002
ssVcom.taobao.taobao
p384
(dp385
g10
F0.90000000000000002
sssg29
(dp386
Vcom.android.browser
p387
(dp388
g10
I2
ssVcom.youdao.dict
p389
(dp390
g10
F1.3999999999999999
ssVcom.sina.weibo
p391
(dp392
g10
F2.8999999999999999
ssVcom.tencent.mm
p393
(dp394
g10
F11.400000000000002
ssVcom.android.gallery3d
p395
(dp396
g10
I1
ssVcom.android.mms
p397
(dp398
g10
F3.2999999999999998
ssVcom.tiexue.ms
p399
(dp400
g10
F2.7000000000000002
ssVcom.baidu.netdisk
p401
(dp402
g10
F1.7
ssVcom.UCMobile
p403
(dp404
g10
F2.9999999999999996
ssVcom.qihoo360.mobilesafe
p405
(dp406
g10
I1
ssVcom.android.phone
p407
(dp408
g10
F0.90000000000000002
ssVcom.tencent.mobileqq
p409
(dp410
g10
F21.400000000000002
ssVcom.android.contacts
p411
(dp412
g10
F3.6000000000000001
ssVcom.eg.android.AlipayGphone
p413
(dp414
g10
F5.0999999999999996
ssVcom.android.settings
p415
(dp416
g10
I1
sssg31
(dp417
Vcom.jiongji.andriod.card
p418
(dp419
g10
F2.2999999999999998
ssVcom.youdao.dict
p420
(dp421
g10
I1
ssVcom.changba
p422
(dp423
g10
F1.3
ssVcom.tencent.mm
p424
(dp425
g10
I1
ssVcom.android.mms
p426
(dp427
g10
F8.9000000000000004
ssVcom.baidu.netdisk
p428
(dp429
g10
F2.3999999999999999
ssVcom.mobilecaltronics.calculator
p430
(dp431
g10
I1
ssg83
(dp432
g10
F1.3
ssVcom.sina.weibo
p433
(dp434
g10
F1.8
ssVcom.tencent.mobileqq
p435
(dp436
g10
F8.5
sssg33
(dp437
Vcom.jiongji.andriod.card
p438
(dp439
g10
I1
ssVcom.tencent.mobileqq
p440
(dp441
g10
F0.40000000000000002
ssVcom.android.mms
p442
(dp443
g10
F2
ssVcom.baidu.netdisk
p444
(dp445
g10
I1
ssVcom.huawei.hidisk
p446
(dp447
g10
F5.1000000000000005
ssg49
(dp448
g10
F1.3
ssVcom.tencent.mm
p449
(dp450
g10
F0.90000000000000002
sssg35
(dp451
g319
(dp452
g10
F51.699999999999996
ssVcom.jiongji.andriod.card
p453
(dp454
g10
I5
ssVcom.moji.mjweather
p455
(dp456
g10
F1.7
ssVcom.youdao.dict
p457
(dp458
g10
F6.2999999999999998
ssVcom.baidu.netdisk
p459
(dp460
g10
F5.4000000000000004
ssVcom.UCMobile
p461
(dp462
g10
F73.099999999999994
ssg330
(dp463
g10
F1.7
ssVcom.android.contacts
p464
(dp465
g10
F9.4000000000000021
ssVcn.wps.moffice_eng
p466
(dp467
g10
I1
ssVcom.changba
p468
(dp469
g10
F10.500000000000002
ssg346
(dp470
g10
F1.7000000000000002
ssVcom.sankuai.meituan
p471
(dp472
g10
F1.3
ssVcom.android.gallery3d
p473
(dp474
g10
F3.8999999999999999
ssVcom.qihoo360.mobilesafe
p475
(dp476
g10
F14.899999999999999
ssg151
(dp477
g10
F0.40000000000000002
ssVcom.mobilecaltronics.calculator
p478
(dp479
g10
I2
ssg67
(dp480
g10
F4.9000000000000004
ssVcom.android.phone
p481
(dp482
g10
F9.0000000000000018
ssVcom.tencent.mm
p483
(dp484
g10
F104.80000000000018
ssVcn.com.fetion
p485
(dp486
g10
F1.3
ssVcom.xtuone.android.syllabus
p487
(dp488
g10
F0.40000000000000002
ssg89
(dp489
g10
F0.90000000000000002
ssVcom.tencent.mobileqq
p490
(dp491
g10
F261.19999999999999
ssVcom.android.mms
p492
(dp493
g10
F14.9
ssVcom.tiexue.ms
p494
(dp495
g10
F40.399999999999984
ssVcom.baidu.tieba
p496
(dp497
g10
F2.7999999999999998
ssg170
(dp498
g10
F49.499999999999993
sssg37
(dp499
Vcom.android.browser
p500
(dp501
g10
F2.2000000000000002
ssg81
(dp502
g10
F0.40000000000000002
ssVcom.youdao.dict
p503
(dp504
g10
F1.3999999999999999
ssVcom.taobao.taobao
p505
(dp506
g10
F2.6000000000000001
ssVcom.android.settings
p507
(dp508
g10
F1.8
ssg51
(dp509
g10
I1
ssVcom.tencent.mm
p510
(dp511
g10
F9.7000000000000011
ssVcom.android.mms
p512
(dp513
g10
F17.300000000000001
ssVcom.qihoo360.mobilesafe
p514
(dp515
g10
F5.5
ssg361
(dp516
g10
F0.90000000000000002
ssVcom.UCMobile
p517
(dp518
g10
F5.4000000000000004
ssVcom.tiexue.ms
p519
(dp520
g10
I2
ssVcom.android.phone
p521
(dp522
g10
F39.800000000000004
ssVcom.sina.weibo
p523
(dp524
g10
F1.3999999999999999
ssVcom.tencent.mobileqq
p525
(dp526
g10
F35.999999999999993
ssg79
(dp527
g10
F1.1000000000000001
sssg39
(dp528
Vcom.android.browser
p529
(dp530
g10
I1
ssg13
(dp531
g10
F2.3999999999999999
ssg111
(dp532
g10
I1
ssg391
(dp533
g10
F1.1000000000000001
ssg177
(dp534
g10
F0.90000000000000002
ssVcom.taobao.taobao
p535
(dp536
g10
I1
ssVcom.UCMobile
p537
(dp538
g10
I1
ssVcom.tencent.mobileqq
p539
(dp540
g10
F3.8999999999999999
sssg41
(dp541
Vcom.android.browser
p542
(dp543
g10
F2.7000000000000002
ssVcom.android.settings
p544
(dp545
g10
I2
ssVcom.android.mms
p546
(dp547
g10
I1
ssVcom.qihoo360.mobilesafe
p548
(dp549
g10
I1
ssVcom.android.notepad
p550
(dp551
g10
F1.7000000000000002
ssVcom.android.phone
p552
(dp553
g10
I1
ssVcom.tencent.mm
p554
(dp555
g10
F6.9000000000000004
ssVcom.android.contacts
p556
(dp557
g10
F1.7
ssVcom.tencent.mobileqq
p558
(dp559
g10
F8.1000000000000014
sssg43
(dp560
Vcom.kugou.android
p561
(dp562
g10
I1
ssVcom.android.browser
p563
(dp564
g10
F0.90000000000000002
ssVcom.jiongji.andriod.card
p565
(dp566
g10
I4
ssVcom.android.gallery3d
p567
(dp568
g10
F0.90000000000000002
ssVcom.youdao.dict
p569
(dp570
g10
F0.90000000000000002
ssVcom.huawei.hidisk
p571
(dp572
g10
F16.899999999999999
ssVcom.tencent.mobileqq
p573
(dp574
g10
F16.800000000000001
ssVcom.sina.weibo
p575
(dp576
g10
I1
ssVcom.android.mms
p577
(dp578
g10
F0.69999999999999996
ssVcom.baidu.netdisk
p579
(dp580
g10
F0.69999999999999996
ssVcom.tiexue.ms
p581
(dp582
g10
F0.90000000000000002
ssVcom.UCMobile
p583
(dp584
g10
F8.5
ssVcom.mobilecaltronics.calculator
p585
(dp586
g10
I1
ssg164
(dp587
g10
F3
sssg45
(dp588
g75
(dp589
g10
F4.4000000000000004
ssVcom.android.browser
p590
(dp591
g10
I1
ssVcom.jiongji.andriod.card
p592
(dp593
g10
F4.9000000000000004
ssVcom.moji.mjweather
p594
(dp595
g10
F1.7
ssVcom.youdao.dict
p596
(dp597
g10
F13.1
ssVcom.UCMobile
p598
(dp599
g10
F3
ssg296
(dp600
g10
F6.9000000000000012
ssg471
(dp601
g10
I1
ssg97
(dp602
g10
F4.0999999999999996
ssg428
(dp603
g10
F0.40000000000000002
ssg99
(dp604
g10
F2.7999999999999998
ssVcom.mediatek.FMRadio
p605
(dp606
g10
I1
ssVcom.qihoo360.mobilesafe
p607
(dp608
g10
F1.8
ssg31
(dp609
g10
F3
ssVcom.sina.weibo
p610
(dp611
g10
F8.9000000000000021
ssVcom.android.contacts
p612
(dp613
g10
F0.69999999999999996
ssVcom.tencent.mobileqq
p614
(dp615
g10
F22.599999999999994
sssg47
(dp616
Vcom.youdao.dict
p617
(dp618
g10
F0.40000000000000002
ssVcom.android.settings
p619
(dp620
g10
I1
ssVcom.tencent.mm
p621
(dp622
g10
F2
ssVcom.android.mms
p623
(dp624
g10
F1.8999999999999999
ssVcom.baidu.netdisk
p625
(dp626
g10
F3.7000000000000002
ssVcom.UCMobile
p627
(dp628
g10
F7.5000000000000009
ssg77
(dp629
g10
F5.7999999999999998
ssVcom.sina.weibo
p630
(dp631
g10
F2.1000000000000001
ssVcom.tencent.mobileqq
p632
(dp633
g10
F17.199999999999996
sssg49
(dp634
Vcom.huawei.hidisk
p635
(dp636
g10
F1.7
ssg95
(dp637
g10
F0.40000000000000002
ssg440
(dp638
g10
F2.2000000000000002
ssVcom.android.settings
p639
(dp640
g10
F1.7
sssg51
(dp641
Vcom.tencent.mobileqq
p642
(dp643
g10
F0.40000000000000002
ssg79
(dp644
g10
F2.6000000000000001
ssVcom.qihoo360.mobilesafe
p645
(dp646
g10
I1
sssg53
(dp647
Vcom.android.browser
p648
(dp649
g10
I1
ssVcom.youdao.dict
p650
(dp651
g10
I1
ssVcom.sina.weibo
p652
(dp653
g10
I1
ssg149
(dp654
g10
F1.7
ssVcom.tiexue.ms
p655
(dp656
g10
F0.90000000000000002
ssVcom.tencent.mm
p657
(dp658
g10
I1
ssVcom.tencent.mobileqq
p659
(dp660
g10
I1
sssg55
(dp661
Vcom.youdao.dict
p662
(dp663
g10
I1
ssVcom.android.browser
p664
(dp665
g10
F1.3
ssVcom.jiongji.andriod.card
p666
(dp667
g10
F4
ssVinsigma.waybook
p668
(dp669
g10
I1
ssVcom.changba
p670
(dp671
g10
F1.1000000000000001
ssVcom.UCMobile
p672
(dp673
g10
F3
ssVcom.tencent.mm
p674
(dp675
g10
F15.400000000000002
ssVcom.android.phone
p676
(dp677
g10
F3.2999999999999998
ssVcom.android.mms
p678
(dp679
g10
F2.7999999999999998
ssVcom.tiexue.ms
p680
(dp681
g10
F0.69999999999999996
ssVcom.qihoo360.mobilesafe
p682
(dp683
g10
I1
ssVcom.huawei.hidisk
p684
(dp685
g10
F12.199999999999999
ssVcom.android.video
p686
(dp687
g10
F7
ssVcom.taobao.taobao
p688
(dp689
g10
F1.8999999999999999
ssVcom.android.settings
p690
(dp691
g10
F0.90000000000000002
ssVcom.sina.weibo
p692
(dp693
g10
F3.1999999999999997
ssVcom.android.contacts
p694
(dp695
g10
F2.3999999999999999
ssVcn.wps.moffice_eng
p696
(dp697
g10
F1.3
ssVcom.tencent.mobileqq
p698
(dp699
g10
F46.899999999999999
sssg57
(dp700
Vcom.huawei.hidisk
p701
(dp702
g10
F39.399999999999999
ssVcom.tencent.mm
p703
(dp704
g10
I1
ssVcom.android.gallery3d
p705
(dp706
g10
F4.9000000000000004
ssVcom.youdao.dict
p707
(dp708
g10
F0.90000000000000002
ssVcom.android.browser
p709
(dp710
g10
F1.6000000000000001
sssg59
(dp711
Vcom.android.browser
p712
(dp713
g10
F5.8000000000000007
ssg81
(dp714
g10
F7.6000000000000005
ssg188
(dp715
g10
F1.7
ssVcom.baidu.netdisk
p716
(dp717
g10
I1
ssVcom.UCMobile
p718
(dp719
g10
F6.9000000000000012
ssVcom.android.notepad
p720
(dp721
g10
F1.6000000000000001
ssVcom.sina.weibo
p722
(dp723
g10
F10.9
ssVcom.android.contacts
p724
(dp725
g10
F7.4000000000000004
ssVcom.eg.android.AlipayGphone
p726
(dp727
g10
F0.90000000000000002
ssVcom.android.bluetooth
p728
(dp729
g10
F0.69999999999999996
ssVcom.android.packageinstaller
p730
(dp731
g10
F1.1000000000000001
ssVcom.moji.mjweather
p732
(dp733
g10
F0.90000000000000002
ssVcom.android.gallery3d
p734
(dp735
g10
F2.2999999999999998
ssVcom.taobao.taobao
p736
(dp737
g10
F4
ssVcom.huawei.hidisk
p738
(dp739
g10
F2.8999999999999999
ssg63
(dp740
g10
I1
ssg65
(dp741
g10
F1.8999999999999999
ssVcom.android.phone
p742
(dp743
g10
F6.7999999999999998
ssVcom.tencent.mobileqq
p744
(dp745
g10
F41.399999999999991
ssVcn.com.fetion
p746
(dp747
g10
I2
ssg79
(dp748
g10
F2.2999999999999998
ssg41
(dp749
g10
I1
ssVcom.android.calendar
p750
(dp751
g10
I1
ssg352
(dp752
g10
F19.399999999999999
ssVcom.android.mms
p753
(dp754
g10
F7.0999999999999996
ssVcom.tiexue.ms
p755
(dp756
g10
F3.3999999999999999
ssg496
(dp757
g10
I1
ssVcom.android.settings
p758
(dp759
g10
F5.8000000000000007
sssg61
(dp760
g569
(dp761
g10
F2.7000000000000002
ssVcom.android.browser
p762
(dp763
g10
F1.3
ssg478
(dp764
g10
F0.90000000000000002
ssg577
(dp765
g10
F1.7000000000000002
ssVcn.wps.moffice_eng
p766
(dp767
g10
F14.899999999999999
ssg103
(dp768
g10
I1
ssg49
(dp769
g10
F3
ssg35
(dp770
g10
F2.7000000000000002
ssVcom.moji.mjweather
p771
(dp772
g10
F2.2999999999999998
ssg705
(dp773
g10
F9.8000000000000007
ssg444
(dp774
g10
F5
ssVcom.qihoo360.mobilesafe
p775
(dp776
g10
F1.8999999999999999
ssVcom.UCMobile
p777
(dp778
g10
F6.4000000000000012
ssg686
(dp779
g10
F40.100000000000001
ssg720
(dp780
g10
F0.40000000000000002
ssVcom.android.settings
p781
(dp782
g10
F6.4000000000000004
ssg33
(dp783
g10
F6.4000000000000004
ssg95
(dp784
g10
F5.9000000000000004
ssg109
(dp785
g10
F9.5
ssg440
(dp786
g10
F18.299999999999997
sssg63
(dp787
g718
(dp788
g10
I1
ssg352
(dp789
g10
F0.90000000000000002
sssg65
(dp790
g730
(dp791
g10
F1.6000000000000001
ssVcom.android.mms
p792
(dp793
g10
F1.8999999999999999
ssVcom.xtuone.android.syllabus
p794
(dp795
g10
F1.1000000000000001
sssg67
(dp796
Vcom.kugou.android
p797
(dp798
g10
I1
ssVcom.android.browser
p799
(dp800
g10
F2.1000000000000001
ssVcom.sina.weibo
p801
(dp802
g10
F3.4000000000000004
ssVcom.moji.mjweather
p803
(dp804
g10
F0.90000000000000002
ssVcom.android.gallery3d
p805
(dp806
g10
F3
ssg208
(dp807
g10
F3.1999999999999997
ssVcom.taobao.taobao
p808
(dp809
g10
I1
ssVcom.UCMobile
p810
(dp811
g10
F2.3999999999999999
ssVcom.qihoo360.mobilesafe
p812
(dp813
g10
F0.40000000000000002
ssVcom.android.settings
p814
(dp815
g10
I1
ssVcom.tencent.mm
p816
(dp817
g10
F9.9000000000000021
ssVcom.android.contacts
p818
(dp819
g10
F0.69999999999999996
ssVcom.tencent.mobileqq
p820
(dp821
g10
F16.200000000000003
sssg69
(dp822
Vcom.android.browser
p823
(dp824
g10
F0.90000000000000002
ssVcom.jiongji.andriod.card
p825
(dp826
g10
I2
ssVcom.youdao.dict
p827
(dp828
g10
I3
ssg384
(dp829
g10
F0.40000000000000002
ssVcom.huawei.hidisk
p830
(dp831
g10
F1.3
ssg264
(dp832
g10
F9.0000000000000018
ssVcom.sankuai.meituan
p833
(dp834
g10
I1
ssg55
(dp835
g10
F1.7
ssVcom.android.mms
p836
(dp837
g10
F5
ssg519
(dp838
g10
F3.4000000000000004
ssg361
(dp839
g10
F0.69999999999999996
ssVcom.UCMobile
p840
(dp841
g10
F4.9000000000000004
ssVcom.mobilecaltronics.calculator
p842
(dp843
g10
F0.90000000000000002
ssVcom.sohu.inputmethod.sogou
p844
(dp845
g10
F0.90000000000000002
ssVcom.qihoo360.mobilesafe
p846
(dp847
g10
F11.199999999999999
ssVcom.android.settings
p848
(dp849
g10
F1.8999999999999999
ssVcom.docin.zlibrary.ui.android
p850
(dp851
g10
I1
ssVcom.sina.weibo
p852
(dp853
g10
I7
ssg37
(dp854
g10
F66.700000000000003
ssg270
(dp855
g10
F33.29999999999999
sssg71
(dp856
g11
(dp857
g10
F80.100000000000037
ssg81
(dp858
g10
F96.700000000000017
ssVcom.sankuai.meituan
p859
(dp860
g10
F1.7000000000000002
ssg17
(dp861
g10
F62.199999999999996
ssVcom.baidu.netdisk
p862
(dp863
g10
F34.099999999999994
ssg23
(dp864
g10
F233.39999999999989
ssg25
(dp865
g10
F0.40000000000000002
ssg27
(dp866
g10
F5.6000000000000005
ssg736
(dp867
g10
F26.999999999999996
ssg31
(dp868
g10
F17.399999999999999
ssg33
(dp869
g10
F0.69999999999999996
ssg35
(dp870
g10
F274.59999999999991
ssVcom.android.contacts
p871
(dp872
g10
F47
ssVcom.eg.android.AlipayGphone
p873
(dp874
g10
F6.6000000000000005
ssVcom.docin.zlibrary.ui.android
p875
(dp876
g10
F3.7000000000000002
ssg139
(dp877
g10
F17.299999999999997
ssVcom.changba
p878
(dp879
g10
F17.000000000000004
ssg346
(dp880
g10
F13.500000000000002
ssVcom.android.packageinstaller
p881
(dp882
g10
I1
ssVcom.moji.mjweather
p883
(dp884
g10
F14.600000000000001
ssg55
(dp885
g10
F62.100000000000001
ssVcom.android.video
p886
(dp887
g10
F1.3
ssVcom.qihoo360.mobilesafe
p888
(dp889
g10
F46.899999999999984
ssg61
(dp890
g10
F18.599999999999998
ssg478
(dp891
g10
F3.6000000000000001
ssg65
(dp892
g10
F1.1000000000000001
ssg67
(dp893
g10
F14.099999999999998
ssVcom.android.phone
p894
(dp895
g10
F31.499999999999986
ssg95
(dp896
g10
F499.69999999999794
ssVcom.kugou.android
p897
(dp898
g10
F3.5
ssg73
(dp899
g10
F12.300000000000001
ssg77
(dp900
g10
F1.6000000000000001
ssVcom.xtuone.android.syllabus
p901
(dp902
g10
F7.2000000000000002
ssg83
(dp903
g10
F0.69999999999999996
ssg87
(dp904
g10
F6.7000000000000002
ssg89
(dp905
g10
F0.40000000000000002
ssVcom.codoon.gps
p906
(dp907
g10
F0.69999999999999996
ssg93
(dp908
g10
F2.6000000000000001
ssg507
(dp909
g10
F53.699999999999982
ssg365
(dp910
g10
F57.699999999999974
ssVcom.tiexue.ms
p911
(dp912
g10
F139.50000000000017
ssg105
(dp913
g10
F0.90000000000000002
ssVcom.baidu.tieba
p914
(dp915
g10
F5.9000000000000004
ssVcom.android.mediacenter
p916
(dp917
g10
F1.3
ssg113
(dp918
g10
F1.8999999999999999
sssg73
(dp919
Vcom.android.browser
p920
(dp921
g10
F1.6000000000000001
ssVcom.moji.mjweather
p922
(dp923
g10
F1.8999999999999999
ssVcom.UCMobile
p924
(dp925
g10
F0.40000000000000002
ssVcom.tencent.mm
p926
(dp927
g10
F4.0999999999999996
ssVcom.android.phone
p928
(dp929
g10
F0.69999999999999996
ssVcom.android.mms
p930
(dp931
g10
F7.2000000000000002
ssVcom.tiexue.ms
p932
(dp933
g10
F2.6000000000000001
ssg906
(dp934
g10
F1.3999999999999999
ssg105
(dp935
g10
I1
ssVcom.qihoo360.mobilesafe
p936
(dp937
g10
I1
ssVcom.android.settings
p938
(dp939
g10
F1.8999999999999999
ssVcom.tencent.mobileqq
p940
(dp941
g10
F16.200000000000003
ssVcom.android.contacts
p942
(dp943
g10
F2.2999999999999998
sssg75
(dp944
g592
(dp945
g10
F15.300000000000001
ssVcom.tencent.mm
p946
(dp947
g10
F11.300000000000001
ssg833
(dp948
g10
F0.90000000000000002
ssVcom.android.mms
p949
(dp950
g10
I1
ssVcom.tiexue.ms
p951
(dp952
g10
F2.7000000000000002
ssVcom.UCMobile
p953
(dp954
g10
F4.0999999999999996
ssVcom.android.phone
p955
(dp956
g10
I1
ssVcom.sina.weibo
p957
(dp958
g10
F2.5
ssVcom.android.contacts
p959
(dp960
g10
F1.7
ssVcom.tencent.mobileqq
p961
(dp962
g10
F11.9
sssg77
(dp963
Vair.fyzb3
p964
(dp965
g10
F3.2999999999999998
ssg632
(dp966
g10
F0.69999999999999996
ssg627
(dp967
g10
F3
sssg79
(dp968
g224
(dp969
g10
F1.3999999999999999
ssVcom.sina.weibo
p970
(dp971
g10
I1
ssVcom.moji.mjweather
p972
(dp973
g10
F2.2999999999999998
ssg210
(dp974
g10
F1.8
ssVcom.tencent.mm
p975
(dp976
g10
F2.5
ssg642
(dp977
g10
F3.1999999999999997
sssg81
(dp978
g648
(dp979
g10
F2
ssVcom.mobilecaltronics.calculator
p980
(dp981
g10
I1
ssg594
(dp982
g10
F1.8999999999999999
ssVcom.youdao.dict
p983
(dp984
g10
I3
ssVcom.baidu.netdisk
p985
(dp986
g10
F0.90000000000000002
ssVcom.UCMobile
p987
(dp988
g10
F15.9
ssVcom.android.notepad
p989
(dp990
g10
F1.7
ssVcom.sina.weibo
p991
(dp992
g10
F12.799999999999999
ssVcom.android.contacts
p993
(dp994
g10
F3.7999999999999998
ssVcn.wps.moffice_eng
p995
(dp996
g10
F2.2999999999999998
ssVcom.changba
p997
(dp998
g10
I1
ssg859
(dp999
g10
F0.69999999999999996
ssg55
(dp1000
g10
F22.499999999999996
ssVcom.qihoo360.mobilesafe
p1001
(dp1002
g10
F8.1999999999999993
ssVcom.huawei.hidisk
p1003
(dp1004
g10
F2.2999999999999998
ssVcom.mediatek.FMRadio
p1005
(dp1006
g10
I2
ssVcom.android.phone
p1007
(dp1008
g10
F0.90000000000000002
ssVcom.tencent.mm
p1009
(dp1010
g10
F40.699999999999989
ssg73
(dp1011
g10
F0.40000000000000002
ssVcom.kugou.android
p1012
(dp1013
g10
I8
ssVcom.xtuone.android.syllabus
p1014
(dp1015
g10
F0.90000000000000002
ssVcom.tencent.mobileqq
p1016
(dp1017
g10
F95.300000000000026
ssVinsigma.waybook
p1018
(dp1019
g10
I1
ssg91
(dp1020
g10
F2.2999999999999998
ssg273
(dp1021
g10
F0.90000000000000002
ssVcom.android.settings
p1022
(dp1023
g10
F2.3999999999999999
ssVcom.android.mms
p1024
(dp1025
g10
F9.9000000000000004
ssVcom.tiexue.ms
p1026
(dp1027
g10
F9.9000000000000021
ssg198
(dp1028
g10
F0.90000000000000002
sssg83
(dp1029
Vcom.android.mms
p1030
(dp1031
g10
I1
sssg85
(dp1032
Vcom.youdao.dict
p1033
(dp1034
g10
I1
sssg87
(dp1035
Vcom.android.browser
p1036
(dp1037
g10
I1
ssVcom.jiongji.andriod.card
p1038
(dp1039
g10
I1
ssVcom.tencent.mm
p1040
(dp1041
g10
F5.7999999999999998
ssVcom.android.mms
p1042
(dp1043
g10
I1
ssVcom.tiexue.ms
p1044
(dp1045
g10
I1
ssVcom.UCMobile
p1046
(dp1047
g10
F1.3
ssg690
(dp1048
g10
I1
ssVcom.sina.weibo
p1049
(dp1050
g10
F1.1000000000000001
ssVcom.tencent.mobileqq
p1051
(dp1052
g10
F12.300000000000001
sssg89
(dp1053
sg91
(dp1054
Vcom.android.settings
p1055
(dp1056
g10
I1
ssVcom.jiongji.andriod.card
p1057
(dp1058
g10
I1
ssVcn.com.fetion
p1059
(dp1060
g10
I1
ssg920
(dp1061
g10
F1.7
sssg93
(dp1062
Vcom.moji.mjweather
p1063
(dp1064
g10
I2
ssVcom.tencent.mm
p1065
(dp1066
g10
F0.90000000000000002
sssg95
(dp1067
Vcom.android.browser
p1068
(dp1069
g10
F33.099999999999987
ssVcom.jiongji.andriod.card
p1070
(dp1071
g10
F9.3000000000000007
ssg803
(dp1072
g10
F6.2999999999999998
ssVcom.youdao.dict
p1073
(dp1074
g10
F21.699999999999999
ssg862
(dp1075
g10
F13.800000000000004
ssg23
(dp1076
g10
F159.10000000000014
ssVcom.sohu.inputmethod.sogou
p1077
(dp1078
g10
I1
ssVcom.taobao.taobao
p1079
(dp1080
g10
F12.4
ssVcom.android.notepad
p1081
(dp1082
g10
I1
ssg35
(dp1083
g10
F165.50000000000023
ssg818
(dp1084
g10
F13.200000000000001
ssg245
(dp1085
g10
F1.6000000000000001
ssVcom.mobilecaltronics.calculator
p1086
(dp1087
g10
F0.69999999999999996
ssg339
(dp1088
g10
F1.3999999999999999
ssg468
(dp1089
g10
F8.1999999999999993
ssg346
(dp1090
g10
F3.2999999999999998
ssg881
(dp1091
g10
F0.90000000000000002
ssg471
(dp1092
g10
F1.7
ssVcom.android.gallery3d
p1093
(dp1094
g10
F8.7000000000000011
ssg57
(dp1095
g10
F2.7000000000000002
ssg59
(dp1096
g10
F8.0999999999999996
ssg1003
(dp1097
g10
F4.8999999999999995
ssg63
(dp1098
g10
F0.69999999999999996
ssg65
(dp1099
g10
F1.6000000000000001
ssVcom.mediatek.FMRadio
p1100
(dp1101
g10
F3.2999999999999998
ssVcom.android.phone
p1102
(dp1103
g10
F10.400000000000002
ssg490
(dp1104
g10
F331.99999999999937
ssVcn.com.fetion
p1105
(dp1106
g10
F2.7999999999999998
ssg206
(dp1107
g10
F7.4000000000000004
ssg77
(dp1108
g10
F0.40000000000000002
ssg487
(dp1109
g10
I1
ssg875
(dp1110
g10
F6
ssg89
(dp1111
g10
F0.69999999999999996
ssg93
(dp1112
g10
F1.3
ssVcom.android.settings
p1113
(dp1114
g10
F28.699999999999985
ssVcom.android.mms
p1115
(dp1116
g10
F17.699999999999999
ssg494
(dp1117
g10
F73.40000000000002
ssg101
(dp1118
g10
I1
ssg103
(dp1119
g10
F0.69999999999999996
ssg914
(dp1120
g10
F6.8000000000000007
sssg97
(dp1121
g8
(dp1122
g10
I1
ssg648
(dp1123
g10
F5.1000000000000005
ssVcom.jiongji.andriod.card
p1124
(dp1125
g10
F1.3999999999999999
ssg859
(dp1126
g10
F1.7
ssg617
(dp1127
g10
F3.5
ssg428
(dp1128
g10
F2.2999999999999998
ssVcom.UCMobile
p1129
(dp1130
g10
F14.099999999999998
ssVcom.taobao.taobao
p1131
(dp1132
g10
F2.0999999999999996
ssVcom.android.notepad
p1133
(dp1134
g10
F7.7999999999999998
ssg610
(dp1135
g10
F7.1000000000000005
ssVcom.android.contacts
p1136
(dp1137
g10
F13.200000000000001
ssVcom.docin.zlibrary.ui.android
p1138
(dp1139
g10
I1
ssVcn.wps.moffice_eng
p1140
(dp1141
g10
F1.3
ssg422
(dp1142
g10
F1.7
ssg730
(dp1143
g10
I1
ssg732
(dp1144
g10
F0.69999999999999996
ssg149
(dp1145
g10
F5.2999999999999998
ssVcom.huawei.hidisk
p1146
(dp1147
g10
F1.7
ssg1086
(dp1148
g10
F0.90000000000000002
ssg894
(dp1149
g10
F3.5999999999999996
ssg296
(dp1150
g10
F30.09999999999998
ssVcom.kugou.android
p1151
(dp1152
g10
I1
ssg73
(dp1153
g10
F5.5
ssg794
(dp1154
g10
F0.90000000000000002
ssg83
(dp1155
g10
I1
ssVcom.tencent.mobileqq
p1156
(dp1157
g10
F72.300000000000026
ssg87
(dp1158
g10
F0.90000000000000002
ssVcom.android.settings
p1159
(dp1160
g10
F0.69999999999999996
ssg494
(dp1161
g10
F12.299999999999999
sssg99
(dp1162
Vcom.android.browser
p1163
(dp1164
g10
F22.499999999999996
ssVcom.jiongji.andriod.card
p1165
(dp1166
g10
I5
ssg25
(dp1167
g10
F0.90000000000000002
ssVcom.youdao.dict
p1168
(dp1169
g10
F5.9000000000000004
ssVcom.baidu.netdisk
p1170
(dp1171
g10
F4.7999999999999998
ssg23
(dp1172
g10
F50.199999999999989
ssg27
(dp1173
g10
F0.69999999999999996
ssg330
(dp1174
g10
I1
ssVcom.sina.weibo
p1175
(dp1176
g10
F17.700000000000003
ssVcom.android.contacts
p1177
(dp1178
g10
F6.4000000000000004
ssVcn.wps.moffice_eng
p1179
(dp1180
g10
F2.2999999999999998
ssVcom.changba
p1181
(dp1182
g10
F3.7000000000000002
ssVair.fyzb3
p1183
(dp1184
g10
F3.2000000000000002
ssVcom.moji.mjweather
p1185
(dp1186
g10
F6.2999999999999998
ssVcom.android.gallery3d
p1187
(dp1188
g10
F7.1000000000000005
ssg59
(dp1189
g10
F2.6000000000000001
ssVcom.huawei.hidisk
p1190
(dp1191
g10
F4.2000000000000002
ssg63
(dp1192
g10
F0.40000000000000002
ssg605
(dp1193
g10
F3.0999999999999996
ssg1102
(dp1194
g10
F8
ssg614
(dp1195
g10
F133.00000000000014
ssg1059
(dp1196
g10
F2.5
ssVcom.tencent.mm
p1197
(dp1198
g10
F66.000000000000014
ssVcom.kugou.android
p1199
(dp1200
g10
F3.4000000000000004
ssg487
(dp1201
g10
F0.90000000000000002
ssVinsigma.waybook
p1202
(dp1203
g10
I1
ssg906
(dp1204
g10
F3
ssVcom.android.settings
p1205
(dp1206
g10
F14.600000000000003
ssVcom.android.mms
p1207
(dp1208
g10
F14.9
ssg103
(dp1209
g10
F0.40000000000000002
ssVcom.baidu.tieba
p1210
(dp1211
g10
F4.1999999999999993
sssg101
(dp1212
Vcom.qihoo360.mobilesafe
p1213
(dp1214
g10
I1
sssg103
(dp1215
Vcom.huawei.hidisk
p1216
(dp1217
g10
F1.8999999999999999
ssg771
(dp1218
g10
F0.69999999999999996
ssVcom.tencent.mobileqq
p1219
(dp1220
g10
F0.40000000000000002
sssg105
(dp1221
g922
(dp1222
g10
F1.6000000000000001
ssVcn.com.fetion
p1223
(dp1224
g10
I2
sssg107
(dp1225
g1163
(dp1226
g10
F1.8999999999999999
ssg1181
(dp1227
g10
F0.90000000000000002
ssVcom.tencent.mm
p1228
(dp1229
g10
F5.3999999999999995
ssVcom.sina.weibo
p1230
(dp1231
g10
F5.3000000000000007
ssVcom.android.gallery3d
p1232
(dp1233
g10
F0.40000000000000002
ssVcom.baidu.netdisk
p1234
(dp1235
g10
F2.7000000000000002
ssVcom.tiexue.ms
p1236
(dp1237
g10
F3.0999999999999996
ssVcom.UCMobile
p1238
(dp1239
g10
F0.90000000000000002
ssg475
(dp1240
g10
F0.90000000000000002
ssVcom.tencent.mobileqq
p1241
(dp1242
g10
F4.0999999999999996
ssVcom.mediatek.FMRadio
p1243
(dp1244
g10
I1
sssg109
(dp1245
Vcom.huawei.hidisk
p1246
(dp1247
g10
F10.199999999999999
ssVcom.tencent.mobileqq
p1248
(dp1249
g10
F2.6000000000000001
ssVcom.baidu.netdisk
p1250
(dp1251
g10
F0.40000000000000002
sssg111
(dp1252
Vcom.android.browser
p1253
(dp1254
g10
F68.200000000000003
ssVcom.youdao.dict
p1255
(dp1256
g10
F3.2000000000000002
ssg127
(dp1257
g10
F5
ssVcom.UCMobile
p1258
(dp1259
g10
F67.199999999999989
ssVcom.taobao.taobao
p1260
(dp1261
g10
F2.7000000000000002
ssVcom.sina.weibo
p1262
(dp1263
g10
F40.499999999999993
ssVcom.android.contacts
p1264
(dp1265
g10
F4.5
ssg466
(dp1266
g10
F2.2000000000000002
ssVcom.changba
p1267
(dp1268
g10
F0.90000000000000002
ssVair.fyzb3
p1269
(dp1270
g10
I1
ssg728
(dp1271
g10
I1
ssg51
(dp1272
g10
F0.69999999999999996
ssg567
(dp1273
g10
F0.40000000000000002
ssg514
(dp1274
g10
F5
ssg830
(dp1275
g10
F6.1000000000000005
ssVcom.tencent.mobileqq
p1276
(dp1277
g10
F52.199999999999982
ssg485
(dp1278
g10
F2.1000000000000001
ssVcom.docin.zlibrary.ui.android
p1279
(dp1280
g10
I1
ssVinsigma.waybook
p1281
(dp1282
g10
F0.90000000000000002
ssVcom.codoon.gps
p1283
(dp1284
g10
I1
ssVcom.tencent.mm
p1285
(dp1286
g10
F25.999999999999993
ssVcom.android.mms
p1287
(dp1288
g10
F2.5
ssVcom.tiexue.ms
p1289
(dp1290
g10
F13.000000000000002
ssg1210
(dp1291
g10
F0.69999999999999996
sssg113
(dp1292
Vcom.tencent.mm
p1293
(dp1294
g10
I2
ssssS'edge'
p1295
g119
sS'graph'
p1296
(dp1297
sS'adjlist_dict_factory'
p1298
g116
sS'adj'
p1299
g119
sS'pred'
p1300
(dp1301
g8
(dp1302
Vcom.android.mms
p1303
g1122
ssg11
(dp1304
Vcom.jiongji.andriod.card
p1305
g979
sg859
g649
sVcom.youdao.dict
p1306
g228
sVcom.baidu.netdisk
p1307
g286
sVcom.UCMobile
p1308
g320
sVcom.taobao.taobao
p1309
g388
sVcom.sina.weibo
p1310
g452
sVcom.android.contacts
p1311
g501
sVcom.eg.android.AlipayGphone
p1312
g530
sg43
g564
sg1267
g591
sVcom.moji.mjweather
p1313
g191
sVcom.android.gallery3d
p1314
g665
sVcom.qihoo360.mobilesafe
p1315
g713
sVcom.huawei.hidisk
p1316
g763
sg258
g710
sVcom.mediatek.FMRadio
p1317
g800
sVcom.android.phone
p1318
g824
sVcom.tencent.mobileqq
p1319
g857
sg1059
g921
sVcom.docin.zlibrary.ui.android
p1320
g543
sVinsigma.waybook
p1321
g1037
sg906
g1061
sVcom.tencent.mm
p1322
g1069
sVcom.android.mms
p1323
g1123
sVcom.tiexue.ms
p1324
g1164
sg1210
g1226
sg170
g1254
ssg13
(dp1325
Vcom.jiongji.andriod.card
p1326
g981
sVcn.wps.moffice_eng
p1327
g586
sVcom.huawei.hidisk
p1328
g764
sVcom.sina.weibo
p1329
g479
sVcom.tencent.mm
p1330
g1087
sVcom.android.mms
p1331
g1148
sg177
g288
sVcom.UCMobile
p1332
g321
sVcom.android.notepad
p1333
g431
sVcom.android.phone
p1334
g843
sVcom.tencent.mobileqq
p1335
g891
sg337
g531
ssg15
(dp1336
g190
g148
sVcom.jiongji.andriod.card
p1337
g982
sg93
g1064
sVcom.youdao.dict
p1338
g252
sVcom.changba
p1339
g595
sVcom.huawei.hidisk
p1340
g772
sVcn.com.fetion
p1341
g923
sVcom.tencent.mm
p1342
g1072
sVcom.sina.weibo
p1343
g456
sVcom.qihoo360.mobilesafe
p1344
g733
sVcom.android.mms
p1345
g1144
sVcom.tiexue.ms
p1346
g1186
sVcom.UCMobile
p1347
g343
sVcom.mediatek.data
p1348
g1222
sVcom.mediatek.FMRadio
p1349
g804
sg103
g1218
sVcom.tencent.mobileqq
p1350
g884
sVcom.xtuone.android.syllabus
p1351
g973
ssg17
(dp1352
Vcom.android.browser
p1353
g126
sVcom.jiongji.andriod.card
p1354
g984
sg53
g651
sVcom.baidu.netdisk
p1355
g317
sg235
g325
sg214
g715
sVcom.android.notepad
p1356
g421
sVcom.sina.weibo
p1357
g458
sVcom.android.contacts
p1358
g504
sVcn.wps.moffice_eng
p1359
g570
sVcom.changba
p1360
g597
sVair.fyzb3
p1361
g618
sVcom.moji.mjweather
p1362
g189
sVcom.android.gallery3d
p1363
g663
sVcom.taobao.taobao
p1364
g390
sVcom.huawei.hidisk
p1365
g761
sVcom.android.video
p1366
g708
sVcom.android.phone
p1367
g828
sVcom.tencent.mm
p1368
g1074
sg85
g1034
sg71
g861
sg623
g1127
sVcom.tiexue.ms
p1369
g1169
sVcom.android.settings
p1370
g1256
ssg19
(dp1371
Vcom.UCMobile
p1372
g344
ssg21
(dp1373
Vcom.android.browser
p1374
g128
sg13
g178
sVcom.youdao.dict
p1375
g234
sVcom.jiongji.andriod.card
p1376
g986
sg1332
g327
sVcom.qihoo360.mobilesafe
p1377
g717
sVcom.android.notepad
p1378
g429
sVcom.iBookStar.activity
p1379
g445
sg298
g460
sVcom.android.mediacenter
p1380
g1251
sg337
g534
sg139
g580
sg422
g603
sVcom.huawei.hidisk
p1381
g774
sVcom.taobao.taobao
p1382
g402
sg289
g626
sVcom.tencent.mobileqq
p1383
g863
sVcom.tencent.mm
p1384
g1075
sVcom.android.mms
p1385
g1128
sVcom.tiexue.ms
p1386
g1171
sVcom.baidu.tieba
p1387
g1235
sg311
g1257
ssg23
(dp1388
g712
g130
sg358
g988
sg25
g374
sVcom.youdao.dict
p1389
g236
sg1170
g304
sg27
g381
sVcom.taobao.taobao
p1390
g404
sVcom.sina.weibo
p1391
g462
sg1311
g518
sVcom.eg.android.AlipayGphone
p1392
g538
sg1086
g182
sg139
g584
sVcom.changba
p1393
g599
sg346
g628
sg972
g211
sg1093
g673
sg59
g719
sVcom.huawei.hidisk
p1394
g778
sg63
g788
sVcom.mediatek.FMRadio
p1395
g811
sg69
g841
sg1197
g1076
sg160
g925
sVcom.kugou.android
p1396
g954
sg77
g967
sg901
g974
sVcom.tencent.mobileqq
p1397
g864
sg1321
g1047
sg311
g1259
sVcom.android.mms
p1398
g1130
sVcom.tiexue.ms
p1399
g1172
sVcom.baidu.tieba
p1400
g1239
ssg25
(dp1401
Vcom.android.browser
p1402
g124
sVcom.tencent.mobileqq
p1403
g865
sVcom.tiexue.ms
p1404
g1167
ssg27
(dp1405
Vcom.UCMobile
p1406
g329
sVcom.tencent.mm
p1407
g1078
sVcom.tencent.mobileqq
p1408
g866
sVcom.tiexue.ms
p1409
g1173
sVcom.android.phone
p1410
g845
ssg29
(dp1411
Vcom.android.browser
p1412
g132
sVcom.android.mms
p1413
g1132
sVcom.youdao.dict
p1414
g256
sg393
g1080
sVcom.sina.weibo
p1415
g463
sg1410
g829
sVcom.android.gallery3d
p1416
g689
sVcom.tiexue.ms
p1417
g1174
sVcom.qihoo360.mobilesafe
p1418
g737
sg401
g308
sVcom.UCMobile
p1419
g331
sg844
g385
sVcom.mediatek.FMRadio
p1420
g809
sg415
g1261
sVcom.tencent.mobileqq
p1421
g867
sVcom.android.contacts
p1422
g506
sg413
g536
ssg31
(dp1423
g418
g990
sVcom.youdao.dict
p1424
g239
sVcom.changba
p1425
g609
sVcom.UCMobile
p1426
g333
sVcom.tencent.mm
p1427
g1082
sVcom.android.mms
p1428
g1134
sg428
g310
sg775
g721
sg1003
g780
sg268
g551
sVcom.tencent.mobileqq
p1429
g868
ssg33
(dp1430
g61
g783
sg71
g869
sg17
g240
ssg35
(dp1431
Vcom.android.browser
p1432
g134
sg81
g992
sg471
g653
sg827
g242
sg21
g299
sg461
g335
sVcom.taobao.taobao
p1433
g392
sVcom.android.notepad
p1434
g434
sg1311
g524
sg413
g533
sg466
g576
sg292
g611
sg635
g770
sg1185
g203
sVcom.android.gallery3d
p1435
g693
sg475
g723
sVair.fyzb3
p1436
g631
sVcom.mediatek.FMRadio
p1437
g802
sg481
g853
sg440
g870
sVcom.kugou.android
p1438
g958
sg1014
g971
sVinsigma.waybook
p1439
g1050
sg95
g1083
sg97
g1135
sVcom.tiexue.ms
p1440
g1176
sg107
g1231
sVcom.android.settings
p1441
g1263
ssg37
(dp1442
Vcom.kugou.android
p1443
g960
sVcom.android.browser
p1444
g136
sVcom.jiongji.andriod.card
p1445
g994
sVcom.moji.mjweather
p1446
g223
sVcom.youdao.dict
p1447
g244
sVcom.changba
p1448
g613
sVcn.com.fetion
p1449
g943
sVcom.sina.weibo
p1450
g465
sg816
g1084
sg512
g1137
sVcom.tiexue.ms
p1451
g1178
sVcom.taobao.taobao
p1452
g412
sVcom.android.settings
p1453
g1265
sVcom.UCMobile
p1454
g336
sg514
g725
sg69
g854
sVcom.android.gallery3d
p1455
g695
sVcom.docin.zlibrary.ui.android
p1456
g557
sVcom.tencent.mobileqq
p1457
g872
sVcom.mediatek.FMRadio
p1458
g819
ssg39
(dp1459
g529
g138
sg13
g186
sVcom.youdao.dict
p1460
g246
sVcom.tencent.mm
p1461
g1085
sg177
g315
sVcom.taobao.taobao
p1462
g414
sg1332
g338
sg405
g727
sVcom.tencent.mobileqq
p1463
g874
ssg41
(dp1464
Vcom.android.browser
p1465
g163
sVcom.youdao.dict
p1466
g269
sVcom.tencent.mobileqq
p1467
g876
sg771
g219
sg546
g1139
sVcom.qihoo360.mobilesafe
p1468
g749
sVcom.UCMobile
p1469
g360
sVcom.android.settings
p1470
g1280
sVcom.tencent.mm
p1471
g1110
sg552
g851
ssg43
(dp1472
g563
g140
sVcom.jiongji.andriod.card
p1473
g996
sVcom.android.gallery3d
p1474
g697
sg569
g248
sVcom.UCMobile
p1475
g340
sVcom.android.settings
p1476
g1266
sVcom.sina.weibo
p1477
g467
sVcom.tencent.mm
p1478
g1088
sVcom.android.mms
p1479
g1141
sg1086
g176
sVcom.tiexue.ms
p1480
g1180
sg571
g767
sg573
g877
ssg45
(dp1481
Vcom.android.browser
p1482
g142
sg1337
g998
sVcom.android.gallery3d
p1483
g671
sg596
g250
sVcom.sina.weibo
p1484
g469
sg426
g1142
sVcom.baidu.netdisk
p1485
g293
sg1236
g1182
sVcom.baidu.tieba
p1486
g1227
sg989
g423
sVcom.android.settings
p1487
g1268
sVcom.tencent.mm
p1488
g1089
sVcom.tencent.mobileqq
p1489
g879
ssg47
(dp1490
g619
g1270
sVcom.sina.weibo
p1491
g470
sVcom.baidu.netdisk
p1492
g290
sVcom.tiexue.ms
p1493
g1184
sVcom.UCMobile
p1494
g347
sg77
g965
sVcom.tencent.mm
p1495
g1090
sVcom.tencent.mobileqq
p1496
g880
ssg49
(dp1497
Vcom.huawei.hidisk
p1498
g769
sVcom.iBookStar.activity
p1499
g448
sg846
g729
sg781
g1271
ssg51
(dp1500
g1453
g1272
sg792
g1143
sVcom.qihoo360.mobilesafe
p1501
g731
sVcom.UCMobile
p1502
g342
sg65
g791
sVcom.tencent.mm
p1503
g1091
sg1264
g509
sVcom.tencent.mobileqq
p1504
g882
ssg53
(dp1505
Vcom.kugou.android
p1506
g948
sg648
g144
sg1305
g999
sg650
g232
sg468
g601
sg1484
g472
sg1323
g1126
sVcom.UCMobile
p1507
g323
sg955
g834
sg1488
g1092
sVcom.tencent.mobileqq
p1508
g860
ssg55
(dp1509
Vcom.android.browser
p1510
g146
sg825
g1000
sVcom.moji.mjweather
p1511
g195
sVcom.youdao.dict
p1512
g254
sVcom.UCMobile
p1513
g326
sVcom.tencent.mobileqq
p1514
g885
sg692
g474
sVcom.qihoo360.mobilesafe
p1515
g735
sVcom.tiexue.ms
p1516
g1188
sVcom.taobao.taobao
p1517
g396
sg701
g773
sg57
g706
sVcom.baidu.tieba
p1518
g1233
sVcom.mediatek.FMRadio
p1519
g806
sVcom.android.phone
p1520
g835
sg674
g1094
sVcn.wps.moffice_eng
p1521
g568
sVcom.android.settings
p1522
g1273
ssg57
(dp1523
g705
g687
sVcom.tencent.mm
p1524
g1095
sVcom.youdao.dict
p1525
g259
sVcom.tencent.mobileqq
p1526
g887
sg684
g779
ssg59
(dp1527
g8
g122
sg648
g150
sVcom.jiongji.andriod.card
p1528
g1002
sg1362
g215
sVcom.mobilecaltronics.calculator
p1529
g180
sVcom.UCMobile
p1530
g345
sg1230
g476
sVcom.android.contacts
p1531
g515
sVcom.changba
p1532
g608
sg51
g646
sg859
g654
sVcom.android.gallery3d
p1533
g683
sg505
g406
sg1003
g776
sg1317
g813
sVcom.android.phone
p1534
g847
sVcom.tencent.mm
p1535
g1096
sVcn.com.fetion
p1536
g937
sVcom.docin.zlibrary.ui.android
p1537
g549
sVcom.tencent.mobileqq
p1538
g889
sg507
g1274
sg1323
g1145
sVcom.tiexue.ms
p1539
g1189
sg198
g1214
sg107
g1240
ssg61
(dp1540
Vcom.android.browser
p1541
g152
sVcom.jiongji.andriod.card
p1542
g1004
sg1479
g1147
sg17
g257
sg103
g1217
sg49
g636
sVcom.sina.weibo
p1543
g477
sVcom.tencent.mm
p1544
g1097
sg705
g685
sVcom.baidu.netdisk
p1545
g295
sg846
g739
sg848
g1275
sVcom.UCMobile
p1546
g341
sg57
g702
sVcom.tiexue.ms
p1547
g1191
sg1534
g831
sg33
g447
sg71
g890
sg109
g1247
sVcn.wps.moffice_eng
p1548
g572
ssg63
(dp1549
g1530
g348
sg1535
g1098
sg59
g740
sg1539
g1192
ssg65
(dp1550
Vcom.android.browser
p1551
g153
sVcom.tencent.mm
p1552
g1099
sVcom.tencent.mobileqq
p1553
g892
sg1501
g741
ssg67
(dp1554
Vcom.android.browser
p1555
g155
sVcom.jiongji.andriod.card
p1556
g1006
sVcom.youdao.dict
p1557
g261
sVcom.changba
p1558
g606
sVcom.tencent.mobileqq
p1559
g893
sVcom.tencent.mm
p1560
g1101
sVcom.tiexue.ms
p1561
g1193
sVcom.UCMobile
p1562
g350
sVcom.baidu.tieba
p1563
g1244
sVcom.sina.weibo
p1564
g480
ssg69
(dp1565
g1506
g956
sVcom.android.browser
p1566
g157
sVcom.jiongji.andriod.card
p1567
g1008
sg1455
g677
sVcom.youdao.dict
p1568
g263
sVcn.com.fetion
p1569
g929
sg1457
g895
sVcom.tencent.mm
p1570
g1103
sg1446
g217
sg512
g1149
sVcom.qihoo360.mobilesafe
p1571
g743
sVcom.taobao.taobao
p1572
g408
sg1454
g351
sVcom.tiexue.ms
p1573
g1194
sg1456
g553
sg1450
g482
sVcom.android.contacts
p1574
g522
ssg71
(dp1575
g712
g159
sVcom.jiongji.andriod.card
p1576
g1017
sg833
g660
sg827
g271
sg21
g314
sg23
g364
sg25
g376
sg27
g383
sg736
g410
sg720
g436
sVcom.iBookStar.activity
p1577
g441
sg35
g491
sg1531
g526
sg873
g540
sg43
g574
sg45
g615
sg1436
g633
sg49
g638
sg51
g643
sg15
g221
sg55
g699
sg514
g745
sVcom.huawei.hidisk
p1578
g786
sg430
g184
sg1458
g821
sg1367
g855
sg95
g1104
sg73
g941
sg1438
g962
sVcom.zhangyu
p1579
g966
sg79
g977
sVcom.docin.zlibrary.ui.android
p1580
g559
sg87
g1052
sg507
g1277
sVcom.android.mms
p1581
g1157
sg99
g1195
sg103
g1220
sg1486
g1242
sVcom.android.mediacenter
p1582
g1249
ssg73
(dp1583
Vcom.android.browser
p1584
g161
sVcom.jiongji.andriod.card
p1585
g1011
sVcom.tencent.mobileqq
p1586
g899
sVcom.sina.weibo
p1587
g486
sVcom.android.mms
p1588
g1153
sVcom.qihoo360.mobilesafe
p1589
g747
sg906
g1060
sg105
g1224
sg932
g1196
sVcom.android.settings
p1590
g1278
sg926
g1106
ssg75
(dp1591
Vcom.jiongji.andriod.card
p1592
g1013
sVcn.wps.moffice_eng
p1593
g562
sVcom.changba
p1594
g589
sVcom.tencent.mobileqq
p1595
g898
sg594
g207
sg949
g1152
sg951
g1200
sVcom.UCMobile
p1596
g355
sVcom.mediatek.FMRadio
p1597
g798
sVcom.tencent.mm
p1598
g1107
ssg77
(dp1599
g1496
g900
sg1495
g1108
sg346
g629
sg1494
g356
ssg79
(dp1600
Vcom.jiongji.andriod.card
p1601
g1015
sVcom.youdao.dict
p1602
g267
sVcom.sina.weibo
p1603
g488
sg51
g644
sVcom.tencent.mm
p1604
g1109
sg792
g1154
sg645
g748
sVcom.UCMobile
p1605
g357
sg65
g795
sVcom.tiexue.ms
p1606
g1201
sg642
g902
sg1264
g527
ssg81
(dp1607
Vcom.youdao.dict
p1608
g230
sg430
g174
sg805
g667
sVinsigma.waybook
p1609
g1039
sVcom.changba
p1610
g593
sVcom.codoon.gps
p1611
g1058
sVcom.tencent.mm
p1612
g1071
sVcom.sina.weibo
p1613
g454
sVcom.moji.mjweather
p1614
g193
sVcom.kugou.android
p1615
g945
sg1398
g1125
sVcom.qihoo360.mobilesafe
p1616
g714
sVcom.UCMobile
p1617
g359
sVcom.tiexue.ms
p1618
g1166
sVcom.android.notepad
p1619
g419
sg1520
g826
sVcom.iBookStar.activity
p1620
g439
sVcom.tencent.mobileqq
p1621
g858
sVcom.android.contacts
p1622
g502
sVcn.wps.moffice_eng
p1623
g566
ssg83
(dp1624
Vcom.android.mms
p1625
g1155
sVcom.tencent.mobileqq
p1626
g903
sg309
g432
ssg85
(dp1627
sg87
(dp1628
g1038
g1019
sVcom.android.gallery3d
p1629
g669
sg1338
g272
sVcom.android.settings
p1630
g1282
sg251
g197
sg1581
g1158
sVcom.tiexue.ms
p1631
g1203
sVcom.UCMobile
p1632
g362
sVcom.android.phone
p1633
g839
sg1156
g904
sVcom.android.contacts
p1634
g516
ssg89
(dp1635
g1384
g1111
sVcom.sina.weibo
p1636
g489
sg1383
g905
sg862
g291
ssg91
(dp1637
Vcom.jiongji.andriod.card
p1638
g1020
sg1055
g1284
sg485
g934
sg932
g1204
sVcom.UCMobile
p1639
g328
sVcom.tencent.mobileqq
p1640
g907
ssg93
(dp1641
g229
g1021
sg1608
g274
sVcom.tencent.mm
p1642
g1112
sVcom.moji.mjweather
p1643
g201
sVcom.qihoo360.mobilesafe
p1644
g751
sVcom.tencent.mobileqq
p1645
g908
ssg95
(dp1646
g563
g165
sVcom.jiongji.andriod.card
p1647
g1010
sg322
g658
sg827
g265
sg1485
g297
sg1530
g353
sg113
g1294
sg29
g394
sg1434
g425
sg1379
g450
sVcom.sina.weibo
p1648
g484
sVcom.android.contacts
p1649
g511
sg139
g587
sg292
g600
sg635
g784
sg49
g637
sg15
g205
sVcom.android.gallery3d
p1650
g675
sg258
g704
sg59
g752
sVair.fyzb3
p1651
g622
sg63
g789
sg1458
g817
sg1367
g832
sg440
g896
sVcn.com.fetion
p1652
g927
sVcom.kugou.android
p1653
g947
sg901
g976
sg1580
g555
sg1018
g1041
sg200
g1066
sVcom.android.settings
p1654
g1286
sg97
g1150
sg1399
g1198
sg1486
g1229
ssg97
(dp1655
g799
g167
sVcom.jiongji.andriod.card
p1656
g1025
sVcom.youdao.dict
p1657
g278
sg1485
g300
sVcom.UCMobile
p1658
g366
sg1517
g398
sg1619
g427
sg1620
g443
sVcom.sina.weibo
p1659
g493
sg871
g513
sg268
g547
sVcn.wps.moffice_eng
p1660
g578
sg292
g602
sg1361
g624
sVcom.android.gallery3d
p1661
g679
sVcom.qihoo360.mobilesafe
p1662
g754
sVcom.huawei.hidisk
p1663
g765
sg65
g793
sVcom.android.phone
p1664
g837
sVcom.tencent.mobileqq
p1665
g910
sVcom.kugou.android
p1666
g950
sg73
g931
sg83
g1031
sVinsigma.waybook
p1667
g1043
sVcom.tencent.mm
p1668
g1116
sVcom.tiexue.ms
p1669
g1208
sVcom.android.settings
p1670
g1288
ssg99
(dp1671
g1163
g169
sVcom.jiongji.andriod.card
p1672
g1027
sg471
g656
sVcom.youdao.dict
p1673
g280
sVcom.baidu.netdisk
p1674
g302
sVcom.UCMobile
p1675
g368
sg25
g378
sg1364
g400
sg610
g495
sg464
g520
sg466
g582
sg45
g604
sg803
g209
sVcom.android.gallery3d
p1676
g681
sg607
g756
sg1349
g807
sg481
g838
sg296
g1117
sg485
g933
sVcom.kugou.android
p1677
g952
sg614
g912
sg1202
g1045
sVcom.android.settings
p1678
g1290
sg97
g1161
sg1486
g1237
ssg101
(dp1679
Vcom.jiongji.andriod.card
p1680
g1028
sVcom.moji.mjweather
p1681
g199
sVcom.tencent.mm
p1682
g1118
ssg103
(dp1683
Vcom.UCMobile
p1684
g369
sVcom.tencent.mm
p1685
g1119
sVcom.tiexue.ms
p1686
g1209
sg1340
g768
ssg105
(dp1687
Vcn.com.fetion
p1688
g935
sVcom.tencent.mobileqq
p1689
g913
ssg107
(dp1690
Vcom.youdao.dict
p1691
g282
sVcom.android.settings
p1692
g1291
sg1230
g497
sVcom.moji.mjweather
p1693
g213
sg1234
g306
sVcom.tiexue.ms
p1694
g1211
sVcom.UCMobile
p1695
g370
sg475
g757
sVcom.tencent.mm
p1696
g1120
sVcom.tencent.mobileqq
p1697
g915
ssg109
(dp1698
Vcom.huawei.hidisk
p1699
g785
sg1248
g917
ssg111
(dp1700
g319
g171
sVcom.jiongji.andriod.card
p1701
g1023
sg188
g276
sg1307
g312
sg1308
g371
sg1382
g416
sg1310
g498
sg1531
g508
sg39
g532
sg47
g620
sg728
g640
sg972
g225
sg1629
g691
sVcom.qihoo360.mobilesafe
p1702
g759
sg830
g782
sg1395
g815
sg1534
g849
sg525
g909
sg160
g939
sVcom.xtuone.android.syllabus
p1703
g969
sg41
g545
sg668
g1048
sg91
g1056
sVcom.tencent.mm
p1704
g1114
sg166
g1160
sVcom.tiexue.ms
p1705
g1206
ssg113
(dp1706
Vcom.tencent.mobileqq
p1707
g918
sVcom.youdao.dict
p1708
g238
sssb.