ccopy_reg
_reconstructor
p1
(cnetworkx.classes.digraph
DiGraph
p2
c__builtin__
object
p3
NtRp4
(dp5
S'node'
p6
(dp7
Vcom.meizu.media.reader
p8
(dp9
S'weight'
p10
F0.001137915339098771
ssVcom.sankuai.movie
p11
(dp12
g10
F0.0048551054468214229
ssVcom.suning.mobile.ebuy
p13
(dp14
g10
F0.0042861477772720372
ssVcom.autonavi.minimap
p15
(dp16
g10
F0.0083447124867243212
ssVcom.UCMobile
p17
(dp18
g10
F0.0041344257320588681
ssVcom.em.mobile
p19
(dp20
g10
F0.00072067971476255503
ssVco.runner.app
p21
(dp22
g10
F0.015134274010013654
ssVcom.sina.weibo
p23
(dp24
g10
F0.031103019268699742
ssVcom.eg.android.AlipayGphone
p25
(dp26
g10
F0.0402442724927932
ssVcom.android.launcher3
p27
(dp28
g10
F0.25971021089364282
ssVcom.wandoujia.eyepetizer
p29
(dp30
g10
F0.014489455317857685
ssVcom.android.dialer
p31
(dp32
g10
F0.036678804430283721
ssVcom.cmbchina.ccd.pluto.cmbActivity
p33
(dp34
g10
F0.0030344409042633897
ssVcom.android.packageinstaller
p35
(dp36
g10
F0.0012896373843119405
ssVcom.android.soundrecorder
p37
(dp38
g10
F0.0017068730086481567
ssVcom.taobao.taobao
p39
(dp40
g10
F0.002465483234714004
ssVcom.android.phone
p41
(dp42
g10
F3.7930511303292367e-05
ssVcom.meizu.media.gallery
p43
(dp44
g10
F0.010620543164921864
ssVcom.tencent.mobileqq
p45
(dp46
g10
F0.018851464117736309
ssVcom.youdao.note
p47
(dp48
g10
F0.00022758306781975421
ssVcom.sankuai.meituan.takeoutnew
p49
(dp50
g10
F0.021203155818540435
ssVcom.netease.mobimail
p51
(dp52
g10
F0.00064481869215597025
ssVcom.meizu.mstore
p53
(dp54
g10
F0.0074343802154453039
ssVcom.netease.cloudmusic
p55
(dp56
g10
F0.024730693369746624
ssVcom.MobileTicket
p57
(dp58
g10
F0.026361705355788197
ssVcom.meizu.media.camera
p59
(dp60
g10
F0.014451524806554393
ssVcom.meizu.filemanager
p61
(dp62
g10
F0.0018206645425580337
ssVcom.meizu.safe
p63
(dp64
g10
F0.003793051130329237
ssVcom.whatsapp
p65
(dp66
g10
F0.005158549537247762
ssVcom.android.alarmclock
p67
(dp68
g10
F0.00011379153390987711
ssVcom.meizu.media.video
p69
(dp70
g10
F0.0047033834016082538
ssVcom.meizu.cloud
p71
(dp72
g10
F0.00011379153390987711
ssVcom.android.calendar
p73
(dp74
g10
F0.0039447731755424065
ssVcom.tencent.mm
p75
(dp76
g10
F0.39698073130025791
ssVcom.android.mms
p77
(dp78
g10
F0.0073205886815354273
ssVcom.sinovatech.unicom.ui
p79
(dp80
g10
F0.0071309361250189648
ssVcom.android.settings
p81
(dp82
g10
F0.0049688969807313004
ssVcom.liwushuo.gifttalk
p83
(dp84
g10
F0.0085722955545440745
ssVcom.meizu.flyme.weather
p85
(dp86
g10
F0.0014792899408284023
sssS'graph'
p87
(dp88
sS'succ'
p89
(dp90
g8
(dp91
Vcom.android.launcher3
p92
(dp93
g10
I1
ssVcom.tencent.mm
p94
(dp95
g10
F0.90000000000000002
sssg11
(dp96
Vcom.android.launcher3
p97
(dp98
g10
I1
sssg13
(dp99
Vcom.android.launcher3
p100
(dp101
g10
F1.7
ssVcom.tencent.mm
p102
(dp103
g10
F1.3
sssg15
(dp104
Vcom.android.launcher3
p105
(dp106
g10
F9.3000000000000007
ssVcom.android.mms
p107
(dp108
g10
F0.69999999999999996
ssg35
(dp109
g10
F1.3999999999999999
ssVcom.tencent.mm
p110
(dp111
g10
F9.4000000000000004
sssg17
(dp112
Vcom.android.launcher3
p113
(dp114
g10
F6.6000000000000005
ssVcom.tencent.mm
p115
(dp116
g10
F3
ssVcom.meizu.filemanager
p117
(dp118
g10
F2.7000000000000002
ssVcom.whatsapp
p119
(dp120
g10
F0.40000000000000002
sssg19
(dp121
Vcom.android.launcher3
p122
(dp123
g10
I1
ssVcom.tencent.mm
p124
(dp125
g10
F0.90000000000000002
sssg21
(dp126
Vcom.netease.cloudmusic
p127
(dp128
g10
I3
sssg23
(dp129
Vcom.android.launcher3
p130
(dp131
g10
F3.7000000000000002
ssVcom.tencent.mm
p132
(dp133
g10
F2.7000000000000002
sssg25
(dp134
Vcom.android.launcher3
p135
(dp136
g10
F11.9
ssVcom.android.dialer
p137
(dp138
g10
F2.7000000000000002
ssVcom.meizu.mstore
p139
(dp140
g10
F0.90000000000000002
ssVcom.tencent.mm
p141
(dp142
g10
F8.9000000000000004
ssVcom.whatsapp
p143
(dp144
g10
I1
ssg41
(dp145
g10
F0.90000000000000002
ssVcom.tencent.mobileqq
p146
(dp147
g10
F0.40000000000000002
sssg27
(dp148
g8
(dp149
g10
F1.7
ssg11
(dp150
g10
F3.3999999999999999
ssg13
(dp151
g10
F1.7
ssg15
(dp152
g10
F10.199999999999999
ssg17
(dp153
g10
F6.4000000000000004
ssg19
(dp154
g10
F1.7
ssg21
(dp155
g10
I1
ssg23
(dp156
g10
I3
ssg25
(dp157
g10
F19.599999999999998
ssg29
(dp158
g10
F4.4000000000000004
ssg31
(dp159
g10
F10.800000000000001
ssg33
(dp160
g10
I1
ssg35
(dp161
g10
F0.90000000000000002
ssg37
(dp162
g10
F1.7
ssg39
(dp163
g10
F4.4000000000000004
ssg41
(dp164
g10
F0.69999999999999996
ssg43
(dp165
g10
F11.5
ssg67
(dp166
g10
F1.8999999999999999
ssg75
(dp167
g10
F255.19999999999962
ssg47
(dp168
g10
F1.7
ssVcom.sankuai.meituan.takeoutnew
p169
(dp170
g10
I1
ssg51
(dp171
g10
F3.7000000000000002
ssg53
(dp172
g10
F6.7000000000000002
ssg55
(dp173
g10
F27.399999999999995
ssg59
(dp174
g10
F6.5
ssg61
(dp175
g10
F5.4000000000000004
ssg63
(dp176
g10
F2.3999999999999999
ssg65
(dp177
g10
F3.7000000000000002
ssg146
(dp178
g10
F12.5
ssg57
(dp179
g10
F5.0999999999999996
ssg71
(dp180
g10
F1.3
ssg73
(dp181
g10
F2.7000000000000002
ssg81
(dp182
g10
F7.5000000000000009
ssg77
(dp183
g10
F7.0000000000000009
ssg79
(dp184
g10
F4.7999999999999998
ssg83
(dp185
g10
F5.0999999999999996
ssg85
(dp186
g10
F4.5999999999999996
sssg29
(dp187
Vcom.android.launcher3
p188
(dp189
g10
F5.1000000000000005
ssVcom.tencent.mm
p190
(dp191
g10
F1.3
ssg83
(dp192
g10
F1.3
sssg31
(dp193
Vcom.android.launcher3
p194
(dp195
g10
F3.7000000000000002
ssVcom.tencent.mm
p196
(dp197
g10
F3.2000000000000002
ssVcom.eg.android.AlipayGphone
p198
(dp199
g10
F0.90000000000000002
ssg41
(dp200
g10
I1
sssg33
(dp201
Vcom.android.launcher3
p202
(dp203
g10
F1.7
ssVcom.UCMobile
p204
(dp205
g10
F1.3
sssg35
(dp206
Vcom.android.launcher3
p207
(dp208
g10
F1.7
ssVcom.autonavi.minimap
p209
(dp210
g10
F0.40000000000000002
ssg107
(dp211
g10
F0.90000000000000002
sssg37
(dp212
Vcom.android.launcher3
p213
(dp214
g10
F2.3999999999999999
ssVcom.tencent.mm
p215
(dp216
g10
F1.7000000000000002
ssg67
(dp217
g10
I1
sssg39
(dp218
Vcom.android.launcher3
p219
(dp220
g10
F5.1000000000000005
ssVcom.tencent.mm
p221
(dp222
g10
F3.9999999999999996
ssVcom.netease.cloudmusic
p223
(dp224
g10
F1.3
ssVcom.eg.android.AlipayGphone
p225
(dp226
g10
F0.69999999999999996
sssg41
(dp227
Vcom.android.dialer
p228
(dp229
g10
I1
sssg43
(dp230
Vcom.android.launcher3
p231
(dp232
g10
F12.199999999999999
ssg69
(dp233
g10
F1.7
ssg31
(dp234
g10
F0.90000000000000002
ssVcom.netease.cloudmusic
p235
(dp236
g10
F1.7999999999999998
ssVcom.MobileTicket
p237
(dp238
g10
F0.40000000000000002
ssVcom.meizu.media.camera
p239
(dp240
g10
F3.6000000000000001
ssg196
(dp241
g10
F5.5
sssg45
(dp242
g27
(dp243
g10
F12.299999999999999
ssg13
(dp244
g10
F0.40000000000000002
ssg61
(dp245
g10
F0.90000000000000002
ssg17
(dp246
g10
F1.6000000000000001
ssg11
(dp247
g10
F1.3
ssVcom.tencent.mm
p248
(dp249
g10
F7.1000000000000005
ssVcom.liwushuo.gifttalk
p250
(dp251
g10
F0.90000000000000002
sssg47
(dp252
Vcom.tencent.mm
p253
(dp254
g10
I1
sssg49
(dp255
Vcom.android.launcher3
p256
(dp257
g10
F2.3999999999999999
ssg137
(dp258
g10
F0.69999999999999996
ssVcom.eg.android.AlipayGphone
p259
(dp260
g10
F0.90000000000000002
sssg51
(dp261
Vcom.android.launcher3
p262
(dp263
g10
F2.7000000000000002
ssVcom.android.dialer
p264
(dp265
g10
F0.90000000000000002
ssVcom.netease.cloudmusic
p266
(dp267
g10
F0.90000000000000002
sssg53
(dp268
Vcom.android.launcher3
p269
(dp270
g10
F6.4000000000000004
ssg146
(dp271
g10
F0.90000000000000002
ssVcom.tencent.mm
p272
(dp273
g10
F4.5999999999999996
ssVcom.eg.android.AlipayGphone
p274
(dp275
g10
F0.69999999999999996
ssVcom.autonavi.minimap
p276
(dp277
g10
F0.40000000000000002
sssg55
(dp278
Vcom.android.launcher3
p279
(dp280
g10
F23.199999999999996
ssVcom.android.dialer
p281
(dp282
g10
F0.69999999999999996
ssg8
(dp283
g10
F0.40000000000000002
ssVcom.android.settings
p284
(dp285
g10
F0.90000000000000002
ssVcom.meizu.media.camera
p286
(dp287
g10
F0.90000000000000002
ssVcom.whatsapp
p288
(dp289
g10
F0.90000000000000002
ssVcom.netease.mobimail
p290
(dp291
g10
F0.90000000000000002
ssg41
(dp292
g10
F0.40000000000000002
ssVcom.meizu.media.gallery
p293
(dp294
g10
F1.8999999999999999
ssVcom.tencent.mm
p295
(dp296
g10
F10.200000000000001
ssVcom.eg.android.AlipayGphone
p297
(dp298
g10
F2.6999999999999997
sssg57
(dp299
Vcom.android.launcher3
p300
(dp301
g10
F3.2999999999999998
ssVcom.tencent.mobileqq
p302
(dp303
g10
F0.69999999999999996
ssVcom.tencent.mm
p304
(dp305
g10
F3.7999999999999998
sssg59
(dp306
Vcom.android.launcher3
p307
(dp308
g10
F6.4000000000000004
ssVcom.meizu.media.gallery
p309
(dp310
g10
F3.4000000000000004
ssVcom.tencent.mm
p311
(dp312
g10
F2.6000000000000001
ssg235
(dp313
g10
F1.8
ssg69
(dp314
g10
F1.3
sssg61
(dp315
g113
(dp316
g10
F4.2999999999999998
ssg17
(dp317
g10
F3.7000000000000002
ssg115
(dp318
g10
F2.6000000000000001
sssg63
(dp319
Vcom.android.launcher3
p320
(dp321
g10
F1.3
ssVcom.tencent.mm
p322
(dp323
g10
F2.7000000000000002
sssg65
(dp324
Vcom.android.launcher3
p325
(dp326
g10
F3.5999999999999996
ssVcom.netease.cloudmusic
p327
(dp328
g10
F0.90000000000000002
ssVcom.tencent.mm
p329
(dp330
g10
F2.7000000000000002
ssg11
(dp331
g10
F0.40000000000000002
ssVcom.tencent.mobileqq
p332
(dp333
g10
F0.90000000000000002
ssVcom.eg.android.AlipayGphone
p334
(dp335
g10
I1
sssg67
(dp336
g213
(dp337
g10
F2.2000000000000002
ssg215
(dp338
g10
F1.3999999999999999
ssVcom.android.soundrecorder
p339
(dp340
g10
I1
ssVcom.meizu.flyme.weather
p341
(dp342
g10
I1
sssg69
(dp343
Vcom.meizu.media.gallery
p344
(dp345
g10
I2
ssVcom.android.launcher3
p346
(dp347
g10
F2
ssg311
(dp348
g10
F0.40000000000000002
ssVcom.meizu.media.camera
p349
(dp350
g10
F1.6000000000000001
sssg71
(dp351
Vcom.android.launcher3
p352
(dp353
g10
F1.7
ssVcom.tencent.mm
p354
(dp355
g10
F1.3
sssg73
(dp356
Vcom.android.launcher3
p357
(dp358
g10
F2.7000000000000002
ssVcom.tencent.mm
p359
(dp360
g10
F1.3
sssg75
(dp361
g8
(dp362
g10
F0.90000000000000002
ssg15
(dp363
g10
F9.2000000000000011
ssVcom.UCMobile
p364
(dp365
g10
F2.3999999999999999
ssg19
(dp366
g10
F1.3
ssVcom.sina.weibo
p367
(dp368
g10
F0.90000000000000002
ssg25
(dp369
g10
F11.500000000000004
ssVcom.android.launcher3
p370
(dp371
g10
F179.2999999999999
ssg31
(dp372
g10
F2.2000000000000002
ssg35
(dp373
g10
F0.69999999999999996
ssVcom.taobao.taobao
p374
(dp375
g10
F2.2999999999999998
ssg43
(dp376
g10
F6.1000000000000014
ssVcom.tencent.mobileqq
p377
(dp378
g10
F7.6000000000000014
ssg47
(dp379
g10
F1.3
ssg53
(dp380
g10
F3.1000000000000001
ssVcom.netease.cloudmusic
p381
(dp382
g10
F6.7000000000000011
ssVcom.meizu.media.camera
p383
(dp384
g10
F1.3
ssVcom.meizu.filemanager
p385
(dp386
g10
F2.2000000000000002
ssg63
(dp387
g10
F2.7000000000000002
ssg288
(dp388
g10
F2.6000000000000001
ssg57
(dp389
g10
F3.6000000000000001
ssg71
(dp390
g10
F0.69999999999999996
ssg79
(dp391
g10
F1.7000000000000002
ssVcom.android.settings
p392
(dp393
g10
F4.2000000000000002
ssg77
(dp394
g10
F4.2000000000000002
ssVcom.liwushuo.gifttalk
p395
(dp396
g10
F1.3
ssg85
(dp397
g10
F1.3
sssg77
(dp398
Vcom.android.launcher3
p399
(dp400
g10
F7.1000000000000005
ssg15
(dp401
g10
F1.7000000000000002
ssVcom.tencent.mm
p402
(dp403
g10
F2.8999999999999999
ssVcom.sinovatech.unicom.ui
p404
(dp405
g10
F0.90000000000000002
sssg79
(dp406
Vcom.android.launcher3
p407
(dp408
g10
F3.6999999999999997
ssVcom.android.mms
p409
(dp410
g10
F1.7
sssg81
(dp411
Vcom.android.launcher3
p412
(dp413
g10
F5.7000000000000011
ssg71
(dp414
g10
I1
ssVcom.tencent.mm
p415
(dp416
g10
F3.4000000000000004
sssg83
(dp417
Vcom.android.launcher3
p418
(dp419
g10
F5.1000000000000005
ssVcom.wandoujia.eyepetizer
p420
(dp421
g10
F0.90000000000000002
ssg190
(dp422
g10
F0.80000000000000004
ssg13
(dp423
g10
F0.90000000000000002
ssVcom.tencent.mobileqq
p424
(dp425
g10
F0.90000000000000002
sssg85
(dp426
Vcom.android.launcher3
p427
(dp428
g10
F4.7000000000000002
ssVcom.meizu.media.gallery
p429
(dp430
g10
F1.1000000000000001
ssVcom.tencent.mm
p431
(dp432
g10
F2.7000000000000002
ssVcom.netease.cloudmusic
p433
(dp434
g10
F0.90000000000000002
ssssS'edge'
p435
g90
sS'pred'
p436
(dp437
g8
(dp438
Vcom.android.launcher3
p439
g149
sVcom.tencent.mm
p440
g362
sg381
g283
ssg11
(dp441
Vcom.android.launcher3
p442
g150
sg332
g247
sg119
g331
ssg13
(dp443
Vcom.android.launcher3
p444
g151
sg424
g244
sg250
g423
ssg15
(dp445
g399
g152
sg402
g363
sg35
g210
sg77
g401
sVcom.meizu.mstore
p446
g277
ssg17
(dp447
g27
g153
sVcom.tencent.mm
p448
g365
sg45
g246
sg61
g317
sg33
g205
ssg19
(dp449
Vcom.android.launcher3
p450
g154
sVcom.tencent.mm
p451
g366
ssg21
(dp452
Vcom.android.launcher3
p453
g155
ssg23
(dp454
Vcom.android.launcher3
p455
g156
sVcom.tencent.mm
p456
g368
ssg25
(dp457
Vcom.android.launcher3
p458
g157
sg137
g199
sg53
g275
sg55
g298
sg374
g226
sg143
g335
sVcom.tencent.mm
p459
g369
sg169
g260
ssg27
(dp460
g8
g93
sg11
g98
sg13
g101
sg15
g106
sg17
g114
sg19
g123
sg23
g131
sg25
g136
sg29
g189
sg31
g195
sg33
g203
sg35
g208
sg37
g214
sg39
g220
sVcom.meizu.media.gallery
p461
g232
sg45
g243
sg49
g257
sg51
g263
sg53
g270
sg55
g280
sVcom.MobileTicket
p462
g301
sg59
g308
sg61
g316
sg63
g321
sg65
g326
sg67
g337
sg69
g347
sg71
g353
sg73
g358
sg75
g371
sg77
g400
sg79
g408
sg81
g413
sg83
g419
sg85
g428
ssg29
(dp463
Vcom.android.launcher3
p464
g158
sg83
g421
ssg31
(dp465
Vcom.android.launcher3
p466
g159
sVcom.netease.cloudmusic
p467
g282
sVcom.netease.mobimail
p468
g265
sg41
g229
sg461
g234
sVcom.tencent.mm
p469
g372
sg259
g138
sg169
g258
ssg33
(dp470
Vcom.android.launcher3
p471
g160
ssg35
(dp472
g105
g161
sg15
g109
sg110
g373
ssg37
(dp473
Vcom.android.launcher3
p474
g162
sg67
g340
ssg39
(dp475
Vcom.android.launcher3
p476
g163
sg221
g375
ssg41
(dp477
Vcom.android.launcher3
p478
g164
sg281
g200
sVcom.eg.android.AlipayGphone
p479
g145
sg467
g292
ssg43
(dp480
Vcom.android.launcher3
p481
g165
sg69
g345
sVcom.netease.cloudmusic
p482
g294
sg383
g310
sVcom.tencent.mm
p483
g376
sg85
g430
ssg45
(dp484
Vcom.android.launcher3
p485
g178
sg237
g303
sg139
g271
sg274
g147
sg196
g378
sg395
g425
sg119
g333
ssg47
(dp486
Vcom.android.launcher3
p487
g168
sVcom.tencent.mm
p488
g379
ssg49
(dp489
Vcom.android.launcher3
p490
g170
ssg51
(dp491
Vcom.android.launcher3
p492
g171
sg266
g291
ssg53
(dp493
Vcom.android.launcher3
p494
g172
sVcom.tencent.mm
p495
g380
sg274
g140
ssg55
(dp496
Vcom.android.launcher3
p497
g173
sVco.runner.app
p498
g128
sVcom.meizu.media.camera
p499
g313
sVcom.taobao.taobao
p500
g224
sVcom.whatsapp
p501
g328
sg51
g267
sVcom.meizu.media.gallery
p502
g236
sVcom.tencent.mm
p503
g382
sVcom.meizu.flyme.weather
p504
g434
ssg57
(dp505
Vcom.android.launcher3
p506
g179
sVcom.meizu.media.gallery
p507
g238
sVcom.tencent.mm
p508
g389
ssg59
(dp509
Vcom.android.launcher3
p510
g174
sg309
g240
sVcom.tencent.mm
p511
g384
sVcom.netease.cloudmusic
p512
g287
sg69
g350
ssg61
(dp513
g27
g175
sg448
g386
sg45
g245
sg364
g118
ssg63
(dp514
Vcom.android.launcher3
p515
g176
sVcom.tencent.mm
p516
g387
ssg65
(dp517
Vcom.android.launcher3
p518
g177
sVcom.UCMobile
p519
g120
sg329
g388
sg327
g289
sVcom.eg.android.AlipayGphone
p520
g144
ssg67
(dp521
g474
g166
sg37
g217
ssg69
(dp522
g309
g233
sg383
g314
ssg71
(dp523
Vcom.android.launcher3
p524
g180
sVcom.android.settings
p525
g414
sVcom.tencent.mm
p526
g390
ssg73
(dp527
Vcom.android.launcher3
p528
g181
ssg75
(dp529
g8
g95
sg13
g103
sg15
g111
sVcom.UCMobile
p530
g116
sg19
g125
sg23
g133
sg25
g142
sVcom.android.launcher3
p531
g167
sg420
g191
sg31
g197
sg37
g216
sg39
g222
sg461
g241
sg146
g249
sg47
g254
sg53
g273
sg55
g296
sg57
g305
sg349
g312
sg117
g318
sg63
g323
sg501
g330
sg67
g338
sg69
g348
sg71
g355
sg73
g360
sg81
g416
sg77
g403
sg83
g422
sg85
g432
ssg77
(dp532
g531
g183
sVcom.autonavi.minimap
p533
g108
sg35
g211
sg75
g394
sg79
g410
ssg79
(dp534
Vcom.android.launcher3
p535
g184
sg409
g405
sg102
g391
ssg81
(dp536
Vcom.android.launcher3
p537
g182
sg415
g393
sVcom.netease.cloudmusic
p538
g285
ssg83
(dp539
g188
g185
sg29
g192
sVcom.tencent.mm
p540
g396
sg424
g251
ssg85
(dp541
Vcom.android.launcher3
p542
g186
sVcom.tencent.mm
p543
g397
sVcom.android.alarmclock
p544
g342
sssS'adj'
p545
g90
sb.