ccopy_reg
_reconstructor
p1
(cnetworkx.classes.digraph
DiGraph
p2
c__builtin__
object
p3
NtRp4
(dp5
S'node'
p6
(dp7
Vcom.lxd.bwjy.qihu
p8
(dp9
S'weight'
p10
F6.22218437969734e-05
ssVcom.jumo.leidian.nl_360
p11
(dp12
g10
F0.001065412623611334
ssVcom.qihoo.gameunion
p13
(dp14
g10
F0.00010806951817369064
ssVcom.qiyi.video
p15
(dp16
g10
F0.10030161220072112
ssVcom.UCMobile
p17
(dp18
g10
F0.00074993695944773197
ssVcom.disney.chukong.WMW
p19
(dp20
g10
F0.007732974411539641
ssVcom.taobao.taobao
p21
(dp22
g10
F0.017043327143897294
ssVcom.android.launcher
p23
(dp24
g10
F0.59435833450681552
ssVcom.sg.ultrmanydmm
p25
(dp26
g10
F0.00031984210934233692
ssVcom.sina.weibo
p27
(dp28
g10
F0.00069426478341886103
ssVcom.qihoo.appstore
p29
(dp30
g10
F0.013611301233411602
ssVcn.kuwo.player
p31
(dp32
g10
F0.044009400956469817
ssVcom.sonyericsson.soundlevelalert
p33
(dp34
g10
F5.4580564734187192e-06
ssVcom.android.packageinstaller
p35
(dp36
g10
F0.0051414891979604336
ssVcom.joym.xiongchumo2.sj360
p37
(dp38
g10
F0.0011603828062488196
ssVcom.android.gallery3d
p39
(dp40
g10
F0.00014736752478230542
ssVcom.baidu.searchbox
p41
(dp42
g10
F0.04958316822712501
ssVcom.sonyericsson.android.socialphonebook
p43
(dp44
g10
F5.4580564734187192e-06
ssVcom.skymoons.hqg.a360
p45
(dp46
g10
F0.0076489203418489927
ssVcom.tencent.mm
p47
(dp48
g10
F0.0079556631156551243
ssVcom.sonyericsson.music
p49
(dp50
g10
F2.1832225893674877e-05
ssVcom.game.FarmGame2.gc
p51
(dp52
g10
F0.0030859851300709439
ssVcom.sonyericsson.setupwizard
p53
(dp54
g10
F0.0062069018215717671
ssVcom.supercleaner
p55
(dp56
g10
F0.0009464269924908059
ssVcom.android.phone
p57
(dp58
g10
F2.1832225893674876e-06
ssVcom.leo.myworldstr
p59
(dp60
g10
F6.8771511565075859e-05
ssVcom.rebeltwins.daddywasathief
p61
(dp62
g10
F0.0010610461784325989
ssVcom.qihoo.explorer
p63
(dp64
g10
F0.0016265008290787784
ssVcom.tiancity.mpopkart.qihu360
p65
(dp66
g10
F7.3137956743810832e-05
ssVcom.example.app_log_dhao
p67
(dp68
g10
F2.1832225893674876e-06
ssVcom.imangi.templerun2
p69
(dp70
g10
F0.00013645141183546799
ssVcom.dianxinos.superuser
p71
(dp72
g10
F0.0072504822192894268
ssVcom.tencent.mobileqq
p73
(dp74
g10
F0.044428579693628373
ssVcom.kingroot.kinguser
p75
(dp76
g10
F2.1832225893674877e-05
ssVcom.android.settings
p77
(dp78
g10
F0.070024681331372796
ssVcom.tencent.pao
p79
(dp80
g10
F0.00097808372003663452
ssVcom.gamedo.ZombieTerminator
p81
(dp82
g10
F0.00078923496605634677
ssVcom.jm.android.jumei
p83
(dp84
g10
F0.00024015448483042366
ssVcom.android.camera
p85
(dp86
g10
F0.0014714920252336867
ssVcom.mojang.minecraftpe_5
p87
(dp88
g10
F0.0098594332135835735
sssS'node_dict_factory'
p89
c__builtin__
dict
p90
sS'edge_attr_dict_factory'
p91
g90
sS'succ'
p92
(dp93
g8
(dp94
Vcom.android.packageinstaller
p95
(dp96
g10
F0.69999999999999996
ssVcom.android.launcher
p97
(dp98
g10
I1
ssVcom.qihoo.appstore
p99
(dp100
g10
F1.3
sssg11
(dp101
Vcom.android.packageinstaller
p102
(dp103
g10
F0.90000000000000002
ssVcom.dianxinos.superuser
p104
(dp105
g10
F0.40000000000000002
ssVcom.android.launcher
p106
(dp107
g10
I1
ssVcom.qihoo.appstore
p108
(dp109
g10
F3
sssg13
(dp110
Vcom.qihoo.appstore
p111
(dp112
g10
F1.3
ssVcom.android.launcher
p113
(dp114
g10
F1.7
ssVcom.dianxinos.superuser
p115
(dp116
g10
I1
sssg15
(dp117
g33
(dp118
g10
I1
ssVcom.android.gallery3d
p119
(dp120
g10
F0.90000000000000002
ssVcom.baidu.searchbox
p121
(dp122
g10
F4.9000000000000004
ssVcom.taobao.taobao
p123
(dp124
g10
F0.40000000000000002
ssVcom.android.launcher
p125
(dp126
g10
F26.599999999999994
ssVcom.tencent.mobileqq
p127
(dp128
g10
F2
sssg17
(dp129
Vcom.tencent.mobileqq
p130
(dp131
g10
I2
ssVcom.android.gallery3d
p132
(dp133
g10
F0.90000000000000002
ssVcom.qiyi.video
p134
(dp135
g10
F0.69999999999999996
ssVcom.android.launcher
p136
(dp137
g10
F3.3999999999999999
sssg19
(dp138
Vcom.joym.xiongchumo2.sj360
p139
(dp140
g10
F1.8
ssg21
(dp141
g10
F1.8999999999999999
ssVcom.android.launcher
p142
(dp143
g10
F5.7000000000000002
sssg21
(dp144
Vcn.kuwo.player
p145
(dp146
g10
I2
ssVcom.game.FarmGame2.gc
p147
(dp148
g10
F0.90000000000000002
ssVcom.qiyi.video
p149
(dp150
g10
F0.40000000000000002
ssVcom.baidu.searchbox
p151
(dp152
g10
F1.3
ssVcom.android.launcher
p153
(dp154
g10
F12.799999999999999
ssVcom.tencent.mobileqq
p155
(dp156
g10
F2.8999999999999999
sssg23
(dp157
g11
(dp158
g10
F2.2999999999999998
ssg15
(dp159
g10
F33.899999999999991
ssg17
(dp160
g10
F5.1000000000000005
ssVcom.disney.chukong.WMW
p161
(dp162
g10
I3
ssg21
(dp163
g10
F9.4000000000000004
ssg25
(dp164
g10
F1.7
ssg27
(dp165
g10
I1
ssg29
(dp166
g10
F39.099999999999994
ssg31
(dp167
g10
F34.899999999999991
ssg33
(dp168
g10
F1.3
ssg35
(dp169
g10
F10.099999999999998
ssVcom.joym.xiongchumo2.sj360
p170
(dp171
g10
F4.4000000000000004
ssg39
(dp172
g10
F10.800000000000001
ssVcom.baidu.searchbox
p173
(dp174
g10
F30.699999999999989
ssg43
(dp175
g10
I1
ssVcom.skymoons.hqg.a360
p176
(dp177
g10
I3
ssg47
(dp178
g10
F2.7000000000000002
ssg49
(dp179
g10
F0.90000000000000002
ssg147
(dp180
g10
I2
ssVcom.sonyericsson.setupwizard
p181
(dp182
g10
F5.4000000000000004
ssVcom.supercleaner
p183
(dp184
g10
F3.7000000000000002
ssg57
(dp185
g10
F0.90000000000000002
ssg59
(dp186
g10
F1.7
ssVcom.rebeltwins.daddywasathief
p187
(dp188
g10
I1
ssg63
(dp189
g10
F7.7000000000000002
ssg67
(dp190
g10
I1
ssg69
(dp191
g10
F6.1000000000000005
ssVcom.dianxinos.superuser
p192
(dp193
g10
F10.600000000000001
ssg155
(dp194
g10
F30.999999999999996
ssVcom.android.settings
p195
(dp196
g10
F5.7000000000000002
ssg83
(dp197
g10
F6.5
ssVcom.android.camera
p198
(dp199
g10
F6
ssVcom.mojang.minecraftpe_5
p200
(dp201
g10
F3.7000000000000002
sssg25
(dp202
Vcom.android.packageinstaller
p203
(dp204
g10
F0.69999999999999996
ssVcom.android.launcher
p205
(dp206
g10
I1
ssVcom.qihoo.appstore
p207
(dp208
g10
F0.90000000000000002
sssg27
(dp209
Vcn.kuwo.player
p210
(dp211
g10
F1.3999999999999999
ssVcom.tencent.mobileqq
p212
(dp213
g10
F0.90000000000000002
ssVcom.android.launcher
p214
(dp215
g10
F3.7000000000000002
sssg29
(dp216
g183
(dp217
g10
F10.300000000000001
ssg11
(dp218
g10
F1.7
ssVcom.android.settings
p219
(dp220
g10
F0.90000000000000002
ssg35
(dp221
g10
F17.5
ssg25
(dp222
g10
F0.90000000000000002
ssg59
(dp223
g10
F0.40000000000000002
ssg63
(dp224
g10
F1.3
ssVcom.jm.android.jumei
p225
(dp226
g10
F0.40000000000000002
ssg17
(dp227
g10
F0.69999999999999996
ssg69
(dp228
g10
F0.69999999999999996
ssVcom.qiyi.video
p229
(dp230
g10
F0.90000000000000002
ssVcom.android.launcher
p231
(dp232
g10
F43.199999999999996
ssg192
(dp233
g10
F30.199999999999992
ssg65
(dp234
g10
F0.69999999999999996
sssg31
(dp235
g45
(dp236
g10
I1
ssVcom.supercleaner
p237
(dp238
g10
F1.8999999999999999
ssVcom.android.packageinstaller
p239
(dp240
g10
F0.69999999999999996
ssg39
(dp241
g10
F0.69999999999999996
ssVcom.qiyi.video
p242
(dp243
g10
F1.3
ssVcom.taobao.taobao
p244
(dp245
g10
I1
ssVcom.qihoo.explorer
p246
(dp247
g10
F0.90000000000000002
ssVcom.jm.android.jumei
p248
(dp249
g10
F1.3
ssVcom.baidu.searchbox
p250
(dp251
g10
F4.4000000000000004
ssVcom.android.launcher
p252
(dp253
g10
F42.999999999999993
ssVcom.dianxinos.superuser
p254
(dp255
g10
F0.90000000000000002
ssVcom.qihoo.appstore
p256
(dp257
g10
I1
ssVcom.tencent.mobileqq
p258
(dp259
g10
F20.100000000000001
ssg49
(dp260
g10
F0.69999999999999996
sssg33
(dp261
Vcom.android.launcher
p262
(dp263
g10
F0.90000000000000002
ssVcom.qiyi.video
p264
(dp265
g10
I1
ssg121
(dp266
g10
F0.69999999999999996
sssg35
(dp267
g75
(dp268
g10
F1.7
ssVcom.supercleaner
p269
(dp270
g10
F11.199999999999999
ssg13
(dp271
g10
F1.7000000000000002
ssg63
(dp272
g10
F0.69999999999999996
ssg65
(dp273
g10
I1
ssg17
(dp274
g10
F0.40000000000000002
ssVcom.baidu.searchbox
p275
(dp276
g10
F4.4000000000000004
ssVcom.android.launcher
p277
(dp278
g10
F13.600000000000001
ssg104
(dp279
g10
F13.300000000000001
ssVcom.mojang.minecraftpe_5
p280
(dp281
g10
I1
ssVcom.qihoo.appstore
p282
(dp283
g10
F17.699999999999999
sssg37
(dp284
Vcom.android.launcher
p285
(dp286
g10
I4
sssg39
(dp287
Vcom.android.camera
p288
(dp289
g10
F3.6000000000000001
ssVcom.tencent.mobileqq
p290
(dp291
g10
F3.6999999999999997
ssg134
(dp292
g10
I1
ssVcom.android.launcher
p293
(dp294
g10
F4.4000000000000004
ssVcom.UCMobile
p295
(dp296
g10
F3.4000000000000004
sssg41
(dp297
g210
(dp298
g10
F1.6000000000000001
ssVcom.supercleaner
p299
(dp300
g10
F1.7000000000000002
ssg195
(dp301
g10
F0.90000000000000002
ssVcom.android.packageinstaller
p302
(dp303
g10
F6.1000000000000005
ssg13
(dp304
g10
F1.7
ssg39
(dp305
g10
I2
ssVcom.qiyi.video
p306
(dp307
g10
F3.5
ssVcom.tencent.mobileqq
p308
(dp309
g10
F2.2999999999999998
ssg123
(dp310
g10
F0.90000000000000002
ssVcom.android.launcher
p311
(dp312
g10
F26.899999999999991
ssg33
(dp313
g10
F0.69999999999999996
ssVcom.android.camera
p314
(dp315
g10
F0.90000000000000002
ssg115
(dp316
g10
F0.90000000000000002
ssg27
(dp317
g10
F1.3
ssg49
(dp318
g10
I1
sssg43
(dp319
Vcom.qihoo.explorer
p320
(dp321
g10
F0.69999999999999996
ssVcom.android.launcher
p322
(dp323
g10
F0.90000000000000002
ssg57
(dp324
g10
I1
sssg45
(dp325
Vcom.tencent.mm
p326
(dp327
g10
F0.90000000000000002
ssg239
(dp328
g10
F2.2000000000000002
ssVcom.baidu.searchbox
p329
(dp330
g10
F1.7
ssVcom.android.launcher
p331
(dp332
g10
F3.7000000000000002
ssg254
(dp333
g10
I1
ssVcom.tencent.mobileqq
p334
(dp335
g10
F1.3
sssg47
(dp336
g31
(dp337
g10
F0.90000000000000002
ssg334
(dp338
g10
F0.90000000000000002
ssg250
(dp339
g10
F0.40000000000000002
ssVcom.android.launcher
p340
(dp341
g10
F4.4000000000000004
sssg49
(dp342
g210
(dp343
g10
F0.40000000000000002
ssg27
(dp344
g10
F0.69999999999999996
ssVcom.android.launcher
p345
(dp346
g10
F0.90000000000000002
ssVcom.baidu.searchbox
p347
(dp348
g10
I1
sssg51
(dp349
Vcom.joym.xiongchumo2.sj360
p350
(dp351
g10
I1
ssVcom.android.launcher
p352
(dp353
g10
I2
sssg53
(dp354
g77
(dp355
g10
I10
ssVcom.android.packageinstaller
p356
(dp357
g10
F0.40000000000000002
ssVcom.dianxinos.superuser
p358
(dp359
g10
F1.3999999999999999
ssVcom.android.launcher
p360
(dp361
g10
F10.5
ssVcom.qihoo.appstore
p362
(dp363
g10
F3.8999999999999999
sssg55
(dp364
Vcn.kuwo.player
p365
(dp366
g10
F0.90000000000000002
ssVcom.kingroot.kinguser
p367
(dp368
g10
I1
ssg35
(dp369
g10
F10.800000000000001
ssg13
(dp370
g10
F0.69999999999999996
ssVcom.baidu.searchbox
p371
(dp372
g10
F1.3
ssg67
(dp373
g10
F0.69999999999999996
ssVcom.qiyi.video
p374
(dp375
g10
F0.90000000000000002
ssg23
(dp376
g10
F11.699999999999999
ssg192
(dp377
g10
F7.7000000000000002
ssg73
(dp378
g10
I1
ssVcom.qihoo.appstore
p379
(dp380
g10
F12.9
sssg57
(dp381
g320
(dp382
g10
F0.90000000000000002
ssg322
(dp383
g10
I1
sssg59
(dp384
Vcom.android.launcher
p385
(dp386
g10
I2
sssg61
(dp387
Vcom.android.launcher
p388
(dp389
g10
I1
sssg63
(dp390
g31
(dp391
g10
F0.40000000000000002
ssg57
(dp392
g10
F0.69999999999999996
ssg83
(dp393
g10
F0.90000000000000002
ssg17
(dp394
g10
I1
ssVcom.android.launcher
p395
(dp396
g10
F4.8000000000000007
ssg43
(dp397
g10
F0.90000000000000002
ssg47
(dp398
g10
F0.90000000000000002
ssVcom.qihoo.appstore
p399
(dp400
g10
F0.40000000000000002
sssg65
(dp401
Vcom.android.launcher
p402
(dp403
g10
F0.90000000000000002
ssVcom.dianxinos.superuser
p404
(dp405
g10
I1
sssg67
(dp406
Vcom.android.launcher
p407
(dp408
g10
F1.7
ssg29
(dp409
g10
F0.90000000000000002
sssg69
(dp410
Vcom.android.launcher
p411
(dp412
g10
F6.1000000000000005
sssg71
(dp413
g75
(dp414
g10
F1.3
ssg269
(dp415
g10
F7.1000000000000005
ssg11
(dp416
g10
F0.90000000000000002
ssVcom.android.packageinstaller
p417
(dp418
g10
F24.999999999999996
ssVcom.qihoo.gameunion
p419
(dp420
g10
I1
ssg59
(dp421
g10
F0.90000000000000002
ssg65
(dp422
g10
F0.90000000000000002
ssg69
(dp423
g10
F1.7000000000000002
ssVcom.android.launcher
p424
(dp425
g10
F19.999999999999996
ssg25
(dp426
g10
F0.40000000000000002
ssg200
(dp427
g10
F2.2999999999999998
ssVcom.tencent.mobileqq
p428
(dp429
g10
I1
ssVcom.qihoo.appstore
p430
(dp431
g10
F15.000000000000004
sssg73
(dp432
Vcn.kuwo.player
p433
(dp434
g10
F16.5
ssVcom.sonyericsson.setupwizard
p435
(dp436
g10
F1.7
ssVcom.baidu.searchbox
p437
(dp438
g10
F3.4999999999999996
ssVcom.android.settings
p439
(dp440
g10
F0.90000000000000002
ssg302
(dp441
g10
F0.80000000000000004
ssg79
(dp442
g10
I1
ssVcom.android.gallery3d
p443
(dp444
g10
F1.8
ssg149
(dp445
g10
F3.6000000000000001
ssVcom.UCMobile
p446
(dp447
g10
F0.69999999999999996
ssg67
(dp448
g10
F0.90000000000000002
ssVcom.taobao.taobao
p449
(dp450
g10
F2.2000000000000002
ssg23
(dp451
g10
F46.399999999999991
ssg71
(dp452
g10
I1
ssg198
(dp453
g10
F2.3999999999999999
ssVcom.skymoons.hqg.a360
p454
(dp455
g10
F0.90000000000000002
ssg29
(dp456
g10
F2.4000000000000004
sssg75
(dp457
Vcom.android.launcher
p458
(dp459
g10
F1.7
ssg269
(dp460
g10
I1
ssVcom.qihoo.appstore
p461
(dp462
g10
F1.3
sssg77
(dp463
Vcom.sonyericsson.setupwizard
p464
(dp465
g10
I8
ssVcom.android.gallery3d
p466
(dp467
g10
F0.90000000000000002
ssVcom.qihoo.explorer
p468
(dp469
g10
F0.40000000000000002
ssg225
(dp470
g10
F0.90000000000000002
ssVcom.baidu.searchbox
p471
(dp472
g10
F0.40000000000000002
ssVcom.android.launcher
p473
(dp474
g10
F11
ssg358
(dp475
g10
F0.80000000000000004
ssVcom.android.camera
p476
(dp477
g10
F0.40000000000000002
ssVcom.tencent.mobileqq
p478
(dp479
g10
F0.90000000000000002
ssg362
(dp480
g10
F2.0999999999999996
sssg79
(dp481
Vcom.android.packageinstaller
p482
(dp483
g10
F0.69999999999999996
ssVcom.android.launcher
p484
(dp485
g10
I1
ssVcom.qihoo.appstore
p486
(dp487
g10
F0.90000000000000002
sssg81
(dp488
Vcom.android.packageinstaller
p489
(dp490
g10
F0.69999999999999996
ssVcom.android.launcher
p491
(dp492
g10
I1
ssVcom.qihoo.appstore
p493
(dp494
g10
F1.3
sssg83
(dp495
Vcom.android.packageinstaller
p496
(dp497
g10
F0.69999999999999996
ssg47
(dp498
g10
F0.40000000000000002
ssg468
(dp499
g10
F0.90000000000000002
ssVcom.android.launcher
p500
(dp501
g10
F3.7000000000000002
ssg399
(dp502
g10
F0.90000000000000002
sssg85
(dp503
Vcn.kuwo.player
p504
(dp505
g10
I1
ssVcom.android.gallery3d
p506
(dp507
g10
F4.0999999999999996
ssg134
(dp508
g10
F0.40000000000000002
ssg295
(dp509
g10
F2.7000000000000002
ssVcom.baidu.searchbox
p510
(dp511
g10
F0.90000000000000002
ssVcom.android.launcher
p512
(dp513
g10
F2.2999999999999998
sssg87
(dp514
Vcom.android.settings
p515
(dp516
g10
F0.90000000000000002
ssg466
(dp517
g10
F0.40000000000000002
ssVcom.android.launcher
p518
(dp519
g10
F9.3000000000000007
ssVcom.dianxinos.superuser
p520
(dp521
g10
I1
ssVcom.leo.myworldstr
p522
(dp523
g10
I1
ssVcom.tencent.mobileqq
p524
(dp525
g10
I3
ssssS'edge'
p526
g93
sS'graph'
p527
(dp528
sS'adjlist_dict_factory'
p529
g90
sS'adj'
p530
g93
sS'pred'
p531
(dp532
g8
(dp533
sg11
(dp534
g358
g416
sVcom.android.launcher
p535
g158
sVcom.qihoo.appstore
p536
g218
ssg13
(dp537
Vcom.android.packageinstaller
p538
g271
sVcom.baidu.searchbox
p539
g304
sVcom.supercleaner
p540
g370
sg115
g420
ssg15
(dp541
Vcn.kuwo.player
p542
g243
sVcom.supercleaner
p543
g375
sg33
g265
sg132
g292
sg449
g150
sg295
g135
sVcom.baidu.searchbox
p544
g307
sVcom.android.launcher
p545
g159
sVcom.android.camera
p546
g508
sg155
g445
sVcom.qihoo.appstore
p547
g230
ssg17
(dp548
g35
g274
sVcom.android.gallery3d
p549
g296
sg63
g394
sg277
g160
sg288
g509
sVcom.tencent.mobileqq
p550
g447
sg282
g227
ssg19
(dp551
g142
g162
ssg21
(dp552
Vcn.kuwo.player
p553
g245
sVcom.qiyi.video
p554
g124
sVcom.disney.chukong.WMW
p555
g141
sVcom.baidu.searchbox
p556
g310
sVcom.android.launcher
p557
g163
sVcom.tencent.mobileqq
p558
g450
ssg23
(dp559
g8
g98
sVcom.jumo.leidian.nl_360
p560
g107
sg13
g114
sg15
g126
sVcom.UCMobile
p561
g137
sg19
g143
sg41
g312
sg25
g206
sVcom.sina.weibo
p562
g215
sg29
g232
sg31
g253
sg33
g263
sg35
g278
sg37
g286
sVcom.android.gallery3d
p563
g294
sVcom.taobao.taobao
p564
g154
sg43
g323
sVcom.skymoons.hqg.a360
p565
g332
sg47
g341
sg49
g346
sg147
g353
sg181
g361
sg55
g376
sg57
g383
sg59
g386
sg61
g389
sVcom.qihoo.explorer
p566
g396
sg65
g403
sg67
g408
sg69
g412
sg71
g425
sg73
g451
sg75
g459
sg219
g474
sg79
g485
sg81
g492
sg83
g501
sg314
g513
sg87
g519
ssg25
(dp567
Vcom.qihoo.appstore
p568
g222
sVcom.android.launcher
p569
g164
sVcom.dianxinos.superuser
p570
g426
ssg27
(dp571
g345
g165
sVcom.baidu.searchbox
p572
g317
sg49
g344
ssg29
(dp573
Vcn.kuwo.player
p574
g257
sg75
g462
sg181
g363
sg13
g112
sg8
g100
sVcom.supercleaner
p575
g380
sg560
g109
sVcom.android.settings
p576
g480
sg35
g283
sg25
g208
sg566
g400
sg83
g502
sg79
g487
sg67
g409
sg81
g494
sg23
g166
sg71
g431
sg73
g456
ssg31
(dp577
g299
g366
sg47
g337
sg347
g298
sVcom.taobao.taobao
p578
g146
sVcom.tencent.mobileqq
p579
g434
sg468
g391
sVcom.android.launcher
p580
g167
sg85
g505
sg27
g211
sg49
g343
ssg33
(dp581
g306
g118
sg544
g313
sVcom.android.launcher
p582
g168
ssg35
(dp583
Vcn.kuwo.player
p584
g240
sVcom.sonyericsson.setupwizard
p585
g357
sg79
g483
sg8
g96
sg575
g369
sVcom.jumo.leidian.nl_360
p586
g103
sVcom.dianxinos.superuser
p587
g418
sg329
g303
sg83
g497
sg81
g490
sVcom.android.launcher
p588
g169
sg25
g204
sg45
g328
sVcom.tencent.mobileqq
p589
g441
sg379
g221
ssg37
(dp590
g51
g351
sVcom.disney.chukong.WMW
p591
g140
sVcom.android.launcher
p592
g171
ssg39
(dp593
g31
g241
sg515
g467
sg134
g120
sg295
g133
sg250
g305
sg340
g172
sg314
g507
sg290
g444
sVcom.mojang.minecraftpe_5
p594
g517
ssg41
(dp595
g31
g251
sg299
g372
sg33
g266
sg302
g276
sg306
g122
sg308
g438
sg123
g152
sVcom.android.launcher
p596
g174
sVcom.android.settings
p597
g472
sg314
g511
sg454
g330
sg47
g339
sg49
g348
ssg43
(dp598
Vcom.android.launcher
p599
g175
sVcom.qihoo.explorer
p600
g397
ssg45
(dp601
g584
g236
sg589
g455
sVcom.android.launcher
p602
g177
ssg47
(dp603
g565
g327
sg468
g398
sVcom.android.launcher
p604
g178
sg225
g498
ssg49
(dp605
Vcn.kuwo.player
p606
g260
sg572
g318
sVcom.android.launcher
p607
g179
ssg51
(dp608
Vcom.android.launcher
p609
g180
sVcom.taobao.taobao
p610
g148
ssg53
(dp611
g77
g465
sVcom.tencent.mobileqq
p612
g436
sVcom.android.launcher
p613
g182
ssg55
(dp614
Vcn.kuwo.player
p615
g238
sg75
g460
sg417
g270
sVcom.baidu.searchbox
p616
g300
sVcom.android.launcher
p617
g184
sg587
g415
sVcom.qihoo.appstore
p618
g217
ssg57
(dp619
g599
g185
sg600
g392
sg43
g324
ssg59
(dp620
g87
g523
sVcom.dianxinos.superuser
p621
g421
sVcom.android.launcher
p622
g186
sVcom.qihoo.appstore
p623
g223
ssg61
(dp624
g388
g188
ssg63
(dp625
Vcn.kuwo.player
p626
g247
sg219
g469
sg35
g272
sg57
g382
sg225
g499
sg277
g189
sg43
g321
sg379
g224
ssg65
(dp627
Vcom.android.packageinstaller
p628
g273
sVcom.dianxinos.superuser
p629
g422
sVcom.qihoo.appstore
p630
g234
ssg67
(dp631
g73
g448
sg23
g190
sg55
g373
ssg69
(dp632
Vcom.qihoo.appstore
p633
g228
sVcom.android.launcher
p634
g191
sVcom.dianxinos.superuser
p635
g423
ssg71
(dp636
g584
g255
sVcom.sonyericsson.setupwizard
p637
g359
sg183
g377
sg586
g105
sVcom.android.settings
p638
g475
sg102
g279
sg13
g116
sg539
g316
sg65
g405
sg617
g193
sg200
g521
sg45
g333
sVcom.tencent.mobileqq
p639
g452
sg618
g233
ssg73
(dp640
Vcn.kuwo.player
p641
g259
sg55
g378
sg597
g479
sg326
g338
sg132
g291
sVcom.baidu.searchbox
p642
g309
sg446
g131
sg449
g156
sVcom.android.launcher
p643
g194
sg71
g429
sVcom.qiyi.video
p644
g128
sg565
g335
sg562
g213
sVcom.mojang.minecraftpe_5
p645
g525
ssg75
(dp646
g417
g268
sg269
g368
sg587
g414
ssg77
(dp647
g53
g355
sg41
g301
sg311
g196
sVcom.qihoo.appstore
p648
g220
sg612
g440
sg594
g516
ssg79
(dp649
Vcom.tencent.mobileqq
p650
g442
ssg81
(dp651
sg83
(dp652
Vcn.kuwo.player
p653
g249
sg219
g470
sg566
g393
sVcom.android.launcher
p654
g197
sg648
g226
ssg85
(dp655
g549
g289
sVcom.tencent.mobileqq
p656
g453
sVcom.baidu.searchbox
p657
g315
sVcom.android.launcher
p658
g199
sg515
g477
ssg87
(dp659
Vcom.android.packageinstaller
p660
g281
sVcom.android.launcher
p661
g201
sVcom.dianxinos.superuser
p662
g427
sssb.