ccopy_reg
_reconstructor
p1
(cnetworkx.classes.digraph
DiGraph
p2
c__builtin__
object
p3
NtRp4
(dp5
S'node'
p6
(dp7
Vcom.shanbay.news
p8
(dp9
S'weight'
p10
F3.1009832894027369e-05
ssVcom.android.browser
p11
(dp12
g10
F0.0011209823174527505
ssVcom.sand.airdroid
p13
(dp14
g10
F2.4067332992379451e-05
ssVcom.wandoujia.phoenix2
p15
(dp16
g10
F0.0021248678032310393
ssVcom.youdao.dict
p17
(dp18
g10
F0.012362278158201059
ssVcom.ss.android.article.news
p19
(dp20
g10
F0.0018874343065946807
ssVcom.qidian.QDReader
p21
(dp22
g10
F0.13302894328208997
ssVcom.shanbay.words
p23
(dp24
g10
F1.8513333071061114e-06
ssVcom.sdu.didi.psnger
p25
(dp26
g10
F0.0011936471497566653
ssVcom.android.deskclock
p27
(dp28
g10
F0.00087938332087540293
ssVcom.UCMobile
p29
(dp30
g10
F0.043333695886105972
ssVcom.douban.movie
p31
(dp32
g10
F0.00078126265559877906
ssVcom.sohu.inputmethod.sogou
p33
(dp34
g10
F1.8513333071061114e-06
ssVcom.android.notepad
p35
(dp36
g10
F0.015404944448429953
ssVcom.storm.smart
p37
(dp38
g10
F0.001636115810155026
ssVcom.android.contacts
p39
(dp40
g10
F0.050982016611088095
ssVcom.eg.android.AlipayGphone
p41
(dp42
g10
F0.00026890616285716267
ssVcn.kuwo.player
p43
(dp44
g10
F0.0018985423064373174
ssVcom.estrongs.android.taskmanager
p45
(dp46
g10
F9.025249872142294e-05
ssVcn.wps.moffice_eng
p47
(dp48
g10
F5.5539999213183342e-06
ssVcom.android.bluetooth
p49
(dp50
g10
F6.2482499114831268e-05
ssVcom.sankuai.meituan
p51
(dp52
g10
F0.0034013621184807033
ssVcom.android.gallery3d
p53
(dp54
g10
F0.0060200730813822984
ssVcom.jingdong.app.mall
p55
(dp56
g10
F0.0025691877969365061
ssVcom.taobao.taobao
p57
(dp58
g10
F6.0168332480948627e-06
ssVcom.baidu.stu
p59
(dp60
g10
F3.7952332795675286e-05
ssVmindware.mindgamespro
p61
(dp62
g10
F0.000282328329333682
ssVcom.android.calculator
p63
(dp64
g10
F0.0033893284519845137
ssVcom.android.safe
p65
(dp66
g10
F9.256666535530557e-07
ssVcom.autonavi.minimap
p67
(dp68
g10
F0.038301309124064785
ssVcom.qq.ac.android
p69
(dp70
g10
F0.0002925106625227656
ssVcom.tencent.mobileqq
p71
(dp72
g10
F0.033560507357892809
ssVcom.lenovo.safecenter
p73
(dp74
g10
F0.026065847297400496
ssVtv.danmaku.bili
p75
(dp76
g10
F0.00020179533047456614
ssVcom.aibang.nextbus
p77
(dp78
g10
F0.00038461449455129464
ssVcom.jd.mobiledd.sdk
p79
(dp80
g10
F5.7854165847065985e-05
ssVcom.MobileTicket
p81
(dp82
g10
F0.0092557408688770052
ssVuniqueName.photoAlbumManager
p83
(dp84
g10
F0.0011209823174527505
ssVcom.android.phone
p85
(dp86
g10
F0.029311234584757512
ssVcom.vnes.supermr
p87
(dp88
g10
F0.00017448816419475102
ssVcom.dianping.v1
p89
(dp90
g10
F0.0027950504604034518
ssVcom.android.fileexplorer
p91
(dp92
g10
F0.0035684449494470297
ssVcom.pp.assistant
p93
(dp94
g10
F6.0168332480948627e-06
ssVsina.mobile.tianqitong
p95
(dp96
g10
F0.011522235670101662
ssVcom.android.profiles
p97
(dp98
g10
F1.3884999803295835e-06
ssVcom.ontim.softap
p99
(dp100
g10
F1.3884999803295835e-06
ssVme.abitno.vplayer.t
p101
(dp102
g10
F1.1107999842636668e-05
ssVcom.chaozh.iReaderFree
p103
(dp104
g10
F0.14124840033231434
ssVair.games.shirogames.evoland12
p105
(dp106
g10
F3.2398332874356951e-06
ssVcom.xunlei.downloadprovider
p107
(dp108
g10
F0.0068082782368827253
ssVcom.lenovo.lsf
p109
(dp110
g10
F1.3884999803295836e-05
ssVru.zdevs.zarchiver
p111
(dp112
g10
F7.2664832303914869e-05
ssVcom.tmall.wireless
p113
(dp114
g10
F4.0729332756334452e-05
ssVcom.zhihu.daily.android
p115
(dp116
g10
F0.0011344044839292698
ssVcom.android.calendar
p117
(dp118
g10
F0.0035749246160219012
ssVcom.tencent.mm
p119
(dp120
g10
F0.29598561514020377
ssVair.com.ppllaayy.tfqsports
p121
(dp122
g10
F2.3141666338826395e-06
ssVcom.android.mms
p123
(dp124
g10
F0.026952635951504322
ssVcom.youdao.note
p125
(dp126
g10
F0.0046408297675882447
ssVcom.baidu.tieba
p127
(dp128
g10
F0.00086318415443822449
ssVcom.android.launcher
p129
(dp130
g10
F0.072949011966555663
ssVcom.android.settings
p131
(dp132
g10
F0.0062501012447902324
sssS'node_dict_factory'
p133
c__builtin__
dict
p134
sS'edge_attr_dict_factory'
p135
g134
sS'succ'
p136
(dp137
g8
(dp138
Vcom.xunlei.downloadprovider
p139
(dp140
g10
F0.69999999999999996
ssVcom.android.calendar
p141
(dp142
g10
F0.40000000000000002
ssVcom.UCMobile
p143
(dp144
g10
I1
ssVcom.android.launcher
p145
(dp146
g10
F0.90000000000000002
ssVcom.android.phone
p147
(dp148
g10
F0.90000000000000002
ssVcom.android.contacts
p149
(dp150
g10
I1
sssg11
(dp151
Vcom.xunlei.downloadprovider
p152
(dp153
g10
F0.69999999999999996
ssVcom.android.fileexplorer
p154
(dp155
g10
F0.90000000000000002
ssVcom.tencent.mm
p156
(dp157
g10
F0.90000000000000002
ssVcom.android.launcher
p158
(dp159
g10
I3
sssg13
(dp160
Vcom.UCMobile
p161
(dp162
g10
I1
ssVcom.android.bluetooth
p163
(dp164
g10
F0.40000000000000002
ssVcom.android.launcher
p165
(dp166
g10
F0.90000000000000002
ssVcom.android.settings
p167
(dp168
g10
F0.69999999999999996
sssg15
(dp169
Vcom.xunlei.downloadprovider
p170
(dp171
g10
F6.6000000000000014
ssg81
(dp172
g10
F1.3
ssVcom.android.contacts
p173
(dp174
g10
F0.69999999999999996
ssVcom.UCMobile
p175
(dp176
g10
I1
ssVcom.android.calendar
p177
(dp178
g10
F1.3
ssg111
(dp179
g10
F1.3
ssVcom.qidian.QDReader
p180
(dp181
g10
F1.7
ssVcom.android.mms
p182
(dp183
g10
F2
ssg25
(dp184
g10
F1.3
ssVcom.android.fileexplorer
p185
(dp186
g10
F0.69999999999999996
ssg93
(dp187
g10
F1.7
ssVcom.android.launcher
p188
(dp189
g10
F18.199999999999999
ssg59
(dp190
g10
F0.90000000000000002
ssVcom.tencent.mm
p191
(dp192
g10
F4.0999999999999996
ssVcom.lenovo.safecenter
p193
(dp194
g10
F69.600000000000051
sssg17
(dp195
Vcom.shanbay.news
p196
(dp197
g10
I1
ssVcom.MobileTicket
p198
(dp199
g10
F1.3
ssVcom.tencent.mobileqq
p200
(dp201
g10
F5.4000000000000004
ssVcom.android.mms
p202
(dp203
g10
I1
ssVcom.UCMobile
p204
(dp205
g10
I3
ssVcom.android.launcher
p206
(dp207
g10
F4
ssVcom.android.phone
p208
(dp209
g10
F3.6000000000000001
ssVcom.tencent.mm
p210
(dp211
g10
I1
ssg149
(dp212
g10
F1.8999999999999999
sssg19
(dp213
Vcom.tencent.mm
p214
(dp215
g10
I3
ssVcom.android.contacts
p216
(dp217
g10
F3.6000000000000001
ssVcom.android.phone
p218
(dp219
g10
F2.2000000000000002
sssg21
(dp220
Vcom.wandoujia.phoenix2
p221
(dp222
g10
F1.8999999999999999
ssVcom.youdao.dict
p223
(dp224
g10
F2.7000000000000002
ssVcom.autonavi.minimap
p225
(dp226
g10
F5.5
ssVcom.UCMobile
p227
(dp228
g10
F13.1
ssVcom.douban.movie
p229
(dp230
g10
F1.6000000000000001
ssVcom.android.launcher
p231
(dp232
g10
F111.00000000000009
ssVcom.android.contacts
p233
(dp234
g10
F8
ssVcn.kuwo.player
p235
(dp236
g10
F1.3999999999999999
ssg45
(dp237
g10
F0.69999999999999996
ssVru.zdevs.zarchiver
p238
(dp239
g10
F0.69999999999999996
ssVcom.android.gallery3d
p240
(dp241
g10
F2.2999999999999998
ssVcom.jingdong.app.mall
p242
(dp243
g10
F5.4000000000000004
ssVcom.android.phone
p244
(dp245
g10
F7.5
ssVcom.tencent.mm
p246
(dp247
g10
F77.800000000000026
ssVcom.lenovo.safecenter
p248
(dp249
g10
F12.899999999999999
ssVcom.aibang.nextbus
p250
(dp251
g10
F0.90000000000000002
ssVcom.android.notepad
p252
(dp253
g10
I2
ssVcom.android.fileexplorer
p254
(dp255
g10
F2.6000000000000001
ssVsina.mobile.tianqitong
p256
(dp257
g10
I3
ssg59
(dp258
g10
F0.40000000000000002
ssVcom.chaozh.iReaderFree
p259
(dp260
g10
F16.900000000000006
ssVcom.xunlei.downloadprovider
p261
(dp262
g10
F6.1000000000000005
ssVcom.MobileTicket
p263
(dp264
g10
F11.100000000000001
ssg113
(dp265
g10
I1
ssVcom.android.calendar
p266
(dp267
g10
I1
ssVcom.tencent.mobileqq
p268
(dp269
g10
F24.499999999999993
ssVcom.android.mms
p270
(dp271
g10
F7.5000000000000009
ssVcom.baidu.tieba
p272
(dp273
g10
F1.3999999999999999
ssVcom.jd.mobiledd.sdk
p274
(dp275
g10
F0.69999999999999996
ssVcom.android.settings
p276
(dp277
g10
F1.7
sssg23
(dp278
Vcom.android.contacts
p279
(dp280
g10
F1.7
ssVcom.android.phone
p281
(dp282
g10
F1.3
sssg25
(dp283
Vcom.MobileTicket
p284
(dp285
g10
F0.69999999999999996
ssVcom.wandoujia.phoenix2
p286
(dp287
g10
F0.69999999999999996
ssVcom.autonavi.minimap
p288
(dp289
g10
F3.0999999999999996
ssVcom.android.mms
p290
(dp291
g10
F4.4000000000000004
ssVcom.android.contacts
p292
(dp293
g10
F3.3999999999999999
ssVcom.android.launcher
p294
(dp295
g10
F7.7000000000000002
ssVcom.android.phone
p296
(dp297
g10
F4
ssVcom.aibang.nextbus
p298
(dp299
g10
I1
ssVcom.tencent.mm
p300
(dp301
g10
F8.0999999999999996
ssVcom.lenovo.safecenter
p302
(dp303
g10
F2.1000000000000001
sssg27
(dp304
Vcom.autonavi.minimap
p305
(dp306
g10
I1
ssVcom.qidian.QDReader
p307
(dp308
g10
I1
ssVcom.android.launcher
p309
(dp310
g10
F3.4000000000000004
ssVsina.mobile.tianqitong
p311
(dp312
g10
F1.3
ssVcom.tencent.mm
p313
(dp314
g10
I1
ssVcom.android.settings
p315
(dp316
g10
F2.7000000000000002
sssg29
(dp317
Vcom.android.browser
p318
(dp319
g10
I1
ssVcom.wandoujia.phoenix2
p320
(dp321
g10
F1.3
ssg17
(dp322
g10
I2
ssVcom.qidian.QDReader
p323
(dp324
g10
F5.1000000000000005
ssVcom.sdu.didi.psnger
p325
(dp326
g10
F0.40000000000000002
ssVcom.android.launcher
p327
(dp328
g10
F68.5
ssVcom.storm.smart
p329
(dp330
g10
F0.69999999999999996
ssVcom.android.contacts
p331
(dp332
g10
F15.700000000000001
ssVcom.eg.android.AlipayGphone
p333
(dp334
g10
F0.40000000000000002
ssg45
(dp335
g10
I1
ssVcom.android.bluetooth
p336
(dp337
g10
F1.6000000000000001
ssVcom.sankuai.meituan
p338
(dp339
g10
F1.8999999999999999
ssVcom.android.gallery3d
p340
(dp341
g10
F9.8000000000000007
ssg55
(dp342
g10
F3.9000000000000004
ssVcom.android.phone
p343
(dp344
g10
F12.699999999999999
ssVcom.tencent.mm
p345
(dp346
g10
F35.899999999999991
ssVcom.lenovo.safecenter
p347
(dp348
g10
F12.6
ssVtv.danmaku.bili
p349
(dp350
g10
F3
ssVcom.aibang.nextbus
p351
(dp352
g10
F0.90000000000000002
ssVcom.android.notepad
p353
(dp354
g10
I1
ssVcom.dianping.v1
p355
(dp356
g10
F2.7999999999999998
ssVcom.android.fileexplorer
p357
(dp358
g10
F7.0000000000000009
ssVsina.mobile.tianqitong
p359
(dp360
g10
I3
ssVcom.chaozh.iReaderFree
p361
(dp362
g10
F6.2999999999999998
ssVcom.xunlei.downloadprovider
p363
(dp364
g10
F3.1000000000000001
ssVcom.MobileTicket
p365
(dp366
g10
F3.2999999999999998
ssg141
(dp367
g10
F0.69999999999999996
ssVcom.tencent.mobileqq
p368
(dp369
g10
F9.0000000000000018
ssg270
(dp370
g10
F7.3000000000000007
ssg79
(dp371
g10
F1.1000000000000001
ssVcom.android.settings
p372
(dp373
g10
F3
ssVcom.autonavi.minimap
p374
(dp375
g10
I3
sssg31
(dp376
Vcom.tencent.mobileqq
p377
(dp378
g10
F0.69999999999999996
ssVcom.tencent.mm
p379
(dp380
g10
F0.90000000000000002
ssVcom.qidian.QDReader
p381
(dp382
g10
F0.90000000000000002
ssVcom.android.launcher
p383
(dp384
g10
F4.4000000000000004
sssg33
(dp385
Vcom.autonavi.minimap
p386
(dp387
g10
I1
ssVcom.android.launcher
p388
(dp389
g10
F0.90000000000000002
sssg35
(dp390
Vcom.MobileTicket
p391
(dp392
g10
F1.3
ssVcom.android.contacts
p393
(dp394
g10
F4.7000000000000002
ssVcom.android.mms
p395
(dp396
g10
F0.90000000000000002
ssVcom.android.settings
p397
(dp398
g10
F1.3
ssVcom.qidian.QDReader
p399
(dp400
g10
F1.8999999999999999
ssVcom.lenovo.safecenter
p401
(dp402
g10
I1
ssg61
(dp403
g10
F0.90000000000000002
ssVcom.UCMobile
p404
(dp405
g10
I1
ssVcom.baidu.tieba
p406
(dp407
g10
F0.69999999999999996
ssVcom.android.launcher
p408
(dp409
g10
F4.8000000000000007
ssVcom.android.phone
p410
(dp411
g10
F2.7000000000000002
ssVcom.tencent.mm
p412
(dp413
g10
F6.1999999999999993
ssg125
(dp414
g10
I2
ssVcom.tencent.mobileqq
p415
(dp416
g10
I1
sssg37
(dp417
Vcom.xunlei.downloadprovider
p418
(dp419
g10
F3.8999999999999999
ssVcom.android.fileexplorer
p420
(dp421
g10
F13.599999999999998
ssVcom.qidian.QDReader
p422
(dp423
g10
F0.90000000000000002
ssg101
(dp424
g10
F1.3
ssVcom.android.launcher
p425
(dp426
g10
F6.9000000000000012
sssg39
(dp427
Vcom.wandoujia.phoenix2
p428
(dp429
g10
F5.4000000000000004
ssVcom.android.launcher
p430
(dp431
g10
F29.699999999999985
ssVcom.ss.android.article.news
p432
(dp433
g10
F0.90000000000000002
ssVcom.android.mms
p434
(dp435
g10
F41.499999999999993
ssVcom.sdu.didi.psnger
p436
(dp437
g10
F1.3
ssg175
(dp438
g10
F8.8000000000000007
ssVcom.android.notepad
p439
(dp440
g10
F1.8999999999999999
ssVcom.android.bluetooth
p441
(dp442
g10
F0.40000000000000002
ssVcom.sankuai.meituan
p443
(dp444
g10
F0.90000000000000002
ssVcom.android.gallery3d
p445
(dp446
g10
F2.3999999999999999
ssg65
(dp447
g10
I2
ssVcom.android.phone
p448
(dp449
g10
F172.49999999999994
ssVcom.tencent.mobileqq
p450
(dp451
g10
F6.9000000000000004
ssVcom.lenovo.safecenter
p452
(dp453
g10
F8.8000000000000007
ssVcom.MobileTicket
p454
(dp455
g10
F3.6000000000000001
ssVcom.android.calculator
p456
(dp457
g10
I1
ssg87
(dp458
g10
F0.90000000000000002
ssVcom.dianping.v1
p459
(dp460
g10
I2
ssVcom.android.fileexplorer
p461
(dp462
g10
F1.8
ssVsina.mobile.tianqitong
p463
(dp464
g10
F3.2999999999999998
ssg97
(dp465
g10
F0.90000000000000002
ssVcom.chaozh.iReaderFree
p466
(dp467
g10
F4.2000000000000002
ssVcom.xunlei.downloadprovider
p468
(dp469
g10
F2.2999999999999998
ssg109
(dp470
g10
F0.69999999999999996
ssVcom.android.calendar
p471
(dp472
g10
F0.69999999999999996
ssVcom.tencent.mm
p473
(dp474
g10
F81.400000000000034
ssVcom.qidian.QDReader
p475
(dp476
g10
F4.5
ssg23
(dp477
g10
I1
ssVcom.android.settings
p478
(dp479
g10
F5.2999999999999998
ssVcom.autonavi.minimap
p480
(dp481
g10
F6.2000000000000002
sssg41
(dp482
g57
(dp483
g10
I1
ssVcom.android.launcher
p484
(dp485
g10
F3.3999999999999999
ssVcom.dianping.v1
p486
(dp487
g10
F0.90000000000000002
sssg43
(dp488
Vcom.autonavi.minimap
p489
(dp490
g10
F0.90000000000000002
ssVcom.android.mms
p491
(dp492
g10
F0.69999999999999996
ssVcom.android.fileexplorer
p493
(dp494
g10
F3.8999999999999999
ssVcom.android.launcher
p495
(dp496
g10
F9.0999999999999996
ssVcom.android.phone
p497
(dp498
g10
I1
ssVcom.tencent.mobileqq
p499
(dp500
g10
I2
ssVcom.android.contacts
p501
(dp502
g10
F1.3
ssVcom.chaozh.iReaderFree
p503
(dp504
g10
F5.9000000000000004
ssVcom.android.settings
p505
(dp506
g10
F0.69999999999999996
sssg45
(dp507
Vcom.android.fileexplorer
p508
(dp509
g10
F1.3
ssVcom.android.settings
p510
(dp511
g10
F5.0000000000000009
ssVcom.UCMobile
p512
(dp513
g10
I1
ssVcom.android.launcher
p514
(dp515
g10
F5.0999999999999996
ssVcom.tencent.mm
p516
(dp517
g10
F0.69999999999999996
ssVcom.android.contacts
p518
(dp519
g10
F0.40000000000000002
sssg47
(dp520
Vcom.tencent.mm
p521
(dp522
g10
F1.3
ssVcom.android.launcher
p523
(dp524
g10
F3.7000000000000002
sssg49
(dp525
Vcom.xunlei.downloadprovider
p526
(dp527
g10
F6.1000000000000014
ssVcom.estrongs.android.taskmanager
p528
(dp529
g10
F1.7000000000000002
ssVcom.tencent.mobileqq
p530
(dp531
g10
F1.3
ssVcom.qidian.QDReader
p532
(dp533
g10
F0.69999999999999996
ssVcom.android.fileexplorer
p534
(dp535
g10
F8.4000000000000004
ssVcom.android.launcher
p536
(dp537
g10
F2.2999999999999998
ssVcom.android.settings
p538
(dp539
g10
F19.699999999999996
ssVcom.tencent.mm
p540
(dp541
g10
F1.8
sssg51
(dp542
g131
(dp543
g10
F4.5
ssVcom.android.phone
p544
(dp545
g10
F0.90000000000000002
ssVcom.qidian.QDReader
p546
(dp547
g10
F0.90000000000000002
ssVcom.android.mms
p548
(dp549
g10
F1.7
ssg89
(dp550
g10
F6.1000000000000005
ssVcom.UCMobile
p551
(dp552
g10
F4.1999999999999993
ssg33
(dp553
g10
I1
ssVcom.android.launcher
p554
(dp555
g10
F18.5
ssVcom.autonavi.minimap
p556
(dp557
g10
I2
ssVcom.tencent.mm
p558
(dp559
g10
F12.699999999999999
ssVcom.android.contacts
p560
(dp561
g10
F2.6999999999999997
ssVcom.tencent.mobileqq
p562
(dp563
g10
F1.3
sssg53
(dp564
Vcom.xunlei.downloadprovider
p565
(dp566
g10
F1.7
ssVcom.android.notepad
p567
(dp568
g10
I1
ssg461
(dp569
g10
F6.2000000000000011
ssVuniqueName.photoAlbumManager
p570
(dp571
g10
F1.3999999999999999
ssVcom.autonavi.minimap
p572
(dp573
g10
F4.9000000000000004
ssg51
(dp574
g10
F0.90000000000000002
ssVcom.qidian.QDReader
p575
(dp576
g10
F0.90000000000000002
ssVcom.baidu.stu
p577
(dp578
g10
I1
ssVcom.android.deskclock
p579
(dp580
g10
F0.90000000000000002
ssVcom.UCMobile
p581
(dp582
g10
F13
ssVsina.mobile.tianqitong
p583
(dp584
g10
I1
ssVcom.android.launcher
p585
(dp586
g10
F15.800000000000002
ssVcom.android.settings
p587
(dp588
g10
F2.3999999999999999
ssVcom.ontim.softap
p589
(dp590
g10
F0.90000000000000002
ssVcom.tencent.mm
p591
(dp592
g10
F7.7999999999999998
ssVcom.lenovo.safecenter
p593
(dp594
g10
F1.3
ssVcom.chaozh.iReaderFree
p595
(dp596
g10
I1
ssVcom.tencent.mobileqq
p597
(dp598
g10
F2.7000000000000002
sssg55
(dp599
g79
(dp600
g10
F12.199999999999999
ssVcom.android.fileexplorer
p601
(dp602
g10
I1
ssVcom.autonavi.minimap
p603
(dp604
g10
I1
ssVcom.android.mms
p605
(dp606
g10
F1.7
ssg57
(dp607
g10
F1.3
ssVcom.UCMobile
p608
(dp609
g10
F1.7
ssVcom.qidian.QDReader
p610
(dp611
g10
F0.90000000000000002
ssVcom.android.launcher
p612
(dp613
g10
F11
ssVcom.tencent.mm
p614
(dp615
g10
F5.2999999999999998
ssVcom.lenovo.safecenter
p616
(dp617
g10
F2.6000000000000001
ssVcom.eg.android.AlipayGphone
p618
(dp619
g10
F2.3999999999999999
sssg57
(dp620
Vcom.android.launcher
p621
(dp622
g10
F0.90000000000000002
ssVcom.eg.android.AlipayGphone
p623
(dp624
g10
I1
sssg59
(dp625
Vcom.android.gallery3d
p626
(dp627
g10
I1
ssVcom.wandoujia.phoenix2
p628
(dp629
g10
I1
sssg61
(dp630
g69
(dp631
g10
F0.90000000000000002
ssVcom.tencent.mm
p632
(dp633
g10
F3.1999999999999997
ssg408
(dp634
g10
F5.7000000000000002
sssg63
(dp635
Vcom.android.mms
p636
(dp637
g10
F0.69999999999999996
ssVcom.tencent.mm
p638
(dp639
g10
I1
ssVcom.android.contacts
p640
(dp641
g10
F2.2999999999999998
ssVcom.lenovo.safecenter
p642
(dp643
g10
I1
ssVcom.android.phone
p644
(dp645
g10
F1.8999999999999999
sssg65
(dp646
Vcom.android.contacts
p647
(dp648
g10
I2
sssg67
(dp649
g327
(dp650
g10
F50.199999999999989
ssVcom.qidian.QDReader
p651
(dp652
g10
F3.8999999999999999
ssVcom.sdu.didi.psnger
p653
(dp654
g10
F1.8999999999999999
ssg27
(dp655
g10
I1
ssVcom.UCMobile
p656
(dp657
g10
F14.800000000000001
ssVcom.sohu.inputmethod.sogou
p658
(dp659
g10
I1
ssVcom.android.notepad
p660
(dp661
g10
I2
ssVcom.android.contacts
p662
(dp663
g10
F9.7000000000000011
ssVcn.kuwo.player
p664
(dp665
g10
F0.40000000000000002
ssg51
(dp666
g10
F14.399999999999999
ssVcom.android.gallery3d
p667
(dp668
g10
F8.6999999999999993
ssg242
(dp669
g10
F3
ssg85
(dp670
g10
F13.4
ssVcom.tencent.mm
p671
(dp672
g10
F51.699999999999989
ssg73
(dp673
g10
F6.7000000000000002
ssg89
(dp674
g10
F6.1000000000000005
ssVcom.android.fileexplorer
p675
(dp676
g10
F0.69999999999999996
ssVsina.mobile.tianqitong
p677
(dp678
g10
F3.7999999999999998
ssVcom.chaozh.iReaderFree
p679
(dp680
g10
F0.90000000000000002
ssg368
(dp681
g10
F0.40000000000000002
ssVcom.MobileTicket
p682
(dp683
g10
F0.40000000000000002
ssg131
(dp684
g10
F6.1000000000000005
ssVcom.android.mms
p685
(dp686
g10
F6
ssg274
(dp687
g10
F0.40000000000000002
sssg69
(dp688
Vcom.tencent.mm
p689
(dp690
g10
F2.8999999999999999
ssVcom.android.launcher
p691
(dp692
g10
F1.8999999999999999
sssg71
(dp693
Vcom.wandoujia.phoenix2
p694
(dp695
g10
F0.90000000000000002
ssg17
(dp696
g10
F1.3999999999999999
ssVcom.autonavi.minimap
p697
(dp698
g10
F1.8999999999999999
ssVcom.android.deskclock
p699
(dp700
g10
F1.8999999999999999
ssVcom.UCMobile
p701
(dp702
g10
F7.5
ssg129
(dp703
g10
F43.699999999999996
ssg39
(dp704
g10
F3.5
ssg333
(dp705
g10
F0.90000000000000002
ssg235
(dp706
g10
F2.0999999999999996
ssg47
(dp707
g10
F1.7
ssg111
(dp708
g10
F0.40000000000000002
ssVcom.android.gallery3d
p709
(dp710
g10
F2.2999999999999998
ssVcom.android.mms
p711
(dp712
g10
F1.8999999999999999
ssVcom.android.phone
p713
(dp714
g10
I2
ssg119
(dp715
g10
F58.399999999999999
ssVcom.lenovo.safecenter
p716
(dp717
g10
F1.6000000000000001
ssg486
(dp718
g10
F0.40000000000000002
ssg91
(dp719
g10
F11.5
ssg95
(dp720
g10
I1
ssg103
(dp721
g10
F14
ssg105
(dp722
g10
F1.7
ssVcom.android.calendar
p723
(dp724
g10
I1
ssVcom.android.settings
p725
(dp726
g10
F3.5999999999999996
ssVcom.qidian.QDReader
p727
(dp728
g10
F19.799999999999997
ssVcom.android.bluetooth
p729
(dp730
g10
F1.3
sssg73
(dp731
Vcom.wandoujia.phoenix2
p732
(dp733
g10
F68.30000000000004
ssg294
(dp734
g10
F25.799999999999986
ssVcom.android.mms
p735
(dp736
g10
F7.5000000000000009
ssg25
(dp737
g10
F2.7000000000000002
ssVcom.android.deskclock
p738
(dp739
g10
F1.7
ssVcom.UCMobile
p740
(dp741
g10
F2.7999999999999998
ssVcom.android.notepad
p742
(dp743
g10
I2
ssVcom.android.contacts
p744
(dp745
g10
F12.399999999999999
ssg111
(dp746
g10
F2.6000000000000001
ssVcom.sankuai.meituan
p747
(dp748
g10
F1.3999999999999999
ssVcom.android.gallery3d
p749
(dp750
g10
F2.6000000000000001
ssVcom.jingdong.app.mall
p751
(dp752
g10
F1.7
ssVcom.android.safe
p753
(dp754
g10
F0.90000000000000002
ssVcom.android.phone
p755
(dp756
g10
F2.7000000000000002
ssVcom.tencent.mm
p757
(dp758
g10
F29.499999999999989
ssg77
(dp759
g10
I1
ssg81
(dp760
g10
F2.8999999999999999
ssVcom.android.fileexplorer
p761
(dp762
g10
F1.7
ssg93
(dp763
g10
F1.3
ssg59
(dp764
g10
F1.7
ssVcom.xunlei.downloadprovider
p765
(dp766
g10
F6.8000000000000007
ssg109
(dp767
g10
F0.90000000000000002
ssg177
(dp768
g10
F0.69999999999999996
ssVcom.android.settings
p769
(dp770
g10
F3.5
ssVcom.qidian.QDReader
p771
(dp772
g10
F8
ssVcom.jd.mobiledd.sdk
p773
(dp774
g10
F1.3
ssVcom.autonavi.minimap
p775
(dp776
g10
F7.1000000000000005
sssg75
(dp777
Vcom.UCMobile
p778
(dp779
g10
F1.7000000000000002
ssVcom.sankuai.meituan
p780
(dp781
g10
F0.40000000000000002
ssVcom.tencent.mm
p782
(dp783
g10
F0.90000000000000002
ssVcom.android.launcher
p784
(dp785
g10
F4.4000000000000004
ssVcom.autonavi.minimap
p786
(dp787
g10
F0.69999999999999996
sssg77
(dp788
g296
(dp789
g10
F0.69999999999999996
ssg292
(dp790
g10
F0.90000000000000002
ssVcom.sdu.didi.psnger
p791
(dp792
g10
F1.3999999999999999
sssg79
(dp793
Vcom.jingdong.app.mall
p794
(dp795
g10
F10.1
ssg57
(dp796
g10
F0.69999999999999996
ssVcom.android.launcher
p797
(dp798
g10
F3.2999999999999998
ssg614
(dp799
g10
F2.2000000000000002
ssVcom.lenovo.safecenter
p800
(dp801
g10
F0.90000000000000002
ssg618
(dp802
g10
F1.3
sssg81
(dp803
Vcom.android.browser
p804
(dp805
g10
F0.90000000000000002
ssVcom.wandoujia.phoenix2
p806
(dp807
g10
I1
ssVcom.android.fileexplorer
p808
(dp809
g10
F0.40000000000000002
ssVcom.android.mms
p810
(dp811
g10
F12.099999999999998
ssVcom.android.phone
p812
(dp813
g10
F0.90000000000000002
ssVcom.qidian.QDReader
p814
(dp815
g10
F3.6999999999999993
ssVcom.android.contacts
p816
(dp817
g10
F0.40000000000000002
ssVcom.UCMobile
p818
(dp819
g10
F3.5999999999999996
ssVcom.douban.movie
p820
(dp821
g10
F0.90000000000000002
ssg406
(dp822
g10
I1
ssVcom.android.launcher
p823
(dp824
g10
F44.799999999999997
ssVsina.mobile.tianqitong
p825
(dp826
g10
F4.4000000000000004
ssVcom.tencent.mm
p827
(dp828
g10
F25.899999999999988
ssg347
(dp829
g10
F1.6000000000000001
ssVcom.android.settings
p830
(dp831
g10
F0.90000000000000002
sssg83
(dp832
Vcom.UCMobile
p833
(dp834
g10
F1.3
ssVcom.android.gallery3d
p835
(dp836
g10
I1
ssVcom.android.fileexplorer
p837
(dp838
g10
I1
ssVcom.android.launcher
p839
(dp840
g10
F1.3999999999999999
ssVcom.android.phone
p841
(dp842
g10
F0.90000000000000002
ssVcom.tencent.mobileqq
p843
(dp844
g10
F0.90000000000000002
ssVcom.android.contacts
p845
(dp846
g10
F1.7
sssg85
(dp847
Vcom.xunlei.downloadprovider
p848
(dp849
g10
I1
ssVcom.MobileTicket
p850
(dp851
g10
F1.3
ssg65
(dp852
g10
F1.3999999999999999
ssg443
(dp853
g10
I1
ssg250
(dp854
g10
I1
ssg725
(dp855
g10
F1.8
ssg463
(dp856
g10
F1.7
ssg735
(dp857
g10
F17.100000000000001
ssg744
(dp858
g10
F96.400000000000091
ssg740
(dp859
g10
F6.4000000000000004
ssg546
(dp860
g10
F0.69999999999999996
ssVcom.android.launcher
p861
(dp862
g10
F4.2999999999999998
ssVcom.autonavi.minimap
p863
(dp864
g10
I1
ssVcom.android.gallery3d
p865
(dp866
g10
F0.69999999999999996
ssg436
(dp867
g10
F3.4000000000000004
ssg757
(dp868
g10
F19
ssVcom.lenovo.safecenter
p869
(dp870
g10
F18.899999999999999
ssVcom.chaozh.iReaderFree
p871
(dp872
g10
I1
ssVcom.tencent.mobileqq
p873
(dp874
g10
I1
sssg87
(dp875
Vcom.tencent.mm
p876
(dp877
g10
F0.40000000000000002
ssVcom.tencent.mobileqq
p878
(dp879
g10
F0.90000000000000002
ssVcom.android.launcher
p880
(dp881
g10
F2.7000000000000002
sssg89
(dp882
Vcom.android.settings
p883
(dp884
g10
I1
ssVcom.tencent.mm
p885
(dp886
g10
F3.1999999999999997
ssVcom.sankuai.meituan
p887
(dp888
g10
F7
ssg325
(dp889
g10
F1.3
ssVcom.UCMobile
p890
(dp891
g10
F0.80000000000000004
ssVcom.android.launcher
p892
(dp893
g10
F10.399999999999999
ssVcom.autonavi.minimap
p894
(dp895
g10
F3.8999999999999999
ssg544
(dp896
g10
F2.2999999999999998
ssg560
(dp897
g10
F2.5999999999999996
sssg91
(dp898
g8
(dp899
g10
F0.40000000000000002
ssVcom.autonavi.minimap
p900
(dp901
g10
F1.6000000000000001
ssg833
(dp902
g10
F2.3999999999999999
ssg129
(dp903
g10
F47.699999999999989
ssVcom.storm.smart
p904
(dp905
g10
F7.1000000000000005
ssVcom.android.contacts
p906
(dp907
g10
F1.3
ssVcn.kuwo.player
p908
(dp909
g10
F7.4000000000000004
ssVcom.estrongs.android.taskmanager
p910
(dp911
g10
F0.90000000000000002
ssg238
(dp912
g10
I2
ssVcom.android.gallery3d
p913
(dp914
g10
F5.5999999999999996
ssVcom.jingdong.app.mall
p915
(dp916
g10
F0.90000000000000002
ssVcom.android.phone
p917
(dp918
g10
F0.69999999999999996
ssVcom.tencent.mobileqq
p919
(dp920
g10
F5
ssg83
(dp921
g10
F2.0999999999999996
ssg119
(dp922
g10
F7.3999999999999995
ssg101
(dp923
g10
F1.7
ssg103
(dp924
g10
F11.700000000000001
ssg107
(dp925
g10
F24.799999999999986
ssVcom.MobileTicket
p926
(dp927
g10
F0.90000000000000002
ssg538
(dp928
g10
F4.2999999999999998
ssg121
(dp929
g10
I1
ssVcom.qidian.QDReader
p930
(dp931
g10
F7
ssg272
(dp932
g10
F0.69999999999999996
ssVcom.android.bluetooth
p933
(dp934
g10
F6.1000000000000005
sssg93
(dp935
Vcom.xunlei.downloadprovider
p936
(dp937
g10
F0.40000000000000002
ssg11
(dp938
g10
F0.90000000000000002
ssVcom.wandoujia.phoenix2
p939
(dp940
g10
F1.7
ssg154
(dp941
g10
F0.40000000000000002
ssg158
(dp942
g10
F0.69999999999999996
ssVcom.lenovo.safecenter
p943
(dp944
g10
F0.90000000000000002
ssVcom.chaozh.iReaderFree
p945
(dp946
g10
I1
sssg95
(dp947
g565
(dp948
g10
F1.3
ssVcom.MobileTicket
p949
(dp950
g10
I2
ssg63
(dp951
g10
I1
ssVcom.android.gallery3d
p952
(dp953
g10
F1.8999999999999999
ssVcom.qidian.QDReader
p954
(dp955
g10
I1
ssVcom.android.mms
p956
(dp957
g10
F1.8999999999999999
ssVcom.android.contacts
p958
(dp959
g10
F0.90000000000000002
ssVcom.UCMobile
p960
(dp961
g10
I3
ssVtv.danmaku.bili
p962
(dp963
g10
F0.90000000000000002
ssVcom.android.launcher
p964
(dp965
g10
F12.199999999999999
ssVcom.android.phone
p966
(dp967
g10
F2.3999999999999999
ssVcom.tencent.mm
p968
(dp969
g10
F7.4000000000000004
ssg642
(dp970
g10
F1.3
ssVcom.chaozh.iReaderFree
p971
(dp972
g10
F4.2999999999999998
sssg97
(dp973
Vcom.android.settings
p974
(dp975
g10
F1.7
ssVcom.tencent.mm
p976
(dp977
g10
F0.40000000000000002
ssg441
(dp978
g10
F0.90000000000000002
sssg99
(dp979
Vcom.android.settings
p980
(dp981
g10
I2
sssg101
(dp982
Vcom.xunlei.downloadprovider
p983
(dp984
g10
F1.8
ssVcom.android.fileexplorer
p985
(dp986
g10
F1.3999999999999999
ssVcom.android.launcher
p987
(dp988
g10
F1.7
sssg103
(dp989
g11
(dp990
g10
F1.7
ssVcom.wandoujia.phoenix2
p991
(dp992
g10
F0.90000000000000002
ssg17
(dp993
g10
F2.3999999999999999
ssVcom.android.mms
p994
(dp995
g10
F15.1
ssg25
(dp996
g10
F0.40000000000000002
ssg227
(dp997
g10
F11.9
ssVcom.android.notepad
p998
(dp999
g10
I4
ssVcom.android.contacts
p1000
(dp1001
g10
F10.100000000000001
ssVcn.kuwo.player
p1002
(dp1003
g10
F8.6000000000000014
ssVcn.wps.moffice_eng
p1004
(dp1005
g10
F1.7
ssVcom.sankuai.meituan
p1006
(dp1007
g10
F0.90000000000000002
ssVcom.android.gallery3d
p1008
(dp1009
g10
F0.90000000000000002
ssVcom.jingdong.app.mall
p1010
(dp1011
g10
I2
ssg61
(dp1012
g10
F0.69999999999999996
ssg753
(dp1013
g10
F0.40000000000000002
ssVcom.android.phone
p1014
(dp1015
g10
F12.300000000000001
ssVcom.tencent.mobileqq
p1016
(dp1017
g10
F17.299999999999997
ssg125
(dp1018
g10
F1.8
ssVcom.android.fileexplorer
p1019
(dp1020
g10
F12.600000000000001
ssVcom.pp.assistant
p1021
(dp1022
g10
F1.7
ssVsina.mobile.tianqitong
p1023
(dp1024
g10
I6
ssVme.abitno.vplayer.t
p1025
(dp1026
g10
I1
ssVcom.xunlei.downloadprovider
p1027
(dp1028
g10
F25.299999999999983
ssg471
(dp1029
g10
I1
ssVcom.tencent.mm
p1030
(dp1031
g10
F71.599999999999994
ssg930
(dp1032
g10
F9.5000000000000018
ssg869
(dp1033
g10
F7.3000000000000007
ssg272
(dp1034
g10
F0.40000000000000002
ssg129
(dp1035
g10
F78.700000000000045
ssVcom.android.settings
p1036
(dp1037
g10
F3.6000000000000001
ssVcom.autonavi.minimap
p1038
(dp1039
g10
F4.9000000000000004
sssg105
(dp1040
Vcom.tencent.mm
p1041
(dp1042
g10
F0.69999999999999996
ssVcom.chaozh.iReaderFree
p1043
(dp1044
g10
F0.90000000000000002
ssVcom.android.launcher
p1045
(dp1046
g10
I1
sssg107
(dp1047
g8
(dp1048
g10
F0.90000000000000002
ssg910
(dp1049
g10
F0.69999999999999996
ssg15
(dp1050
g10
F6.9000000000000012
ssVcom.android.fileexplorer
p1051
(dp1052
g10
F27.999999999999989
ssg141
(dp1053
g10
I1
ssg933
(dp1054
g10
F6
ssVcom.qidian.QDReader
p1055
(dp1056
g10
F4.6999999999999993
ssVcom.android.contacts
p1057
(dp1058
g10
F1.3
ssVcom.UCMobile
p1059
(dp1060
g10
F1.6000000000000001
ssg83
(dp1061
g10
F0.69999999999999996
ssVcom.android.launcher
p1062
(dp1063
g10
F73.600000000000009
ssVcom.android.settings
p1064
(dp1065
g10
F3.8999999999999999
ssg904
(dp1066
g10
F2.5
ssVcom.tencent.mm
p1067
(dp1068
g10
F6.6000000000000005
ssVcom.lenovo.safecenter
p1069
(dp1070
g10
F9.4000000000000004
ssVcom.chaozh.iReaderFree
p1071
(dp1072
g10
F10.100000000000001
sssg109
(dp1073
sg111
(dp1074
Vcom.xunlei.downloadprovider
p1075
(dp1076
g10
F1.7000000000000002
ssVcom.android.fileexplorer
p1077
(dp1078
g10
F1.7
ssVcom.chaozh.iReaderFree
p1079
(dp1080
g10
F0.69999999999999996
ssVcom.android.launcher
p1081
(dp1082
g10
F3.6000000000000001
ssVcom.android.settings
p1083
(dp1084
g10
F0.40000000000000002
sssg113
(dp1085
g605
(dp1086
g10
F0.40000000000000002
ssVcom.tencent.mm
p1087
(dp1088
g10
F0.90000000000000002
ssVcom.jingdong.app.mall
p1089
(dp1090
g10
F1.7
sssg115
(dp1091
Vcom.baidu.tieba
p1092
(dp1093
g10
I1
ssVcom.tencent.mm
p1094
(dp1095
g10
F0.90000000000000002
ssVcom.android.launcher
p1096
(dp1097
g10
F2.8999999999999999
sssg117
(dp1098
Vcom.android.browser
p1099
(dp1100
g10
F1.7
ssg105
(dp1101
g10
F0.90000000000000002
ssVcom.MobileTicket
p1102
(dp1103
g10
I1
ssVcom.tencent.mobileqq
p1104
(dp1105
g10
I1
ssVcom.sankuai.meituan
p1106
(dp1107
g10
F1.7
ssVcom.android.mms
p1108
(dp1109
g10
I1
ssVcom.dianping.v1
p1110
(dp1111
g10
F0.90000000000000002
ssg33
(dp1112
g10
F0.90000000000000002
ssg1045
(dp1113
g10
F5.4000000000000012
ssVcom.tencent.mm
p1114
(dp1115
g10
I2
ssVcom.android.contacts
p1116
(dp1117
g10
F0.90000000000000002
ssVcom.chaozh.iReaderFree
p1118
(dp1119
g10
F1.3999999999999999
sssg119
(dp1120
Vcom.android.browser
p1121
(dp1122
g10
I1
ssg15
(dp1123
g10
F9.7000000000000011
ssVcom.android.notepad
p1124
(dp1125
g10
F6.7000000000000002
ssVcom.android.mms
p1126
(dp1127
g10
F64.699999999999989
ssg25
(dp1128
g10
F11.399999999999999
ssg699
(dp1129
g10
F3.2999999999999998
ssg656
(dp1130
g10
F58.59999999999998
ssg229
(dp1131
g10
F3.2999999999999998
ssVcom.android.launcher
p1132
(dp1133
g10
F206.3000000000003
ssVcom.storm.smart
p1134
(dp1135
g10
F0.40000000000000002
ssg39
(dp1136
g10
F116.60000000000011
ssg41
(dp1137
g10
I1
ssVcom.youdao.dict
p1138
(dp1139
g10
F6.9000000000000004
ssg235
(dp1140
g10
F3.7000000000000002
ssVcom.android.bluetooth
p1141
(dp1142
g10
F1.6000000000000001
ssVcom.sankuai.meituan
p1143
(dp1144
g10
F23.599999999999994
ssg667
(dp1145
g10
F24.199999999999996
ssVcom.jingdong.app.mall
p1146
(dp1147
g10
F7.5000000000000009
ssVmindware.mindgamespro
p1148
(dp1149
g10
F1.8999999999999999
ssg65
(dp1150
g10
F1.3
ssg343
(dp1151
g10
F72.299999999999997
ssg69
(dp1152
g10
F0.40000000000000002
ssVcom.tencent.mobileqq
p1153
(dp1154
g10
F56.200000000000003
ssg73
(dp1155
g10
F38.79999999999999
ssVcom.MobileTicket
p1156
(dp1157
g10
F41
ssg87
(dp1158
g10
I1
ssg89
(dp1159
g10
F10.100000000000001
ssVcom.android.fileexplorer
p1160
(dp1161
g10
F10.700000000000001
ssg677
(dp1162
g10
F14.300000000000002
ssg99
(dp1163
g10
F2.1000000000000001
ssg59
(dp1164
g10
F2.3999999999999999
ssg103
(dp1165
g10
F25.899999999999995
ssVcom.xunlei.downloadprovider
p1166
(dp1167
g10
F14.700000000000001
ssg109
(dp1168
g10
I1
ssg471
(dp1169
g10
F4.2000000000000002
ssg1064
(dp1170
g10
F34.199999999999996
ssg727
(dp1171
g10
F95.500000000000028
ssVcom.baidu.tieba
p1172
(dp1173
g10
F1.8
ssVcom.jd.mobiledd.sdk
p1174
(dp1175
g10
F3.1000000000000001
ssVcom.autonavi.minimap
p1176
(dp1177
g10
F68.199999999999989
sssg121
(dp1178
Vcom.tencent.mm
p1179
(dp1180
g10
F0.90000000000000002
ssVcom.android.launcher
p1181
(dp1182
g10
I1
sssg123
(dp1183
g286
(dp1184
g10
F3
ssg430
(dp1185
g10
F17.399999999999999
ssVcom.autonavi.minimap
p1186
(dp1187
g10
F4.7000000000000002
ssVcom.sdu.didi.psnger
p1188
(dp1189
g10
I1
ssVcom.UCMobile
p1190
(dp1191
g10
F5.6000000000000005
ssg353
(dp1192
g10
F1.7
ssVcom.android.contacts
p1193
(dp1194
g10
F35.999999999999993
ssVcn.kuwo.player
p1195
(dp1196
g10
F0.90000000000000002
ssVcom.sankuai.meituan
p1197
(dp1198
g10
F1.8999999999999999
ssVcom.android.gallery3d
p1199
(dp1200
g10
F1.3
ssVcom.jingdong.app.mall
p1201
(dp1202
g10
F1.7
ssVcom.android.phone
p1203
(dp1204
g10
F17.5
ssVcom.tencent.mobileqq
p1205
(dp1206
g10
F2.5
ssVcom.lenovo.safecenter
p1207
(dp1208
g10
F4.7000000000000002
ssVcom.android.fileexplorer
p1209
(dp1210
g10
F1.3999999999999999
ssg463
(dp1211
g10
I4
ssVcom.chaozh.iReaderFree
p1212
(dp1213
g10
F8.6999999999999993
ssVcom.MobileTicket
p1214
(dp1215
g10
F6.7000000000000002
ssVcom.tencent.mm
p1216
(dp1217
g10
F57.899999999999991
ssg475
(dp1218
g10
F8.1000000000000014
ssVcom.jd.mobiledd.sdk
p1219
(dp1220
g10
F0.90000000000000002
ssg478
(dp1221
g10
I5
sssg125
(dp1222
g61
(dp1223
g10
I1
ssVcom.UCMobile
p1224
(dp1225
g10
I1
ssg632
(dp1226
g10
F1.6000000000000001
ssVcom.qidian.QDReader
p1227
(dp1228
g10
F0.69999999999999996
ssg408
(dp1229
g10
F1.8999999999999999
sssg127
(dp1230
g1102
(dp1231
g10
F0.40000000000000002
ssVcom.android.fileexplorer
p1232
(dp1233
g10
F0.69999999999999996
ssVcom.android.calendar
p1234
(dp1235
g10
F0.69999999999999996
ssVcom.android.settings
p1236
(dp1237
g10
I1
ssVcom.UCMobile
p1238
(dp1239
g10
I1
ssVcom.android.launcher
p1240
(dp1241
g10
F5.5
ssVcom.tencent.mm
p1242
(dp1243
g10
F1.8999999999999999
ssVcom.chaozh.iReaderFree
p1244
(dp1245
g10
F0.40000000000000002
sssg129
(dp1246
g8
(dp1247
g10
F1.7
ssg11
(dp1248
g10
F1.8
ssg15
(dp1249
g10
F22.399999999999995
ssg17
(dp1250
g10
F3.6999999999999997
ssVcom.ss.android.article.news
p1251
(dp1252
g10
I2
ssVcom.android.mms
p1253
(dp1254
g10
F9.4000000000000021
ssVcom.sdu.didi.psnger
p1255
(dp1256
g10
F4.4000000000000004
ssg701
(dp1257
g10
F35.499999999999986
ssg31
(dp1258
g10
F3.7000000000000002
ssVcom.android.notepad
p1259
(dp1260
g10
F0.90000000000000002
ssg904
(dp1261
g10
F3.9999999999999996
ssg744
(dp1262
g10
F21.999999999999996
ssg333
(dp1263
g10
F2.1000000000000001
ssg235
(dp1264
g10
F5
ssg45
(dp1265
g10
F1.8999999999999999
ssVcn.wps.moffice_eng
p1266
(dp1267
g10
F3.2999999999999998
ssg111
(dp1268
g10
F2.6000000000000001
ssVcom.sankuai.meituan
p1269
(dp1270
g10
F5.8999999999999995
ssVcom.android.gallery3d
p1271
(dp1272
g10
F13.199999999999999
ssg55
(dp1273
g10
F8.0999999999999996
ssVmindware.mindgamespro
p1274
(dp1275
g10
I1
ssg713
(dp1276
g10
F20.999999999999996
ssg69
(dp1277
g10
F1.7
ssg1016
(dp1278
g10
F27.199999999999989
ssg716
(dp1279
g10
F19.399999999999999
ssg75
(dp1280
g10
F4.7000000000000002
ssg351
(dp1281
g10
I2
ssg83
(dp1282
g10
F1.8
ssg1030
(dp1283
g10
F162.20000000000005
ssVcom.vnes.supermr
p1284
(dp1285
g10
I1
ssg486
(dp1286
g10
F4.7000000000000002
ssg357
(dp1287
g10
F42.799999999999983
ssg1021
(dp1288
g10
F1.3
ssVsina.mobile.tianqitong
p1289
(dp1290
g10
F7.3000000000000007
ssg99
(dp1291
g10
F2.2999999999999998
ssVcom.baidu.stu
p1292
(dp1293
g10
F1.7
ssVcom.chaozh.iReaderFree
p1294
(dp1295
g10
F39.599999999999994
ssg107
(dp1296
g10
F90.900000000000034
ssg81
(dp1297
g10
F28.999999999999989
ssVcom.zhihu.daily.android
p1298
(dp1299
g10
I1
ssg141
(dp1300
g10
F5.2000000000000002
ssg538
(dp1301
g10
F18.300000000000001
ssg323
(dp1302
g10
F47.09999999999998
ssVcom.youdao.note
p1303
(dp1304
g10
I1
ssg272
(dp1305
g10
F1.8999999999999999
ssg79
(dp1306
g10
F3.5
ssg163
(dp1307
g10
F1.3
ssVcom.autonavi.minimap
p1308
(dp1309
g10
F30.599999999999994
sssg131
(dp1310
Vcom.wandoujia.phoenix2
p1311
(dp1312
g10
F0.90000000000000002
ssg536
(dp1313
g10
F22.099999999999998
ssVcom.qidian.QDReader
p1314
(dp1315
g10
F5.1000000000000005
ssVcom.android.deskclock
p1316
(dp1317
g10
F2.7000000000000002
ssVcom.UCMobile
p1318
(dp1319
g10
F3.6000000000000001
ssVcom.douban.movie
p1320
(dp1321
g10
I1
ssVcom.android.notepad
p1322
(dp1323
g10
I1
ssVcom.android.contacts
p1324
(dp1325
g10
F6.2999999999999998
ssg664
(dp1326
g10
F0.69999999999999996
ssVcom.estrongs.android.taskmanager
p1327
(dp1328
g10
F6.1000000000000005
ssg49
(dp1329
g10
F22.599999999999998
ssVcom.sankuai.meituan
p1330
(dp1331
g10
F2.2999999999999998
ssg445
(dp1332
g10
F2.7000000000000002
ssVcom.autonavi.minimap
p1333
(dp1334
g10
F2.3999999999999999
ssVcom.tencent.mm
p1335
(dp1336
g10
F25.399999999999999
ssVcom.lenovo.safecenter
p1337
(dp1338
g10
F2.6000000000000001
ssVcom.android.phone
p1339
(dp1340
g10
F3.1000000000000001
ssg99
(dp1341
g10
F2.5999999999999996
ssg534
(dp1342
g10
F11.200000000000001
ssg311
(dp1343
g10
F0.69999999999999996
ssg97
(dp1344
g10
I1
ssg679
(dp1345
g10
I1
ssg107
(dp1346
g10
F4.2999999999999998
ssg115
(dp1347
g10
I1
ssg562
(dp1348
g10
F5.5
ssg182
(dp1349
g10
F1.3999999999999999
ssg1172
(dp1350
g10
F0.69999999999999996
ssssS'edge'
p1351
g137
sS'graph'
p1352
(dp1353
sS'adjlist_dict_factory'
p1354
g134
sS'adj'
p1355
g137
sS'pred'
p1356
(dp1357
g8
(dp1358
Vcom.xunlei.downloadprovider
p1359
g1048
sVcom.android.fileexplorer
p1360
g899
sVcom.youdao.dict
p1361
g197
sVcom.android.launcher
p1362
g1247
ssg11
(dp1363
g1102
g805
sVcom.android.calendar
p1364
g1100
sVcom.UCMobile
p1365
g319
sg1021
g938
sVcom.android.launcher
p1366
g1248
sVcom.tencent.mm
p1367
g1122
sVcom.chaozh.iReaderFree
p1368
g990
ssg13
(dp1369
sg15
(dp1370
g1166
g1050
sg81
g807
sVcom.qidian.QDReader
p1371
g222
sVcom.android.contacts
p1372
g429
sVcom.tencent.mobileqq
p1373
g695
sg290
g1184
sg1255
g287
sg175
g321
sg93
g940
sVcom.android.launcher
p1374
g1249
sg769
g1312
sg59
g629
sVcom.tencent.mm
p1375
g1123
sg302
g733
sVcom.chaozh.iReaderFree
p1376
g992
ssg17
(dp1377
Vcom.tencent.mobileqq
p1378
g696
sVcom.qidian.QDReader
p1379
g224
sVcom.UCMobile
p1380
g322
sVcom.android.launcher
p1381
g1250
sg210
g1139
sVcom.chaozh.iReaderFree
p1382
g993
ssg19
(dp1383
Vcom.android.contacts
p1384
g433
sVcom.android.launcher
p1385
g1252
ssg21
(dp1386
g221
g181
sg35
g400
sVcom.autonavi.minimap
p1387
g652
sVcom.android.deskclock
p1388
g308
sg656
g324
sg31
g382
sg327
g1302
sVcom.storm.smart
p1389
g423
sg1193
g476
sVcom.android.bluetooth
p1390
g533
sg443
g547
sVcom.android.gallery3d
p1391
g576
sVcom.jingdong.app.mall
p1392
g611
sg544
g860
sg246
g1171
sVcom.lenovo.safecenter
p1393
g772
sg1232
g931
sg256
g955
sg1244
g1032
sg418
g1056
sVcom.MobileTicket
p1394
g815
sg268
g728
sVcom.android.mms
p1395
g1218
sg1303
g1228
sVcom.android.settings
p1396
g1315
ssg23
(dp1397
Vcom.android.contacts
p1398
g477
ssg25
(dp1399
g991
g184
sVcom.autonavi.minimap
p1400
g654
sVcom.android.mms
p1401
g1189
sVcom.dianping.v1
p1402
g889
sVcom.UCMobile
p1403
g326
sg294
g1256
sg296
g867
sg298
g792
sg292
g437
sVcom.tencent.mm
p1404
g1128
sg193
g737
sg1376
g996
ssg27
(dp1405
g67
g655
sVcom.android.gallery3d
p1406
g580
sg315
g1317
sVcom.tencent.mm
p1407
g1129
sVcom.lenovo.safecenter
p1408
g739
sVcom.tencent.mobileqq
p1409
g700
ssg29
(dp1410
g8
g144
sg13
g162
sVcom.wandoujia.phoenix2
p1411
g176
sVcom.youdao.dict
p1412
g205
sVcom.autonavi.minimap
p1413
g657
sVcom.jingdong.app.mall
p1414
g609
sVcom.android.launcher
p1415
g1257
sVcom.android.contacts
p1416
g438
sg45
g513
sg1269
g552
sg340
g582
sVcom.android.mms
p1417
g1191
sg1203
g859
sVcom.tencent.mm
p1418
g1130
sg1207
g741
sg349
g779
sVcom.android.notepad
p1419
g405
sg83
g834
sVcom.dianping.v1
p1420
g891
sVcom.android.fileexplorer
p1421
g902
sVsina.mobile.tianqitong
p1422
g961
sg259
g997
sVcom.tencent.mobileqq
p1423
g702
sVcom.xunlei.downloadprovider
p1424
g1060
sVcom.MobileTicket
p1425
g819
sVcom.android.settings
p1426
g1319
sVcom.qidian.QDReader
p1427
g228
sVcom.youdao.note
p1428
g1225
sg127
g1239
ssg31
(dp1429
Vcom.qidian.QDReader
p1430
g230
sVcom.MobileTicket
p1431
g821
sVcom.tencent.mm
p1432
g1131
sVcom.android.launcher
p1433
g1258
sVcom.android.settings
p1434
g1321
ssg33
(dp1435
Vcom.android.calendar
p1436
g1112
sVcom.autonavi.minimap
p1437
g659
sVcom.sankuai.meituan
p1438
g553
ssg35
(dp1439
Vcom.android.gallery3d
p1440
g568
sVcom.autonavi.minimap
p1441
g661
sVcom.android.mms
p1442
g1192
sVcom.android.contacts
p1443
g440
sVcom.UCMobile
p1444
g354
sVcom.qidian.QDReader
p1445
g253
sVcom.android.launcher
p1446
g1260
sVcom.android.settings
p1447
g1323
sVcom.tencent.mm
p1448
g1125
sVcom.lenovo.safecenter
p1449
g743
sVcom.chaozh.iReaderFree
p1450
g999
ssg37
(dp1451
Vcom.xunlei.downloadprovider
p1452
g1066
sVcom.android.fileexplorer
p1453
g905
sVcom.tencent.mm
p1454
g1135
sVcom.android.launcher
p1455
g1261
sVcom.UCMobile
p1456
g330
ssg39
(dp1457
g196
g150
sg1311
g174
sg1361
g212
sg1251
g217
sVcom.qidian.QDReader
p1458
g234
sVcom.sdu.didi.psnger
p1459
g293
sVcom.UCMobile
p1460
g332
sVcom.android.notepad
p1461
g394
sVcn.kuwo.player
p1462
g502
sVcom.estrongs.android.taskmanager
p1463
g519
sVcom.sankuai.meituan
p1464
g561
sVuniqueName.photoAlbumManager
p1465
g846
sg65
g648
sg713
g858
sVcom.tencent.mobileqq
p1466
g704
sg716
g745
sg298
g790
sVcom.android.calculator
p1467
g641
sVcom.dianping.v1
p1468
g897
sVcom.android.fileexplorer
p1469
g907
sVsina.mobile.tianqitong
p1470
g959
sVcom.chaozh.iReaderFree
p1471
g1001
sVcom.xunlei.downloadprovider
p1472
g1058
sVcom.MobileTicket
p1473
g817
sVcom.android.calendar
p1474
g1117
sVcom.tencent.mm
p1475
g1136
sg1395
g1194
sg23
g280
sVcom.android.launcher
p1476
g1262
sVcom.android.settings
p1477
g1325
sVcom.autonavi.minimap
p1478
g663
ssg41
(dp1479
Vcom.android.launcher
p1480
g1263
sVcom.tencent.mobileqq
p1481
g705
sVcom.jingdong.app.mall
p1482
g619
sg57
g624
sVcom.UCMobile
p1483
g334
sg274
g802
sVcom.tencent.mm
p1484
g1137
ssg43
(dp1485
Vcom.tencent.mobileqq
p1486
g706
sVcom.qidian.QDReader
p1487
g236
sVcom.android.mms
p1488
g1196
sg493
g909
sVcom.android.launcher
p1489
g1264
sg489
g665
sVcom.tencent.mm
p1490
g1140
sVcom.chaozh.iReaderFree
p1491
g1003
sg505
g1326
ssg45
(dp1492
Vcom.xunlei.downloadprovider
p1493
g1049
sVcom.android.fileexplorer
p1494
g911
sg510
g1328
sVcom.qidian.QDReader
p1495
g237
sVcom.UCMobile
p1496
g335
sVcom.android.launcher
p1497
g1265
sVcom.android.bluetooth
p1498
g529
ssg47
(dp1499
Vcom.tencent.mobileqq
p1500
g707
sVcom.chaozh.iReaderFree
p1501
g1005
sg523
g1267
ssg49
(dp1502
g107
g1054
sg13
g164
sVcom.android.fileexplorer
p1503
g934
sVcom.android.settings
p1504
g1329
sVcom.UCMobile
p1505
g337
sg165
g1307
sg97
g978
sVcom.tencent.mm
p1506
g1142
sVcom.android.contacts
p1507
g442
sVcom.tencent.mobileqq
p1508
g730
ssg51
(dp1509
g560
g444
sVcom.android.calendar
p1510
g1107
sg572
g666
sg544
g853
sg53
g574
sg548
g1198
sVcom.dianping.v1
p1511
g888
sVcom.UCMobile
p1512
g339
sVtv.danmaku.bili
p1513
g781
sVcom.android.launcher
p1514
g1270
sg131
g1331
sVcom.tencent.mm
p1515
g1144
sVcom.lenovo.safecenter
p1516
g748
sVcom.chaozh.iReaderFree
p1517
g1007
ssg53
(dp1518
g461
g914
sg570
g836
sVcom.autonavi.minimap
p1519
g668
sVcom.android.settings
p1520
g1332
sVcom.qidian.QDReader
p1521
g241
sVcom.android.mms
p1522
g1200
sVcom.lenovo.safecenter
p1523
g750
sVcom.UCMobile
p1524
g341
sVcom.android.phone
p1525
g866
sVcom.android.launcher
p1526
g1272
sVsina.mobile.tianqitong
p1527
g953
sg1292
g627
sVcom.tencent.mm
p1528
g1145
sg518
g446
sVcom.chaozh.iReaderFree
p1529
g1009
sVcom.tencent.mobileqq
p1530
g710
ssg55
(dp1531
Vcom.android.launcher
p1532
g1273
sg601
g916
sg225
g669
sVcom.qidian.QDReader
p1533
g243
sg605
g1202
sVcom.UCMobile
p1534
g342
sg79
g795
sg614
g1147
sg800
g752
sVcom.chaozh.iReaderFree
p1535
g1011
sg113
g1090
ssg57
(dp1536
g618
g483
sg1482
g607
sg274
g796
ssg59
(dp1537
Vcom.wandoujia.phoenix2
p1538
g190
sVcom.qidian.QDReader
p1539
g258
sg626
g578
sVcom.android.launcher
p1540
g1293
sVcom.tencent.mm
p1541
g1164
sVcom.lenovo.safecenter
p1542
g764
ssg61
(dp1543
Vcom.android.launcher
p1544
g1275
sVcom.tencent.mm
p1545
g1149
sg998
g403
sg1450
g1012
sg125
g1223
ssg63
(dp1546
Vcom.android.contacts
p1547
g457
sVsina.mobile.tianqitong
p1548
g951
ssg65
(dp1549
Vcom.lenovo.safecenter
p1550
g754
sVcom.tencent.mm
p1551
g1150
sVcom.android.contacts
p1552
g447
sVcom.chaozh.iReaderFree
p1553
g1013
sVcom.android.phone
p1554
g852
ssg67
(dp1555
Vcn.kuwo.player
p1556
g490
sg1533
g226
sVcom.sankuai.meituan
p1557
g557
sVcom.android.fileexplorer
p1558
g901
sVcom.tencent.mobileqq
p1559
g698
sVcom.android.phone
p1560
g864
sg53
g573
sg242
g604
sVcom.lenovo.safecenter
p1561
g776
sg27
g306
sVcom.UCMobile
p1562
g375
sg658
g387
sg1513
g787
sg1514
g1309
sVcom.android.settings
p1563
g1334
sVcom.sdu.didi.psnger
p1564
g289
sg685
g1187
sg1511
g895
sVcom.tencent.mm
p1565
g1177
sVcom.android.contacts
p1566
g481
sVcom.chaozh.iReaderFree
p1567
g1039
ssg69
(dp1568
g1274
g631
sVcom.tencent.mm
p1569
g1152
sg1544
g1277
ssg71
(dp1570
g43
g500
sg709
g598
sVcom.youdao.dict
p1571
g201
sVcom.android.notepad
p1572
g416
sg656
g369
sg723
g1105
sg131
g1348
sVcom.sankuai.meituan
p1573
g563
sg21
g269
sg1417
g1206
sg1284
g879
sg91
g920
sg31
g378
sVcom.android.phone
p1574
g874
sg570
g844
sg129
g1278
sg1413
g681
sg119
g1154
sVcom.android.contacts
p1575
g451
sg103
g1017
sVcom.android.bluetooth
p1576
g531
ssg73
(dp1577
g991
g194
sg1476
g1279
sg1176
g673
sVcom.jingdong.app.mall
p1578
g617
sg818
g348
sVcom.android.notepad
p1579
g402
sg1372
g453
sg749
g594
sg1253
g1208
sg1014
g870
sg1565
g1155
sg63
g643
sg93
g944
sg1548
g970
sg1255
g303
sVcom.chaozh.iReaderFree
p1580
g1033
sVcom.xunlei.downloadprovider
p1581
g1070
sg1425
g829
sVcom.tencent.mobileqq
p1582
g717
sVcom.qidian.QDReader
p1583
g249
sg1219
g801
sg769
g1338
ssg75
(dp1584
Vcom.UCMobile
p1585
g350
sVcom.android.launcher
p1586
g1280
sVsina.mobile.tianqitong
p1587
g963
ssg77
(dp1588
Vcom.qidian.QDReader
p1589
g251
sg1459
g299
sVcom.UCMobile
p1590
g352
sVcom.android.launcher
p1591
g1281
sVcom.android.phone
p1592
g854
sVcom.lenovo.safecenter
p1593
g759
ssg79
(dp1594
Vcom.autonavi.minimap
p1595
g687
sVcom.qidian.QDReader
p1596
g275
sg55
g600
sg800
g774
sg1534
g371
sg1532
g1306
sg614
g1175
sg605
g1220
ssg81
(dp1597
g320
g172
sVcom.android.notepad
p1598
g392
sVcom.android.fileexplorer
p1599
g927
sg1234
g1103
sg810
g1215
sg812
g851
sVcom.qidian.QDReader
p1600
g264
sVcom.android.contacts
p1601
g455
sg818
g366
sVsina.mobile.tianqitong
p1602
g950
sg1172
g1231
sVcom.android.launcher
p1603
g1297
sVcom.autonavi.minimap
p1604
g683
sVcom.sdu.didi.psnger
p1605
g285
sVcom.tencent.mm
p1606
g1157
sVcom.lenovo.safecenter
p1607
g760
sVcom.youdao.dict
p1608
g199
ssg83
(dp1609
g983
g1061
sg985
g921
sVcom.android.gallery3d
p1610
g571
sg987
g1282
ssg85
(dp1611
g196
g148
sVcom.youdao.dict
p1612
g209
sg1251
g219
sVcom.autonavi.minimap
p1613
g670
sg1459
g297
sg1460
g344
sg1461
g411
sVcom.android.contacts
p1614
g449
sVcn.kuwo.player
p1615
g498
sVcom.sankuai.meituan
p1616
g545
sg1253
g1204
sg1465
g842
sVcom.tencent.mm
p1617
g1151
sg23
g282
sg298
g789
sg1467
g645
sg1468
g896
sg1469
g918
sVsina.mobile.tianqitong
p1618
g967
sg1580
g1015
sg1582
g714
sVcom.MobileTicket
p1619
g813
sVcom.android.settings
p1620
g1340
sVcom.qidian.QDReader
p1621
g245
sVcom.lenovo.safecenter
p1622
g756
sg1476
g1276
ssg87
(dp1623
Vcom.tencent.mm
p1624
g1158
sVcom.android.contacts
p1625
g458
sVcom.android.launcher
p1626
g1285
ssg89
(dp1627
g1510
g1111
sVcom.autonavi.minimap
p1628
g674
sVcom.sankuai.meituan
p1629
g550
sg1512
g356
sVcom.android.launcher
p1630
g1286
sVcom.tencent.mm
p1631
g1159
sVcom.android.contacts
p1632
g460
sg333
g487
sg1481
g718
ssg91
(dp1633
g11
g155
sVcom.wandoujia.phoenix2
p1634
g186
sg489
g676
sg701
g358
sg1415
g1287
sg37
g421
sg518
g462
sg1002
g494
sg910
g509
sVru.zdevs.zarchiver
p1635
g1078
sg445
g569
sVcom.jingdong.app.mall
p1636
g602
sg71
g719
sVcom.lenovo.safecenter
p1637
g762
sg83
g838
sg119
g1161
sg1021
g941
sg101
g986
sg103
g1020
sg107
g1052
sVcom.MobileTicket
p1638
g809
sg1488
g1210
sg1504
g1342
sVcom.qidian.QDReader
p1639
g255
sg127
g1233
sg49
g535
ssg93
(dp1640
Vcom.chaozh.iReaderFree
p1641
g1022
sVcom.wandoujia.phoenix2
p1642
g187
sVcom.lenovo.safecenter
p1643
g763
sVcom.android.launcher
p1644
g1288
ssg95
(dp1645
Vcom.MobileTicket
p1646
g826
sVcom.android.gallery3d
p1647
g584
sVcom.autonavi.minimap
p1648
g678
sVcom.android.settings
p1649
g1343
sVcom.qidian.QDReader
p1650
g257
sVcom.android.mms
p1651
g1211
sg1316
g312
sVcom.UCMobile
p1652
g360
sVcom.android.launcher
p1653
g1290
sVcom.android.phone
p1654
g856
sVcom.tencent.mm
p1655
g1162
sVcom.android.contacts
p1656
g464
sVcom.chaozh.iReaderFree
p1657
g1024
sVcom.tencent.mobileqq
p1658
g720
ssg97
(dp1659
Vcom.android.settings
p1660
g1344
sg1507
g465
ssg99
(dp1661
Vcom.android.settings
p1662
g1341
sVcom.android.gallery3d
p1663
g590
sVcom.tencent.mm
p1664
g1163
sVcom.android.launcher
p1665
g1291
ssg101
(dp1666
Vcom.storm.smart
p1667
g424
sVcom.android.fileexplorer
p1668
g923
sVcom.chaozh.iReaderFree
p1669
g1026
ssg103
(dp1670
g1424
g1072
sg908
g504
sVcom.android.gallery3d
p1671
g596
sVru.zdevs.zarchiver
p1672
g1080
sg105
g1044
sVcom.android.fileexplorer
p1673
g924
sg117
g1119
sg1153
g721
sVcom.android.phone
p1674
g872
sg1427
g260
sg994
g1213
sg227
g362
sg127
g1245
sg1021
g946
sVcom.android.launcher
p1675
g1295
sVsina.mobile.tianqitong
p1676
g972
sg489
g680
sg119
g1165
sVcom.android.contacts
p1677
g467
sg505
g1345
ssg105
(dp1678
g723
g1101
sVcom.tencent.mobileqq
p1679
g722
ssg107
(dp1680
g8
g140
sg11
g153
sg952
g566
sg15
g171
sg534
g925
sg933
g527
sVcom.android.phone
p1681
g849
sVcom.qidian.QDReader
p1682
g262
sg101
g984
sVcom.android.contacts
p1683
g469
sg1318
g364
sg1527
g948
sg111
g1076
sg93
g937
sg536
g1296
sg538
g1346
sg37
g419
sg1375
g1167
sg1069
g766
sVcom.chaozh.iReaderFree
p1684
g1028
ssg109
(dp1685
Vcom.tencent.mm
p1686
g1168
sVcom.android.contacts
p1687
g470
sVcom.lenovo.safecenter
p1688
g767
ssg111
(dp1689
g694
g179
sVcom.qidian.QDReader
p1690
g239
sVcom.android.fileexplorer
p1691
g912
sVcom.android.launcher
p1692
g1268
sg1373
g708
sVcom.lenovo.safecenter
p1693
g746
ssg113
(dp1694
Vcom.qidian.QDReader
p1695
g265
ssg115
(dp1696
Vcom.android.settings
p1697
g1347
sVcom.android.launcher
p1698
g1299
ssg117
(dp1699
g8
g142
sg139
g1053
sVcom.wandoujia.phoenix2
p1700
g178
sg1679
g724
sVcom.qidian.QDReader
p1701
g267
sVcom.lenovo.safecenter
p1702
g768
sg143
g367
sg1172
g1235
sg145
g1300
sVcom.tencent.mm
p1703
g1169
sVcom.android.contacts
p1704
g472
sVcom.chaozh.iReaderFree
p1705
g1029
ssg119
(dp1706
Vcom.android.browser
p1707
g157
sVcom.wandoujia.phoenix2
p1708
g192
sg129
g1283
sg19
g215
sg21
g247
sg1564
g301
sVcom.android.deskclock
p1709
g314
sg29
g346
sVcom.douban.movie
p1710
g380
sg35
g413
sg1575
g474
sVcom.youdao.dict
p1711
g211
sg1463
g517
sg105
g1042
sVcom.android.bluetooth
p1712
g541
sg747
g559
sg709
g592
sg55
g615
sg61
g633
sg1203
g868
sg69
g690
sg71
g715
sg125
g1226
sg1513
g783
sVcom.android.calculator
p1713
g639
sg1284
g877
sVcom.dianping.v1
p1714
g886
sg91
g922
sVsina.mobile.tianqitong
p1715
g969
sg97
g977
sg103
g1031
sg1004
g522
sVcom.xunlei.downloadprovider
p1716
g1068
sg1394
g828
sg113
g1088
sg115
g1095
sg1474
g1115
sg1036
g1336
sg121
g1180
sg123
g1217
sg1207
g758
sVcom.baidu.tieba
p1717
g1243
sg79
g799
sVcom.autonavi.minimap
p1718
g672
ssg121
(dp1719
Vcom.android.fileexplorer
p1720
g929
ssg123
(dp1721
g1311
g183
sVcom.youdao.dict
p1722
g203
sVcom.autonavi.minimap
p1723
g686
sg25
g291
sVcom.UCMobile
p1724
g370
sVcom.android.notepad
p1725
g396
sg233
g435
sg1462
g492
sVcom.sankuai.meituan
p1726
g549
sg1089
g606
sg1203
g857
sVcom.tencent.mobileqq
p1727
g712
sg1207
g736
sg1467
g637
sg463
g957
sVcom.chaozh.iReaderFree
p1728
g995
sg1425
g811
sg113
g1086
sg177
g1109
sVcom.tencent.mm
p1729
g1127
sVcom.qidian.QDReader
p1730
g271
sVcom.android.launcher
p1731
g1254
sg769
g1349
ssg125
(dp1732
Vcom.android.launcher
p1733
g1304
sg998
g414
sg1450
g1018
ssg127
(dp1734
Vcom.MobileTicket
p1735
g822
sg252
g407
sVcom.zhihu.daily.android
p1736
g1093
sg1236
g1350
sg930
g273
sVcom.android.fileexplorer
p1737
g932
sVcom.android.launcher
p1738
g1305
sg1242
g1173
sg1244
g1034
ssg129
(dp1739
g8
g146
sg11
g159
sg13
g166
sg15
g189
sg1412
g207
sg1395
g1185
sg25
g295
sg699
g310
sg656
g328
sg31
g384
sg658
g389
sg998
g409
sg37
g426
sg1193
g431
sg333
g485
sg235
g496
sg910
g515
sg47
g524
sg49
g537
sg747
g555
sVcom.android.gallery3d
p1740
g586
sg1636
g613
sg57
g622
sg61
g634
sg1413
g650
sg69
g692
sg1153
g703
sg193
g734
sg349
g785
sg83
g840
sVcom.tencent.mm
p1741
g1133
sg87
g881
sg1511
g893
sg1160
g903
sg1021
g942
sg1676
g965
sg101
g988
sg103
g1035
sg105
g1046
sg363
g1063
sg1394
g824
sg115
g1097
sg723
g1113
sg1504
g1313
sg121
g1182
sVcom.qidian.QDReader
p1742
g232
sg125
g1229
sg127
g1241
sVcom.jd.mobiledd.sdk
p1743
g798
sg111
g1082
sg1674
g862
ssg131
(dp1744
g13
g168
sg536
g1301
sVcom.autonavi.minimap
p1745
g684
sg738
g316
sg1505
g373
sVcom.android.notepad
p1746
g398
sVcom.android.contacts
p1747
g479
sg1556
g506
sVcom.estrongs.android.taskmanager
p1748
g511
sg1672
g1084
sg1573
g543
sVcom.android.gallery3d
p1749
g588
sVcom.qidian.QDReader
p1750
g277
sg1574
g855
sg1506
g1170
sVcom.lenovo.safecenter
p1751
g770
sg89
g884
sg534
g928
sg97
g975
sg99
g981
sVcom.chaozh.iReaderFree
p1752
g1037
sVcom.xunlei.downloadprovider
p1753
g1065
sg1638
g831
sg873
g726
sVcom.android.mms
p1754
g1221
sg1717
g1237
sg49
g539
sssb.