ccopy_reg
_reconstructor
p1
(cnetworkx.classes.digraph
DiGraph
p2
c__builtin__
object
p3
NtRp4
(dp5
S'node'
p6
(dp7
Vcom.android.browser
p8
(dp9
S'weight'
p10
F0.012206057854601601
ssVcom.suning.mobile.ebuy
p11
(dp12
g10
F0.0037487947894449401
ssVcom.autonavi.minimap
p13
(dp14
g10
F0.00059895312433277969
ssVcom.soufun.app
p15
(dp16
g10
F0.0010776661280208926
ssVcom.sdu.didi.psnger
p17
(dp18
g10
F0.0018125917252322207
ssVcom.android.deskclock
p19
(dp20
g10
F0.00063041782880054304
ssVcom.UCMobile
p21
(dp22
g10
F0.006124379976761068
ssVcom.eg.android.AlipayGphone
p23
(dp24
g10
F0.042872907316218033
ssVcom.wacai365
p25
(dp26
g10
F0.00015957100122937094
ssVcom.miui.weather2
p27
(dp28
g10
F1.5732352233881644e-05
ssVcom.miui.cleanmaster
p29
(dp30
g10
F3.0340965022486025e-05
ssVcom.duokan.reader
p31
(dp32
g10
F0.0027183257181256923
ssVcom.android.incallui
p33
(dp34
g10
F0.0089045113643770098
ssVme.ele
p35
(dp36
g10
F0.00021463423404795669
ssVcom.xiaomi.gamecenter
p37
(dp38
g10
F0.0015361518216940148
ssVcom.android.phone
p39
(dp40
g10
F1.0113655007495342e-05
ssVcn.com.sina.sports
p41
(dp42
g10
F0.0041544647291900313
ssVcom.suning.snmessenger
p43
(dp44
g10
F0.0029981368399997301
ssVcom.miui.home
p45
(dp46
g10
F0.71060450439719247
ssVcom.tencent.mm
p47
(dp48
g10
F0.044649539379201381
ssVcom.miui.antispam
p49
(dp50
g10
F1.1237394452772603e-06
ssVcom.sankuai.meituan.takeoutnew
p51
(dp52
g10
F0.0029352074310642039
ssVqsbk.app
p53
(dp54
g10
F0.0016788667312442268
ssVandroid.zhibo8
p55
(dp56
g10
F0.0058749098199095164
ssVcom.kugou.android
p57
(dp58
g10
F0.0015867200967314915
ssVcom.yipiao
p59
(dp60
g10
F0.00028318234020986959
ssVcom.xiaomi.market
p61
(dp62
g10
F4.0454620029981367e-05
ssVcom.android.fileexplorer
p63
(dp64
g10
F0.0018620362608244203
ssVcom.tencent.qqlive
p65
(dp66
g10
F0.018930514695140725
ssVcom.miui.yellowpage
p67
(dp68
g10
F7.8661761169408219e-06
ssVcom.funcity.taxi.passenger
p69
(dp70
g10
F0.0012226285164616592
ssVcom.miui.player
p71
(dp72
g10
F0.00039892750307342741
ssVcom.tencent.mobileqq
p73
(dp74
g10
F0.0044803491683204364
ssVcom.miui.gallery
p75
(dp76
g10
F0.0022845622922486701
ssVcom.android.settings
p77
(dp78
g10
F0.00011462142341828054
ssVcom.android.mms
p79
(dp80
g10
F0.0027183257181256923
ssVcom.miui.video
p81
(dp82
g10
F7.8661761169408219e-06
ssVcmb.pb
p83
(dp84
g10
F6.7424366716635611e-05
ssVcom.cnvcs.xiangqi
p85
(dp86
g10
F0.10905217072748644
ssVcom.android.quicksearchbox
p87
(dp88
g10
F1.3484873343327122e-05
ssVcom.android.camera
p89
(dp90
g10
F0.0013709621232382576
sssS'graph'
p91
(dp92
sS'succ'
p93
(dp94
g8
(dp95
Vqsbk.app
p96
(dp97
g10
F1.3
ssVcom.tencent.qqlive
p98
(dp99
g10
F0.90000000000000002
ssg13
(dp100
g10
F1.8999999999999999
ssVandroid.zhibo8
p101
(dp102
g10
F0.40000000000000002
ssVcom.android.incallui
p103
(dp104
g10
I1
ssg59
(dp105
g10
F0.90000000000000002
ssVcom.cnvcs.xiangqi
p106
(dp107
g10
F4.4000000000000004
ssVcom.android.settings
p108
(dp109
g10
F1.3
ssVcn.com.sina.sports
p110
(dp111
g10
F0.90000000000000002
ssVcom.android.camera
p112
(dp113
g10
F0.90000000000000002
ssVcom.miui.home
p114
(dp115
g10
F27.299999999999997
ssVcom.tencent.mm
p116
(dp117
g10
F3.3999999999999999
ssVcom.sankuai.meituan.takeoutnew
p118
(dp119
g10
F0.40000000000000002
sssg11
(dp120
Vcom.android.camera
p121
(dp122
g10
F0.69999999999999996
ssVcom.miui.home
p123
(dp124
g10
I1
ssVcom.tencent.mm
p125
(dp126
g10
F1.3
ssVcom.tencent.mobileqq
p127
(dp128
g10
I1
sssg13
(dp129
Vcom.android.browser
p130
(dp131
g10
I1
ssg114
(dp132
g10
F2.2999999999999998
ssg116
(dp133
g10
F0.69999999999999996
ssg85
(dp134
g10
F0.90000000000000002
sssg15
(dp135
Vcom.miui.home
p136
(dp137
g10
I1
ssVcom.tencent.qqlive
p138
(dp139
g10
F0.90000000000000002
sssg17
(dp140
Vcom.android.settings
p141
(dp142
g10
I1
ssVcom.miui.home
p143
(dp144
g10
F3.7000000000000002
ssVcom.android.mms
p145
(dp146
g10
I1
ssg69
(dp147
g10
F1.3
sssg19
(dp148
Vcom.miui.home
p149
(dp150
g10
I1
ssVcom.tencent.mm
p151
(dp152
g10
F0.90000000000000002
sssg21
(dp153
Vcom.miui.home
p154
(dp155
g10
F3.5999999999999996
ssVandroid.zhibo8
p156
(dp157
g10
F5.7000000000000002
ssVcom.tencent.qqlive
p158
(dp159
g10
F0.69999999999999996
sssg23
(dp160
Vcom.android.settings
p161
(dp162
g10
F0.90000000000000002
ssVcom.android.mms
p163
(dp164
g10
F5.2999999999999998
ssg83
(dp165
g10
F0.90000000000000002
ssVcom.miui.home
p166
(dp167
g10
F5.7999999999999998
ssg47
(dp168
g10
F2.8999999999999999
ssVcom.sankuai.meituan.takeoutnew
p169
(dp170
g10
F3.0999999999999996
sssg25
(dp171
sg27
(dp172
Vcom.android.incallui
p173
(dp174
g10
F0.69999999999999996
ssVcom.miui.home
p175
(dp176
g10
F1.3999999999999999
ssVcom.android.phone
p177
(dp178
g10
F0.90000000000000002
sssg29
(dp179
Vcom.android.fileexplorer
p180
(dp181
g10
F1.7
ssVcom.miui.gallery
p182
(dp183
g10
F1.3
sssg31
(dp184
Vcom.miui.home
p185
(dp186
g10
I1
sssg33
(dp187
Vcom.android.browser
p188
(dp189
g10
F1.8999999999999999
ssg75
(dp190
g10
F0.69999999999999996
ssVcom.miui.weather2
p191
(dp192
g10
F0.40000000000000002
ssVcom.cnvcs.xiangqi
p193
(dp194
g10
F1.3
ssVcom.android.settings
p195
(dp196
g10
F2.7999999999999998
ssVcom.android.mms
p197
(dp198
g10
F1.3
ssg59
(dp199
g10
F0.40000000000000002
ssg67
(dp200
g10
I1
ssVcn.com.sina.sports
p201
(dp202
g10
F0.69999999999999996
ssVcom.tencent.mobileqq
p203
(dp204
g10
F0.90000000000000002
ssVcom.tencent.qqlive
p205
(dp206
g10
F1.7
ssVcom.android.phone
p207
(dp208
g10
F4.4000000000000004
ssg87
(dp209
g10
F1.7000000000000002
ssVcom.android.camera
p210
(dp211
g10
F0.90000000000000002
ssVcom.miui.home
p212
(dp213
g10
F22.599999999999994
ssVcom.tencent.mm
p214
(dp215
g10
F4.4000000000000004
ssg49
(dp216
g10
I1
ssVcom.sankuai.meituan.takeoutnew
p217
(dp218
g10
F2.8999999999999999
sssg35
(dp219
g77
(dp220
g10
F1.3
ssg79
(dp221
g10
F0.69999999999999996
ssVcom.miui.home
p222
(dp223
g10
F3.1000000000000001
ssg73
(dp224
g10
I1
ssg23
(dp225
g10
F0.69999999999999996
ssg51
(dp226
g10
F1.3
sssg37
(dp227
Vcom.miui.home
p228
(dp229
g10
I1
ssVcom.tencent.mm
p230
(dp231
g10
F0.90000000000000002
sssg39
(dp232
Vcom.android.incallui
p233
(dp234
g10
F11.100000000000001
ssVcom.miui.home
p235
(dp236
g10
F3.5
ssg203
(dp237
g10
F0.69999999999999996
sssg41
(dp238
Vcom.android.browser
p239
(dp240
g10
F0.90000000000000002
ssVcom.tencent.qqlive
p241
(dp242
g10
F0.40000000000000002
ssVandroid.zhibo8
p243
(dp244
g10
F2.2000000000000002
ssVcom.UCMobile
p245
(dp246
g10
F0.69999999999999996
ssVcom.cnvcs.xiangqi
p247
(dp248
g10
F0.90000000000000002
ssVcom.miui.home
p249
(dp250
g10
F4.7000000000000002
sssg43
(dp251
Vcom.android.quicksearchbox
p252
(dp253
g10
F0.90000000000000002
ssVcom.miui.home
p254
(dp255
g10
I1
sssg45
(dp256
g8
(dp257
g10
F49.40000000000002
ssg11
(dp258
g10
I2
ssg13
(dp259
g10
F6.5999999999999996
ssg15
(dp260
g10
I1
ssg17
(dp261
g10
F9.8000000000000007
ssVcom.android.deskclock
p262
(dp263
g10
I8
ssg21
(dp264
g10
F5.4000000000000012
ssg23
(dp265
g10
F13.399999999999999
ssg25
(dp266
g10
I1
ssg27
(dp267
g10
F2.7000000000000002
ssg33
(dp268
g10
F56.199999999999989
ssg35
(dp269
g10
F3.1000000000000001
ssg177
(dp270
g10
F9
ssg41
(dp271
g10
F7.2000000000000002
ssg43
(dp272
g10
I3
ssg75
(dp273
g10
F13.600000000000001
ssVcom.tencent.mm
p274
(dp275
g10
F92.70000000000006
ssg49
(dp276
g10
F0.90000000000000002
ssg51
(dp277
g10
F10.299999999999999
ssg53
(dp278
g10
F8.8000000000000007
ssg55
(dp279
g10
F16.899999999999999
ssg59
(dp280
g10
F1.7
ssg61
(dp281
g10
I2
ssg63
(dp282
g10
I1
ssg65
(dp283
g10
F15.599999999999998
ssg67
(dp284
g10
F0.90000000000000002
ssg69
(dp285
g10
F2.7000000000000002
ssg31
(dp286
g10
I2
ssg73
(dp287
g10
F3.2999999999999998
ssg71
(dp288
g10
I1
ssg77
(dp289
g10
F27.499999999999996
ssg79
(dp290
g10
F18.5
ssg81
(dp291
g10
I1
ssg83
(dp292
g10
F1.7
ssg85
(dp293
g10
F54.600000000000016
ssg87
(dp294
g10
F6.1000000000000005
ssg89
(dp295
g10
F20.899999999999999
sssg47
(dp296
g8
(dp297
g10
F8.4000000000000021
ssg96
(dp298
g10
F0.40000000000000002
ssVcom.miui.gallery
p299
(dp300
g10
F0.40000000000000002
ssg191
(dp301
g10
F0.90000000000000002
ssVandroid.zhibo8
p302
(dp303
g10
F2.7999999999999998
ssg63
(dp304
g10
F0.90000000000000002
ssVcom.android.settings
p305
(dp306
g10
F11.9
ssg39
(dp307
g10
F2.2000000000000002
ssVcom.android.mms
p308
(dp309
g10
F3.2999999999999998
ssVcom.android.incallui
p310
(dp311
g10
F9.3000000000000025
ssVcom.tencent.qqlive
p312
(dp313
g10
F1.3
ssVcom.cnvcs.xiangqi
p314
(dp315
g10
F7.8000000000000007
ssg13
(dp316
g10
F0.69999999999999996
ssg41
(dp317
g10
F0.90000000000000002
ssg121
(dp318
g10
F3.6999999999999997
ssVcom.miui.home
p319
(dp320
g10
F60.500000000000021
ssVcom.eg.android.AlipayGphone
p321
(dp322
g10
F4.2000000000000002
ssVcom.sankuai.meituan.takeoutnew
p323
(dp324
g10
F6.7000000000000011
sssg49
(dp325
g201
(dp326
g10
F0.90000000000000002
ssg239
(dp327
g10
F0.40000000000000002
ssVcom.miui.home
p328
(dp329
g10
F1.7
sssg51
(dp330
g161
(dp331
g10
F6.2000000000000011
ssg308
(dp332
g10
F1.3999999999999999
ssVcom.android.incallui
p333
(dp334
g10
F3.2999999999999998
ssg319
(dp335
g10
F7.2000000000000002
ssg47
(dp336
g10
F7.4000000000000004
ssg23
(dp337
g10
I2
sssg53
(dp338
Vcom.android.browser
p339
(dp340
g10
F1.3
ssVcom.android.incallui
p341
(dp342
g10
F0.69999999999999996
ssVcom.miui.home
p343
(dp344
g10
F6.4000000000000004
ssVcom.tencent.qqlive
p345
(dp346
g10
F1.8
ssg118
(dp347
g10
F1.3
sssg55
(dp348
Vcom.android.browser
p349
(dp350
g10
F0.90000000000000002
ssg241
(dp351
g10
F2.6000000000000001
ssg21
(dp352
g10
F5.7000000000000002
ssVcom.cnvcs.xiangqi
p353
(dp354
g10
F1.3
ssg154
(dp355
g10
F9.8000000000000007
ssVcom.tencent.mm
p356
(dp357
g10
F0.90000000000000002
sssg57
(dp358
Vcom.android.settings
p359
(dp360
g10
F0.40000000000000002
ssVcom.miui.home
p361
(dp362
g10
F1.7
ssVcom.cnvcs.xiangqi
p363
(dp364
g10
F0.90000000000000002
sssg59
(dp365
Vqsbk.app
p366
(dp367
g10
F0.90000000000000002
ssVcom.miui.home
p368
(dp369
g10
F1.7
ssVcom.tencent.qqlive
p370
(dp371
g10
F0.40000000000000002
sssg61
(dp372
sg63
(dp373
Vcom.miui.home
p374
(dp375
g10
I1
ssg29
(dp376
g10
F2.7000000000000002
ssg182
(dp377
g10
F3.3999999999999999
sssg65
(dp378
Vcom.android.incallui
p379
(dp380
g10
I1
ssVcom.miui.home
p381
(dp382
g10
I4
ssg197
(dp383
g10
F1.7
ssVcom.cnvcs.xiangqi
p384
(dp385
g10
F0.90000000000000002
sssg67
(dp386
Vcom.android.incallui
p387
(dp388
g10
F0.90000000000000002
ssVcom.miui.home
p389
(dp390
g10
I1
sssg69
(dp391
Vcom.android.incallui
p392
(dp393
g10
I1
sssg71
(dp394
sg73
(dp395
Vcom.suning.mobile.ebuy
p396
(dp397
g10
I1
ssg77
(dp398
g10
F0.69999999999999996
ssg79
(dp399
g10
F2.2999999999999998
ssVme.ele
p400
(dp401
g10
I1
ssVcom.tencent.qqlive
p402
(dp403
g10
F0.69999999999999996
ssg222
(dp404
g10
F3.7999999999999998
ssVcom.tencent.mm
p405
(dp406
g10
F0.90000000000000002
sssg75
(dp407
Vcom.miui.cleanmaster
p408
(dp409
g10
F1.3
ssVcom.android.camera
p410
(dp411
g10
F4.5999999999999996
ssVcom.miui.home
p412
(dp413
g10
F6.2999999999999998
ssVcom.tencent.mm
p414
(dp415
g10
F3.1999999999999997
ssVcom.android.fileexplorer
p416
(dp417
g10
F2.7000000000000002
sssg77
(dp418
g8
(dp419
g10
F2.7000000000000002
ssg65
(dp420
g10
F0.40000000000000002
ssg13
(dp421
g10
F0.40000000000000002
ssg79
(dp422
g10
I4
ssg302
(dp423
g10
F0.90000000000000002
ssVcom.sdu.didi.psnger
p424
(dp425
g10
I1
ssVcom.android.incallui
p426
(dp427
g10
F3.9000000000000004
ssVme.ele
p428
(dp429
g10
F0.69999999999999996
ssVcom.cnvcs.xiangqi
p430
(dp431
g10
F1.6000000000000001
ssg39
(dp432
g10
I1
ssg41
(dp433
g10
F0.69999999999999996
ssVcom.miui.home
p434
(dp435
g10
F15.700000000000005
ssg47
(dp436
g10
F18.799999999999997
ssg321
(dp437
g10
F0.40000000000000002
ssg323
(dp438
g10
F4.2000000000000002
sssg79
(dp439
g402
(dp440
g10
F2.2999999999999998
ssVcom.tencent.mm
p441
(dp442
g10
F3.6000000000000001
ssg428
(dp443
g10
F0.90000000000000002
ssVcom.cnvcs.xiangqi
p444
(dp445
g10
F1.3
ssg434
(dp446
g10
F10.800000000000001
ssVcom.tencent.mobileqq
p447
(dp448
g10
I1
ssVcom.eg.android.AlipayGphone
p449
(dp450
g10
F1.3999999999999999
ssg51
(dp451
g10
F0.40000000000000002
sssg81
(dp452
Vcom.android.browser
p453
(dp454
g10
F0.90000000000000002
ssVcom.miui.home
p455
(dp456
g10
I1
sssg83
(dp457
Vcom.miui.home
p458
(dp459
g10
F1.7
ssVcom.eg.android.AlipayGphone
p460
(dp461
g10
F1.3
sssg85
(dp462
Vcom.android.browser
p463
(dp464
g10
F4
ssg53
(dp465
g10
F2.6000000000000001
ssVcom.android.settings
p466
(dp467
g10
F4.4000000000000004
ssVcom.android.mms
p468
(dp469
g10
F0.90000000000000002
ssVcom.sdu.didi.psnger
p470
(dp471
g10
F1.3
ssg19
(dp472
g10
I1
ssVcom.android.incallui
p473
(dp474
g10
F1.8999999999999999
ssVcom.android.quicksearchbox
p475
(dp476
g10
F0.90000000000000002
ssg65
(dp477
g10
F1.3
ssVcn.com.sina.sports
p478
(dp479
g10
F1.3
ssg210
(dp480
g10
F0.40000000000000002
ssVcom.miui.home
p481
(dp482
g10
F35.499999999999993
ssVcom.tencent.mm
p483
(dp484
g10
F8.0999999999999996
sssg87
(dp485
Vcom.android.browser
p486
(dp487
g10
F0.90000000000000002
ssVcom.miui.home
p488
(dp489
g10
F1.7
sssg89
(dp490
Vcom.android.settings
p491
(dp492
g10
F0.90000000000000002
ssVcom.miui.home
p493
(dp494
g10
F11.9
ssVcom.tencent.mm
p495
(dp496
g10
F5.1000000000000005
ssg75
(dp497
g10
F11.799999999999999
ssVandroid.zhibo8
p498
(dp499
g10
F0.69999999999999996
ssssS'edge'
p500
g94
sS'pred'
p501
(dp502
g8
(dp503
Vqsbk.app
p504
g340
sVandroid.zhibo8
p505
g350
sVcom.android.settings
p506
g419
sg81
g454
sg103
g189
sVcom.android.quicksearchbox
p507
g487
sVcom.cnvcs.xiangqi
p508
g464
sg13
g131
sg201
g240
sVcom.miui.home
p509
g257
sVcom.tencent.mm
p510
g297
sg49
g327
ssg11
(dp511
Vcom.miui.home
p512
g258
sg127
g397
ssg13
(dp513
g506
g421
sg509
g259
sVcom.tencent.mm
p514
g316
sg8
g100
ssg15
(dp515
Vcom.miui.home
p516
g260
ssg17
(dp517
g141
g425
sVcom.miui.home
p518
g261
sVcom.cnvcs.xiangqi
p519
g471
ssg19
(dp520
Vcom.miui.home
p521
g263
sVcom.cnvcs.xiangqi
p522
g472
ssg21
(dp523
g110
g246
sVcom.miui.home
p524
g264
sg55
g352
ssg23
(dp525
Vcom.android.settings
p526
g437
sg468
g450
sg83
g461
sg428
g225
sg434
g265
sVcom.tencent.mm
p527
g322
sg51
g337
ssg25
(dp528
Vcom.miui.home
p529
g266
ssg27
(dp530
Vcom.android.incallui
p531
g192
sVcom.miui.home
p532
g267
sVcom.tencent.mm
p533
g301
ssg29
(dp534
Vcom.android.fileexplorer
p535
g376
sg182
g409
ssg31
(dp536
Vcom.miui.home
p537
g286
ssg33
(dp538
Vcom.android.browser
p539
g104
sg96
g342
sg191
g174
sg312
g380
sVcom.android.settings
p540
g427
sVcom.funcity.taxi.passenger
p541
g393
sVcom.cnvcs.xiangqi
p542
g474
sg39
g234
sg67
g388
sVcom.miui.home
p543
g268
sVcom.tencent.mm
p544
g311
sVcom.sankuai.meituan.takeoutnew
p545
g334
ssg35
(dp546
g77
g429
sg45
g269
sg73
g401
sg79
g443
ssg37
(dp547
sg39
(dp548
Vcom.android.settings
p549
g432
sVcom.miui.home
p550
g270
sVcom.tencent.mm
p551
g307
sg191
g178
sVcom.android.incallui
p552
g208
ssg41
(dp553
Vcom.android.browser
p554
g111
sVcom.android.settings
p555
g433
sVcom.android.incallui
p556
g202
sVcom.cnvcs.xiangqi
p557
g479
sVcom.miui.home
p558
g271
sVcom.tencent.mm
p559
g317
sg49
g326
ssg43
(dp560
Vcom.miui.home
p561
g272
ssg45
(dp562
g8
g115
sVcom.suning.mobile.ebuy
p563
g124
sg13
g132
sg15
g137
sVcom.sdu.didi.psnger
p564
g144
sVcom.android.deskclock
p565
g150
sg21
g155
sg321
g167
sg191
g176
sg33
g213
sg35
g223
sg37
g229
sg177
g236
sg41
g250
sVcom.suning.snmessenger
p566
g255
sVcom.miui.gallery
p567
g413
sVcom.tencent.mm
p568
g320
sg49
g329
sVcom.sankuai.meituan.takeoutnew
p569
g335
sg53
g344
sg55
g355
sg57
g362
sg59
g369
sg63
g375
sg98
g382
sg67
g390
sVcom.duokan.reader
p570
g186
sg73
g404
sg77
g435
sg79
g446
sg81
g456
sg83
g459
sg106
g482
sg507
g489
sg89
g494
ssg47
(dp571
g8
g117
sg567
g415
sVandroid.zhibo8
p572
g357
sg563
g126
sg161
g436
sVcom.android.mms
p573
g442
sg37
g231
sg565
g152
sg310
g215
sg106
g484
sg13
g133
sg89
g496
sVcom.miui.home
p574
g275
sVcom.tencent.mobileqq
p575
g406
sg23
g168
sg51
g336
ssg49
(dp576
g556
g216
sVcom.miui.home
p577
g276
ssg51
(dp578
Vcom.android.browser
p579
g119
sg96
g347
sg161
g438
sg79
g451
sg333
g218
sg428
g226
sg434
g277
sg47
g324
sg23
g170
ssg53
(dp580
g579
g97
sVcom.miui.home
p581
g278
sVcom.tencent.mm
p582
g298
sg59
g367
sVcom.cnvcs.xiangqi
p583
g465
ssg55
(dp584
g554
g102
sVcom.android.settings
p585
g423
sg21
g157
sg41
g244
sVcom.android.camera
p586
g499
sg524
g279
sVcom.tencent.mm
p587
g303
ssg57
(dp588
sg59
(dp589
Vcom.android.incallui
p590
g199
sVcom.miui.home
p591
g280
sVcom.android.browser
p592
g105
ssg61
(dp593
Vcom.miui.home
p594
g281
ssg63
(dp595
g29
g181
sVcom.miui.home
p596
g282
sVcom.tencent.mm
p597
g304
sg182
g417
ssg65
(dp598
Vcom.android.browser
p599
g99
sg53
g346
sg243
g351
sVcom.UCMobile
p600
g159
sVcom.android.settings
p601
g420
sVcom.tencent.mm
p602
g313
sVcom.android.mms
p603
g440
sg59
g371
sg379
g206
sg430
g477
sg41
g242
sVcom.miui.home
p604
g283
sg447
g403
sg15
g139
ssg67
(dp605
Vcom.android.incallui
p606
g200
sVcom.miui.home
p607
g284
ssg69
(dp608
Vcom.miui.home
p609
g285
sg470
g147
ssg71
(dp610
Vcom.miui.home
p611
g288
ssg73
(dp612
Vcom.suning.mobile.ebuy
p613
g128
sg603
g448
sVcom.android.incallui
p614
g204
sg35
g224
sVcom.android.phone
p615
g237
sg45
g287
ssg75
(dp616
g535
g377
sVcom.tencent.mm
p617
g300
sg473
g190
sg210
g497
sVcom.miui.home
p618
g273
sg29
g183
ssg77
(dp619
Vcom.android.browser
p620
g109
sg73
g398
sg57
g360
sVcom.sdu.didi.psnger
p621
g142
sg33
g196
sg35
g220
sg106
g467
sg89
g492
sg222
g289
sVcom.tencent.mm
p622
g306
sg23
g162
sg51
g331
ssg79
(dp623
Vcom.cnvcs.xiangqi
p624
g469
sg379
g198
sg77
g422
sVcom.sdu.didi.psnger
p625
g146
sVcom.sankuai.meituan.takeoutnew
p626
g332
sg400
g221
sg312
g383
sg222
g290
sg622
g309
sVcom.eg.android.AlipayGphone
p627
g164
sg73
g399
ssg81
(dp628
Vcom.miui.home
p629
g291
ssg83
(dp630
Vcom.miui.home
p631
g292
sVcom.eg.android.AlipayGphone
p632
g165
ssg85
(dp633
Vcom.android.browser
p634
g107
sVandroid.zhibo8
p635
g354
sg601
g431
sg57
g364
sVcom.android.mms
p636
g445
sVcom.android.incallui
p637
g194
sVcom.tencent.qqlive
p638
g385
sVcom.autonavi.minimap
p639
g134
sg478
g248
sVcom.miui.home
p640
g293
sg483
g315
ssg87
(dp641
g173
g209
sg235
g294
sVcom.cnvcs.xiangqi
p642
g476
sg566
g253
ssg89
(dp643
Vcom.android.browser
p644
g113
sVcom.miui.gallery
p645
g411
sg563
g122
sg473
g211
sg542
g480
sVcom.miui.home
p646
g295
sg125
g318
sssS'adj'
p647
g94
sb.