ccopy_reg
_reconstructor
p1
(cnetworkx.classes.digraph
DiGraph
p2
c__builtin__
object
p3
NtRp4
(dp5
S'node'
p6
(dp7
Vcom.android.browser
p8
(dp9
S'weight'
p10
F1.341021858656296e-05
ssVcom.baidu.appsearch
p11
(dp12
g10
F0.0068995574627866438
ssVzte.com.cn.cmmb
p13
(dp14
g10
F2.6820437173125921e-05
ssVcom.android.settings
p15
(dp16
g10
F0.0013007912028966072
ssVcom.tencent.mm
p17
(dp18
g10
F0.022602923427651869
ssVair.tv.douyu.android
p19
(dp20
g10
F0.0017165079790800589
ssVcom.android.mms
p21
(dp22
g10
F0.024346251843905056
ssVcom.UCMobile
p23
(dp24
g10
F0.085134772696794953
ssVcom.android.launcher
p25
(dp26
g10
F0.62911358455142818
ssVcom.android.phone
p27
(dp28
g10
F0.0015622904653345849
ssVcom.tencent.mobileqq
p29
(dp30
g10
F0.22386348397478878
ssVcom.android.contacts
p31
(dp32
g10
F0.0027356845916588438
ssVcom.eg.android.AlipayGphone
p33
(dp34
g10
F0.00068392114791471096
sssS'graph'
p35
(dp36
sS'succ'
p37
(dp38
g8
(dp39
Vcom.android.settings
p40
(dp41
g10
F0.90000000000000002
ssVcom.android.launcher
p42
(dp43
g10
F1.7
ssVcom.UCMobile
p44
(dp45
g10
F0.40000000000000002
sssg11
(dp46
Vcom.UCMobile
p47
(dp48
g10
I1
ssVcom.android.launcher
p49
(dp50
g10
F1.3
ssVcom.android.settings
p51
(dp52
g10
F0.69999999999999996
sssg13
(dp53
Vcom.android.settings
p54
(dp55
g10
F0.90000000000000002
ssVcom.android.launcher
p56
(dp57
g10
I1
sssg15
(dp58
g44
(dp59
g10
F0.90000000000000002
ssVcom.android.launcher
p60
(dp61
g10
I7
sssg17
(dp62
Vcom.UCMobile
p63
(dp64
g10
I1
ssVcom.android.contacts
p65
(dp66
g10
I1
ssVcom.android.launcher
p67
(dp68
g10
I1
sssg19
(dp69
sg21
(dp70
Vcom.android.settings
p71
(dp72
g10
F1.3
ssVcom.android.launcher
p73
(dp74
g10
F6.7000000000000002
ssVcom.android.phone
p75
(dp76
g10
I2
ssVcom.tencent.mm
p77
(dp78
g10
F0.90000000000000002
ssVcom.android.contacts
p79
(dp80
g10
I1
ssVcom.tencent.mobileqq
p81
(dp82
g10
I1
sssg23
(dp83
Vcom.android.settings
p84
(dp85
g10
F6.2000000000000002
ssVcom.tencent.mm
p86
(dp87
g10
F1.3999999999999999
ssVcom.tencent.mobileqq
p88
(dp89
g10
I1
ssVcom.android.mms
p90
(dp91
g10
F0.90000000000000002
ssVcom.android.launcher
p92
(dp93
g10
F10.699999999999999
sssg25
(dp94
g8
(dp95
g10
I1
ssg13
(dp96
g10
I1
ssg15
(dp97
g10
F15.499999999999996
ssVcom.tencent.mm
p98
(dp99
g10
F2.7000000000000002
ssg19
(dp100
g10
I1
ssVcom.android.mms
p101
(dp102
g10
I6
ssg23
(dp103
g10
F3.7000000000000002
ssVcom.android.phone
p104
(dp105
g10
F4.7999999999999998
ssg29
(dp106
g10
F9.6999999999999993
ssg31
(dp107
g10
F4.5999999999999996
ssg33
(dp108
g10
I2
sssg27
(dp109
Vcom.android.mms
p110
(dp111
g10
F0.90000000000000002
ssVcom.android.contacts
p112
(dp113
g10
I3
ssVcom.android.launcher
p114
(dp115
g10
I1
sssg29
(dp116
Vcom.android.settings
p117
(dp118
g10
F0.90000000000000002
ssVcom.android.mms
p119
(dp120
g10
I1
ssVcom.android.contacts
p121
(dp122
g10
I1
ssVcom.android.launcher
p123
(dp124
g10
I4
ssVcom.android.phone
p125
(dp126
g10
F0.90000000000000002
sssg31
(dp127
g110
(dp128
g10
I1
ssVcom.tencent.mm
p129
(dp130
g10
I1
ssVcom.android.phone
p131
(dp132
g10
I1
sssg33
(dp133
Vcom.android.settings
p134
(dp135
g10
F0.90000000000000002
ssVcom.android.launcher
p136
(dp137
g10
I2
ssssS'edge'
p138
g38
sS'pred'
p139
(dp140
g8
(dp141
Vcom.android.launcher
p142
g95
ssg11
(dp143
sg13
(dp144
Vcom.android.launcher
p145
g96
ssg15
(dp146
g8
g41
sg13
g55
sg11
g52
sVcom.android.mms
p147
g72
sVcom.UCMobile
p148
g85
sVcom.android.launcher
p149
g97
sg88
g118
sg33
g135
ssg17
(dp150
Vcom.UCMobile
p151
g87
sg90
g78
sg65
g130
sg67
g99
ssg19
(dp152
g25
g100
ssg21
(dp153
Vcom.UCMobile
p154
g91
sg81
g120
sVcom.android.contacts
p155
g128
sVcom.android.launcher
p156
g102
sVcom.android.phone
p157
g111
ssg23
(dp158
g8
g45
sg86
g64
sg11
g48
sVcom.android.launcher
p159
g103
sg40
g59
ssg25
(dp160
g8
g43
sg13
g57
sg15
g61
sVcom.tencent.mm
p161
g68
sVcom.android.mms
p162
g74
sg148
g93
sVcom.android.phone
p163
g115
sg11
g50
sg33
g137
sVcom.tencent.mobileqq
p164
g124
ssg27
(dp165
Vcom.android.mms
p166
g76
sg164
g126
sVcom.android.contacts
p167
g132
sVcom.android.launcher
p168
g105
ssg29
(dp169
Vcom.UCMobile
p170
g89
sg21
g82
sVcom.android.launcher
p171
g106
ssg31
(dp172
g17
g66
sVcom.tencent.mobileqq
p173
g122
sVcom.android.mms
p174
g80
sVcom.android.launcher
p175
g107
sg27
g113
ssg33
(dp176
Vcom.android.launcher
p177
g108
sssS'adj'
p178
g38
sb.