ccopy_reg
_reconstructor
p1
(cnetworkx.classes.digraph
DiGraph
p2
c__builtin__
object
p3
NtRp4
(dp5
S'node'
p6
(dp7
Vcom.android.browser
p8
(dp9
S'weight'
p10
F0.0098994751901097053
ssVcom.lingan.seeyou
p11
(dp12
g10
F0.0038251449729944766
ssVcom.autonavi.minimap
p13
(dp14
g10
F0.0021726823446608628
ssVcom.android.thememanager
p15
(dp16
g10
F3.0601159783955809e-05
ssVcom.android.deskclock
p17
(dp18
g10
F0.008583625319399605
ssVcom.sina.weibo
p19
(dp20
g10
F0.0093486543139985005
ssVcom.eg.android.AlipayGphone
p21
(dp22
g10
F0.0022491852441207522
ssVcom.qihoo.appstore
p23
(dp24
g10
F0.0012240463913582324
ssVcn.wps.moffice_eng
p25
(dp26
g10
F0.0034426304756950288
ssVcom.taobao.taobao
p27
(dp28
g10
F0.0037792432333185427
ssVcom.android.phone
p29
(dp30
g10
F0.072738956806462959
ssVcom.miui.gallery
p31
(dp32
g10
F0.014994568294138347
ssVcom.tencent.mm
p33
(dp34
g10
F0.5940756154658261
ssVcom.miui.antispam
p35
(dp36
g10
F0.00093333537341065231
ssVcom.tencent.loverzone
p37
(dp38
g10
F0.0041923588904019459
ssVcom.tencent.androidqqmail
p39
(dp40
g10
F0.0017595666875774591
ssVcom.android.calculator
p41
(dp42
g10
F0.00032131217773153601
ssVcom.android.fileexplorer
p43
(dp44
g10
F0.0039322490322383219
ssVcom.tencent.mobileqq
p45
(dp46
g10
F0.200146885566963
ssVcom.miui.player
p47
(dp48
g10
F0.046574965191180748
ssVcom.android.settings
p49
(dp50
g10
F0.0077573940052327985
ssVcom.android.mms
p51
(dp52
g10
F0.0062732377557109418
ssVcom.miui.video
p53
(dp54
g10
F0.0014688556696298789
ssVcom.android.camera
p55
(dp56
g10
F0.00027541043805560228
sssS'node_dict_factory'
p57
c__builtin__
dict
p58
sS'edge_attr_dict_factory'
p59
g58
sS'succ'
p60
(dp61
g8
(dp62
g49
(dp63
g10
I1
ssVcom.android.mms
p64
(dp65
g10
F0.69999999999999996
ssVcom.miui.antispam
p66
(dp67
g10
F1.3
sssg11
(dp68
Vcom.android.mms
p69
(dp70
g10
I1
sssg13
(dp71
Vcom.tencent.mm
p72
(dp73
g10
I1
sssg15
(dp74
Vcom.android.fileexplorer
p75
(dp76
g10
I1
sssg17
(dp77
g31
(dp78
g10
I1
ssVcom.tencent.mobileqq
p79
(dp80
g10
F1.8999999999999999
sssg19
(dp81
Vcom.android.mms
p82
(dp83
g10
I1
sssg21
(dp84
g47
(dp85
g10
I1
sssg23
(dp86
Vcom.android.settings
p87
(dp88
g10
F0.40000000000000002
ssVcom.tencent.mobileqq
p89
(dp90
g10
F0.90000000000000002
ssg39
(dp91
g10
F1.7
sssg25
(dp92
Vcom.android.fileexplorer
p93
(dp94
g10
F7.9000000000000004
ssVcom.autonavi.minimap
p95
(dp96
g10
I1
sssg27
(dp97
g41
(dp98
g10
I1
ssg55
(dp99
g10
F0.90000000000000002
ssVcom.android.fileexplorer
p100
(dp101
g10
F0.69999999999999996
sssg29
(dp102
g11
(dp103
g10
F0.40000000000000002
ssg41
(dp104
g10
F0.90000000000000002
ssVcom.taobao.taobao
p105
(dp106
g10
I2
ssg100
(dp107
g10
F0.40000000000000002
ssg55
(dp108
g10
F0.69999999999999996
ssVcom.miui.player
p109
(dp110
g10
F0.90000000000000002
ssVcom.tencent.mm
p111
(dp112
g10
F4.7000000000000002
sssg31
(dp113
sg33
(dp114
g11
(dp115
g10
F1.7
ssg25
(dp116
g10
F2.6000000000000001
ssVcom.qihoo.appstore
p117
(dp118
g10
I1
ssVcom.tencent.mobileqq
p119
(dp120
g10
F4.5999999999999996
ssVcom.android.mms
p121
(dp122
g10
I1
ssg27
(dp123
g10
F0.90000000000000002
ssVcom.android.deskclock
p124
(dp125
g10
F3.8999999999999999
ssg43
(dp126
g10
F4.8999999999999995
ssg53
(dp127
g10
F1.8999999999999999
ssg109
(dp128
g10
I1
ssg19
(dp129
g10
I2
ssg35
(dp130
g10
I1
ssVcom.eg.android.AlipayGphone
p131
(dp132
g10
F1.8999999999999999
ssg37
(dp133
g10
I1
sssg35
(dp134
Vcom.android.camera
p135
(dp136
g10
F1.7
ssVcom.android.mms
p137
(dp138
g10
F15.199999999999998
sssg37
(dp139
Vcom.sina.weibo
p140
(dp141
g10
F0.90000000000000002
ssVcom.tencent.mm
p142
(dp143
g10
I1
ssg27
(dp144
g10
I1
sssg39
(dp145
g87
(dp146
g10
F1.7
ssg89
(dp147
g10
I1
sssg41
(dp148
Vcn.wps.moffice_eng
p149
(dp150
g10
F0.40000000000000002
ssVcom.tencent.mobileqq
p151
(dp152
g10
I1
ssg100
(dp153
g10
F1.6000000000000001
ssg55
(dp154
g10
I1
ssVcom.tencent.mm
p155
(dp156
g10
F0.90000000000000002
ssVcom.eg.android.AlipayGphone
p157
(dp158
g10
I1
sssg43
(dp159
g19
(dp160
g10
F0.90000000000000002
ssVcom.tencent.mm
p161
(dp162
g10
I1
ssg25
(dp163
g10
F12
ssg95
(dp164
g10
F0.90000000000000002
sssg45
(dp165
Vcom.android.browser
p166
(dp167
g10
I1
ssg25
(dp168
g10
F1.3999999999999999
ssVcom.tencent.androidqqmail
p169
(dp170
g10
I1
ssVcom.autonavi.minimap
p171
(dp172
g10
I1
ssVcom.android.phone
p173
(dp174
g10
I2
ssg124
(dp175
g10
F1.6000000000000001
ssg43
(dp176
g10
F2.6000000000000001
ssg87
(dp177
g10
F0.90000000000000002
ssVcom.miui.player
p178
(dp179
g10
F4.9000000000000004
ssg33
(dp180
g10
F6.2999999999999998
ssVcom.eg.android.AlipayGphone
p181
(dp182
g10
F0.69999999999999996
ssVcom.tencent.loverzone
p183
(dp184
g10
F0.90000000000000002
sssg47
(dp185
g11
(dp186
g10
F0.90000000000000002
ssg183
(dp187
g10
F2.1000000000000001
ssVcom.tencent.mobileqq
p188
(dp189
g10
F3.8999999999999999
ssVcom.android.phone
p190
(dp191
g10
I1
ssVcom.tencent.mm
p192
(dp193
g10
I1
ssg181
(dp194
g10
F1.8999999999999999
sssg49
(dp195
Vcom.tencent.loverzone
p196
(dp197
g10
I1
ssg140
(dp198
g10
F0.69999999999999996
ssg64
(dp199
g10
F2.2000000000000002
ssVcom.tencent.mm
p200
(dp201
g10
F1.8999999999999999
ssg66
(dp202
g10
F1.7
ssVcom.eg.android.AlipayGphone
p203
(dp204
g10
F1.8999999999999999
sssg51
(dp205
g135
(dp206
g10
F1.3
ssVcom.miui.player
p207
(dp208
g10
I1
ssVcom.miui.antispam
p209
(dp210
g10
F13.899999999999999
sssg53
(dp211
Vcom.tencent.mm
p212
(dp213
g10
I1
sssg55
(dp214
g100
(dp215
g10
I1
ssg137
(dp216
g10
F2.2999999999999998
ssVcom.miui.antispam
p217
(dp218
g10
F1.7
ssssS'edge'
p219
g61
sS'graph'
p220
(dp221
sS'adjlist_dict_factory'
p222
g58
sS'adj'
p223
g61
sS'pred'
p224
(dp225
g8
(dp226
Vcom.tencent.mobileqq
p227
g167
ssg11
(dp228
g109
g186
sVcom.tencent.mm
p229
g115
sVcom.android.phone
p230
g103
ssg13
(dp231
Vcom.android.fileexplorer
p232
g164
sVcom.tencent.mobileqq
p233
g172
sVcn.wps.moffice_eng
p234
g96
ssg15
(dp235
sg17
(dp236
Vcom.tencent.mm
p237
g125
sVcom.tencent.mobileqq
p238
g175
ssg19
(dp239
Vcom.android.fileexplorer
p240
g160
sg161
g129
sg196
g141
sVcom.android.settings
p241
g198
ssg21
(dp242
Vcom.android.calculator
p243
g158
sVcom.android.settings
p244
g204
sVcom.tencent.mm
p245
g132
sg178
g194
sVcom.tencent.mobileqq
p246
g182
ssg23
(dp247
Vcom.tencent.mm
p248
g118
ssg25
(dp249
Vcom.android.calculator
p250
g150
sg119
g168
sVcom.tencent.mm
p251
g116
sg43
g163
ssg27
(dp252
Vcom.tencent.mm
p253
g123
sg37
g144
sg29
g106
ssg29
(dp254
Vcom.miui.player
p255
g191
sVcom.tencent.mobileqq
p256
g174
ssg31
(dp257
g17
g78
ssg33
(dp258
g196
g143
sg250
g156
sVcom.android.settings
p259
g201
sg53
g213
sg240
g162
sVcom.android.phone
p260
g112
sg13
g73
sg109
g193
sg45
g180
ssg35
(dp261
Vcom.android.camera
p262
g218
sg49
g202
sVcom.tencent.mm
p263
g130
sg137
g210
sg8
g67
ssg37
(dp264
g241
g197
sVcom.miui.player
p265
g187
sg253
g133
sVcom.tencent.mobileqq
p266
g184
ssg39
(dp267
g89
g170
sg23
g91
ssg41
(dp268
Vcom.taobao.taobao
p269
g98
sVcom.android.phone
p270
g104
ssg43
(dp271
g25
g94
sg41
g153
sg33
g126
sg269
g101
sg15
g76
sg270
g107
sg55
g215
sg119
g176
ssg45
(dp272
g39
g147
sg250
g152
sg124
g80
sVcom.miui.player
p273
g189
sg33
g120
sg23
g90
ssg47
(dp274
g229
g128
sg246
g179
sg51
g208
sg21
g85
sg230
g110
ssg49
(dp275
g8
g63
sg39
g146
sg89
g177
sg23
g88
ssg51
(dp276
g8
g65
sVcom.lingan.seeyou
p277
g70
sg49
g199
sg200
g122
sg262
g216
sVcom.sina.weibo
p278
g83
sg217
g138
ssg53
(dp279
Vcom.tencent.mm
p280
g127
ssg55
(dp281
g41
g154
sg137
g206
sg209
g136
sg269
g99
sg270
g108
sssb.