ccopy_reg
_reconstructor
p1
(cnetworkx.classes.digraph
DiGraph
p2
c__builtin__
object
p3
NtRp4
(dp5
S'node'
p6
(dp7
Vcom.shanbay.news
p8
(dp9
S'weight'
p10
F3.3449975561547707e-05
ssVcom.android.browser
p11
(dp12
g10
F0.0012091916538816199
ssVcom.sand.airdroid
p13
(dp14
g10
F2.5961175062693743e-05
ssVcom.wandoujia.phoenix2
p15
(dp16
g10
F0.0022920722060159032
ssVcom.youdao.dict
p17
(dp18
g10
F0.013335057421625959
ssVcom.ss.android.article.news
p19
(dp20
g10
F0.0020359552289550978
ssVcom.qidian.QDReader
p21
(dp22
g10
F0.14349690038547352
ssVcom.shanbay.words
p23
(dp24
g10
F1.9970134663610572e-06
ssVcom.sdu.didi.psnger
p25
(dp26
g10
F0.0012875744324362915
ssVcom.android.deskclock
p27
(dp28
g10
F0.00094858139652150215
ssVcom.UCMobile
p29
(dp30
g10
F0.046743594953746671
ssVcom.douban.movie
p31
(dp32
g10
F0.00084273968280436612
ssVcom.sohu.inputmethod.sogou
p33
(dp34
g10
F1.9970134663610572e-06
ssVcom.android.notepad
p35
(dp36
g10
F0.016617149053590356
ssVcom.storm.smart
p37
(dp38
g10
F0.0017648606508965841
ssVcom.android.contacts
p39
(dp40
g10
F0.054993756836650788
ssVcom.eg.android.AlipayGphone
p41
(dp42
g10
F0.00029006620598894352
ssVcn.kuwo.player
p43
(dp44
g10
F0.0020479373097532639
ssVcom.estrongs.android.taskmanager
p45
(dp46
g10
F9.7354406485101536e-05
ssVcn.wps.moffice_eng
p47
(dp48
g10
F5.9910403990831715e-06
ssVcom.android.bluetooth
p49
(dp50
g10
F6.7399204489685679e-05
ssVcom.sankuai.meituan
p51
(dp52
g10
F0.0036690129910718519
ssVcom.android.gallery3d
p53
(dp54
g10
F0.0064937885392395674
ssVcom.jingdong.app.mall
p55
(dp56
g10
F0.0027713554379425569
ssVcom.taobao.taobao
p57
(dp58
g10
F6.4902937656734357e-06
ssVcom.baidu.stu
p59
(dp60
g10
F4.0938776060401672e-05
ssVmindware.mindgamespro
p61
(dp62
g10
F0.00030454455362006122
ssVcom.android.calculator
p63
(dp64
g10
F0.0036560324035405053
ssVcom.android.safe
p65
(dp66
g10
F9.9850673318052858e-07
ssVcom.autonavi.minimap
p67
(dp68
g10
F0.041315213098810727
ssVcom.qq.ac.android
p69
(dp70
g10
F0.00031552812768504703
ssVcom.tencent.mobileqq
p71
(dp72
g10
F0.03620136086482665
ssVcom.lenovo.safecenter
p73
(dp74
g10
F0.028116951099630503
ssVtv.danmaku.bili
p75
(dp76
g10
F0.00021767446783335523
ssVcom.aibang.nextbus
p77
(dp78
g10
F0.0004148795476365096
ssVcom.MobileTicket
p79
(dp80
g10
F0.0099840688250721048
ssVuniqueName.photoAlbumManager
p81
(dp82
g10
F0.0012091916538816199
ssVcom.android.phone
p83
(dp84
g10
F0.031617715706161433
ssVcom.vnes.supermr
p85
(dp86
g10
F0.00018821851920452964
ssVcom.dianping.v1
p87
(dp88
g10
F0.0030149910808386061
ssVcom.android.fileexplorer
p89
(dp90
g10
F0.0038492434564109373
ssVcom.pp.assistant
p91
(dp92
g10
F6.4902937656734357e-06
ssVsina.mobile.tianqitong
p93
(dp94
g10
F0.012428912561264629
ssVcom.android.profiles
p95
(dp96
g10
F1.4977600997707929e-06
ssVcom.ontim.softap
p97
(dp98
g10
F1.4977600997707929e-06
ssVme.abitno.vplayer.t
p99
(dp100
g10
F1.1982080798166343e-05
ssVcom.chaozh.iReaderFree
p101
(dp102
g10
F0.15236314092275002
ssVair.games.shirogames.evoland12
p103
(dp104
g10
F3.49477356613185e-06
ssVcom.xunlei.downloadprovider
p105
(dp106
g10
F0.0073440170225427875
ssVcom.lenovo.lsf
p107
(dp108
g10
F1.4977600997707929e-05
ssVru.zdevs.zarchiver
p109
(dp110
g10
F7.8382778554671493e-05
ssVcom.tmall.wireless
p111
(dp112
g10
F4.3934296259943257e-05
ssVcom.zhihu.daily.android
p113
(dp114
g10
F0.0012236700015127377
ssVcom.android.calendar
p115
(dp116
g10
F0.003856233003543201
ssVcom.tencent.mm
p117
(dp118
g10
F0.31927652196140671
ssVair.com.ppllaayy.tfqsports
p119
(dp120
g10
F2.4962668329513214e-06
ssVcom.android.mms
p121
(dp122
g10
F0.02907352055001745
ssVcom.youdao.note
p123
(dp124
g10
F0.0050060135068005799
ssVcom.baidu.tieba
p125
(dp126
g10
F0.00093110752869084287
ssVcom.jd.mobiledd.sdk
p127
(dp128
g10
F6.2406670823783036e-05
ssVcom.android.settings
p129
(dp130
g10
F0.0067419174624349289
sssS'node_dict_factory'
p131
c__builtin__
dict
p132
sS'edge_attr_dict_factory'
p133
g132
sS'succ'
p134
(dp135
g8
(dp136
Vcom.xunlei.downloadprovider
p137
(dp138
g10
F0.90000000000000002
ssVcom.UCMobile
p139
(dp140
g10
I1
ssVcom.android.calendar
p141
(dp142
g10
F0.69999999999999996
ssVcom.android.contacts
p143
(dp144
g10
I1
ssVcom.android.phone
p145
(dp146
g10
F0.90000000000000002
sssg11
(dp147
Vcom.xunlei.downloadprovider
p148
(dp149
g10
F0.90000000000000002
ssVcom.android.fileexplorer
p150
(dp151
g10
I1
ssVcom.tencent.mm
p152
(dp153
g10
I1
sssg13
(dp154
Vcom.UCMobile
p155
(dp156
g10
I1
ssVcom.android.bluetooth
p157
(dp158
g10
F0.69999999999999996
ssVcom.android.settings
p159
(dp160
g10
F1.3
sssg15
(dp161
Vcom.xunlei.downloadprovider
p162
(dp163
g10
F10.300000000000001
ssg79
(dp164
g10
F1.6000000000000001
ssVcom.qidian.QDReader
p165
(dp166
g10
F1.7
ssVcom.android.contacts
p167
(dp168
g10
F0.69999999999999996
ssVcom.UCMobile
p169
(dp170
g10
I1
ssVcom.android.calendar
p171
(dp172
g10
F1.3
ssg109
(dp173
g10
F1.6000000000000001
ssVcom.android.mms
p174
(dp175
g10
F2.4000000000000004
ssg25
(dp176
g10
F1.6000000000000001
ssVcom.android.fileexplorer
p177
(dp178
g10
F1.6000000000000001
ssg91
(dp179
g10
F1.7
ssg59
(dp180
g10
F0.90000000000000002
ssVcom.tencent.mm
p181
(dp182
g10
F5
ssVcom.lenovo.safecenter
p183
(dp184
g10
F71.100000000000037
sssg17
(dp185
Vcom.shanbay.news
p186
(dp187
g10
I1
ssVcom.MobileTicket
p188
(dp189
g10
F1.8999999999999999
ssVcom.tencent.mobileqq
p190
(dp191
g10
F5.5999999999999996
ssVcom.android.mms
p192
(dp193
g10
I1
ssVcom.UCMobile
p194
(dp195
g10
I3
ssVcom.qidian.QDReader
p196
(dp197
g10
F0.40000000000000002
ssVcom.android.phone
p198
(dp199
g10
F3.6000000000000001
ssVcom.tencent.mm
p200
(dp201
g10
F1.7
ssg143
(dp202
g10
F1.8999999999999999
sssg19
(dp203
Vcom.tencent.mm
p204
(dp205
g10
I3
ssVcom.android.contacts
p206
(dp207
g10
F3.6000000000000001
ssVcom.android.phone
p208
(dp209
g10
F2.2000000000000002
sssg21
(dp210
Vcom.wandoujia.phoenix2
p211
(dp212
g10
F1.8999999999999999
ssVcom.youdao.dict
p213
(dp214
g10
F2.7000000000000002
ssVcom.autonavi.minimap
p215
(dp216
g10
F7.3000000000000016
ssVcom.android.deskclock
p217
(dp218
g10
I1
ssVcom.UCMobile
p219
(dp220
g10
F16.600000000000001
ssVcom.douban.movie
p221
(dp222
g10
F1.8999999999999999
ssVcom.android.notepad
p223
(dp224
g10
I2
ssVcom.android.contacts
p225
(dp226
g10
F11
ssVcom.eg.android.AlipayGphone
p227
(dp228
g10
F0.40000000000000002
ssVcn.kuwo.player
p229
(dp230
g10
F1.7
ssg45
(dp231
g10
F0.90000000000000002
ssVru.zdevs.zarchiver
p232
(dp233
g10
F0.90000000000000002
ssVcom.sankuai.meituan
p234
(dp235
g10
F0.90000000000000002
ssVcom.android.gallery3d
p236
(dp237
g10
F2.6000000000000001
ssVcom.jingdong.app.mall
p238
(dp239
g10
F7.1000000000000014
ssVcom.android.phone
p240
(dp241
g10
F9.5000000000000018
ssVcom.tencent.mm
p242
(dp243
g10
F81.800000000000026
ssVcom.lenovo.safecenter
p244
(dp245
g10
F13.5
ssVcom.aibang.nextbus
p246
(dp247
g10
F0.90000000000000002
ssVcom.android.fileexplorer
p248
(dp249
g10
F1.8999999999999999
ssVsina.mobile.tianqitong
p250
(dp251
g10
I4
ssg59
(dp252
g10
F0.40000000000000002
ssVcom.chaozh.iReaderFree
p253
(dp254
g10
F25.299999999999997
ssVcom.xunlei.downloadprovider
p255
(dp256
g10
F8.1000000000000014
ssVcom.MobileTicket
p257
(dp258
g10
F9.5
ssg111
(dp259
g10
I1
ssVcom.android.calendar
p260
(dp261
g10
I1
ssVcom.tencent.mobileqq
p262
(dp263
g10
F26.899999999999991
ssVcom.android.mms
p264
(dp265
g10
F8.4000000000000021
ssVcom.baidu.tieba
p266
(dp267
g10
F1.3999999999999999
ssVcom.jd.mobiledd.sdk
p268
(dp269
g10
F0.90000000000000002
ssVcom.android.settings
p270
(dp271
g10
F1.7
sssg23
(dp272
Vcom.android.contacts
p273
(dp274
g10
F1.7
ssVcom.android.phone
p275
(dp276
g10
F1.3
sssg25
(dp277
Vcom.MobileTicket
p278
(dp279
g10
F0.90000000000000002
ssVcom.wandoujia.phoenix2
p280
(dp281
g10
F2
ssVcom.autonavi.minimap
p282
(dp283
g10
F3.0999999999999996
ssg174
(dp284
g10
F4.5999999999999996
ssVcom.android.contacts
p285
(dp286
g10
F3.3999999999999999
ssVcom.android.phone
p287
(dp288
g10
F4
ssVcom.aibang.nextbus
p289
(dp290
g10
I1
ssVcom.tencent.mm
p291
(dp292
g10
F8.9000000000000004
ssVcom.lenovo.safecenter
p293
(dp294
g10
F2.7999999999999998
sssg27
(dp295
Vcom.autonavi.minimap
p296
(dp297
g10
I1
ssVsina.mobile.tianqitong
p298
(dp299
g10
F1.7
ssVcom.tencent.mm
p300
(dp301
g10
I1
ssVcom.qidian.QDReader
p302
(dp303
g10
I1
ssVcom.android.settings
p304
(dp305
g10
F2.7000000000000002
sssg29
(dp306
Vcom.android.browser
p307
(dp308
g10
I1
ssVcom.wandoujia.phoenix2
p309
(dp310
g10
F1.8999999999999999
ssg17
(dp311
g10
I2
ssVcom.autonavi.minimap
p312
(dp313
g10
F4.0999999999999996
ssVcom.sdu.didi.psnger
p314
(dp315
g10
F1.1000000000000001
ssVcom.android.notepad
p316
(dp317
g10
I1
ssVcom.storm.smart
p318
(dp319
g10
F1.6000000000000001
ssVcom.android.contacts
p320
(dp321
g10
F17.599999999999998
ssVcom.eg.android.AlipayGphone
p322
(dp323
g10
F0.90000000000000002
ssg229
(dp324
g10
F0.40000000000000002
ssg45
(dp325
g10
I1
ssVcom.android.bluetooth
p326
(dp327
g10
F2.2000000000000002
ssVcom.sankuai.meituan
p328
(dp329
g10
F2.2999999999999998
ssVcom.android.gallery3d
p330
(dp331
g10
F10.400000000000002
ssg55
(dp332
g10
F5.1000000000000005
ssVcom.qidian.QDReader
p333
(dp334
g10
F6.7000000000000011
ssVcom.android.phone
p335
(dp336
g10
F14.199999999999999
ssVcom.tencent.mm
p337
(dp338
g10
F44.5
ssVcom.lenovo.safecenter
p339
(dp340
g10
F14.699999999999999
ssVtv.danmaku.bili
p341
(dp342
g10
F3.7999999999999998
ssVcom.aibang.nextbus
p343
(dp344
g10
I1
ssVcom.dianping.v1
p345
(dp346
g10
F3.4999999999999996
ssVcom.android.fileexplorer
p347
(dp348
g10
F10
ssVsina.mobile.tianqitong
p349
(dp350
g10
I2
ssVcom.chaozh.iReaderFree
p351
(dp352
g10
F8.6000000000000014
ssVcom.xunlei.downloadprovider
p353
(dp354
g10
F3.8999999999999999
ssg79
(dp355
g10
F3.7000000000000002
ssg141
(dp356
g10
F0.90000000000000002
ssVcom.tencent.mobileqq
p357
(dp358
g10
F10.600000000000001
ssg264
(dp359
g10
F9
ssg127
(dp360
g10
F1.3
ssVcom.android.settings
p361
(dp362
g10
F3.4000000000000004
sssg31
(dp363
Vcom.tencent.mobileqq
p364
(dp365
g10
F0.90000000000000002
ssVcom.tencent.mm
p366
(dp367
g10
I1
ssVcom.qidian.QDReader
p368
(dp369
g10
F1.7
sssg33
(dp370
Vcom.autonavi.minimap
p371
(dp372
g10
I1
sssg35
(dp373
Vcom.MobileTicket
p374
(dp375
g10
F2.8999999999999999
ssVcom.android.contacts
p376
(dp377
g10
F4.7000000000000002
ssVcom.tencent.mobileqq
p378
(dp379
g10
I1
ssVcom.qidian.QDReader
p380
(dp381
g10
F2.7999999999999998
ssVcom.lenovo.safecenter
p382
(dp383
g10
I1
ssg61
(dp384
g10
F0.90000000000000002
ssVcom.UCMobile
p385
(dp386
g10
I1
ssVcom.baidu.tieba
p387
(dp388
g10
F0.69999999999999996
ssVcom.android.phone
p389
(dp390
g10
F2.7000000000000002
ssVcom.tencent.mm
p391
(dp392
g10
F6.5999999999999996
ssg123
(dp393
g10
I2
ssVcom.android.settings
p394
(dp395
g10
F1.3
sssg37
(dp396
Vcom.xunlei.downloadprovider
p397
(dp398
g10
F6.0000000000000009
ssg8
(dp399
g10
F0.69999999999999996
ssg139
(dp400
g10
F0.40000000000000002
ssVcom.qidian.QDReader
p401
(dp402
g10
F1.7000000000000002
ssVcom.android.fileexplorer
p403
(dp404
g10
F14.5
ssg99
(dp405
g10
F1.3
sssg39
(dp406
Vcom.wandoujia.phoenix2
p407
(dp408
g10
F7.6000000000000005
ssVcom.ss.android.article.news
p409
(dp410
g10
I1
ssVcom.qidian.QDReader
p411
(dp412
g10
F5.2000000000000011
ssVcom.sdu.didi.psnger
p413
(dp414
g10
F1.3
ssg169
(dp415
g10
F8.8000000000000007
ssVcom.android.notepad
p416
(dp417
g10
F1.8999999999999999
ssVcom.android.bluetooth
p418
(dp419
g10
F0.40000000000000002
ssVcom.sankuai.meituan
p420
(dp421
g10
F0.90000000000000002
ssVcom.android.gallery3d
p422
(dp423
g10
F2.7000000000000002
ssg65
(dp424
g10
I2
ssVcom.android.phone
p425
(dp426
g10
F173.29999999999995
ssVcom.tencent.mobileqq
p427
(dp428
g10
F6.2000000000000011
ssVcom.lenovo.safecenter
p429
(dp430
g10
F9.1999999999999993
ssVcom.MobileTicket
p431
(dp432
g10
F3.9000000000000004
ssVcom.android.calculator
p433
(dp434
g10
I1
ssg85
(dp435
g10
F0.90000000000000002
ssVcom.dianping.v1
p436
(dp437
g10
I2
ssVcom.android.fileexplorer
p438
(dp439
g10
F2.2999999999999998
ssVsina.mobile.tianqitong
p440
(dp441
g10
F3.2999999999999998
ssg95
(dp442
g10
F0.90000000000000002
ssVcom.chaozh.iReaderFree
p443
(dp444
g10
F6.0999999999999996
ssVcom.xunlei.downloadprovider
p445
(dp446
g10
F2.6000000000000001
ssg107
(dp447
g10
F0.69999999999999996
ssVcom.android.calendar
p448
(dp449
g10
F0.69999999999999996
ssVcom.tencent.mm
p450
(dp451
g10
F82.200000000000017
ssVcom.android.mms
p452
(dp453
g10
F39.499999999999993
ssg23
(dp454
g10
I1
ssVcom.android.settings
p455
(dp456
g10
F5.2999999999999998
ssVcom.autonavi.minimap
p457
(dp458
g10
F6.5
sssg41
(dp459
g57
(dp460
g10
I1
ssVcom.dianping.v1
p461
(dp462
g10
I1
sssg43
(dp463
Vcom.autonavi.minimap
p464
(dp465
g10
F0.90000000000000002
ssVcom.android.mms
p466
(dp467
g10
F0.90000000000000002
ssVcom.android.fileexplorer
p468
(dp469
g10
F4.2999999999999998
ssVcom.android.phone
p470
(dp471
g10
I1
ssVcom.tencent.mobileqq
p472
(dp473
g10
I2
ssVcom.android.contacts
p474
(dp475
g10
F1.7
ssVcom.chaozh.iReaderFree
p476
(dp477
g10
F6.6999999999999993
ssVcom.android.settings
p478
(dp479
g10
F0.69999999999999996
sssg45
(dp480
Vcom.android.fileexplorer
p481
(dp482
g10
F1.8999999999999999
ssVcom.android.settings
p483
(dp484
g10
F5.4000000000000004
ssg422
(dp485
g10
F0.40000000000000002
ssVcom.UCMobile
p486
(dp487
g10
I1
ssVcom.tencent.mm
p488
(dp489
g10
F1.3
ssVcom.android.contacts
p490
(dp491
g10
F0.69999999999999996
ssVcom.chaozh.iReaderFree
p492
(dp493
g10
F1.1000000000000001
sssg47
(dp494
Vcom.tencent.mm
p495
(dp496
g10
F1.8999999999999999
sssg49
(dp497
g105
(dp498
g10
F7.2000000000000011
ssVcom.estrongs.android.taskmanager
p499
(dp500
g10
F1.7000000000000002
ssVcom.tencent.mobileqq
p501
(dp502
g10
F1.7000000000000002
ssVcom.qidian.QDReader
p503
(dp504
g10
F0.69999999999999996
ssVcom.android.fileexplorer
p505
(dp506
g10
F8.7000000000000011
ssVcom.android.settings
p507
(dp508
g10
F20.199999999999996
ssVcom.tencent.mm
p509
(dp510
g10
F1.8
sssg51
(dp511
Vcom.autonavi.minimap
p512
(dp513
g10
I2
ssVcom.android.phone
p514
(dp515
g10
F0.90000000000000002
ssVcom.qidian.QDReader
p516
(dp517
g10
F1.3999999999999999
ssVcom.android.mms
p518
(dp519
g10
F2.2999999999999998
ssg87
(dp520
g10
F6.6000000000000005
ssVcom.UCMobile
p521
(dp522
g10
F5.6000000000000005
ssg33
(dp523
g10
I1
ssg129
(dp524
g10
F4.5
ssVcom.tencent.mm
p525
(dp526
g10
F15.699999999999999
ssVcom.android.contacts
p527
(dp528
g10
F2.6999999999999997
ssVcom.tencent.mobileqq
p529
(dp530
g10
F1.3
sssg53
(dp531
Vcom.xunlei.downloadprovider
p532
(dp533
g10
F1.8999999999999999
ssg438
(dp534
g10
F7.0000000000000009
ssVuniqueName.photoAlbumManager
p535
(dp536
g10
F1.7
ssVcom.autonavi.minimap
p537
(dp538
g10
F6.7000000000000002
ssg51
(dp539
g10
F0.90000000000000002
ssVcom.qidian.QDReader
p540
(dp541
g10
F0.90000000000000002
ssVcom.baidu.stu
p542
(dp543
g10
I1
ssVcom.android.deskclock
p544
(dp545
g10
F0.90000000000000002
ssVcom.UCMobile
p546
(dp547
g10
F14.300000000000001
ssVsina.mobile.tianqitong
p548
(dp549
g10
I1
ssVcom.android.notepad
p550
(dp551
g10
I1
ssVcom.android.settings
p552
(dp553
g10
F3.6999999999999997
ssVcom.ontim.softap
p554
(dp555
g10
I1
ssVcom.tencent.mm
p556
(dp557
g10
F11.4
ssVcom.lenovo.safecenter
p558
(dp559
g10
F1.3
ssVcom.chaozh.iReaderFree
p560
(dp561
g10
I1
ssVcom.tencent.mobileqq
p562
(dp563
g10
F2.7000000000000002
sssg55
(dp564
Vcom.android.fileexplorer
p565
(dp566
g10
I1
ssVcom.autonavi.minimap
p567
(dp568
g10
I1
ssVcom.android.mms
p569
(dp570
g10
F1.7
ssg57
(dp571
g10
F1.3
ssVcom.UCMobile
p572
(dp573
g10
F2.2999999999999998
ssg127
(dp574
g10
F12.899999999999999
ssVcom.tencent.mm
p575
(dp576
g10
F6.7000000000000011
ssVcom.lenovo.safecenter
p577
(dp578
g10
F2.6000000000000001
ssg227
(dp579
g10
F2.3999999999999999
sssg57
(dp580
Vcom.eg.android.AlipayGphone
p581
(dp582
g10
I1
sssg59
(dp583
Vcom.android.gallery3d
p584
(dp585
g10
I1
ssVcom.wandoujia.phoenix2
p586
(dp587
g10
I1
sssg61
(dp588
g69
(dp589
g10
F1.7
ssVcom.tencent.mm
p590
(dp591
g10
F4.2999999999999998
sssg63
(dp592
Vcom.android.mms
p593
(dp594
g10
F0.69999999999999996
ssVcom.tencent.mm
p595
(dp596
g10
I1
ssVcom.android.contacts
p597
(dp598
g10
F2.2999999999999998
ssVcom.lenovo.safecenter
p599
(dp600
g10
I1
ssVcom.android.phone
p601
(dp602
g10
F1.8999999999999999
sssg65
(dp603
Vcom.android.contacts
p604
(dp605
g10
I2
sssg67
(dp606
g333
(dp607
g10
F4.2999999999999998
ssVcom.sdu.didi.psnger
p608
(dp609
g10
F1.8999999999999999
ssg27
(dp610
g10
I1
ssVcom.UCMobile
p611
(dp612
g10
F17
ssVcom.sohu.inputmethod.sogou
p613
(dp614
g10
I1
ssVcom.android.notepad
p615
(dp616
g10
I2
ssVcom.android.contacts
p617
(dp618
g10
F9.5
ssVcn.kuwo.player
p619
(dp620
g10
F0.40000000000000002
ssg51
(dp621
g10
F15
ssVcom.android.gallery3d
p622
(dp623
g10
F9.5
ssg238
(dp624
g10
F4
ssg83
(dp625
g10
F13.9
ssVcom.tencent.mm
p626
(dp627
g10
F57.800000000000004
ssg73
(dp628
g10
F6.6000000000000005
ssg87
(dp629
g10
F6.4000000000000004
ssVcom.android.fileexplorer
p630
(dp631
g10
F0.69999999999999996
ssVsina.mobile.tianqitong
p632
(dp633
g10
F2.7999999999999998
ssVcom.chaozh.iReaderFree
p634
(dp635
g10
F1.8999999999999999
ssg357
(dp636
g10
F0.69999999999999996
ssVcom.MobileTicket
p637
(dp638
g10
F0.90000000000000002
ssg129
(dp639
g10
F6.6000000000000005
ssVcom.android.mms
p640
(dp641
g10
F6
ssg268
(dp642
g10
F0.69999999999999996
sssg69
(dp643
Vcom.tencent.mm
p644
(dp645
g10
I3
sssg71
(dp646
Vcom.wandoujia.phoenix2
p647
(dp648
g10
I1
ssg17
(dp649
g10
F1.7
ssVcom.autonavi.minimap
p650
(dp651
g10
F1.8999999999999999
ssVcom.android.deskclock
p652
(dp653
g10
F1.8999999999999999
ssVcom.UCMobile
p654
(dp655
g10
F8.5999999999999996
ssg39
(dp656
g10
F3.5
ssg322
(dp657
g10
F1.7
ssg229
(dp658
g10
F2.3999999999999999
ssg47
(dp659
g10
F1.8999999999999999
ssg109
(dp660
g10
F1.1000000000000001
ssVcom.android.gallery3d
p661
(dp662
g10
F2.2999999999999998
ssVcom.android.mms
p663
(dp664
g10
F1.8999999999999999
ssVcom.android.phone
p665
(dp666
g10
I2
ssg117
(dp667
g10
F62.399999999999999
ssVcom.lenovo.safecenter
p668
(dp669
g10
F1.8
ssg461
(dp670
g10
F1.3
ssg89
(dp671
g10
F12.799999999999999
ssg93
(dp672
g10
I1
ssg101
(dp673
g10
F14.9
ssg103
(dp674
g10
F1.7
ssVcom.android.calendar
p675
(dp676
g10
I1
ssVcom.android.settings
p677
(dp678
g10
F3.7000000000000002
ssVcom.qidian.QDReader
p679
(dp680
g10
F20.5
ssVcom.android.bluetooth
p681
(dp682
g10
F1.3
sssg73
(dp683
g280
(dp684
g10
F72.000000000000043
ssVcom.android.mms
p685
(dp686
g10
F7.8000000000000016
ssg25
(dp687
g10
F2.8999999999999999
ssVcom.android.deskclock
p688
(dp689
g10
F1.7
ssVcom.UCMobile
p690
(dp691
g10
F3.4000000000000004
ssg221
(dp692
g10
F0.69999999999999996
ssVcom.android.notepad
p693
(dp694
g10
I2
ssVcom.android.contacts
p695
(dp696
g10
F12.399999999999999
ssg109
(dp697
g10
F2.7999999999999998
ssVcom.android.gallery3d
p698
(dp699
g10
F2.8999999999999999
ssVcom.jingdong.app.mall
p700
(dp701
g10
F1.7
ssVcom.android.safe
p702
(dp703
g10
F0.90000000000000002
ssVcom.android.phone
p704
(dp705
g10
F3.4000000000000004
ssVcom.tencent.mm
p706
(dp707
g10
F30.399999999999988
ssg77
(dp708
g10
I1
ssg79
(dp709
g10
F3.3999999999999999
ssVcom.dianping.v1
p710
(dp711
g10
I1
ssVcom.android.fileexplorer
p712
(dp713
g10
F2.0999999999999996
ssg91
(dp714
g10
F1.3
ssVsina.mobile.tianqitong
p715
(dp716
g10
I1
ssg59
(dp717
g10
F2.2999999999999998
ssVcom.chaozh.iReaderFree
p718
(dp719
g10
F0.40000000000000002
ssVcom.xunlei.downloadprovider
p720
(dp721
g10
F9.3000000000000007
ssg107
(dp722
g10
F0.90000000000000002
ssg171
(dp723
g10
F0.69999999999999996
ssVcom.android.settings
p724
(dp725
g10
F4.8000000000000007
ssVcom.qidian.QDReader
p726
(dp727
g10
F8.6000000000000014
ssVcom.jd.mobiledd.sdk
p728
(dp729
g10
F1.3
ssVcom.autonavi.minimap
p730
(dp731
g10
F9
sssg75
(dp732
g312
(dp733
g10
F0.90000000000000002
ssVcom.qidian.QDReader
p734
(dp735
g10
F0.90000000000000002
ssg328
(dp736
g10
F1.1000000000000001
ssVcom.tencent.mm
p737
(dp738
g10
F2.3999999999999999
ssVcom.UCMobile
p739
(dp740
g10
F3.5
sssg77
(dp741
Vcom.qidian.QDReader
p742
(dp743
g10
F0.90000000000000002
ssg287
(dp744
g10
F0.69999999999999996
ssVcom.tencent.mm
p745
(dp746
g10
I1
ssg285
(dp747
g10
F0.90000000000000002
ssVcom.sdu.didi.psnger
p748
(dp749
g10
F1.3999999999999999
sssg79
(dp750
Vcom.android.browser
p751
(dp752
g10
I1
ssVcom.wandoujia.phoenix2
p753
(dp754
g10
I1
ssVcom.android.fileexplorer
p755
(dp756
g10
F0.90000000000000002
ssVcom.qidian.QDReader
p757
(dp758
g10
F5.8000000000000007
ssVcom.android.phone
p759
(dp760
g10
F2.7000000000000002
ssVcom.android.mms
p761
(dp762
g10
F14.300000000000001
ssVcom.android.contacts
p763
(dp764
g10
F1.3999999999999999
ssVcom.UCMobile
p765
(dp766
g10
F3.5999999999999996
ssVcom.douban.movie
p767
(dp768
g10
I1
ssg387
(dp769
g10
I1
ssVcom.android.notepad
p770
(dp771
g10
I1
ssVsina.mobile.tianqitong
p772
(dp773
g10
F6.1000000000000005
ssVcom.autonavi.minimap
p774
(dp775
g10
I1
ssVcom.tencent.mm
p776
(dp777
g10
F31.79999999999999
ssVcom.lenovo.safecenter
p778
(dp779
g10
F1.6000000000000001
ssVcom.android.settings
p780
(dp781
g10
I1
sssg81
(dp782
Vcom.UCMobile
p783
(dp784
g10
F1.6000000000000001
ssVcom.android.gallery3d
p785
(dp786
g10
I1
ssVcom.android.fileexplorer
p787
(dp788
g10
F1.3999999999999999
ssVcom.android.phone
p789
(dp790
g10
F0.90000000000000002
ssVcom.tencent.mobileqq
p791
(dp792
g10
F0.90000000000000002
ssVcom.android.contacts
p793
(dp794
g10
F1.7
sssg83
(dp795
Vcom.xunlei.downloadprovider
p796
(dp797
g10
I1
ssVcom.MobileTicket
p798
(dp799
g10
F1.3
ssg65
(dp800
g10
F1.3999999999999999
ssg420
(dp801
g10
I1
ssg246
(dp802
g10
I1
ssg677
(dp803
g10
F1.8
ssg440
(dp804
g10
F1.7
ssg685
(dp805
g10
F16.100000000000001
ssg695
(dp806
g10
F97.400000000000091
ssg690
(dp807
g10
F6.4000000000000004
ssg516
(dp808
g10
F0.90000000000000002
ssVcom.autonavi.minimap
p809
(dp810
g10
I1
ssVcom.android.gallery3d
p811
(dp812
g10
F0.69999999999999996
ssg413
(dp813
g10
F3.4000000000000004
ssg706
(dp814
g10
F20.899999999999995
ssVcom.lenovo.safecenter
p815
(dp816
g10
F18.899999999999999
ssVcom.chaozh.iReaderFree
p817
(dp818
g10
I1
ssVcom.tencent.mobileqq
p819
(dp820
g10
I1
sssg85
(dp821
Vcom.tencent.mm
p822
(dp823
g10
F0.90000000000000002
ssVcom.tencent.mobileqq
p824
(dp825
g10
I1
sssg87
(dp826
Vcom.android.settings
p827
(dp828
g10
I1
ssVcom.sankuai.meituan
p829
(dp830
g10
F7
ssg314
(dp831
g10
F1.8999999999999999
ssVcom.UCMobile
p832
(dp833
g10
F1.8999999999999999
ssg514
(dp834
g10
F2.8999999999999999
ssVcom.autonavi.minimap
p835
(dp836
g10
F3.8999999999999999
ssVcom.tencent.mm
p837
(dp838
g10
F3.7000000000000002
ssg527
(dp839
g10
F2.5999999999999996
sssg89
(dp840
g8
(dp841
g10
F0.90000000000000002
ssg464
(dp842
g10
F0.69999999999999996
ssg139
(dp843
g10
F3.6999999999999997
ssVcom.storm.smart
p844
(dp845
g10
F8.5
ssVcom.android.contacts
p846
(dp847
g10
F1.3
ssVcn.kuwo.player
p848
(dp849
g10
F8.5
ssVcom.estrongs.android.taskmanager
p850
(dp851
g10
I1
ssg232
(dp852
g10
I2
ssVcom.android.gallery3d
p853
(dp854
g10
F6.4000000000000004
ssVcom.jingdong.app.mall
p855
(dp856
g10
I1
ssVcom.android.phone
p857
(dp858
g10
F0.69999999999999996
ssVcom.tencent.mobileqq
p859
(dp860
g10
F6.1000000000000005
ssg81
(dp861
g10
F3
ssg117
(dp862
g10
F8
ssVcom.pp.assistant
p863
(dp864
g10
F1.1000000000000001
ssg99
(dp865
g10
F1.7
ssg101
(dp866
g10
F16.400000000000002
ssg105
(dp867
g10
F31.899999999999988
ssVcom.MobileTicket
p868
(dp869
g10
F0.90000000000000002
ssg507
(dp870
g10
F5
ssg119
(dp871
g10
I1
ssVcom.qidian.QDReader
p872
(dp873
g10
F9.1000000000000014
ssg266
(dp874
g10
F1.3
ssVcom.android.bluetooth
p875
(dp876
g10
F6.1000000000000005
sssg91
(dp877
Vcom.xunlei.downloadprovider
p878
(dp879
g10
F0.80000000000000004
ssg11
(dp880
g10
F0.90000000000000002
ssVcom.wandoujia.phoenix2
p881
(dp882
g10
F1.7
ssg150
(dp883
g10
F0.69999999999999996
ssVcom.lenovo.safecenter
p884
(dp885
g10
F0.90000000000000002
ssVcom.chaozh.iReaderFree
p886
(dp887
g10
I1
sssg93
(dp888
Vcom.MobileTicket
p889
(dp890
g10
I2
ssVcom.android.gallery3d
p891
(dp892
g10
F0.90000000000000002
ssVcom.android.mms
p893
(dp894
g10
F3.8999999999999999
ssVcom.qidian.QDReader
p895
(dp896
g10
I1
ssVcom.lenovo.safecenter
p897
(dp898
g10
F0.40000000000000002
ssVcom.UCMobile
p899
(dp900
g10
I3
ssVcom.chaozh.iReaderFree
p901
(dp902
g10
F4.7000000000000002
ssVcom.android.phone
p903
(dp904
g10
F2.7999999999999998
ssVcom.autonavi.minimap
p905
(dp906
g10
I1
ssVcom.tencent.mm
p907
(dp908
g10
F9
ssVcom.android.contacts
p909
(dp910
g10
F1.6000000000000001
ssVtv.danmaku.bili
p911
(dp912
g10
I1
sssg95
(dp913
Vcom.android.settings
p914
(dp915
g10
F1.7
ssVcom.tencent.mm
p916
(dp917
g10
F0.40000000000000002
ssg418
(dp918
g10
F0.90000000000000002
sssg97
(dp919
Vcom.android.settings
p920
(dp921
g10
I2
sssg99
(dp922
Vcom.xunlei.downloadprovider
p923
(dp924
g10
F1.8999999999999999
ssVcom.android.fileexplorer
p925
(dp926
g10
F1.7
ssg81
(dp927
g10
F0.40000000000000002
sssg101
(dp928
g11
(dp929
g10
F2.1000000000000001
ssVcom.wandoujia.phoenix2
p930
(dp931
g10
F0.90000000000000002
ssg17
(dp932
g10
F2.5999999999999996
ssVcom.android.mms
p933
(dp934
g10
F15.1
ssg25
(dp935
g10
F0.40000000000000002
ssg219
(dp936
g10
F12.200000000000001
ssVcom.android.notepad
p937
(dp938
g10
I4
ssVcom.storm.smart
p939
(dp940
g10
F0.40000000000000002
ssVcom.android.contacts
p941
(dp942
g10
F10.800000000000001
ssVcn.kuwo.player
p943
(dp944
g10
F10.000000000000002
ssVcn.wps.moffice_eng
p945
(dp946
g10
F1.8999999999999999
ssVcom.sankuai.meituan
p947
(dp948
g10
F0.90000000000000002
ssVcom.android.gallery3d
p949
(dp950
g10
I1
ssVcom.jingdong.app.mall
p951
(dp952
g10
I2
ssg61
(dp953
g10
F0.69999999999999996
ssg702
(dp954
g10
F0.40000000000000002
ssVcom.android.phone
p955
(dp956
g10
F13.600000000000001
ssVcom.tencent.mobileqq
p957
(dp958
g10
F18.099999999999998
ssg123
(dp959
g10
F1.8
ssVcom.android.fileexplorer
p960
(dp961
g10
F13.9
ssg863
(dp962
g10
F1.8999999999999999
ssVsina.mobile.tianqitong
p963
(dp964
g10
I6
ssVme.abitno.vplayer.t
p965
(dp966
g10
I1
ssVcom.xunlei.downloadprovider
p967
(dp968
g10
F34.999999999999993
ssg448
(dp969
g10
I1
ssVcom.tencent.mm
p970
(dp971
g10
F74
ssg872
(dp972
g10
F12.700000000000001
ssg815
(dp973
g10
F8.2000000000000011
ssg266
(dp974
g10
F0.69999999999999996
ssVcom.android.settings
p975
(dp976
g10
F4.2000000000000002
ssVcom.autonavi.minimap
p977
(dp978
g10
F6.2999999999999998
sssg103
(dp979
Vcom.tencent.mm
p980
(dp981
g10
F0.90000000000000002
ssVcom.chaozh.iReaderFree
p982
(dp983
g10
I1
sssg105
(dp984
g8
(dp985
g10
I1
ssg850
(dp986
g10
F0.90000000000000002
ssg15
(dp987
g10
F8.2000000000000011
ssVcom.android.fileexplorer
p988
(dp989
g10
F37.099999999999994
ssg141
(dp990
g10
F1.3999999999999999
ssg875
(dp991
g10
F6
ssg119
(dp992
g10
F0.90000000000000002
ssg401
(dp993
g10
F3.7999999999999998
ssVcom.android.contacts
p994
(dp995
g10
F1.3
ssVcom.UCMobile
p996
(dp997
g10
F2.2999999999999998
ssg81
(dp998
g10
F0.90000000000000002
ssVcom.android.settings
p999
(dp1000
g10
F4.5999999999999996
ssg844
(dp1001
g10
F3.1000000000000001
ssVcom.tencent.mm
p1002
(dp1003
g10
F10.000000000000002
ssVcom.lenovo.safecenter
p1004
(dp1005
g10
F11
ssVcom.chaozh.iReaderFree
p1006
(dp1007
g10
F11.600000000000001
sssg107
(dp1008
sg109
(dp1009
Vcom.xunlei.downloadprovider
p1010
(dp1011
g10
F3
ssg712
(dp1012
g10
F2.6000000000000001
ssg718
(dp1013
g10
F0.90000000000000002
ssVcom.android.settings
p1014
(dp1015
g10
F0.69999999999999996
sssg111
(dp1016
g569
(dp1017
g10
F0.40000000000000002
ssVcom.tencent.mm
p1018
(dp1019
g10
F0.90000000000000002
ssVcom.jingdong.app.mall
p1020
(dp1021
g10
F1.7
sssg113
(dp1022
Vcom.baidu.tieba
p1023
(dp1024
g10
I1
ssVcom.tencent.mm
p1025
(dp1026
g10
I1
ssg206
(dp1027
g10
F2.2000000000000002
ssVcom.ss.android.article.news
p1028
(dp1029
g10
I2
ssg208
(dp1030
g10
F1.3999999999999999
sssg115
(dp1031
Vcom.android.browser
p1032
(dp1033
g10
F1.8999999999999999
ssg103
(dp1034
g10
F0.90000000000000002
ssVcom.MobileTicket
p1035
(dp1036
g10
I1
ssVcom.tencent.mobileqq
p1037
(dp1038
g10
I1
ssVcom.sankuai.meituan
p1039
(dp1040
g10
F1.7
ssVcom.qidian.QDReader
p1041
(dp1042
g10
F0.69999999999999996
ssVcom.android.mms
p1043
(dp1044
g10
I1
ssVcom.dianping.v1
p1045
(dp1046
g10
F0.90000000000000002
ssg33
(dp1047
g10
F0.90000000000000002
ssVcom.android.notepad
p1048
(dp1049
g10
I1
ssg980
(dp1050
g10
F5.2999999999999998
ssVcom.android.contacts
p1051
(dp1052
g10
F0.90000000000000002
ssVcom.chaozh.iReaderFree
p1053
(dp1054
g10
F1.7
sssg117
(dp1055
g751
(dp1056
g10
F1.7
ssg15
(dp1057
g10
F11
ssg213
(dp1058
g10
F9.1999999999999993
ssVcom.android.mms
p1059
(dp1060
g10
F68.399999999999991
ssg25
(dp1061
g10
F13.1
ssg652
(dp1062
g10
F3.2999999999999998
ssg611
(dp1063
g10
F60.999999999999986
ssg31
(dp1064
g10
F5.2000000000000002
ssVcom.android.notepad
p1065
(dp1066
g10
F6.7000000000000002
ssg939
(dp1067
g10
F0.69999999999999996
ssg39
(dp1068
g10
F122.30000000000011
ssg41
(dp1069
g10
F2.2999999999999998
ssg229
(dp1070
g10
F3.9000000000000004
ssVcom.android.bluetooth
p1071
(dp1072
g10
F1.6000000000000001
ssVcom.sankuai.meituan
p1073
(dp1074
g10
F24.799999999999997
ssg622
(dp1075
g10
F24.899999999999999
ssVcom.jingdong.app.mall
p1076
(dp1077
g10
F8.7000000000000011
ssVmindware.mindgamespro
p1078
(dp1079
g10
I2
ssg65
(dp1080
g10
F1.3
ssg335
(dp1081
g10
F80.000000000000043
ssg69
(dp1082
g10
F0.90000000000000002
ssVcom.tencent.mobileqq
p1083
(dp1084
g10
F63.20000000000001
ssg73
(dp1085
g10
F41.499999999999993
ssVcom.MobileTicket
p1086
(dp1087
g10
F50.099999999999987
ssg85
(dp1088
g10
I1
ssg87
(dp1089
g10
F10.800000000000001
ssVcom.android.fileexplorer
p1090
(dp1091
g10
F14.500000000000002
ssg632
(dp1092
g10
F16.699999999999999
ssg97
(dp1093
g10
F2.3999999999999999
ssg59
(dp1094
g10
F2.3999999999999999
ssg101
(dp1095
g10
F29.899999999999991
ssVcom.xunlei.downloadprovider
p1096
(dp1097
g10
F19.399999999999999
ssg107
(dp1098
g10
I1
ssg448
(dp1099
g10
F6
ssg999
(dp1100
g10
F35.899999999999991
ssg679
(dp1101
g10
F114.10000000000005
ssVcom.baidu.tieba
p1102
(dp1103
g10
F3.2999999999999998
ssVcom.jd.mobiledd.sdk
p1104
(dp1105
g10
F3.2000000000000002
ssg232
(dp1106
g10
F0.69999999999999996
ssVcom.autonavi.minimap
p1107
(dp1108
g10
F77.000000000000014
sssg119
(dp1109
Vcom.tencent.mm
p1110
(dp1111
g10
I1
sssg121
(dp1112
Vcn.kuwo.player
p1113
(dp1114
g10
F0.90000000000000002
ssVcom.MobileTicket
p1115
(dp1116
g10
F7.7000000000000002
ssVcom.android.gallery3d
p1117
(dp1118
g10
F1.3
ssg280
(dp1119
g10
F4.7000000000000002
ssVcom.jd.mobiledd.sdk
p1120
(dp1121
g10
F0.90000000000000002
ssVcom.android.fileexplorer
p1122
(dp1123
g10
F1.3999999999999999
ssVcom.tencent.mobileqq
p1124
(dp1125
g10
F2.7000000000000002
ssg440
(dp1126
g10
I4
ssg411
(dp1127
g10
F8.1000000000000014
ssVcom.jingdong.app.mall
p1128
(dp1129
g10
F1.7
ssVcom.lenovo.safecenter
p1130
(dp1131
g10
F4.9000000000000004
ssVcom.UCMobile
p1132
(dp1133
g10
F5.6000000000000005
ssg316
(dp1134
g10
F1.7
ssVcom.android.phone
p1135
(dp1136
g10
F19.199999999999996
ssVcom.autonavi.minimap
p1137
(dp1138
g10
F3.7000000000000002
ssVcom.sankuai.meituan
p1139
(dp1140
g10
F2.2999999999999998
ssVcom.sdu.didi.psnger
p1141
(dp1142
g10
I1
ssVcom.tencent.mm
p1143
(dp1144
g10
F63.199999999999982
ssVcom.android.contacts
p1145
(dp1146
g10
F36.899999999999999
ssVcom.chaozh.iReaderFree
p1147
(dp1148
g10
F8.6999999999999993
ssg455
(dp1149
g10
I5
sssg123
(dp1150
g61
(dp1151
g10
I1
ssVcom.UCMobile
p1152
(dp1153
g10
I1
ssg590
(dp1154
g10
F1.8999999999999999
ssVcom.qidian.QDReader
p1155
(dp1156
g10
F0.90000000000000002
sssg125
(dp1157
g1035
(dp1158
g10
F0.69999999999999996
ssVcom.android.fileexplorer
p1159
(dp1160
g10
F1.3
ssVcom.android.calendar
p1161
(dp1162
g10
F0.90000000000000002
ssVcom.android.settings
p1163
(dp1164
g10
I1
ssg751
(dp1165
g10
F0.40000000000000002
ssVcom.UCMobile
p1166
(dp1167
g10
I1
ssVcom.tencent.mm
p1168
(dp1169
g10
F2.2999999999999998
ssVcom.chaozh.iReaderFree
p1170
(dp1171
g10
F0.69999999999999996
sssg127
(dp1172
Vcom.lenovo.safecenter
p1173
(dp1174
g10
F0.90000000000000002
ssg575
(dp1175
g10
F2.6000000000000001
ssVcom.jingdong.app.mall
p1176
(dp1177
g10
F10.799999999999999
ssg227
(dp1178
g10
F1.3
ssg57
(dp1179
g10
F0.69999999999999996
sssg129
(dp1180
Vcom.wandoujia.phoenix2
p1181
(dp1182
g10
F0.90000000000000002
ssVcom.qidian.QDReader
p1183
(dp1184
g10
F5.1000000000000005
ssVcom.android.deskclock
p1185
(dp1186
g10
F2.7000000000000002
ssVcom.UCMobile
p1187
(dp1188
g10
F3.7999999999999998
ssVcom.douban.movie
p1189
(dp1190
g10
I1
ssVcom.android.notepad
p1191
(dp1192
g10
I1
ssVcom.android.contacts
p1193
(dp1194
g10
F6.7000000000000002
ssg619
(dp1195
g10
F0.69999999999999996
ssVcom.estrongs.android.taskmanager
p1196
(dp1197
g10
F6.1000000000000005
ssg49
(dp1198
g10
F23.899999999999999
ssVcom.sankuai.meituan
p1199
(dp1200
g10
F2.2999999999999998
ssg422
(dp1201
g10
F2.7000000000000002
ssVcom.autonavi.minimap
p1202
(dp1203
g10
F3.2999999999999998
ssVcom.tencent.mm
p1204
(dp1205
g10
F26.799999999999994
ssVcom.lenovo.safecenter
p1206
(dp1207
g10
F2.6000000000000001
ssVcom.android.phone
p1208
(dp1209
g10
F3.1000000000000001
ssg97
(dp1210
g10
F2.7999999999999998
ssg505
(dp1211
g10
F12.500000000000002
ssg298
(dp1212
g10
F1.3
ssg95
(dp1213
g10
I1
ssVcom.chaozh.iReaderFree
p1214
(dp1215
g10
I1
ssg105
(dp1216
g10
F6.5000000000000009
ssg113
(dp1217
g10
I1
ssg1161
(dp1218
g10
F0.40000000000000002
ssg529
(dp1219
g10
F5.7999999999999998
ssVcom.android.mms
p1220
(dp1221
g10
F1.3999999999999999
ssVcom.baidu.tieba
p1222
(dp1223
g10
F0.90000000000000002
ssssS'edge'
p1224
g135
sS'graph'
p1225
(dp1226
sS'adjlist_dict_factory'
p1227
g132
sS'adj'
p1228
g135
sS'pred'
p1229
(dp1230
g8
(dp1231
Vcom.storm.smart
p1232
g399
sVcom.android.fileexplorer
p1233
g841
sVcom.youdao.dict
p1234
g187
sVcom.xunlei.downloadprovider
p1235
g985
ssg11
(dp1236
g1035
g752
sVcom.android.calendar
p1237
g1033
sVcom.UCMobile
p1238
g308
sg1222
g1165
sg863
g880
sVcom.tencent.mm
p1239
g1056
sg492
g929
ssg13
(dp1240
sg15
(dp1241
g1096
g987
sg79
g754
sVcom.qidian.QDReader
p1242
g212
sVcom.android.contacts
p1243
g408
sVcom.tencent.mobileqq
p1244
g648
sg174
g1119
sg25
g281
sg169
g310
sg91
g882
sVcom.android.settings
p1245
g1182
sg59
g587
sVcom.tencent.mm
p1246
g1057
sg183
g684
sVcom.chaozh.iReaderFree
p1247
g931
ssg17
(dp1248
Vcom.UCMobile
p1249
g311
sVcom.tencent.mm
p1250
g1058
sVcom.tencent.mobileqq
p1251
g649
sVcom.qidian.QDReader
p1252
g214
sVcom.chaozh.iReaderFree
p1253
g932
ssg19
(dp1254
Vcom.android.contacts
p1255
g410
sVcom.zhihu.daily.android
p1256
g1029
ssg21
(dp1257
g211
g166
sVcom.youdao.dict
p1258
g197
sVcom.autonavi.minimap
p1259
g607
sg217
g303
sg611
g334
sg31
g369
sg35
g381
sg37
g402
sg1145
g412
sVcom.android.bluetooth
p1260
g504
sVcom.sankuai.meituan
p1261
g517
sVcom.android.gallery3d
p1262
g541
sg514
g808
sg242
g1101
sVcom.lenovo.safecenter
p1263
g727
sg75
g735
sVcom.aibang.nextbus
p1264
g743
sg1159
g873
sg250
g896
sg1170
g972
sg397
g993
sVcom.MobileTicket
p1265
g758
sVcom.android.calendar
p1266
g1042
sg262
g680
sVcom.android.mms
p1267
g1127
sVcom.youdao.note
p1268
g1156
sVcom.android.settings
p1269
g1184
ssg23
(dp1270
Vcom.android.contacts
p1271
g454
ssg25
(dp1272
g930
g176
sVcom.autonavi.minimap
p1273
g609
sVcom.android.mms
p1274
g1142
sVcom.dianping.v1
p1275
g831
sVcom.UCMobile
p1276
g315
sg287
g813
sg289
g749
sg285
g414
sVcom.tencent.mm
p1277
g1061
sg183
g687
sg1247
g935
ssg27
(dp1278
Vcom.android.gallery3d
p1279
g545
sg304
g1186
sVcom.qidian.QDReader
p1280
g218
sg67
g610
sVcom.tencent.mm
p1281
g1062
sVcom.lenovo.safecenter
p1282
g689
sVcom.tencent.mobileqq
p1283
g653
ssg29
(dp1284
g8
g140
sg13
g156
sVcom.wandoujia.phoenix2
p1285
g170
sVcom.youdao.dict
p1286
g195
sg1259
g612
sVcom.android.notepad
p1287
g386
sg1232
g400
sVcom.android.contacts
p1288
g415
sg45
g487
sg234
g522
sg330
g547
sg238
g573
sVcom.qidian.QDReader
p1289
g220
sg1135
g807
sVcom.tencent.mm
p1290
g1063
sg1130
g691
sg341
g740
sg81
g784
sVcom.dianping.v1
p1291
g833
sg1233
g843
sVsina.mobile.tianqitong
p1292
g900
sg253
g936
sVcom.tencent.mobileqq
p1293
g655
sVcom.xunlei.downloadprovider
p1294
g997
sVcom.MobileTicket
p1295
g766
sVcom.android.settings
p1296
g1188
sVcom.android.mms
p1297
g1133
sVcom.youdao.note
p1298
g1153
sg125
g1167
ssg31
(dp1299
Vcom.qidian.QDReader
p1300
g222
sVcom.MobileTicket
p1301
g768
sVcom.tencent.mm
p1302
g1064
sVcom.lenovo.safecenter
p1303
g692
sVcom.android.settings
p1304
g1190
ssg33
(dp1305
Vcom.android.calendar
p1306
g1047
sVcom.autonavi.minimap
p1307
g614
sVcom.sankuai.meituan
p1308
g523
ssg35
(dp1309
Vcom.MobileTicket
p1310
g771
sVcom.android.gallery3d
p1311
g551
sg1266
g1049
sVcom.autonavi.minimap
p1312
g616
sVcom.android.mms
p1313
g1134
sVcom.android.contacts
p1314
g417
sVcom.UCMobile
p1315
g317
sVcom.qidian.QDReader
p1316
g224
sVcom.android.settings
p1317
g1192
sVcom.tencent.mm
p1318
g1066
sVcom.lenovo.safecenter
p1319
g694
sVcom.chaozh.iReaderFree
p1320
g938
ssg37
(dp1321
Vcom.xunlei.downloadprovider
p1322
g1001
sVcom.android.fileexplorer
p1323
g845
sVcom.tencent.mm
p1324
g1067
sVcom.chaozh.iReaderFree
p1325
g940
sg783
g319
ssg39
(dp1326
g186
g144
sg1181
g168
sg1234
g202
sg1028
g207
sVcom.qidian.QDReader
p1327
g226
sVcom.sdu.didi.psnger
p1328
g286
sVcom.UCMobile
p1329
g321
sVcom.android.notepad
p1330
g377
sVcn.kuwo.player
p1331
g475
sVcom.estrongs.android.taskmanager
p1332
g491
sVcom.sankuai.meituan
p1333
g528
sVuniqueName.photoAlbumManager
p1334
g794
sg65
g605
sg665
g806
sVcom.tencent.mobileqq
p1335
g656
sg668
g696
sg289
g747
sVcom.android.calculator
p1336
g598
sVcom.dianping.v1
p1337
g839
sVcom.android.fileexplorer
p1338
g847
sVsina.mobile.tianqitong
p1339
g910
sVcom.chaozh.iReaderFree
p1340
g942
sVcom.xunlei.downloadprovider
p1341
g995
sVcom.MobileTicket
p1342
g764
sg1256
g1027
sVcom.android.calendar
p1343
g1052
sVcom.tencent.mm
p1344
g1068
sg1267
g1146
sg23
g274
sVcom.android.settings
p1345
g1194
sVcom.autonavi.minimap
p1346
g618
ssg41
(dp1347
Vcom.tencent.mm
p1348
g1069
sVcom.qidian.QDReader
p1349
g228
sVcom.jingdong.app.mall
p1350
g579
sg57
g582
sVcom.UCMobile
p1351
g323
sg268
g1178
sVcom.tencent.mobileqq
p1352
g657
ssg43
(dp1353
g468
g849
sVcom.tencent.mobileqq
p1354
g658
sVcom.qidian.QDReader
p1355
g230
sVcom.android.mms
p1356
g1114
sVcom.UCMobile
p1357
g324
sg464
g620
sVcom.tencent.mm
p1358
g1070
sVcom.chaozh.iReaderFree
p1359
g944
sg478
g1195
ssg45
(dp1360
Vcom.xunlei.downloadprovider
p1361
g986
sVcom.android.fileexplorer
p1362
g851
sg483
g1197
sVcom.qidian.QDReader
p1363
g231
sVcom.UCMobile
p1364
g325
sVcom.android.bluetooth
p1365
g500
ssg47
(dp1366
Vcom.tencent.mobileqq
p1367
g659
sVcom.chaozh.iReaderFree
p1368
g946
ssg49
(dp1369
g105
g991
sg13
g158
sVcom.android.fileexplorer
p1370
g876
sVcom.android.settings
p1371
g1198
sVcom.UCMobile
p1372
g327
sg95
g918
sVcom.tencent.mm
p1373
g1072
sVcom.android.contacts
p1374
g419
sVcom.tencent.mobileqq
p1375
g682
ssg51
(dp1376
Vtv.danmaku.bili
p1377
g736
sVcom.android.calendar
p1378
g1040
sg537
g621
sg514
g801
sg53
g539
sg518
g1140
sg1291
g830
sVcom.UCMobile
p1379
g329
sVcom.qidian.QDReader
p1380
g235
sg129
g1200
sVcom.tencent.mm
p1381
g1074
sg527
g421
sVcom.chaozh.iReaderFree
p1382
g948
ssg53
(dp1383
g1332
g485
sg438
g854
sg535
g786
sVcom.autonavi.minimap
p1384
g623
sVcom.android.phone
p1385
g812
sVcom.android.mms
p1386
g1118
sVcom.lenovo.safecenter
p1387
g699
sVcom.UCMobile
p1388
g331
sVsina.mobile.tianqitong
p1389
g892
sVcom.qidian.QDReader
p1390
g237
sVcom.android.settings
p1391
g1201
sVcom.baidu.stu
p1392
g585
sVcom.tencent.mm
p1393
g1075
sg490
g423
sVcom.chaozh.iReaderFree
p1394
g950
sVcom.tencent.mobileqq
p1395
g662
ssg55
(dp1396
g111
g1021
sg565
g856
sVcom.autonavi.minimap
p1397
g624
sVcom.qidian.QDReader
p1398
g239
sg569
g1129
sVcom.UCMobile
p1399
g332
sg127
g1177
sg575
g1077
sg1173
g701
sVcom.chaozh.iReaderFree
p1400
g952
ssg57
(dp1401
g227
g460
sg1350
g571
sg268
g1179
ssg59
(dp1402
Vcom.tencent.mm
p1403
g1094
sg584
g543
sVcom.qidian.QDReader
p1404
g252
sVcom.lenovo.safecenter
p1405
g717
sVcom.wandoujia.phoenix2
p1406
g180
ssg61
(dp1407
Vcom.tencent.mm
p1408
g1079
sg937
g384
sg1320
g953
sg123
g1151
ssg63
(dp1409
Vcom.android.contacts
p1410
g434
ssg65
(dp1411
Vcom.lenovo.safecenter
p1412
g703
sVcom.tencent.mm
p1413
g1080
sVcom.android.contacts
p1414
g424
sVcom.chaozh.iReaderFree
p1415
g954
sVcom.android.phone
p1416
g800
ssg67
(dp1417
g640
g1138
sVcom.sdu.didi.psnger
p1418
g283
sg27
g297
sg739
g313
sg613
g372
sVcom.android.contacts
p1419
g458
sVcn.kuwo.player
p1420
g465
sVcom.sankuai.meituan
p1421
g513
sg53
g538
sg238
g568
sVcom.android.phone
p1422
g810
sVcom.tencent.mm
p1423
g1108
sVcom.lenovo.safecenter
p1424
g731
sg1377
g733
sg1291
g836
sVcom.android.fileexplorer
p1425
g842
sVsina.mobile.tianqitong
p1426
g906
sVcom.chaozh.iReaderFree
p1427
g978
sVcom.tencent.mobileqq
p1428
g651
sVcom.MobileTicket
p1429
g775
sg975
g1203
sVcom.qidian.QDReader
p1430
g216
ssg69
(dp1431
Vmindware.mindgamespro
p1432
g589
sVcom.tencent.mm
p1433
g1082
ssg71
(dp1434
g43
g473
sg661
g563
sVcom.youdao.dict
p1435
g191
sg611
g358
sg675
g1038
sg129
g1219
sVcom.sankuai.meituan
p1436
g530
sg21
g263
sg1297
g1125
sVcom.vnes.supermr
p1437
g825
sg89
g860
sg31
g365
sVcom.android.phone
p1438
g820
sg535
g792
sVcom.android.notepad
p1439
g379
sg1259
g636
sg117
g1084
sVcom.android.contacts
p1440
g428
sg101
g958
sVcom.android.bluetooth
p1441
g502
ssg73
(dp1442
Vcom.xunlei.downloadprovider
p1443
g1005
sg1295
g779
sVcom.qidian.QDReader
p1444
g245
sg698
g559
sg930
g184
sg1120
g1174
sg63
g600
sg1107
g628
sg1423
g1085
sVcom.android.mms
p1445
g1131
sVcom.jingdong.app.mall
p1446
g578
sg25
g294
sVcom.UCMobile
p1447
g340
sVsina.mobile.tianqitong
p1448
g898
sg91
g885
sVcom.android.notepad
p1449
g383
sg955
g816
sVcom.tencent.mobileqq
p1450
g669
sg1243
g430
sVcom.chaozh.iReaderFree
p1451
g973
sg1245
g1207
ssg75
(dp1452
Vcom.UCMobile
p1453
g342
sVsina.mobile.tianqitong
p1454
g912
ssg77
(dp1455
Vcom.UCMobile
p1456
g344
sVcom.android.phone
p1457
g802
sVcom.qidian.QDReader
p1458
g247
sVcom.lenovo.safecenter
p1459
g708
sg1328
g290
ssg79
(dp1460
g309
g164
sg1258
g189
sVcom.android.fileexplorer
p1461
g869
sg1161
g1036
sg761
g1116
sg759
g799
sVcom.qidian.QDReader
p1462
g258
sVcom.android.contacts
p1463
g432
sg169
g355
sVsina.mobile.tianqitong
p1464
g890
sg1222
g1158
sVcom.android.notepad
p1465
g375
sVcom.autonavi.minimap
p1466
g638
sVcom.sdu.didi.psnger
p1467
g279
sVcom.tencent.mm
p1468
g1087
sVcom.lenovo.safecenter
p1469
g709
ssg81
(dp1470
g923
g998
sg925
g861
sVcom.android.gallery3d
p1471
g536
sg99
g927
ssg83
(dp1472
g186
g146
sVcom.youdao.dict
p1473
g199
sg1028
g209
sVcom.autonavi.minimap
p1474
g625
sg1328
g288
sg1329
g336
sg1330
g390
sVcom.android.contacts
p1475
g426
sVcn.kuwo.player
p1476
g471
sg1261
g515
sg1445
g1136
sg1334
g790
sVcom.tencent.mm
p1477
g1081
sg23
g276
sg289
g744
sg1336
g602
sg1337
g834
sg1338
g858
sg1339
g904
sg1451
g956
sg1450
g666
sVcom.MobileTicket
p1478
g760
sg1256
g1030
sg724
g1209
sVcom.qidian.QDReader
p1479
g241
sg339
g705
ssg85
(dp1480
Vcom.tencent.mm
p1481
g1088
sVcom.android.contacts
p1482
g435
ssg87
(dp1483
g1378
g1046
sVcom.autonavi.minimap
p1484
g629
sVcom.sankuai.meituan
p1485
g520
sVcom.android.contacts
p1486
g437
sVcom.UCMobile
p1487
g346
sVcom.tencent.mm
p1488
g1089
sVcom.lenovo.safecenter
p1489
g711
sg322
g462
sg1352
g670
ssg89
(dp1490
g11
g151
sg15
g178
sg464
g631
sg654
g348
sg37
g404
sg490
g439
sg943
g469
sg850
g482
sg109
g1012
sg422
g534
sVcom.jingdong.app.mall
p1491
g566
sg117
g1091
sVcom.lenovo.safecenter
p1492
g713
sg81
g788
sg863
g883
sg99
g926
sg101
g961
sg71
g671
sg105
g989
sVcom.MobileTicket
p1493
g756
sg1356
g1123
sg1371
g1211
sVcom.qidian.QDReader
p1494
g249
sg125
g1160
sg49
g506
ssg91
(dp1495
g481
g864
sVcom.wandoujia.phoenix2
p1496
g179
sVcom.lenovo.safecenter
p1497
g714
sg492
g962
ssg93
(dp1498
Vcom.MobileTicket
p1499
g773
sVcom.android.gallery3d
p1500
g549
sVcom.autonavi.minimap
p1501
g633
sg304
g1212
sVcom.qidian.QDReader
p1502
g251
sVcom.android.mms
p1503
g1126
sVcom.android.contacts
p1504
g441
sg1185
g299
sVcom.UCMobile
p1505
g350
sVcom.android.phone
p1506
g804
sVcom.tencent.mm
p1507
g1092
sVcom.lenovo.safecenter
p1508
g716
sVcom.chaozh.iReaderFree
p1509
g964
sVcom.tencent.mobileqq
p1510
g672
ssg95
(dp1511
Vcom.android.settings
p1512
g1213
sg1374
g442
ssg97
(dp1513
Vcom.android.settings
p1514
g1210
sVcom.android.gallery3d
p1515
g555
sVcom.tencent.mm
p1516
g1093
ssg99
(dp1517
Vcom.storm.smart
p1518
g405
sVcom.android.fileexplorer
p1519
g865
sVcom.chaozh.iReaderFree
p1520
g966
ssg101
(dp1521
g1294
g1007
sVcn.kuwo.player
p1522
g477
sVcom.android.gallery3d
p1523
g561
sVru.zdevs.zarchiver
p1524
g1013
sg103
g983
sVcom.android.fileexplorer
p1525
g866
sg115
g1054
sg1083
g673
sVcom.android.phone
p1526
g818
sg1289
g254
sg933
g1148
sg850
g493
sVcom.lenovo.safecenter
p1527
g719
sg219
g352
sg125
g1171
sg863
g887
sVsina.mobile.tianqitong
p1528
g902
sVcom.autonavi.minimap
p1529
g635
sg117
g1095
sVcom.android.contacts
p1530
g444
sg478
g1215
ssg103
(dp1531
g675
g1034
sVcom.tencent.mobileqq
p1532
g674
ssg105
(dp1533
g8
g138
sg11
g149
sVcom.android.gallery3d
p1534
g533
sg15
g163
sg505
g867
sg49
g498
sVcom.android.phone
p1535
g797
sVcom.qidian.QDReader
p1536
g256
sg99
g924
sVcom.android.contacts
p1537
g446
sg1187
g354
sg91
g879
sg109
g1011
sg507
g1216
sg37
g398
sg1246
g1097
sg1004
g721
sVcom.chaozh.iReaderFree
p1538
g968
ssg107
(dp1539
Vcom.tencent.mm
p1540
g1098
sVcom.android.contacts
p1541
g447
sVcom.lenovo.safecenter
p1542
g722
ssg109
(dp1543
g647
g173
sg1244
g660
sVcom.qidian.QDReader
p1544
g233
sVcom.android.fileexplorer
p1545
g852
sVcom.tencent.mm
p1546
g1106
sg1492
g697
ssg111
(dp1547
Vcom.qidian.QDReader
p1548
g259
ssg113
(dp1549
Vcom.android.settings
p1550
g1217
ssg115
(dp1551
g1235
g990
sg8
g142
sVcom.wandoujia.phoenix2
p1552
g172
sg1532
g676
sVcom.qidian.QDReader
p1553
g261
sVcom.lenovo.safecenter
p1554
g723
sg139
g356
sg1222
g1162
sg1163
g1218
sVcom.tencent.mm
p1555
g1099
sVcom.android.contacts
p1556
g449
sVcom.chaozh.iReaderFree
p1557
g969
ssg117
(dp1558
Vcom.android.browser
p1559
g153
sVcom.wandoujia.phoenix2
p1560
g182
sVcom.youdao.dict
p1561
g201
sg19
g205
sg21
g243
sg1418
g292
sVcom.android.deskclock
p1562
g301
sg29
g338
sVcom.douban.movie
p1563
g367
sg35
g392
sg1440
g451
sg499
g489
sg103
g981
sVcom.android.bluetooth
p1564
g510
sVcom.sankuai.meituan
p1565
g526
sg661
g557
sg55
g576
sg61
g591
sg1135
g814
sg69
g645
sg71
g667
sg1130
g707
sg75
g738
sg1264
g746
sVcom.android.calculator
p1566
g596
sg1437
g823
sVcom.dianping.v1
p1567
g838
sg89
g862
sVsina.mobile.tianqitong
p1568
g908
sg95
g917
sg101
g971
sg945
g496
sg1294
g1003
sg1265
g777
sg111
g1019
sg113
g1026
sg675
g1050
sg975
g1205
sg119
g1111
sg121
g1144
sg123
g1154
sg1102
g1169
sg127
g1175
sVcom.autonavi.minimap
p1569
g627
ssg119
(dp1570
Vcom.xunlei.downloadprovider
p1571
g992
sVcom.android.fileexplorer
p1572
g871
ssg121
(dp1573
g171
g1044
sg1295
g762
sVcom.sankuai.meituan
p1574
g519
sg930
g175
sVcom.youdao.dict
p1575
g193
sg1336
g594
sVcom.tencent.mobileqq
p1576
g664
sg440
g894
sVcom.qidian.QDReader
p1577
g265
sg1020
g570
sg1130
g686
sVcom.UCMobile
p1578
g359
sg1331
g467
sg111
g1017
sg1135
g805
sVcom.autonavi.minimap
p1579
g641
sg25
g284
sVcom.tencent.mm
p1580
g1060
sg225
g453
sVcom.chaozh.iReaderFree
p1581
g934
sg1245
g1221
ssg123
(dp1582
g937
g393
sg1320
g959
ssg125
(dp1583
Vcom.MobileTicket
p1584
g769
sVcom.zhihu.daily.android
p1585
g1024
sg1163
g1223
sg872
g267
sg1159
g874
sg223
g388
sVcom.tencent.mm
p1586
g1103
sg1170
g974
ssg127
(dp1587
g569
g1121
sg1349
g269
sg55
g574
sg1399
g360
sVcom.autonavi.minimap
p1588
g642
sg575
g1105
sg1173
g729
ssg129
(dp1589
g13
g160
sVcom.autonavi.minimap
p1590
g639
sg688
g305
sg1372
g362
sVcom.android.notepad
p1591
g395
sVcom.android.contacts
p1592
g456
sg1420
g479
sVcom.estrongs.android.taskmanager
p1593
g484
sg1524
g1015
sg1436
g524
sVcom.android.gallery3d
p1594
g553
sVcom.qidian.QDReader
p1595
g271
sg1438
g803
sg1373
g1100
sg1424
g725
sg87
g828
sg505
g870
sg95
g915
sg97
g921
sVcom.chaozh.iReaderFree
p1596
g976
sVcom.xunlei.downloadprovider
p1597
g1000
sg1493
g781
sg819
g678
sVcom.android.mms
p1598
g1149
sg1102
g1164
sg49
g508
sssb.