ccopy_reg
_reconstructor
p1
(cnetworkx.classes.digraph
DiGraph
p2
c__builtin__
object
p3
NtRp4
(dp5
S'node'
p6
(dp7
Vcom.android.browser
p8
(dp9
S'weight'
p10
F5.5352474322560857e-05
ssVcom.wandoujia.phoenix2
p11
(dp12
g10
F2.7362110216200186e-06
ssVcom.suning.mobile.ebuy
p13
(dp14
g10
F0.00012579130850752816
ssVme.rgmmpk.jshkjv.ksprvropjqtm
p15
(dp16
g10
F2.8106095086127079e-07
ssVcom.android.deskclock
p17
(dp18
g10
F1.5665014761238476e-05
ssVcom.sohu.inputmethod.sogou
p19
(dp20
g10
F1.1573097976640561e-07
ssVcom.android.launcher
p21
(dp22
g10
F0.021072429059844012
ssVcom.meizu.media.painter
p23
(dp24
g10
F3.7199243496344664e-07
ssVcom.eg.android.AlipayGphone
p25
(dp26
g10
F4.27295310294679e-05
ssVcn.wps.moffice_eng
p27
(dp28
g10
F3.306599421897303e-08
ssVcom.meizu.weathersearch
p29
(dp30
g10
F2.7362110216200186e-06
ssVcom.android.packageinstaller
p31
(dp32
g10
F9.4238083524073143e-07
ssVcom.sankuai.meituan
p33
(dp34
g10
F7.9523716096630152e-06
ssVcom.android.gallery3d
p35
(dp36
g10
F7.5142471862616221e-06
ssVme.ele
p37
(dp38
g10
F4.0919167845979126e-05
ssVcom.taobao.taobao
p39
(dp40
g10
F9.523006335064233e-06
ssVcom.mfw.roadbook
p41
(dp42
g10
F2.2278213605033081e-05
ssVcom.android.video
p43
(dp44
g10
F1.0994443077808533e-06
ssVcom.android.phone
p45
(dp46
g10
F0.00031973163110035976
ssVcom.tencent.mobileqq
p47
(dp48
g10
F0.0016775122852154946
ssVtv.danmaku.bili
p49
(dp50
g10
F0.00021231674888002585
ssVcom.sankuai.meituan.takeoutnew
p51
(dp52
g10
F7.0678562643054861e-06
ssVcom.xuxian.market
p53
(dp54
g10
F4.0943967341643356e-05
ssVcom.sogou.xiaop_android
p55
(dp56
g10
F3.1247364536929516e-06
ssVcom.meizu.mstore
p57
(dp58
g10
F5.7865489883202805e-08
ssVcom.android.calculator
p59
(dp60
g10
F8.2664985547432581e-08
ssVcom.ziroom.ziroomcustomer
p61
(dp62
g10
F6.8777267975463904e-05
ssVcom.dianping.v1
p63
(dp64
g10
F4.1497822744811159e-06
ssVcom.nuomi
p65
(dp66
g10
F0.00034436579679349464
ssVcom.android.fileexplorer
p67
(dp68
g10
F9.3411433668598816e-07
ssVcom.android.email
p69
(dp70
g10
F2.4799495664229776e-08
ssVcom.kaola
p71
(dp72
g10
F7.2001202411813776e-06
ssVcom.MobileTicket
p73
(dp74
g10
F6.6818107817989762e-05
ssVcom.android.calendar
p75
(dp76
g10
F1.2234417861020022e-06
ssVcom.tencent.mm
p77
(dp78
g10
F0.0017258465022650786
ssVcom.android.mms
p79
(dp80
g10
F0.00010190939418287489
ssVcom.baidu.BaiduMap
p81
(dp82
g10
F0.00012294763300469647
ssVcom.baidu.tieba
p83
(dp84
g10
F3.6232063165439697e-05
ssVcom.privatekitchen.huijia
p85
(dp86
g10
F7.257985731064581e-06
ssVcom.android.settings
p87
(dp88
g10
F0.97384272368165514
ssVcom.meizu.media.music
p89
(dp90
g10
F2.4799495664229776e-08
ssVcn.opda.a.phonoalbumshoushou
p91
(dp92
g10
F2.5626145519704102e-07
sssS'node_dict_factory'
p93
c__builtin__
dict
p94
sS'edge_attr_dict_factory'
p95
g94
sS'succ'
p96
(dp97
g8
(dp98
Vcom.MobileTicket
p99
(dp100
g10
F1.3
ssg55
(dp101
g10
F0.90000000000000002
ssVcom.suning.mobile.ebuy
p102
(dp103
g10
F0.90000000000000002
ssVcom.xuxian.market
p104
(dp105
g10
F1.3
ssVcom.android.settings
p106
(dp107
g10
F1.8
ssg31
(dp108
g10
F4.5
ssVcom.baidu.BaiduMap
p109
(dp110
g10
F5.3000000000000007
ssVcom.dianping.v1
p111
(dp112
g10
F1.3
ssg17
(dp113
g10
F0.40000000000000002
ssVcom.tencent.mobileqq
p114
(dp115
g10
F0.90000000000000002
ssg85
(dp116
g10
F0.40000000000000002
ssVcom.android.launcher
p117
(dp118
g10
F32.499999999999993
ssVcom.android.phone
p119
(dp120
g10
I1
ssg83
(dp121
g10
F0.90000000000000002
ssVcom.tencent.mm
p122
(dp123
g10
F7.6000000000000005
ssVcom.eg.android.AlipayGphone
p124
(dp125
g10
F0.69999999999999996
ssg51
(dp126
g10
F0.69999999999999996
sssg11
(dp127
Vcom.android.browser
p128
(dp129
g10
F1.1000000000000001
ssg57
(dp130
g10
F0.90000000000000002
ssg15
(dp131
g10
F3.3999999999999999
ssVcom.android.settings
p132
(dp133
g10
F2.3999999999999999
ssVcom.baidu.BaiduMap
p134
(dp135
g10
F0.90000000000000002
ssg61
(dp136
g10
F1.7
ssVcom.android.launcher
p137
(dp138
g10
F10.5
ssVcom.tencent.mm
p139
(dp140
g10
F2.6000000000000001
ssVcn.opda.a.phonoalbumshoushou
p141
(dp142
g10
F0.90000000000000002
sssg13
(dp143
Vcom.android.browser
p144
(dp145
g10
F0.90000000000000002
ssVcom.tencent.mobileqq
p146
(dp147
g10
F0.90000000000000002
ssg17
(dp148
g10
F0.90000000000000002
ssVcom.android.launcher
p149
(dp150
g10
F10.799999999999999
ssVcom.android.phone
p151
(dp152
g10
F1.3
ssVcom.tencent.mm
p153
(dp154
g10
F2.2000000000000002
ssVcom.eg.android.AlipayGphone
p155
(dp156
g10
F0.90000000000000002
sssg15
(dp157
Vcom.wandoujia.phoenix2
p158
(dp159
g10
F3.4000000000000004
ssVcom.android.launcher
p160
(dp161
g10
F1.7000000000000002
sssg17
(dp162
Vcom.android.launcher
p163
(dp164
g10
I2
sssg19
(dp165
Vcom.tencent.mobileqq
p166
(dp167
g10
F1.3
ssVcom.tencent.mm
p168
(dp169
g10
F5.4000000000000004
ssVtv.danmaku.bili
p170
(dp171
g10
F0.69999999999999996
ssVcom.android.launcher
p172
(dp173
g10
F1.3
sssg21
(dp174
g8
(dp175
g10
F47.399999999999999
ssg11
(dp176
g10
F12.199999999999999
ssVcom.suning.mobile.ebuy
p177
(dp178
g10
F15.499999999999998
ssg17
(dp179
g10
F2.7000000000000002
ssg19
(dp180
g10
F4.2999999999999998
ssg23
(dp181
g10
I1
ssg25
(dp182
g10
F65.500000000000028
ssg27
(dp183
g10
F1.7
ssg29
(dp184
g10
F11.800000000000001
ssg31
(dp185
g10
F4.7999999999999998
ssg33
(dp186
g10
F15.299999999999997
ssg35
(dp187
g10
F28.299999999999997
ssg37
(dp188
g10
F18.799999999999997
ssg39
(dp189
g10
F4.4000000000000004
ssg41
(dp190
g10
I1
ssg43
(dp191
g10
F2.7000000000000002
ssVcom.android.phone
p192
(dp193
g10
F161.10000000000008
ssg47
(dp194
g10
F169.89999999999992
ssg49
(dp195
g10
F16.599999999999998
ssg51
(dp196
g10
F5.7000000000000002
ssg53
(dp197
g10
F26.799999999999994
ssg55
(dp198
g10
F8.9000000000000004
ssg57
(dp199
g10
F1.7
ssg59
(dp200
g10
F4.4000000000000004
ssg77
(dp201
g10
F1233.7000000000075
ssg61
(dp202
g10
F10
ssg63
(dp203
g10
F14.299999999999997
ssg65
(dp204
g10
F30.899999999999991
ssg67
(dp205
g10
F1.3
ssg69
(dp206
g10
F1.7
ssg71
(dp207
g10
F14.199999999999999
ssg73
(dp208
g10
F39.599999999999994
ssg75
(dp209
g10
F8.1000000000000014
ssg87
(dp210
g10
F37.599999999999987
ssg79
(dp211
g10
F70.500000000000043
ssg81
(dp212
g10
F32.299999999999997
ssg83
(dp213
g10
F0.69999999999999996
ssg85
(dp214
g10
F4.4000000000000004
ssg89
(dp215
g10
F1.7
ssg91
(dp216
g10
F6.8000000000000007
sssg23
(dp217
Vcom.sankuai.meituan
p218
(dp219
g10
F0.90000000000000002
ssVcom.android.launcher
p220
(dp221
g10
F1.7
sssg25
(dp222
Vcom.android.browser
p223
(dp224
g10
F0.69999999999999996
ssg27
(dp225
g10
F0.90000000000000002
ssVcom.xuxian.market
p226
(dp227
g10
F2.3999999999999999
ssVcom.android.calculator
p228
(dp229
g10
F0.40000000000000002
ssVcom.android.mms
p230
(dp231
g10
F0.40000000000000002
ssVcom.taobao.taobao
p232
(dp233
g10
F0.90000000000000002
ssVcom.dianping.v1
p234
(dp235
g10
F1.7
ssg67
(dp236
g10
F1.7
ssVme.ele
p237
(dp238
g10
F4.4000000000000004
ssVcom.android.launcher
p239
(dp240
g10
F31.299999999999997
ssg151
(dp241
g10
F2.2000000000000002
ssVcom.tencent.mm
p242
(dp243
g10
F19.699999999999999
sssg27
(dp244
Vcom.tencent.mm
p245
(dp246
g10
F0.90000000000000002
ssVcom.eg.android.AlipayGphone
p247
(dp248
g10
F0.40000000000000002
ssVcom.android.launcher
p249
(dp250
g10
F1.7
sssg29
(dp251
Vcom.android.mms
p252
(dp253
g10
F0.90000000000000002
ssVcom.tencent.mm
p254
(dp255
g10
F2.2000000000000002
ssVcom.android.launcher
p256
(dp257
g10
F5.7000000000000002
sssg31
(dp258
Vcom.android.browser
p259
(dp260
g10
F0.90000000000000002
ssg55
(dp261
g10
I1
ssVcom.android.settings
p262
(dp263
g10
F0.40000000000000002
ssg83
(dp264
g10
I1
ssg85
(dp265
g10
F1.3
ssVcom.android.launcher
p266
(dp267
g10
F4.1000000000000005
ssVcom.tencent.mm
p268
(dp269
g10
F2
ssg71
(dp270
g10
F1.3
ssg51
(dp271
g10
I1
sssg33
(dp272
Vcom.xuxian.market
p273
(dp274
g10
F1.3
ssVcom.dianping.v1
p275
(dp276
g10
F0.40000000000000002
ssVcom.nuomi
p277
(dp278
g10
F1.7000000000000002
ssVcom.android.launcher
p279
(dp280
g10
F14.199999999999999
ssVcom.tencent.mm
p281
(dp282
g10
F4.5
ssVcom.eg.android.AlipayGphone
p283
(dp284
g10
F0.69999999999999996
sssg35
(dp285
Vcom.tencent.mm
p286
(dp287
g10
F12.100000000000001
ssVcom.android.launcher
p288
(dp289
g10
F10.300000000000001
sssg37
(dp290
Vcom.android.settings
p291
(dp292
g10
F0.90000000000000002
ssVcom.android.video
p293
(dp294
g10
F0.40000000000000002
ssVcom.android.launcher
p295
(dp296
g10
F11.1
ssVcom.android.phone
p297
(dp298
g10
F2.7999999999999998
ssVcom.tencent.mm
p299
(dp300
g10
F9.4000000000000004
ssg25
(dp301
g10
I3
sssg39
(dp302
Vcom.tencent.mm
p303
(dp304
g10
F2.2000000000000002
ssVcom.eg.android.AlipayGphone
p305
(dp306
g10
F0.40000000000000002
ssVcom.android.launcher
p307
(dp308
g10
F3.4000000000000004
sssg41
(dp309
Vcom.tencent.mm
p310
(dp311
g10
F0.90000000000000002
ssVcom.android.launcher
p312
(dp313
g10
I1
sssg43
(dp314
Vcom.android.settings
p315
(dp316
g10
F0.40000000000000002
ssVcom.tencent.mm
p317
(dp318
g10
F0.90000000000000002
ssVcom.android.launcher
p319
(dp320
g10
F1.7
sssg45
(dp321
Vcom.MobileTicket
p322
(dp323
g10
F2.8999999999999999
ssVcom.suning.mobile.ebuy
p324
(dp325
g10
I1
ssVcom.android.browser
p326
(dp327
g10
F2.7000000000000002
ssVcom.tencent.mobileqq
p328
(dp329
g10
F4.4000000000000004
ssVcom.android.mms
p330
(dp331
g10
F8.6000000000000014
ssg293
(dp332
g10
F0.90000000000000002
ssVcom.baidu.BaiduMap
p333
(dp334
g10
F0.40000000000000002
ssVme.ele
p335
(dp336
g10
F2.8999999999999999
ssVcom.android.launcher
p337
(dp338
g10
F105.3000000000001
ssVcom.android.settings
p339
(dp340
g10
F3.3999999999999999
ssVcom.tencent.mm
p341
(dp342
g10
F48.499999999999972
ssVtv.danmaku.bili
p343
(dp344
g10
I1
sssg47
(dp345
Vtv.danmaku.bili
p346
(dp347
g10
F2.2000000000000002
ssVcom.xuxian.market
p348
(dp349
g10
F0.90000000000000002
ssVcom.android.browser
p350
(dp351
g10
F0.40000000000000002
ssVcom.android.calendar
p352
(dp353
g10
F0.90000000000000002
ssVcom.android.settings
p354
(dp355
g10
I1
ssVcom.android.mms
p356
(dp357
g10
F1.8
ssVcom.ziroom.ziroomcustomer
p358
(dp359
g10
I1
ssg65
(dp360
g10
F0.40000000000000002
ssVcom.privatekitchen.huijia
p361
(dp362
g10
F0.90000000000000002
ssVcom.android.launcher
p363
(dp364
g10
F118.90000000000011
ssVcom.android.phone
p365
(dp366
g10
F5.2999999999999998
ssg89
(dp367
g10
F0.40000000000000002
ssg69
(dp368
g10
F0.90000000000000002
ssVcom.tencent.mm
p369
(dp370
g10
F43.499999999999964
ssVcom.eg.android.AlipayGphone
p371
(dp372
g10
F3.5
ssVcom.MobileTicket
p373
(dp374
g10
F1.3
sssg49
(dp375
Vcom.tencent.mobileqq
p376
(dp377
g10
F1.3
ssVcom.tencent.mm
p378
(dp379
g10
F6.2000000000000011
ssVcom.android.browser
p380
(dp381
g10
F0.40000000000000002
ssVcom.android.launcher
p382
(dp383
g10
F10.5
ssVcom.android.phone
p384
(dp385
g10
I1
sssg51
(dp386
Vcom.tencent.mm
p387
(dp388
g10
F2.2000000000000002
ssVcom.android.launcher
p389
(dp390
g10
F3.7000000000000002
sssg53
(dp391
Vcom.android.browser
p392
(dp393
g10
F0.90000000000000002
ssVcom.suning.mobile.ebuy
p394
(dp395
g10
F0.40000000000000002
ssVcom.MobileTicket
p396
(dp397
g10
F0.90000000000000002
ssVcom.tencent.mm
p398
(dp399
g10
F9.3000000000000025
ssVcom.sankuai.meituan
p400
(dp401
g10
F0.90000000000000002
ssVcom.android.launcher
p402
(dp403
g10
F17.299999999999997
ssVcom.tencent.mobileqq
p404
(dp405
g10
F0.90000000000000002
ssVcom.eg.android.AlipayGphone
p406
(dp407
g10
I2
sssg55
(dp408
Vcom.tencent.mm
p409
(dp410
g10
F2.6000000000000001
ssVcom.android.launcher
p411
(dp412
g10
F4.2999999999999998
sssg57
(dp413
Vcom.wandoujia.phoenix2
p414
(dp415
g10
F0.90000000000000002
ssg134
(dp416
g10
F0.40000000000000002
ssVcom.android.launcher
p417
(dp418
g10
F1.7
sssg59
(dp419
Vme.ele
p420
(dp421
g10
F0.40000000000000002
ssVcom.tencent.mm
p422
(dp423
g10
F1.8
ssVcom.eg.android.AlipayGphone
p424
(dp425
g10
F1.3
ssVcom.android.launcher
p426
(dp427
g10
F4.4000000000000004
sssg61
(dp428
Vcom.tencent.mm
p429
(dp430
g10
F3.7999999999999998
ssVcom.wandoujia.phoenix2
p431
(dp432
g10
I1
ssVcom.android.browser
p433
(dp434
g10
F0.40000000000000002
ssVcom.android.launcher
p435
(dp436
g10
F7
ssVcom.MobileTicket
p437
(dp438
g10
F1.3
sssg63
(dp439
Vcom.android.browser
p440
(dp441
g10
F0.90000000000000002
ssVcom.android.settings
p442
(dp443
g10
F1.3
ssVcom.sankuai.meituan
p444
(dp445
g10
F0.90000000000000002
ssVcom.baidu.BaiduMap
p446
(dp447
g10
F0.90000000000000002
ssVcom.nuomi
p448
(dp449
g10
F1.3
ssVcom.android.launcher
p450
(dp451
g10
F11.9
ssVcom.tencent.mm
p452
(dp453
g10
F6.2000000000000011
ssg124
(dp454
g10
I1
sssg65
(dp455
Vcom.android.browser
p456
(dp457
g10
I1
ssVcom.android.settings
p458
(dp459
g10
F1.3
ssg33
(dp460
g10
F1.3
ssVcom.baidu.BaiduMap
p461
(dp462
g10
F3.0999999999999996
ssVcom.dianping.v1
p463
(dp464
g10
F2.2000000000000002
ssVcom.android.launcher
p465
(dp466
g10
F29.899999999999991
ssVcom.tencent.mm
p467
(dp468
g10
F12.500000000000004
sssg67
(dp469
Vcom.tencent.mm
p470
(dp471
g10
F0.69999999999999996
ssVcom.android.launcher
p472
(dp473
g10
F0.90000000000000002
ssVcom.eg.android.AlipayGphone
p474
(dp475
g10
I1
sssg69
(dp476
sg71
(dp477
Vcom.xuxian.market
p478
(dp479
g10
F0.90000000000000002
ssVcom.MobileTicket
p480
(dp481
g10
F0.90000000000000002
ssVcom.android.mms
p482
(dp483
g10
F3.5999999999999996
ssVcom.baidu.BaiduMap
p484
(dp485
g10
F0.90000000000000002
ssVcom.android.launcher
p486
(dp487
g10
F12.199999999999999
ssg268
(dp488
g10
F4.3999999999999995
sssg73
(dp489
Vcom.android.browser
p490
(dp491
g10
F2.2000000000000002
ssg394
(dp492
g10
F0.90000000000000002
ssVcom.xuxian.market
p493
(dp494
g10
F0.40000000000000002
ssVcom.android.mms
p495
(dp496
g10
F0.90000000000000002
ssVcom.baidu.BaiduMap
p497
(dp498
g10
F0.90000000000000002
ssVcom.kaola
p499
(dp500
g10
F0.40000000000000002
ssVcom.android.launcher
p501
(dp502
g10
F26.999999999999996
ssVcom.tencent.mm
p503
(dp504
g10
F6.2000000000000011
ssVcom.eg.android.AlipayGphone
p505
(dp506
g10
F1.3
sssg75
(dp507
g89
(dp508
g10
F0.90000000000000002
ssVcom.tencent.mm
p509
(dp510
g10
F1.8
ssVcom.android.launcher
p511
(dp512
g10
I3
sssg77
(dp513
Vcom.android.browser
p514
(dp515
g10
F12.900000000000002
ssVcom.wandoujia.phoenix2
p516
(dp517
g10
F0.90000000000000002
ssVcom.suning.mobile.ebuy
p518
(dp519
g10
F3.8999999999999999
ssg19
(dp520
g10
F5.3000000000000007
ssVcom.android.launcher
p521
(dp522
g10
F511.99999999999852
ssg25
(dp523
g10
F16.000000000000004
ssg27
(dp524
g10
F0.40000000000000002
ssg29
(dp525
g10
F3.5
ssg31
(dp526
g10
F4.5999999999999996
ssg33
(dp527
g10
F4.4000000000000004
ssVcom.android.gallery3d
p528
(dp529
g10
F13.700000000000001
ssVcom.taobao.taobao
p530
(dp531
g10
F1.7000000000000002
ssVme.ele
p532
(dp533
g10
F6.8000000000000007
ssVcom.android.phone
p534
(dp535
g10
F41.699999999999974
ssVcom.tencent.mobileqq
p536
(dp537
g10
F37.199999999999967
ssg49
(dp538
g10
F8.3000000000000007
ssg51
(dp539
g10
F1.3
ssg53
(dp540
g10
F7.1000000000000014
ssg55
(dp541
g10
F3.2999999999999998
ssg59
(dp542
g10
F1.8
ssVcom.ziroom.ziroomcustomer
p543
(dp544
g10
F0.90000000000000002
ssg63
(dp545
g10
F4.5
ssg65
(dp546
g10
F11.500000000000004
ssg69
(dp547
g10
F0.40000000000000002
ssg71
(dp548
g10
F3.5999999999999996
ssVcom.MobileTicket
p549
(dp550
g10
F4.7999999999999998
ssg75
(dp551
g10
F2.6000000000000001
ssVcom.android.settings
p552
(dp553
g10
F9.2000000000000011
ssVcom.android.mms
p554
(dp555
g10
F17.600000000000001
ssg461
(dp556
g10
F6.8000000000000007
ssg85
(dp557
g10
F1.1000000000000001
ssVcn.opda.a.phonoalbumshoushou
p558
(dp559
g10
F0.40000000000000002
sssg79
(dp560
Vcom.xuxian.market
p561
(dp562
g10
F0.90000000000000002
ssVcom.sogou.xiaop_android
p563
(dp564
g10
F1.3
ssVcom.MobileTicket
p565
(dp566
g10
F1.3
ssVcom.android.settings
p567
(dp568
g10
F1.7
ssVcom.sohu.inputmethod.sogou
p569
(dp570
g10
F0.40000000000000002
ssVcom.eg.android.AlipayGphone
p571
(dp572
g10
F1.3
ssVcom.android.launcher
p573
(dp574
g10
F53.200000000000024
ssVcom.android.phone
p575
(dp576
g10
F9.2000000000000011
ssVcom.tencent.mm
p577
(dp578
g10
F21.199999999999996
ssg558
(dp579
g10
F1.3
ssVcom.kaola
p580
(dp581
g10
I1
sssg81
(dp582
Vcom.android.browser
p583
(dp584
g10
F3.8999999999999999
ssVcom.android.packageinstaller
p585
(dp586
g10
F0.69999999999999996
ssg444
(dp587
g10
F0.40000000000000002
ssVcom.android.mms
p588
(dp589
g10
F0.40000000000000002
ssVcom.dianping.v1
p590
(dp591
g10
F1.3
ssVcom.nuomi
p592
(dp593
g10
F1.8999999999999999
ssg83
(dp594
g10
F0.40000000000000002
ssg499
(dp595
g10
F0.90000000000000002
ssVcom.android.launcher
p596
(dp597
g10
F23.999999999999996
ssVcom.tencent.mm
p598
(dp599
g10
F8.5000000000000018
ssg49
(dp600
g10
F0.40000000000000002
sssg83
(dp601
g259
(dp602
g10
I1
ssVcom.android.launcher
p603
(dp604
g10
F1.3
ssg262
(dp605
g10
F0.69999999999999996
sssg85
(dp606
Vcom.android.launcher
p607
(dp608
g10
I1
sssg87
(dp609
g440
(dp610
g10
F1.3
ssg218
(dp611
g10
F0.40000000000000002
ssVcom.wandoujia.phoenix2
p612
(dp613
g10
F2.7000000000000002
ssg15
(dp614
g10
F1.3
ssVcom.tencent.mobileqq
p615
(dp616
g10
F1.7
ssg23
(dp617
g10
F0.90000000000000002
ssg554
(dp618
g10
F5.3000000000000007
ssVcom.dianping.v1
p619
(dp620
g10
F1.3
ssVcom.nuomi
p621
(dp622
g10
F1.8
ssVme.ele
p623
(dp624
g10
F0.90000000000000002
ssVcom.kaola
p625
(dp626
g10
F1.7000000000000002
ssVtv.danmaku.bili
p627
(dp628
g10
F0.90000000000000002
ssVcom.android.launcher
p629
(dp630
g10
F36.79999999999999
ssg192
(dp631
g10
F2.7000000000000002
ssVcom.android.gallery3d
p632
(dp633
g10
F0.40000000000000002
ssVcom.tencent.mm
p634
(dp635
g10
F8.4000000000000021
ssVcn.opda.a.phonoalbumshoushou
p636
(dp637
g10
F2.2999999999999998
ssVcom.eg.android.AlipayGphone
p638
(dp639
g10
F0.90000000000000002
sssg89
(dp640
sg91
(dp641
Vcom.MobileTicket
p642
(dp643
g10
F0.90000000000000002
ssVcom.wandoujia.phoenix2
p644
(dp645
g10
F1.7
ssVcom.android.browser
p646
(dp647
g10
F0.40000000000000002
ssg15
(dp648
g10
F0.40000000000000002
ssVcom.android.settings
p649
(dp650
g10
F2.8999999999999999
ssVcom.android.mms
p651
(dp652
g10
F1.3
ssVcom.android.launcher
p653
(dp654
g10
F4.0999999999999996
ssVcom.tencent.mm
p655
(dp656
g10
F0.40000000000000002
ssssS'edge'
p657
g97
sS'graph'
p658
(dp659
sS'adjlist_dict_factory'
p660
g94
sS'adj'
p661
g97
sS'pred'
p662
(dp663
g8
(dp664
Vcom.MobileTicket
p665
g491
sg516
g129
sVcom.suning.mobile.ebuy
p666
g145
sVcom.xuxian.market
p667
g393
sVcom.tencent.mobileqq
p668
g351
sg585
g260
sVcom.android.phone
p669
g327
sVcom.baidu.BaiduMap
p670
g584
sVcom.ziroom.ziroomcustomer
p671
g434
sg619
g441
sVcom.nuomi
p672
g457
sg83
g602
sVtv.danmaku.bili
p673
g381
sVcom.android.launcher
p674
g175
sg442
g610
sVcom.tencent.mm
p675
g515
sg91
g647
sg505
g224
ssg11
(dp676
g57
g415
sg15
g159
sg132
g613
sg61
g432
sVcom.android.launcher
p677
g176
sVcom.tencent.mm
p678
g517
sg141
g645
ssg13
(dp679
g144
g103
sg104
g395
sVcom.android.launcher
p680
g178
sVcom.android.phone
p681
g325
sVcom.tencent.mm
p682
g519
sg396
g492
ssg15
(dp683
Vcom.android.settings
p684
g614
sg644
g131
sg141
g648
ssg17
(dp685
g144
g113
sg102
g148
sVcom.android.launcher
p686
g179
ssg19
(dp687
Vcom.android.mms
p688
g570
sVcom.tencent.mm
p689
g520
sVcom.android.launcher
p690
g180
ssg21
(dp691
g490
g118
sg516
g138
sg13
g150
sg15
g161
sg17
g164
sVcom.sohu.inputmethod.sogou
p692
g173
sg23
g221
sg25
g240
sg27
g250
sg29
g257
sg31
g267
sg33
g280
sVcom.android.gallery3d
p693
g289
sg37
g296
sg530
g308
sVcom.mfw.roadbook
p694
g313
sg43
g320
sg575
g338
sVcom.tencent.mm
p695
g522
sVtv.danmaku.bili
p696
g383
sVcom.sankuai.meituan.takeoutnew
p697
g390
sg53
g403
sg55
g412
sg57
g418
sg59
g427
sg61
g436
sg63
g451
sg65
g466
sg67
g473
sg71
g487
sVcom.tencent.mobileqq
p698
g364
sg73
g502
sVcom.android.calendar
p699
g512
sg87
g630
sg79
g574
sg81
g597
sg83
g604
sg85
g608
sg91
g654
ssg23
(dp700
Vcom.android.settings
p701
g617
sVcom.android.launcher
p702
g181
ssg25
(dp703
Vcom.android.browser
p704
g125
sg27
g248
sg13
g156
sg373
g506
sg59
g425
sVcom.android.settings
p705
g639
sg400
g284
sVcom.android.mms
p706
g572
sg530
g306
sg111
g454
sg67
g475
sVme.ele
p707
g301
sVcom.android.launcher
p708
g182
sVcom.tencent.mm
p709
g523
sg226
g407
sVcom.tencent.mobileqq
p710
g372
ssg27
(dp711
Vcom.tencent.mm
p712
g524
sVcom.eg.android.AlipayGphone
p713
g225
sVcom.android.launcher
p714
g183
ssg29
(dp715
Vcom.tencent.mm
p716
g525
sVcom.android.launcher
p717
g184
ssg31
(dp718
g128
g108
sg139
g526
sg134
g586
sg137
g185
ssg33
(dp719
Vcom.xuxian.market
p720
g401
sg701
g611
sVcom.baidu.BaiduMap
p721
g587
sVcom.dianping.v1
p722
g445
sVcom.nuomi
p723
g460
sVcom.android.launcher
p724
g186
sg23
g219
sVcom.tencent.mm
p725
g527
ssg35
(dp726
Vcom.android.settings
p727
g633
sVcom.tencent.mm
p728
g529
sVcom.android.launcher
p729
g187
ssg37
(dp730
Vcom.android.calculator
p731
g421
sg291
g624
sVcom.android.launcher
p732
g188
sVcom.android.phone
p733
g336
sg299
g533
sg25
g238
ssg39
(dp734
Vcom.tencent.mm
p735
g531
sg305
g233
sVcom.android.launcher
p736
g189
ssg41
(dp737
Vcom.android.launcher
p738
g190
ssg43
(dp739
g420
g294
sVcom.android.launcher
p740
g191
sg297
g332
ssg45
(dp741
g326
g120
sg13
g152
sg87
g631
sVcom.android.mms
p742
g576
sg420
g298
sVtv.danmaku.bili
p743
g385
sVcom.android.launcher
p744
g193
sg341
g535
sg155
g241
sVcom.tencent.mobileqq
p745
g366
ssg47
(dp746
g348
g405
sVcom.suning.mobile.ebuy
p747
g147
sg380
g115
sg354
g616
sg19
g167
sVcom.android.launcher
p748
g194
sg45
g329
sVcom.tencent.mm
p749
g537
sVtv.danmaku.bili
p750
g377
ssg49
(dp751
Vcom.android.settings
p752
g628
sg598
g538
sg81
g600
sg692
g171
sg596
g195
sg384
g344
sVcom.tencent.mobileqq
p753
g347
ssg51
(dp754
Vcom.android.browser
p755
g126
sVcom.android.packageinstaller
p756
g271
sVcom.tencent.mm
p757
g539
sVcom.android.launcher
p758
g196
ssg53
(dp759
g646
g105
sg480
g494
sVcom.tencent.mm
p760
g540
sg400
g274
sVcom.android.mms
p761
g562
sVcom.kaola
p762
g479
sVcom.android.launcher
p763
g197
sg698
g349
sVcom.eg.android.AlipayGphone
p764
g227
ssg55
(dp765
Vcom.android.browser
p766
g101
sVcom.android.packageinstaller
p767
g261
sVcom.tencent.mm
p768
g541
sVcom.android.mms
p769
g564
sVcom.android.launcher
p770
g198
ssg57
(dp771
Vcom.wandoujia.phoenix2
p772
g130
sVcom.android.launcher
p773
g199
ssg59
(dp774
Vcom.tencent.mm
p775
g542
sVcom.eg.android.AlipayGphone
p776
g229
sVcom.android.launcher
p777
g200
ssg61
(dp778
Vcom.tencent.mm
p779
g544
sVcom.wandoujia.phoenix2
p780
g136
sg160
g202
sVcom.tencent.mobileqq
p781
g359
ssg63
(dp782
g704
g112
sg442
g620
sVcom.sankuai.meituan
p783
g276
sVcom.baidu.BaiduMap
p784
g591
sg448
g464
sVcom.android.launcher
p785
g203
sVcom.tencent.mm
p786
g545
sg124
g235
ssg65
(dp787
g146
g360
sVcom.sankuai.meituan
p788
g278
sVcom.baidu.BaiduMap
p789
g593
sg63
g449
sVcom.android.launcher
p790
g204
sVcom.android.settings
p791
g622
sVcom.tencent.mm
p792
g546
ssg67
(dp793
g424
g236
sg426
g205
ssg69
(dp794
Vcom.tencent.mobileqq
p795
g368
sVcom.tencent.mm
p796
g547
sVcom.android.launcher
p797
g206
ssg71
(dp798
Vcom.MobileTicket
p799
g500
sVcom.android.settings
p800
g626
sVcom.android.packageinstaller
p801
g270
sVcom.android.mms
p802
g581
sg497
g595
sVcom.android.launcher
p803
g207
sVcom.tencent.mm
p804
g548
ssg73
(dp805
g490
g100
sg104
g397
sVcom.tencent.mm
p806
g550
sg495
g566
sg543
g438
sVcom.android.launcher
p807
g208
sVcom.android.phone
p808
g323
sVcom.tencent.mobileqq
p809
g374
sg91
g643
sg625
g481
ssg75
(dp810
Vcom.tencent.mobileqq
p811
g353
sg695
g551
sVcom.android.launcher
p812
g209
ssg77
(dp813
g128
g123
sg516
g140
sVcom.suning.mobile.ebuy
p814
g154
sg19
g169
sg21
g201
sg25
g243
sg27
g246
sVcom.meizu.weathersearch
p815
g255
sg801
g269
sg33
g282
sg528
g287
sg37
g300
sg530
g304
sg694
g311
sg43
g318
sg575
g342
sg404
g370
sg696
g379
sg697
g388
sg53
g399
sg55
g410
sg731
g423
sg61
g430
sg63
g453
sg65
g468
sg67
g471
sg71
g488
sVcom.MobileTicket
p816
g504
sg699
g510
sg315
g635
sg330
g578
sg81
g599
sVcn.opda.a.phonoalbumshoushou
p817
g656
ssg79
(dp818
Vcom.MobileTicket
p819
g496
sVcom.meizu.weathersearch
p820
g253
sVcom.android.settings
p821
g618
sg333
g589
sVcom.kaola
p822
g483
sVcom.android.launcher
p823
g211
sVcom.android.phone
p824
g331
sVcom.tencent.mm
p825
g555
sg558
g652
sg638
g231
sVcom.tencent.mobileqq
p826
g357
ssg81
(dp827
g514
g110
sg414
g135
sg57
g416
sg799
g498
sg590
g447
sg65
g462
sVcom.android.launcher
p828
g212
sVcom.android.phone
p829
g334
sg467
g556
sg499
g485
ssg83
(dp830
Vcom.android.browser
p831
g121
sg585
g264
sg134
g594
sVcom.android.launcher
p832
g213
ssg85
(dp833
g128
g116
sg31
g265
sg122
g557
sg266
g214
sVcom.tencent.mobileqq
p834
g362
ssg87
(dp835
g440
g107
sg11
g133
sVcom.tencent.mobileqq
p836
g355
sg585
g263
sg554
g568
sVme.ele
p837
g292
sg275
g443
sg621
g459
sg43
g316
sg83
g605
sg744
g210
sVcom.android.phone
p838
g340
sVcom.tencent.mm
p839
g553
sg636
g650
ssg89
(dp840
g352
g508
sg811
g367
sVcom.android.launcher
p841
g215
ssg91
(dp842
Vcom.android.settings
p843
g637
sVcom.tencent.mm
p844
g559
sVcom.wandoujia.phoenix2
p845
g142
sVcom.android.mms
p846
g579
sVcom.android.launcher
p847
g216
sssb.