ccopy_reg
_reconstructor
p1
(cnetworkx.classes.digraph
DiGraph
p2
c__builtin__
object
p3
NtRp4
(dp5
S'node'
p6
(dp7
Vcom.android.browser
p8
(dp9
S'weight'
p10
F0.010316656135862782
ssVcom.youdao.dict
p11
(dp12
g10
F0.0021633096518670343
ssVcom.iqianjin.client
p13
(dp14
g10
F0.00019841575613740387
ssVcom.cleanmaster.mguard_cn
p15
(dp16
g10
F1.3484565951085701e-05
ssVcom.yuedong.sport
p17
(dp18
g10
F0.0012714019325309374
ssVcom.coolpad.music
p19
(dp20
g10
F0.0026998027400638013
ssVcom.tencent.qqmusic
p21
(dp22
g10
F0.0010113424463314275
ssVcom.yulong.android.launcher3
p23
(dp24
g10
F0.012321040546163448
ssVcom.yulong.android.coolshow
p25
(dp26
g10
F0.87221351076453635
ssVcom.eg.android.AlipayGphone
p27
(dp28
g10
F0.00049026029065018725
ssVcom.yulong.android.filebrowser
p29
(dp30
g10
F0.0019764520951162756
ssVcom.amazon.kindle
p31
(dp32
g10
F0.0089768681902941943
ssVcom.android.packageinstaller
p33
(dp34
g10
F0.002563993897270724
ssVcom.android.gallery3d
p35
(dp36
g10
F0.0012376905176532233
ssVcom.taobao.taobao
p37
(dp38
g10
F0.012819969486353619
ssVcom.android.incallui
p39
(dp40
g10
F0.0018599069179676062
ssVcom.android.systemui
p41
(dp42
g10
F0.0008938340859005378
ssVcom.tencent.mm
p43
(dp44
g10
F0.036446855399220206
ssVcom.android.calculator2
p45
(dp46
g10
F0.00013484565951085701
ssVcom.yulong.android.callhistory
p47
(dp48
g10
F7.7054662577632572e-06
ssVcom.android.phone
p49
(dp50
g10
F1.1558199386644887e-05
ssVcom.yulong.android.contacts
p51
(dp52
g10
F0.00097377829832483165
ssVcom.nuomi
p53
(dp54
g10
F0.0001878207400329794
ssVcom.yulong.android.xtime
p55
(dp56
g10
F0.00054997765414785253
ssVcom.jd.jrapp
p57
(dp58
g10
F0.00018685755675075898
ssVcom.tencent.qqlive
p59
(dp60
g10
F0.0024956078842330747
ssVcom.icoolme.android.weather
p61
(dp62
g10
F0.00013388247622863659
ssVcom.android.email
p63
(dp64
g10
F0.00019263665644408143
ssVcom.android.settings.wifi
p65
(dp66
g10
F4.8159164111020355e-06
ssVcom.UCMobile
p67
(dp68
g10
F0.0017751467891322103
ssVcom.tencent.mobileqq
p69
(dp70
g10
F0.015236596341444621
ssVcom.android.mms
p71
(dp72
g10
F0.00029088135123056297
ssVcom.baidu.BaiduMap
p73
(dp74
g10
F0.0010084528964847664
ssVcom.imohoo.favorablecard
p75
(dp76
g10
F0.00048255482439242401
ssVcom.android.settings
p77
(dp78
g10
F1.9263665644408143e-06
ssVcom.tencent.qqpimsecure
p79
(dp80
g10
F0.0064292484088212176
ssVcom.android.camera
p81
(dp82
g10
F0.00042091109433031791
sssS'graph'
p83
(dp84
sS'succ'
p85
(dp86
g8
(dp87
Vcom.tencent.mobileqq
p88
(dp89
g10
F1.7
ssVcom.android.phone
p90
(dp91
g10
F0.69999999999999996
ssVcom.android.mms
p92
(dp93
g10
F0.69999999999999996
ssVcom.yulong.android.contacts
p94
(dp95
g10
F3
ssVcom.android.incallui
p96
(dp97
g10
F0.40000000000000002
ssVcom.tencent.qqmusic
p98
(dp99
g10
F1.7
ssVcom.yulong.android.launcher3
p100
(dp101
g10
F13.6
ssVcom.android.systemui
p102
(dp103
g10
F2.2000000000000002
ssVcom.yulong.android.coolshow
p104
(dp105
g10
F10.5
ssVcom.tencent.mm
p106
(dp107
g10
F1.7
sssg11
(dp108
Vcom.yulong.android.coolshow
p109
(dp110
g10
I11
ssVcom.tencent.mm
p111
(dp112
g10
F2.6000000000000001
ssVcom.yulong.android.launcher3
p113
(dp114
g10
F5.7999999999999998
ssVcom.tencent.mobileqq
p115
(dp116
g10
F0.40000000000000002
sssg13
(dp117
Vcom.amazon.kindle
p118
(dp119
g10
F0.40000000000000002
ssVcom.yulong.android.launcher3
p120
(dp121
g10
F6.1000000000000005
ssVcom.tencent.qqlive
p122
(dp123
g10
F0.40000000000000002
ssVcom.android.systemui
p124
(dp125
g10
F1.8
sssg15
(dp126
Vcom.yulong.android.xtime
p127
(dp128
g10
I1
ssVcom.tencent.mm
p129
(dp130
g10
F0.90000000000000002
ssVcom.yulong.android.launcher3
p131
(dp132
g10
I1
sssg17
(dp133
Vcom.tencent.mobileqq
p134
(dp135
g10
F18.999999999999996
ssVcom.UCMobile
p136
(dp137
g10
F0.40000000000000002
ssVcom.yulong.android.launcher3
p138
(dp139
g10
F29.599999999999984
ssVcom.android.systemui
p140
(dp141
g10
F2.2000000000000002
ssVcom.yulong.android.coolshow
p142
(dp143
g10
I1
ssVcom.tencent.mm
p144
(dp145
g10
F5.0000000000000009
sssg19
(dp146
Vcom.yulong.android.xtime
p147
(dp148
g10
F0.90000000000000002
ssVcom.yulong.android.launcher3
p149
(dp150
g10
F4.9000000000000004
ssVcom.yulong.android.filebrowser
p151
(dp152
g10
F3.3999999999999999
sssg21
(dp153
Vcom.android.browser
p154
(dp155
g10
I1
ssg92
(dp156
g10
F0.40000000000000002
ssVcom.yulong.android.contacts
p157
(dp158
g10
F2.2000000000000002
ssVcom.android.incallui
p159
(dp160
g10
F0.69999999999999996
ssVcom.yulong.android.launcher3
p161
(dp162
g10
F2.3999999999999999
ssVcom.yulong.android.coolshow
p163
(dp164
g10
F2.3999999999999999
sssg23
(dp165
g13
(dp166
g10
F6.7999999999999998
ssVcom.cleanmaster.mguard_cn
p167
(dp168
g10
F0.90000000000000002
ssg19
(dp169
g10
F6.7000000000000011
ssg21
(dp170
g10
F3.7999999999999998
ssg25
(dp171
g10
F138.30000000000004
ssg27
(dp172
g10
F4.7000000000000002
ssg29
(dp173
g10
F30.299999999999986
ssVcom.amazon.kindle
p174
(dp175
g10
F18.499999999999996
ssVcom.android.packageinstaller
p176
(dp177
g10
F1.8999999999999999
ssVcom.android.gallery3d
p178
(dp179
g10
F5.7000000000000002
ssg37
(dp180
g10
F23.899999999999995
ssg39
(dp181
g10
F32.399999999999984
ssg41
(dp182
g10
F114.20000000000012
ssg43
(dp183
g10
F242.70000000000007
ssg47
(dp184
g10
F4.5
ssg49
(dp185
g10
F8.9000000000000021
ssg51
(dp186
g10
F25.299999999999997
ssg53
(dp187
g10
F3.3999999999999999
ssVcom.yulong.android.xtime
p188
(dp189
g10
F13.299999999999999
ssVcom.jd.jrapp
p190
(dp191
g10
F9.1000000000000014
ssg59
(dp192
g10
F10.9
ssg61
(dp193
g10
F2.7000000000000002
ssg63
(dp194
g10
F21.199999999999992
ssg65
(dp195
g10
F1.3
ssVcom.UCMobile
p196
(dp197
g10
F5.0999999999999996
ssg69
(dp198
g10
F58.199999999999989
ssg71
(dp199
g10
F34.499999999999993
ssVcom.yuedong.sport
p200
(dp201
g10
F15.700000000000003
ssg75
(dp202
g10
F1.7
ssg77
(dp203
g10
F3.5
ssg79
(dp204
g10
F13.9
ssg81
(dp205
g10
F12
sssg25
(dp206
Vcom.android.browser
p207
(dp208
g10
F14.499999999999998
ssVcom.youdao.dict
p209
(dp210
g10
I5
ssVcom.iqianjin.client
p211
(dp212
g10
F1.3
ssg167
(dp213
g10
I1
ssVcom.yuedong.sport
p214
(dp215
g10
F12.9
ssg67
(dp216
g10
F5.2000000000000002
ssVcom.tencent.qqmusic
p217
(dp218
g10
F9.8000000000000007
ssVcom.yulong.android.launcher3
p219
(dp220
g10
F373.99999999999864
ssVcom.eg.android.AlipayGphone
p221
(dp222
g10
F1.8999999999999999
ssVcom.yulong.android.filebrowser
p223
(dp224
g10
F0.90000000000000002
ssVcom.amazon.kindle
p225
(dp226
g10
F4.2000000000000002
ssVcom.android.packageinstaller
p227
(dp228
g10
F6.9000000000000012
ssg35
(dp229
g10
F13.400000000000002
ssVcom.taobao.taobao
p230
(dp231
g10
F10.1
ssg39
(dp232
g10
F60.099999999999987
ssg140
(dp233
g10
F6.7000000000000011
ssg43
(dp234
g10
F153.10000000000028
ssVcom.android.calculator2
p235
(dp236
g10
I1
ssg47
(dp237
g10
F1.8999999999999999
ssVcom.android.phone
p238
(dp239
g10
F1.1000000000000001
ssg51
(dp240
g10
F17.899999999999995
ssVcom.yulong.android.xtime
p241
(dp242
g10
F4.7999999999999998
ssVcom.jd.jrapp
p243
(dp244
g10
I1
ssVcom.tencent.qqlive
p245
(dp246
g10
F1.1000000000000001
ssVcom.icoolme.android.weather
p247
(dp248
g10
I1
ssVcom.android.email
p249
(dp250
g10
F1.1000000000000001
ssg65
(dp251
g10
F0.69999999999999996
ssg69
(dp252
g10
F17.399999999999995
ssVcom.android.mms
p253
(dp254
g10
F8.5000000000000018
ssg73
(dp255
g10
F5.7000000000000002
ssg77
(dp256
g10
F1.5
ssVcom.tencent.qqpimsecure
p257
(dp258
g10
F6.5000000000000009
ssg81
(dp259
g10
F5
sssg27
(dp260
Vcom.yulong.android.coolshow
p261
(dp262
g10
I2
ssg249
(dp263
g10
F0.90000000000000002
ssVcom.yulong.android.launcher3
p264
(dp265
g10
F7.2000000000000002
ssVcom.jd.jrapp
p266
(dp267
g10
F0.40000000000000002
ssVcom.android.systemui
p268
(dp269
g10
F3.8999999999999999
sssg29
(dp270
g19
(dp271
g10
F6.9000000000000012
ssVcom.yulong.android.launcher3
p272
(dp273
g10
F23.499999999999996
ssg147
(dp274
g10
F0.40000000000000002
ssg61
(dp275
g10
F0.90000000000000002
sssg31
(dp276
Vcom.yulong.android.coolshow
p277
(dp278
g10
I2
ssVcom.android.browser
p279
(dp280
g10
F1.7
ssVcom.yulong.android.launcher3
p281
(dp282
g10
F9.5000000000000018
ssg75
(dp283
g10
F0.90000000000000002
ssVcom.android.systemui
p284
(dp285
g10
F0.40000000000000002
sssg33
(dp286
Vcom.yulong.android.coolshow
p287
(dp288
g10
F6.5000000000000009
ssVcom.tencent.mm
p289
(dp290
g10
F6.5000000000000009
ssVcom.yulong.android.launcher3
p291
(dp292
g10
F3.5
sssg35
(dp293
Vcom.yulong.android.launcher3
p294
(dp295
g10
F18.699999999999999
sssg37
(dp296
Vcom.yulong.android.coolshow
p297
(dp298
g10
I3
ssVcom.tencent.mm
p299
(dp300
g10
F20.799999999999994
ssVcom.yulong.android.launcher3
p301
(dp302
g10
F12.6
ssVcom.jd.jrapp
p303
(dp304
g10
F1.3
ssVcom.android.systemui
p305
(dp306
g10
F1.3
sssg39
(dp307
Vcom.yulong.android.callhistory
p308
(dp309
g10
F0.90000000000000002
ssg71
(dp310
g10
F1.5
ssVcom.yuedong.sport
p311
(dp312
g10
F1.3
ssVcom.yulong.android.contacts
p313
(dp314
g10
F10.899999999999999
ssVcom.UCMobile
p315
(dp316
g10
F1.7
ssVcom.yulong.android.launcher3
p317
(dp318
g10
F38.699999999999982
ssVcom.android.systemui
p319
(dp320
g10
F1.3
ssVcom.yulong.android.coolshow
p321
(dp322
g10
F58.199999999999982
ssVcom.tencent.mm
p323
(dp324
g10
F2.6999999999999997
sssg41
(dp325
Vcom.yulong.android.filebrowser
p326
(dp327
g10
F2.3999999999999999
ssVcom.coolpad.music
p328
(dp329
g10
F0.69999999999999996
ssg118
(dp330
g10
F2.2000000000000002
ssg13
(dp331
g10
F2.2000000000000002
ssVcom.tencent.mm
p332
(dp333
g10
F2.4999999999999996
ssVcom.android.mms
p334
(dp335
g10
F0.90000000000000002
ssg200
(dp336
g10
F6.2000000000000002
ssg75
(dp337
g10
F0.40000000000000002
ssVcom.taobao.taobao
p338
(dp339
g10
F0.90000000000000002
ssg188
(dp340
g10
F2.2000000000000002
ssVcom.yulong.android.launcher3
p341
(dp342
g10
F66.200000000000003
ssg122
(dp343
g10
F0.90000000000000002
ssg266
(dp344
g10
F2.2999999999999998
ssVcom.yulong.android.coolshow
p345
(dp346
g10
F0.90000000000000002
ssVcom.tencent.mobileqq
p347
(dp348
g10
F2.1000000000000001
ssg27
(dp349
g10
F0.90000000000000002
sssg43
(dp350
g136
(dp351
g10
F1.3
ssg21
(dp352
g10
F0.90000000000000002
ssVcom.yulong.android.launcher3
p353
(dp354
g10
F144.20000000000016
ssVcom.yulong.android.coolshow
p355
(dp356
g10
F40.299999999999997
ssVcom.yulong.android.filebrowser
p357
(dp358
g10
F1.3
ssVcom.amazon.kindle
p359
(dp360
g10
F1.5
ssVcom.taobao.taobao
p361
(dp362
g10
F14.300000000000002
ssVcom.android.incallui
p363
(dp364
g10
F5.2000000000000002
ssg140
(dp365
g10
F15.700000000000003
ssg69
(dp366
g10
F10.900000000000002
ssg308
(dp367
g10
F0.69999999999999996
ssg238
(dp368
g10
F1.3999999999999999
ssVcom.yulong.android.contacts
p369
(dp370
g10
F2.6000000000000001
ssg53
(dp371
g10
F1.8
ssVcom.yulong.android.xtime
p372
(dp373
g10
F6.9000000000000012
ssg190
(dp374
g10
F0.40000000000000002
ssVcom.tencent.qqlive
p375
(dp376
g10
F0.90000000000000002
ssg63
(dp377
g10
F2.8999999999999999
ssg65
(dp378
g10
I1
ssg19
(dp379
g10
F0.69999999999999996
ssg334
(dp380
g10
F4.2999999999999998
ssVcom.yuedong.sport
p381
(dp382
g10
F3.7999999999999998
ssg79
(dp383
g10
F0.40000000000000002
sssg45
(dp384
Vcom.yulong.android.coolshow
p385
(dp386
g10
I1
ssVcom.tencent.mm
p387
(dp388
g10
F1.3
ssVcom.yulong.android.launcher3
p389
(dp390
g10
F1.7
sssg47
(dp391
Vcom.android.incallui
p392
(dp393
g10
F2.8999999999999999
ssVcom.yulong.android.coolshow
p394
(dp395
g10
F0.69999999999999996
ssVcom.yulong.android.launcher3
p396
(dp397
g10
F0.90000000000000002
ssg49
(dp398
g10
F3.5
sssg49
(dp399
g392
(dp400
g10
F16.499999999999996
ssVcom.yulong.android.launcher3
p401
(dp402
g10
F2.6000000000000001
ssVcom.yulong.android.coolshow
p403
(dp404
g10
F4
sssg51
(dp405
g196
(dp406
g10
F0.90000000000000002
ssVcom.android.systemui
p407
(dp408
g10
F0.40000000000000002
ssVcom.android.mms
p409
(dp410
g10
F1.3
ssg311
(dp411
g10
I1
ssg96
(dp412
g10
F8.6000000000000014
ssVcom.yulong.android.launcher3
p413
(dp414
g10
F20.899999999999995
ssVcom.android.phone
p415
(dp416
g10
F6.5
ssVcom.yulong.android.coolshow
p417
(dp418
g10
F3.9000000000000004
ssVcom.tencent.mm
p419
(dp420
g10
F4.2000000000000002
sssg53
(dp421
g63
(dp422
g10
F0.90000000000000002
ssVcom.tencent.mm
p423
(dp424
g10
F0.40000000000000002
ssVcom.yulong.android.launcher3
p425
(dp426
g10
F3.4000000000000004
ssg190
(dp427
g10
F0.90000000000000002
ssVcom.android.systemui
p428
(dp429
g10
F0.40000000000000002
sssg55
(dp430
Vcom.yulong.android.filebrowser
p431
(dp432
g10
F0.40000000000000002
ssVcom.tencent.mobileqq
p433
(dp434
g10
F1.8
ssVcom.yulong.android.launcher3
p435
(dp436
g10
F7.5
ssg15
(dp437
g10
I1
ssVcom.yulong.android.coolshow
p438
(dp439
g10
I10
ssVcom.tencent.mm
p440
(dp441
g10
F8.1000000000000014
sssg57
(dp442
Vcom.iqianjin.client
p443
(dp444
g10
F0.40000000000000002
ssg338
(dp445
g10
F0.40000000000000002
ssVcom.yulong.android.launcher3
p446
(dp447
g10
F10.199999999999999
ssg27
(dp448
g10
F0.40000000000000002
ssg428
(dp449
g10
F3.6000000000000001
sssg59
(dp450
Vcom.yulong.android.coolshow
p451
(dp452
g10
I1
ssVcom.yuedong.sport
p453
(dp454
g10
F0.69999999999999996
ssg347
(dp455
g10
F1.3
ssVcom.yulong.android.launcher3
p456
(dp457
g10
F9.2000000000000011
ssVcom.android.systemui
p458
(dp459
g10
F0.90000000000000002
sssg61
(dp460
Vcom.yulong.android.coolshow
p461
(dp462
g10
I1
ssVcom.tencent.mm
p463
(dp464
g10
F1.3
ssVcom.yulong.android.launcher3
p465
(dp466
g10
F2.7000000000000002
sssg63
(dp467
g423
(dp468
g10
F1.8999999999999999
ssVcom.nuomi
p469
(dp470
g10
F0.40000000000000002
ssVcom.yulong.android.launcher3
p471
(dp472
g10
F20.399999999999995
ssVcom.android.systemui
p473
(dp474
g10
F1.3999999999999999
ssVcom.tencent.mobileqq
p475
(dp476
g10
F1.5
ssVcom.eg.android.AlipayGphone
p477
(dp478
g10
I1
sssg65
(dp479
Vcom.tencent.mm
p480
(dp481
g10
F0.90000000000000002
ssVcom.yulong.android.launcher3
p482
(dp483
g10
I1
sssg67
(dp484
g176
(dp485
g10
F2.7000000000000002
ssVcom.yulong.android.contacts
p486
(dp487
g10
F1.8
ssVcom.android.incallui
p488
(dp489
g10
F1.3
ssVcom.yulong.android.launcher3
p490
(dp491
g10
F5.7000000000000002
ssVcom.android.phone
p492
(dp493
g10
I1
ssVcom.yulong.android.coolshow
p494
(dp495
g10
F0.40000000000000002
sssg69
(dp496
Vcom.UCMobile
p497
(dp498
g10
F0.90000000000000002
ssVcom.android.browser
p499
(dp500
g10
I1
ssg357
(dp501
g10
F1.7000000000000002
ssVcom.coolpad.music
p502
(dp503
g10
F0.69999999999999996
ssg90
(dp504
g10
F0.40000000000000002
ssVcom.android.mms
p505
(dp506
g10
F1.3
ssVcom.yuedong.sport
p507
(dp508
g10
F24.29999999999999
ssg94
(dp509
g10
F2
ssg53
(dp510
g10
F0.40000000000000002
ssg241
(dp511
g10
I1
ssVcom.android.systemui
p512
(dp513
g10
F0.69999999999999996
ssVcom.yulong.android.launcher3
p514
(dp515
g10
F48.599999999999987
ssg245
(dp516
g10
F1.3
ssVcom.icoolme.android.weather
p517
(dp518
g10
F0.90000000000000002
ssg79
(dp519
g10
F0.90000000000000002
ssVcom.yulong.android.coolshow
p520
(dp521
g10
F13.699999999999999
ssVcom.tencent.mm
p522
(dp523
g10
F8.9000000000000021
sssg71
(dp524
g174
(dp525
g10
F0.90000000000000002
ssVcom.tencent.mm
p526
(dp527
g10
F9.2000000000000011
ssVcom.yulong.android.launcher3
p528
(dp529
g10
F18.699999999999999
ssVcom.android.systemui
p530
(dp531
g10
F0.40000000000000002
ssVcom.yulong.android.coolshow
p532
(dp533
g10
I1
ssVcom.tencent.mobileqq
p534
(dp535
g10
F0.40000000000000002
sssg73
(dp536
Vcom.yulong.android.launcher3
p537
(dp538
g10
F5.7000000000000002
sssg75
(dp539
Vcom.yulong.android.launcher3
p540
(dp541
g10
F1.7
ssg284
(dp542
g10
F1.3
sssg77
(dp543
Vcom.tencent.mm
p544
(dp545
g10
F1.5
ssVcom.yulong.android.launcher3
p546
(dp547
g10
F3.5
sssg79
(dp548
Vcom.yulong.android.launcher3
p549
(dp550
g10
F19.699999999999996
ssVcom.android.systemui
p551
(dp552
g10
F0.40000000000000002
sssg81
(dp553
Vcom.tencent.mm
p554
(dp555
g10
F1.3
ssVcom.yulong.android.launcher3
p556
(dp557
g10
F3.7000000000000002
ssssS'edge'
p558
g86
sS'pred'
p559
(dp560
g8
(dp561
g104
g208
sg98
g155
sg88
g500
sVcom.amazon.kindle
p562
g280
ssg11
(dp563
g109
g210
ssg13
(dp564
Vcom.yulong.android.coolshow
p565
g212
sVcom.yulong.android.launcher3
p566
g166
sVcom.jd.jrapp
p567
g444
sg268
g331
ssg15
(dp568
Vcom.yulong.android.xtime
p569
g437
sVcom.yulong.android.launcher3
p570
g168
sVcom.yulong.android.coolshow
p571
g213
ssg17
(dp572
Vcom.tencent.mobileqq
p573
g508
sVcom.yulong.android.contacts
p574
g411
sVcom.android.incallui
p575
g312
sVcom.yulong.android.launcher3
p576
g201
sg375
g454
sVcom.android.systemui
p577
g336
sg142
g215
sVcom.tencent.mm
p578
g382
ssg19
(dp579
Vcom.tencent.mobileqq
p580
g503
sVcom.tencent.mm
p581
g379
sVcom.yulong.android.launcher3
p582
g169
sg357
g271
sVcom.android.systemui
p583
g329
ssg21
(dp584
g163
g218
sVcom.tencent.mm
p585
g352
sVcom.yulong.android.launcher3
p586
g170
sVcom.android.browser
p587
g99
ssg23
(dp588
g8
g101
sVcom.youdao.dict
p589
g114
sg13
g121
sg167
g132
sg381
g139
sg19
g150
sVcom.tencent.qqmusic
p590
g162
sg25
g220
sg27
g265
sg29
g273
sg118
g282
sg176
g292
sVcom.android.gallery3d
p591
g295
sVcom.taobao.taobao
p592
g302
sVcom.android.incallui
p593
g318
sg428
g342
sVcom.tencent.mobileqq
p594
g515
sg45
g390
sg308
g397
sg90
g402
sg57
g447
sg53
g426
sVcom.yulong.android.xtime
p595
g436
sVcom.yulong.android.contacts
p596
g414
sVcom.tencent.qqlive
p597
g457
sg61
g466
sg63
g472
sg65
g483
sg67
g491
sg43
g354
sg253
g529
sg73
g538
sg75
g541
sg77
g547
sg79
g550
sVcom.android.camera
p598
g557
ssg25
(dp599
Vcom.android.browser
p600
g105
sg11
g110
sg136
g495
sVcom.tencent.qqmusic
p601
g164
sVcom.yulong.android.launcher3
p602
g171
sVcom.eg.android.AlipayGphone
p603
g262
sg31
g278
sg33
g288
sVcom.taobao.taobao
p604
g298
sg39
g322
sVcom.android.systemui
p605
g346
sg578
g356
sg45
g386
sg308
g395
sg49
g404
sg369
g418
sg55
g439
sVcom.tencent.qqlive
p606
g452
sVcom.icoolme.android.weather
p607
g462
sVcom.tencent.mobileqq
p608
g521
sVcom.android.mms
p609
g533
sg17
g143
ssg27
(dp610
Vcom.yulong.android.coolshow
p611
g222
sg249
g478
sVcom.yulong.android.launcher3
p612
g172
sg190
g448
sg428
g349
ssg29
(dp613
g19
g152
sVcom.tencent.mobileqq
p614
g501
sVcom.yulong.android.xtime
p615
g432
sg23
g173
sVcom.android.systemui
p616
g327
sVcom.yulong.android.coolshow
p617
g224
sg581
g358
ssg31
(dp618
g13
g119
sVcom.android.mms
p619
g525
sVcom.yulong.android.launcher3
p620
g175
sg124
g330
sg277
g226
sVcom.tencent.mm
p621
g360
ssg33
(dp622
g287
g228
sg490
g177
sg67
g485
ssg35
(dp623
Vcom.yulong.android.coolshow
p624
g229
sVcom.yulong.android.launcher3
p625
g179
ssg37
(dp626
Vcom.yulong.android.coolshow
p627
g231
sVcom.tencent.mm
p628
g362
sVcom.yulong.android.launcher3
p629
g180
sVcom.jd.jrapp
p630
g445
sVcom.android.systemui
p631
g339
ssg39
(dp632
g47
g393
sg499
g97
sg94
g412
sg196
g489
sVcom.tencent.qqmusic
p633
g160
sVcom.yulong.android.launcher3
p634
g181
sg49
g400
sVcom.yulong.android.coolshow
p635
g232
sVcom.tencent.mm
p636
g364
ssg41
(dp637
g8
g103
sg118
g285
sg13
g125
sVcom.yulong.android.contacts
p638
g408
sg505
g531
sg381
g141
sg190
g449
sg604
g306
sg469
g429
sg96
g320
sVcom.yulong.android.launcher3
p639
g182
sg375
g459
sVcom.tencent.qqpimsecure
p640
g552
sg75
g542
sg355
g233
sg249
g474
sVcom.tencent.mm
p641
g365
sg27
g269
sVcom.tencent.mobileqq
p642
g513
ssg43
(dp643
g600
g107
sg65
g481
sg589
g112
sVcom.android.incallui
p644
g324
sg77
g545
sVcom.android.packageinstaller
p645
g290
sVcom.android.systemui
p646
g333
sg253
g527
sVcom.yuedong.sport
p647
g145
sVcom.taobao.taobao
p648
g300
sg53
g424
sg241
g441
sVcom.android.camera
p649
g555
sg602
g183
sg638
g420
sg607
g464
sg25
g234
sg63
g468
sg594
g523
sg167
g130
sg45
g388
ssg45
(dp650
g385
g236
ssg47
(dp651
Vcom.yulong.android.coolshow
p652
g237
sVcom.tencent.mm
p653
g367
sVcom.yulong.android.launcher3
p654
g184
sVcom.android.incallui
p655
g309
ssg49
(dp656
g47
g398
sg499
g91
sVcom.tencent.mm
p657
g368
sVcom.yulong.android.contacts
p658
g416
sg136
g493
sg654
g185
sVcom.yulong.android.coolshow
p659
g239
sg88
g504
ssg51
(dp660
Vcom.android.browser
p661
g95
sg196
g487
sg88
g509
sVcom.android.incallui
p662
g314
sg590
g158
sVcom.yulong.android.launcher3
p663
g186
sVcom.yulong.android.coolshow
p664
g240
sVcom.tencent.mm
p665
g370
ssg53
(dp666
Vcom.tencent.mm
p667
g371
sg63
g470
sVcom.tencent.mobileqq
p668
g510
sVcom.yulong.android.launcher3
p669
g187
ssg55
(dp670
Vcom.yulong.android.filebrowser
p671
g274
sg433
g511
sg15
g128
sVcom.coolpad.music
p672
g148
sVcom.yulong.android.launcher3
p673
g189
sg284
g340
sVcom.yulong.android.coolshow
p674
g242
sVcom.tencent.mm
p675
g373
ssg57
(dp676
g338
g304
sg469
g427
sVcom.yulong.android.launcher3
p677
g191
sg473
g344
sVcom.yulong.android.coolshow
p678
g244
sg423
g374
sg477
g267
ssg59
(dp679
Vcom.tencent.mobileqq
p680
g516
sg443
g123
sVcom.yulong.android.launcher3
p681
g192
sVcom.android.systemui
p682
g343
sVcom.yulong.android.coolshow
p683
g246
sVcom.tencent.mm
p684
g376
ssg61
(dp685
g461
g248
sVcom.tencent.mobileqq
p686
g518
sVcom.yulong.android.launcher3
p687
g193
sVcom.yulong.android.filebrowser
p688
g275
ssg63
(dp689
g53
g422
sg611
g250
sg667
g377
sVcom.yulong.android.launcher3
p690
g194
sg221
g263
ssg65
(dp691
Vcom.yulong.android.coolshow
p692
g251
sVcom.tencent.mm
p693
g378
sVcom.yulong.android.launcher3
p694
g195
ssg67
(dp695
g115
g498
sg311
g137
sVcom.yulong.android.contacts
p696
g406
sVcom.android.incallui
p697
g316
sVcom.yulong.android.launcher3
p698
g197
sVcom.yulong.android.coolshow
p699
g216
sVcom.tencent.mm
p700
g351
ssg69
(dp701
Vcom.android.browser
p702
g89
sVcom.youdao.dict
p703
g116
sVcom.android.mms
p704
g535
sVcom.yuedong.sport
p705
g135
sg595
g434
sg219
g198
sg122
g455
sg682
g348
sg25
g252
sVcom.android.email
p706
g476
sg43
g366
ssg71
(dp707
g154
g93
sVcom.tencent.mobileqq
p708
g506
sVcom.yulong.android.contacts
p709
g410
sg593
g310
sg98
g156
sg317
g199
sg530
g335
sVcom.yulong.android.coolshow
p710
g254
sVcom.tencent.mm
p711
g380
ssg73
(dp712
Vcom.yulong.android.coolshow
p713
g255
ssg75
(dp714
g118
g283
sVcom.yulong.android.launcher3
p715
g202
sg124
g337
ssg77
(dp716
Vcom.yulong.android.coolshow
p717
g256
sVcom.yulong.android.launcher3
p718
g203
ssg79
(dp719
g534
g519
sg526
g383
sVcom.yulong.android.launcher3
p720
g204
sVcom.yulong.android.coolshow
p721
g258
ssg81
(dp722
Vcom.yulong.android.coolshow
p723
g259
sVcom.yulong.android.launcher3
p724
g205
sssS'adj'
p725
g86
sb.