ccopy_reg
_reconstructor
p1
(cnetworkx.classes.digraph
DiGraph
p2
c__builtin__
object
p3
NtRp4
(dp5
S'node'
p6
(dp7
Vim.naodong.gaonengfun
p8
(dp9
S'weight'
p10
F0.0010391052077887712
ssVcom.kenai.liuliang
p11
(dp12
g10
F3.6142789836131171e-05
ssVcom.baidu.netdisk
p13
(dp14
g10
F0.0051167863896579985
ssVcom.UCMobile
p15
(dp16
g10
F0.0035807178216224239
ssVcom.sohu.inputmethod.sogou
p17
(dp18
g10
F2.1943836686222499e-05
ssVcom.blizzard.wtcg.hearthstone
p19
(dp20
g10
F0.0002710709237709838
ssVcom.meizu.media.painter
p21
(dp22
g10
F1.0326511381751763e-05
ssVcom.fotoable.helpr
p23
(dp24
g10
F3.6142789836131171e-05
ssVcom.mymoney
p25
(dp26
g10
F0.00049050929063320877
ssVcom.eg.android.AlipayGphone
p27
(dp28
g10
F0.00051374394124215029
ssVcom.android.launcher3
p29
(dp30
g10
F0.55423290155607619
ssVcom.android.dialer
p31
(dp32
g10
F0.0047063075622333665
ssVcom.estrongs.android.pop
p33
(dp34
g10
F2.3234650608941469e-05
ssVcom.android.packageinstaller
p35
(dp36
g10
F0.00011230081127655043
ssVcom.jingdong.app.mall
p37
(dp38
g10
F0.0023376640140440556
ssVcom.taobao.taobao
p39
(dp40
g10
F0.0075577155175195719
ssVcom.astrogame.sherman
p41
(dp42
g10
F0.0797129229835873
ssVcom.android.phone
p43
(dp44
g10
F1.2908139227189703e-06
ssVcom.meizu.media.gallery
p45
(dp46
g10
F0.00057957545130081771
ssVcom.icbc
p47
(dp48
g10
F0.0001652241821080282
ssVcom.android.alarmclock
p49
(dp50
g10
F2.8397906299817348e-05
ssVcom.tencent.mm
p51
(dp52
g10
F0.027712484106853577
ssVtv.danmaku.bili
p53
(dp54
g10
F0.007535771680833349
ssVcom.meizu.mstore
p55
(dp56
g10
F0.00012004569481286425
ssVcom.meizu.flyme.weather
p57
(dp58
g10
F1.8071394918065586e-05
ssVcom.meizu.media.camera
p59
(dp60
g10
F0.00032915755029333749
ssVcom.meizu.filemanager
p61
(dp62
g10
F4.0015231604288084e-05
ssVcom.kingreader.framework
p63
(dp64
g10
F0.13053743037672405
ssVcom.tencent.mobileqq
p65
(dp66
g10
F0.13774662613510949
ssVcom.meizu.notepaper
p67
(dp68
g10
F0.00022331080863038189
ssVcom.meizu.cloud
p69
(dp70
g10
F1.1617325304470734e-05
ssVcom.gonlan.iplaymtg
p71
(dp72
g10
F0.00056924893991906593
ssVcom.android.calendar
p73
(dp74
g10
F3.7433603758850145e-05
ssVcom.android.settings
p75
(dp76
g10
F0.0017193641450616685
ssVcom.tencent.qt.qtl
p77
(dp78
g10
F0.0066618906551526068
ssVcom.alipay.android.app
p79
(dp80
g10
F4.3887673372444998e-05
ssVcom.android.mms
p81
(dp82
g10
F0.00026203522631195099
ssVcom.qzone
p83
(dp84
g10
F0.0028449538856726107
ssVcom.baidu.tieba
p85
(dp86
g10
F0.016117102639069066
ssVcom.xiaoji.emulator
p87
(dp88
g10
F0.0065986407729393768
ssVcom.tencent.djcity
p89
(dp90
g10
F0.00022072918078494395
ssVcom.sohu.sohuvideo
p91
(dp92
g10
F7.6158021440419262e-05
sssS'graph'
p93
(dp94
sS'succ'
p95
(dp96
g8
(dp97
Vcom.android.launcher3
p98
(dp99
g10
F3.3999999999999999
ssVcom.tencent.mobileqq
p100
(dp101
g10
I1
ssVcom.astrogame.sherman
p102
(dp103
g10
F1.3
sssg11
(dp104
Vcom.android.launcher3
p105
(dp106
g10
F3.5999999999999996
ssVcom.baidu.tieba
p107
(dp108
g10
F0.40000000000000002
ssVcom.tencent.mobileqq
p109
(dp110
g10
F0.90000000000000002
ssVcom.kingreader.framework
p111
(dp112
g10
F1.8999999999999999
ssVcom.baidu.netdisk
p113
(dp114
g10
F0.69999999999999996
sssg13
(dp115
Vcom.android.launcher3
p116
(dp117
g10
I1
sssg15
(dp118
Vcom.android.launcher3
p119
(dp120
g10
F20.699999999999999
ssVcom.meizu.media.camera
p121
(dp122
g10
F2.1000000000000001
ssVcom.tencent.mobileqq
p123
(dp124
g10
F10.200000000000001
ssVcom.android.packageinstaller
p125
(dp126
g10
I1
ssVcom.android.mms
p127
(dp128
g10
F0.90000000000000002
ssg8
(dp129
g10
F1.7000000000000002
ssVcom.baidu.tieba
p130
(dp131
g10
F0.90000000000000002
ssVcom.android.settings
p132
(dp133
g10
F0.40000000000000002
ssVcom.tencent.mm
p134
(dp135
g10
F4.2999999999999998
ssVcom.tencent.djcity
p136
(dp137
g10
F0.40000000000000002
sssg17
(dp138
sg19
(dp139
Vcom.android.launcher3
p140
(dp141
g10
I2
ssVcom.tencent.mobileqq
p142
(dp143
g10
F0.90000000000000002
sssg21
(dp144
Vcom.meizu.media.gallery
p145
(dp146
g10
I1
sssg23
(dp147
Vcom.android.launcher3
p148
(dp149
g10
I1
ssg145
(dp150
g10
F0.69999999999999996
ssg21
(dp151
g10
F0.90000000000000002
sssg25
(dp152
Vcom.android.launcher3
p153
(dp154
g10
F5.7000000000000002
ssVcom.tencent.mobileqq
p155
(dp156
g10
F0.69999999999999996
ssVcom.jingdong.app.mall
p157
(dp158
g10
F1.6000000000000001
ssVcom.icbc
p159
(dp160
g10
F7.8000000000000007
ssVcom.tencent.mm
p161
(dp162
g10
F0.90000000000000002
ssVcom.eg.android.AlipayGphone
p163
(dp164
g10
F2.7000000000000002
ssg57
(dp165
g10
F0.40000000000000002
sssg27
(dp166
Vcom.android.launcher3
p167
(dp168
g10
F2.3999999999999999
ssg155
(dp169
g10
F1.3
ssVcom.mymoney
p170
(dp171
g10
I1
sssg29
(dp172
g8
(dp173
g10
F2.7000000000000002
ssg11
(dp174
g10
F5
ssg13
(dp175
g10
F4.5999999999999996
ssVcom.UCMobile
p176
(dp177
g10
F19.699999999999999
ssg17
(dp178
g10
F1.3
ssg19
(dp179
g10
F1.7
ssg21
(dp180
g10
F1.7
ssg23
(dp181
g10
F2.1000000000000001
ssg25
(dp182
g10
F5.7000000000000011
ssg27
(dp183
g10
F4.4000000000000004
ssg31
(dp184
g10
F7.7000000000000002
ssg33
(dp185
g10
F0.90000000000000002
ssg35
(dp186
g10
F5.3000000000000007
ssg37
(dp187
g10
F11.700000000000003
ssg39
(dp188
g10
F12.199999999999999
ssg41
(dp189
g10
F130.00000000000011
ssg43
(dp190
g10
F1.3
ssg45
(dp191
g10
F6.1000000000000005
ssg47
(dp192
g10
F2.6999999999999997
ssg49
(dp193
g10
I2
ssVcom.tencent.mm
p194
(dp195
g10
F182.69999999999993
ssg53
(dp196
g10
F12.1
ssg55
(dp197
g10
I1
ssg57
(dp198
g10
F0.69999999999999996
ssg59
(dp199
g10
F6.4000000000000012
ssg61
(dp200
g10
F5.0999999999999996
ssg63
(dp201
g10
F42.900000000000006
ssVcom.tencent.mobileqq
p202
(dp203
g10
F366.49999999999903
ssg67
(dp204
g10
F14.499999999999998
ssg69
(dp205
g10
F1.8999999999999999
ssg71
(dp206
g10
F2.3999999999999999
ssg73
(dp207
g10
F1.8999999999999999
ssg75
(dp208
g10
F13.600000000000001
ssg77
(dp209
g10
F4.4000000000000004
ssg79
(dp210
g10
F2.2000000000000002
ssg81
(dp211
g10
F8.4000000000000004
ssVcom.qzone
p212
(dp213
g10
F5.4000000000000004
ssg85
(dp214
g10
F30.899999999999988
ssg87
(dp215
g10
F2.7000000000000002
ssg89
(dp216
g10
F3.3999999999999999
ssg91
(dp217
g10
F1.7
sssg31
(dp218
Vcom.android.launcher3
p219
(dp220
g10
F13.699999999999999
ssVcom.tencent.mobileqq
p221
(dp222
g10
F2.8999999999999999
ssVcom.tencent.qt.qtl
p223
(dp224
g10
F1.3
ssVcom.android.mms
p225
(dp226
g10
F2.7999999999999998
ssVcom.astrogame.sherman
p227
(dp228
g10
I1
ssg43
(dp229
g10
I1
ssVcom.tencent.mm
p230
(dp231
g10
F4.5999999999999996
sssg33
(dp232
Vcom.meizu.filemanager
p233
(dp234
g10
I1
sssg35
(dp235
Vcom.android.launcher3
p236
(dp237
g10
F4.6999999999999993
ssVcom.gonlan.iplaymtg
p238
(dp239
g10
F0.90000000000000002
ssVcom.tencent.mobileqq
p240
(dp241
g10
F0.40000000000000002
ssVcom.UCMobile
p242
(dp243
g10
F1.7
ssVcom.baidu.tieba
p244
(dp245
g10
F0.40000000000000002
ssVcom.tencent.mm
p246
(dp247
g10
F0.90000000000000002
ssVcom.tencent.djcity
p248
(dp249
g10
I1
ssVtv.danmaku.bili
p250
(dp251
g10
F0.90000000000000002
sssg37
(dp252
Vcom.android.launcher3
p253
(dp254
g10
F11.100000000000001
ssVcom.meizu.notepaper
p255
(dp256
g10
F1.8
ssg25
(dp257
g10
F2
ssg57
(dp258
g10
I1
ssVcom.tencent.mm
p259
(dp260
g10
F2.3999999999999999
ssVcom.tencent.mobileqq
p261
(dp262
g10
F1.6000000000000001
sssg39
(dp263
Vcom.android.launcher3
p264
(dp265
g10
F12.199999999999999
ssVcom.meizu.notepaper
p266
(dp267
g10
F1.3
ssVcom.tencent.mobileqq
p268
(dp269
g10
F5.6000000000000005
ssVcom.kingreader.framework
p270
(dp271
g10
F0.40000000000000002
sssg41
(dp272
Vcom.android.launcher3
p273
(dp274
g10
F99.600000000000122
ssVcom.meizu.notepaper
p275
(dp276
g10
F0.69999999999999996
ssVcom.android.dialer
p277
(dp278
g10
I1
ssg55
(dp279
g10
F1.3
ssVcom.kenai.liuliang
p280
(dp281
g10
F0.90000000000000002
ssVcom.tencent.mm
p282
(dp283
g10
F7.5000000000000009
ssg79
(dp284
g10
F2.7000000000000002
ssg13
(dp285
g10
F0.90000000000000002
ssVcom.UCMobile
p286
(dp287
g10
F1.7000000000000002
ssVcom.baidu.tieba
p288
(dp289
g10
F2.2000000000000002
ssVcom.kingreader.framework
p290
(dp291
g10
F0.90000000000000002
ssg17
(dp292
g10
F0.69999999999999996
ssVcom.xiaoji.emulator
p293
(dp294
g10
F0.40000000000000002
ssVcom.tencent.mobileqq
p295
(dp296
g10
F47.299999999999983
ssg27
(dp297
g10
F1.3
sssg43
(dp298
sg45
(dp299
Vcom.android.launcher3
p300
(dp301
g10
F6.1000000000000005
ssVcom.tencent.mobileqq
p302
(dp303
g10
F3.1000000000000001
ssVcom.kingreader.framework
p304
(dp305
g10
F0.40000000000000002
sssg47
(dp306
Vcom.android.launcher3
p307
(dp308
g10
F2.2999999999999998
ssVcom.mymoney
p309
(dp310
g10
F9.5
ssg163
(dp311
g10
F0.69999999999999996
sssg49
(dp312
Vcom.android.launcher3
p313
(dp314
g10
I1
ssVcom.tencent.mobileqq
p315
(dp316
g10
F0.90000000000000002
ssVcom.meizu.flyme.weather
p317
(dp318
g10
I1
sssg51
(dp319
g8
(dp320
g10
F0.69999999999999996
ssg11
(dp321
g10
F1.1000000000000001
ssVcom.UCMobile
p322
(dp323
g10
F3.6000000000000001
ssg21
(dp324
g10
F0.40000000000000002
ssg23
(dp325
g10
F0.90000000000000002
ssg25
(dp326
g10
F1.6000000000000001
ssVcom.android.launcher3
p327
(dp328
g10
F139.20000000000007
ssg31
(dp329
g10
F2.0999999999999996
ssg125
(dp330
g10
F0.69999999999999996
ssVcom.jingdong.app.mall
p331
(dp332
g10
I2
ssVcom.astrogame.sherman
p333
(dp334
g10
F9.6000000000000032
ssg45
(dp335
g10
F0.69999999999999996
ssVcom.tencent.mobileqq
p336
(dp337
g10
F51.099999999999959
ssVtv.danmaku.bili
p338
(dp339
g10
F1.7999999999999998
ssVcom.meizu.filemanager
p340
(dp341
g10
F0.90000000000000002
ssVcom.kingreader.framework
p342
(dp343
g10
F7.5000000000000009
ssVcom.android.alarmclock
p344
(dp345
g10
F0.90000000000000002
ssg67
(dp346
g10
F1.8
ssVcom.android.settings
p347
(dp348
g10
F0.80000000000000004
ssVcom.android.mms
p349
(dp350
g10
F2.2000000000000002
ssg85
(dp351
g10
F4.7999999999999998
ssg136
(dp352
g10
F0.90000000000000002
ssg57
(dp353
g10
F0.90000000000000002
sssg53
(dp354
Vcom.android.launcher3
p355
(dp356
g10
F9.7000000000000011
ssVcom.tencent.mobileqq
p357
(dp358
g10
F4
ssVcom.android.packageinstaller
p359
(dp360
g10
I2
ssVcom.tencent.mm
p361
(dp362
g10
F2.5999999999999996
ssVcom.astrogame.sherman
p363
(dp364
g10
F0.40000000000000002
sssg55
(dp365
Vcom.android.launcher3
p366
(dp367
g10
I1
ssVcom.tencent.mobileqq
p368
(dp369
g10
F0.90000000000000002
sssg57
(dp370
Vcom.android.launcher3
p371
(dp372
g10
F1.7
ssVcom.tencent.mobileqq
p373
(dp374
g10
F1.3
sssg59
(dp375
Vcom.android.launcher3
p376
(dp377
g10
F6.5000000000000009
ssVcom.UCMobile
p378
(dp379
g10
F0.90000000000000002
ssVcom.tencent.mobileqq
p380
(dp381
g10
F5.3999999999999995
sssg61
(dp382
g33
(dp383
g10
I1
ssVcom.android.launcher3
p384
(dp385
g10
I1
ssVcom.android.settings
p386
(dp387
g10
F0.90000000000000002
sssg63
(dp388
Vcom.android.launcher3
p389
(dp390
g10
F45
ssg11
(dp391
g10
I1
ssVcom.tencent.mm
p392
(dp393
g10
F9.6000000000000014
ssg13
(dp394
g10
F1.7000000000000002
ssVcom.taobao.taobao
p395
(dp396
g10
F0.90000000000000002
ssg41
(dp397
g10
F1.8
ssVcom.android.settings
p398
(dp399
g10
F1.3
ssVcom.meizu.media.gallery
p400
(dp401
g10
F1.3999999999999999
ssg293
(dp402
g10
F0.90000000000000002
ssVcom.tencent.mobileqq
p403
(dp404
g10
F59.699999999999996
ssVcom.eg.android.AlipayGphone
p405
(dp406
g10
F0.90000000000000002
sssg65
(dp407
Vim.naodong.gaonengfun
p408
(dp409
g10
F1.7
ssVcom.UCMobile
p410
(dp411
g10
F10.699999999999999
ssg17
(dp412
g10
I1
ssg19
(dp413
g10
F1.3999999999999999
ssVcom.android.launcher3
p414
(dp415
g10
F313.29999999999939
ssg31
(dp416
g10
F4.2000000000000002
ssg359
(dp417
g10
F0.69999999999999996
ssg37
(dp418
g10
F4.4000000000000004
ssg39
(dp419
g10
F3.5999999999999996
ssVcom.astrogame.sherman
p420
(dp421
g10
F48.499999999999964
ssg43
(dp422
g10
F0.69999999999999996
ssg45
(dp423
g10
F3.1000000000000001
ssg91
(dp424
g10
F0.90000000000000002
ssVtv.danmaku.bili
p425
(dp426
g10
F4.0999999999999996
ssg55
(dp427
g10
F0.69999999999999996
ssg51
(dp428
g10
F72.700000000000017
ssg121
(dp429
g10
F5
ssg340
(dp430
g10
F0.40000000000000002
ssVcom.kingreader.framework
p431
(dp432
g10
F57.800000000000011
ssg67
(dp433
g10
F4.7999999999999998
ssg347
(dp434
g10
F2.5
ssg77
(dp435
g10
F4
ssg79
(dp436
g10
F1.1000000000000001
ssVcom.android.mms
p437
(dp438
g10
F2.3999999999999999
ssg212
(dp439
g10
F0.90000000000000002
ssg85
(dp440
g10
F12.100000000000003
sssg67
(dp441
Vcom.android.launcher3
p442
(dp443
g10
F10.800000000000001
ssVcom.tencent.mobileqq
p444
(dp445
g10
F6.2000000000000011
ssg37
(dp446
g10
F3.7999999999999998
ssVcom.taobao.taobao
p447
(dp448
g10
F0.90000000000000002
ssVcom.astrogame.sherman
p449
(dp450
g10
F0.40000000000000002
ssg259
(dp451
g10
F1.8
sssg69
(dp452
Vcom.android.launcher3
p453
(dp454
g10
F1.7
ssVcom.tencent.mobileqq
p455
(dp456
g10
F0.40000000000000002
ssVcom.tencent.mm
p457
(dp458
g10
F0.90000000000000002
sssg71
(dp459
Vcom.android.launcher3
p460
(dp461
g10
F2.2999999999999998
ssVcom.android.packageinstaller
p462
(dp463
g10
I1
ssg244
(dp464
g10
F0.90000000000000002
sssg73
(dp465
Vcom.android.launcher3
p466
(dp467
g10
I1
sssg75
(dp468
Vcom.android.launcher3
p469
(dp470
g10
F11.5
ssg202
(dp471
g10
F3.5
ssVcom.meizu.filemanager
p472
(dp473
g10
F0.90000000000000002
ssg431
(dp474
g10
F0.90000000000000002
ssg19
(dp475
g10
F0.90000000000000002
ssg194
(dp476
g10
F2.2000000000000002
sssg77
(dp477
Vcom.android.launcher3
p478
(dp479
g10
F4.0999999999999996
ssVcom.tencent.mm
p480
(dp481
g10
F1.3
ssVcom.tencent.mobileqq
p482
(dp483
g10
F3.1000000000000001
ssVcom.kingreader.framework
p484
(dp485
g10
F1.3
sssg79
(dp486
Vcom.astrogame.sherman
p487
(dp488
g10
I1
sssg81
(dp489
Vcom.android.launcher3
p490
(dp491
g10
F7.7000000000000011
ssVcom.android.dialer
p492
(dp493
g10
I1
ssVcom.kenai.liuliang
p494
(dp495
g10
F0.90000000000000002
ssg109
(dp496
g10
F0.40000000000000002
ssg223
(dp497
g10
F0.69999999999999996
ssg176
(dp498
g10
F0.90000000000000002
ssg134
(dp499
g10
F1.8
sssg83
(dp500
Vcom.android.launcher3
p501
(dp502
g10
F9.5
ssVcom.tencent.mobileqq
p503
(dp504
g10
F3.1000000000000001
ssVcom.tencent.mm
p505
(dp506
g10
F2.2000000000000002
ssVcom.astrogame.sherman
p507
(dp508
g10
F0.40000000000000002
ssVcom.kingreader.framework
p509
(dp510
g10
F0.40000000000000002
sssg85
(dp511
Vcom.android.launcher3
p512
(dp513
g10
F26.699999999999996
ssVcom.tencent.mm
p514
(dp515
g10
F3
ssg77
(dp516
g10
F0.40000000000000002
ssVcom.astrogame.sherman
p517
(dp518
g10
F1.3
ssg132
(dp519
g10
F0.90000000000000002
ssVcom.tencent.mobileqq
p520
(dp521
g10
F10.000000000000002
ssVcom.kingreader.framework
p522
(dp523
g10
F0.40000000000000002
sssg87
(dp524
Vcom.android.launcher3
p525
(dp526
g10
F2.7000000000000002
ssVcom.tencent.mm
p527
(dp528
g10
F0.40000000000000002
ssVcom.tencent.mobileqq
p529
(dp530
g10
F0.90000000000000002
sssg89
(dp531
g236
(dp532
g10
F1.7
ssg35
(dp533
g10
I1
sssg91
(dp534
Vcom.android.launcher3
p535
(dp536
g10
F1.7
ssVcom.tencent.mm
p537
(dp538
g10
F0.40000000000000002
ssVcom.tencent.mobileqq
p539
(dp540
g10
F0.90000000000000002
ssssS'edge'
p541
g96
sS'pred'
p542
(dp543
g8
(dp544
Vcom.android.launcher3
p545
g173
sg242
g129
sg246
g320
sg100
g409
ssg11
(dp546
Vcom.android.launcher3
p547
g174
sg349
g495
sVcom.tencent.mm
p548
g321
sg342
g391
sVcom.astrogame.sherman
p549
g281
ssg13
(dp550
g389
g175
sg63
g394
sg11
g114
sg41
g285
ssg15
(dp551
Vcom.android.launcher3
p552
g177
sg81
g498
sg125
g243
sg121
g379
sVcom.astrogame.sherman
p553
g287
sVcom.tencent.mm
p554
g323
sVcom.tencent.mobileqq
p555
g411
ssg17
(dp556
Vcom.android.launcher3
p557
g178
sVcom.tencent.mobileqq
p558
g412
sVcom.astrogame.sherman
p559
g292
ssg19
(dp560
Vcom.android.launcher3
p561
g179
sg347
g475
sg455
g413
ssg21
(dp562
Vcom.android.launcher3
p563
g180
sg23
g151
sVcom.tencent.mm
p564
g324
ssg23
(dp565
Vcom.android.launcher3
p566
g181
sg564
g325
ssg25
(dp567
Vcom.android.launcher3
p568
g182
sg47
g310
sg259
g326
sVcom.jingdong.app.mall
p569
g257
sg163
g171
ssg27
(dp570
Vcom.android.launcher3
p571
g183
sVcom.icbc
p572
g311
sVcom.mymoney
p573
g164
sg517
g297
sVcom.kingreader.framework
p574
g406
ssg29
(dp575
g8
g99
sg11
g106
sVcom.baidu.netdisk
p576
g117
sg15
g120
sg19
g141
sg23
g149
sg25
g154
sg163
g168
sVcom.android.dialer
p577
g220
sg35
g237
sg37
g254
sg39
g265
sg41
g274
sg45
g301
sg47
g308
sg344
g314
sg91
g536
sg53
g356
sg55
g367
sg194
g328
sg59
g377
sg340
g385
sg63
g390
sg202
g415
sg67
g443
sg69
g454
sg71
g461
sg73
g467
sg75
g470
sVcom.tencent.qt.qtl
p578
g479
sg81
g491
sg83
g502
sg288
g513
sg87
g526
sg89
g532
sg57
g372
ssg31
(dp579
g327
g184
sg336
g416
sg437
g493
sg194
g329
sVcom.astrogame.sherman
p580
g278
ssg33
(dp581
g29
g185
sg61
g383
ssg35
(dp582
Vcom.android.launcher3
p583
g186
sg71
g463
sVcom.tencent.mobileqq
p584
g417
sVcom.UCMobile
p585
g126
sVcom.tencent.mm
p586
g330
sg89
g533
sVtv.danmaku.bili
p587
g360
ssg37
(dp588
Vcom.android.launcher3
p589
g187
sg259
g332
sVcom.meizu.notepaper
p590
g446
sg25
g158
sVcom.tencent.mobileqq
p591
g418
ssg39
(dp592
Vcom.android.launcher3
p593
g188
sg266
g448
sVcom.tencent.mobileqq
p594
g419
sVcom.kingreader.framework
p595
g396
ssg41
(dp596
Vcom.android.launcher3
p597
g189
sg67
g450
sg277
g228
sVcom.tencent.mobileqq
p598
g421
sg79
g488
sg83
g508
sg107
g518
sg63
g397
sg408
g103
sVcom.tencent.mm
p599
g334
sg250
g364
ssg43
(dp600
g327
g190
sg31
g229
sg336
g422
ssg45
(dp601
Vcom.android.launcher3
p602
g191
sVcom.tencent.mobileqq
p603
g423
sVcom.kingreader.framework
p604
g401
sg21
g146
sg23
g150
sVcom.tencent.mm
p605
g335
ssg47
(dp606
Vcom.android.launcher3
p607
g192
sg309
g160
ssg49
(dp608
Vcom.android.launcher3
p609
g193
sVcom.tencent.mm
p610
g345
ssg51
(dp611
g469
g195
sVcom.meizu.notepaper
p612
g451
sg69
g458
sVcom.astrogame.sherman
p613
g283
sg75
g476
sg125
g247
sg293
g528
sg127
g499
sVcom.jingdong.app.mall
p614
g260
sg176
g135
sg577
g231
sVcom.baidu.tieba
p615
g515
sVcom.kingreader.framework
p616
g393
sVcom.mymoney
p617
g162
sg83
g506
sg65
g428
sVcom.tencent.qt.qtl
p618
g481
sVtv.danmaku.bili
p619
g362
sg91
g538
ssg53
(dp620
Vcom.android.launcher3
p621
g196
sVcom.tencent.mobileqq
p622
g426
sVcom.android.packageinstaller
p623
g251
sVcom.tencent.mm
p624
g339
ssg55
(dp625
Vcom.android.launcher3
p626
g197
sVcom.tencent.mobileqq
p627
g427
sVcom.astrogame.sherman
p628
g279
ssg57
(dp629
Vcom.android.launcher3
p630
g198
sg161
g353
sg617
g165
sVcom.jingdong.app.mall
p631
g258
sVcom.android.alarmclock
p632
g318
ssg59
(dp633
Vcom.android.launcher3
p634
g199
sVcom.UCMobile
p635
g122
sVcom.tencent.mobileqq
p636
g429
ssg61
(dp637
g29
g200
sg33
g234
sVcom.tencent.mm
p638
g341
sVcom.tencent.mobileqq
p639
g430
sVcom.android.settings
p640
g473
ssg63
(dp641
g597
g201
sg11
g112
sg548
g343
sg578
g485
sg395
g271
sg212
g510
sVcom.baidu.tieba
p642
g523
sVcom.astrogame.sherman
p643
g291
sVcom.android.settings
p644
g474
sVcom.meizu.media.gallery
p645
g305
sVcom.tencent.mobileqq
p646
g432
ssg65
(dp647
g8
g101
sg494
g110
sg410
g124
sVcom.blizzard.wtcg.hearthstone
p648
g143
sg170
g156
sg163
g169
sVcom.android.launcher3
p649
g203
sVcom.android.dialer
p650
g222
sg623
g241
sg37
g262
sg39
g269
sVcom.astrogame.sherman
p651
g296
sg45
g303
sg91
g540
sg619
g358
sg55
g369
sg194
g337
sg121
g381
sVcom.kingreader.framework
p652
g404
sg344
g316
sg67
g445
sg69
g456
sg75
g471
sg77
g483
sg349
g496
sVcom.qzone
p653
g504
sVcom.baidu.tieba
p654
g521
sg293
g530
sg57
g374
ssg67
(dp655
Vcom.android.launcher3
p656
g204
sVcom.tencent.mobileqq
p657
g433
sVcom.jingdong.app.mall
p658
g256
sVcom.taobao.taobao
p659
g267
sVcom.astrogame.sherman
p660
g276
sVcom.tencent.mm
p661
g346
ssg69
(dp662
Vcom.android.launcher3
p663
g205
ssg71
(dp664
Vcom.android.launcher3
p665
g206
sg462
g239
ssg73
(dp666
Vcom.android.launcher3
p667
g207
ssg75
(dp668
g649
g208
sg457
g348
sg340
g387
sVcom.UCMobile
p669
g133
sg130
g519
sVcom.kingreader.framework
p670
g399
sg455
g434
ssg77
(dp671
Vcom.android.launcher3
p672
g209
sVcom.tencent.mobileqq
p673
g435
sVcom.android.dialer
p674
g224
sVcom.baidu.tieba
p675
g516
sg437
g497
ssg79
(dp676
Vcom.android.launcher3
p677
g210
sg598
g436
sg420
g284
ssg81
(dp678
g552
g211
sg176
g128
sg577
g226
sg230
g350
sVcom.tencent.mobileqq
p679
g438
ssg83
(dp680
Vcom.android.launcher3
p681
g213
sVcom.tencent.mobileqq
p682
g439
ssg85
(dp683
Vcom.android.launcher3
p684
g214
sg238
g464
sg494
g108
sVcom.tencent.mobileqq
p685
g440
sg462
g245
sg669
g131
sVcom.astrogame.sherman
p686
g289
sVcom.tencent.mm
p687
g351
ssg87
(dp688
Vcom.android.launcher3
p689
g215
sg643
g294
sg290
g402
ssg89
(dp690
g583
g216
sg322
g137
sg35
g249
sVcom.tencent.mm
p691
g352
ssg91
(dp692
Vcom.android.launcher3
p693
g217
sVcom.tencent.mobileqq
p694
g424
sssS'adj'
p695
g96
sb.