ccopy_reg
_reconstructor
p1
(cnetworkx.classes.digraph
DiGraph
p2
c__builtin__
object
p3
NtRp4
(dp5
S'node'
p6
(dp7
Vcom.lenovo.email
p8
(dp9
S'weight'
p10
F1.8948682509251415e-05
ssVcom.qiyi.video
p11
(dp12
g10
F0.00041687101520353112
ssVcom.lenovo.magicplus
p13
(dp14
g10
F9.4743412546257075e-06
ssVcom.sohu.inputmethod.sogou
p15
(dp16
g10
F1.6719425743457132e-06
ssVcom.dou_pai.DouPai
p17
(dp18
g10
F0.0015476615096526817
ssVcom.lenovo.leos.appstore
p19
(dp20
g10
F0.00020509162245307416
ssVcom.android.gallery3d
p21
(dp22
g10
F0.065553524454946721
ssVcom.jingdong.app.mall
p23
(dp24
g10
F0.00030596549110526551
ssVcom.taobao.taobao
p25
(dp26
g10
F0.10229111864104508
ssVcom.android.incallui
p27
(dp28
g10
F0.043058094431316599
ssVcom.lenovo.recorder
p29
(dp30
g10
F7.5237415845557097e-05
ssVcom.babytree.apps.lama
p31
(dp32
g10
F0.20104775067992331
ssVcom.android.systemui
p33
(dp34
g10
F0.00077188015515627093
ssVcom.lenovo.videoplayer
p35
(dp36
g10
F0.0012316643631013421
ssVcom.tencent.mm
p37
(dp38
g10
F0.034804828570154711
ssVcom.lenovo.safecenter
p39
(dp40
g10
F0.00034776405546390834
ssVcom.lenovo.browser
p41
(dp42
g10
F0.00020341967987872844
ssVcom.lenovo.FileBrowser
p43
(dp44
g10
F0.00037340050827054259
ssVcom.android.phone
p45
(dp46
g10
F2.2292567657942841e-05
ssVcom.lenovo.ideafriend
p47
(dp48
g10
F0.084741294752329568
ssVcom.lenovo.calendar
p49
(dp50
g10
F0.0041887734629274601
ssVcom.baidu.searchbox_lenovo
p51
(dp52
g10
F0.025909536760444069
ssVcom.happyelements.AndroidAnimal
p53
(dp54
g10
F0.00077410941192206518
ssVcn.etouch.ecalendar
p55
(dp56
g10
F0.057168175130411523
ssVcom.tencent.mobileqq
p57
(dp58
g10
F0.2348895403272549
ssVcom.android.settings
p59
(dp60
g10
F0.010168754737170627
ssVcom.lenovo.deskclock
p61
(dp62
g10
F9.4743412546257075e-06
ssVcom.lenovo.music
p63
(dp64
g10
F0.0014874715769762361
ssVcom.qzone
p65
(dp66
g10
F0.033741473092870837
ssVcom.baidu.tieba
p67
(dp68
g10
F0.094247402915867848
ssVcn.j.hers
p69
(dp70
g10
F0.00038733336305675687
sssS'graph'
p71
(dp72
sS'succ'
p73
(dp74
g8
(dp75
Vcom.android.settings
p76
(dp77
g10
F1.7
ssVcom.tencent.mobileqq
p78
(dp79
g10
F1.3
sssg11
(dp80
Vcom.lenovo.ideafriend
p81
(dp82
g10
F0.40000000000000002
ssVcom.qzone
p83
(dp84
g10
F17.299999999999997
ssVcom.tencent.mobileqq
p85
(dp86
g10
F1.7
ssVcom.lenovo.safecenter
p87
(dp88
g10
F0.90000000000000002
sssg13
(dp89
sg15
(dp90
sg17
(dp91
Vcom.tencent.mobileqq
p92
(dp93
g10
F3
ssVcom.baidu.tieba
p94
(dp95
g10
I1
ssVcom.qzone
p96
(dp97
g10
F0.69999999999999996
ssVcom.android.gallery3d
p98
(dp99
g10
F5.8000000000000007
ssVcom.lenovo.videoplayer
p100
(dp101
g10
F2.2000000000000002
sssg19
(dp102
Vcom.lenovo.ideafriend
p103
(dp104
g10
F1.3
ssVcom.tencent.mobileqq
p105
(dp106
g10
F2.1000000000000001
ssg17
(dp107
g10
F1.7
ssVcom.android.gallery3d
p108
(dp109
g10
F1.8999999999999999
ssVcom.lenovo.safecenter
p110
(dp111
g10
I1
sssg21
(dp112
Vcom.sohu.inputmethod.sogou
p113
(dp114
g10
F0.90000000000000002
ssVcom.dou_pai.DouPai
p115
(dp116
g10
F5
ssVcom.lenovo.leos.appstore
p117
(dp118
g10
I1
ssVcom.tencent.mm
p119
(dp120
g10
F4.2999999999999998
ssVcom.baidu.searchbox_lenovo
p121
(dp122
g10
F3.2999999999999998
ssVcom.lenovo.ideafriend
p123
(dp124
g10
F18.300000000000001
ssVcom.taobao.taobao
p125
(dp126
g10
F7.5000000000000009
ssVcom.android.incallui
p127
(dp128
g10
F3.8999999999999999
ssVcom.qzone
p129
(dp130
g10
F15.1
ssVcom.baidu.tieba
p131
(dp132
g10
F4.7000000000000002
ssVcom.lenovo.calendar
p133
(dp134
g10
I1
ssVcom.babytree.apps.lama
p135
(dp136
g10
F16
ssg33
(dp137
g10
F2.7000000000000002
ssg35
(dp138
g10
F130.00000000000014
ssVcn.etouch.ecalendar
p139
(dp140
g10
F4.2999999999999998
ssVcom.tencent.mobileqq
p141
(dp142
g10
F29.299999999999994
ssVcom.android.phone
p143
(dp144
g10
F0.69999999999999996
ssVcom.lenovo.browser
p145
(dp146
g10
F3.3999999999999999
ssVcom.android.settings
p147
(dp148
g10
F0.90000000000000002
sssg23
(dp149
Vcom.tencent.mobileqq
p150
(dp151
g10
I1
sssg25
(dp152
Vcom.lenovo.ideafriend
p153
(dp154
g10
F11.900000000000002
ssVcom.dou_pai.DouPai
p155
(dp156
g10
F0.69999999999999996
ssVcom.tencent.mm
p157
(dp158
g10
F11.6
ssg51
(dp159
g10
I2
ssg21
(dp160
g10
F8.2000000000000011
ssVcom.jingdong.app.mall
p161
(dp162
g10
I1
ssVcom.android.incallui
p163
(dp164
g10
F4.4000000000000004
ssVcom.qzone
p165
(dp166
g10
F19.299999999999997
ssVcom.baidu.tieba
p167
(dp168
g10
F13.700000000000001
ssVcom.babytree.apps.lama
p169
(dp170
g10
F23.499999999999993
ssg33
(dp171
g10
F0.90000000000000002
ssVcom.android.phone
p172
(dp173
g10
F0.40000000000000002
ssg15
(dp174
g10
I1
ssVcn.etouch.ecalendar
p175
(dp176
g10
F13.600000000000001
ssVcom.tencent.mobileqq
p177
(dp178
g10
F44.899999999999999
ssVcom.lenovo.safecenter
p179
(dp180
g10
F2.6000000000000001
ssVcom.lenovo.browser
p181
(dp182
g10
F1.7
sssg27
(dp183
Vcom.android.gallery3d
p184
(dp185
g10
F10.800000000000002
ssVcom.lenovo.deskclock
p186
(dp187
g10
I2
ssVcom.android.settings
p188
(dp189
g10
F7.8000000000000007
ssVcom.tencent.mm
p190
(dp191
g10
F1.8
ssVcom.android.systemui
p192
(dp193
g10
F0.90000000000000002
ssg47
(dp194
g10
F119.70000000000003
ssVcom.taobao.taobao
p195
(dp196
g10
F5.7999999999999998
ssVcom.qzone
p197
(dp198
g10
F12.600000000000001
ssVcom.baidu.tieba
p199
(dp200
g10
F3.7999999999999998
ssg133
(dp201
g10
F1.7
ssg31
(dp202
g10
F9.4000000000000004
ssg45
(dp203
g10
F8.9000000000000021
ssVcom.lenovo.videoplayer
p204
(dp205
g10
F1.3999999999999999
ssVcn.etouch.ecalendar
p206
(dp207
g10
F4.5999999999999996
ssVcom.tencent.mobileqq
p208
(dp209
g10
F27.699999999999992
ssg39
(dp210
g10
F3.1999999999999997
ssg8
(dp211
g10
F0.40000000000000002
ssVcom.lenovo.browser
p212
(dp213
g10
F0.69999999999999996
sssg29
(dp214
Vcom.tencent.mobileqq
p215
(dp216
g10
F0.90000000000000002
ssg63
(dp217
g10
I1
ssVcom.taobao.taobao
p218
(dp219
g10
I1
ssVcom.qzone
p220
(dp221
g10
F0.69999999999999996
ssVcom.babytree.apps.lama
p222
(dp223
g10
F0.90000000000000002
ssVcom.tencent.mm
p224
(dp225
g10
F0.40000000000000002
sssg31
(dp226
Vcom.lenovo.ideafriend
p227
(dp228
g10
F27.699999999999996
ssVcom.baidu.searchbox_lenovo
p229
(dp230
g10
F1.3999999999999999
ssVcom.tencent.mm
p231
(dp232
g10
F8.1999999999999993
ssVcom.android.phone
p233
(dp234
g10
F2.5
ssVcom.android.gallery3d
p235
(dp236
g10
F19.300000000000001
ssg161
(dp237
g10
F0.69999999999999996
ssg195
(dp238
g10
F22.599999999999991
ssVcom.android.incallui
p239
(dp240
g10
F5.5999999999999996
ssVcom.qzone
p241
(dp242
g10
F23.999999999999993
ssVcom.baidu.tieba
p243
(dp244
g10
F25.199999999999992
ssg29
(dp245
g10
I1
ssVcom.android.settings
p246
(dp247
g10
F1.8999999999999999
ssg35
(dp248
g10
F2
ssVcn.etouch.ecalendar
p249
(dp250
g10
F10.700000000000001
ssg141
(dp251
g10
F77.90000000000002
ssVcom.lenovo.safecenter
p252
(dp253
g10
F2.8999999999999999
sssg33
(dp254
Vcom.lenovo.ideafriend
p255
(dp256
g10
F1.7
ssVcom.baidu.searchbox_lenovo
p257
(dp258
g10
F0.69999999999999996
ssVcom.android.gallery3d
p259
(dp260
g10
F2.2999999999999998
ssVcom.android.incallui
p261
(dp262
g10
F0.40000000000000002
ssVcom.qzone
p263
(dp264
g10
F0.90000000000000002
ssVcom.lenovo.videoplayer
p265
(dp266
g10
F1.7
ssg49
(dp267
g10
F0.90000000000000002
ssVcom.android.settings
p268
(dp269
g10
I1
ssVcom.tencent.mm
p270
(dp271
g10
I1
ssVcom.lenovo.browser
p272
(dp273
g10
F0.90000000000000002
ssVcom.tencent.mobileqq
p274
(dp275
g10
I2
sssg35
(dp276
Vcom.lenovo.ideafriend
p277
(dp278
g10
F1.3
ssVcom.tencent.mobileqq
p279
(dp280
g10
F0.90000000000000002
ssVcom.dou_pai.DouPai
p281
(dp282
g10
F1.6000000000000001
ssVcom.android.gallery3d
p283
(dp284
g10
F124.50000000000014
ssVcom.qzone
p285
(dp286
g10
F0.90000000000000002
sssg37
(dp287
Vcom.lenovo.ideafriend
p288
(dp289
g10
F2.5999999999999996
ssVcom.android.gallery3d
p290
(dp291
g10
F3.4999999999999996
ssg63
(dp292
g10
F0.69999999999999996
ssVcom.taobao.taobao
p293
(dp294
g10
F6.5000000000000009
ssg239
(dp295
g10
F1.8999999999999999
ssVcom.qzone
p296
(dp297
g10
F9.5000000000000018
ssVcom.baidu.tieba
p298
(dp299
g10
F7
ssVcom.lenovo.recorder
p300
(dp301
g10
F0.90000000000000002
ssVcom.babytree.apps.lama
p302
(dp303
g10
F11.5
ssVcn.j.hers
p304
(dp305
g10
F2.7000000000000002
ssVcn.etouch.ecalendar
p306
(dp307
g10
F7.5
ssVcom.tencent.mobileqq
p308
(dp309
g10
F8.9000000000000004
ssVcom.lenovo.browser
p310
(dp311
g10
F0.40000000000000002
sssg39
(dp312
Vcom.lenovo.leos.appstore
p313
(dp314
g10
I1
ssVcom.android.settings
p315
(dp316
g10
I1
ssVcom.tencent.mm
p317
(dp318
g10
F0.69999999999999996
ssg81
(dp319
g10
F1.6000000000000001
ssg13
(dp320
g10
F0.90000000000000002
ssVcom.taobao.taobao
p321
(dp322
g10
F1.8999999999999999
ssVcom.qzone
p323
(dp324
g10
F1.8999999999999999
ssg69
(dp325
g10
F1.3
ssVcom.babytree.apps.lama
p326
(dp327
g10
I1
ssVcn.etouch.ecalendar
p328
(dp329
g10
I1
ssVcom.tencent.mobileqq
p330
(dp331
g10
F4.9000000000000004
sssg41
(dp332
Vcom.android.gallery3d
p333
(dp334
g10
F1.7
ssVcom.lenovo.ideafriend
p335
(dp336
g10
F3.5999999999999996
ssVcom.taobao.taobao
p337
(dp338
g10
I1
ssg261
(dp339
g10
F1.3
ssVcom.qzone
p340
(dp341
g10
F1.7
ssVcom.lenovo.videoplayer
p342
(dp343
g10
F1.3
ssVcom.qiyi.video
p344
(dp345
g10
F1.3
ssVcom.babytree.apps.lama
p346
(dp347
g10
I1
ssVcom.android.phone
p348
(dp349
g10
F0.69999999999999996
ssVcom.tencent.mm
p350
(dp351
g10
I1
sssg43
(dp352
Vcom.android.incallui
p353
(dp354
g10
I1
ssVcom.lenovo.ideafriend
p355
(dp356
g10
I1
sssg45
(dp357
Vcom.android.incallui
p358
(dp359
g10
F3.6000000000000001
ssg186
(dp360
g10
F0.69999999999999996
ssVcom.lenovo.ideafriend
p361
(dp362
g10
F0.90000000000000002
ssVcom.android.settings
p363
(dp364
g10
F1.3999999999999999
sssg47
(dp365
Vcom.baidu.searchbox_lenovo
p366
(dp367
g10
F3.7000000000000002
ssg188
(dp368
g10
F4.6000000000000005
ssg37
(dp369
g10
F1.8999999999999999
ssVcom.android.gallery3d
p370
(dp371
g10
F6.4000000000000004
ssVcom.android.systemui
p372
(dp373
g10
I1
ssg195
(dp374
g10
F6
ssg358
(dp375
g10
F20.199999999999999
ssg197
(dp376
g10
F15.700000000000001
ssVcom.baidu.tieba
p377
(dp378
g10
F5
ssg212
(dp379
g10
F1.8999999999999999
ssg31
(dp380
g10
F21.499999999999993
ssg45
(dp381
g10
F17.299999999999997
ssg204
(dp382
g10
F1.3
ssg206
(dp383
g10
F1.3
ssVcom.tencent.mobileqq
p384
(dp385
g10
F28.699999999999996
ssg39
(dp386
g10
F1.6000000000000001
ssg8
(dp387
g10
F0.69999999999999996
sssg49
(dp388
Vcom.lenovo.ideafriend
p389
(dp390
g10
F1.6000000000000001
ssg257
(dp391
g10
I1
ssVcom.android.gallery3d
p392
(dp393
g10
I1
ssVcom.android.incallui
p394
(dp395
g10
I1
ssVcom.android.phone
p396
(dp397
g10
F0.69999999999999996
ssVcn.etouch.ecalendar
p398
(dp399
g10
I1
ssg145
(dp400
g10
F0.90000000000000002
sssg51
(dp401
Vcom.lenovo.ideafriend
p402
(dp403
g10
F3.7000000000000002
ssg155
(dp404
g10
F0.90000000000000002
ssVcom.tencent.mm
p405
(dp406
g10
F2.8999999999999999
ssVcom.android.gallery3d
p407
(dp408
g10
F1.8999999999999999
ssVcom.taobao.taobao
p409
(dp410
g10
F4.4000000000000004
ssVcom.android.incallui
p411
(dp412
g10
F0.90000000000000002
ssVcom.qzone
p413
(dp414
g10
F1.8999999999999999
ssVcom.baidu.tieba
p415
(dp416
g10
F1.8999999999999999
ssVcom.babytree.apps.lama
p417
(dp418
g10
F7.1999999999999993
ssVcom.tencent.mobileqq
p419
(dp420
g10
F4.7999999999999998
ssVcom.lenovo.safecenter
p421
(dp422
g10
I1
sssg53
(dp423
Vcom.baidu.tieba
p424
(dp425
g10
F0.90000000000000002
ssVcom.tencent.mobileqq
p426
(dp427
g10
F1.7
ssVcom.taobao.taobao
p428
(dp429
g10
F0.40000000000000002
sssg55
(dp430
Vcom.android.gallery3d
p431
(dp432
g10
F10.800000000000001
ssg157
(dp433
g10
F7.0000000000000009
ssg123
(dp434
g10
F11.100000000000001
ssVcom.lenovo.music
p435
(dp436
g10
I1
ssVcom.taobao.taobao
p437
(dp438
g10
F8.7000000000000011
ssVcom.lenovo.safecenter
p439
(dp440
g10
I1
ssg239
(dp441
g10
F2.7999999999999998
ssVcom.qzone
p442
(dp443
g10
F6.8000000000000007
ssVcom.baidu.tieba
p444
(dp445
g10
F8.4000000000000004
ssVcom.lenovo.calendar
p446
(dp447
g10
I1
ssVcom.babytree.apps.lama
p448
(dp449
g10
F8
ssVcom.baidu.searchbox_lenovo
p450
(dp451
g10
F0.40000000000000002
ssVcom.lenovo.videoplayer
p452
(dp453
g10
F2
ssVcom.tencent.mobileqq
p454
(dp455
g10
F18.800000000000001
ssg233
(dp456
g10
F0.90000000000000002
ssg310
(dp457
g10
F0.90000000000000002
sssg57
(dp458
Vcom.lenovo.ideafriend
p459
(dp460
g10
F64.100000000000009
ssVcom.baidu.searchbox_lenovo
p461
(dp462
g10
F3.2999999999999998
ssg281
(dp463
g10
I1
ssg300
(dp464
g10
F0.40000000000000002
ssg59
(dp465
g10
F9
ssVcom.android.phone
p466
(dp467
g10
F4.2999999999999998
ssVcom.android.gallery3d
p468
(dp469
g10
F34.09999999999998
ssVcom.taobao.taobao
p470
(dp471
g10
F50.600000000000001
ssVcom.android.incallui
p472
(dp473
g10
F18.199999999999999
ssg65
(dp474
g10
F70.100000000000009
ssVcom.baidu.tieba
p475
(dp476
g10
F40.199999999999982
ssg181
(dp477
g10
F5.5
ssVcom.babytree.apps.lama
p478
(dp479
g10
F68
ssg372
(dp480
g10
F2.8999999999999999
ssg35
(dp481
g10
F7.4000000000000021
ssg249
(dp482
g10
F19.799999999999997
ssg119
(dp483
g10
F16.100000000000001
ssg87
(dp484
g10
F4.7999999999999998
ssg8
(dp485
g10
F0.90000000000000002
ssg15
(dp486
g10
F1.8999999999999999
sssg59
(dp487
Vcom.android.gallery3d
p488
(dp489
g10
F1.7
ssg186
(dp490
g10
F1.3
ssg8
(dp491
g10
I1
ssg257
(dp492
g10
F1.3
ssVcom.lenovo.ideafriend
p493
(dp494
g10
I1
ssg13
(dp495
g10
F1.7
ssVcom.taobao.taobao
p496
(dp497
g10
F1.8
ssVcom.android.incallui
p498
(dp499
g10
F1.7
ssVcom.qzone
p500
(dp501
g10
F1.8999999999999999
ssg167
(dp502
g10
F0.40000000000000002
ssg49
(dp503
g10
F2.6000000000000001
ssVcom.android.systemui
p504
(dp505
g10
I1
ssVcom.android.phone
p506
(dp507
g10
I1
ssg175
(dp508
g10
F0.69999999999999996
ssg78
(dp509
g10
F4.4000000000000004
ssg39
(dp510
g10
I3
ssg145
(dp511
g10
F0.40000000000000002
sssg61
(dp512
Vcom.android.settings
p513
(dp514
g10
I1
sssg63
(dp515
Vcom.baidu.tieba
p516
(dp517
g10
F0.40000000000000002
ssVcom.qzone
p518
(dp519
g10
I1
ssVcom.tencent.mobileqq
p520
(dp521
g10
F1.7
ssg222
(dp522
g10
F1.8999999999999999
sssg65
(dp523
g459
(dp524
g10
F8.1000000000000014
ssVcom.dou_pai.DouPai
p525
(dp526
g10
F0.40000000000000002
ssg231
(dp527
g10
F9.8000000000000007
ssg450
(dp528
g10
F2.5
ssVcom.android.gallery3d
p529
(dp530
g10
F12.299999999999999
ssg63
(dp531
g10
F0.40000000000000002
ssVcom.taobao.taobao
p532
(dp533
g10
F20.899999999999999
ssg69
(dp534
g10
F1.7
ssVcom.baidu.tieba
p535
(dp536
g10
F34.899999999999991
ssg344
(dp537
g10
F19.699999999999996
ssVcom.babytree.apps.lama
p538
(dp539
g10
F22.300000000000001
ssg372
(dp540
g10
F0.40000000000000002
ssVcom.lenovo.videoplayer
p541
(dp542
g10
F2.2000000000000002
ssg175
(dp543
g10
F6.1000000000000005
ssVcom.tencent.mobileqq
p544
(dp545
g10
F36.399999999999984
ssg143
(dp546
g10
F0.40000000000000002
ssg41
(dp547
g10
I1
ssg29
(dp548
g10
F1.6000000000000001
sssg67
(dp549
Vcom.lenovo.ideafriend
p550
(dp551
g10
F8.9000000000000004
ssg461
(dp552
g10
I4
ssg59
(dp553
g10
I1
ssg231
(dp554
g10
F8.5
ssg61
(dp555
g10
I1
ssg468
(dp556
g10
F5.5000000000000009
ssg161
(dp557
g10
F0.90000000000000002
ssVcom.taobao.taobao
p558
(dp559
g10
F19.800000000000001
ssg63
(dp560
g10
F0.90000000000000002
ssVcom.android.incallui
p561
(dp562
g10
F2.5999999999999996
ssVcom.qzone
p563
(dp564
g10
F5.8999999999999995
ssVcom.lenovo.videoplayer
p565
(dp566
g10
F0.40000000000000002
ssg300
(dp567
g10
I1
ssVcom.babytree.apps.lama
p568
(dp569
g10
F15.699999999999999
ssVcom.android.phone
p570
(dp571
g10
F1.8
ssg175
(dp572
g10
F15.899999999999999
ssg454
(dp573
g10
F39.599999999999994
ssVcom.lenovo.safecenter
p574
(dp575
g10
F1.8
sssg69
(dp576
Vcom.baidu.tieba
p577
(dp578
g10
F0.69999999999999996
ssVcom.qzone
p579
(dp580
g10
F1.7
ssg317
(dp581
g10
F2.7000000000000002
ssVcom.taobao.taobao
p582
(dp583
g10
F1.3
ssssS'edge'
p584
g74
sS'pred'
p585
(dp586
g8
(dp587
Vcom.android.incallui
p588
g211
sVcom.android.settings
p589
g491
sVcom.lenovo.ideafriend
p590
g387
sVcom.tencent.mobileqq
p591
g485
ssg11
(dp592
Vcom.qzone
p593
g537
sg41
g345
ssg13
(dp594
Vcom.android.settings
p595
g495
sVcom.lenovo.safecenter
p596
g320
ssg15
(dp597
Vcom.android.gallery3d
p598
g114
sVcom.tencent.mobileqq
p599
g486
sVcom.taobao.taobao
p600
g174
ssg17
(dp601
Vcom.lenovo.leos.appstore
p602
g107
sg98
g116
sVcom.taobao.taobao
p603
g156
sg96
g526
sg100
g282
sVcom.baidu.searchbox_lenovo
p604
g404
sg279
g463
ssg19
(dp605
g108
g118
sg110
g314
ssg21
(dp606
g17
g99
sg19
g109
sg231
g291
sVcom.baidu.searchbox_lenovo
p607
g408
sVcom.lenovo.ideafriend
p608
g371
sg25
g160
sVcom.android.incallui
p609
g185
sVcom.qzone
p610
g530
sg475
g556
sg133
g393
sVcom.babytree.apps.lama
p611
g236
sg192
g260
sg35
g284
sVcn.etouch.ecalendar
p612
g432
sVcom.tencent.mobileqq
p613
g469
sVcom.lenovo.browser
p614
g334
sVcom.android.settings
p615
g489
ssg23
(dp616
Vcom.baidu.tieba
p617
g557
sVcom.taobao.taobao
p618
g162
sVcom.babytree.apps.lama
p619
g237
ssg25
(dp620
Vcom.android.gallery3d
p621
g126
sg405
g294
sg51
g410
sg47
g374
sg304
g583
sg27
g196
sg241
g533
sg67
g559
sg29
g219
sg31
g238
sg59
g497
sg53
g429
sVcn.etouch.ecalendar
p622
g438
sg384
g471
sg39
g322
sg181
g338
ssg27
(dp623
Vcom.android.gallery3d
p624
g128
sVcom.tencent.mobileqq
p625
g473
sVcom.baidu.searchbox_lenovo
p626
g412
sVcom.lenovo.ideafriend
p627
g375
sVcom.android.systemui
p628
g262
sVcom.taobao.taobao
p629
g164
sg43
g354
sVcom.baidu.tieba
p630
g562
sVcom.lenovo.calendar
p631
g395
sVcom.babytree.apps.lama
p632
g240
sVcom.android.phone
p633
g359
sg622
g441
sg157
g295
sg272
g339
sg363
g499
ssg29
(dp634
g224
g301
sVcom.baidu.tieba
p635
g567
sVcom.qzone
p636
g548
sg215
g464
sVcom.babytree.apps.lama
p637
g245
ssg31
(dp638
g47
g380
sVcom.tencent.mm
p639
g303
sg235
g136
sg63
g522
sg195
g170
sg27
g202
sVcom.qzone
p640
g539
sg444
g569
sg300
g223
sg51
g418
sVcn.etouch.ecalendar
p641
g449
sg141
g479
sVcom.lenovo.safecenter
p642
g327
sVcom.lenovo.browser
p643
g347
ssg33
(dp644
Vcom.android.gallery3d
p645
g137
sg459
g373
sVcom.taobao.taobao
p646
g171
sg609
g193
sg442
g540
sVcom.android.settings
p647
g505
sVcom.tencent.mobileqq
p648
g480
ssg35
(dp649
Vcom.dou_pai.DouPai
p650
g101
sVcom.lenovo.ideafriend
p651
g382
sVcom.android.gallery3d
p652
g138
sVcom.android.incallui
p653
g205
sg96
g542
sg516
g566
sVcom.babytree.apps.lama
p654
g248
sVcom.android.systemui
p655
g266
sVcn.etouch.ecalendar
p656
g453
sVcom.tencent.mobileqq
p657
g481
sg614
g343
ssg37
(dp658
Vcom.android.gallery3d
p659
g120
sVcom.baidu.searchbox_lenovo
p660
g406
sVcom.lenovo.ideafriend
p661
g369
sg437
g158
sVcom.android.incallui
p662
g191
sVcom.qzone
p663
g527
sVcom.baidu.tieba
p664
g554
sg29
g225
sVcom.babytree.apps.lama
p665
g232
sVcom.android.systemui
p666
g271
sg69
g581
sg622
g433
sVcom.tencent.mobileqq
p667
g483
sVcom.lenovo.safecenter
p668
g318
sg310
g351
ssg39
(dp669
Vcom.lenovo.leos.appstore
p670
g111
sg188
g510
sVcom.lenovo.ideafriend
p671
g386
sg11
g88
sVcom.android.incallui
p672
g210
sVcom.baidu.tieba
p673
g575
sVcom.taobao.taobao
p674
g180
sVcom.babytree.apps.lama
p675
g253
sVcom.baidu.searchbox_lenovo
p676
g422
sVcn.etouch.ecalendar
p677
g440
sg85
g484
ssg41
(dp678
Vcom.lenovo.ideafriend
p679
g379
sg615
g511
sVcom.tencent.mm
p680
g311
sg488
g146
sVcom.taobao.taobao
p681
g182
sVcom.android.incallui
p682
g213
sg593
g547
sg133
g400
sg628
g273
sVcn.etouch.ecalendar
p683
g457
sVcom.tencent.mobileqq
p684
g477
ssg43
(dp685
sg45
(dp686
Vcom.android.gallery3d
p687
g144
sg363
g507
sVcom.lenovo.ideafriend
p688
g381
sVcom.taobao.taobao
p689
g173
sVcom.android.incallui
p690
g203
sVcom.qzone
p691
g546
sVcom.baidu.tieba
p692
g571
sg631
g397
sVcom.babytree.apps.lama
p693
g234
sVcn.etouch.ecalendar
p694
g456
sVcom.tencent.mobileqq
p695
g467
sg643
g349
ssg47
(dp696
Vcom.baidu.searchbox_lenovo
p697
g403
sg670
g104
sVcom.android.settings
p698
g494
sVcom.tencent.mm
p699
g289
sg431
g124
sVcom.taobao.taobao
p700
g154
sVcom.lenovo.FileBrowser
p701
g356
sg27
g194
sg442
g524
sg692
g551
sg11
g82
sVcom.babytree.apps.lama
p702
g228
sg372
g256
sVcom.android.phone
p703
g362
sVcom.lenovo.videoplayer
p704
g278
sg612
g434
sg648
g460
sg87
g319
sg145
g336
sg631
g390
ssg49
(dp705
g647
g503
sVcom.android.incallui
p706
g201
sVcn.etouch.ecalendar
p707
g447
sg488
g134
sg504
g267
ssg51
(dp708
g402
g367
sg504
g258
sVcom.android.gallery3d
p709
g122
sVcom.taobao.taobao
p710
g159
sVcom.qzone
p711
g528
sVcom.baidu.tieba
p712
g552
sg49
g391
sVcom.babytree.apps.lama
p713
g230
sg647
g492
sVcn.etouch.ecalendar
p714
g451
sVcom.tencent.mobileqq
p715
g462
ssg53
(dp716
sg55
(dp717
Vcom.lenovo.ideafriend
p718
g383
sg59
g508
sg639
g307
sVcom.android.gallery3d
p719
g140
sg496
g176
sVcom.android.incallui
p720
g207
sg500
g543
sVcom.baidu.tieba
p721
g572
sVcom.lenovo.calendar
p722
g399
sVcom.babytree.apps.lama
p723
g250
sVcom.tencent.mobileqq
p724
g482
sg439
g329
ssg57
(dp725
g8
g79
sg11
g86
sg17
g93
sg670
g106
sVcom.android.gallery3d
p726
g142
sg23
g151
sVcom.taobao.taobao
p727
g178
sVcom.android.incallui
p728
g209
sg29
g216
sVcom.babytree.apps.lama
p729
g251
sVcom.android.systemui
p730
g275
sg100
g280
sg119
g309
sg87
g331
sVcom.lenovo.ideafriend
p731
g385
sg450
g420
sg53
g427
sg55
g455
sg589
g509
sg435
g521
sVcom.qzone
p732
g545
sg444
g573
ssg59
(dp733
Vcom.lenovo.deskclock
p734
g514
sg8
g77
sg703
g364
sg671
g368
sg672
g189
sg721
g553
sVcom.babytree.apps.lama
p735
g247
sg504
g269
sVcom.android.gallery3d
p736
g148
sVcom.tencent.mobileqq
p737
g465
sg596
g316
ssg61
(dp738
g363
g490
sg498
g187
sVcom.baidu.tieba
p739
g555
sg506
g360
ssg63
(dp740
g635
g560
sg220
g531
sg224
g292
sg300
g217
sVcn.etouch.ecalendar
p741
g436
ssg65
(dp742
Vcom.lenovo.ideafriend
p743
g376
sg229
g414
sVcom.dou_pai.DouPai
p744
g97
sg59
g501
sg231
g297
sVcom.android.gallery3d
p745
g130
sg435
g519
sVcom.taobao.taobao
p746
g166
sg304
g580
sVcom.android.incallui
p747
g198
sVcom.baidu.tieba
p748
g564
sg344
g84
sVcom.babytree.apps.lama
p749
g242
sg666
g264
sVcom.lenovo.videoplayer
p750
g286
sVcn.etouch.ecalendar
p751
g443
sg57
g474
sVcom.lenovo.safecenter
p752
g324
sg41
g341
sg29
g221
ssg67
(dp753
Vcom.android.gallery3d
p754
g132
sVcom.dou_pai.DouPai
p755
g95
sg59
g502
sVcom.tencent.mm
p756
g299
sg731
g378
sg435
g517
sg496
g168
sVcom.android.incallui
p757
g200
sg732
g536
sVcn.j.hers
p758
g578
sVcom.babytree.apps.lama
p759
g244
sVcom.baidu.searchbox_lenovo
p760
g416
sg53
g425
sg55
g445
sg454
g476
ssg69
(dp761
Vcom.qzone
p762
g534
sg317
g305
sg668
g325
sssS'adj'
p763
g74
sb.