ccopy_reg
_reconstructor
p1
(cnetworkx.classes.digraph
DiGraph
p2
c__builtin__
object
p3
NtRp4
(dp5
S'node'
p6
(dp7
Vcom.sankuai.meituan
p8
(dp9
S'weight'
p10
F0.00054142923180663482
ssVcom.wandoujia.phoenix2
p11
(dp12
g10
F6.0787093910405479e-05
ssVcom.youdao.dict
p13
(dp14
g10
F9.471477423249226e-05
ssVcom.shuqi.com.controller
p15
(dp16
g10
F9.3301120885738641e-05
ssVcom.android.deskclock
p17
(dp18
g10
F0.074927868337981901
ssVcom.UCMobile
p19
(dp20
g10
F0.19430241155124423
ssVcom.tencent.qqgame.qqTexaswvga
p21
(dp22
g10
F0.0021897490341213507
ssVcom.sohu.inputmethod.sogou
p23
(dp24
g10
F0.0016638699891290058
ssVcom.android.launcher
p25
(dp26
g10
F0.17903354175295844
ssVcom.storm.smart
p27
(dp28
g10
F0.00053577461841962035
ssVmy.PCamera
p29
(dp30
g10
F5.5132480523391016e-05
ssVcom.android.contacts
p31
(dp32
g10
F0.045013549867328632
ssVcom.eg.android.AlipayGphone
p33
(dp34
g10
F0.013433947754199611
ssVcom.android.wifi
p35
(dp36
g10
F8.4819200805216953e-06
ssVcom.zhihu.android
p37
(dp38
g10
F0.0048304534858571047
ssVcom.chinamworld.main
p39
(dp40
g10
F0.00018094762838446283
ssVcn.wps.moffice_eng
p41
(dp42
g10
F7.0682667337680785e-06
ssVcom.android.packageinstaller
p43
(dp44
g10
F0.00018377493507797004
ssVcom.qqgame.hlddz
p45
(dp46
g10
F1.2722880120782541e-05
ssVcom.android.gallery3d
p47
(dp48
g10
F0.00074358166039240189
ssVcom.android.video
p49
(dp50
g10
F0.00061352555249106924
ssVcom.android.phone
p51
(dp52
g10
F0.027615718128831884
ssVcom.android.nfc
p53
(dp54
g10
F8.4819200805216953e-06
ssVcom.uniriho.szt
p55
(dp56
g10
F0.00058242517886248973
ssVcom.tencent.mobileqq
p57
(dp58
g10
F0.15420696167727141
ssVcom.sankuai.meituan.takeoutnew
p59
(dp60
g10
F0.00034775872330138947
ssVcom.cmpay.hjb
p61
(dp62
g10
F4.8064213789622933e-05
ssVqsbk.app
p63
(dp64
g10
F0.0020653475396070326
ssVcom.android.calculator
p65
(dp66
g10
F0.010147203722997454
ssVcom.quora.android
p67
(dp68
g10
F0.00094007947559115448
ssVcn.com.fetion
p69
(dp70
g10
F0.00019367050850524535
ssVcom.yipiao
p71
(dp72
g10
F0.0023777649292395816
ssVcom.dianping.v1
p73
(dp74
g10
F0.00016681109491692667
ssVcom.android.fileexplorer
p75
(dp76
g10
F0.0010602400100652117
ssVcom.coomix.app.bus
p77
(dp78
g10
F0.0010644809701054728
ssVcom.Qunar
p79
(dp80
g10
F0.00020780704197278152
ssVcom.android.email
p81
(dp82
g10
F0.010483653219524814
ssVcom.jrdcom.app2sdcard
p83
(dp84
g10
F5.6546133870144628e-05
ssVcom.xunlei.downloadprovider
p85
(dp86
g10
F0.0015592596414692381
ssVcom.huawei.mobilenotes
p87
(dp88
g10
F0.017778104488773473
ssVcom.cnvcs.gomoku
p89
(dp90
g10
F0.00066583072632095299
ssVcom.rsa.securidapp
p91
(dp92
g10
F0.00039158197705075156
ssVcom.android.calendar
p93
(dp94
g10
F4.0995947055854857e-05
ssVcom.tencent.mm
p95
(dp96
g10
F0.17228051971551639
ssVcom.android.mms
p97
(dp98
g10
F0.0090572769926504162
ssVcom.baidu.BaiduMap
p99
(dp100
g10
F0.050481561012571619
ssVcmb.pb
p101
(dp102
g10
F0.0078302258876682771
ssVcom.cmcc.wallet
p103
(dp104
g10
F2.4032106894811467e-05
ssVcom.android.taskmanager
p105
(dp106
g10
F6.5028053950666324e-05
ssVcom.android.settings
p107
(dp108
g10
F0.0048968951931545254
ssVcom.android.camera
p109
(dp110
g10
F0.0048092486856558007
ssVcom.cmcc.nqweather.cmm812
p111
(dp112
g10
F1.9791146854550622e-05
sssS'node_dict_factory'
p113
c__builtin__
dict
p114
sS'edge_attr_dict_factory'
p115
g114
sS'succ'
p116
(dp117
g8
(dp118
Vcom.android.launcher
p119
(dp120
g10
I2
ssg73
(dp121
g10
F0.90000000000000002
sssg11
(dp122
Vcom.android.packageinstaller
p123
(dp124
g10
I1
ssVcom.uniriho.szt
p125
(dp126
g10
F1.3
ssVcom.eg.android.AlipayGphone
p127
(dp128
g10
F0.69999999999999996
sssg13
(dp129
Vcom.quora.android
p130
(dp131
g10
F1.8999999999999999
ssVcom.android.launcher
p132
(dp133
g10
F1.8999999999999999
sssg15
(dp134
Vcom.tencent.mm
p135
(dp136
g10
F0.40000000000000002
ssg89
(dp137
g10
F0.90000000000000002
ssVcom.android.launcher
p138
(dp139
g10
F1.7
sssg17
(dp140
Vcom.tencent.mm
p141
(dp142
g10
F2.7999999999999998
ssVcom.android.launcher
p143
(dp144
g10
F2.7000000000000002
sssg19
(dp145
Vcom.zhihu.android
p146
(dp147
g10
F1.3
ssg35
(dp148
g10
F0.90000000000000002
ssVcom.tencent.mobileqq
p149
(dp150
g10
F18.699999999999999
ssVcom.sankuai.meituan
p151
(dp152
g10
F0.90000000000000002
ssVcom.android.mms
p153
(dp154
g10
F5.2999999999999998
ssVcom.baidu.BaiduMap
p155
(dp156
g10
F0.69999999999999996
ssg101
(dp157
g10
F0.90000000000000002
ssVcom.android.fileexplorer
p158
(dp159
g10
F0.90000000000000002
ssVcom.android.launcher
p160
(dp161
g10
F61.899999999999991
ssVcom.android.phone
p162
(dp163
g10
F13.9
ssVcom.storm.smart
p164
(dp165
g10
F0.69999999999999996
ssVcom.android.email
p166
(dp167
g10
F2.7000000000000002
ssVcom.tencent.mm
p168
(dp169
g10
F35.799999999999997
ssVcom.android.contacts
p170
(dp171
g10
F8.9000000000000021
ssg33
(dp172
g10
F1.8
ssVcom.android.settings
p173
(dp174
g10
F7.3000000000000007
sssg21
(dp175
Vcom.android.email
p176
(dp177
g10
F0.90000000000000002
ssg45
(dp178
g10
F0.40000000000000002
ssVcom.tencent.mm
p179
(dp180
g10
F1.8
ssVcom.android.contacts
p181
(dp182
g10
F0.40000000000000002
ssVcom.android.launcher
p183
(dp184
g10
F4.4000000000000004
sssg23
(dp185
Vcom.tencent.mm
p186
(dp187
g10
F0.90000000000000002
ssVcom.android.launcher
p188
(dp189
g10
I1
sssg25
(dp190
g45
(dp191
g10
F1.7
ssg11
(dp192
g10
F1.7
ssg13
(dp193
g10
F1.7
ssg15
(dp194
g10
F1.7
ssVcom.android.deskclock
p195
(dp196
g10
I1
ssg19
(dp197
g10
F42.300000000000004
ssVcom.tencent.qqgame.qqTexaswvga
p198
(dp199
g10
F2.7000000000000002
ssg27
(dp200
g10
F4.7000000000000002
ssg29
(dp201
g10
F2.2999999999999998
ssg31
(dp202
g10
F192.89999999999992
ssg33
(dp203
g10
F24.29999999999999
ssg35
(dp204
g10
F0.69999999999999996
ssg37
(dp205
g10
F4.7000000000000002
ssg39
(dp206
g10
F1.7
ssg41
(dp207
g10
F0.90000000000000002
ssg43
(dp208
g10
F3.2999999999999998
ssg8
(dp209
g10
F2.7000000000000002
ssg47
(dp210
g10
F9.7000000000000011
ssg49
(dp211
g10
F3
ssg51
(dp212
g10
F130.50000000000031
ssVcom.android.nfc
p213
(dp214
g10
F1.8999999999999999
ssg55
(dp215
g10
F9.5
ssg57
(dp216
g10
F100.10000000000009
ssg59
(dp217
g10
F5.1000000000000005
ssg61
(dp218
g10
F1.3
ssg63
(dp219
g10
I1
ssg65
(dp220
g10
F3.7000000000000002
ssVcom.quora.android
p221
(dp222
g10
F2.7000000000000002
ssg69
(dp223
g10
F3.3999999999999999
ssVcom.yipiao
p224
(dp225
g10
F8.8000000000000007
ssg73
(dp226
g10
F1.7
ssg75
(dp227
g10
F6.4000000000000004
ssVcom.coomix.app.bus
p228
(dp229
g10
F4.7000000000000002
ssg79
(dp230
g10
F1.7
ssVcom.android.email
p231
(dp232
g10
F31.199999999999996
ssg87
(dp233
g10
F6.4000000000000004
ssg89
(dp234
g10
F1.7
ssVcom.rsa.securidapp
p235
(dp236
g10
I1
ssg93
(dp237
g10
F3.7000000000000002
ssVcom.tencent.mm
p238
(dp239
g10
F191.89999999999995
ssg97
(dp240
g10
F48.200000000000003
ssg99
(dp241
g10
F18.599999999999998
ssg101
(dp242
g10
F10.899999999999999
ssg103
(dp243
g10
F2.3999999999999999
ssg105
(dp244
g10
F1.7
ssVcom.android.settings
p245
(dp246
g10
F17.500000000000004
ssg109
(dp247
g10
F8.0999999999999996
sssg27
(dp248
Vcom.android.video
p249
(dp250
g10
F0.90000000000000002
ssVcom.android.launcher
p251
(dp252
g10
F2.7000000000000002
ssVcom.android.phone
p253
(dp254
g10
I1
sssg29
(dp255
Vcom.tencent.mm
p256
(dp257
g10
I1
ssVcom.android.launcher
p258
(dp259
g10
F1.8999999999999999
sssg31
(dp260
g87
(dp261
g10
F1.7000000000000002
ssg63
(dp262
g10
F0.90000000000000002
ssg47
(dp263
g10
F1.3
ssVcom.zhihu.android
p264
(dp265
g10
F1.3
ssVcom.tencent.mm
p266
(dp267
g10
F54.899999999999963
ssg97
(dp268
g10
F21.899999999999991
ssg99
(dp269
g10
F1.7000000000000002
ssVcmb.pb
p270
(dp271
g10
F0.40000000000000002
ssVcom.UCMobile
p272
(dp273
g10
F5.2000000000000002
ssVcom.coomix.app.bus
p274
(dp275
g10
F0.90000000000000002
ssVcom.uniriho.szt
p276
(dp277
g10
F1.3
ssVcom.android.launcher
p278
(dp279
g10
F194.59999999999988
ssg51
(dp280
g10
F160.90000000000009
ssg231
(dp281
g10
F10.300000000000001
ssVcom.tencent.mobileqq
p282
(dp283
g10
F21.799999999999997
ssVcom.sankuai.meituan.takeoutnew
p284
(dp285
g10
F1.7000000000000002
sssg33
(dp286
Vcom.huawei.mobilenotes
p287
(dp288
g10
I1
ssVmy.PCamera
p289
(dp290
g10
F0.90000000000000002
ssVcom.wandoujia.phoenix2
p291
(dp292
g10
F1.3
ssVcom.tencent.mm
p293
(dp294
g10
F11.800000000000001
ssVcom.android.mms
p295
(dp296
g10
F3.7000000000000002
ssVcom.yipiao
p297
(dp298
g10
I2
ssVcmb.pb
p299
(dp300
g10
F1.3
ssVcom.UCMobile
p301
(dp302
g10
I1
ssVcom.android.launcher
p303
(dp304
g10
F24.999999999999993
ssg213
(dp305
g10
F0.69999999999999996
ssg55
(dp306
g10
F3.0999999999999996
ssVcom.tencent.mobileqq
p307
(dp308
g10
F4.5
ssVcom.android.contacts
p309
(dp310
g10
F0.69999999999999996
sssg35
(dp311
Vcom.android.settings
p312
(dp313
g10
I1
ssVcom.android.mms
p314
(dp315
g10
F0.40000000000000002
ssVcom.android.launcher
p316
(dp317
g10
F0.90000000000000002
ssVcom.UCMobile
p318
(dp319
g10
F0.69999999999999996
sssg37
(dp320
Vcom.tencent.mobileqq
p321
(dp322
g10
F1.8999999999999999
ssVcom.UCMobile
p323
(dp324
g10
F1.3
ssVcom.android.launcher
p325
(dp326
g10
F7.4000000000000004
ssg109
(dp327
g10
F0.40000000000000002
ssVcom.android.email
p328
(dp329
g10
F1.3
ssVcom.tencent.mm
p330
(dp331
g10
F3.2999999999999998
sssg39
(dp332
Vcom.android.calculator
p333
(dp334
g10
F0.90000000000000002
ssg103
(dp335
g10
F0.40000000000000002
ssVcom.android.launcher
p336
(dp337
g10
F1.7
sssg41
(dp338
sg43
(dp339
g11
(dp340
g10
F0.90000000000000002
ssg107
(dp341
g10
F0.90000000000000002
ssg69
(dp342
g10
F0.69999999999999996
ssVcom.android.mms
p343
(dp344
g10
F0.40000000000000002
ssg75
(dp345
g10
F1.3
ssVcom.coomix.app.bus
p346
(dp347
g10
I1
ssVcom.android.launcher
p348
(dp349
g10
F4.2999999999999998
ssg125
(dp350
g10
F2.0999999999999996
ssg83
(dp351
g10
I1
ssg127
(dp352
g10
F1.3
sssg45
(dp353
Vcom.tencent.mm
p354
(dp355
g10
I1
sssg47
(dp356
Vcom.yipiao
p357
(dp358
g10
I1
ssg49
(dp359
g10
F16.699999999999996
ssVcom.android.launcher
p360
(dp361
g10
F8.4000000000000004
ssVcom.android.phone
p362
(dp363
g10
F0.40000000000000002
ssg27
(dp364
g10
F0.90000000000000002
ssVcom.tencent.mm
p365
(dp366
g10
F1.3
ssVcom.android.contacts
p367
(dp368
g10
F0.69999999999999996
sssg49
(dp369
Vcom.storm.smart
p370
(dp371
g10
F0.90000000000000002
ssVcom.android.gallery3d
p372
(dp373
g10
F16.299999999999997
ssVcom.android.launcher
p374
(dp375
g10
F1.7
sssg51
(dp376
g37
(dp377
g10
F0.69999999999999996
ssg47
(dp378
g10
F1.1000000000000001
ssg111
(dp379
g10
F0.69999999999999996
ssVcom.huawei.mobilenotes
p380
(dp381
g10
F0.69999999999999996
ssVcom.android.calculator
p382
(dp383
g10
F0.40000000000000002
ssVcom.tencent.mobileqq
p384
(dp385
g10
F13.800000000000002
ssg97
(dp386
g10
F9.7000000000000011
ssVcom.baidu.BaiduMap
p387
(dp388
g10
F1.7
ssVcom.yipiao
p389
(dp390
g10
I1
ssVcom.UCMobile
p391
(dp392
g10
F9.3999999999999986
ssVcom.tencent.qqgame.qqTexaswvga
p393
(dp394
g10
I1
ssg278
(dp395
g10
F82.500000000000057
ssVcom.android.settings
p396
(dp397
g10
F7.7000000000000002
ssVcom.storm.smart
p398
(dp399
g10
I1
ssVcom.android.camera
p400
(dp401
g10
I1
ssg231
(dp402
g10
F4.6000000000000005
ssVcom.tencent.mm
p403
(dp404
g10
F34.999999999999979
ssVcom.android.contacts
p405
(dp406
g10
F108.40000000000008
ssVcom.eg.android.AlipayGphone
p407
(dp408
g10
F0.69999999999999996
ssVcom.sankuai.meituan.takeoutnew
p409
(dp410
g10
I1
sssg53
(dp411
Vcom.android.packageinstaller
p412
(dp413
g10
F0.69999999999999996
ssg55
(dp414
g10
F2.7000000000000002
ssVcom.android.mms
p415
(dp416
g10
F0.90000000000000002
ssVcom.android.launcher
p417
(dp418
g10
F3.2999999999999998
ssVcom.eg.android.AlipayGphone
p419
(dp420
g10
I1
sssg55
(dp421
g11
(dp422
g10
F2.1000000000000001
ssVcom.android.settings
p423
(dp424
g10
F2.1000000000000001
ssg412
(dp425
g10
F0.90000000000000002
ssVcom.android.launcher
p426
(dp427
g10
F7.8000000000000007
ssVcom.android.email
p428
(dp429
g10
F1.3
ssg127
(dp430
g10
F2.7000000000000002
sssg57
(dp431
g15
(dp432
g10
F0.90000000000000002
ssVcom.UCMobile
p433
(dp434
g10
F17.700000000000003
ssVcom.android.launcher
p435
(dp436
g10
F168.00000000000017
ssg29
(dp437
g10
F0.69999999999999996
ssVcom.android.contacts
p438
(dp439
g10
F40.499999999999986
ssVcom.eg.android.AlipayGphone
p440
(dp441
g10
F3.7999999999999998
ssVcom.zhihu.android
p442
(dp443
g10
F1.8999999999999999
ssg412
(dp444
g10
F1.3999999999999999
ssVcom.android.gallery3d
p445
(dp446
g10
F2.2000000000000002
ssVcom.android.phone
p447
(dp448
g10
F17.199999999999999
ssVcom.android.nfc
p449
(dp450
g10
I1
ssVcom.uniriho.szt
p451
(dp452
g10
F0.90000000000000002
ssVcom.tencent.mm
p453
(dp454
g10
F65.59999999999998
ssg69
(dp455
g10
F1.3
ssg224
(dp456
g10
F5.2000000000000002
ssVcom.android.fileexplorer
p457
(dp458
g10
F0.90000000000000002
ssg228
(dp459
g10
F1.8
ssVcom.android.email
p460
(dp461
g10
F16.199999999999999
ssVcom.xunlei.downloadprovider
p462
(dp463
g10
I1
ssVcom.huawei.mobilenotes
p464
(dp465
g10
I2
ssg89
(dp466
g10
F0.40000000000000002
ssVcom.android.calendar
p467
(dp468
g10
F0.40000000000000002
ssVcom.android.mms
p469
(dp470
g10
F9.0999999999999996
ssVcom.baidu.BaiduMap
p471
(dp472
g10
F4.5999999999999996
ssVcmb.pb
p473
(dp474
g10
F0.90000000000000002
sssg59
(dp475
Vcom.tencent.mm
p476
(dp477
g10
F1.3
ssVcom.android.launcher
p478
(dp479
g10
F3.3999999999999999
ssVcom.android.phone
p480
(dp481
g10
I1
sssg61
(dp482
Vcom.cmcc.wallet
p483
(dp484
g10
I1
ssVcom.android.launcher
p485
(dp486
g10
F0.90000000000000002
sssg63
(dp487
Vcom.tencent.mobileqq
p488
(dp489
g10
F0.40000000000000002
ssVcom.tencent.mm
p490
(dp491
g10
F0.90000000000000002
ssVcom.android.launcher
p492
(dp493
g10
F1.7
sssg65
(dp494
g61
(dp495
g10
F0.69999999999999996
ssg103
(dp496
g10
F1.3
ssVcom.android.launcher
p497
(dp498
g10
F5.7000000000000002
ssVcom.android.phone
p499
(dp500
g10
F0.90000000000000002
ssVcom.tencent.mm
p501
(dp502
g10
F3.7000000000000002
ssVcom.eg.android.AlipayGphone
p503
(dp504
g10
F0.69999999999999996
sssg67
(dp505
g13
(dp506
g10
F1.3
ssVcom.android.launcher
p507
(dp508
g10
F4.4000000000000004
sssg69
(dp509
Vcom.android.gallery3d
p510
(dp511
g10
F0.90000000000000002
ssg343
(dp512
g10
I1
ssVcom.android.launcher
p513
(dp514
g10
F1.7
sssg71
(dp515
g445
(dp516
g10
I1
ssVcom.tencent.mobileqq
p517
(dp518
g10
F5.0999999999999996
ssVcom.android.mms
p519
(dp520
g10
F0.69999999999999996
ssVcom.android.launcher
p521
(dp522
g10
F14.5
ssVcom.android.email
p523
(dp524
g10
F0.90000000000000002
ssg293
(dp525
g10
F0.40000000000000002
ssVcom.android.contacts
p526
(dp527
g10
F0.90000000000000002
ssg440
(dp528
g10
F3.2999999999999998
sssg73
(dp529
sg75
(dp530
g8
(dp531
g10
F0.40000000000000002
ssVcom.android.gallery3d
p532
(dp533
g10
F0.90000000000000002
ssg105
(dp534
g10
F0.90000000000000002
ssVcom.android.launcher
p535
(dp536
g10
F7.8000000000000007
ssg253
(dp537
g10
F1.8
ssg27
(dp538
g10
F2.0999999999999996
ssVcom.android.email
p539
(dp540
g10
F1.3
ssVcom.android.contacts
p541
(dp542
g10
F0.40000000000000002
sssg77
(dp543
Vcom.android.settings
p544
(dp545
g10
F1.7
ssVcom.android.packageinstaller
p546
(dp547
g10
I1
ssg69
(dp548
g10
F1.3
ssVcom.android.mms
p549
(dp550
g10
F11.5
ssg99
(dp551
g10
F2.2000000000000002
ssVcom.android.launcher
p552
(dp553
g10
F6.4000000000000004
ssVcom.android.phone
p554
(dp555
g10
F0.69999999999999996
ssVcom.android.contacts
p556
(dp557
g10
F0.90000000000000002
sssg79
(dp558
Vcom.tencent.mm
p559
(dp560
g10
I1
sssg81
(dp561
g41
(dp562
g10
I1
ssVcom.tencent.mobileqq
p563
(dp564
g10
F8.1000000000000014
ssVcom.android.mms
p565
(dp566
g10
F3.2999999999999998
ssg272
(dp567
g10
F0.90000000000000002
ssVcom.tencent.qqgame.qqTexaswvga
p568
(dp569
g10
F0.90000000000000002
ssVcom.android.launcher
p570
(dp571
g10
F49.100000000000009
ssVcom.android.phone
p572
(dp573
g10
F6.8000000000000007
ssVcom.tencent.mm
p574
(dp575
g10
F7.1000000000000005
ssVcom.android.contacts
p576
(dp577
g10
F14.300000000000004
ssVcom.eg.android.AlipayGphone
p578
(dp579
g10
F1.3
ssg245
(dp580
g10
F1.3
sssg83
(dp581
g107
(dp582
g10
I1
ssVcom.android.launcher
p583
(dp584
g10
F0.90000000000000002
sssg85
(dp585
Vcom.android.gallery3d
p586
(dp587
g10
F1.3
ssVcom.tencent.mobileqq
p588
(dp589
g10
I2
ssVcom.android.launcher
p590
(dp591
g10
F2.3999999999999999
sssg87
(dp592
Vcom.tencent.mobileqq
p593
(dp594
g10
I2
ssVcom.android.gallery3d
p595
(dp596
g10
F0.69999999999999996
ssVcom.android.launcher
p597
(dp598
g10
F9.6999999999999993
ssVcom.android.phone
p599
(dp600
g10
F0.40000000000000002
ssVcom.android.camera
p601
(dp602
g10
F0.90000000000000002
ssVcom.tencent.mm
p603
(dp604
g10
F1.8
ssVcom.android.contacts
p605
(dp606
g10
F1.1000000000000001
sssg89
(dp607
g135
(dp608
g10
F0.90000000000000002
ssVcom.android.launcher
p609
(dp610
g10
I1
sssg91
(dp611
Vcom.android.email
p612
(dp613
g10
F0.90000000000000002
ssVcom.android.launcher
p614
(dp615
g10
F2.7000000000000002
sssg93
(dp616
Vcom.tencent.mm
p617
(dp618
g10
F0.90000000000000002
ssVcom.android.contacts
p619
(dp620
g10
F1.3
ssVcom.android.launcher
p621
(dp622
g10
F4.4000000000000004
sssg95
(dp623
g19
(dp624
g10
F22.299999999999994
ssg568
(dp625
g10
F0.40000000000000002
ssVcom.android.launcher
p626
(dp627
g10
F277.39999999999975
ssg29
(dp628
g10
I1
ssVcom.android.contacts
p629
(dp630
g10
F69.299999999999969
ssVcom.eg.android.AlipayGphone
p631
(dp632
g10
F15.9
ssg37
(dp633
g10
F4.6000000000000005
ssg45
(dp634
g10
F0.90000000000000002
ssg445
(dp635
g10
F0.90000000000000002
ssVcom.android.phone
p636
(dp637
g10
F50.499999999999993
ssg276
(dp638
g10
F0.40000000000000002
ssVcom.tencent.mobileqq
p639
(dp640
g10
F65.799999999999983
ssg59
(dp641
g10
F2.5
ssg65
(dp642
g10
F2.7999999999999998
ssVcom.yipiao
p643
(dp644
g10
F1.7
ssVcom.Qunar
p645
(dp646
g10
I1
ssVcom.android.email
p647
(dp648
g10
F12.000000000000002
ssVcom.huawei.mobilenotes
p649
(dp650
g10
F3.1999999999999997
ssg93
(dp651
g10
F1.8
ssg245
(dp652
g10
F4.5999999999999996
ssVcom.android.mms
p653
(dp654
g10
F12.900000000000002
ssVcom.baidu.BaiduMap
p655
(dp656
g10
F3.7999999999999998
ssg101
(dp657
g10
F1.7999999999999998
ssg109
(dp658
g10
F4.9000000000000004
sssg97
(dp659
g55
(dp660
g10
F0.69999999999999996
ssg235
(dp661
g10
F0.90000000000000002
ssg382
(dp662
g10
F0.69999999999999996
ssVcom.tencent.mm
p663
(dp664
g10
F14.800000000000001
ssVcn.com.fetion
p665
(dp666
g10
I1
ssg155
(dp667
g10
F1.3
ssg224
(dp668
g10
F0.40000000000000002
ssg270
(dp669
g10
F2.7000000000000002
ssg391
(dp670
g10
F4.2000000000000002
ssVcom.coomix.app.bus
p671
(dp672
g10
F10.5
ssVcom.android.launcher
p673
(dp674
g10
F69.000000000000028
ssg162
(dp675
g10
F11.5
ssg53
(dp676
g10
F1.8999999999999999
ssVcom.android.email
p677
(dp678
g10
F2.2999999999999998
ssVcom.tencent.mobileqq
p679
(dp680
g10
F8.4000000000000004
ssVcom.android.contacts
p681
(dp682
g10
F22.699999999999989
ssg419
(dp683
g10
F0.90000000000000002
ssg544
(dp684
g10
F1.3
sssg99
(dp685
g87
(dp686
g10
F0.90000000000000002
ssVcom.tencent.mobileqq
p687
(dp688
g10
F3.3999999999999999
ssVcom.yipiao
p689
(dp690
g10
F0.90000000000000002
ssVcom.coomix.app.bus
p691
(dp692
g10
F1.8
ssVcom.android.launcher
p693
(dp694
g10
F33.200000000000003
ssg554
(dp695
g10
F3.5
ssVcom.android.email
p696
(dp697
g10
I1
ssVcom.tencent.mm
p698
(dp699
g10
F1.8
ssVcom.android.contacts
p700
(dp701
g10
F2.6000000000000001
ssVcom.android.settings
p702
(dp703
g10
F3.6000000000000001
sssg101
(dp704
g39
(dp705
g10
F1.3
ssg333
(dp706
g10
F0.40000000000000002
ssVcom.android.settings
p707
(dp708
g10
F1.3
ssVcom.android.mms
p709
(dp710
g10
F1.8999999999999999
ssVcom.android.launcher
p711
(dp712
g10
F11.5
ssVcom.android.phone
p713
(dp714
g10
F0.90000000000000002
ssVcom.tencent.mm
p715
(dp716
g10
F2.2999999999999998
ssVcom.android.contacts
p717
(dp718
g10
I1
ssg33
(dp719
g10
F1.3
sssg103
(dp720
g61
(dp721
g10
I1
ssg485
(dp722
g10
F1.7
sssg105
(dp723
g8
(dp724
g10
F0.90000000000000002
ssVcom.android.launcher
p725
(dp726
g10
F1.7
ssg73
(dp727
g10
F0.40000000000000002
sssg107
(dp728
Vcom.uniriho.szt
p729
(dp730
g10
I1
ssg35
(dp731
g10
F1.3999999999999999
ssVcom.android.mms
p732
(dp733
g10
F2.7000000000000002
ssVcom.UCMobile
p734
(dp735
g10
F5.7000000000000011
ssVcom.coomix.app.bus
p736
(dp737
g10
F0.90000000000000002
ssg583
(dp738
g10
F17.099999999999998
ssVcom.android.phone
p739
(dp740
g10
F7.4000000000000004
ssg428
(dp741
g10
F0.69999999999999996
ssVcom.tencent.mm
p742
(dp743
g10
F4.0999999999999996
ssVcom.android.contacts
p744
(dp745
g10
F0.69999999999999996
ssg111
(dp746
g10
I1
sssg109
(dp747
g396
(dp748
g10
F1.7
ssVcom.tencent.mm
p749
(dp750
g10
F1.8
ssg595
(dp751
g10
I4
ssVcom.android.launcher
p752
(dp753
g10
F7.9000000000000012
ssVcom.android.phone
p754
(dp755
g10
I1
ssg639
(dp756
g10
F1.3
ssg111
(dp757
g10
F1.3
sssg111
(dp758
ssS'edge'
p759
g117
sS'graph'
p760
(dp761
sS'adjlist_dict_factory'
p762
g114
sS'adj'
p763
g117
sS'pred'
p764
(dp765
g8
(dp766
Vcom.android.fileexplorer
p767
g531
sg105
g724
sVcom.android.launcher
p768
g209
sVcom.UCMobile
p769
g152
ssg11
(dp770
g412
g340
sg451
g422
sg127
g292
sVcom.android.launcher
p771
g192
ssg13
(dp772
g67
g506
sg507
g193
ssg15
(dp773
Vcom.tencent.mobileqq
p774
g432
sVcom.android.launcher
p775
g194
ssg17
(dp776
Vcom.android.launcher
p777
g196
ssg19
(dp778
Vcom.zhihu.android
p779
g324
sg35
g319
sVcom.tencent.mobileqq
p780
g434
sVcom.android.mms
p781
g670
sVcom.android.launcher
p782
g197
sVcom.android.phone
p783
g392
sVcom.android.email
p784
g567
sVcom.tencent.mm
p785
g624
sVcom.android.contacts
p786
g273
sVcom.eg.android.AlipayGphone
p787
g302
sg173
g735
ssg21
(dp788
Vcom.android.email
p789
g569
sVcom.tencent.mm
p790
g625
sVcom.android.launcher
p791
g199
sVcom.android.phone
p792
g394
ssg23
(dp793
sg25
(dp794
g13
g133
sg15
g139
sg17
g144
sg19
g161
sg21
g184
sg23
g189
sg27
g252
sg29
g259
sg405
g279
sg33
g304
sg35
g317
sg37
g326
sg39
g337
sg43
g349
sg8
g120
sg47
g361
sg249
g375
sVcom.android.phone
p795
g395
sg53
g418
sg55
g427
sg57
g436
sg284
g479
sg61
g486
sVqsbk.app
p796
g493
sVcom.android.calculator
p797
g498
sg67
g508
sVcn.com.fetion
p798
g514
sg71
g522
sg75
g536
sg228
g553
sVcom.android.email
p799
g571
sg83
g584
sVcom.xunlei.downloadprovider
p800
g591
sVcom.huawei.mobilenotes
p801
g598
sg89
g610
sg91
g615
sg93
g622
sg95
g627
sg295
g674
sg99
g694
sg101
g712
sg103
g722
sg105
g726
sg107
g738
sg109
g753
ssg27
(dp802
Vcom.UCMobile
p803
g165
sg532
g364
sg457
g538
sg249
g371
sVcom.android.launcher
p804
g200
sg253
g399
ssg29
(dp805
Vcom.tencent.mm
p806
g628
sVcom.tencent.mobileqq
p807
g437
sVcom.eg.android.AlipayGphone
p808
g290
sVcom.android.launcher
p809
g201
ssg31
(dp810
Vcom.huawei.mobilenotes
p811
g606
sVcom.android.gallery3d
p812
g368
sVcom.UCMobile
p813
g171
sVcom.android.calendar
p814
g620
sVcom.tencent.mm
p815
g630
sg653
g682
sVcom.baidu.BaiduMap
p816
g701
sg224
g527
sVcmb.pb
p817
g718
sVcom.android.fileexplorer
p818
g542
sg393
g182
sVcom.coomix.app.bus
p819
g557
sVcom.android.launcher
p820
g202
sg795
g406
sg799
g577
sg384
g439
sg407
g310
sVcom.android.settings
p821
g745
ssg33
(dp822
Vcom.android.email
p823
g579
sg11
g128
sg382
g504
sVcom.tencent.mm
p824
g632
sg123
g352
sVcom.android.mms
p825
g683
sVcom.yipiao
p826
g528
sg101
g719
sg19
g172
sg160
g203
sg499
g408
sg53
g420
sg125
g430
sVcom.tencent.mobileqq
p827
g441
ssg35
(dp828
Vcom.android.settings
p829
g731
sVcom.android.launcher
p830
g204
sVcom.UCMobile
p831
g148
ssg37
(dp832
Vcom.tencent.mm
p833
g633
sg323
g147
sVcom.android.launcher
p834
g205
sg447
g377
sg321
g443
sVcom.android.contacts
p835
g265
ssg39
(dp836
g299
g705
sVcom.android.launcher
p837
g206
ssg41
(dp838
Vcom.android.email
p839
g562
sVcom.android.launcher
p840
g207
ssg43
(dp841
g11
g124
sVcom.coomix.app.bus
p842
g547
sVcom.android.launcher
p843
g208
sg449
g413
sg451
g425
sVcom.tencent.mobileqq
p844
g444
ssg45
(dp845
g198
g178
sVcom.tencent.mm
p846
g634
sVcom.android.launcher
p847
g191
ssg47
(dp848
g800
g587
sg801
g596
sVcom.tencent.mobileqq
p849
g446
sg798
g511
sg643
g516
sg457
g533
sg49
g373
sVcom.android.launcher
p850
g210
sVcom.android.phone
p851
g378
sg601
g751
sVcom.tencent.mm
p852
g635
sVcom.android.contacts
p853
g263
ssg49
(dp854
g27
g250
sVcom.android.gallery3d
p855
g359
sVcom.android.launcher
p856
g211
ssg51
(dp857
g811
g600
sg812
g363
sg158
g537
sVcom.android.calculator
p858
g500
sg266
g637
sg781
g675
sg99
g695
sg817
g714
sg391
g163
sg274
g555
sg820
g212
sg821
g740
sg164
g254
sVcom.android.camera
p859
g755
sg799
g573
sVcom.tencent.mobileqq
p860
g448
sg31
g280
sg284
g481
ssg53
(dp861
g844
g450
sg825
g676
sg417
g214
sg419
g305
ssg55
(dp862
g11
g126
sVcom.tencent.mm
p863
g638
sg412
g350
sg415
g660
sg417
g215
sg423
g730
sg213
g414
sg844
g452
sVcom.android.contacts
p864
g277
sg419
g306
ssg57
(dp865
g85
g589
sVcom.zhihu.android
p866
g322
sg796
g489
sVcom.huawei.mobilenotes
p867
g594
sg469
g680
sVcom.baidu.BaiduMap
p868
g688
sg224
g518
sVcom.UCMobile
p869
g150
sg25
g216
sVcom.android.phone
p870
g385
sVcom.android.camera
p871
g756
sg81
g564
sg749
g640
sVcom.android.contacts
p872
g283
sg440
g308
ssg59
(dp873
Vcom.tencent.mm
p874
g641
sVcom.android.contacts
p875
g285
sVcom.android.launcher
p876
g217
sg480
g410
ssg61
(dp877
g333
g495
sg103
g721
sg336
g218
ssg63
(dp878
Vcom.android.contacts
p879
g262
sVcom.android.launcher
p880
g219
ssg65
(dp881
g39
g334
sVcom.android.mms
p882
g662
sVcmb.pb
p883
g706
sVcom.android.launcher
p884
g220
sVcom.android.phone
p885
g383
sVcom.tencent.mm
p886
g642
ssg67
(dp887
g13
g131
sg507
g222
ssg69
(dp888
g343
g666
sVcom.android.packageinstaller
p889
g342
sg346
g548
sVcom.tencent.mobileqq
p890
g455
sVcom.android.launcher
p891
g223
ssg71
(dp892
g445
g358
sg852
g644
sVcom.android.mms
p893
g668
sVcom.baidu.BaiduMap
p894
g690
sVcom.android.launcher
p895
g225
sVcom.android.phone
p896
g390
sVcom.tencent.mobileqq
p897
g456
sg440
g298
ssg73
(dp898
g8
g121
sg105
g727
sg725
g226
ssg75
(dp899
g803
g159
sg43
g345
sVcom.tencent.mobileqq
p900
g458
sg843
g227
ssg77
(dp901
Vcom.android.settings
p902
g737
sg889
g347
sg549
g672
sVcom.baidu.BaiduMap
p903
g692
sVcom.android.launcher
p904
g229
sVcom.tencent.mobileqq
p905
g459
sVcom.android.contacts
p906
g275
ssg79
(dp907
g559
g646
sVcom.android.launcher
p908
g230
ssg81
(dp909
Vcom.UCMobile
p910
g167
sg866
g329
sg91
g613
sg563
g461
sVcom.android.mms
p911
g678
sVcom.baidu.BaiduMap
p912
g697
sVcom.yipiao
p913
g524
sg75
g540
sg393
g177
sVcom.android.launcher
p914
g232
sg572
g402
sVcom.uniriho.szt
p915
g429
sVcom.tencent.mm
p916
g648
sg576
g281
sg423
g741
ssg83
(dp917
Vcom.android.packageinstaller
p918
g351
ssg85
(dp919
Vcom.tencent.mobileqq
p920
g463
ssg87
(dp921
Vcom.tencent.mobileqq
p922
g465
sVcom.baidu.BaiduMap
p923
g686
sVcom.android.launcher
p924
g233
sVcom.android.phone
p925
g381
sVcom.tencent.mm
p926
g650
sVcom.android.contacts
p927
g261
sVcom.eg.android.AlipayGphone
p928
g288
ssg89
(dp929
g774
g466
sg15
g137
sVcom.android.launcher
p930
g234
ssg91
(dp931
Vcom.android.mms
p932
g661
sVcom.android.launcher
p933
g236
ssg93
(dp934
Vcom.tencent.mobileqq
p935
g468
sVcom.tencent.mm
p936
g651
sVcom.android.launcher
p937
g237
ssg95
(dp938
g15
g136
sg17
g142
sVcom.UCMobile
p939
g169
sg21
g180
sg23
g187
sg626
g239
sg29
g257
sg629
g267
sVcom.eg.android.AlipayGphone
p940
g294
sg37
g331
sg45
g355
sg47
g366
sg447
g404
sVcom.tencent.mobileqq
p941
g454
sg284
g477
sg796
g491
sVcom.android.calculator
p942
g502
sVcom.yipiao
p943
g525
sg79
g560
sVcom.android.email
p944
g575
sg811
g604
sg89
g608
sg467
g618
sg245
g743
sg653
g664
sVcom.baidu.BaiduMap
p945
g699
sVcmb.pb
p946
g716
sg109
g750
ssg97
(dp947
g35
g315
sVcom.tencent.mm
p948
g654
sg889
g344
sg69
g512
sg297
g520
sg270
g710
sVcom.UCMobile
p949
g154
sg77
g550
sVcom.android.launcher
p950
g240
sVcom.android.phone
p951
g386
sg53
g416
sVcom.android.email
p952
g566
sVcom.tencent.mobileqq
p953
g470
sVcom.android.contacts
p954
g268
sg33
g296
sg544
g733
ssg99
(dp955
Vcom.tencent.mobileqq
p956
g472
sg314
g667
sg318
g156
sg274
g551
sVcom.android.launcher
p957
g241
sg554
g388
sVcom.tencent.mm
p958
g656
sg906
g269
ssg101
(dp959
Vcom.tencent.mobileqq
p960
g474
sVcom.android.mms
p961
g669
sg19
g157
sVcom.android.launcher
p962
g242
sg785
g657
sVcom.android.contacts
p963
g271
sVcom.eg.android.AlipayGphone
p964
g300
ssg103
(dp965
g333
g496
sg61
g484
sg39
g335
sg336
g243
ssg105
(dp966
g767
g534
sVcom.android.launcher
p967
g244
ssg107
(dp968
g276
g424
sg35
g313
sg918
g341
sVcom.android.mms
p969
g684
sVcom.baidu.BaiduMap
p970
g703
sVcmb.pb
p971
g708
sVcom.UCMobile
p972
g174
sVcom.coomix.app.bus
p973
g545
sVcom.android.launcher
p974
g246
sg754
g397
sg859
g748
sg647
g580
sVcom.tencent.mm
p975
g652
sg83
g582
ssg109
(dp976
g37
g327
sg754
g401
sg330
g658
sg325
g247
sg801
g602
ssg111
(dp977
g859
g757
sg396
g746
sg754
g379
sssb.