ccopy_reg
_reconstructor
p1
(cnetworkx.classes.digraph
DiGraph
p2
c__builtin__
object
p3
NtRp4
(dp5
S'node'
p6
(dp7
Vcom.sankuai.meituan
p8
(dp9
S'weight'
p10
F0.00037860861334595362
ssVcom.android.launcher
p11
(dp12
g10
F0.074775201135825836
ssVcom.autonavi.minimap
p13
(dp14
g10
F0.0037545354156807067
ssVcom.android.deskclock
p15
(dp16
g10
F0.0028395646000946521
ssVcom.UCMobile
p17
(dp18
g10
F0.040416469474680548
ssVcom.smile.gifmaker
p19
(dp20
g10
F0.10055213756112952
ssVcom.netease.mobimail
p21
(dp22
g10
F0.0099700268181101125
ssVcom.sina.weibo
p23
(dp24
g10
F0.11374033759268024
ssVcom.android.contacts
p25
(dp26
g10
F0.0077614765735920495
ssVcom.eg.android.AlipayGphone
p27
(dp28
g10
F0.01012778040700426
ssVcom.qihoo.appstore
p29
(dp30
g10
F0.00031550717778829469
ssVcn.wps.moffice_eng
p31
(dp32
g10
F0.0053320713046221798
ssVcom.android.packageinstaller
p33
(dp34
g10
F0.0008834200978072251
ssVcom.moji.mjweather
p35
(dp36
g10
F0.00028395646000946523
ssVcom.android.gallery3d
p37
(dp38
g10
F0.0025871588578640164
ssVcom.dajie.official
p39
(dp40
g10
F0.0055213756112951571
ssVcom.qihoo360.mobilesafe
p41
(dp42
g10
F0.0029657674712099701
ssVcom.huawei.hidisk
p43
(dp44
g10
F0.0045117526423726143
ssVcom.nowcoder.app.florida
p45
(dp46
g10
F0.00075721722669190724
ssVcom.android.phone
p47
(dp48
g10
F0.029783877583215018
ssVcom.android.htmlviewer
p49
(dp50
g10
F0.00082031866224956617
ssVcom.alibaba.android.rimet
p51
(dp52
g10
F0.0055213756112951571
ssVcom.tencent.mobileqq
p53
(dp54
g10
F0.11913551033286007
ssVcom.duomi.android
p55
(dp56
g10
F0.0020192459378450861
ssVcom.tencent.androidqqmail
p57
(dp58
g10
F0.00091497081558605461
ssVcom.android.calculator
p59
(dp60
g10
F0.0016406373244991323
ssVcom.chaozh.iReaderFree15
p61
(dp62
g10
F0.0061523899668717462
ssVcom.stormreader.ebook.daomubiji
p63
(dp64
g10
F0.092948414576431618
ssVcom.sohu.newsclient
p65
(dp66
g10
F0.087837198296261243
ssVcom.baidu.input_huawei
p67
(dp68
g10
F0.00015775358889414735
ssVcom.tencent.mm
p69
(dp70
g10
F0.2266603565231109
ssVcom.android.mms
p71
(dp72
g10
F0.026250197191986117
ssVcom.abcxyzebook.reader.renxingderuodian
p73
(dp74
g10
F0.011642214860388073
ssVcom.snda.youni
p75
(dp76
g10
F0.0010411736867013725
sssS'node_dict_factory'
p77
c__builtin__
dict
p78
sS'edge_attr_dict_factory'
p79
g78
sS'succ'
p80
(dp81
g8
(dp82
Vcom.android.contacts
p83
(dp84
g10
F1.3
ssVcom.android.launcher
p85
(dp86
g10
F1.7
sssg11
(dp87
g8
(dp88
g10
I1
ssVcom.autonavi.minimap
p89
(dp90
g10
F0.90000000000000002
ssg15
(dp91
g10
F14.6
ssg17
(dp92
g10
F1.7
ssg19
(dp93
g10
F4.7000000000000002
ssg21
(dp94
g10
F12.5
ssg23
(dp95
g10
F8.5
ssg25
(dp96
g10
F19.999999999999996
ssg27
(dp97
g10
F3.7999999999999998
ssg29
(dp98
g10
I2
ssg31
(dp99
g10
F1.3
ssg33
(dp100
g10
F1.7
ssg35
(dp101
g10
F1.7
ssg37
(dp102
g10
F3.2999999999999998
ssg39
(dp103
g10
F3.3999999999999999
ssVcom.qihoo360.mobilesafe
p104
(dp105
g10
F22.699999999999999
ssg43
(dp106
g10
F5.2999999999999998
ssg45
(dp107
g10
I1
ssg47
(dp108
g10
F1.3
ssg51
(dp109
g10
F3.7000000000000002
ssVcom.tencent.mobileqq
p110
(dp111
g10
F36
ssg55
(dp112
g10
I2
ssg57
(dp113
g10
F2.6000000000000001
ssg59
(dp114
g10
F2.7000000000000002
ssg61
(dp115
g10
F3.7999999999999998
ssg63
(dp116
g10
F14.399999999999999
ssVcom.sohu.newsclient
p117
(dp118
g10
F7.1000000000000005
ssg67
(dp119
g10
F1.7
ssg69
(dp120
g10
F45.399999999999999
ssVcom.android.mms
p121
(dp122
g10
F10.199999999999999
ssg73
(dp123
g10
F5.4000000000000004
ssg75
(dp124
g10
F0.40000000000000002
sssg13
(dp125
Vcom.tencent.mobileqq
p126
(dp127
g10
F0.40000000000000002
ssVcom.tencent.mm
p128
(dp129
g10
F0.90000000000000002
ssVcom.smile.gifmaker
p130
(dp131
g10
I1
ssVcom.android.launcher
p132
(dp133
g10
F1.7
sssg15
(dp134
Vcom.sohu.newsclient
p135
(dp136
g10
I1
sssg17
(dp137
Vcom.abcxyzebook.reader.renxingderuodian
p138
(dp139
g10
F0.90000000000000002
ssVcom.tencent.mm
p140
(dp141
g10
I1
ssVcom.android.launcher
p142
(dp143
g10
I1
sssg19
(dp144
g89
(dp145
g10
I1
ssVcom.android.launcher
p146
(dp147
g10
I1
sssg21
(dp148
g63
(dp149
g10
F0.80000000000000004
ssg31
(dp150
g10
I1
ssVcom.tencent.androidqqmail
p151
(dp152
g10
F0.40000000000000002
ssVcom.android.launcher
p153
(dp154
g10
F10.5
ssVcom.sina.weibo
p155
(dp156
g10
F0.90000000000000002
ssVcom.tencent.mm
p157
(dp158
g10
F1.3
ssVcom.chaozh.iReaderFree15
p159
(dp160
g10
F0.90000000000000002
ssVcom.tencent.mobileqq
p161
(dp162
g10
F1.3
ssVcom.sohu.newsclient
p163
(dp164
g10
F0.90000000000000002
sssg23
(dp165
Vcom.tencent.mm
p166
(dp167
g10
F0.40000000000000002
ssVcom.tencent.mobileqq
p168
(dp169
g10
F1.3
ssVcom.sohu.newsclient
p170
(dp171
g10
F0.90000000000000002
ssVcom.android.launcher
p172
(dp173
g10
F8.0999999999999996
ssg151
(dp174
g10
F0.90000000000000002
sssg25
(dp175
Vcom.android.launcher
p176
(dp177
g10
F15.999999999999998
ssVcom.android.mms
p178
(dp179
g10
F0.69999999999999996
ssVcom.qihoo360.mobilesafe
p180
(dp181
g10
F1.3
ssVcom.netease.mobimail
p182
(dp183
g10
F1.3
ssg47
(dp184
g10
I1
ssVcom.alibaba.android.rimet
p185
(dp186
g10
F2.6000000000000001
ssVcom.tencent.mobileqq
p187
(dp188
g10
F0.90000000000000002
sssg27
(dp189
g23
(dp190
g10
F0.90000000000000002
ssVcom.android.contacts
p191
(dp192
g10
F0.90000000000000002
ssVcom.android.launcher
p193
(dp194
g10
F2.7000000000000002
sssg29
(dp195
g35
(dp196
g10
F0.90000000000000002
ssVcom.android.launcher
p197
(dp198
g10
F1.7
sssg31
(dp199
g157
(dp200
g10
F0.69999999999999996
ssVcom.android.launcher
p201
(dp202
g10
F0.90000000000000002
ssVcom.netease.mobimail
p203
(dp204
g10
I1
sssg33
(dp205
Vcom.tencent.mm
p206
(dp207
g10
F1.3
ssVcom.tencent.mobileqq
p208
(dp209
g10
F0.90000000000000002
ssVcom.android.launcher
p210
(dp211
g10
F2.7000000000000002
sssg35
(dp212
Vcom.android.launcher
p213
(dp214
g10
I1
sssg37
(dp215
Vcom.tencent.mobileqq
p216
(dp217
g10
F0.69999999999999996
ssVcom.android.mms
p218
(dp219
g10
F1.7000000000000002
ssVcom.tencent.mm
p220
(dp221
g10
F0.90000000000000002
ssVcom.qihoo360.mobilesafe
p222
(dp223
g10
F2.0999999999999996
ssVcom.android.launcher
p224
(dp225
g10
F2.7000000000000002
sssg39
(dp226
Vcom.android.deskclock
p227
(dp228
g10
F0.90000000000000002
ssVcom.tencent.mobileqq
p229
(dp230
g10
F0.69999999999999996
ssVcom.tencent.mm
p231
(dp232
g10
F2.2000000000000002
ssVcom.android.launcher
p233
(dp234
g10
F3.3999999999999999
ssg57
(dp235
g10
F0.69999999999999996
sssg41
(dp236
Vcom.stormreader.ebook.daomubiji
p237
(dp238
g10
I1
ssg11
(dp239
g10
F17.100000000000001
ssVcom.tencent.mobileqq
p240
(dp241
g10
F11.600000000000001
ssg33
(dp242
g10
F0.90000000000000002
ssg37
(dp243
g10
I2
ssVcom.android.mms
p244
(dp245
g10
F6.7000000000000002
ssVcom.duomi.android
p246
(dp247
g10
F0.69999999999999996
ssg43
(dp248
g10
F6.7999999999999998
ssg61
(dp249
g10
F0.90000000000000002
ssVcom.android.phone
p250
(dp251
g10
I1
ssVcom.snda.youni
p252
(dp253
g10
I1
ssg69
(dp254
g10
F5.3000000000000007
ssVcom.android.contacts
p255
(dp256
g10
F1.8999999999999999
ssg27
(dp257
g10
F1.3999999999999999
sssg43
(dp258
g61
(dp259
g10
F1.7
ssg110
(dp260
g10
F3.4000000000000004
ssVcom.qihoo360.mobilesafe
p261
(dp262
g10
F3.8999999999999999
ssVcom.android.launcher
p263
(dp264
g10
I1
sssg45
(dp265
g67
(dp266
g10
F0.90000000000000002
ssVcom.stormreader.ebook.daomubiji
p267
(dp268
g10
F0.90000000000000002
ssVcom.tencent.mobileqq
p269
(dp270
g10
F0.40000000000000002
ssVcom.dajie.official
p271
(dp272
g10
F0.40000000000000002
ssVcom.android.launcher
p273
(dp274
g10
F4.4000000000000004
sssg47
(dp275
g237
(dp276
g10
F0.90000000000000002
ssVcom.qihoo360.mobilesafe
p277
(dp278
g10
I3
ssg246
(dp279
g10
F0.40000000000000002
ssVcom.smile.gifmaker
p280
(dp281
g10
I1
ssVcom.android.launcher
p282
(dp283
g10
F5.6000000000000005
ssg185
(dp284
g10
F0.69999999999999996
ssVcom.android.contacts
p285
(dp286
g10
F6.3000000000000007
sssg49
(dp287
sg51
(dp288
Vcom.android.contacts
p289
(dp290
g10
F3.5
ssVcom.android.launcher
p291
(dp292
g10
F3.7000000000000002
ssg47
(dp293
g10
F0.69999999999999996
sssg53
(dp294
Vcom.android.gallery3d
p295
(dp296
g10
F1.3
ssg63
(dp297
g10
F0.90000000000000002
ssVcom.netease.mobimail
p298
(dp299
g10
F0.90000000000000002
ssg17
(dp300
g10
F0.90000000000000002
ssg23
(dp301
g10
F0.40000000000000002
ssg33
(dp302
g10
I1
ssg57
(dp303
g10
F0.40000000000000002
ssg121
(dp304
g10
F0.40000000000000002
ssVcom.dajie.official
p305
(dp306
g10
I1
ssg41
(dp307
g10
F8.2999999999999989
ssVcom.android.deskclock
p308
(dp309
g10
F0.90000000000000002
ssg43
(dp310
g10
F0.69999999999999996
ssg11
(dp311
g10
F38.099999999999994
ssg69
(dp312
g10
F12.500000000000002
ssVcom.android.contacts
p313
(dp314
g10
F0.90000000000000002
ssg27
(dp315
g10
F0.90000000000000002
ssg163
(dp316
g10
F0.40000000000000002
sssg55
(dp317
Vcom.stormreader.ebook.daomubiji
p318
(dp319
g10
F1.8
ssVcom.chaozh.iReaderFree15
p320
(dp321
g10
F0.40000000000000002
ssVcom.android.launcher
p322
(dp323
g10
F2.7000000000000002
sssg57
(dp324
Vcom.stormreader.ebook.daomubiji
p325
(dp326
g10
F0.40000000000000002
ssg75
(dp327
g10
F1.3
ssVcom.tencent.mm
p328
(dp329
g10
F1.8999999999999999
ssVcom.android.launcher
p330
(dp331
g10
F1.7
ssVcom.qihoo360.mobilesafe
p332
(dp333
g10
F0.69999999999999996
sssg59
(dp334
Vcom.android.launcher
p335
(dp336
g10
I1
sssg61
(dp337
Vcom.stormreader.ebook.daomubiji
p338
(dp339
g10
F0.90000000000000002
ssg59
(dp340
g10
F0.90000000000000002
ssVcom.qihoo360.mobilesafe
p341
(dp342
g10
F1.3999999999999999
ssVcom.huawei.hidisk
p343
(dp344
g10
F0.90000000000000002
ssVcom.android.launcher
p345
(dp346
g10
F3.4000000000000004
ssVcom.tencent.mobileqq
p347
(dp348
g10
F0.69999999999999996
sssg63
(dp349
Vcom.android.launcher
p350
(dp351
g10
F11.699999999999999
ssg59
(dp352
g10
F0.40000000000000002
ssg271
(dp353
g10
F0.90000000000000002
ssg227
(dp354
g10
F1.3
ssg320
(dp355
g10
F0.90000000000000002
ssVcom.tencent.mobileqq
p356
(dp357
g10
F1.3
ssg246
(dp358
g10
F0.90000000000000002
sssg65
(dp359
g15
(dp360
g10
F1.8999999999999999
ssVcom.tencent.mm
p361
(dp362
g10
F0.40000000000000002
ssVcom.tencent.mobileqq
p363
(dp364
g10
F0.90000000000000002
ssVcom.android.launcher
p365
(dp366
g10
F3.7000000000000002
sssg67
(dp367
g269
(dp368
g10
F0.90000000000000002
ssVcom.android.launcher
p369
(dp370
g10
F1.7
sssg69
(dp371
g325
(dp372
g10
F0.90000000000000002
ssVcom.netease.mobimail
p373
(dp374
g10
F3.1000000000000001
ssg57
(dp375
g10
I1
ssg71
(dp376
g10
F5.1000000000000005
ssg33
(dp377
g10
F0.40000000000000002
ssg37
(dp378
g10
F0.69999999999999996
ssg39
(dp379
g10
F0.90000000000000002
ssVcom.qihoo360.mobilesafe
p380
(dp381
g10
F7.0000000000000009
ssVcom.android.deskclock
p382
(dp383
g10
F1.2000000000000002
ssg17
(dp384
g10
F0.40000000000000002
ssg159
(dp385
g10
F0.40000000000000002
ssVcom.android.launcher
p386
(dp387
g10
F40.200000000000003
ssg73
(dp388
g10
F2.2000000000000002
ssg75
(dp389
g10
F2.3999999999999999
ssVcom.tencent.mobileqq
p390
(dp391
g10
F11.600000000000003
ssg31
(dp392
g10
F0.69999999999999996
sssg71
(dp393
Vcom.android.launcher
p394
(dp395
g10
F12.199999999999999
ssVcom.qihoo360.mobilesafe
p396
(dp397
g10
F6.3000000000000007
ssVcom.netease.mobimail
p398
(dp399
g10
F0.40000000000000002
ssVcom.abcxyzebook.reader.renxingderuodian
p400
(dp401
g10
F0.40000000000000002
ssVcom.tencent.mm
p402
(dp403
g10
F5.6000000000000005
ssVcom.android.contacts
p404
(dp405
g10
F1.3
ssVcom.eg.android.AlipayGphone
p406
(dp407
g10
F0.90000000000000002
sssg73
(dp408
Vcom.tencent.mm
p409
(dp410
g10
F1.3
ssVcom.android.mms
p411
(dp412
g10
F1.3
ssVcom.qihoo360.mobilesafe
p413
(dp414
g10
F0.69999999999999996
ssVcom.android.launcher
p415
(dp416
g10
F3.7000000000000002
sssg75
(dp417
Vcom.tencent.mobileqq
p418
(dp419
g10
F0.69999999999999996
ssVcom.tencent.mm
p420
(dp421
g10
F1.7
ssVcom.android.launcher
p422
(dp423
g10
F1.7000000000000002
ssg332
(dp424
g10
I1
ssssS'edge'
p425
g81
sS'graph'
p426
(dp427
sS'adjlist_dict_factory'
p428
g78
sS'adj'
p429
g81
sS'pred'
p430
(dp431
g8
(dp432
Vcom.android.launcher
p433
g88
ssg11
(dp434
g8
g86
sg13
g133
sVcom.UCMobile
p435
g143
sg19
g147
sg21
g154
sg23
g173
sg25
g177
sg27
g194
sVcom.qihoo.appstore
p436
g198
sg31
g202
sg33
g211
sg35
g214
sg37
g225
sg39
g234
sg41
g239
sg43
g264
sg45
g274
sg47
g283
sg51
g292
sg69
g387
sg55
g323
sg151
g331
sg59
g336
sg159
g346
sg63
g351
sg65
g366
sg67
g370
sg53
g311
sg121
g395
sg73
g416
sg75
g423
ssg13
(dp437
Vcom.smile.gifmaker
p438
g145
sVcom.android.launcher
p439
g90
ssg15
(dp440
g267
g354
sg65
g360
sVcom.tencent.mm
p441
g383
sg271
g228
sg365
g91
sg418
g309
ssg17
(dp442
Vcom.tencent.mobileqq
p443
g300
sVcom.tencent.mm
p444
g384
sVcom.android.launcher
p445
g92
ssg19
(dp446
g89
g131
sVcom.android.launcher
p447
g93
sVcom.android.phone
p448
g281
ssg21
(dp449
g31
g204
sg187
g299
sVcom.android.mms
p450
g399
sVcom.android.launcher
p451
g94
sVcom.tencent.mm
p452
g374
sg25
g183
ssg23
(dp453
Vcom.netease.mobimail
p454
g156
sVcom.tencent.mobileqq
p455
g301
sg27
g190
sVcom.android.launcher
p456
g95
ssg25
(dp457
g8
g84
sVcom.android.mms
p458
g405
sg277
g256
sVcom.android.launcher
p459
g96
sg47
g286
sg51
g290
sVcom.tencent.mobileqq
p460
g314
sg406
g192
ssg27
(dp461
g178
g407
sg455
g315
sVcom.qihoo360.mobilesafe
p462
g257
sVcom.android.launcher
p463
g97
ssg29
(dp464
Vcom.android.launcher
p465
g98
ssg31
(dp466
Vcom.tencent.mm
p467
g392
sVcom.netease.mobimail
p468
g150
sVcom.android.launcher
p469
g99
ssg33
(dp470
Vcom.tencent.mobileqq
p471
g302
sVcom.tencent.mm
p472
g377
sVcom.qihoo360.mobilesafe
p473
g242
sVcom.android.launcher
p474
g100
ssg35
(dp475
Vcom.android.launcher
p476
g101
sg436
g196
ssg37
(dp477
Vcom.tencent.mobileqq
p478
g296
sVcom.tencent.mm
p479
g378
sVcom.qihoo360.mobilesafe
p480
g243
sVcom.android.launcher
p481
g102
ssg39
(dp482
g267
g353
sVcom.nowcoder.app.florida
p483
g272
sVcom.tencent.mm
p484
g379
sVcom.android.launcher
p485
g103
sVcom.tencent.mobileqq
p486
g306
ssg41
(dp487
g11
g105
sg57
g333
sg53
g307
sg37
g223
sg71
g397
sg43
g262
sg61
g342
sVcom.android.phone
p488
g278
sg73
g414
sg75
g424
sg69
g381
sVcom.android.contacts
p489
g181
ssg43
(dp490
g61
g344
sg240
g310
sg11
g106
sg41
g248
ssg45
(dp491
Vcom.android.launcher
p492
g107
ssg47
(dp493
g51
g293
sVcom.qihoo360.mobilesafe
p494
g251
sg289
g184
sVcom.android.launcher
p495
g108
ssg49
(dp496
sg51
(dp497
g289
g186
sg495
g109
sg47
g284
ssg53
(dp498
Vcom.stormreader.ebook.daomubiji
p499
g357
sg11
g111
sg373
g162
sg67
g368
sVcom.sina.weibo
p500
g169
sg33
g209
sg37
g217
sg39
g230
sg41
g241
sg43
g260
sg45
g270
sg61
g348
sg13
g127
sg252
g419
sg69
g391
sg313
g188
sg163
g364
ssg55
(dp501
g237
g358
sVcom.qihoo360.mobilesafe
p502
g247
sVcom.android.launcher
p503
g112
sVcom.android.phone
p504
g279
ssg57
(dp505
Vcom.android.launcher
p506
g113
sg155
g174
sg305
g235
sg454
g152
sVcom.tencent.mm
p507
g375
sg486
g303
ssg59
(dp508
Vcom.stormreader.ebook.daomubiji
p509
g352
sg320
g340
sVcom.android.launcher
p510
g114
ssg61
(dp511
g509
g355
sVcom.android.launcher
p512
g115
sVcom.qihoo360.mobilesafe
p513
g249
sVcom.huawei.hidisk
p514
g259
sg398
g160
sg402
g385
sg246
g321
ssg63
(dp515
Vcom.android.launcher
p516
g116
sg373
g149
sg151
g326
sg166
g372
sg502
g238
sg483
g268
sg159
g339
sg504
g276
sg161
g297
sg55
g319
ssg65
(dp517
Vcom.android.deskclock
p518
g136
sVcom.sina.weibo
p519
g171
sg187
g316
sg298
g164
sVcom.android.launcher
p520
g118
ssg67
(dp521
g45
g266
sg492
g119
ssg69
(dp522
g155
g167
sg163
g362
sg468
g158
sg57
g329
sg121
g403
sg33
g207
sg37
g221
sg39
g232
sVcom.qihoo360.mobilesafe
p523
g254
sg17
g141
sVcom.android.launcher
p524
g120
sg13
g129
sg400
g410
sg75
g421
sVcom.tencent.mobileqq
p525
g312
sg31
g200
ssg71
(dp526
Vcom.tencent.mm
p527
g376
sg295
g219
sg396
g245
sVcom.android.launcher
p528
g122
sg73
g412
sVcom.tencent.mobileqq
p529
g304
sVcom.android.contacts
p530
g179
ssg73
(dp531
Vcom.android.mms
p532
g401
sVcom.tencent.mm
p533
g388
sVcom.android.launcher
p534
g123
sg435
g139
ssg75
(dp535
g507
g389
sg332
g253
sg506
g124
sg57
g327
sssb.