ccopy_reg
_reconstructor
p1
(cnetworkx.classes.digraph
DiGraph
p2
c__builtin__
object
p3
NtRp4
(dp5
S'node'
p6
(dp7
Vcom.android.browser
p8
(dp9
S'weight'
p10
F0.01621389490048554
ssVcom.sankuai.movie
p11
(dp12
g10
F0.00039461128725776782
ssVone.hh.oneclient
p13
(dp14
g10
F0.0020803027094808456
ssVim.yixin
p15
(dp16
g10
F0.010974868623315339
ssVcom.mxtech.videoplayer.ad
p17
(dp18
g10
F0.0018002707739239396
ssVcom.android.deskclock
p19
(dp20
g10
F0.00011778757354848586
ssVcom.meizu.media.camera
p21
(dp22
g10
F0.00029515640998141983
ssVcom.tencent.qqpim
p23
(dp24
g10
F3.8498662171489539e-05
ssVcom.tencent.android.qqdownloader
p25
(dp26
g10
F0.0005857296458948052
ssVcom.hupu.games
p27
(dp28
g10
F0.008884941248291622
ssVcom.hujiang.dict
p29
(dp30
g10
F1.7416061458530984e-05
ssVcom.sina.weibo
p31
(dp32
g10
F0.062695071346270712
ssVcom.eg.android.AlipayGphone
p33
(dp34
g10
F0.00091480154397968001
ssVcom.youku.phone
p35
(dp36
g10
F0.00068472620576434965
ssVcom.zhihu.android
p37
(dp38
g10
F0.055721772001756271
ssVcn.wps.moffice_eng
p39
(dp40
g10
F3.5290440323865412e-05
ssVcom.alibaba.android.babylon
p41
(dp42
g10
F1.5582791831317194e-05
ssVcom.android.packageinstaller
p43
(dp44
g10
F0.0020803027094808456
ssVcom.sankuai.meituan
p45
(dp46
g10
F0.00021495086379081659
ssVcom.jingdong.app.mall
p47
(dp48
g10
F0.00010266309912397211
ssVcom.taobao.taobao
p49
(dp50
g10
F7.7455641749782529e-05
ssVcom.android.video
p51
(dp52
g10
F0.0018671851153172427
ssVcom.wumii.android.mimi
p53
(dp54
g10
F0.0004266935057340091
ssVcom.android.safe
p55
(dp56
g10
F0.0019368493611513667
ssVcom.meizu.mpay
p57
(dp58
g10
F4.5831740680344691e-07
ssVcom.android.phone
p59
(dp60
g10
F0.010470719475831548
ssVcom.meizu.media.gallery
p61
(dp62
g10
F0.00096888299798248681
ssVcom.android.htmlviewer
p63
(dp64
g10
F1.4207839610906855e-05
ssVcom.alibaba.android.rimet
p65
(dp66
g10
F1.3749522204103407e-06
ssVcom.tencent.mm
p67
(dp68
g10
F0.2810049434115498
ssVme.quqi
p69
(dp70
g10
F0.010021568417164171
ssVcom.comingx.athit
p71
(dp72
g10
F0.0011627512610603448
ssVcom.android.calculator
p73
(dp74
g10
F2.7040727001403368e-05
ssVcom.renren.mobile.android
p75
(dp76
g10
F0.0019240164737608701
ssVcom.kugou.android
p77
(dp78
g10
F0.014987437519879517
ssVcom.baidu.input
p79
(dp80
g10
F1.6041109238120642e-05
ssVcom.dianping.v1
p81
(dp82
g10
F4.6290058087148141e-05
ssVcom.android.fileexplorer
p83
(dp84
g10
F0.00031898891513519904
ssVcom.Qunar
p85
(dp86
g10
F3.4373805510258515e-05
ssVcom.kingsoft
p87
(dp88
g10
F8.98302117334756e-05
ssVcom.baoxue.player
p89
(dp90
g10
F7.5164054715765299e-05
ssVcom.android.email
p91
(dp92
g10
F0.00019524321529826839
ssVcom.android.wallpaper.livepicker
p93
(dp94
g10
F9.1663481360689382e-07
ssVcom.tencent.mobileqq
p95
(dp96
g10
F0.45433096199907053
ssVcom.MobileTicket
p97
(dp98
g10
F1.3749522204103407e-06
ssVcom.meizu.notepaper
p99
(dp100
g10
F0.0030166451715802874
ssVcom.zhihu.daily.android
p101
(dp102
g10
F0.0039025727189313506
ssVcom.immomo.momo
p103
(dp104
g10
F0.001968014944814001
ssVcom.android.calendar
p105
(dp106
g10
F0.0001242040172437341
ssVcom.android.settings
p107
(dp108
g10
F0.00055043920557093973
ssVcom.android.mms
p109
(dp110
g10
F0.0065236899684402638
ssVcom.baidu.BaiduMap
p111
(dp112
g10
F0.00044456788459934352
ssVcom.meizu.blockservice
p113
(dp114
g10
F3.5748757730668857e-05
ssVcom.qzone
p115
(dp116
g10
F0.0036830386810724992
ssVcom.dotamax.app
p117
(dp118
g10
F0.035466892525484739
ssVcom.meizu.media.music
p119
(dp120
g10
F1.8332696272137876e-06
ssVcom.meizu.flyme.weather
p121
(dp122
g10
F0.00041294398352990566
sssS'node_dict_factory'
p123
c__builtin__
dict
p124
sS'edge_attr_dict_factory'
p125
g124
sS'succ'
p126
(dp127
g8
(dp128
Vcom.comingx.athit
p129
(dp130
g10
F1.7000000000000002
ssVcom.android.deskclock
p131
(dp132
g10
F1.7
ssVcom.sina.weibo
p133
(dp134
g10
F9.0000000000000018
ssVcom.eg.android.AlipayGphone
p135
(dp136
g10
F0.69999999999999996
ssVcom.zhihu.android
p137
(dp138
g10
F12.5
ssg49
(dp139
g10
F2.7000000000000002
ssVcom.wumii.android.mimi
p140
(dp141
g10
F0.90000000000000002
ssVcom.android.phone
p142
(dp143
g10
F1.8999999999999999
ssVcom.tencent.mm
p144
(dp145
g10
F105.70000000000013
ssVim.yixin
p146
(dp147
g10
F4.4000000000000004
ssg73
(dp148
g10
I1
ssVcom.renren.mobile.android
p149
(dp150
g10
F0.69999999999999996
ssVcom.meizu.media.camera
p151
(dp152
g10
F1.3
ssVcom.baidu.input
p153
(dp154
g10
I1
ssVcom.meizu.notepaper
p155
(dp156
g10
F1.6000000000000001
ssVcom.tencent.mobileqq
p157
(dp158
g10
F66.299999999999997
ssVcom.android.mms
p159
(dp160
g10
I3
ssVcom.baidu.BaiduMap
p161
(dp162
g10
I1
ssVcom.meizu.blockservice
p163
(dp164
g10
F0.90000000000000002
ssVcom.qzone
p165
(dp166
g10
F1.1000000000000001
ssVcom.dotamax.app
p167
(dp168
g10
F3.8999999999999999
ssVcom.meizu.flyme.weather
p169
(dp170
g10
I1
sssg11
(dp171
Vcom.meizu.media.camera
p172
(dp173
g10
I1
ssVcom.tencent.mm
p174
(dp175
g10
I1
ssVcom.tencent.mobileqq
p176
(dp177
g10
I1
sssg13
(dp178
Vcom.tencent.mm
p179
(dp180
g10
F6.6000000000000005
ssVcom.android.deskclock
p181
(dp182
g10
I2
ssVcom.qzone
p183
(dp184
g10
I1
ssVcom.dotamax.app
p185
(dp186
g10
F0.69999999999999996
ssVcom.sina.weibo
p187
(dp188
g10
F1.6000000000000001
ssVcom.tencent.mobileqq
p189
(dp190
g10
F0.90000000000000002
sssg15
(dp191
Vcom.kugou.android
p192
(dp193
g10
I1
ssVcom.zhihu.android
p194
(dp195
g10
F14.500000000000002
ssVcom.meizu.notepaper
p196
(dp197
g10
F7.1000000000000005
ssVcom.comingx.athit
p198
(dp199
g10
F3.2999999999999998
ssVcom.zhihu.daily.android
p200
(dp201
g10
F1.7
ssVcom.android.browser
p202
(dp203
g10
F3.4999999999999996
ssg41
(dp204
g10
F0.90000000000000002
ssVcom.sina.weibo
p205
(dp206
g10
F29.899999999999984
ssVcom.android.settings
p207
(dp208
g10
F1.8999999999999999
ssVcom.android.mms
p209
(dp210
g10
F6.5
ssVcom.jingdong.app.mall
p211
(dp212
g10
I1
ssVcom.android.deskclock
p213
(dp214
g10
I1
ssVcom.qzone
p215
(dp216
g10
F3.9999999999999996
ssVcom.dotamax.app
p217
(dp218
g10
F5.5
ssVcom.renren.mobile.android
p219
(dp220
g10
F4.1000000000000005
ssVcom.meizu.media.gallery
p221
(dp222
g10
F3.7999999999999998
ssVcom.hupu.games
p223
(dp224
g10
F2.7999999999999998
ssVcom.tencent.mm
p225
(dp226
g10
F122.9000000000002
ssVcom.eg.android.AlipayGphone
p227
(dp228
g10
F0.90000000000000002
ssVcom.tencent.mobileqq
p229
(dp230
g10
F95.100000000000094
sssg17
(dp231
Vcom.tencent.mobileqq
p232
(dp233
g10
F0.90000000000000002
ssVim.yixin
p234
(dp235
g10
F0.69999999999999996
ssVcom.android.fileexplorer
p236
(dp237
g10
I3
ssVcom.qzone
p238
(dp239
g10
F0.69999999999999996
ssVcom.dotamax.app
p240
(dp241
g10
F1.3
ssVcom.tencent.mm
p242
(dp243
g10
F1.3
sssg19
(dp244
Vcom.zhihu.android
p245
(dp246
g10
F3.7000000000000002
ssVcom.zhihu.daily.android
p247
(dp248
g10
F0.90000000000000002
ssVcom.android.browser
p249
(dp250
g10
I1
ssVcom.tencent.mm
p251
(dp252
g10
F18.399999999999999
ssVim.yixin
p253
(dp254
g10
F3.8999999999999999
ssVcom.android.mms
p255
(dp256
g10
I4
ssVcom.qzone
p257
(dp258
g10
F1.3
ssVcom.meizu.media.camera
p259
(dp260
g10
F1.8999999999999999
ssVcom.renren.mobile.android
p261
(dp262
g10
F2.2000000000000002
ssVcom.hupu.games
p263
(dp264
g10
F1.3999999999999999
ssVcom.meizu.flyme.weather
p265
(dp266
g10
I20
ssVcom.sina.weibo
p267
(dp268
g10
F6.2000000000000002
ssVcom.tencent.mobileqq
p269
(dp270
g10
F10.700000000000001
sssg21
(dp271
Vcom.zhihu.android
p272
(dp273
g10
I1
ssVcom.meizu.notepaper
p274
(dp275
g10
F0.90000000000000002
ssVcom.comingx.athit
p276
(dp277
g10
I2
ssVcom.tencent.mm
p278
(dp279
g10
F25.199999999999989
ssVcom.sina.weibo
p280
(dp281
g10
F1.6000000000000001
ssVim.yixin
p282
(dp283
g10
F1.6000000000000001
ssVcom.dotamax.app
p284
(dp285
g10
F1.6000000000000001
ssVcom.tencent.android.qqdownloader
p286
(dp287
g10
F0.69999999999999996
ssVcom.meizu.media.gallery
p288
(dp289
g10
F17.099999999999998
ssVcom.hupu.games
p290
(dp291
g10
F2.0999999999999996
ssVcom.tencent.mobileqq
p292
(dp293
g10
F10.500000000000002
ssVcom.android.safe
p294
(dp295
g10
F1.7
sssg23
(dp296
Vcom.sina.weibo
p297
(dp298
g10
F1.7
ssVcom.tencent.mm
p299
(dp300
g10
F0.90000000000000002
ssVcom.tencent.mobileqq
p301
(dp302
g10
F3.6999999999999997
sssg25
(dp303
Vcom.android.fileexplorer
p304
(dp305
g10
F0.90000000000000002
ssVcom.tencent.mm
p306
(dp307
g10
F8.9000000000000004
ssg43
(dp308
g10
F26.299999999999994
ssVcom.sina.weibo
p309
(dp310
g10
F4.3999999999999995
ssVcom.qzone
p311
(dp312
g10
F5.7000000000000002
ssVcom.dotamax.app
p313
(dp314
g10
F0.90000000000000002
ssVcom.android.phone
p315
(dp316
g10
F0.40000000000000002
ssg89
(dp317
g10
F0.90000000000000002
ssVcom.hupu.games
p318
(dp319
g10
I1
ssVcom.tencent.mobileqq
p320
(dp321
g10
F8.8000000000000007
ssg69
(dp322
g10
F0.40000000000000002
sssg27
(dp323
Vcom.kugou.android
p324
(dp325
g10
F0.69999999999999996
ssVcom.zhihu.android
p326
(dp327
g10
F8.2000000000000011
ssg274
(dp328
g10
F0.69999999999999996
ssg276
(dp329
g10
F0.90000000000000002
ssVcom.tencent.android.qqdownloader
p330
(dp331
g10
I1
ssVcom.android.browser
p332
(dp333
g10
F2.7999999999999998
ssVcom.tencent.mm
p334
(dp335
g10
F44.999999999999993
ssVim.yixin
p336
(dp337
g10
F5.0999999999999996
ssg259
(dp338
g10
F2.7000000000000002
ssVcom.android.mms
p339
(dp340
g10
F1.6000000000000001
ssVcom.baidu.BaiduMap
p341
(dp342
g10
F0.40000000000000002
ssVcom.android.deskclock
p343
(dp344
g10
F1.3999999999999999
ssVcom.qzone
p345
(dp346
g10
F1.6000000000000001
ssVcom.dotamax.app
p347
(dp348
g10
F8.6000000000000014
ssVcom.tencent.mobileqq
p349
(dp350
g10
F34.899999999999991
ssVcom.android.phone
p351
(dp352
g10
F0.40000000000000002
ssVcom.sina.weibo
p353
(dp354
g10
F10.5
ssg33
(dp355
g10
F2.7000000000000002
ssVcom.meizu.flyme.weather
p356
(dp357
g10
F0.69999999999999996
sssg29
(dp358
sg31
(dp359
Vcom.android.browser
p360
(dp361
g10
F12.799999999999999
ssVone.hh.oneclient
p362
(dp363
g10
F2.3999999999999999
ssVim.yixin
p364
(dp365
g10
F18.999999999999996
ssg343
(dp366
g10
F6.9000000000000004
ssVcom.meizu.media.camera
p367
(dp368
g10
F1.3
ssVcom.tencent.qqpim
p369
(dp370
g10
F0.90000000000000002
ssVcom.tencent.android.qqdownloader
p371
(dp372
g10
F2.2999999999999998
ssVcom.hupu.games
p373
(dp374
g10
F18.299999999999997
ssVcom.eg.android.AlipayGphone
p375
(dp376
g10
F2.9999999999999996
ssVcom.zhihu.android
p377
(dp378
g10
F86.900000000000091
ssVcom.android.packageinstaller
p379
(dp380
g10
F0.90000000000000002
ssVcom.jingdong.app.mall
p381
(dp382
g10
F0.40000000000000002
ssg53
(dp383
g10
F2.2999999999999998
ssVcom.android.safe
p384
(dp385
g10
F3.5999999999999996
ssVcom.android.phone
p386
(dp387
g10
F8.4000000000000004
ssg65
(dp388
g10
I1
ssVcom.tencent.mm
p389
(dp390
g10
F355.09999999999883
ssVme.quqi
p391
(dp392
g10
F0.40000000000000002
ssVcom.comingx.athit
p393
(dp394
g10
F6.0000000000000009
ssg75
(dp395
g10
F22.699999999999996
ssVcom.kugou.android
p396
(dp397
g10
I1
ssVcom.baidu.input
p398
(dp399
g10
F0.69999999999999996
ssVcom.tencent.mobileqq
p400
(dp401
g10
F224.60000000000011
ssg99
(dp402
g10
F9.6000000000000032
ssVcom.immomo.momo
p403
(dp404
g10
F2.2000000000000002
ssVcom.zhihu.daily.android
p405
(dp406
g10
F16.199999999999996
ssg105
(dp407
g10
F0.90000000000000002
ssVcom.android.settings
p408
(dp409
g10
I3
ssVcom.android.mms
p410
(dp411
g10
F11.100000000000001
ssVcom.meizu.blockservice
p412
(dp413
g10
F0.40000000000000002
ssVcom.qzone
p414
(dp415
g10
F14.599999999999998
ssVcom.dotamax.app
p416
(dp417
g10
F30.299999999999986
ssg169
(dp418
g10
F2.6000000000000001
sssg33
(dp419
Vcom.zhihu.android
p420
(dp421
g10
F0.40000000000000002
ssVcom.sina.weibo
p422
(dp423
g10
F4.2999999999999998
ssVcom.sankuai.meituan
p424
(dp425
g10
I1
ssVcom.android.mms
p426
(dp427
g10
F2.7000000000000002
ssVcom.android.phone
p428
(dp429
g10
F1.3999999999999999
ssg65
(dp430
g10
F0.69999999999999996
ssVcom.tencent.mm
p431
(dp432
g10
F19.5
ssVcom.tencent.mobileqq
p433
(dp434
g10
F14.500000000000002
sssg35
(dp435
Vcom.android.fileexplorer
p436
(dp437
g10
F3.7000000000000002
ssVcom.android.video
p438
(dp439
g10
F0.90000000000000002
ssVcom.tencent.mm
p440
(dp441
g10
F0.90000000000000002
ssVcom.android.packageinstaller
p442
(dp443
g10
F0.40000000000000002
ssVcom.tencent.android.qqdownloader
p444
(dp445
g10
F0.69999999999999996
sssg37
(dp446
Vcom.android.browser
p447
(dp448
g10
F9.4000000000000004
ssVim.yixin
p449
(dp450
g10
F9.3999999999999986
ssVcom.android.deskclock
p451
(dp452
g10
F3.3999999999999999
ssg367
(dp453
g10
F1.6000000000000001
ssVcom.tencent.android.qqdownloader
p454
(dp455
g10
F2.0999999999999996
ssVcom.hupu.games
p456
(dp457
g10
F7.7000000000000002
ssVcom.sina.weibo
p458
(dp459
g10
F39.29999999999999
ssg135
(dp460
g10
F4.2999999999999998
ssVcom.android.packageinstaller
p461
(dp462
g10
F1.3
ssVcom.wumii.android.mimi
p463
(dp464
g10
F0.69999999999999996
ssVcom.android.phone
p465
(dp466
g10
F3.3999999999999999
ssVcom.tencent.mm
p467
(dp468
g10
F232.60000000000008
ssg71
(dp469
g10
F2.2000000000000002
ssVcom.renren.mobile.android
p470
(dp471
g10
F3.8999999999999995
ssVcom.kugou.android
p472
(dp473
g10
F1.8999999999999999
ssVcom.baidu.input
p474
(dp475
g10
F0.90000000000000002
ssVcom.android.email
p476
(dp477
g10
F0.40000000000000002
ssVcom.meizu.notepaper
p478
(dp479
g10
F6.2000000000000002
ssg101
(dp480
g10
F9.5
ssVcom.immomo.momo
p481
(dp482
g10
F2.7000000000000002
ssVcom.tencent.mobileqq
p483
(dp484
g10
F153.00000000000017
ssVcom.android.mms
p485
(dp486
g10
F5.2000000000000002
ssg412
(dp487
g10
I1
ssVcom.qzone
p488
(dp489
g10
F4
ssg416
(dp490
g10
F10.300000000000001
ssVcom.meizu.flyme.weather
p491
(dp492
g10
F4.5
sssg39
(dp493
Vcom.meizu.media.gallery
p494
(dp495
g10
F1.3
ssVcom.tencent.mm
p496
(dp497
g10
F4.9000000000000004
ssVcom.sina.weibo
p498
(dp499
g10
F0.69999999999999996
ssVcom.tencent.mobileqq
p500
(dp501
g10
F1.7
sssg41
(dp502
sg43
(dp503
Vcom.comingx.athit
p504
(dp505
g10
I1
ssVcom.tencent.mm
p506
(dp507
g10
F7
ssVcom.sina.weibo
p508
(dp509
g10
F2
ssVim.yixin
p510
(dp511
g10
F0.40000000000000002
ssg304
(dp512
g10
I1
ssVcom.dotamax.app
p513
(dp514
g10
F0.40000000000000002
ssVcom.tencent.android.qqdownloader
p515
(dp516
g10
F16.899999999999999
ssg89
(dp517
g10
I1
ssg320
(dp518
g10
F6.2000000000000002
ssg69
(dp519
g10
F1.7
sssg45
(dp520
Vcom.sina.weibo
p521
(dp522
g10
F0.69999999999999996
ssVcom.tencent.mobileqq
p523
(dp524
g10
F1.7
ssVcom.tencent.mm
p525
(dp526
g10
F1.8999999999999999
ssVcom.eg.android.AlipayGphone
p527
(dp528
g10
I1
ssVcom.zhihu.android
p529
(dp530
g10
F0.40000000000000002
sssg47
(dp531
Vcom.sina.weibo
p532
(dp533
g10
F0.69999999999999996
ssVcom.renren.mobile.android
p534
(dp535
g10
F0.40000000000000002
ssVcom.tencent.mm
p536
(dp537
g10
F4
ssVcom.tencent.mobileqq
p538
(dp539
g10
F0.90000000000000002
sssg49
(dp540
Vcom.android.browser
p541
(dp542
g10
F3.4000000000000004
ssVcom.tencent.mm
p543
(dp544
g10
F1.3
ssg153
(dp545
g10
F0.90000000000000002
sssg51
(dp546
g35
(dp547
g10
F2.7000000000000002
ssVcom.tencent.mobileqq
p548
(dp549
g10
F2
ssVcom.android.fileexplorer
p550
(dp551
g10
F12.199999999999999
ssVcom.qzone
p552
(dp553
g10
F1.3
ssVcom.dotamax.app
p554
(dp555
g10
F0.69999999999999996
ssVcom.tencent.mm
p556
(dp557
g10
F2.5
sssg53
(dp558
Vone.hh.oneclient
p559
(dp560
g10
F0.69999999999999996
ssVcom.zhihu.android
p561
(dp562
g10
F1.3
ssVcom.tencent.mm
p563
(dp564
g10
F10
ssVcom.android.mms
p565
(dp566
g10
I1
ssVcom.dotamax.app
p567
(dp568
g10
F0.90000000000000002
ssVcom.sina.weibo
p569
(dp570
g10
F2.7000000000000002
ssVcom.tencent.mobileqq
p571
(dp572
g10
F1.7
sssg55
(dp573
Vcom.meizu.notepaper
p574
(dp575
g10
F0.40000000000000002
ssVcom.sina.weibo
p576
(dp577
g10
F3.2999999999999998
ssVcom.dotamax.app
p578
(dp579
g10
I1
ssVcom.sankuai.movie
p580
(dp581
g10
F0.90000000000000002
ssVcom.renren.mobile.android
p582
(dp583
g10
F0.69999999999999996
ssVcom.tencent.mm
p584
(dp585
g10
F10.700000000000001
ssVcom.tencent.mobileqq
p586
(dp587
g10
F11.199999999999999
sssg57
(dp588
Vcom.tencent.mm
p589
(dp590
g10
F1.6000000000000001
ssVcom.eg.android.AlipayGphone
p591
(dp592
g10
I1
sssg59
(dp593
Vcom.zhihu.android
p594
(dp595
g10
F3.6000000000000001
ssVcom.meizu.notepaper
p596
(dp597
g10
F9
ssg45
(dp598
g10
F1.8999999999999999
ssVcom.android.browser
p599
(dp600
g10
F6
ssVcom.tencent.mm
p601
(dp602
g10
F151.50000000000023
ssVcom.renren.mobile.android
p603
(dp604
g10
I2
ssg15
(dp605
g10
F2.8999999999999999
ssg472
(dp606
g10
F0.90000000000000002
ssVcom.android.mms
p607
(dp608
g10
F39.899999999999984
ssVcom.meizu.blockservice
p609
(dp610
g10
F0.69999999999999996
ssVcom.android.deskclock
p611
(dp612
g10
F1.3999999999999999
ssVcom.android.safe
p613
(dp614
g10
F0.40000000000000002
ssVcom.qzone
p615
(dp616
g10
F3.7999999999999998
ssVcom.dotamax.app
p617
(dp618
g10
F3.3999999999999999
ssg57
(dp619
g10
I1
ssVcom.android.settings
p620
(dp621
g10
F1.8
ssVcom.hupu.games
p622
(dp623
g10
I1
ssVcom.android.email
p624
(dp625
g10
F1.7
ssVcom.sina.weibo
p626
(dp627
g10
F8.1000000000000014
ssg591
(dp628
g10
F0.90000000000000002
ssVcom.tencent.mobileqq
p629
(dp630
g10
F127.80000000000013
sssg61
(dp631
g21
(dp632
g10
F18.099999999999998
ssVim.yixin
p633
(dp634
g10
F5.2000000000000002
ssVcom.android.mms
p635
(dp636
g10
F1.7
ssVcom.meizu.blockservice
p637
(dp638
g10
F0.90000000000000002
ssVcom.dotamax.app
p639
(dp640
g10
F0.40000000000000002
ssVcom.tencent.mm
p641
(dp642
g10
F27.499999999999993
ssVcom.tencent.mobileqq
p643
(dp644
g10
F20.099999999999998
sssg63
(dp645
Vcom.android.fileexplorer
p646
(dp647
g10
I1
sssg65
(dp648
Vcom.sina.weibo
p649
(dp650
g10
I1
sssg67
(dp651
Vcom.android.browser
p652
(dp653
g10
F100.70000000000006
ssg11
(dp654
g10
F1.7
ssVone.hh.oneclient
p655
(dp656
g10
F4.0999999999999996
ssVim.yixin
p657
(dp658
g10
F130.00000000000028
ssVcom.mxtech.videoplayer.ad
p659
(dp660
g10
F0.40000000000000002
ssVcom.android.deskclock
p661
(dp662
g10
F21.399999999999995
ssg21
(dp663
g10
F11.599999999999998
ssVcom.tencent.qqpim
p664
(dp665
g10
F0.90000000000000002
ssg25
(dp666
g10
F11
ssVcom.hupu.games
p667
(dp668
g10
F72.300000000000026
ssg609
(dp669
g10
F6.5000000000000009
ssg31
(dp670
g10
F620.19999999999743
ssg33
(dp671
g10
F15.799999999999999
ssg35
(dp672
g10
F0.69999999999999996
ssVcom.zhihu.android
p673
(dp674
g10
F244.10000000000002
ssVcn.wps.moffice_eng
p675
(dp676
g10
F6.8000000000000007
ssg41
(dp677
g10
F0.40000000000000002
ssg43
(dp678
g10
F7.0000000000000009
ssVcom.sankuai.meituan
p679
(dp680
g10
I1
ssg47
(dp681
g10
F5.4000000000000004
ssg49
(dp682
g10
F2
ssg51
(dp683
g10
F4.1000000000000005
ssg53
(dp684
g10
F12.500000000000002
ssg384
(dp685
g10
F7.1000000000000005
ssg57
(dp686
g10
F0.40000000000000002
ssVcom.android.phone
p687
(dp688
g10
F99.200000000000131
ssg61
(dp689
g10
F26.399999999999991
ssg65
(dp690
g10
F1.3
ssVcom.tencent.mobileqq
p691
(dp692
g10
F2733.200000000023
ssVme.quqi
p693
(dp694
g10
F3.8999999999999999
ssg71
(dp695
g10
F31.699999999999992
ssg75
(dp696
g10
F48.499999999999979
ssVcom.kugou.android
p697
(dp698
g10
F42.999999999999986
ssg398
(dp699
g10
F9.1999999999999993
ssg81
(dp700
g10
F1.3
ssg550
(dp701
g10
F10.000000000000002
ssg85
(dp702
g10
F0.90000000000000002
ssg87
(dp703
g10
F2.7000000000000002
ssg89
(dp704
g10
F1.3999999999999999
ssg91
(dp705
g10
F5.7999999999999998
ssg93
(dp706
g10
F0.69999999999999996
ssg478
(dp707
g10
F106.30000000000015
ssVcom.immomo.momo
p708
(dp709
g10
F25.299999999999994
ssg101
(dp710
g10
F27.499999999999989
ssg105
(dp711
g10
I3
ssg107
(dp712
g10
F20.499999999999993
ssVcom.android.mms
p713
(dp714
g10
F186.30000000000018
ssg111
(dp715
g10
F3.2999999999999998
ssg29
(dp716
g10
F1.8999999999999999
ssg115
(dp717
g10
F102.60000000000009
ssg416
(dp718
g10
F149.00000000000011
ssg119
(dp719
g10
F2.1000000000000001
ssVcom.meizu.flyme.weather
p720
(dp721
g10
F19.300000000000001
sssg69
(dp722
Vcom.android.browser
p723
(dp724
g10
F0.40000000000000002
ssVcom.tencent.mobileqq
p725
(dp726
g10
F7.2000000000000002
ssVcom.android.packageinstaller
p727
(dp728
g10
I1
ssVcom.comingx.athit
p729
(dp730
g10
F0.90000000000000002
ssVcom.android.mms
p731
(dp732
g10
F1.3
ssVcom.qzone
p733
(dp734
g10
I1
ssVcom.android.safe
p735
(dp736
g10
F1.6000000000000001
ssVcom.android.phone
p737
(dp738
g10
F0.69999999999999996
ssVcom.tencent.mm
p739
(dp740
g10
F4.5
ssVcom.android.settings
p741
(dp742
g10
F1.8999999999999999
sssg71
(dp743
Vcom.zhihu.android
p744
(dp745
g10
F0.69999999999999996
ssVcom.meizu.notepaper
p746
(dp747
g10
F4.2999999999999998
ssg723
(dp748
g10
F0.90000000000000002
ssVcom.tencent.mm
p749
(dp750
g10
F21.299999999999994
ssVcom.android.packageinstaller
p751
(dp752
g10
I1
ssg510
(dp753
g10
F0.69999999999999996
ssVcom.android.mms
p754
(dp755
g10
F2
ssVcom.sina.weibo
p756
(dp757
g10
F2.2000000000000002
ssVcom.meizu.media.camera
p758
(dp759
g10
I1
ssg294
(dp760
g10
F1.3
ssVcom.hupu.games
p761
(dp762
g10
F0.90000000000000002
ssVcom.tencent.mobileqq
p763
(dp764
g10
F24.099999999999994
ssVcom.dotamax.app
p765
(dp766
g10
F0.40000000000000002
sssg73
(dp767
Vcom.android.browser
p768
(dp769
g10
F0.90000000000000002
ssg142
(dp770
g10
I1
sssg75
(dp771
g360
(dp772
g10
F2.3999999999999999
ssVcom.comingx.athit
p773
(dp774
g10
F0.40000000000000002
ssVcom.zhihu.daily.android
p775
(dp776
g10
F1.3999999999999999
ssVcom.zhihu.android
p777
(dp778
g10
F13.400000000000002
ssVcom.sina.weibo
p779
(dp780
g10
F24.199999999999996
ssVim.yixin
p781
(dp782
g10
F4.1999999999999993
ssg485
(dp783
g10
F0.80000000000000004
ssVcom.android.deskclock
p784
(dp785
g10
F0.90000000000000002
ssg165
(dp786
g10
F4.1000000000000005
ssVcom.meizu.media.camera
p787
(dp788
g10
F0.69999999999999996
ssg416
(dp789
g10
I1
ssVcom.tencent.android.qqdownloader
p790
(dp791
g10
F1.3
ssVcom.android.phone
p792
(dp793
g10
I1
ssVcom.hupu.games
p794
(dp795
g10
F2.7000000000000002
ssVcom.tencent.mm
p796
(dp797
g10
F25.199999999999992
ssVcom.eg.android.AlipayGphone
p798
(dp799
g10
F1.1000000000000001
ssg400
(dp800
g10
F21.79999999999999
sssg77
(dp801
Vcom.android.browser
p802
(dp803
g10
I2
ssVcom.meizu.notepaper
p804
(dp805
g10
F1.7000000000000002
ssVim.yixin
p806
(dp807
g10
F5.2000000000000002
ssVcom.zhihu.android
p808
(dp809
g10
F0.90000000000000002
ssVcom.sina.weibo
p810
(dp811
g10
F6.9000000000000004
ssVcom.tencent.mm
p812
(dp813
g10
F102.8000000000001
ssVcom.android.mms
p814
(dp815
g10
F5.5
ssg341
(dp816
g10
I1
ssVcom.android.fileexplorer
p817
(dp818
g10
F1.1000000000000001
ssVcom.qzone
p819
(dp820
g10
F2.6000000000000001
ssVcom.dotamax.app
p821
(dp822
g10
F2.5
ssVcom.android.settings
p823
(dp824
g10
F0.90000000000000002
ssVcom.tencent.mobileqq
p825
(dp826
g10
F88.800000000000054
ssVcom.android.phone
p827
(dp828
g10
F0.40000000000000002
ssVcom.eg.android.AlipayGphone
p829
(dp830
g10
F1.3
ssVcom.meizu.flyme.weather
p831
(dp832
g10
F1.7
sssg79
(dp833
Vcom.zhihu.android
p834
(dp835
g10
F1.8
ssVcom.meizu.notepaper
p836
(dp837
g10
F2.2999999999999998
ssVcom.android.browser
p838
(dp839
g10
I1
ssVcom.tencent.mobileqq
p840
(dp841
g10
F2
ssVim.yixin
p842
(dp843
g10
I1
ssVcom.taobao.taobao
p844
(dp845
g10
F0.90000000000000002
ssVcom.tencent.mm
p846
(dp847
g10
F5.8000000000000007
sssg81
(dp848
Vcom.tencent.mobileqq
p849
(dp850
g10
F0.90000000000000002
ssVcom.tencent.mm
p851
(dp852
g10
I1
sssg83
(dp853
g35
(dp854
g10
F4.4000000000000004
ssg548
(dp855
g10
F8.7000000000000011
ssg442
(dp856
g10
F2
ssg234
(dp857
g10
F1.3
ssg659
(dp858
g10
I1
ssVcom.android.mms
p859
(dp860
g10
F0.69999999999999996
ssVcom.android.video
p861
(dp862
g10
F9.0999999999999996
ssVcom.qzone
p863
(dp864
g10
F3
ssVcom.dotamax.app
p865
(dp866
g10
F6.1000000000000005
ssg444
(dp867
g10
F3
ssVcom.android.settings
p868
(dp869
g10
I1
ssg89
(dp870
g10
F3.1000000000000001
ssg556
(dp871
g10
F14.600000000000001
sssg85
(dp872
sg87
(dp873
Vcom.zhihu.android
p874
(dp875
g10
F1.1000000000000001
ssVim.yixin
p876
(dp877
g10
F1.3
ssVcom.tencent.mm
p878
(dp879
g10
I1
ssVcom.dotamax.app
p880
(dp881
g10
F1.7
sssg89
(dp882
Vcom.android.fileexplorer
p883
(dp884
g10
F2.3999999999999999
ssVcom.android.packageinstaller
p885
(dp886
g10
F0.69999999999999996
ssVcom.tencent.mm
p887
(dp888
g10
F0.69999999999999996
ssVcom.dotamax.app
p889
(dp890
g10
F1.3
ssVcom.tencent.android.qqdownloader
p891
(dp892
g10
F0.90000000000000002
sssg91
(dp893
Vcom.meizu.notepaper
p894
(dp895
g10
I1
ssVcom.tencent.mm
p896
(dp897
g10
F9.9000000000000004
ssVim.yixin
p898
(dp899
g10
F1.3999999999999999
ssVcom.android.mms
p900
(dp901
g10
F1.8999999999999999
ssVcom.meizu.blockservice
p902
(dp903
g10
F0.90000000000000002
ssVcom.qzone
p904
(dp905
g10
F0.69999999999999996
ssVcom.android.safe
p906
(dp907
g10
F0.69999999999999996
ssVcom.android.phone
p908
(dp909
g10
F1.7
ssVcom.tencent.mobileqq
p910
(dp911
g10
F6.8000000000000007
sssg93
(dp912
Vcom.android.settings
p913
(dp914
g10
F1.7
ssVim.yixin
p915
(dp916
g10
F0.90000000000000002
sssg95
(dp917
Vcom.android.browser
p918
(dp919
g10
F79.900000000000034
ssVcom.sankuai.movie
p920
(dp921
g10
F3.2999999999999998
ssVone.hh.oneclient
p922
(dp923
g10
F1.8999999999999999
ssVim.yixin
p924
(dp925
g10
F142.40000000000023
ssg659
(dp926
g10
F0.90000000000000002
ssVcom.android.deskclock
p927
(dp928
g10
F18
ssg172
(dp929
g10
F10.600000000000001
ssVcom.tencent.qqpim
p930
(dp931
g10
F2.3999999999999999
ssg371
(dp932
g10
F7.6000000000000014
ssVcom.hupu.games
p933
(dp934
g10
F47.29999999999999
ssg609
(dp935
g10
F6.7000000000000002
ssg31
(dp936
g10
F331.19999999999902
ssVcom.eg.android.AlipayGphone
p937
(dp938
g10
F8.5
ssVcom.youku.phone
p939
(dp940
g10
F3.8999999999999999
ssVcom.zhihu.android
p941
(dp942
g10
F154.70000000000024
ssg39
(dp943
g10
F3.6999999999999997
ssg41
(dp944
g10
F1.7
ssg379
(dp945
g10
F5.8000000000000007
ssg47
(dp946
g10
F2.2000000000000002
ssVcom.taobao.taobao
p947
(dp948
g10
F1.8999999999999999
ssVcom.android.video
p949
(dp950
g10
F3.8000000000000003
ssVcom.wumii.android.mimi
p951
(dp952
g10
F6.0000000000000009
ssg55
(dp953
g10
F8.6000000000000014
ssg57
(dp954
g10
F0.69999999999999996
ssVcom.android.phone
p955
(dp956
g10
F118.20000000000017
ssg494
(dp957
g10
F17.299999999999997
ssg93
(dp958
g10
F1.3
ssVcom.tencent.mm
p959
(dp960
g10
F3383.0000000000177
ssg69
(dp961
g10
F8.5
ssg71
(dp962
g10
F27.999999999999986
ssg73
(dp963
g10
F0.90000000000000002
ssg75
(dp964
g10
F33.899999999999991
ssVcom.kugou.android
p965
(dp966
g10
F72.600000000000009
ssVcom.baidu.input
p967
(dp968
g10
F1.6000000000000001
ssg81
(dp969
g10
I1
ssg83
(dp970
g10
F15.5
ssg85
(dp971
g10
I1
ssg91
(dp972
g10
F7.9000000000000004
ssg99
(dp973
g10
F88.200000000000074
ssVcom.immomo.momo
p974
(dp975
g10
F13
ssg405
(dp976
g10
F8.1999999999999993
ssVcom.android.calendar
p977
(dp978
g10
I3
ssg620
(dp979
g10
F13.800000000000001
ssg109
(dp980
g10
F153.60000000000025
ssVcom.baidu.BaiduMap
p981
(dp982
g10
F4.7000000000000002
ssg29
(dp983
g10
F0.69999999999999996
ssg215
(dp984
g10
F91.100000000000094
ssVcom.dotamax.app
p985
(dp986
g10
F72.099999999999994
ssg119
(dp987
g10
F0.90000000000000002
ssg831
(dp988
g10
F11.6
sssg97
(dp989
Vim.yixin
p990
(dp991
g10
I1
sssg99
(dp992
g652
(dp993
g10
F3.4999999999999996
ssVim.yixin
p994
(dp995
g10
F2.3999999999999999
ssVcom.zhihu.android
p996
(dp997
g10
F2.4000000000000004
ssVcom.tencent.mm
p998
(dp999
g10
F90.200000000000074
ssg751
(dp1000
g10
F0.69999999999999996
ssVcom.comingx.athit
p1001
(dp1002
g10
F5
ssVcom.android.mms
p1003
(dp1004
g10
F9.0000000000000018
ssg967
(dp1005
g10
I1
ssVcom.qzone
p1006
(dp1007
g10
F0.90000000000000002
ssVcom.dotamax.app
p1008
(dp1009
g10
F2.3999999999999999
ssVcom.android.phone
p1010
(dp1011
g10
I1
ssVcom.sina.weibo
p1012
(dp1013
g10
F5.4000000000000004
ssVcom.tencent.mobileqq
p1014
(dp1015
g10
F68.900000000000006
sssg101
(dp1016
Vcom.zhihu.android
p1017
(dp1018
g10
F3.7000000000000002
ssg99
(dp1019
g10
I1
ssg922
(dp1020
g10
F3.7999999999999998
ssVcom.tencent.mobileqq
p1021
(dp1022
g10
F4.6999999999999993
ssVcom.sina.weibo
p1023
(dp1024
g10
F2.1000000000000001
ssVim.yixin
p1025
(dp1026
g10
I1
ssVcom.android.deskclock
p1027
(dp1028
g10
F2.2000000000000002
ssg53
(dp1029
g10
F3.2999999999999998
ssVcom.tencent.mm
p1030
(dp1031
g10
F18.199999999999999
sssg103
(dp1032
Vcom.zhihu.android
p1033
(dp1034
g10
F3.3999999999999999
ssVim.yixin
p1035
(dp1036
g10
I1
ssVcom.sina.weibo
p1037
(dp1038
g10
F1.7
ssVcom.tencent.mm
p1039
(dp1040
g10
F23.699999999999999
ssVcom.android.mms
p1041
(dp1042
g10
I1
ssVcom.baidu.BaiduMap
p1043
(dp1044
g10
I1
ssVcom.tencent.mobileqq
p1045
(dp1046
g10
F16.300000000000001
sssg105
(dp1047
Vcom.tencent.mobileqq
p1048
(dp1049
g10
I4
ssVcom.tencent.mm
p1050
(dp1051
g10
F5.8000000000000007
ssVcom.android.phone
p1052
(dp1053
g10
I1
sssg107
(dp1054
g1017
(dp1055
g10
F0.69999999999999996
ssVcom.zhihu.daily.android
p1056
(dp1057
g10
F2.6000000000000001
ssg97
(dp1058
g10
I1
ssVcom.tencent.mobileqq
p1059
(dp1060
g10
F13.800000000000002
ssVcom.sina.weibo
p1061
(dp1062
g10
F3.1000000000000001
ssVim.yixin
p1063
(dp1064
g10
F9.0999999999999996
ssg565
(dp1065
g10
F2.5
ssVcom.android.deskclock
p1066
(dp1067
g10
I1
ssVcom.android.fileexplorer
p1068
(dp1069
g10
F4.0999999999999996
ssg861
(dp1070
g10
F0.40000000000000002
ssVcom.wumii.android.mimi
p1071
(dp1072
g10
F0.90000000000000002
ssVcom.meizu.media.camera
p1073
(dp1074
g10
I1
ssg889
(dp1075
g10
F0.40000000000000002
ssg286
(dp1076
g10
F0.40000000000000002
ssVcom.renren.mobile.android
p1077
(dp1078
g10
F0.69999999999999996
ssVcom.baoxue.player
p1079
(dp1080
g10
F1.3
ssg93
(dp1081
g10
I1
ssVcom.qzone
p1082
(dp1083
g10
F3.7000000000000002
ssVcom.tencent.mm
p1084
(dp1085
g10
F30.899999999999984
ssVcom.eg.android.AlipayGphone
p1086
(dp1087
g10
F1.3
ssVme.quqi
p1088
(dp1089
g10
I1
sssg109
(dp1090
Vcom.zhihu.android
p1091
(dp1092
g10
F2
ssg476
(dp1093
g10
F3.1999999999999997
ssVcom.dotamax.app
p1094
(dp1095
g10
F3.9999999999999996
ssVcom.android.browser
p1096
(dp1097
g10
F3.8999999999999999
ssg267
(dp1098
g10
F11.9
ssVcom.renren.mobile.android
p1099
(dp1100
g10
F1.6000000000000001
ssVim.yixin
p1101
(dp1102
g10
F9.5999999999999996
ssVcom.kugou.android
p1103
(dp1104
g10
I1
ssVcom.meizu.notepaper
p1105
(dp1106
g10
F6.9000000000000004
ssg163
(dp1107
g10
F3.7000000000000002
ssVcom.qzone
p1108
(dp1109
g10
F3.2999999999999998
ssVcom.meizu.media.camera
p1110
(dp1111
g10
F0.90000000000000002
ssVcom.android.safe
p1112
(dp1113
g10
F3.5
ssg57
(dp1114
g10
F0.90000000000000002
ssg386
(dp1115
g10
F47.699999999999996
ssVcom.meizu.media.gallery
p1116
(dp1117
g10
F0.69999999999999996
ssVcom.hupu.games
p1118
(dp1119
g10
I1
ssg81
(dp1120
g10
F0.69999999999999996
ssVcom.tencent.mm
p1121
(dp1122
g10
F187.70000000000007
ssg937
(dp1123
g10
F2
ssVcom.tencent.mobileqq
p1124
(dp1125
g10
F124.30000000000025
sssg111
(dp1126
Vcom.android.browser
p1127
(dp1128
g10
F1.8999999999999999
ssVcom.tencent.mm
p1129
(dp1130
g10
F3.6999999999999997
ssVcom.tencent.mobileqq
p1131
(dp1132
g10
F2.0999999999999996
sssg113
(dp1133
Vcom.tencent.mm
p1134
(dp1135
g10
F13.200000000000001
ssVim.yixin
p1136
(dp1137
g10
F0.90000000000000002
ssVcom.android.mms
p1138
(dp1139
g10
F5.5
ssg1112
(dp1140
g10
F0.40000000000000002
ssVcom.tencent.mobileqq
p1141
(dp1142
g10
F7.9000000000000012
sssg115
(dp1143
Vcom.kugou.android
p1144
(dp1145
g10
I1
ssVcom.zhihu.android
p1146
(dp1147
g10
F3.4999999999999996
ssVcom.meizu.notepaper
p1148
(dp1149
g10
F1.8999999999999999
ssg1068
(dp1150
g10
F2
ssVcom.tencent.mm
p1151
(dp1152
g10
F87.300000000000054
ssg603
(dp1153
g10
F3.5
ssg781
(dp1154
g10
F8.5999999999999996
ssVcom.android.mms
p1155
(dp1156
g10
F2.4999999999999996
ssVcom.android.safe
p1157
(dp1158
g10
F0.90000000000000002
ssg861
(dp1159
g10
F1.1000000000000001
ssVcom.dotamax.app
p1160
(dp1161
g10
F8.9000000000000021
ssVcom.tencent.android.qqdownloader
p1162
(dp1163
g10
F8.0999999999999996
ssVcom.android.phone
p1164
(dp1165
g10
F5.4000000000000004
ssVcom.hupu.games
p1166
(dp1167
g10
F1.7
ssg391
(dp1168
g10
F1.6000000000000001
ssVcom.sina.weibo
p1169
(dp1170
g10
F16.300000000000004
ssVcom.android.packageinstaller
p1171
(dp1172
g10
F1.3
ssVcom.tencent.mobileqq
p1173
(dp1174
g10
F67.899999999999991
sssg117
(dp1175
Vcom.android.browser
p1176
(dp1177
g10
F0.40000000000000002
ssg876
(dp1178
g10
F9.1000000000000014
ssg659
(dp1179
g10
F0.69999999999999996
ssVcom.android.deskclock
p1180
(dp1181
g10
F3.1000000000000001
ssg664
(dp1182
g10
I1
ssVcom.tencent.android.qqdownloader
p1183
(dp1184
g10
F2.1000000000000001
ssg456
(dp1185
g10
F3.2999999999999998
ssVcom.sina.weibo
p1186
(dp1187
g10
F16.600000000000001
ssVcom.zhihu.android
p1188
(dp1189
g10
F17.799999999999997
ssg675
(dp1190
g10
I1
ssVcom.android.packageinstaller
p1191
(dp1192
g10
F0.90000000000000002
ssVcom.android.safe
p1193
(dp1194
g10
I1
ssVcom.android.phone
p1195
(dp1196
g10
I3
ssVcom.tencent.mm
p1197
(dp1198
g10
F110.40000000000016
ssg582
(dp1199
g10
F1.3
ssVcom.kugou.android
p1200
(dp1201
g10
I2
ssVcom.android.fileexplorer
p1202
(dp1203
g10
F3.6999999999999997
ssVcom.baoxue.player
p1204
(dp1205
g10
F1.3
ssVcom.tencent.mobileqq
p1206
(dp1207
g10
F72.400000000000048
ssVcom.meizu.notepaper
p1208
(dp1209
g10
I1
ssVcom.zhihu.daily.android
p1210
(dp1211
g10
F4
ssVcom.android.calendar
p1212
(dp1213
g10
I1
ssVcom.android.settings
p1214
(dp1215
g10
F2.3999999999999999
ssVcom.android.mms
p1216
(dp1217
g10
F5.0999999999999996
ssg863
(dp1218
g10
F4.5
sssg119
(dp1219
Vcom.meizu.media.gallery
p1220
(dp1221
g10
I1
ssVim.yixin
p1222
(dp1223
g10
F0.69999999999999996
ssVcom.tencent.mm
p1224
(dp1225
g10
F1.3
sssg121
(dp1226
Vcom.zhihu.android
p1227
(dp1228
g10
F0.69999999999999996
ssg781
(dp1229
g10
F7.9000000000000012
ssg149
(dp1230
g10
F2.8999999999999999
ssVcom.tencent.mm
p1231
(dp1232
g10
F36.499999999999993
ssg19
(dp1233
g10
F7.4000000000000004
ssg165
(dp1234
g10
F4
ssg790
(dp1235
g10
F0.69999999999999996
ssVcom.android.email
p1236
(dp1237
g10
I1
ssVcom.sina.weibo
p1238
(dp1239
g10
F8.9000000000000021
ssVcom.tencent.mobileqq
p1240
(dp1241
g10
F13.300000000000002
ssssS'edge'
p1242
g127
sS'graph'
p1243
(dp1244
sS'adjlist_dict_factory'
p1245
g124
sS'adj'
p1246
g127
sS'pred'
p1247
(dp1248
g8
(dp1249
Vcom.kugou.android
p1250
g803
sVcom.zhihu.android
p1251
g448
sg478
g993
sg510
g203
sg729
g748
sg73
g769
sVcom.tencent.mm
p1252
g653
sVcom.sina.weibo
p1253
g361
sVcom.android.phone
p1254
g600
sVcom.android.mms
p1255
g1097
sg153
g839
sg49
g542
sg161
g1128
sg131
g250
sVcom.dotamax.app
p1256
g1177
sVcom.renren.mobile.android
p1257
g772
sVcom.hupu.games
p1258
g333
sVcom.tencent.mobileqq
p1259
g919
sVme.quqi
p1260
g724
ssg11
(dp1261
Vcom.tencent.mobileqq
p1262
g921
sVcom.tencent.mm
p1263
g654
sg906
g581
ssg13
(dp1264
Vcom.tencent.mobileqq
p1265
g923
sVcom.sina.weibo
p1266
g363
sVcom.wumii.android.mimi
p1267
g560
sVcom.tencent.mm
p1268
g656
sVcom.zhihu.daily.android
p1269
g1020
ssg15
(dp1270
Vcom.android.browser
p1271
g147
sg504
g753
sg659
g235
sVcom.android.deskclock
p1272
g254
sg223
g337
sVcom.sina.weibo
p1273
g365
sVcom.zhihu.android
p1274
g450
sg751
g511
sg59
g605
sVcom.meizu.media.gallery
p1275
g634
sg93
g916
sVcom.tencent.mm
p1276
g658
sg149
g782
sVcom.meizu.media.camera
p1277
g283
sg79
g843
sVcom.android.fileexplorer
p1278
g857
sg87
g877
sg91
g899
sVcom.tencent.mobileqq
p1279
g925
sVcom.kugou.android
p1280
g807
sg97
g991
sVcom.meizu.notepaper
p1281
g995
sVcom.immomo.momo
p1282
g1036
sVcom.zhihu.daily.android
p1283
g1026
sVcom.android.settings
p1284
g1064
sVcom.android.mms
p1285
g1102
sVcom.meizu.blockservice
p1286
g1137
sg165
g1154
sg880
g1178
sg119
g1223
sg169
g1229
ssg17
(dp1287
Vcom.tencent.mobileqq
p1288
g926
sVcom.tencent.mm
p1289
g660
sVcom.dotamax.app
p1290
g1179
sg1278
g858
ssg19
(dp1291
Vone.hh.oneclient
p1292
g182
sVcom.zhihu.daily.android
p1293
g1028
sVcom.zhihu.android
p1294
g452
sVcom.android.settings
p1295
g1067
sVcom.tencent.mm
p1296
g662
sVim.yixin
p1297
g214
sVcom.android.browser
p1298
g132
sVcom.renren.mobile.android
p1299
g785
sVcom.dotamax.app
p1300
g1181
sVcom.tencent.mobileqq
p1301
g928
sVcom.android.phone
p1302
g612
sg1166
g344
sVcom.sina.weibo
p1303
g366
sVcom.meizu.flyme.weather
p1304
g1233
ssg21
(dp1305
Vcom.android.browser
p1306
g152
sVcom.zhihu.android
p1307
g453
sVcom.tencent.mm
p1308
g663
sVcom.sina.weibo
p1309
g368
sVcom.comingx.athit
p1310
g759
sVcom.android.mms
p1311
g1111
sVcom.renren.mobile.android
p1312
g788
sVcom.android.deskclock
p1313
g260
sg920
g173
sVcom.android.settings
p1314
g1074
sg61
g632
sVcom.hupu.games
p1315
g338
sg1262
g929
ssg23
(dp1316
g297
g370
sVcom.tencent.mm
p1317
g665
sg301
g931
sVcom.dotamax.app
p1318
g1182
ssg25
(dp1319
Vcom.zhihu.android
p1320
g455
sVcom.youku.phone
p1321
g445
sVcom.sina.weibo
p1322
g372
sg1191
g516
sVcom.tencent.mm
p1323
g666
sg1073
g287
sVcom.renren.mobile.android
p1324
g791
sVcom.android.fileexplorer
p1325
g867
sVcom.qzone
p1326
g1163
sg117
g1184
sg1314
g1076
sg1204
g892
sg318
g331
sVcom.tencent.mobileqq
p1327
g932
sVcom.meizu.flyme.weather
p1328
g1235
ssg27
(dp1329
Vcom.zhihu.android
p1330
g457
sg773
g762
sVcom.tencent.mm
p1331
g668
sVim.yixin
p1332
g224
sVcom.meizu.media.camera
p1333
g291
sVcom.android.mms
p1334
g1119
sg927
g264
sg488
g1167
sVcom.dotamax.app
p1335
g1185
sVcom.tencent.android.qqdownloader
p1336
g319
sVcom.renren.mobile.android
p1337
g795
sVcom.sina.weibo
p1338
g374
sVcom.android.phone
p1339
g623
sg483
g934
ssg29
(dp1340
Vcom.tencent.mm
p1341
g716
sVcom.tencent.mobileqq
p1342
g983
ssg31
(dp1343
g922
g188
sVcom.android.browser
p1344
g134
sg657
g206
sVcom.android.deskclock
p1345
g268
sg259
g281
sg23
g298
sg454
g310
sVcom.hupu.games
p1346
g354
sg375
g423
sVcom.zhihu.android
p1347
g459
sVcn.wps.moffice_eng
p1348
g499
sg1171
g509
sg45
g522
sVcom.jingdong.app.mall
p1349
g533
sVcom.wumii.android.mimi
p1350
g570
sg384
g577
sVcom.android.phone
p1351
g627
sg65
g650
sVcom.tencent.mm
p1352
g670
sVcom.comingx.athit
p1353
g757
sVcom.renren.mobile.android
p1354
g780
sVcom.kugou.android
p1355
g811
sg691
g936
sg196
g1013
sVcom.immomo.momo
p1356
g1038
sg1293
g1024
sVcom.android.settings
p1357
g1062
sVcom.android.mms
p1358
g1098
sVcom.qzone
p1359
g1170
sVcom.dotamax.app
p1360
g1187
sg121
g1239
ssg33
(dp1361
Vcom.zhihu.android
p1362
g460
sVcom.sankuai.meituan
p1363
g528
sVcom.android.browser
p1364
g136
sg1331
g671
sVcom.renren.mobile.android
p1365
g799
sVim.yixin
p1366
g228
sVcom.kugou.android
p1367
g830
sVcom.android.mms
p1368
g1123
sg57
g592
sVcom.android.settings
p1369
g1087
sg667
g355
sVcom.sina.weibo
p1370
g376
sVcom.android.phone
p1371
g628
sVcom.tencent.mobileqq
p1372
g938
ssg35
(dp1373
g550
g854
sg51
g547
sVcom.tencent.mm
p1374
g672
sVcom.tencent.mobileqq
p1375
g940
ssg37
(dp1376
Vcom.android.browser
p1377
g138
sg449
g195
sg927
g246
sg27
g327
sVcom.sina.weibo
p1378
g378
sVcom.eg.android.AlipayGphone
p1379
g421
sg45
g530
sVcom.wumii.android.mimi
p1380
g562
sVcom.android.phone
p1381
g595
sVcom.tencent.mm
p1382
g674
sVcom.comingx.athit
p1383
g745
sVcom.renren.mobile.android
p1384
g778
sg259
g273
sg398
g835
sVcom.kingsoft
p1385
g875
sVcom.tencent.mobileqq
p1386
g942
sVcom.kugou.android
p1387
g809
sVcom.meizu.notepaper
p1388
g997
sg403
g1034
sg1056
g1018
sVcom.android.settings
p1389
g1055
sVcom.android.mms
p1390
g1092
sg165
g1147
sVcom.dotamax.app
p1391
g1189
sVcom.meizu.flyme.weather
p1392
g1228
ssg39
(dp1393
Vcom.tencent.mm
p1394
g676
sVcom.tencent.mobileqq
p1395
g943
sVcom.dotamax.app
p1396
g1190
ssg41
(dp1397
Vcom.tencent.mobileqq
p1398
g944
sg994
g204
sVcom.tencent.mm
p1399
g677
ssg43
(dp1400
Vcom.zhihu.android
p1401
g462
sg1105
g1000
sg1001
g752
sg1321
g443
sg1322
g380
sg1323
g678
sVcom.android.fileexplorer
p1402
g856
sVcom.qzone
p1403
g1172
sg117
g1192
sg25
g308
sg1204
g886
sg1327
g945
sg69
g728
ssg45
(dp1404
Vcom.tencent.mm
p1405
g680
sg527
g425
sVcom.android.phone
p1406
g598
ssg47
(dp1407
Vcom.tencent.mm
p1408
g681
sg532
g382
sVim.yixin
p1409
g212
sVcom.tencent.mobileqq
p1410
g946
ssg49
(dp1411
Vcom.android.browser
p1412
g139
sVcom.tencent.mm
p1413
g682
sg153
g845
sVcom.tencent.mobileqq
p1414
g948
ssg51
(dp1415
g939
g439
sVcom.android.settings
p1416
g1070
sg1068
g862
sVcom.qzone
p1417
g1159
sg1374
g683
sVcom.tencent.mobileqq
p1418
g950
ssg53
(dp1419
g1017
g464
sVcom.zhihu.daily.android
p1420
g1029
sVcom.android.browser
p1421
g141
sg458
g383
sVcom.android.settings
p1422
g1072
sVcom.tencent.mm
p1423
g684
sVcom.tencent.mobileqq
p1424
g952
ssg55
(dp1425
g391
g736
sVcom.sina.weibo
p1426
g385
sg1310
g760
sg1138
g1113
sg113
g1140
sVcom.qzone
p1427
g1158
sg758
g295
sVcom.dotamax.app
p1428
g1194
sVcom.android.phone
p1429
g614
sVcom.android.email
p1430
g907
sVcom.tencent.mm
p1431
g685
sVcom.tencent.mobileqq
p1432
g953
ssg57
(dp1433
Vcom.tencent.mobileqq
p1434
g954
sVcom.tencent.mm
p1435
g686
sVcom.android.mms
p1436
g1114
sg1371
g619
ssg59
(dp1437
g1144
g828
sVcom.zhihu.android
p1438
g466
sVcom.meizu.notepaper
p1439
g1011
sVcom.android.browser
p1440
g143
sVcom.android.calendar
p1441
g1053
sg267
g387
sVcom.tencent.mm
p1442
g688
sg1358
g1115
sg73
g770
sVcom.qzone
p1443
g1165
sVcom.dotamax.app
p1444
g1196
sVcom.tencent.android.qqdownloader
p1445
g316
sVcom.renren.mobile.android
p1446
g793
sVcom.hupu.games
p1447
g352
sg624
g909
sVcom.tencent.mobileqq
p1448
g956
sVcom.eg.android.AlipayGphone
p1449
g429
sVme.quqi
p1450
g738
ssg61
(dp1451
g39
g495
sg1395
g957
sg633
g222
sVcom.meizu.media.camera
p1452
g289
sg1311
g1117
sg119
g1221
sg1308
g689
ssg63
(dp1453
sg65
(dp1454
Vcom.sina.weibo
p1455
g388
sVcom.tencent.mm
p1456
g690
sVcom.eg.android.AlipayGphone
p1457
g430
ssg67
(dp1458
g8
g145
sg580
g175
sg13
g180
sg657
g226
sg659
g243
sVcom.android.deskclock
p1459
g252
sg1333
g279
sg369
g300
sVcom.tencent.android.qqdownloader
p1460
g307
sg27
g335
sg31
g390
sg375
g432
sg1321
g441
sg37
g468
sg675
g497
sVcom.android.packageinstaller
p1461
g507
sg45
g526
sg1349
g537
sg49
g544
sVcom.android.video
p1462
g557
sg1350
g564
sVcom.android.safe
p1463
g585
sg57
g590
sVcom.android.phone
p1464
g602
sg288
g642
sg691
g960
sg69
g740
sg71
g750
sVcom.renren.mobile.android
p1465
g797
sg77
g813
sg398
g847
sg81
g852
sVcom.android.fileexplorer
p1466
g871
sg87
g879
sg1079
g888
sg91
g897
sg478
g999
sg708
g1040
sg101
g1031
sg105
g1051
sg107
g1085
sVcom.android.mms
p1467
g1122
sg161
g1130
sVcom.meizu.blockservice
p1468
g1135
sg115
g1152
sg416
g1198
sg119
g1225
sg121
g1232
ssg69
(dp1469
Vcom.tencent.mm
p1470
g694
sVcom.android.packageinstaller
p1471
g519
sVcom.qzone
p1472
g1168
sVcom.tencent.android.qqdownloader
p1473
g322
sg741
g1089
sVcom.sina.weibo
p1474
g392
sVcom.tencent.mobileqq
p1475
g961
ssg71
(dp1476
Vcom.zhihu.android
p1477
g469
sg1105
g1002
sVcom.android.browser
p1478
g130
sVcom.tencent.mm
p1479
g695
sg751
g505
sVim.yixin
p1480
g199
sg367
g277
sg1312
g774
sVcom.hupu.games
p1481
g329
sg1260
g730
sVcom.sina.weibo
p1482
g394
sVcom.tencent.mobileqq
p1483
g962
ssg73
(dp1484
g1440
g148
sVcom.tencent.mobileqq
p1485
g963
ssg75
(dp1486
Vcom.zhihu.android
p1487
g471
sg1428
g1199
sVcom.android.settings
p1488
g1078
sVcom.android.browser
p1489
g150
sg31
g395
sVim.yixin
p1490
g220
sVcom.android.mms
p1491
g1100
sg381
g535
sVcom.android.deskclock
p1492
g262
sVcom.qzone
p1493
g1153
sg1193
g583
sg465
g604
sg169
g1230
sg959
g696
sg691
g964
ssg77
(dp1494
g594
g473
sg812
g698
sVcom.sina.weibo
p1495
g397
sg806
g193
sVcom.android.mms
p1496
g1104
sVcom.qzone
p1497
g1145
sVcom.dotamax.app
p1498
g1201
sg1381
g606
sVcom.hupu.games
p1499
g325
sVcom.tencent.mobileqq
p1500
g966
ssg79
(dp1501
Vcom.android.browser
p1502
g154
sVcom.meizu.notepaper
p1503
g1005
sVcom.zhihu.android
p1504
g475
sVcom.tencent.mobileqq
p1505
g968
sVcom.tencent.mm
p1506
g699
sVcom.taobao.taobao
p1507
g545
sVcom.sina.weibo
p1508
g399
ssg81
(dp1509
Vcom.android.mms
p1510
g1120
sVcom.tencent.mm
p1511
g700
sVcom.tencent.mobileqq
p1512
g969
ssg83
(dp1513
Vcom.kugou.android
p1514
g818
sg35
g437
sg95
g970
sg891
g305
sg17
g237
sg51
g551
sg1417
g1150
sg889
g1203
sg1079
g884
sg1416
g1069
sg63
g647
sg1374
g701
sg885
g512
ssg85
(dp1515
Vcom.tencent.mobileqq
p1516
g971
sVcom.tencent.mm
p1517
g702
ssg87
(dp1518
Vcom.tencent.mm
p1519
g703
ssg89
(dp1520
Vcom.android.settings
p1521
g1080
sg442
g517
sg1402
g870
sg889
g1205
sg444
g317
sg440
g704
ssg91
(dp1522
Vcom.zhihu.android
p1523
g477
sVcom.tencent.mm
p1524
g705
sg485
g1093
sVcom.android.phone
p1525
g625
sVcom.tencent.mobileqq
p1526
g972
sVcom.meizu.flyme.weather
p1527
g1237
ssg93
(dp1528
Vcom.tencent.mm
p1529
g706
sVcom.tencent.mobileqq
p1530
g958
sVcom.android.settings
p1531
g1081
ssg95
(dp1532
g652
g158
sg11
g177
sVone.hh.oneclient
p1533
g190
sVim.yixin
p1534
g230
sg659
g233
sVcom.android.deskclock
p1535
g270
sg23
g302
sVcom.tencent.android.qqdownloader
p1536
g321
sVcom.hupu.games
p1537
g350
sVcom.sina.weibo
p1538
g401
sVcom.eg.android.AlipayGphone
p1539
g434
sVcom.zhihu.android
p1540
g484
sg39
g501
sg1461
g518
sg1363
g524
sg381
g539
sg861
g549
sVcom.wumii.android.mimi
p1541
g572
sg55
g587
sVcom.renren.mobile.android
p1542
g800
sg494
g644
sg1352
g692
sg69
g726
sg71
g764
sVcom.meizu.media.camera
p1543
g293
sVcom.android.phone
p1544
g630
sVcom.kugou.android
p1545
g826
sg398
g841
sg81
g850
sVcom.android.fileexplorer
p1546
g855
sg1236
g911
sg196
g1015
sg974
g1046
sVcom.zhihu.daily.android
p1547
g1022
sVcom.android.calendar
p1548
g1049
sg1357
g1060
sVcom.android.mms
p1549
g1125
sg161
g1132
sg609
g1142
sVcom.qzone
p1550
g1174
sVcom.dotamax.app
p1551
g1207
sVcom.meizu.flyme.weather
p1552
g1241
ssg97
(dp1553
Vcom.android.settings
p1554
g1058
ssg99
(dp1555
Vcom.kugou.android
p1556
g805
sVcom.zhihu.android
p1557
g479
sVcom.comingx.athit
p1558
g747
sg405
g1019
sg1176
g156
sVcom.tencent.mm
p1559
g707
sVim.yixin
p1560
g197
sVcom.android.mms
p1561
g1106
sg967
g837
sVcom.android.safe
p1562
g575
sVcom.qzone
p1563
g1149
sg367
g275
sVcom.dotamax.app
p1564
g1209
sVcom.android.phone
p1565
g597
sg1481
g328
sVcom.android.email
p1566
g895
sVcom.sina.weibo
p1567
g402
sVcom.tencent.mobileqq
p1568
g973
ssg101
(dp1569
g37
g480
sg1025
g201
sg1389
g1057
sg467
g710
sg784
g248
sVcom.dotamax.app
p1570
g1211
sVcom.renren.mobile.android
p1571
g776
sg1567
g406
sg1568
g976
ssg103
(dp1572
Vcom.tencent.mm
p1573
g709
sg1037
g404
sVcom.tencent.mobileqq
p1574
g975
sg1033
g482
ssg105
(dp1575
Vcom.tencent.mm
p1576
g711
sVcom.sina.weibo
p1577
g407
sVcom.dotamax.app
p1578
g1213
sg1048
g978
ssg107
(dp1579
Vcom.sina.weibo
p1580
g409
sVcom.tencent.mm
p1581
g712
sg915
g208
sg1200
g824
sVcom.android.fileexplorer
p1582
g869
sVcom.dotamax.app
p1583
g1215
sVcom.android.phone
p1584
g621
sg93
g914
sVcom.tencent.mobileqq
p1585
g979
sVme.quqi
p1586
g742
ssg109
(dp1587
Vcom.android.browser
p1588
g160
sg1558
g755
sVcom.android.deskclock
p1589
g256
sVcom.hupu.games
p1590
g340
sVcom.sina.weibo
p1591
g411
sg937
g427
sg1523
g486
sg1071
g566
sVcom.android.phone
p1592
g608
sVcom.meizu.media.gallery
p1593
g636
sVcom.tencent.mobileqq
p1594
g980
sg1450
g732
sVim.yixin
p1595
g210
sg261
g783
sVcom.kugou.android
p1596
g815
sVcom.android.fileexplorer
p1597
g860
sVcom.android.email
p1598
g901
sVcom.meizu.notepaper
p1599
g1004
sg103
g1042
sVcom.tencent.mm
p1600
g714
sg113
g1139
sVcom.qzone
p1601
g1156
sVcom.dotamax.app
p1602
g1217
sg1422
g1065
ssg111
(dp1603
Vcom.android.browser
p1604
g162
sVcom.immomo.momo
p1605
g1044
sVcom.tencent.mm
p1606
g715
sg324
g816
sg1499
g342
sVcom.tencent.mobileqq
p1607
g982
ssg113
(dp1608
g1588
g164
sVcom.zhihu.android
p1609
g487
sVcom.tencent.mobileqq
p1610
g935
sVcom.sina.weibo
p1611
g413
sg159
g1107
sVcom.android.phone
p1612
g610
sg1593
g638
sg1598
g903
sVcom.tencent.mm
p1613
g669
ssg115
(dp1614
Vone.hh.oneclient
p1615
g184
sg1489
g166
sVim.yixin
p1616
g216
sVcom.mxtech.videoplayer.ad
p1617
g239
sVcom.android.deskclock
p1618
g258
sg1162
g312
sVcom.hupu.games
p1619
g346
sVcom.sina.weibo
p1620
g415
sVcom.zhihu.android
p1621
g489
sg949
g553
sVcom.android.phone
p1622
g616
sg67
g717
sVme.quqi
p1623
g734
sg149
g786
sVcom.kugou.android
p1624
g820
sVcom.android.fileexplorer
p1625
g864
sVcom.android.email
p1626
g905
sVcom.tencent.mobileqq
p1627
g984
sVcom.meizu.notepaper
p1628
g1007
sVcom.android.settings
p1629
g1083
sVcom.android.mms
p1630
g1109
sg865
g1218
sg169
g1234
ssg117
(dp1631
g1377
g168
sg922
g186
sg1383
g766
sg17
g241
sg454
g314
sVcom.hupu.games
p1632
g348
sVcom.sina.weibo
p1633
g417
sVcom.zhihu.android
p1634
g490
sVcom.android.packageinstaller
p1635
g514
sVcom.android.video
p1636
g555
sVcom.wumii.android.mimi
p1637
g568
sg1193
g579
sVcom.renren.mobile.android
p1638
g789
sVcom.meizu.media.gallery
p1639
g640
sVcom.tencent.mm
p1640
g718
sVim.yixin
p1641
g218
sVcom.meizu.media.camera
p1642
g285
sg386
g618
sVcom.kugou.android
p1643
g822
sg1625
g866
sg87
g881
sg1079
g890
sVcom.meizu.notepaper
p1644
g1009
sVcom.tencent.mobileqq
p1645
g986
sVcom.android.mms
p1646
g1095
sVcom.qzone
p1647
g1161
sg868
g1075
ssg119
(dp1648
Vcom.tencent.mobileqq
p1649
g987
sVcom.tencent.mm
p1650
g719
ssg121
(dp1651
Vcom.zhihu.android
p1652
g492
sg1489
g170
sVcom.tencent.mobileqq
p1653
g988
sVcom.sina.weibo
p1654
g418
sVcom.kugou.android
p1655
g832
sVcom.android.deskclock
p1656
g266
sVcom.hupu.games
p1657
g357
sVcom.tencent.mm
p1658
g721
sssb.