ccopy_reg
_reconstructor
p1
(cnetworkx.classes.digraph
DiGraph
p2
c__builtin__
object
p3
NtRp4
(dp5
S'node'
p6
(dp7
Vcom.google.android.inputmethod.pinyin
p8
(dp9
S'weight'
p10
F1.2058534318040554e-05
ssVcom.android.browser
p11
(dp12
g10
F0.025955995119582291
ssVcom.job.android
p13
(dp14
g10
F4.9878482860985929e-05
ssVco.runner.app
p15
(dp16
g10
F0.00070103933603517579
ssVcom.youdao.dict
p17
(dp18
g10
F0.0025829928624439141
ssVcom.ss.android.article.news
p19
(dp20
g10
F0.0020019907543928693
ssVcom.android.updater
p21
(dp22
g10
F0.00017073788363952875
ssVcom.comingx.athit
p23
(dp24
g10
F0.0098244167780254035
ssVcom.baidu.netdisk
p25
(dp26
g10
F6.3581362767850197e-05
ssVcom.android.thememanager
p27
(dp28
g10
F7.5639897085890746e-05
ssVcom.offcn.android.onlineexamination
p29
(dp30
g10
F0.00029625626358640542
ssVcom.android.deskclock
p31
(dp32
g10
F0.0088205437960485276
ssVcom.happyelements.AndroidAnimal
p33
(dp34
g10
F0.0083746520838791656
ssVcom.sohu.inputmethod.sogou
p35
(dp36
g10
F0.0001194891127878564
ssVcom.miui.voiceassist
p37
(dp38
g10
F0.003907787291839551
ssVcom.netease.mobimail
p39
(dp40
g10
F0.012581162157688357
ssVsogou.mobile.explorer
p41
(dp42
g10
F0.00078983399783165626
ssVcom.sina.weibo
p43
(dp44
g10
F0.023836981770784801
ssVcn.jsx.youxidiantai
p45
(dp46
g10
F4.1930812515004653e-05
ssVcom.eg.android.AlipayGphone
p47
(dp48
g10
F0.0075437094463269155
ssVcom.youku.phone
p49
(dp50
g10
F0.00031927710182993741
ssVcom.tsingzone.questionbank
p51
(dp52
g10
F1.342882230872698e-05
ssVcom.zhihu.android
p53
(dp54
g10
F0.00098468895010726614
ssVorg.mozilla.firefox
p55
(dp56
g10
F0.003134122692297995
ssVcom.hyt.android.examin
p57
(dp58
g10
F0.0058472929138571198
ssVcom.chinamworld.main
p59
(dp60
g10
F0.0037386937537888464
ssVcn.wps.moffice_eng
p61
(dp62
g10
F0.0020167898646922828
ssVoffcn.adnroid.newsletter_politics
p63
(dp64
g10
F0.00013017735911521053
ssVcom.qihoo.yunpan
p65
(dp66
g10
F5.0700655655397785e-05
ssVcom.android.packageinstaller
p67
(dp68
g10
F7.4817724291478897e-05
ssVcom.sankuai.meituan
p69
(dp70
g10
F0.0015265008216246792
ssVcom.android.soundrecorder
p71
(dp72
g10
F0.0021401157838540612
ssVcom.jingdong.app.mall
p73
(dp74
g10
F0.00098140025892961874
ssVcom.taobao.taobao
p75
(dp76
g10
F0.0011598117553169914
ssVcom.yixia.xiaokaxiu
p77
(dp78
g10
F0.0011269248435405172
ssVair.fyzb3
p79
(dp80
g10
F0.006918858122573905
ssVcom.nowcoder.app.florida
p81
(dp82
g10
F0.0023867676221776177
ssVcom.alexlee.gwyxc
p83
(dp84
g10
F0.00010331971449775656
ssVcom.android.phone
p85
(dp86
g10
F0.013947887399598999
ssVcom.alibaba.android.rimet
p87
(dp88
g10
F0.0012464139563283735
ssVcom.miui.home
p89
(dp90
g10
F0.24653015674998383
ssVcom.tencent.mobileqq
p91
(dp92
g10
F0.12873060905464379
ssVcom.miui.antispam
p93
(dp94
g10
F0.00037244427586857076
ssVcom.android.calculator2
p95
(dp96
g10
F0.015444515943026715
ssVorg.coursera.android
p97
(dp98
g10
F2.7405759813728533e-07
ssVcom.offcn.android.onlineexamination.syyh
p99
(dp100
g10
F0.00012798489833011224
ssVcom.fenbi.android.servant
p101
(dp102
g10
F0.0097465844201544156
ssVcom.meitu.meipaimv
p103
(dp104
g10
F0.00011126738484373784
ssVcom.ggeye.kaoshi.gwy
p105
(dp106
g10
F0.0068333521519550718
ssVcom.tencent.mm
p107
(dp108
g10
F0.2677142609707997
ssVcom.kugou.android
p109
(dp110
g10
F0.0088139664136932337
ssVcom.android.systemui
p111
(dp112
g10
F7.9202645861675453e-05
ssVcom.xiaomi.market
p113
(dp114
g10
F0.00049905888620799656
ssVcom.android.fileexplorer
p115
(dp116
g10
F0.0025802522864625411
ssVcom.qihoo.browser
p117
(dp118
g10
F0.00024500749273473305
ssVcom.miui.yellowpage
p119
(dp120
g10
F5.8100210805104488e-05
ssVcom.brianbaek.popstar
p121
(dp122
g10
F7.1254975515694187e-06
ssVcom.miui.weather2
p123
(dp124
g10
F0.00048069702713279843
ssVcom.android.email
p125
(dp126
g10
F8.2217279441185593e-06
ssVcom.miui.player
p127
(dp128
g10
F1.3702879906864265e-06
ssVcom.MobileTicket
p129
(dp130
g10
F0.00059388281516349725
ssVcom.miui.gallery
p131
(dp132
g10
F0.00122558557886994
ssVcom.miui.notes
p133
(dp134
g10
F0.0018783907776329537
ssVcom.UCMobile
p135
(dp136
g10
F0.00042643362270161595
ssVcom.android.calendar
p137
(dp138
g10
F0.0012565540874594531
ssVcom.android.settings
p139
(dp140
g10
F0.0028019648833556049
ssVcom.android.mms
p141
(dp142
g10
F0.12807890008627335
ssVcom.baidu.BaiduMap
p143
(dp144
g10
F0.0020833858610396429
ssVcom.miui.video
p145
(dp146
g10
F0.00082326902480440512
ssVcom.shanbay.words
p147
(dp148
g10
F4.4123273300102937e-05
ssVtv.pps.mobile
p149
(dp150
g10
F0.0059634933354673287
ssVcom.miui.networkassistant
p151
(dp152
g10
F6.687005394549762e-05
ssVcom.fenbi.android.gaozhong
p153
(dp154
g10
F2.1102435056570968e-05
ssVcom.miui.barcodescanner
p155
(dp156
g10
F0.00010469000248844299
ssVcom.exam8.GWyuan
p157
(dp158
g10
F3.0146335795101386e-06
ssVcom.android.quicksearchbox
p159
(dp160
g10
F4.65897916833385e-06
ssVcom.android.camera
p161
(dp162
g10
F0.010640012190081965
ssVcom.mt.mtxx.mtxx
p163
(dp164
g10
F2.7405759813728533e-07
ssVcom.netease.vopen
p165
(dp166
g10
F2.7405759813728533e-07
sssS'graph'
p167
(dp168
sS'succ'
p169
(dp170
g8
(dp171
Vcom.android.settings
p172
(dp173
g10
F2.7000000000000002
sssg11
(dp174
Vco.runner.app
p175
(dp176
g10
F0.40000000000000002
ssVcom.comingx.athit
p177
(dp178
g10
F11.399999999999999
ssg25
(dp179
g10
F0.90000000000000002
ssVcom.android.thememanager
p180
(dp181
g10
F2.2000000000000002
ssVcom.android.deskclock
p182
(dp183
g10
F1.3
ssVcom.UCMobile
p184
(dp185
g10
F2
ssVcom.sohu.inputmethod.sogou
p186
(dp187
g10
I2
ssVcom.miui.gallery
p188
(dp189
g10
F3.0999999999999996
ssVcom.netease.mobimail
p190
(dp191
g10
F16.300000000000001
ssVcom.qihoo.yunpan
p192
(dp193
g10
F0.69999999999999996
ssVcom.eg.android.AlipayGphone
p194
(dp195
g10
F0.90000000000000002
ssVcom.zhihu.android
p196
(dp197
g10
F3.8999999999999995
ssVorg.mozilla.firefox
p198
(dp199
g10
F7.5000000000000018
ssVcom.chinamworld.main
p200
(dp201
g10
F0.40000000000000002
ssVcn.wps.moffice_eng
p202
(dp203
g10
F10.300000000000001
ssVcom.sina.weibo
p204
(dp205
g10
F1.8999999999999999
ssVcom.android.packageinstaller
p206
(dp207
g10
F5.2000000000000002
ssVcom.android.soundrecorder
p208
(dp209
g10
F0.90000000000000002
ssVair.fyzb3
p210
(dp211
g10
I1
ssVcom.nowcoder.app.florida
p212
(dp213
g10
F2.2000000000000002
ssVcom.android.phone
p214
(dp215
g10
F4.6000000000000005
ssg127
(dp216
g10
F2.2999999999999998
ssVcom.tencent.mobileqq
p217
(dp218
g10
F52.799999999999955
ssVcom.miui.antispam
p219
(dp220
g10
F1.3999999999999999
ssVcom.android.calculator2
p221
(dp222
g10
F1.6000000000000001
ssVcom.fenbi.android.servant
p223
(dp224
g10
F1.8999999999999999
ssVsogou.mobile.explorer
p225
(dp226
g10
F15.200000000000001
ssVcom.kugou.android
p227
(dp228
g10
F12.200000000000001
ssVcom.xiaomi.market
p229
(dp230
g10
F3.8999999999999999
ssVcom.android.fileexplorer
p231
(dp232
g10
F3.1999999999999997
ssVcom.qihoo.browser
p233
(dp234
g10
F3.2999999999999998
ssVcom.happyelements.AndroidAnimal
p235
(dp236
g10
F3.1000000000000001
ssVcom.hyt.android.examin
p237
(dp238
g10
F2.5
ssVcom.MobileTicket
p239
(dp240
g10
F1.3999999999999999
ssVcom.miui.home
p241
(dp242
g10
F273.79999999999984
ssVcom.miui.notes
p243
(dp244
g10
F5.6000000000000005
ssVcom.ggeye.kaoshi.gwy
p245
(dp246
g10
F0.40000000000000002
ssVcom.tencent.mm
p247
(dp248
g10
F64.299999999999955
ssVcom.android.mms
p249
(dp250
g10
F14.200000000000001
ssVcom.baidu.BaiduMap
p251
(dp252
g10
F3.4000000000000004
ssVtv.pps.mobile
p253
(dp254
g10
F1.6000000000000001
ssVcom.miui.barcodescanner
p255
(dp256
g10
F1.7
ssVcom.android.settings
p257
(dp258
g10
F15.799999999999999
ssVcom.android.camera
p259
(dp260
g10
F4
sssg13
(dp261
Vcom.miui.home
p262
(dp263
g10
F1.3999999999999999
ssVcom.kugou.android
p264
(dp265
g10
F0.90000000000000002
ssVcom.youku.phone
p266
(dp267
g10
F0.69999999999999996
sssg15
(dp268
Vcom.kugou.android
p269
(dp270
g10
F3.7000000000000002
ssVcom.miui.home
p271
(dp272
g10
F14.399999999999999
ssVcom.tencent.mm
p273
(dp274
g10
F4.2999999999999998
ssVcom.tencent.mobileqq
p275
(dp276
g10
F3
sssg17
(dp277
Vcom.android.browser
p278
(dp279
g10
F0.90000000000000002
ssVcom.android.mms
p280
(dp281
g10
I3
ssVcom.android.deskclock
p282
(dp283
g10
F1.8999999999999999
ssVcom.happyelements.AndroidAnimal
p284
(dp285
g10
F1.7
ssVcom.miui.home
p286
(dp287
g10
F8.6999999999999993
ssVcom.tencent.mm
p288
(dp289
g10
F1.8999999999999999
ssVcom.android.calculator2
p290
(dp291
g10
I1
sssg19
(dp292
Vcom.android.browser
p293
(dp294
g10
F0.90000000000000002
ssVcn.wps.moffice_eng
p295
(dp296
g10
F0.69999999999999996
ssVcom.sankuai.meituan
p297
(dp298
g10
I1
ssVcom.android.mms
p299
(dp300
g10
I1
ssVcom.baidu.BaiduMap
p301
(dp302
g10
F0.69999999999999996
ssVcom.xiaomi.market
p303
(dp304
g10
F0.90000000000000002
ssg121
(dp305
g10
F0.40000000000000002
ssVcom.miui.home
p306
(dp307
g10
F8.3000000000000007
sssg21
(dp308
Vcom.tencent.mobileqq
p309
(dp310
g10
F0.40000000000000002
ssVcom.miui.home
p311
(dp312
g10
F1.7
ssVcom.tencent.mm
p313
(dp314
g10
F0.90000000000000002
sssg23
(dp315
Vcom.android.browser
p316
(dp317
g10
F17.599999999999998
ssVcom.miui.gallery
p318
(dp319
g10
F0.69999999999999996
ssVcn.wps.moffice_eng
p320
(dp321
g10
F1.7
ssVcom.android.settings
p322
(dp323
g10
F4
ssVcom.tencent.mm
p324
(dp325
g10
F16.900000000000002
ssVcom.android.packageinstaller
p326
(dp327
g10
I1
ssVcom.android.phone
p328
(dp329
g10
F0.69999999999999996
ssVcom.android.mms
p330
(dp331
g10
F5.6000000000000005
ssVcom.android.deskclock
p332
(dp333
g10
F0.90000000000000002
ssVcom.android.fileexplorer
p334
(dp335
g10
F3.2999999999999998
ssVcom.qihoo.browser
p336
(dp337
g10
F0.90000000000000002
ssVcom.alexlee.gwyxc
p338
(dp339
g10
F1.3
ssVcom.netease.mobimail
p340
(dp341
g10
F3.3999999999999999
ssVcom.sina.weibo
p342
(dp343
g10
I1
ssg159
(dp344
g10
F0.40000000000000002
ssVsogou.mobile.explorer
p345
(dp346
g10
F1.1000000000000001
ssVcom.miui.home
p347
(dp348
g10
F64.099999999999994
ssVcom.tencent.mobileqq
p349
(dp350
g10
F14.100000000000001
ssVcom.miui.antispam
p351
(dp352
g10
I1
ssVcom.hyt.android.examin
p353
(dp354
g10
F2.2999999999999998
ssVcom.android.calculator2
p355
(dp356
g10
F2.7999999999999998
sssg25
(dp357
Vcom.UCMobile
p358
(dp359
g10
F1.3999999999999999
ssVcom.miui.home
p360
(dp361
g10
F2.5999999999999996
ssVcom.xiaomi.market
p362
(dp363
g10
F0.90000000000000002
ssVcom.android.fileexplorer
p364
(dp365
g10
F1.1000000000000001
sssg27
(dp366
Vcom.android.browser
p367
(dp368
g10
F2.1000000000000001
ssVcom.tencent.mobileqq
p369
(dp370
g10
F1.3
ssVtv.pps.mobile
p371
(dp372
g10
F1.3
ssVcom.android.settings
p373
(dp374
g10
F2.7000000000000002
ssVcom.miui.home
p375
(dp376
g10
F12.099999999999998
ssVcom.tencent.mm
p377
(dp378
g10
F2.7999999999999998
sssg29
(dp379
Vcom.miui.home
p380
(dp381
g10
I2
sssg31
(dp382
Vcom.tencent.mobileqq
p383
(dp384
g10
F6.2999999999999998
ssVcom.android.mms
p385
(dp386
g10
F17.399999999999999
ssVcom.miui.voiceassist
p387
(dp388
g10
I1
ssVcom.sohu.inputmethod.sogou
p389
(dp390
g10
F0.69999999999999996
ssVcom.netease.mobimail
p391
(dp392
g10
F1.8
ssVcom.android.phone
p393
(dp394
g10
I3
ssVcom.happyelements.AndroidAnimal
p395
(dp396
g10
F1.3999999999999999
ssVcom.miui.home
p397
(dp398
g10
F24.79999999999999
ssVcom.tencent.mm
p399
(dp400
g10
F6
sssg33
(dp401
g278
(dp402
g10
F1.3999999999999999
ssVcom.miui.notes
p403
(dp404
g10
F0.90000000000000002
ssVcom.youdao.dict
p405
(dp406
g10
F0.90000000000000002
ssVcom.tencent.mobileqq
p407
(dp408
g10
F5.0999999999999996
ssVcom.android.mms
p409
(dp410
g10
F6.7000000000000011
ssVcom.android.deskclock
p411
(dp412
g10
I1
ssVcom.android.phone
p413
(dp414
g10
I1
ssg59
(dp415
g10
F0.90000000000000002
ssVcom.miui.home
p416
(dp417
g10
F55.800000000000011
ssVcom.tencent.mm
p418
(dp419
g10
F22.499999999999989
ssVcom.miui.antispam
p420
(dp421
g10
F4
ssg49
(dp422
g10
F1.3
sssg35
(dp423
Vcom.android.browser
p424
(dp425
g10
I1
ssVcom.miui.home
p426
(dp427
g10
F2.2999999999999998
ssVcom.tencent.mobileqq
p428
(dp429
g10
F1.7
sssg37
(dp430
Vcom.android.fileexplorer
p431
(dp432
g10
F0.40000000000000002
ssg389
(dp433
g10
F0.90000000000000002
ssVcom.miui.home
p434
(dp435
g10
F2.7000000000000002
ssVcom.android.mms
p436
(dp437
g10
F2.8999999999999999
sssg39
(dp438
Vcom.android.browser
p439
(dp440
g10
F24.199999999999996
ssVcom.comingx.athit
p441
(dp442
g10
F3.7000000000000002
ssVcom.sohu.inputmethod.sogou
p443
(dp444
g10
F0.40000000000000002
ssVcom.sina.weibo
p445
(dp446
g10
F3.2999999999999998
ssVcom.eg.android.AlipayGphone
p447
(dp448
g10
F0.90000000000000002
ssVorg.mozilla.firefox
p449
(dp450
g10
F1.3
ssg200
(dp451
g10
F0.69999999999999996
ssVcn.wps.moffice_eng
p452
(dp453
g10
F3.6999999999999997
ssVcom.android.soundrecorder
p454
(dp455
g10
F0.90000000000000002
ssVcom.jingdong.app.mall
p456
(dp457
g10
I1
ssg328
(dp458
g10
F0.90000000000000002
ssVcom.miui.gallery
p459
(dp460
g10
F3.1000000000000001
ssVcom.tencent.mm
p461
(dp462
g10
F29.899999999999984
ssVcom.miui.antispam
p463
(dp464
g10
I1
ssVcom.android.calculator2
p465
(dp466
g10
F1.7
ssVsogou.mobile.explorer
p467
(dp468
g10
F0.40000000000000002
ssVcom.kugou.android
p469
(dp470
g10
I1
ssVcom.xiaomi.market
p471
(dp472
g10
F0.40000000000000002
ssVcom.hyt.android.examin
p473
(dp474
g10
F3.3999999999999999
ssVcom.miui.home
p475
(dp476
g10
F111.30000000000013
ssVcom.miui.notes
p477
(dp478
g10
F0.90000000000000002
ssVcom.android.calendar
p479
(dp480
g10
F0.90000000000000002
ssVcom.tencent.mobileqq
p481
(dp482
g10
F39.999999999999986
ssVcom.android.mms
p483
(dp484
g10
F19.100000000000001
ssVcom.miui.networkassistant
p485
(dp486
g10
F1.7
sssg41
(dp487
Vcom.android.browser
p488
(dp489
g10
F6.5999999999999996
ssg198
(dp490
g10
F5.4000000000000004
ssVcom.miui.gallery
p491
(dp492
g10
F2
ssg245
(dp493
g10
F1.3
ssVcom.android.mms
p494
(dp495
g10
F2.9999999999999996
ssVcom.kugou.android
p496
(dp497
g10
F1.3
ssVcom.UCMobile
p498
(dp499
g10
F1.8999999999999999
ssVcom.netease.mobimail
p500
(dp501
g10
F1.3
ssVcom.android.settings
p502
(dp503
g10
F3
ssVcom.miui.home
p504
(dp505
g10
F35.699999999999996
ssVcom.tencent.mm
p506
(dp507
g10
F8.0000000000000018
ssVcom.tencent.mobileqq
p508
(dp509
g10
F7.7000000000000011
sssg43
(dp510
Vcom.android.browser
p511
(dp512
g10
F5.3999999999999995
ssVco.runner.app
p513
(dp514
g10
F0.40000000000000002
ssVcom.comingx.athit
p515
(dp516
g10
F1.3
ssVcom.android.deskclock
p517
(dp518
g10
F2.3999999999999999
ssVcom.sohu.inputmethod.sogou
p519
(dp520
g10
F0.40000000000000002
ssVcom.netease.mobimail
p521
(dp522
g10
F4.7000000000000002
ssVcom.yixia.xiaokaxiu
p523
(dp524
g10
F0.90000000000000002
ssVcom.eg.android.AlipayGphone
p525
(dp526
g10
F2.2999999999999998
ssVcom.zhihu.android
p527
(dp528
g10
F0.40000000000000002
ssVcom.chinamworld.main
p529
(dp530
g10
F1.7
ssVcom.taobao.taobao
p531
(dp532
g10
I1
ssVcom.android.phone
p533
(dp534
g10
I2
ssVcom.miui.gallery
p535
(dp536
g10
I1
ssVcom.tencent.mm
p537
(dp538
g10
F41.499999999999986
ssVcom.miui.antispam
p539
(dp540
g10
F0.90000000000000002
ssVcom.fenbi.android.servant
p541
(dp542
g10
F5
ssVcom.android.systemui
p543
(dp544
g10
I1
ssg109
(dp545
g10
F7.5
ssVcom.xiaomi.market
p546
(dp547
g10
F1.6000000000000001
ssVcom.happyelements.AndroidAnimal
p548
(dp549
g10
I1
ssVcom.miui.weather2
p550
(dp551
g10
F0.69999999999999996
ssVcom.tencent.mobileqq
p552
(dp553
g10
F49.099999999999959
ssVcom.MobileTicket
p554
(dp555
g10
F1.7
ssVcom.miui.home
p556
(dp557
g10
F173.19999999999993
ssVcom.miui.notes
p558
(dp559
g10
F1.3999999999999999
ssVcom.android.calendar
p560
(dp561
g10
F1.3
ssVcom.android.settings
p562
(dp563
g10
F1.8999999999999999
ssVcom.android.mms
p564
(dp565
g10
F12.500000000000002
ssVcom.miui.video
p566
(dp567
g10
I1
ssVtv.pps.mobile
p568
(dp569
g10
F1.8
ssVcom.miui.barcodescanner
p570
(dp571
g10
F2.2000000000000002
sssg45
(dp572
Vcom.android.packageinstaller
p573
(dp574
g10
I1
ssVcom.miui.home
p575
(dp576
g10
F1.7
sssg47
(dp577
Vcom.kugou.android
p578
(dp579
g10
F0.40000000000000002
ssg129
(dp580
g10
F1.8
ssVcom.chinamworld.main
p581
(dp582
g10
F1.3
ssVcom.android.browser
p583
(dp584
g10
F0.90000000000000002
ssg485
(dp585
g10
I1
ssVcom.tencent.mm
p586
(dp587
g10
F12.200000000000001
ssVcom.sankuai.meituan
p588
(dp589
g10
F1.8
ssVcom.android.mms
p590
(dp591
g10
F19.000000000000004
ssVcom.sohu.inputmethod.sogou
p592
(dp593
g10
I1
ssVcom.netease.mobimail
p594
(dp595
g10
F1.7
ssVcom.android.phone
p596
(dp597
g10
F0.90000000000000002
ssg163
(dp598
g10
F0.40000000000000002
ssVcom.miui.home
p599
(dp600
g10
F100.30000000000005
ssVcom.tencent.mobileqq
p601
(dp602
g10
F22.499999999999989
ssVcom.android.calculator2
p603
(dp604
g10
F5.4000000000000004
sssg49
(dp605
Vcom.tencent.mm
p606
(dp607
g10
F4.3000000000000007
ssVcom.miui.home
p608
(dp609
g10
F8
ssVcom.tencent.mobileqq
p610
(dp611
g10
F2.6999999999999997
sssg51
(dp612
Vcom.android.browser
p613
(dp614
g10
F0.90000000000000002
ssVcom.miui.home
p615
(dp616
g10
F3.4000000000000004
ssVcom.fenbi.android.servant
p617
(dp618
g10
F0.40000000000000002
ssVcom.hyt.android.examin
p619
(dp620
g10
F0.90000000000000002
ssVsogou.mobile.explorer
p621
(dp622
g10
F0.40000000000000002
sssg53
(dp623
Vcom.android.browser
p624
(dp625
g10
F4.2000000000000002
ssVcom.tencent.mobileqq
p626
(dp627
g10
F3.6000000000000001
ssVcom.kugou.android
p628
(dp629
g10
F4.9000000000000004
ssVcom.baidu.BaiduMap
p630
(dp631
g10
F0.69999999999999996
ssVcom.miui.barcodescanner
p632
(dp633
g10
F1.3
ssg165
(dp634
g10
F0.40000000000000002
ssVcom.android.camera
p635
(dp636
g10
F0.40000000000000002
ssVcom.miui.home
p637
(dp638
g10
F37
ssVcom.tencent.mm
p639
(dp640
g10
F4.9000000000000004
sssg55
(dp641
Vcom.android.browser
p642
(dp643
g10
F4
ssg491
(dp644
g10
F2.5999999999999996
ssVcom.tencent.mobileqq
p645
(dp646
g10
F3.7999999999999998
ssg496
(dp647
g10
I1
ssg471
(dp648
g10
F0.90000000000000002
ssVcom.UCMobile
p649
(dp650
g10
F1.3
ssg500
(dp651
g10
F2.7000000000000002
ssVsogou.mobile.explorer
p652
(dp653
g10
F2.2999999999999998
ssVcom.miui.home
p654
(dp655
g10
F13.5
ssVcom.tencent.mm
p656
(dp657
g10
F3.0999999999999996
sssg57
(dp658
g51
(dp659
g10
F0.40000000000000002
ssVcom.android.browser
p660
(dp661
g10
F3.5
ssg200
(dp662
g10
F0.90000000000000002
ssg617
(dp663
g10
F0.90000000000000002
ssVcom.tencent.mobileqq
p664
(dp665
g10
F5.5
ssVcom.comingx.athit
p666
(dp667
g10
F2.7999999999999998
ssVcom.xiaomi.market
p668
(dp669
g10
F0.90000000000000002
ssVcom.android.settings
p670
(dp671
g10
F0.69999999999999996
ssg443
(dp672
g10
F0.69999999999999996
ssVcom.netease.mobimail
p673
(dp674
g10
F3.0999999999999996
ssVcom.android.phone
p675
(dp676
g10
F2.7000000000000002
ssVsogou.mobile.explorer
p677
(dp678
g10
F0.40000000000000002
ssVcom.alibaba.android.rimet
p679
(dp680
g10
F1.3
ssVcom.miui.home
p681
(dp682
g10
F30.799999999999997
ssVcom.tencent.mm
p683
(dp684
g10
F2.1000000000000001
ssVcom.android.calculator2
p685
(dp686
g10
F4.4000000000000004
sssg59
(dp687
Vcom.android.browser
p688
(dp689
g10
F1.7
ssVcom.sina.weibo
p690
(dp691
g10
I1
ssVcom.android.packageinstaller
p692
(dp693
g10
F0.90000000000000002
ssVcom.android.mms
p694
(dp695
g10
F12.800000000000001
ssVcom.baidu.BaiduMap
p696
(dp697
g10
F0.40000000000000002
ssg443
(dp698
g10
I1
ssVcom.miui.home
p699
(dp700
g10
F13.899999999999999
ssVcom.tencent.mm
p701
(dp702
g10
F5.6000000000000005
ssVcom.yixia.xiaokaxiu
p703
(dp704
g10
F1.3
ssVcom.eg.android.AlipayGphone
p705
(dp706
g10
F2.7000000000000002
ssVcom.tencent.mobileqq
p707
(dp708
g10
F1.8999999999999999
sssg61
(dp709
Vcom.android.browser
p710
(dp711
g10
F4.9000000000000004
ssVcom.tencent.mm
p712
(dp713
g10
F7.0000000000000009
ssVcom.comingx.athit
p714
(dp715
g10
I1
ssVcom.android.mms
p716
(dp717
g10
F1.3
ssVcom.android.fileexplorer
p718
(dp719
g10
F1.7999999999999998
ssVcom.netease.mobimail
p720
(dp721
g10
F2.2999999999999998
ssg208
(dp722
g10
F0.69999999999999996
ssVcom.android.camera
p723
(dp724
g10
F0.90000000000000002
ssVcom.miui.home
p725
(dp726
g10
F27.799999999999994
ssVcom.tencent.mobileqq
p727
(dp728
g10
F10.100000000000001
sssg63
(dp729
Vcom.tencent.mobileqq
p730
(dp731
g10
F0.90000000000000002
ssVcom.miui.home
p732
(dp733
g10
F1.7
ssVcom.android.mms
p734
(dp735
g10
I1
sssg65
(dp736
Vcom.android.fileexplorer
p737
(dp738
g10
F0.90000000000000002
ssVcom.miui.home
p739
(dp740
g10
F1.7
sssg67
(dp741
Vcom.android.browser
p742
(dp743
g10
F3.0999999999999996
ssVcom.tencent.mobileqq
p744
(dp745
g10
F0.69999999999999996
ssVcom.comingx.athit
p746
(dp747
g10
F1.3
ssVcom.android.mms
p748
(dp749
g10
F0.69999999999999996
ssVair.fyzb3
p750
(dp751
g10
F2.8999999999999999
ssVcom.nowcoder.app.florida
p752
(dp753
g10
F0.90000000000000002
ssg255
(dp754
g10
F0.90000000000000002
ssVcom.android.settings
p755
(dp756
g10
F1.3
ssVcom.miui.home
p757
(dp758
g10
F12.199999999999999
ssVcom.tencent.mm
p759
(dp760
g10
F3.8999999999999995
ssg45
(dp761
g10
F1.7
sssg69
(dp762
Vcom.tencent.mm
p763
(dp764
g10
F1.3999999999999999
ssVcom.android.mms
p765
(dp766
g10
F0.90000000000000002
ssVcom.baidu.BaiduMap
p767
(dp768
g10
F1.8
ssVcom.miui.barcodescanner
p769
(dp770
g10
F1.3
ssVcom.android.settings
p771
(dp772
g10
I1
ssg163
(dp773
g10
F0.90000000000000002
ssVcom.miui.home
p774
(dp775
g10
F15.199999999999999
ssVcom.tencent.mobileqq
p776
(dp777
g10
F5.8000000000000007
ssVcom.eg.android.AlipayGphone
p778
(dp779
g10
F2.7999999999999998
sssg71
(dp780
Vcom.miui.notes
p781
(dp782
g10
I1
ssVcom.tencent.mobileqq
p783
(dp784
g10
F6.5
ssVcom.android.mms
p785
(dp786
g10
F2.7000000000000002
ssVcom.android.calculator2
p787
(dp788
g10
F1.3
ssVcom.xiaomi.market
p789
(dp790
g10
I1
ssVcom.android.phone
p791
(dp792
g10
F2.6000000000000001
ssVcom.happyelements.AndroidAnimal
p793
(dp794
g10
F0.69999999999999996
ssVcom.android.camera
p795
(dp796
g10
F0.90000000000000002
ssVcom.miui.home
p797
(dp798
g10
F30.499999999999993
ssVcom.tencent.mm
p799
(dp800
g10
F9.3000000000000007
ssVcom.miui.antispam
p801
(dp802
g10
F0.69999999999999996
ssVcom.eg.android.AlipayGphone
p803
(dp804
g10
F1.3
ssVcom.android.settings
p805
(dp806
g10
F1.6000000000000001
sssg73
(dp807
Vcom.android.mms
p808
(dp809
g10
F0.90000000000000002
ssVcom.miui.home
p810
(dp811
g10
F4.0999999999999996
ssVcom.tencent.mm
p812
(dp813
g10
F2.2999999999999998
ssVcom.miui.antispam
p814
(dp815
g10
I1
ssVcom.netease.mobimail
p816
(dp817
g10
I1
sssg75
(dp818
Vcom.android.browser
p819
(dp820
g10
F0.90000000000000002
ssVcom.sina.weibo
p821
(dp822
g10
I1
ssVcom.tencent.mm
p823
(dp824
g10
F0.90000000000000002
ssVcom.android.mms
p825
(dp826
g10
I1
ssg184
(dp827
g10
F0.40000000000000002
ssVcom.netease.mobimail
p828
(dp829
g10
I1
ssVcom.android.phone
p830
(dp831
g10
I1
ssVcom.miui.home
p832
(dp833
g10
F7.7999999999999998
ssVcom.tencent.mobileqq
p834
(dp835
g10
F1.3
ssVcom.android.calculator2
p836
(dp837
g10
F0.40000000000000002
sssg77
(dp838
Vcom.tencent.mm
p839
(dp840
g10
F17.299999999999997
ssVcom.comingx.athit
p841
(dp842
g10
F0.90000000000000002
ssVcom.android.mms
p843
(dp844
g10
I1
ssVtv.pps.mobile
p845
(dp846
g10
F0.90000000000000002
ssVcom.netease.mobimail
p847
(dp848
g10
F0.90000000000000002
ssVcom.miui.home
p849
(dp850
g10
F24.999999999999993
ssVcom.tencent.mobileqq
p851
(dp852
g10
F2.3999999999999999
sssg79
(dp853
Vcom.android.browser
p854
(dp855
g10
F1.3
ssVcom.fenbi.android.servant
p856
(dp857
g10
F1.3999999999999999
ssVcom.android.calendar
p858
(dp859
g10
F1.3
ssVcom.tencent.mm
p860
(dp861
g10
F11.200000000000003
ssg67
(dp862
g10
F3.4000000000000004
ssVcom.comingx.athit
p863
(dp864
g10
F0.40000000000000002
ssg748
(dp865
g10
F3
ssVcom.xiaomi.market
p866
(dp867
g10
F0.90000000000000002
ssVtv.pps.mobile
p868
(dp869
g10
F3.1999999999999997
ssVcom.happyelements.AndroidAnimal
p870
(dp871
g10
F1.3
ssVcom.miui.home
p872
(dp873
g10
F41.100000000000001
ssVcom.tencent.mobileqq
p874
(dp875
g10
F3.7999999999999998
ssg45
(dp876
g10
F1.7000000000000002
ssVcom.android.calculator2
p877
(dp878
g10
F0.90000000000000002
sssg81
(dp879
Vcom.android.browser
p880
(dp881
g10
F1.3999999999999999
ssg206
(dp882
g10
I2
ssVcom.miui.gallery
p883
(dp884
g10
F0.40000000000000002
ssVcom.android.fileexplorer
p885
(dp886
g10
F0.90000000000000002
ssVcom.android.calendar
p887
(dp888
g10
F1.3
ssVcom.tencent.mm
p889
(dp890
g10
F3.7999999999999998
ssVcom.sina.weibo
p891
(dp892
g10
F0.40000000000000002
ssVcom.android.mms
p893
(dp894
g10
F2.7000000000000002
ssVcom.jingdong.app.mall
p895
(dp896
g10
F1.3999999999999999
ssVcom.xiaomi.market
p897
(dp898
g10
F0.40000000000000002
ssVcom.UCMobile
p899
(dp900
g10
F0.90000000000000002
ssVcom.netease.mobimail
p901
(dp902
g10
F0.69999999999999996
ssVcom.android.settings
p903
(dp904
g10
F0.90000000000000002
ssVcom.android.camera
p905
(dp906
g10
F0.90000000000000002
ssVcom.miui.home
p907
(dp908
g10
F16.799999999999997
ssVcom.tencent.mobileqq
p909
(dp910
g10
F5.2000000000000011
ssg814
(dp911
g10
F0.90000000000000002
sssg83
(dp912
Vcom.miui.home
p913
(dp914
g10
F3.7000000000000002
sssg85
(dp915
Vcom.android.browser
p916
(dp917
g10
F3.3999999999999999
ssVcom.miui.gallery
p918
(dp919
g10
F1.3
ssVcom.miui.notes
p920
(dp921
g10
I1
ssVtv.pps.mobile
p922
(dp923
g10
F1.3999999999999999
ssVcom.tencent.mm
p924
(dp925
g10
F42.199999999999982
ssVsogou.mobile.explorer
p926
(dp927
g10
F0.90000000000000002
ssg71
(dp928
g10
F13.800000000000002
ssg785
(dp929
g10
F26.099999999999991
ssg180
(dp930
g10
F0.69999999999999996
ssVcom.xiaomi.market
p931
(dp932
g10
F1.6000000000000001
ssVcom.android.deskclock
p933
(dp934
g10
I1
ssVcom.yixia.xiaokaxiu
p935
(dp936
g10
I1
ssVcom.netease.mobimail
p937
(dp938
g10
F1.7000000000000002
ssVcom.android.camera
p939
(dp940
g10
F3.6999999999999997
ssVcom.happyelements.AndroidAnimal
p941
(dp942
g10
I1
ssg119
(dp943
g10
F4.5999999999999996
ssVcom.alibaba.android.rimet
p944
(dp945
g10
F6.6000000000000005
ssVcom.miui.home
p946
(dp947
g10
F154.30000000000015
ssVcom.tencent.mobileqq
p948
(dp949
g10
F54.699999999999989
ssVcom.miui.antispam
p950
(dp951
g10
F6.5
ssVcom.android.settings
p952
(dp953
g10
F4.2000000000000002
sssg87
(dp954
Vcom.tencent.mm
p955
(dp956
g10
F2.7999999999999998
ssVcom.miui.home
p957
(dp958
g10
F9.4000000000000004
ssVcom.android.mms
p959
(dp960
g10
I1
ssVcom.tencent.mobileqq
p961
(dp962
g10
F0.90000000000000002
ssVcom.android.phone
p963
(dp964
g10
F2.7000000000000002
sssg89
(dp965
g8
(dp966
g10
F1.7000000000000002
ssg11
(dp967
g10
F226.59999999999985
ssg13
(dp968
g10
F1.7
ssg15
(dp969
g10
F17.899999999999999
ssVcom.youdao.dict
p970
(dp971
g10
F7.7000000000000002
ssVcom.ss.android.article.news
p972
(dp973
g10
F4.0999999999999996
ssg23
(dp974
g10
F52.099999999999994
ssg25
(dp975
g10
F2.2999999999999998
ssg27
(dp976
g10
F11.800000000000001
ssVcom.offcn.android.onlineexamination
p977
(dp978
g10
I1
ssVcom.android.deskclock
p979
(dp980
g10
F26.099999999999994
ssg33
(dp981
g10
F56.600000000000016
ssg186
(dp982
g10
F5.7999999999999998
ssg165
(dp983
g10
F1.7
ssg39
(dp984
g10
F100.90000000000006
ssVsogou.mobile.explorer
p985
(dp986
g10
F40.399999999999999
ssg43
(dp987
g10
F102.70000000000013
ssg45
(dp988
g10
F1.7
ssg47
(dp989
g10
F93.900000000000048
ssg49
(dp990
g10
F3.6999999999999997
ssg51
(dp991
g10
F3.3999999999999999
ssVcom.zhihu.android
p992
(dp993
g10
F32.399999999999999
ssg198
(dp994
g10
F16.699999999999996
ssg57
(dp995
g10
F20.699999999999999
ssg59
(dp996
g10
F23.999999999999996
ssg61
(dp997
g10
F20.099999999999994
ssg65
(dp998
g10
F2.6000000000000001
ssg67
(dp999
g10
F9.3000000000000007
ssg69
(dp1000
g10
F12.6
ssVcom.android.soundrecorder
p1001
(dp1002
g10
F28.199999999999999
ssg73
(dp1003
g10
F1.7
ssVcom.taobao.taobao
p1004
(dp1005
g10
I1
ssg77
(dp1006
g10
F20.999999999999996
ssg79
(dp1007
g10
F23.099999999999994
ssg81
(dp1008
g10
F13.800000000000001
ssg83
(dp1009
g10
F6.1000000000000005
ssg85
(dp1010
g10
F89.300000000000026
ssg87
(dp1011
g10
F10.4
ssg535
(dp1012
g10
F21.299999999999994
ssg91
(dp1013
g10
F2035.9000000000228
ssVcom.miui.antispam
p1014
(dp1015
g10
F24.300000000000001
ssg95
(dp1016
g10
F78.600000000000037
ssg97
(dp1017
g10
I1
ssg99
(dp1018
g10
I1
ssg101
(dp1019
g10
F41.000000000000007
ssVcom.meitu.meipaimv
p1020
(dp1021
g10
F2.7000000000000002
ssg245
(dp1022
g10
F3.3999999999999999
ssg107
(dp1023
g10
F1626.3000000000211
ssg109
(dp1024
g10
F48.999999999999993
ssg111
(dp1025
g10
F1.8999999999999999
ssg866
(dp1026
g10
F34.399999999999984
ssg115
(dp1027
g10
F33.29999999999999
ssg233
(dp1028
g10
F7.7000000000000002
ssg119
(dp1029
g10
F3.6000000000000001
ssg121
(dp1030
g10
F1.7
ssVcom.miui.weather2
p1031
(dp1032
g10
F4.2999999999999998
ssg125
(dp1033
g10
F4
ssg129
(dp1034
g10
F16.199999999999996
ssg127
(dp1035
g10
F2.7000000000000002
ssg133
(dp1036
g10
F20.099999999999998
ssg184
(dp1037
g10
F11.5
ssg479
(dp1038
g10
F26.699999999999996
ssVcom.android.settings
p1039
(dp1040
g10
F88.100000000000065
ssg141
(dp1041
g10
F298.59999999999957
ssVcom.baidu.BaiduMap
p1042
(dp1043
g10
F28.099999999999994
ssg145
(dp1044
g10
F1.3
ssVtv.pps.mobile
p1045
(dp1046
g10
F40.399999999999991
ssg485
(dp1047
g10
F1.8
ssg153
(dp1048
g10
F2.7000000000000002
ssg155
(dp1049
g10
F7.7000000000000002
ssg157
(dp1050
g10
F1.7
ssg159
(dp1051
g10
F1.7
ssVcom.android.camera
p1052
(dp1053
g10
F159.10000000000002
ssg163
(dp1054
g10
F0.69999999999999996
sssg91
(dp1055
g8
(dp1056
g10
F0.69999999999999996
ssg11
(dp1057
g10
F40.599999999999973
ssg15
(dp1058
g10
F6.2000000000000011
ssg405
(dp1059
g10
F0.40000000000000002
ssVcom.ss.android.article.news
p1060
(dp1061
g10
I1
ssVcom.comingx.athit
p1062
(dp1063
g10
F11.5
ssVcom.android.thememanager
p1064
(dp1065
g10
F2.1000000000000001
ssVcom.android.deskclock
p1066
(dp1067
g10
F3.8999999999999995
ssg899
(dp1068
g10
F1.3999999999999999
ssVcom.miui.voiceassist
p1069
(dp1070
g10
F1.7
ssg521
(dp1071
g10
F54.999999999999979
ssg43
(dp1072
g10
F55.599999999999959
ssVcom.yixia.xiaokaxiu
p1073
(dp1074
g10
F0.40000000000000002
ssVcom.eg.android.AlipayGphone
p1075
(dp1076
g10
F23.79999999999999
ssVcom.youku.phone
p1077
(dp1078
g10
I1
ssVcom.tsingzone.questionbank
p1079
(dp1080
g10
F0.90000000000000002
ssg992
(dp1081
g10
F7.5000000000000009
ssVorg.mozilla.firefox
p1082
(dp1083
g10
F1.7000000000000002
ssVcom.hyt.android.examin
p1084
(dp1085
g10
F4.5
ssVcom.chinamworld.main
p1086
(dp1087
g10
F3.8999999999999999
ssg202
(dp1088
g10
F7.7000000000000002
ssg192
(dp1089
g10
I1
ssVcom.android.packageinstaller
p1090
(dp1091
g10
I1
ssVcom.sankuai.meituan
p1092
(dp1093
g10
F3.7000000000000002
ssVcom.android.soundrecorder
p1094
(dp1095
g10
F3.2999999999999998
ssVair.fyzb3
p1096
(dp1097
g10
F1.6000000000000001
ssVcom.nowcoder.app.florida
p1098
(dp1099
g10
F2.1999999999999997
ssg83
(dp1100
g10
F0.40000000000000002
ssVcom.android.phone
p1101
(dp1102
g10
F22.199999999999996
ssVcom.alibaba.android.rimet
p1103
(dp1104
g10
F0.40000000000000002
ssVcom.miui.home
p1105
(dp1106
g10
F2095.2000000000244
ssVcom.tencent.mm
p1107
(dp1108
g10
F614.69999999999391
ssg93
(dp1109
g10
F11.700000000000001
ssg787
(dp1110
g10
F13.700000000000003
ssVcom.fenbi.android.servant
p1111
(dp1112
g10
F6.4000000000000012
ssg103
(dp1113
g10
I1
ssVsogou.mobile.explorer
p1114
(dp1115
g10
F10.9
ssVcom.kugou.android
p1116
(dp1117
g10
F13.1
ssg543
(dp1118
g10
F0.69999999999999996
ssg229
(dp1119
g10
F4.2999999999999998
ssVcom.android.fileexplorer
p1120
(dp1121
g10
F6.5
ssVcom.qihoo.browser
p1122
(dp1123
g10
F1.3
ssg1052
(dp1124
g10
F41.099999999999966
ssg235
(dp1125
g10
F6.8000000000000007
ssVcom.miui.weather2
p1126
(dp1127
g10
F0.90000000000000002
ssg125
(dp1128
g10
F0.40000000000000002
ssVcom.MobileTicket
p1129
(dp1130
g10
F6.3000000000000007
ssg535
(dp1131
g10
F8.4000000000000004
ssg133
(dp1132
g10
F1.7999999999999998
ssVcom.android.calendar
p1133
(dp1134
g10
F6.2000000000000011
ssVcom.android.settings
p1135
(dp1136
g10
F34.599999999999987
ssVcom.android.mms
p1137
(dp1138
g10
F120.60000000000019
ssVcom.baidu.BaiduMap
p1139
(dp1140
g10
F9.0000000000000018
ssg145
(dp1141
g10
F0.69999999999999996
ssVtv.pps.mobile
p1142
(dp1143
g10
F15.100000000000001
ssg151
(dp1144
g10
I1
ssg155
(dp1145
g10
F1.6000000000000001
ssg119
(dp1146
g10
F0.69999999999999996
ssg165
(dp1147
g10
F0.90000000000000002
sssg93
(dp1148
Vcom.android.browser
p1149
(dp1150
g10
F0.69999999999999996
ssg952
(dp1151
g10
F7.9000000000000004
ssVcom.tencent.mm
p1152
(dp1153
g10
F7.9000000000000004
ssVcom.android.mms
p1154
(dp1155
g10
F37.5
ssVcom.jingdong.app.mall
p1156
(dp1157
g10
F0.90000000000000002
ssVcom.android.soundrecorder
p1158
(dp1159
g10
F1.3
ssVcom.android.phone
p1160
(dp1161
g10
F2.2000000000000002
ssVcom.happyelements.AndroidAnimal
p1162
(dp1163
g10
F3.0999999999999996
ssVcom.miui.home
p1164
(dp1165
g10
F23.499999999999996
ssVcom.tencent.mobileqq
p1166
(dp1167
g10
F9.2000000000000011
ssVcom.android.calculator2
p1168
(dp1169
g10
F1.7
sssg95
(dp1170
g578
(dp1171
g10
F0.90000000000000002
ssVcom.android.browser
p1172
(dp1173
g10
F2.2000000000000002
ssVcom.miui.gallery
p1174
(dp1175
g10
F0.69999999999999996
ssVcom.fenbi.android.servant
p1176
(dp1177
g10
F0.40000000000000002
ssVcom.tencent.mm
p1178
(dp1179
g10
F17.300000000000004
ssVcom.sina.weibo
p1180
(dp1181
g10
F2.6000000000000001
ssg666
(dp1182
g10
F1.8
ssVcom.android.mms
p1183
(dp1184
g10
F12.099999999999998
ssVcom.xiaomi.market
p1185
(dp1186
g10
F0.69999999999999996
ssVcom.hyt.android.examin
p1187
(dp1188
g10
F6.7000000000000011
ssVcom.netease.mobimail
p1189
(dp1190
g10
F4.5999999999999996
ssVcom.android.phone
p1191
(dp1192
g10
I2
ssVcom.android.camera
p1193
(dp1194
g10
F4.2000000000000002
ssVcom.miui.home
p1195
(dp1196
g10
F106.7000000000001
ssVcom.tencent.mobileqq
p1197
(dp1198
g10
F17.600000000000001
ssVcom.miui.antispam
p1199
(dp1200
g10
I1
ssVcom.eg.android.AlipayGphone
p1201
(dp1202
g10
F6.4000000000000004
sssg97
(dp1203
Vcom.miui.home
p1204
(dp1205
g10
F1.7
ssVcom.tencent.mobileqq
p1206
(dp1207
g10
F0.90000000000000002
sssg99
(dp1208
Vcom.miui.home
p1209
(dp1210
g10
F2.7000000000000002
ssVcom.tencent.mm
p1211
(dp1212
g10
F0.90000000000000002
ssVcom.android.calculator2
p1213
(dp1214
g10
F0.40000000000000002
sssg101
(dp1215
Vcom.kugou.android
p1216
(dp1217
g10
F3.2999999999999998
ssVcom.android.browser
p1218
(dp1219
g10
F2.7000000000000002
ssVcom.hyt.android.examin
p1220
(dp1221
g10
F0.90000000000000002
ssVcom.MobileTicket
p1222
(dp1223
g10
F1.3
ssg858
(dp1224
g10
F0.69999999999999996
ssVcom.sina.weibo
p1225
(dp1226
g10
F3.5
ssVcom.android.phone
p1227
(dp1228
g10
F0.90000000000000002
ssVcom.android.mms
p1229
(dp1230
g10
F2.7000000000000002
ssVcom.xiaomi.market
p1231
(dp1232
g10
I1
ssVcom.android.deskclock
p1233
(dp1234
g10
I1
ssVair.fyzb3
p1235
(dp1236
g10
F3.1000000000000001
ssg1079
(dp1237
g10
F0.40000000000000002
ssVcom.android.settings
p1238
(dp1239
g10
I1
ssVcom.miui.home
p1240
(dp1241
g10
F43.399999999999999
ssVcom.tencent.mm
p1242
(dp1243
g10
F12.100000000000001
ssVcom.tencent.mobileqq
p1244
(dp1245
g10
F4.9000000000000004
sssg103
(dp1246
Vcom.miui.home
p1247
(dp1248
g10
F2.7000000000000002
ssVcom.tencent.mobileqq
p1249
(dp1250
g10
F0.90000000000000002
sssg105
(dp1251
Vcom.tencent.mm
p1252
(dp1253
g10
F1.3999999999999999
ssVcom.miui.home
p1254
(dp1255
g10
F6.4000000000000004
ssVcom.tencent.mobileqq
p1256
(dp1257
g10
F1.8
ssVcom.android.mms
p1258
(dp1259
g10
I1
ssVcom.android.settings
p1260
(dp1261
g10
I1
sssg107
(dp1262
g11
(dp1263
g10
F78.000000000000014
ssVco.runner.app
p1264
(dp1265
g10
F3.8999999999999999
ssVcom.youdao.dict
p1266
(dp1267
g10
F0.90000000000000002
ssg972
(dp1268
g10
F4.9000000000000004
ssVcom.comingx.athit
p1269
(dp1270
g10
F18.599999999999998
ssg1064
(dp1271
g10
F2.7000000000000002
ssg31
(dp1272
g10
F12.300000000000001
ssg899
(dp1273
g10
F2.5
ssg519
(dp1274
g10
F2
ssg387
(dp1275
g10
F0.90000000000000002
ssg39
(dp1276
g10
F49.699999999999989
ssVcom.sina.weibo
p1277
(dp1278
g10
F47.199999999999982
ssVcom.yixia.xiaokaxiu
p1279
(dp1280
g10
F21.399999999999991
ssVcom.eg.android.AlipayGphone
p1281
(dp1282
g10
F22.099999999999991
ssVcom.zhihu.android
p1283
(dp1284
g10
F8
ssg1082
(dp1285
g10
F7.1000000000000005
ssg57
(dp1286
g10
F6.1000000000000014
ssVcom.chinamworld.main
p1287
(dp1288
g10
F10.5
ssg202
(dp1289
g10
F8.5
ssg65
(dp1290
g10
F0.90000000000000002
ssVcom.android.packageinstaller
p1291
(dp1292
g10
F5.7999999999999998
ssg588
(dp1293
g10
F0.40000000000000002
ssVcom.android.soundrecorder
p1294
(dp1295
g10
F11.1
ssVcom.jingdong.app.mall
p1296
(dp1297
g10
I1
ssVair.fyzb3
p1298
(dp1299
g10
F7.2000000000000002
ssg1098
(dp1300
g10
F4.6000000000000005
ssg85
(dp1301
g10
F38.200000000000003
ssVcom.alibaba.android.rimet
p1302
(dp1303
g10
F1.8999999999999999
ssVcom.miui.home
p1304
(dp1305
g10
F1980.0000000000293
ssVcom.tencent.mobileqq
p1306
(dp1307
g10
F630.19999999999413
ssVcom.miui.antispam
p1308
(dp1309
g10
F16.399999999999999
ssg95
(dp1310
g10
F21.599999999999994
ssg99
(dp1311
g10
F0.90000000000000002
ssg101
(dp1312
g10
F13.6
ssg1020
(dp1313
g10
F1.3
ssg41
(dp1314
g10
F12.400000000000002
ssg227
(dp1315
g10
F20.199999999999999
ssVcom.android.systemui
p1316
(dp1317
g10
F1.6000000000000001
ssVcom.xiaomi.market
p1318
(dp1319
g10
F7.1000000000000014
ssg1120
(dp1320
g10
F7.0000000000000009
ssVcom.miui.yellowpage
p1321
(dp1322
g10
F1.3
ssVcom.happyelements.AndroidAnimal
p1323
(dp1324
g10
F23.299999999999994
ssg125
(dp1325
g10
F0.69999999999999996
ssg1129
(dp1326
g10
F2.6000000000000001
ssg535
(dp1327
g10
F14.5
ssg243
(dp1328
g10
F3.9999999999999996
ssVcom.android.calendar
p1329
(dp1330
g10
F6.5000000000000009
ssVcom.android.settings
p1331
(dp1332
g10
F39.499999999999986
ssVcom.android.mms
p1333
(dp1334
g10
F174.50000000000017
ssVcom.baidu.BaiduMap
p1335
(dp1336
g10
F15.199999999999996
ssg566
(dp1337
g10
F0.90000000000000002
ssVtv.pps.mobile
p1338
(dp1339
g10
F8.2000000000000011
ssVcom.miui.networkassistant
p1340
(dp1341
g10
I3
ssg153
(dp1342
g10
F1.3
ssg255
(dp1343
g10
F1.3
ssg157
(dp1344
g10
F0.90000000000000002
ssg1052
(dp1345
g10
F48.099999999999973
ssg163
(dp1346
g10
I1
sssg109
(dp1347
Vcom.android.browser
p1348
(dp1349
g10
F8.5999999999999996
ssVorg.mozilla.firefox
p1350
(dp1351
g10
I1
ssVco.runner.app
p1352
(dp1353
g10
I2
ssg266
(dp1354
g10
I1
ssVcom.fenbi.android.servant
p1355
(dp1356
g10
I3
ssVcom.zhihu.android
p1357
(dp1358
g10
F3.0999999999999996
ssVcom.tencent.mobileqq
p1359
(dp1360
g10
F12.700000000000001
ssVcom.sina.weibo
p1361
(dp1362
g10
F6.4000000000000004
ssVcom.meitu.meipaimv
p1363
(dp1364
g10
F0.90000000000000002
ssVcom.android.mms
p1365
(dp1366
g10
I1
ssVcom.android.deskclock
p1367
(dp1368
g10
F0.90000000000000002
ssVcom.android.settings
p1369
(dp1370
g10
I1
ssg186
(dp1371
g10
F0.69999999999999996
ssVcom.netease.mobimail
p1372
(dp1373
g10
F4.5999999999999996
ssVsogou.mobile.explorer
p1374
(dp1375
g10
F0.40000000000000002
ssg13
(dp1376
g10
F0.90000000000000002
ssVcom.miui.home
p1377
(dp1378
g10
F55.79999999999999
ssVcom.tencent.mm
p1379
(dp1380
g10
F16.200000000000003
ssVcom.yixia.xiaokaxiu
p1381
(dp1382
g10
F1.7000000000000002
ssVcom.eg.android.AlipayGphone
p1383
(dp1384
g10
F0.90000000000000002
ssVcom.android.calculator2
p1385
(dp1386
g10
F0.40000000000000002
sssg111
(dp1387
Vcom.android.settings
p1388
(dp1389
g10
I1
ssVcom.miui.home
p1390
(dp1391
g10
F3.1999999999999997
ssVcom.sina.weibo
p1392
(dp1393
g10
I1
ssVcom.miui.barcodescanner
p1394
(dp1395
g10
F0.69999999999999996
ssVcom.zhihu.android
p1396
(dp1397
g10
F0.69999999999999996
sssg113
(dp1398
Vcom.android.browser
p1399
(dp1400
g10
F3.3999999999999999
ssg25
(dp1401
g10
F0.69999999999999996
ssg358
(dp1402
g10
F0.40000000000000002
ssg13
(dp1403
g10
F0.40000000000000002
ssg39
(dp1404
g10
F0.90000000000000002
ssg77
(dp1405
g10
F1.3
ssg51
(dp1406
g10
F0.90000000000000002
ssg59
(dp1407
g10
F0.40000000000000002
ssg67
(dp1408
g10
F0.69999999999999996
ssVcom.android.soundrecorder
p1409
(dp1410
g10
F0.90000000000000002
ssg121
(dp1411
g10
F0.90000000000000002
ssVair.fyzb3
p1412
(dp1413
g10
F1.3
ssVcom.nowcoder.app.florida
p1414
(dp1415
g10
F0.69999999999999996
ssg83
(dp1416
g10
F1.3
ssg87
(dp1417
g10
F1.3
ssVcom.miui.home
p1418
(dp1419
g10
F37.899999999999999
ssVcom.tencent.mobileqq
p1420
(dp1421
g10
F2.7000000000000002
ssg101
(dp1422
g10
F1.7
ssVcom.kugou.android
p1423
(dp1424
g10
F0.90000000000000002
ssVcom.android.fileexplorer
p1425
(dp1426
g10
F0.90000000000000002
ssg33
(dp1427
g10
F1.7000000000000002
ssg479
(dp1428
g10
F0.40000000000000002
ssVcom.tencent.mm
p1429
(dp1430
g10
F6.2000000000000002
ssg959
(dp1431
g10
F0.69999999999999996
ssVtv.pps.mobile
p1432
(dp1433
g10
F0.90000000000000002
sssg115
(dp1434
Vcom.android.browser
p1435
(dp1436
g10
F3.2999999999999998
ssg318
(dp1437
g10
F2.7000000000000002
ssg61
(dp1438
g10
F4.7000000000000002
ssVcom.tencent.mobileqq
p1439
(dp1440
g10
F7.7000000000000011
ssVcom.android.mms
p1441
(dp1442
g10
I1
ssVcom.baidu.netdisk
p1443
(dp1444
g10
F1.3999999999999999
ssg145
(dp1445
g10
I1
ssg362
(dp1446
g10
F1.7
ssVcom.UCMobile
p1447
(dp1448
g10
I1
ssg65
(dp1449
g10
F0.40000000000000002
ssg159
(dp1450
g10
F0.90000000000000002
ssVcom.android.camera
p1451
(dp1452
g10
F0.90000000000000002
ssVcom.miui.home
p1453
(dp1454
g10
F29.499999999999996
ssVcom.tencent.mm
p1455
(dp1456
g10
F5.7000000000000011
sssg117
(dp1457
Vcom.android.browser
p1458
(dp1459
g10
F2.5
ssVorg.mozilla.firefox
p1460
(dp1461
g10
F0.80000000000000004
ssVcom.android.settings
p1462
(dp1463
g10
F0.90000000000000002
ssVcom.UCMobile
p1464
(dp1465
g10
F3.2999999999999998
ssVcom.miui.home
p1466
(dp1467
g10
F13.4
ssVcom.tencent.mobileqq
p1468
(dp1469
g10
F1.3
sssg119
(dp1470
Vcom.miui.home
p1471
(dp1472
g10
F2.3999999999999999
ssVcom.android.soundrecorder
p1473
(dp1474
g10
F1.3
ssVcom.android.phone
p1475
(dp1476
g10
F3.7000000000000002
sssg121
(dp1477
g33
(dp1478
g10
F0.90000000000000002
ssVcom.miui.home
p1479
(dp1480
g10
I1
sssg123
(dp1481
Vcom.android.camera
p1482
(dp1483
g10
F0.90000000000000002
ssVcom.tencent.mm
p1484
(dp1485
g10
F0.40000000000000002
ssVcom.miui.home
p1486
(dp1487
g10
F6.0000000000000009
ssVcom.tencent.mobileqq
p1488
(dp1489
g10
F1.6000000000000001
ssVcom.android.mms
p1490
(dp1491
g10
I1
sssg125
(dp1492
Vcom.miui.home
p1493
(dp1494
g10
F5.1000000000000005
ssVcom.tencent.mm
p1495
(dp1496
g10
F1.3
ssg1318
(dp1497
g10
F0.40000000000000002
sssg127
(dp1498
Vcom.android.browser
p1499
(dp1500
g10
F1.7000000000000002
ssVcom.miui.home
p1501
(dp1502
g10
F4.4000000000000004
ssVcom.xiaomi.market
p1503
(dp1504
g10
F0.90000000000000002
sssg129
(dp1505
Vcom.android.browser
p1506
(dp1507
g10
F0.90000000000000002
ssg527
(dp1508
g10
F1.7
ssVcom.tencent.mobileqq
p1509
(dp1510
g10
F6.6000000000000005
ssVcom.sina.weibo
p1511
(dp1512
g10
I1
ssVcom.android.mms
p1513
(dp1514
g10
I1
ssVcom.android.phone
p1515
(dp1516
g10
F1.7
ssVcom.miui.home
p1517
(dp1518
g10
F16.200000000000003
ssVcom.tencent.mm
p1519
(dp1520
g10
F2.7999999999999998
sssg131
(dp1521
Vcom.android.browser
p1522
(dp1523
g10
F4.2999999999999998
ssVorg.mozilla.firefox
p1524
(dp1525
g10
F0.90000000000000002
ssVcom.tencent.mm
p1526
(dp1527
g10
F11.300000000000001
ssVcom.comingx.athit
p1528
(dp1529
g10
I1
ssVcom.android.mms
p1530
(dp1531
g10
F0.69999999999999996
ssVcom.android.fileexplorer
p1532
(dp1533
g10
F2.7000000000000002
ssVcom.netease.mobimail
p1534
(dp1535
g10
F1.6000000000000001
ssg652
(dp1536
g10
F1.3999999999999999
ssVcom.android.camera
p1537
(dp1538
g10
F4.4000000000000004
ssVcom.miui.home
p1539
(dp1540
g10
F14.800000000000001
ssVcom.tencent.mobileqq
p1541
(dp1542
g10
F14.000000000000002
sssg133
(dp1543
Vcom.android.browser
p1544
(dp1545
g10
F4.4000000000000004
ssg1031
(dp1546
g10
F0.90000000000000002
ssVcn.wps.moffice_eng
p1547
(dp1548
g10
I1
ssVcom.tencent.mobileqq
p1549
(dp1550
g10
F1.6000000000000001
ssg1294
(dp1551
g10
F0.69999999999999996
ssg81
(dp1552
g10
F0.90000000000000002
ssVcom.happyelements.AndroidAnimal
p1553
(dp1554
g10
F0.90000000000000002
ssVcom.android.camera
p1555
(dp1556
g10
F1.8
ssVcom.miui.home
p1557
(dp1558
g10
F19.499999999999996
ssVcom.tencent.mm
p1559
(dp1560
g10
F3.8999999999999999
sssg135
(dp1561
Vcom.android.browser
p1562
(dp1563
g10
F1.6000000000000001
ssVcom.tencent.mobileqq
p1564
(dp1565
g10
F5
ssg1443
(dp1566
g10
F0.69999999999999996
ssVcom.xiaomi.market
p1567
(dp1568
g10
F0.40000000000000002
ssg364
(dp1569
g10
F1.8
ssVcom.qihoo.browser
p1570
(dp1571
g10
F0.90000000000000002
ssVcom.netease.mobimail
p1572
(dp1573
g10
F0.69999999999999996
ssVsogou.mobile.explorer
p1574
(dp1575
g10
I1
ssVcom.miui.home
p1576
(dp1577
g10
F10.900000000000002
ssVcom.tencent.mm
p1578
(dp1579
g10
F3.2999999999999998
ssVcom.android.settings
p1580
(dp1581
g10
F1.3
sssg137
(dp1582
Vcom.chinamworld.main
p1583
(dp1584
g10
F0.40000000000000002
ssVcom.tencent.mobileqq
p1585
(dp1586
g10
F9.6000000000000014
ssVair.fyzb3
p1587
(dp1588
g10
I1
ssVcom.netease.mobimail
p1589
(dp1590
g10
F1.3
ssVcom.happyelements.AndroidAnimal
p1591
(dp1592
g10
F0.40000000000000002
ssVcom.android.camera
p1593
(dp1594
g10
F0.40000000000000002
ssVcom.miui.home
p1595
(dp1596
g10
F28.699999999999992
ssVcom.tencent.mm
p1597
(dp1598
g10
F9.1999999999999993
sssg139
(dp1599
g8
(dp1600
g10
F4.4000000000000004
ssVcom.android.browser
p1601
(dp1602
g10
F13.300000000000002
ssVcom.comingx.athit
p1603
(dp1604
g10
F3.4000000000000004
ssVcom.android.thememanager
p1605
(dp1606
g10
F3.4000000000000004
ssVcom.UCMobile
p1607
(dp1608
g10
F0.69999999999999996
ssVcom.sina.weibo
p1609
(dp1610
g10
F1.8
ssVcom.eg.android.AlipayGphone
p1611
(dp1612
g10
F0.40000000000000002
ssVcom.zhihu.android
p1613
(dp1614
g10
F1.7000000000000002
ssVorg.mozilla.firefox
p1615
(dp1616
g10
F0.90000000000000002
ssg61
(dp1617
g10
F0.69999999999999996
ssVcom.sankuai.meituan
p1618
(dp1619
g10
F0.90000000000000002
ssg1158
(dp1620
g10
F0.69999999999999996
ssVcom.nowcoder.app.florida
p1621
(dp1622
g10
F1.7
ssVsogou.mobile.explorer
p1623
(dp1624
g10
F9.2000000000000011
ssVcom.miui.home
p1625
(dp1626
g10
F77.300000000000026
ssVcom.tencent.mobileqq
p1627
(dp1628
g10
F23.799999999999994
ssg214
(dp1629
g10
F2.7000000000000002
ssVcom.fenbi.android.servant
p1630
(dp1631
g10
F1.7
ssg1316
(dp1632
g10
I1
ssVcom.android.fileexplorer
p1633
(dp1634
g10
F1.6000000000000001
ssVcom.android.camera
p1635
(dp1636
g10
F3.3999999999999999
ssVcom.tencent.mm
p1637
(dp1638
g10
F13.800000000000001
ssVcom.android.mms
p1639
(dp1640
g10
F4.2000000000000002
ssg950
(dp1641
g10
F8.0999999999999996
ssVcom.miui.yellowpage
p1642
(dp1643
g10
F0.69999999999999996
sssg141
(dp1644
g1435
(dp1645
g10
F12.100000000000003
ssVco.runner.app
p1646
(dp1647
g10
F0.40000000000000002
ssVcom.ss.android.article.news
p1648
(dp1649
g10
I1
ssg863
(dp1650
g10
F2.2999999999999998
ssVcom.android.thememanager
p1651
(dp1652
g10
F0.40000000000000002
ssVcom.android.deskclock
p1653
(dp1654
g10
F4.4000000000000004
ssg521
(dp1655
g10
F22.199999999999996
ssVcom.sina.weibo
p1656
(dp1657
g10
F10.799999999999999
ssg1075
(dp1658
g10
F16
ssg57
(dp1659
g10
F0.40000000000000002
ssVcom.chinamworld.main
p1660
(dp1661
g10
F5.4000000000000012
ssVcom.sankuai.meituan
p1662
(dp1663
g10
F0.69999999999999996
ssVcom.android.soundrecorder
p1664
(dp1665
g10
F4.4000000000000004
ssg1156
(dp1666
g10
I1
ssVcom.taobao.taobao
p1667
(dp1668
g10
I1
ssVoffcn.adnroid.newsletter_politics
p1669
(dp1670
g10
I1
ssVcom.android.phone
p1671
(dp1672
g10
F21.899999999999999
ssVcom.alibaba.android.rimet
p1673
(dp1674
g10
F1.7
ssVcom.miui.home
p1675
(dp1676
g10
F413.79999999999853
ssVcom.tencent.mm
p1677
(dp1678
g10
F100.7000000000001
ssVcom.miui.antispam
p1679
(dp1680
g10
F31.099999999999994
ssVcom.android.calculator2
p1681
(dp1682
g10
F6.8000000000000007
ssVcom.fenbi.android.servant
p1683
(dp1684
g10
F2.8999999999999999
ssVsogou.mobile.explorer
p1685
(dp1686
g10
F1.8999999999999999
ssVcom.kugou.android
p1687
(dp1688
g10
F2.6000000000000001
ssg431
(dp1689
g10
F2.2000000000000002
ssg1642
(dp1690
g10
F0.40000000000000002
ssVcom.happyelements.AndroidAnimal
p1691
(dp1692
g10
F4.5
ssg1126
(dp1693
g10
F1.3999999999999999
ssg125
(dp1694
g10
F1.7
ssVcom.miui.player
p1695
(dp1696
g10
F0.90000000000000002
ssg1627
(dp1697
g10
F132.10000000000028
ssVcom.MobileTicket
p1698
(dp1699
g10
F0.69999999999999996
ssVcom.miui.gallery
p1700
(dp1701
g10
F2.9999999999999996
ssg133
(dp1702
g10
F1.8
ssVcom.android.calendar
p1703
(dp1704
g10
F0.40000000000000002
ssg1135
(dp1705
g10
F12.700000000000001
ssVcom.baidu.BaiduMap
p1706
(dp1707
g10
I1
ssg1069
(dp1708
g10
F0.90000000000000002
ssVtv.pps.mobile
p1709
(dp1710
g10
I1
ssg99
(dp1711
g10
F0.69999999999999996
ssg161
(dp1712
g10
F6.6000000000000005
sssg143
(dp1713
Vcom.android.browser
p1714
(dp1715
g10
F1.8
ssVcom.android.settings
p1716
(dp1717
g10
I1
ssg1662
(dp1718
g10
F0.90000000000000002
ssVcom.android.mms
p1719
(dp1720
g10
F0.90000000000000002
ssVcom.netease.mobimail
p1721
(dp1722
g10
F0.90000000000000002
ssVcom.android.camera
p1723
(dp1724
g10
F2.2000000000000002
ssVcom.miui.home
p1725
(dp1726
g10
F38.799999999999997
ssVcom.tencent.mm
p1727
(dp1728
g10
F16.399999999999999
ssVcom.eg.android.AlipayGphone
p1729
(dp1730
g10
F0.90000000000000002
ssVcom.tencent.mobileqq
p1731
(dp1732
g10
F2.7000000000000002
sssg145
(dp1733
Vcom.tencent.mobileqq
p1734
(dp1735
g10
F0.40000000000000002
ssVcom.miui.home
p1736
(dp1737
g10
F2.7000000000000002
ssVcom.tencent.mm
p1738
(dp1739
g10
F0.90000000000000002
sssg147
(dp1740
Vcom.miui.home
p1741
(dp1742
g10
F1.7
ssVcom.fenbi.android.servant
p1743
(dp1744
g10
F1.3
sssg149
(dp1745
Vcom.android.browser
p1746
(dp1747
g10
F1.3999999999999999
ssg49
(dp1748
g10
F0.40000000000000002
ssVcom.tencent.mobileqq
p1749
(dp1750
g10
F18.400000000000002
ssg109
(dp1751
g10
F0.90000000000000002
ssVcom.android.mms
p1752
(dp1753
g10
F1.6000000000000001
ssg866
(dp1754
g10
F0.80000000000000004
ssg79
(dp1755
g10
F3.6000000000000001
ssVcom.netease.mobimail
p1756
(dp1757
g10
F1.8
ssVcom.android.phone
p1758
(dp1759
g10
I1
ssVcom.happyelements.AndroidAnimal
p1760
(dp1761
g10
F0.90000000000000002
ssVcom.miui.home
p1762
(dp1763
g10
F49.500000000000007
ssVcom.tencent.mm
p1764
(dp1765
g10
F12.400000000000004
ssVcom.eg.android.AlipayGphone
p1766
(dp1767
g10
I1
sssg151
(dp1768
Vcom.tencent.mobileqq
p1769
(dp1770
g10
F0.69999999999999996
ssVcom.miui.home
p1771
(dp1772
g10
F3.2999999999999998
ssVcom.tencent.mm
p1773
(dp1774
g10
I2
sssg153
(dp1775
Vcom.miui.home
p1776
(dp1777
g10
F2.7000000000000002
ssVcom.tencent.mm
p1778
(dp1779
g10
F1.3
sssg155
(dp1780
Vcom.android.browser
p1781
(dp1782
g10
F4.2999999999999998
ssVcom.tencent.mobileqq
p1783
(dp1784
g10
F1.8
ssVcom.android.packageinstaller
p1785
(dp1786
g10
F0.40000000000000002
ssVcom.sina.weibo
p1787
(dp1788
g10
F0.69999999999999996
ssVcom.miui.home
p1789
(dp1790
g10
F5.8999999999999995
ssVcom.tencent.mm
p1791
(dp1792
g10
F2.2999999999999998
sssg157
(dp1793
sg159
(dp1794
Vcom.android.browser
p1795
(dp1796
g10
I1
ssVcom.miui.home
p1797
(dp1798
g10
F0.90000000000000002
ssVcn.wps.moffice_eng
p1799
(dp1800
g10
F0.40000000000000002
ssVcom.android.fileexplorer
p1801
(dp1802
g10
F0.69999999999999996
sssg161
(dp1803
Vcom.android.browser
p1804
(dp1805
g10
F3.5
ssVcom.miui.gallery
p1806
(dp1807
g10
F9
ssVcom.miui.notes
p1808
(dp1809
g10
F0.90000000000000002
ssg1176
(dp1810
g10
F1.3
ssVcom.zhihu.android
p1811
(dp1812
g10
F1.8
ssVcom.tencent.mobileqq
p1813
(dp1814
g10
F37.799999999999969
ssVcom.android.phone
p1815
(dp1816
g10
I1
ssVcom.android.mms
p1817
(dp1818
g10
F5.7999999999999998
ssVcom.android.soundrecorder
p1819
(dp1820
g10
F1.8
ssVcom.android.fileexplorer
p1821
(dp1822
g10
F1.7000000000000002
ssVcom.netease.mobimail
p1823
(dp1824
g10
F0.69999999999999996
ssVcom.android.settings
p1825
(dp1826
g10
F7.2000000000000002
ssVcom.happyelements.AndroidAnimal
p1827
(dp1828
g10
F0.90000000000000002
ssVsogou.mobile.explorer
p1829
(dp1830
g10
F1.7000000000000002
ssVcom.miui.home
p1831
(dp1832
g10
F145.00000000000003
ssVcom.tencent.mm
p1833
(dp1834
g10
F24.099999999999991
ssVcom.eg.android.AlipayGphone
p1835
(dp1836
g10
F0.40000000000000002
ssVcom.android.calculator2
p1837
(dp1838
g10
F0.69999999999999996
sssg163
(dp1839
Vcom.miui.home
p1840
(dp1841
g10
F1.7
ssVcom.tencent.mm
p1842
(dp1843
g10
F0.90000000000000002
ssVcom.eg.android.AlipayGphone
p1844
(dp1845
g10
F0.40000000000000002
sssg165
(dp1846
ssS'edge'
p1847
g170
sS'pred'
p1848
(dp1849
g8
(dp1850
Vcom.android.settings
p1851
g1600
sVcom.miui.home
p1852
g966
sVcom.tencent.mobileqq
p1853
g1056
ssg11
(dp1854
g405
g279
sVcom.ss.android.article.news
p1855
g294
sVcom.comingx.athit
p1856
g317
sg1651
g368
sg1464
g1563
sg519
g425
sVcom.miui.gallery
p1857
g1523
sVcom.netease.mobimail
p1858
g440
sVcom.sina.weibo
p1859
g512
sVcom.eg.android.AlipayGphone
p1860
g584
sg51
g614
sg1357
g625
sg1350
g643
sVcom.chinamworld.main
p1861
g689
sVcn.wps.moffice_eng
p1862
g711
sg692
g743
sg1004
g820
sVair.fyzb3
p1863
g855
sVcom.nowcoder.app.florida
p1864
g881
sVcom.android.phone
p1865
g917
sVcom.miui.home
p1866
g967
sVcom.tencent.mm
p1867
g1263
sVcom.miui.antispam
p1868
g1150
sVcom.android.calculator2
p1869
g1173
sVcom.fenbi.android.servant
p1870
g1219
sg652
g489
sg227
g1349
sVcom.xiaomi.market
p1871
g1400
sVcom.android.fileexplorer
p1872
g1436
sg117
g1459
sVcom.happyelements.AndroidAnimal
p1873
g402
sg1084
g661
sVcom.tencent.mobileqq
p1874
g1057
sVcom.MobileTicket
p1875
g1507
sg127
g1500
sg243
g1545
sg257
g1602
sVcom.android.mms
p1876
g1645
sg251
g1715
sVtv.pps.mobile
p1877
g1747
sg632
g1782
sg159
g1796
sVcom.android.camera
p1878
g1805
ssg13
(dp1879
Vcom.miui.home
p1880
g968
sg1423
g1376
sVcom.xiaomi.market
p1881
g1403
ssg15
(dp1882
Vcom.kugou.android
p1883
g1353
sVcom.android.browser
p1884
g176
sg91
g1058
sVcom.sina.weibo
p1885
g514
sVcom.android.mms
p1886
g1647
sg1105
g969
sg273
g1265
ssg17
(dp1887
g1873
g406
sVcom.tencent.mm
p1888
g1267
sVcom.miui.home
p1889
g971
sVcom.tencent.mobileqq
p1890
g1059
ssg19
(dp1891
Vcom.tencent.mobileqq
p1892
g1061
sVcom.miui.home
p1893
g973
sVcom.tencent.mm
p1894
g1268
sg299
g1649
ssg21
(dp1895
sg23
(dp1896
Vcom.android.browser
p1897
g178
sVcom.miui.gallery
p1898
g1529
sg320
g715
sVcom.tencent.mobileqq
p1899
g1063
sg326
g747
sg748
g1650
sVcom.android.calculator2
p1900
g1182
sVair.fyzb3
p1901
g864
sVcom.netease.mobimail
p1902
g442
sg342
g516
sVcom.miui.home
p1903
g974
sVcom.tencent.mm
p1904
g1270
sVcom.yixia.xiaokaxiu
p1905
g842
sg1187
g667
sg322
g1604
ssg25
(dp1906
g1447
g1566
sg1399
g179
sVcom.miui.home
p1907
g975
sg364
g1444
sVcom.xiaomi.market
p1908
g1401
ssg27
(dp1909
g511
g181
sVcom.tencent.mobileqq
p1910
g1065
sVcom.android.mms
p1911
g1652
sg1865
g930
sVcom.miui.home
p1912
g976
sVcom.tencent.mm
p1913
g1271
sVcom.android.settings
p1914
g1606
ssg29
(dp1915
Vcom.miui.home
p1916
g978
ssg31
(dp1917
Vcom.kugou.android
p1918
g1368
sVcom.android.browser
p1919
g183
sVcom.youdao.dict
p1920
g283
sVcom.fenbi.android.servant
p1921
g1234
sVcom.tencent.mm
p1922
g1272
sVcom.comingx.athit
p1923
g333
sVcom.android.mms
p1924
g1654
sVcom.android.phone
p1925
g934
sVcom.happyelements.AndroidAnimal
p1926
g412
sVcom.miui.home
p1927
g980
sVcom.sina.weibo
p1928
g518
sVcom.tencent.mobileqq
p1929
g1067
ssg33
(dp1930
Vcom.android.browser
p1931
g236
sg1432
g1761
sVcom.miui.notes
p1932
g1554
sg405
g285
sVcom.android.calendar
p1933
g1592
sVcom.tencent.mm
p1934
g1324
sVcom.sina.weibo
p1935
g549
sg413
g942
sVcom.android.mms
p1936
g1692
sg303
g1427
sVcom.android.deskclock
p1937
g396
sVair.fyzb3
p1938
g871
sg1094
g794
sg121
g1478
sVcom.android.camera
p1939
g1828
sVcom.miui.home
p1940
g981
sVcom.tencent.mobileqq
p1941
g1125
sVcom.miui.antispam
p1942
g1163
ssg35
(dp1943
g1348
g187
sVcom.miui.home
p1944
g982
sg200
g698
sVcom.tencent.mm
p1945
g1274
sg227
g1371
sg387
g433
sVcom.android.deskclock
p1946
g390
sVcom.netease.mobimail
p1947
g444
sg237
g672
sVcom.sina.weibo
p1948
g520
sVcom.eg.android.AlipayGphone
p1949
g593
ssg37
(dp1950
g1946
g388
sVcom.android.mms
p1951
g1708
sVcom.tencent.mm
p1952
g1275
sVcom.tencent.mobileqq
p1953
g1070
ssg39
(dp1954
Vcom.android.browser
p1955
g191
sVcom.comingx.athit
p1956
g341
sVcom.android.deskclock
p1957
g392
sVcom.UCMobile
p1958
g1573
sg1656
g522
sg523
g848
sVcom.eg.android.AlipayGphone
p1959
g595
sg198
g651
sVcn.wps.moffice_eng
p1960
g721
sg73
g817
sVcom.taobao.taobao
p1961
g829
sVcom.nowcoder.app.florida
p1962
g902
sg225
g501
sg459
g1535
sg1495
g1276
sVcom.android.calculator2
p1963
g1190
sVcom.android.phone
p1964
g938
sVcom.kugou.android
p1965
g1373
sg1318
g1404
sVcom.hyt.android.examin
p1966
g674
sVcom.miui.home
p1967
g984
sg479
g1590
sVcom.tencent.mobileqq
p1968
g1071
sVcom.android.mms
p1969
g1655
sVcom.baidu.BaiduMap
p1970
g1722
sg1877
g1757
sVcom.android.camera
p1971
g1824
ssg41
(dp1972
Vcom.kugou.android
p1973
g1375
sVcom.android.browser
p1974
g226
sg1524
g653
sg1857
g1536
sVcom.comingx.athit
p1975
g346
sVcom.tencent.mobileqq
p1976
g1115
sVcom.android.phone
p1977
g927
sVcom.android.mms
p1978
g1686
sg1607
g1575
sVcom.netease.mobimail
p1979
g468
sVcom.android.settings
p1980
g1624
sVcom.android.camera
p1981
g1830
sg504
g986
sVcom.tencent.mm
p1982
g1314
sVcom.hyt.android.examin
p1983
g678
sg51
g622
ssg43
(dp1984
Vcom.kugou.android
p1985
g1362
sVcom.android.browser
p1986
g205
sVcom.chinamworld.main
p1987
g691
sVcom.miui.barcodescanner
p1988
g1788
sVcom.fenbi.android.servant
p1989
g1226
sVcom.MobileTicket
p1990
g1512
sVcom.tencent.mobileqq
p1991
g1072
sVcom.comingx.athit
p1992
g343
sg1969
g1657
sg543
g1393
sVcom.taobao.taobao
p1993
g822
sVcom.nowcoder.app.florida
p1994
g892
sg521
g446
sVcom.android.settings
p1995
g1610
sVcom.miui.home
p1996
g987
sVcom.tencent.mm
p1997
g1278
sVcom.android.calculator2
p1998
g1181
ssg45
(dp1999
g1412
g876
sg67
g761
sg757
g988
ssg47
(dp2000
g578
g1384
sVcom.android.browser
p2001
g195
sVcom.chinamworld.main
p2002
g706
sg771
g1612
sVcom.tencent.mm
p2003
g1282
sVcom.sina.weibo
p2004
g526
sVcom.sankuai.meituan
p2005
g779
sVcom.android.mms
p2006
g1658
sVcom.baidu.BaiduMap
p2007
g1730
sVtv.pps.mobile
p2008
g1767
sVcom.netease.mobimail
p2009
g448
sVcom.android.soundrecorder
p2010
g804
sVcom.android.camera
p2011
g1836
sg163
g1845
sVcom.miui.home
p2012
g989
sVcom.tencent.mobileqq
p2013
g1076
sVcom.android.calculator2
p2014
g1202
ssg49
(dp2015
g264
g1354
sg1432
g1748
sg13
g267
sg1760
g422
sVcom.miui.home
p2016
g990
sg610
g1078
ssg51
(dp2017
Vcom.miui.home
p2018
g991
sVcom.hyt.android.examin
p2019
g659
sVcom.tencent.mobileqq
p2020
g1080
sVcom.fenbi.android.servant
p2021
g1237
sg668
g1406
ssg53
(dp2022
g624
g197
sg554
g1508
sVcom.tencent.mm
p2023
g1284
sg1511
g528
sg1316
g1397
sg628
g1358
sVcom.android.settings
p2024
g1614
sVcom.android.camera
p2025
g1812
sVcom.miui.home
p2026
g993
sVcom.tencent.mobileqq
p2027
g1081
ssg55
(dp2028
Vcom.android.browser
p2029
g199
sg491
g1525
sVcom.tencent.mobileqq
p2030
g1083
sg496
g1351
sg336
g1461
sVcom.netease.mobimail
p2031
g450
sg225
g490
sVcom.miui.home
p2032
g994
sVcom.tencent.mm
p2033
g1285
sg1462
g1616
ssg57
(dp2034
g1079
g620
sg660
g238
sg223
g1221
sVcom.tencent.mobileqq
p2035
g1085
sg666
g354
sVcom.android.mms
p2036
g1659
sg673
g474
sVcom.miui.home
p2037
g995
sVcom.tencent.mm
p2038
g1286
sg685
g1188
ssg59
(dp2039
g660
g201
sg237
g662
sVcom.android.calendar
p2040
g1584
sg690
g530
sVcom.tencent.mm
p2041
g1288
sg564
g1661
sg229
g1407
sg1947
g451
sVcom.happyelements.AndroidAnimal
p2042
g415
sVcom.miui.home
p2043
g996
sVcom.tencent.mobileqq
p2044
g1087
sg1835
g582
ssg61
(dp2045
Vcom.android.browser
p2046
g203
sVcom.miui.notes
p2047
g1548
sg1855
g296
sVcom.android.settings
p2048
g1617
sg515
g321
sg1633
g1438
sVcom.netease.mobimail
p2049
g453
sg159
g1800
sVcom.miui.home
p2050
g997
sVcom.tencent.mm
p2051
g1289
sVcom.tencent.mobileqq
p2052
g1088
ssg63
(dp2053
g734
g1670
ssg65
(dp2054
g231
g1449
sVcom.miui.home
p2055
g998
sVcom.tencent.mm
p2056
g1290
sVcom.tencent.mobileqq
p2057
g1089
sVcom.android.browser
p2058
g193
ssg67
(dp2059
Vcom.android.browser
p2060
g207
sg1861
g693
sVcom.tencent.mobileqq
p2061
g1091
sVcom.comingx.athit
p2062
g327
sg866
g1408
sg1412
g862
sg212
g882
sg255
g1786
sg872
g999
sVcom.tencent.mm
p2063
g1292
sg45
g574
ssg69
(dp2064
Vcom.ss.android.article.news
p2065
g298
sg771
g1619
sVcom.android.mms
p2066
g1663
sg1706
g1718
sVcom.miui.home
p2067
g1000
sVcom.tencent.mm
p2068
g1293
sVcom.eg.android.AlipayGphone
p2069
g589
sVcom.tencent.mobileqq
p2070
g1093
ssg71
(dp2071
Vcom.android.browser
p2072
g209
sVcom.miui.notes
p2073
g1551
sVcn.wps.moffice_eng
p2074
g722
sg1541
g1095
sVcom.android.mms
p2075
g1665
sg789
g1410
sVcom.android.camera
p2076
g1820
sVcom.netease.mobimail
p2077
g455
sVcom.android.phone
p2078
g928
sVcom.miui.yellowpage
p2079
g1474
sVcom.miui.home
p2080
g1002
sg1559
g1295
sg801
g1159
sg805
g1620
ssg73
(dp2081
g808
g1666
sVcom.nowcoder.app.florida
p2082
g896
sg816
g457
sVcom.miui.home
p2083
g1003
sVcom.tencent.mm
p2084
g1297
sg814
g1157
ssg75
(dp2085
g821
g532
sVcom.miui.home
p2086
g1005
sg825
g1668
ssg77
(dp2087
Vcom.chinamworld.main
p2088
g704
sg839
g1280
sVcom.kugou.android
p2089
g1382
sVcom.xiaomi.market
p2090
g1405
sVcom.android.phone
p2091
g936
sVcom.miui.home
p2092
g1006
sVcom.sina.weibo
p2093
g524
sVcom.tencent.mobileqq
p2094
g1074
ssg79
(dp2095
g854
g211
sg856
g1236
sg858
g1588
sVcom.tencent.mobileqq
p2096
g1097
sg67
g751
sg866
g1413
sVtv.pps.mobile
p2097
g1755
sVcom.miui.home
p2098
g1007
sVcom.tencent.mm
p2099
g1299
ssg81
(dp2100
g2060
g213
sVcom.miui.notes
p2101
g1552
sVcom.tencent.mm
p2102
g1300
sVcom.android.packageinstaller
p2103
g753
sg897
g1415
sVcom.android.settings
p2104
g1622
sVcom.miui.home
p2105
g1008
sVcom.tencent.mobileqq
p2106
g1099
ssg83
(dp2107
Vcom.comingx.athit
p2108
g339
sVcom.miui.home
p2109
g1009
sg1734
g1100
sVcom.xiaomi.market
p2110
g1416
ssg85
(dp2111
Vcom.android.browser
p2112
g215
sVcom.comingx.athit
p2113
g329
sVcom.android.deskclock
p2114
g394
sVcom.netease.mobimail
p2115
g458
sVcom.sina.weibo
p2116
g534
sVcom.eg.android.AlipayGphone
p2117
g597
sVcom.android.soundrecorder
p2118
g792
sVcom.taobao.taobao
p2119
g831
sg87
g964
sVcom.miui.home
p2120
g1010
sVcom.tencent.mm
p2121
g1301
sVcom.miui.antispam
p2122
g1161
sVcom.android.calculator2
p2123
g1192
sVcom.fenbi.android.servant
p2124
g1228
sg1321
g1476
sg1162
g414
sVcom.hyt.android.examin
p2125
g676
sVcom.tencent.mobileqq
p2126
g1102
sVcom.MobileTicket
p2127
g1516
sg257
g1629
sVcom.android.mms
p2128
g1672
sVtv.pps.mobile
p2129
g1759
sVcom.android.camera
p2130
g1816
ssg87
(dp2131
Vcom.hyt.android.examin
p2132
g680
sVcom.tencent.mm
p2133
g1303
sg959
g1674
sVcom.xiaomi.market
p2134
g1417
sg963
g945
sVcom.miui.home
p2135
g1011
sVcom.tencent.mobileqq
p2136
g1104
ssg89
(dp2137
Vcom.android.browser
p2138
g242
sg1646
g272
sg17
g287
sg19
g307
sg21
g312
sVcom.comingx.athit
p2139
g348
sg25
g361
sg180
g376
sg29
g381
sg979
g398
sVcom.happyelements.AndroidAnimal
p2140
g417
sg13
g263
sg566
g1737
sg39
g476
sg41
g505
sg43
g557
sg45
g576
sVcom.eg.android.AlipayGphone
p2141
g600
sg49
g609
sg51
g616
sg53
g638
sg55
g655
sVcom.hyt.android.examin
p2142
g682
sg2002
g700
sg61
g726
sVoffcn.adnroid.newsletter_politics
p2143
g733
sg192
g740
sg67
g758
sg69
g775
sVcom.android.soundrecorder
p2144
g798
sVcom.jingdong.app.mall
p2145
g811
sg75
g833
sg77
g850
sg79
g873
sg81
g908
sg83
g914
sVcom.android.phone
p2146
g947
sVcom.alibaba.android.rimet
p2147
g958
sg131
g1540
sg91
g1106
sg93
g1165
sg95
g1196
sg97
g1205
sg101
g1241
sg1020
g1248
sg105
g1255
sVcom.tencent.mm
p2148
g1305
sg109
g1378
sg111
g1391
sg113
g1419
sVcom.android.fileexplorer
p2149
g1454
sg117
g1467
sg2079
g1472
sg121
g1480
sg123
g1487
sg125
g1494
sg129
g1518
sg519
g427
sg127
g1502
sg2047
g1558
sg135
g1577
sg137
g1596
sg1135
g1626
sg141
g1676
sg143
g1726
sg1069
g435
sg147
g1742
sg149
g1763
sVcom.miui.networkassistant
p2150
g1772
sg153
g1777
sg632
g1790
sg99
g1210
sg159
g1798
sg161
g1832
sg163
g1841
ssg91
(dp2151
g11
g218
sVco.runner.app
p2152
g276
sg49
g611
sg21
g310
sg1269
g350
sVcom.android.thememanager
p2153
g370
sg517
g384
sg899
g1565
sg35
g429
sVcom.netease.mobimail
p2154
g482
sg1277
g553
sg1381
g852
sg2141
g602
sg1613
g627
sg55
g646
sg581
g708
sVcn.wps.moffice_eng
p2155
g728
sg2143
g731
sg2103
g745
sg69
g777
sVcom.android.soundrecorder
p2156
g784
sg75
g835
sVair.fyzb3
p2157
g875
sg81
g910
sVcom.android.phone
p2158
g949
sVcom.alibaba.android.rimet
p2159
g962
sVcom.miui.home
p2160
g1013
sg2148
g1307
sg93
g1167
sg95
g1198
sg97
g1207
sVcom.miui.networkassistant
p2161
g1770
sg101
g1245
sg1363
g1250
sVsogou.mobile.explorer
p2162
g509
sVcom.kugou.android
p2163
g1360
sg113
g1421
sg2149
g1440
sg233
g1469
sVcom.happyelements.AndroidAnimal
p2164
g408
sVcom.miui.weather2
p2165
g1489
sVcom.hyt.android.examin
p2166
g665
sg1129
g1510
sVcom.miui.gallery
p2167
g1542
sVcom.miui.notes
p2168
g1550
sg137
g1586
sg1135
g1628
sg1137
g1697
sg1139
g1732
sVcom.miui.video
p2169
g1735
sg1709
g1750
sg105
g1257
sg769
g1784
sVcom.android.camera
p2170
g1814
ssg93
(dp2171
Vcom.android.browser
p2172
g220
sg952
g1641
sVcom.sina.weibo
p2173
g540
sVcom.comingx.athit
p2174
g352
sg1154
g1680
sg895
g815
sVcom.android.soundrecorder
p2175
g802
sg2082
g911
sVcom.netease.mobimail
p2176
g464
sg1160
g951
sVcom.happyelements.AndroidAnimal
p2177
g421
sVcom.miui.home
p2178
g1015
sVcom.tencent.mm
p2179
g1309
sVcom.android.calculator2
p2180
g1200
sVcom.tencent.mobileqq
p2181
g1109
ssg95
(dp2182
g578
g1386
sVcom.android.browser
p2183
g222
sVcom.hyt.android.examin
p2184
g686
sVcom.youdao.dict
p2185
g291
sVcom.tencent.mm
p2186
g1310
sVcom.comingx.athit
p2187
g356
sVcom.android.soundrecorder
p2188
g788
sVcom.android.mms
p2189
g1682
sVcom.taobao.taobao
p2190
g837
sVair.fyzb3
p2191
g878
sVcom.netease.mobimail
p2192
g466
sVcom.offcn.android.onlineexamination.syyh
p2193
g1214
sVcom.android.camera
p2194
g1838
sVcom.miui.home
p2195
g1016
sVcom.tencent.mobileqq
p2196
g1110
sVcom.miui.antispam
p2197
g1169
sVcom.eg.android.AlipayGphone
p2198
g604
ssg97
(dp2199
Vcom.miui.home
p2200
g1017
ssg99
(dp2201
Vcom.tencent.mm
p2202
g1311
sVcom.miui.home
p2203
g1018
sVcom.android.mms
p2204
g1711
ssg101
(dp2205
g1216
g1356
sg1079
g618
sg619
g663
sVcom.android.browser
p2206
g224
sg1238
g1631
sVcom.sina.weibo
p2207
g542
sVcom.tencent.mm
p2208
g1312
sg1229
g1684
sVcom.xiaomi.market
p2209
g1422
sVair.fyzb3
p2210
g857
sVcom.android.camera
p2211
g1810
sVcom.miui.home
p2212
g1019
sg1244
g1112
sg147
g1744
sVcom.android.calculator2
p2213
g1177
ssg103
(dp2214
Vcom.kugou.android
p2215
g1364
sVcom.tencent.mm
p2216
g1313
sVcom.miui.home
p2217
g1021
sVcom.tencent.mobileqq
p2218
g1113
ssg105
(dp2219
Vcom.android.browser
p2220
g246
sVcom.miui.home
p2221
g1022
sVsogou.mobile.explorer
p2222
g493
ssg107
(dp2223
g1435
g248
sg1646
g274
sVcom.youdao.dict
p2224
g289
sg21
g314
sg2139
g325
sVcom.android.thememanager
p2225
g378
sg1937
g400
sg135
g1579
sVcom.netease.mobimail
p2226
g462
sVcom.sina.weibo
p2227
g538
sVcom.yixia.xiaokaxiu
p2228
g840
sg525
g587
sg49
g607
sg53
g640
sg55
g657
sg2142
g684
sVcom.chinamworld.main
p2229
g702
sg61
g713
sVcom.android.packageinstaller
p2230
g760
sg588
g764
sg1294
g800
sVcom.jingdong.app.mall
p2231
g813
sg2190
g824
sg2157
g861
sg81
g890
sg2158
g925
sVcom.alibaba.android.rimet
p2232
g956
sVcom.miui.home
p2233
g1023
sVcom.tencent.mobileqq
p2234
g1108
sg1679
g1153
sg95
g1179
sg1340
g1774
sg101
g1243
sVsogou.mobile.explorer
p2235
g507
sVcom.kugou.android
p2236
g1380
sg113
g1430
sg2149
g1456
sg2140
g419
sg2165
g1485
sVcom.android.email
p2237
g1496
sg1875
g1520
sVcom.miui.gallery
p2238
g1527
sg2073
g1560
sg137
g1598
sg1135
g1638
sg141
g1678
sVcom.baidu.BaiduMap
p2239
g1728
sg2169
g1739
sg149
g1765
sg105
g1253
sg153
g1779
sg570
g1792
sg2193
g1212
sg161
g1834
sg163
g1843
ssg109
(dp2240
Vcom.android.browser
p2241
g228
sg198
g647
sVco.runner.app
p2242
g270
sVcom.fenbi.android.servant
p2243
g1217
sg992
g629
sVcom.sina.weibo
p2244
g545
sg1365
g1688
sVcom.android.calculator2
p2245
g1171
sg1881
g1424
sg568
g1751
sg13
g265
sVcom.netease.mobimail
p2246
g470
sg225
g497
sVcom.miui.home
p2247
g1024
sVcom.tencent.mm
p2248
g1315
sVcom.eg.android.AlipayGphone
p2249
g579
sg1359
g1117
ssg111
(dp2250
Vcom.android.settings
p2251
g1632
sVcom.sina.weibo
p2252
g544
sVcom.miui.home
p2253
g1025
sVcom.tencent.mm
p2254
g1317
sVcom.tencent.mobileqq
p2255
g1118
ssg113
(dp2256
Vcom.UCMobile
p2257
g1568
sVcom.android.browser
p2258
g230
sg449
g648
sVcom.miui.home
p2259
g1026
sVcom.fenbi.android.servant
p2260
g1232
sg972
g304
sVcom.android.fileexplorer
p2261
g1446
sVcom.tencent.mobileqq
p2262
g1119
sg1787
g547
sVcom.android.soundrecorder
p2263
g790
sg1443
g363
sg2097
g1754
sg79
g867
sVcom.nowcoder.app.florida
p2264
g898
sVcom.netease.mobimail
p2265
g472
sVcom.android.phone
p2266
g932
sVcom.android.email
p2267
g1497
sg1495
g1319
sg127
g1504
sg2019
g669
sVcom.android.calculator2
p2268
g1186
ssg115
(dp2269
g1621
g886
sg710
g232
sg318
g1533
sg1862
g719
sVcom.tencent.mm
p2270
g1320
sVcom.comingx.athit
p2271
g335
sVcom.android.mms
p2272
g1689
sg25
g365
sg1069
g432
sg362
g1426
sg358
g1569
sg192
g738
sg2048
g1634
sg159
g1802
sVcom.android.camera
p2273
g1822
sg89
g1027
sVcom.tencent.mobileqq
p2274
g1121
ssg117
(dp2275
Vcom.comingx.athit
p2276
g337
sg1458
g234
sg1466
g1028
sg1468
g1123
sVcom.UCMobile
p2277
g1571
ssg119
(dp2278
Vcom.android.settings
p2279
g1643
sVcom.android.mms
p2280
g1690
sVcom.android.phone
p2281
g943
sVcom.miui.home
p2282
g1029
sVcom.tencent.mm
p2283
g1322
sVcom.tencent.mobileqq
p2284
g1146
ssg121
(dp2285
Vcom.miui.home
p2286
g1030
sg972
g305
sg303
g1411
ssg123
(dp2287
Vcom.android.mms
p2288
g1693
sVcom.sina.weibo
p2289
g551
sVcom.miui.home
p2290
g1032
sVcom.miui.notes
p2291
g1546
sVcom.tencent.mobileqq
p2292
g1127
ssg125
(dp2293
Vcom.tencent.mm
p2294
g1325
sVcom.miui.home
p2295
g1033
sVcom.tencent.mobileqq
p2296
g1128
sVcom.android.mms
p2297
g1694
ssg127
(dp2298
Vcom.android.browser
p2299
g216
sVcom.miui.home
p2300
g1035
sVcom.android.mms
p2301
g1696
ssg129
(dp2302
g1506
g240
sVcom.fenbi.android.servant
p2303
g1223
sVcom.tencent.mm
p2304
g1326
sg1511
g555
sVcom.android.mms
p2305
g1699
sVcom.miui.home
p2306
g1034
sVcom.tencent.mobileqq
p2307
g1130
sVcom.eg.android.AlipayGphone
p2308
g580
ssg131
(dp2309
g488
g189
sg1082
g644
sVcom.sina.weibo
p2310
g536
sVcom.comingx.athit
p2311
g319
sVcom.android.mms
p2312
g1701
sVcom.android.calculator2
p2313
g1175
sg2235
g492
sVcom.android.fileexplorer
p2314
g1437
sVcom.nowcoder.app.florida
p2315
g884
sVcom.netease.mobimail
p2316
g460
sVcom.android.phone
p2317
g919
sVcom.android.camera
p2318
g1807
sVcom.miui.home
p2319
g1012
sVcom.tencent.mm
p2320
g1327
sVcom.tencent.mobileqq
p2321
g1131
ssg133
(dp2322
Vcom.android.browser
p2323
g244
sVcom.android.mms
p2324
g1702
sVcom.sina.weibo
p2325
g559
sVcom.android.soundrecorder
p2326
g782
sVcom.netease.mobimail
p2327
g478
sVcom.android.phone
p2328
g921
sg1553
g404
sg1555
g1809
sVcom.miui.home
p2329
g1036
sVcom.tencent.mm
p2330
g1328
sVcom.tencent.mobileqq
p2331
g1132
ssg135
(dp2332
g819
g185
sg1615
g650
sg1122
g1465
sVcom.tencent.mobileqq
p2333
g1068
sg1574
g499
sg25
g359
sg1004
g827
sg1908
g1402
sg364
g1448
sVcom.nowcoder.app.florida
p2334
g900
sVcom.android.settings
p2335
g1608
sVcom.miui.home
p2336
g1037
sVcom.tencent.mm
p2337
g1273
ssg137
(dp2338
Vcom.fenbi.android.servant
p2339
g1224
sVcom.sina.weibo
p2340
g561
sVcom.tencent.mm
p2341
g1330
sVcom.android.mms
p2342
g1704
sg1318
g1428
sg1235
g859
sVcom.nowcoder.app.florida
p2343
g888
sg39
g480
sVcom.miui.home
p2344
g1038
sVcom.tencent.mobileqq
p2345
g1134
ssg139
(dp2346
g8
g173
sg2112
g258
sVcom.comingx.athit
p2347
g323
sg1605
g374
sg1607
g1581
sVcom.sina.weibo
p2348
g563
sVcom.android.packageinstaller
p2349
g756
sVcom.sankuai.meituan
p2350
g772
sg2175
g806
sVcom.nowcoder.app.florida
p2351
g904
sVsogou.mobile.explorer
p2352
g503
sVcom.miui.home
p2353
g1040
sVcom.tencent.mobileqq
p2354
g1136
sg1160
g953
sVcom.fenbi.android.servant
p2355
g1239
sg1316
g1389
sVcom.kugou.android
p2356
g1370
sVcom.qihoo.browser
p2357
g1463
sVcom.hyt.android.examin
p2358
g671
sVcom.ggeye.kaoshi.gwy
p2359
g1261
sg1597
g1332
sg1137
g1705
sg1335
g1717
sg2122
g1151
sVcom.android.camera
p2360
g1826
ssg141
(dp2361
Vcom.android.browser
p2362
g250
sg1266
g281
sVcom.ss.android.article.news
p2363
g300
sVcom.comingx.athit
p2364
g331
sVcom.android.deskclock
p2365
g386
sVcom.netease.mobimail
p2366
g484
sg690
g565
sg1073
g844
sg47
g591
sg59
g695
sVcn.wps.moffice_eng
p2367
g717
sg63
g735
sVcom.android.packageinstaller
p2368
g749
sg69
g766
sg2118
g786
sg895
g809
sg75
g826
sVair.fyzb3
p2369
g865
sVcom.nowcoder.app.florida
p2370
g894
sVcom.android.phone
p2371
g929
sg87
g960
sVcom.miui.home
p2372
g1041
sVcom.tencent.mm
p2373
g1334
sg93
g1155
sVcom.android.calculator2
p2374
g1184
sVcom.fenbi.android.servant
p2375
g1230
sg1685
g495
sVcom.kugou.android
p2376
g1366
sg2134
g1431
sVcom.android.fileexplorer
p2377
g1442
sVcom.happyelements.AndroidAnimal
p2378
g410
sg550
g1491
sg2354
g1138
sVcom.MobileTicket
p2379
g1514
sg1700
g1531
sVcom.ggeye.kaoshi.gwy
p2380
g1259
sg139
g1640
sVcom.baidu.BaiduMap
p2381
g1720
sg37
g437
sVtv.pps.mobile
p2382
g1753
sVcom.android.camera
p2383
g1818
ssg143
(dp2384
Vcom.zhihu.android
p2385
g631
sVcom.chinamworld.main
p2386
g697
sg2065
g302
sVcom.android.browser
p2387
g252
sVcom.tencent.mm
p2388
g1336
sg1662
g768
sg2066
g1707
sg1725
g1043
sVcom.tencent.mobileqq
p2389
g1140
ssg145
(dp2390
g1120
g1445
sVcom.tencent.mm
p2391
g1337
sVcom.miui.home
p2392
g1044
sg2274
g1141
sVcom.sina.weibo
p2393
g567
ssg147
(dp2394
sg149
(dp2395
g854
g254
sVcom.tencent.mm
p2396
g1339
sVcom.android.mms
p2397
g1710
sVcom.android.thememanager
p2398
g372
sVcom.xiaomi.market
p2399
g1433
sVair.fyzb3
p2400
g869
sg1758
g923
sg1762
g1046
sg2244
g569
sVcom.yixia.xiaokaxiu
p2401
g846
sVcom.tencent.mobileqq
p2402
g1143
ssg151
(dp2403
Vcom.tencent.mm
p2404
g1341
sVcom.miui.home
p2405
g1047
sVcom.tencent.mobileqq
p2406
g1144
sg447
g585
sg2009
g486
ssg153
(dp2407
Vcom.miui.home
p2408
g1048
sVcom.tencent.mm
p2409
g1342
ssg155
(dp2410
Vcom.zhihu.android
p2411
g633
sVcom.android.browser
p2412
g256
sVcom.sina.weibo
p2413
g571
sVcom.android.packageinstaller
p2414
g754
sVcom.sankuai.meituan
p2415
g770
sg543
g1395
sVcom.miui.home
p2416
g1049
sVcom.tencent.mm
p2417
g1343
sVcom.tencent.mobileqq
p2418
g1145
ssg157
(dp2419
Vcom.miui.home
p2420
g1050
sVcom.tencent.mm
p2421
g1344
ssg159
(dp2422
Vcom.miui.home
p2423
g1051
sVcom.comingx.athit
p2424
g344
sg334
g1450
ssg161
(dp2425
g1804
g260
sg1806
g1538
sVcom.miui.notes
p2426
g1556
sVcn.wps.moffice_eng
p2427
g724
sVcom.zhihu.android
p2428
g636
sVcom.android.calendar
p2429
g1594
sVcom.tencent.mm
p2430
g1345
sg1825
g1636
sVcom.android.mms
p2431
g1712
sVcom.baidu.BaiduMap
p2432
g1724
sVcom.android.soundrecorder
p2433
g796
sVcom.android.fileexplorer
p2434
g1452
sg2315
g906
sVcom.android.phone
p2435
g940
sVcom.miui.weather2
p2436
g1483
sVcom.miui.home
p2437
g1053
sVcom.tencent.mobileqq
p2438
g1124
sVcom.android.calculator2
p2439
g1194
ssg163
(dp2440
g588
g773
sVcom.miui.home
p2441
g1054
sg763
g1346
sg2069
g598
ssg165
(dp2442
g1613
g634
sVcom.miui.home
p2443
g983
sg626
g1147
sssS'adj'
p2444
g170
sb.