ccopy_reg
_reconstructor
p1
(cnetworkx.classes.digraph
DiGraph
p2
c__builtin__
object
p3
NtRp4
(dp5
S'node'
p6
(dp7
Vcom.android.soundrecorder
p8
(dp9
S'weight'
p10
F7.5237415845557097e-05
ssVcom.qiyi.video
p11
(dp12
g10
F0.00041687101520353112
ssVcom.lenovo.magicplus
p13
(dp14
g10
F9.4743412546257075e-06
ssVcom.android.deskclock
p15
(dp16
g10
F9.4743412546257075e-06
ssVcom.sohu.inputmethod.sogou
p17
(dp18
g10
F1.6719425743457132e-06
ssVcom.android.launcher
p19
(dp20
g10
F0.00077188015515627093
ssVcn.etouch.ecalendar
p21
(dp22
g10
F0.057168175130411523
ssVcom.dou_pai.DouPai
p23
(dp24
g10
F0.0015476615096526817
ssVcom.lenovo.leos.appstore
p25
(dp26
g10
F0.00020509162245307416
ssVcom.android.gallery3d
p27
(dp28
g10
F0.065553524454946721
ssVcom.jingdong.app.mall
p29
(dp30
g10
F0.00030596549110526551
ssVcom.taobao.taobao
p31
(dp32
g10
F0.10229111864104508
ssVcom.android.video
p33
(dp34
g10
F0.0012316643631013421
ssVcom.babytree.apps.lama
p35
(dp36
g10
F0.20104775067992331
ssVcom.android.phone
p37
(dp38
g10
F0.04308038699897454
ssVcom.tencent.mm
p39
(dp40
g10
F0.034804828570154711
ssVcom.lenovo.safecenter
p41
(dp42
g10
F0.00034776405546390834
ssVcom.lenovo.browser
p43
(dp44
g10
F0.00020341967987872844
ssVcom.lenovo.FileBrowser
p45
(dp46
g10
F0.00037340050827054259
ssVcom.lenovo.ideafriend
p47
(dp48
g10
F0.084741294752329568
ssVcom.lenovo.calendar
p49
(dp50
g10
F0.0041887734629274601
ssVcom.baidu.searchbox_lenovo
p51
(dp52
g10
F0.025909536760444069
ssVcom.happyelements.AndroidAnimal
p53
(dp54
g10
F0.00077410941192206518
ssVcom.android.email
p55
(dp56
g10
F1.8948682509251415e-05
ssVcom.tencent.mobileqq
p57
(dp58
g10
F0.2348895403272549
ssVcom.lenovo.music
p59
(dp60
g10
F0.0014874715769762361
ssVcom.qzone
p61
(dp62
g10
F0.033741473092870837
ssVcom.baidu.tieba
p63
(dp64
g10
F0.094247402915867848
ssVcn.j.hers
p65
(dp66
g10
F0.00038733336305675687
ssVcom.android.settings
p67
(dp68
g10
F0.010168754737170627
sssS'node_dict_factory'
p69
c__builtin__
dict
p70
sS'edge_attr_dict_factory'
p71
g70
sS'succ'
p72
(dp73
g8
(dp74
Vcom.tencent.mobileqq
p75
(dp76
g10
F0.90000000000000002
ssg59
(dp77
g10
I1
ssVcom.taobao.taobao
p78
(dp79
g10
I1
ssVcom.qzone
p80
(dp81
g10
F0.69999999999999996
ssVcom.babytree.apps.lama
p82
(dp83
g10
F0.90000000000000002
ssVcom.tencent.mm
p84
(dp85
g10
F0.40000000000000002
sssg11
(dp86
Vcom.lenovo.ideafriend
p87
(dp88
g10
F0.40000000000000002
ssVcom.qzone
p89
(dp90
g10
F17.299999999999997
ssVcom.tencent.mobileqq
p91
(dp92
g10
F1.7
ssVcom.lenovo.safecenter
p93
(dp94
g10
F0.90000000000000002
sssg13
(dp95
sg15
(dp96
Vcom.android.settings
p97
(dp98
g10
I1
sssg17
(dp99
sg19
(dp100
Vcom.lenovo.ideafriend
p101
(dp102
g10
F1.7
ssVcom.baidu.searchbox_lenovo
p103
(dp104
g10
F0.69999999999999996
ssVcom.android.gallery3d
p105
(dp106
g10
F2.2999999999999998
ssVcom.android.video
p107
(dp108
g10
F1.7
ssVcom.qzone
p109
(dp110
g10
F0.90000000000000002
ssg49
(dp111
g10
F0.90000000000000002
ssVcom.android.settings
p112
(dp113
g10
I1
ssVcom.tencent.mm
p114
(dp115
g10
I1
ssVcom.android.phone
p116
(dp117
g10
F0.40000000000000002
ssVcom.lenovo.browser
p118
(dp119
g10
F0.90000000000000002
ssVcom.tencent.mobileqq
p120
(dp121
g10
I2
sssg21
(dp122
Vcom.baidu.searchbox_lenovo
p123
(dp124
g10
F0.40000000000000002
ssVcom.android.gallery3d
p125
(dp126
g10
F10.800000000000001
ssVcom.tencent.mm
p127
(dp128
g10
F7.0000000000000009
ssVcom.lenovo.ideafriend
p129
(dp130
g10
F11.100000000000001
ssVcom.lenovo.music
p131
(dp132
g10
I1
ssVcom.taobao.taobao
p133
(dp134
g10
F8.7000000000000011
ssVcom.android.video
p135
(dp136
g10
F2
ssVcom.qzone
p137
(dp138
g10
F6.8000000000000007
ssVcom.baidu.tieba
p139
(dp140
g10
F8.4000000000000004
ssVcom.lenovo.calendar
p141
(dp142
g10
I1
ssVcom.babytree.apps.lama
p143
(dp144
g10
F8
ssVcom.android.phone
p145
(dp146
g10
F3.7000000000000002
ssVcom.tencent.mobileqq
p147
(dp148
g10
F18.800000000000001
ssVcom.lenovo.safecenter
p149
(dp150
g10
I1
ssVcom.lenovo.browser
p151
(dp152
g10
F0.90000000000000002
sssg23
(dp153
Vcom.tencent.mobileqq
p154
(dp155
g10
F3
ssVcom.android.video
p156
(dp157
g10
F2.2000000000000002
ssVcom.qzone
p158
(dp159
g10
F0.69999999999999996
ssVcom.android.gallery3d
p160
(dp161
g10
F5.8000000000000007
ssVcom.baidu.tieba
p162
(dp163
g10
I1
sssg25
(dp164
Vcom.lenovo.ideafriend
p165
(dp166
g10
F1.3
ssVcom.tencent.mobileqq
p167
(dp168
g10
F2.1000000000000001
ssg23
(dp169
g10
F1.7
ssVcom.android.gallery3d
p170
(dp171
g10
F1.8999999999999999
ssVcom.lenovo.safecenter
p172
(dp173
g10
I1
sssg27
(dp174
Vcom.dou_pai.DouPai
p175
(dp176
g10
F5
ssg19
(dp177
g10
F2.7000000000000002
ssVcom.lenovo.leos.appstore
p178
(dp179
g10
I1
ssVcom.tencent.mm
p180
(dp181
g10
F4.2999999999999998
ssVcom.android.phone
p182
(dp183
g10
F4.6000000000000005
ssg129
(dp184
g10
F18.300000000000001
ssVcom.taobao.taobao
p185
(dp186
g10
F7.5000000000000009
ssg33
(dp187
g10
F130.00000000000014
ssVcom.qzone
p188
(dp189
g10
F15.1
ssVcom.baidu.tieba
p190
(dp191
g10
F4.7000000000000002
ssVcom.lenovo.calendar
p192
(dp193
g10
I1
ssVcom.babytree.apps.lama
p194
(dp195
g10
F16
ssVcom.baidu.searchbox_lenovo
p196
(dp197
g10
F3.2999999999999998
ssVcom.sohu.inputmethod.sogou
p198
(dp199
g10
F0.90000000000000002
ssVcn.etouch.ecalendar
p200
(dp201
g10
F4.2999999999999998
ssVcom.tencent.mobileqq
p202
(dp203
g10
F29.299999999999994
ssVcom.lenovo.browser
p204
(dp205
g10
F3.3999999999999999
ssVcom.android.settings
p206
(dp207
g10
F0.90000000000000002
sssg29
(dp208
Vcom.tencent.mobileqq
p209
(dp210
g10
I1
sssg31
(dp211
Vcom.lenovo.ideafriend
p212
(dp213
g10
F11.900000000000002
ssVcom.dou_pai.DouPai
p214
(dp215
g10
F0.69999999999999996
ssg19
(dp216
g10
F0.90000000000000002
ssg127
(dp217
g10
F11.6
ssg51
(dp218
g10
I2
ssg27
(dp219
g10
F8.2000000000000011
ssVcom.jingdong.app.mall
p220
(dp221
g10
I1
ssVcom.qzone
p222
(dp223
g10
F19.299999999999997
ssVcom.baidu.tieba
p224
(dp225
g10
F13.700000000000001
ssVcom.babytree.apps.lama
p226
(dp227
g10
F23.499999999999993
ssVcom.android.phone
p228
(dp229
g10
F4.8000000000000007
ssg17
(dp230
g10
I1
ssVcn.etouch.ecalendar
p231
(dp232
g10
F13.600000000000001
ssVcom.tencent.mobileqq
p233
(dp234
g10
F44.899999999999999
ssVcom.lenovo.safecenter
p235
(dp236
g10
F2.6000000000000001
ssVcom.lenovo.browser
p237
(dp238
g10
F1.7
sssg33
(dp239
Vcom.lenovo.ideafriend
p240
(dp241
g10
F1.3
ssVcom.tencent.mobileqq
p242
(dp243
g10
F0.90000000000000002
ssVcom.dou_pai.DouPai
p244
(dp245
g10
F1.6000000000000001
ssVcom.android.gallery3d
p246
(dp247
g10
F124.50000000000014
ssVcom.qzone
p248
(dp249
g10
F0.90000000000000002
sssg35
(dp250
Vcom.lenovo.ideafriend
p251
(dp252
g10
F27.699999999999996
ssVcom.tencent.mm
p253
(dp254
g10
F8.1999999999999993
ssVcom.baidu.searchbox_lenovo
p255
(dp256
g10
F1.3999999999999999
ssVcom.android.gallery3d
p257
(dp258
g10
F19.300000000000001
ssg220
(dp259
g10
F0.69999999999999996
ssVcom.taobao.taobao
p260
(dp261
g10
F22.599999999999991
ssg8
(dp262
g10
I1
ssg33
(dp263
g10
F2
ssVcom.qzone
p264
(dp265
g10
F23.999999999999993
ssVcom.baidu.tieba
p266
(dp267
g10
F25.199999999999992
ssg145
(dp268
g10
F8.1000000000000014
ssVcn.etouch.ecalendar
p269
(dp270
g10
F10.700000000000001
ssg202
(dp271
g10
F77.90000000000002
ssVcom.lenovo.safecenter
p272
(dp273
g10
F2.8999999999999999
ssVcom.android.settings
p274
(dp275
g10
F1.8999999999999999
sssg37
(dp276
g47
(dp277
g10
F120.60000000000004
ssg55
(dp278
g10
F0.40000000000000002
ssVcom.android.launcher
p279
(dp280
g10
F0.90000000000000002
ssVcom.android.settings
p281
(dp282
g10
F9.2000000000000011
ssVcom.tencent.mm
p283
(dp284
g10
F1.8
ssVcom.android.gallery3d
p285
(dp286
g10
F10.800000000000002
ssg260
(dp287
g10
F5.7999999999999998
ssVcom.android.deskclock
p288
(dp289
g10
F2.7000000000000002
ssVcom.android.video
p290
(dp291
g10
F1.3999999999999999
ssVcom.qzone
p292
(dp293
g10
F12.600000000000001
ssVcom.baidu.tieba
p294
(dp295
g10
F3.7999999999999998
ssg192
(dp296
g10
F1.7
ssg35
(dp297
g10
F9.4000000000000004
ssVcn.etouch.ecalendar
p298
(dp299
g10
F4.5999999999999996
ssVcom.tencent.mobileqq
p300
(dp301
g10
F27.699999999999992
ssg41
(dp302
g10
F3.1999999999999997
ssVcom.lenovo.browser
p303
(dp304
g10
F0.69999999999999996
sssg39
(dp305
Vcom.lenovo.ideafriend
p306
(dp307
g10
F2.5999999999999996
ssVcom.android.gallery3d
p308
(dp309
g10
F3.4999999999999996
ssg59
(dp310
g10
F0.69999999999999996
ssVcom.taobao.taobao
p311
(dp312
g10
F6.5000000000000009
ssVcom.android.soundrecorder
p313
(dp314
g10
F0.90000000000000002
ssVcom.qzone
p315
(dp316
g10
F9.5000000000000018
ssVcom.baidu.tieba
p317
(dp318
g10
F7
ssVcn.j.hers
p319
(dp320
g10
F2.7000000000000002
ssVcom.babytree.apps.lama
p321
(dp322
g10
F11.5
ssg145
(dp323
g10
F1.8999999999999999
ssVcn.etouch.ecalendar
p324
(dp325
g10
F7.5
ssVcom.tencent.mobileqq
p326
(dp327
g10
F8.9000000000000004
ssg151
(dp328
g10
F0.40000000000000002
sssg41
(dp329
Vcom.lenovo.leos.appstore
p330
(dp331
g10
I1
ssVcom.android.settings
p332
(dp333
g10
I1
ssVcom.tencent.mm
p334
(dp335
g10
F0.69999999999999996
ssg87
(dp336
g10
F1.6000000000000001
ssg13
(dp337
g10
F0.90000000000000002
ssVcom.taobao.taobao
p338
(dp339
g10
F1.8999999999999999
ssVcom.qzone
p340
(dp341
g10
F1.8999999999999999
ssg65
(dp342
g10
F1.3
ssVcom.babytree.apps.lama
p343
(dp344
g10
I1
ssVcn.etouch.ecalendar
p345
(dp346
g10
I1
ssVcom.tencent.mobileqq
p347
(dp348
g10
F4.9000000000000004
sssg43
(dp349
Vcom.android.gallery3d
p350
(dp351
g10
F1.7
ssVcom.lenovo.ideafriend
p352
(dp353
g10
F3.5999999999999996
ssVcom.taobao.taobao
p354
(dp355
g10
I1
ssVcom.android.video
p356
(dp357
g10
F1.3
ssVcom.qzone
p358
(dp359
g10
F1.7
ssVcom.qiyi.video
p360
(dp361
g10
F1.3
ssVcom.babytree.apps.lama
p362
(dp363
g10
I1
ssVcom.android.phone
p364
(dp365
g10
F2
ssVcom.tencent.mm
p366
(dp367
g10
I1
sssg45
(dp368
Vcom.lenovo.ideafriend
p369
(dp370
g10
I1
ssVcom.android.phone
p371
(dp372
g10
I1
sssg47
(dp373
Vcom.baidu.searchbox_lenovo
p374
(dp375
g10
F3.7000000000000002
ssg55
(dp376
g10
F0.69999999999999996
ssVcom.android.launcher
p377
(dp378
g10
I1
ssg281
(dp379
g10
F4.6000000000000005
ssg39
(dp380
g10
F1.8999999999999999
ssVcom.android.gallery3d
p381
(dp382
g10
F6.4000000000000004
ssg260
(dp383
g10
F6
ssg290
(dp384
g10
F1.3
ssg292
(dp385
g10
F15.700000000000001
ssVcom.baidu.tieba
p386
(dp387
g10
F5
ssg35
(dp388
g10
F21.499999999999993
ssVcom.android.phone
p389
(dp390
g10
F37.499999999999993
ssg298
(dp391
g10
F1.3
ssVcom.tencent.mobileqq
p392
(dp393
g10
F28.699999999999996
ssg41
(dp394
g10
F1.6000000000000001
ssg303
(dp395
g10
F1.8999999999999999
sssg49
(dp396
Vcom.lenovo.ideafriend
p397
(dp398
g10
F1.6000000000000001
ssg103
(dp399
g10
I1
ssVcom.android.gallery3d
p400
(dp401
g10
I1
ssVcom.android.phone
p402
(dp403
g10
F1.7
ssVcn.etouch.ecalendar
p404
(dp405
g10
I1
ssg204
(dp406
g10
F0.90000000000000002
sssg51
(dp407
Vcom.lenovo.ideafriend
p408
(dp409
g10
F3.7000000000000002
ssg214
(dp410
g10
F0.90000000000000002
ssVcom.tencent.mm
p411
(dp412
g10
F2.8999999999999999
ssVcom.android.gallery3d
p413
(dp414
g10
F1.8999999999999999
ssVcom.taobao.taobao
p415
(dp416
g10
F4.4000000000000004
ssVcom.qzone
p417
(dp418
g10
F1.8999999999999999
ssVcom.baidu.tieba
p419
(dp420
g10
F1.8999999999999999
ssVcom.babytree.apps.lama
p421
(dp422
g10
F7.1999999999999993
ssVcom.android.phone
p423
(dp424
g10
F0.90000000000000002
ssVcom.tencent.mobileqq
p425
(dp426
g10
F4.7999999999999998
ssVcom.lenovo.safecenter
p427
(dp428
g10
I1
sssg53
(dp429
Vcom.baidu.tieba
p430
(dp431
g10
F0.90000000000000002
ssVcom.tencent.mobileqq
p432
(dp433
g10
F1.7
ssVcom.taobao.taobao
p434
(dp435
g10
F0.40000000000000002
sssg55
(dp436
Vcom.android.settings
p437
(dp438
g10
F1.7
ssVcom.tencent.mobileqq
p439
(dp440
g10
F1.3
sssg57
(dp441
Vcom.lenovo.ideafriend
p442
(dp443
g10
F64.100000000000009
ssg55
(dp444
g10
F0.90000000000000002
ssg244
(dp445
g10
I1
ssg377
(dp446
g10
F2.8999999999999999
ssg67
(dp447
g10
F9
ssVcom.baidu.searchbox_lenovo
p448
(dp449
g10
F3.2999999999999998
ssVcom.android.gallery3d
p450
(dp451
g10
F34.09999999999998
ssVcom.taobao.taobao
p452
(dp453
g10
F50.600000000000001
ssg313
(dp454
g10
F0.40000000000000002
ssg33
(dp455
g10
F7.4000000000000021
ssg61
(dp456
g10
F70.100000000000009
ssVcom.baidu.tieba
p457
(dp458
g10
F40.199999999999982
ssVcom.babytree.apps.lama
p459
(dp460
g10
F68
ssVcom.android.phone
p461
(dp462
g10
F22.499999999999996
ssg17
(dp463
g10
F1.8999999999999999
ssg269
(dp464
g10
F19.799999999999997
ssg180
(dp465
g10
F16.100000000000001
ssg93
(dp466
g10
F4.7999999999999998
ssg237
(dp467
g10
F5.5
sssg59
(dp468
Vcom.baidu.tieba
p469
(dp470
g10
F0.40000000000000002
ssVcom.qzone
p471
(dp472
g10
I1
ssVcom.tencent.mobileqq
p473
(dp474
g10
F1.7
ssg82
(dp475
g10
F1.8999999999999999
sssg61
(dp476
g442
(dp477
g10
F8.1000000000000014
ssVcom.dou_pai.DouPai
p478
(dp479
g10
F0.40000000000000002
ssg377
(dp480
g10
F0.40000000000000002
ssg253
(dp481
g10
F9.8000000000000007
ssVcom.android.phone
p482
(dp483
g10
F0.40000000000000002
ssVcom.android.gallery3d
p484
(dp485
g10
F12.299999999999999
ssg59
(dp486
g10
F0.40000000000000002
ssVcom.taobao.taobao
p487
(dp488
g10
F20.899999999999999
ssg8
(dp489
g10
F1.6000000000000001
ssVcom.android.video
p490
(dp491
g10
F2.2000000000000002
ssVcom.baidu.tieba
p492
(dp493
g10
F34.899999999999991
ssg360
(dp494
g10
F19.699999999999996
ssVcom.babytree.apps.lama
p495
(dp496
g10
F22.300000000000001
ssg123
(dp497
g10
F2.5
ssg65
(dp498
g10
F1.7
ssg231
(dp499
g10
F6.1000000000000005
ssVcom.tencent.mobileqq
p500
(dp501
g10
F36.399999999999984
ssg43
(dp502
g10
I1
sssg63
(dp503
Vcom.lenovo.ideafriend
p504
(dp505
g10
F8.9000000000000004
ssg448
(dp506
g10
I4
ssg67
(dp507
g10
I1
ssg253
(dp508
g10
F8.5
ssg450
(dp509
g10
F5.5000000000000009
ssg220
(dp510
g10
F0.90000000000000002
ssVcom.taobao.taobao
p511
(dp512
g10
F19.800000000000001
ssg59
(dp513
g10
F0.90000000000000002
ssg15
(dp514
g10
I1
ssVcom.android.video
p515
(dp516
g10
F0.40000000000000002
ssVcom.qzone
p517
(dp518
g10
F5.8999999999999995
ssVcom.babytree.apps.lama
p519
(dp520
g10
F15.699999999999999
ssVcom.android.phone
p521
(dp522
g10
F4.4000000000000004
ssg313
(dp523
g10
I1
ssg231
(dp524
g10
F15.899999999999999
ssg147
(dp525
g10
F39.599999999999994
ssVcom.lenovo.safecenter
p526
(dp527
g10
F1.8
sssg65
(dp528
Vcom.baidu.tieba
p529
(dp530
g10
F0.69999999999999996
ssVcom.qzone
p531
(dp532
g10
F1.7
ssg334
(dp533
g10
F2.7000000000000002
ssVcom.taobao.taobao
p534
(dp535
g10
F1.3
sssg67
(dp536
g55
(dp537
g10
I1
ssVcom.android.gallery3d
p538
(dp539
g10
F1.7
ssVcom.android.phone
p540
(dp541
g10
F2.7000000000000002
ssVcom.lenovo.ideafriend
p542
(dp543
g10
I1
ssg13
(dp544
g10
F1.7
ssVcom.taobao.taobao
p545
(dp546
g10
F1.8
ssg288
(dp547
g10
F1.3
ssVcom.qzone
p548
(dp549
g10
F1.8999999999999999
ssg224
(dp550
g10
F0.40000000000000002
ssg49
(dp551
g10
F2.6000000000000001
ssVcom.android.launcher
p552
(dp553
g10
I1
ssg103
(dp554
g10
F1.3
ssg231
(dp555
g10
F0.69999999999999996
ssg439
(dp556
g10
F4.4000000000000004
ssg41
(dp557
g10
I3
ssg204
(dp558
g10
F0.40000000000000002
ssssS'edge'
p559
g73
sS'graph'
p560
(dp561
sS'adjlist_dict_factory'
p562
g70
sS'adj'
p563
g73
sS'pred'
p564
(dp565
g8
(dp566
g84
g314
sVcom.baidu.tieba
p567
g523
sVcom.qzone
p568
g489
sg75
g454
sVcom.babytree.apps.lama
p569
g262
ssg11
(dp570
Vcom.qzone
p571
g494
sg43
g361
ssg13
(dp572
Vcom.android.settings
p573
g544
sVcom.lenovo.safecenter
p574
g337
ssg15
(dp575
Vcom.android.settings
p576
g547
sVcom.baidu.tieba
p577
g514
sg540
g289
ssg17
(dp578
Vcom.android.gallery3d
p579
g199
sVcom.tencent.mobileqq
p580
g463
sVcom.taobao.taobao
p581
g230
ssg19
(dp582
Vcom.android.gallery3d
p583
g177
sg442
g378
sVcom.taobao.taobao
p584
g216
sg137
g480
sVcom.android.phone
p585
g280
sVcom.tencent.mobileqq
p586
g446
sVcom.android.settings
p587
g553
ssg21
(dp588
Vcom.lenovo.ideafriend
p589
g391
sg67
g555
sVcom.tencent.mm
p590
g325
sVcom.android.gallery3d
p591
g201
sg545
g232
sg548
g499
sVcom.baidu.tieba
p592
g524
sVcom.lenovo.calendar
p593
g405
sVcom.babytree.apps.lama
p594
g270
sVcom.android.phone
p595
g299
sVcom.tencent.mobileqq
p596
g464
sg149
g346
ssg23
(dp597
Vcom.lenovo.leos.appstore
p598
g169
sg160
g176
sVcom.taobao.taobao
p599
g215
sg156
g245
sg158
g479
sVcom.baidu.searchbox_lenovo
p600
g410
sg242
g445
ssg25
(dp601
g170
g179
sg172
g331
ssg27
(dp602
g23
g161
sg279
g106
sg25
g171
sg253
g309
sVcom.baidu.searchbox_lenovo
p603
g414
sVcom.lenovo.ideafriend
p604
g382
sg31
g219
sg33
g247
sVcom.qzone
p605
g485
sg457
g509
sg192
g401
sVcom.babytree.apps.lama
p606
g258
sg585
g286
sVcn.etouch.ecalendar
p607
g126
sVcom.tencent.mobileqq
p608
g451
sVcom.lenovo.browser
p609
g351
sVcom.android.settings
p610
g539
ssg29
(dp611
Vcom.baidu.tieba
p612
g510
sVcom.taobao.taobao
p613
g221
sVcom.babytree.apps.lama
p614
g259
ssg31
(dp615
Vcom.android.gallery3d
p616
g186
sg411
g312
sg51
g416
sg47
g383
sg319
g535
sg8
g79
sg264
g488
sg63
g512
sg35
g261
sg37
g287
sg53
g435
sVcn.etouch.ecalendar
p617
g134
sg392
g453
sg41
g339
sg237
g355
sg67
g546
ssg33
(dp618
Vcom.dou_pai.DouPai
p619
g157
sVcom.android.launcher
p620
g108
sVcom.lenovo.ideafriend
p621
g384
sVcom.android.gallery3d
p622
g187
sg158
g491
sg469
g516
sVcom.babytree.apps.lama
p623
g263
sVcom.android.phone
p624
g291
sVcn.etouch.ecalendar
p625
g136
sVcom.tencent.mobileqq
p626
g455
sg609
g357
ssg35
(dp627
g47
g388
sg590
g322
sg51
g422
sg257
g195
sg59
g475
sg260
g227
sg313
g83
sVcom.qzone
p628
g496
sg139
g520
sg37
g297
sVcn.etouch.ecalendar
p629
g144
sg202
g460
sVcom.lenovo.safecenter
p630
g344
sVcom.lenovo.browser
p631
g363
ssg37
(dp632
Vcom.android.gallery3d
p633
g183
sVcom.android.launcher
p634
g117
sVcom.tencent.mobileqq
p635
g462
sVcom.lenovo.ideafriend
p636
g390
sVcom.taobao.taobao
p637
g229
sg45
g372
sVcom.qzone
p638
g483
sVcom.baidu.tieba
p639
g522
sVcom.lenovo.calendar
p640
g403
sVcom.babytree.apps.lama
p641
g268
sVcom.baidu.searchbox_lenovo
p642
g424
sg617
g146
sg127
g323
sg631
g365
sg576
g541
ssg39
(dp643
Vcom.babytree.apps.lama
p644
g254
sVcom.android.gallery3d
p645
g181
sVcom.android.phone
p646
g284
sVcom.lenovo.ideafriend
p647
g380
sg133
g217
sg8
g85
sVcom.qzone
p648
g481
sVcom.baidu.tieba
p649
g508
sg65
g533
sVcom.android.launcher
p650
g115
sVcom.baidu.searchbox_lenovo
p651
g412
sg617
g128
sVcom.tencent.mobileqq
p652
g465
sVcom.lenovo.safecenter
p653
g335
sg151
g367
ssg41
(dp654
Vcom.lenovo.leos.appstore
p655
g173
sg281
g557
sVcom.baidu.searchbox_lenovo
p656
g428
sVcom.lenovo.ideafriend
p657
g394
sg11
g94
sVcom.baidu.tieba
p658
g527
sVcom.taobao.taobao
p659
g236
sVcom.babytree.apps.lama
p660
g273
sVcom.android.phone
p661
g302
sVcn.etouch.ecalendar
p662
g150
sg91
g466
ssg43
(dp663
Vcom.lenovo.ideafriend
p664
g395
sg610
g558
sVcom.tencent.mm
p665
g328
sg538
g205
sVcom.taobao.taobao
p666
g238
sg571
g502
sg192
g406
sg634
g119
sVcom.android.phone
p667
g304
sVcn.etouch.ecalendar
p668
g152
sVcom.tencent.mobileqq
p669
g467
ssg45
(dp670
sg47
(dp671
Vcom.baidu.searchbox_lenovo
p672
g409
sVcom.babytree.apps.lama
p673
g252
sg655
g166
sVcom.android.settings
p674
g543
sVcom.tencent.mm
p675
g307
sg125
g184
sVcom.taobao.taobao
p676
g213
sVcom.lenovo.FileBrowser
p677
g370
sVcom.android.video
p678
g241
sg137
g477
sVcom.baidu.tieba
p679
g505
sg11
g88
sg377
g102
sg37
g277
sg607
g130
sg586
g443
sg93
g336
sg204
g353
sg640
g398
ssg49
(dp680
g587
g551
sVcn.etouch.ecalendar
p681
g142
sg538
g193
sg552
g111
sVcom.android.phone
p682
g296
ssg51
(dp683
Vcom.babytree.apps.lama
p684
g256
sg408
g375
sVcom.android.gallery3d
p685
g197
sVcom.taobao.taobao
p686
g218
sVcom.qzone
p687
g497
sVcom.baidu.tieba
p688
g506
sg49
g399
sg552
g104
sg587
g554
sVcn.etouch.ecalendar
p689
g124
sVcom.tencent.mobileqq
p690
g449
ssg53
(dp691
sg55
(dp692
Vcom.tencent.mobileqq
p693
g444
sVcom.android.settings
p694
g537
sVcom.lenovo.ideafriend
p695
g376
sVcom.android.phone
p696
g278
ssg57
(dp697
g8
g76
sg11
g92
sVcom.android.launcher
p698
g121
sg21
g148
sg23
g155
sg655
g168
sVcom.android.gallery3d
p699
g203
sg29
g210
sVcom.taobao.taobao
p700
g234
sg156
g243
sVcom.babytree.apps.lama
p701
g271
sVcom.android.phone
p702
g301
sg180
g327
sg93
g348
sVcom.lenovo.ideafriend
p703
g393
sg123
g426
sg53
g433
sg55
g440
sg694
g556
sg131
g474
sVcom.qzone
p704
g501
sg139
g525
ssg59
(dp705
g567
g513
sg80
g486
sg84
g310
sVcn.etouch.ecalendar
p706
g132
sg313
g77
ssg61
(dp707
Vcom.lenovo.ideafriend
p708
g385
sg255
g418
sVcom.dou_pai.DouPai
p709
g159
sg650
g110
sg67
g549
sg253
g316
sVcom.android.gallery3d
p710
g189
sg131
g472
sVcom.taobao.taobao
p711
g223
sg8
g81
sVcom.android.video
p712
g249
sVcom.baidu.tieba
p713
g518
sg360
g90
sVcom.babytree.apps.lama
p714
g265
sVcom.android.phone
p715
g293
sg319
g532
sVcn.etouch.ecalendar
p716
g138
sg57
g456
sVcom.lenovo.safecenter
p717
g341
sg43
g359
ssg63
(dp718
Vcom.baidu.searchbox_lenovo
p719
g420
sVcom.android.gallery3d
p720
g191
sVcom.dou_pai.DouPai
p721
g163
sg67
g550
sVcom.tencent.mm
p722
g318
sg703
g387
sg131
g470
sg545
g225
sg704
g493
sVcn.j.hers
p723
g530
sVcom.babytree.apps.lama
p724
g267
sVcom.android.phone
p725
g295
sg53
g431
sg21
g140
sg147
g458
ssg65
(dp726
Vcom.qzone
p727
g498
sg334
g320
sg653
g342
ssg67
(dp728
g552
g113
sVcom.android.gallery3d
p729
g207
sg657
g379
sVcom.android.deskclock
p730
g98
sg592
g507
sVcom.babytree.apps.lama
p731
g275
sg661
g282
sg55
g438
sVcom.tencent.mobileqq
p732
g447
sg574
g333
sssb.