ccopy_reg
_reconstructor
p1
(cnetworkx.classes.digraph
DiGraph
p2
c__builtin__
object
p3
NtRp4
(dp5
S'node'
p6
(dp7
Vcom.android.browser
p8
(dp9
S'weight'
p10
F0.026306520342834254
ssVcom.tencent.game.rhythmmaster
p11
(dp12
g10
F0.0022917774570133456
ssVcom.autonavi.minimap
p13
(dp14
g10
F0.0024978187251225312
ssVcom.android.thememanager
p15
(dp16
g10
F4.7193810013835845e-05
ssVcom.tencent.tmgp.carrot2
p17
(dp18
g10
F0.042032418694273897
ssVcom.android.deskclock
p19
(dp20
g10
F0.014785475356773693
ssVcom.chinamworld.bocmbci
p21
(dp22
g10
F0.00053639793820603671
ssVcom.snda.wifilocating
p23
(dp24
g10
F0.00054675755503834204
ssVcom.tencent.qqpim
p25
(dp26
g10
F0.0002256094332368738
ssVcom.tencent.android.qqdownloader
p27
(dp28
g10
F0.0014710655901873709
ssVcom.storm.smart
p29
(dp30
g10
F0.017310919726782371
ssVcom.android.contacts
p31
(dp32
g10
F0.062050651619898749
ssVcom.anzogame.game
p33
(dp34
g10
F0.0067084274331862268
ssVcom.tencent.gamejoy
p35
(dp36
g10
F0.0034589609534530904
ssVcom.android.packageinstaller
p37
(dp38
g10
F0.0085950287652027373
ssVcom.android.gallery3d
p39
(dp40
g10
F0.0019165291139765044
ssVcom.android.mms
p41
(dp42
g10
F0.0016759557897596338
ssVcom.meizu.mzsnssyncservice
p43
(dp44
g10
F0.006954756100087711
ssVcom.taobao.taobao
p45
(dp46
g10
F0.011340327225763676
ssVcom.android.video
p47
(dp48
g10
F0.021727569702955252
ssVcom.android.phone
p49
(dp50
g10
F0.029094408339261336
ssVcom.tencent.mtt
p51
(dp52
g10
F0.0017058835717196274
ssVcom.tencent.mobileqq
p53
(dp54
g10
F0.2393474362250477
ssVcom.alex.lookwifipassword
p55
(dp56
g10
F4.8344878550758669e-05
ssVcom.meizu.mstore
p57
(dp58
g10
F0.00094042299466594835
ssVcom.android.calculator
p59
(dp60
g10
F0.0012258879918228092
ssVcom.tencent.mm
p61
(dp62
g10
F0.030117708268585727
ssVcom.baidu.input
p63
(dp64
g10
F0.0014399867396904546
ssVcom.tencent.token
p65
(dp66
g10
F0.013686204904012395
ssVcom.android.soundrecorder
p67
(dp68
g10
F8.0574797584597788e-06
ssVcom.android.fileexplorer
p69
(dp70
g10
F0.0014411378082273775
ssVcom.happyelements.AndroidAnimal.qq
p71
(dp72
g10
F0.0057219616970433651
ssVcom.qiyi.video
p73
(dp74
g10
F6.1006632456909752e-05
ssVcom.tencent.qqlive
p75
(dp76
g10
F0.061365765840429673
ssVcom.android.email
p77
(dp78
g10
F8.0574797584597788e-06
ssVcom.chaozh.iReaderFree
p79
(dp80
g10
F0.2317572902925786
ssVcom.meizu.notepaper
p81
(dp82
g10
F7.9423729047674961e-05
ssVcom.meizu.cloud
p83
(dp84
g10
F4.4891672939990191e-05
ssVcom.meizu.usetips
p85
(dp86
g10
F0.00027510538032455526
ssVcom.android.calendar
p87
(dp88
g10
F0.0055331864569880219
ssVcom.android.settings
p89
(dp90
g10
F0.0037605409101268707
ssVcom.tencent.pao
p91
(dp92
g10
F0.1093100725403392
ssVcom.qidian.QDReader
p93
(dp94
g10
F0.00098761680467978415
ssVcom.yuedong.sport
p95
(dp96
g10
F0.024355459172750064
ssVcom.ss.android.essay.joke
p97
(dp98
g10
F0.0032978113582838951
ssVcom.tencent.qqpimsecure
p99
(dp100
g10
F0.0017910626434519165
ssVcom.meizu.media.music
p101
(dp102
g10
F2.3021370738456511e-06
ssVcom.sohu.sohuvideo
p103
(dp104
g10
F0.0001128047166184369
sssS'node_dict_factory'
p105
c__builtin__
dict
p106
sS'edge_attr_dict_factory'
p107
g106
sS'succ'
p108
(dp109
g8
(dp110
Vcom.autonavi.minimap
p111
(dp112
g10
F3.7000000000000002
ssVcom.android.deskclock
p113
(dp114
g10
F4.2000000000000002
ssVcom.storm.smart
p115
(dp116
g10
I1
ssVcom.android.contacts
p117
(dp118
g10
F7.5
ssVcom.anzogame.game
p119
(dp120
g10
I1
ssVcom.tencent.gamejoy
p121
(dp122
g10
F0.90000000000000002
ssVcom.android.packageinstaller
p123
(dp124
g10
F5.9000000000000004
ssVcom.android.gallery3d
p125
(dp126
g10
F1.7
ssVcom.taobao.taobao
p127
(dp128
g10
F1.8999999999999999
ssVcom.android.phone
p129
(dp130
g10
F2.8999999999999999
ssg51
(dp131
g10
F0.69999999999999996
ssVcom.tencent.mm
p132
(dp133
g10
F5
ssg55
(dp134
g10
F1.7
ssVcom.android.fileexplorer
p135
(dp136
g10
F0.69999999999999996
ssVcom.tencent.qqlive
p137
(dp138
g10
F2.8999999999999999
ssVcom.chaozh.iReaderFree
p139
(dp140
g10
F4.7999999999999998
ssVcom.tencent.mobileqq
p141
(dp142
g10
F36.599999999999994
ssVcom.android.settings
p143
(dp144
g10
F6.5
ssVcom.tencent.pao
p145
(dp146
g10
F8.1000000000000014
ssg93
(dp147
g10
F0.69999999999999996
ssVcom.tencent.qqpimsecure
p148
(dp149
g10
F2.3999999999999999
ssg103
(dp150
g10
F1.7
sssg11
(dp151
Vcom.android.packageinstaller
p152
(dp153
g10
F0.40000000000000002
ssVcom.tencent.pao
p154
(dp155
g10
F1.7
ssVcom.happyelements.AndroidAnimal.qq
p156
(dp157
g10
F1.7
ssVcom.tencent.qqlive
p158
(dp159
g10
F1.7
ssVcom.tencent.mobileqq
p160
(dp161
g10
F12.900000000000002
ssVcom.chaozh.iReaderFree
p162
(dp163
g10
F0.90000000000000002
sssg13
(dp164
Vcom.android.browser
p165
(dp166
g10
F2.2999999999999998
ssVcom.android.packageinstaller
p167
(dp168
g10
F1.3
ssVcom.yuedong.sport
p169
(dp170
g10
F2.7000000000000002
ssg23
(dp171
g10
I1
ssVcom.storm.smart
p172
(dp173
g10
I1
ssVcom.tencent.mm
p174
(dp175
g10
F0.90000000000000002
ssVcom.android.contacts
p176
(dp177
g10
I1
ssVcom.chaozh.iReaderFree
p178
(dp179
g10
I1
sssg15
(dp180
Vcom.android.settings
p181
(dp182
g10
F1.7
ssVcom.meizu.mstore
p183
(dp184
g10
I2
sssg17
(dp185
Vcom.tencent.android.qqdownloader
p186
(dp187
g10
I1
ssVcom.android.settings
p188
(dp189
g10
I1
ssVcom.tencent.pao
p190
(dp191
g10
F0.90000000000000002
ssVcom.android.deskclock
p192
(dp193
g10
I2
ssVcom.android.fileexplorer
p194
(dp195
g10
F0.69999999999999996
ssVcom.android.video
p196
(dp197
g10
F1.3
ssVcom.tencent.qqlive
p198
(dp199
g10
I2
ssVcom.android.phone
p200
(dp201
g10
F3.8999999999999999
ssVcom.tencent.mobileqq
p202
(dp203
g10
I3
ssVcom.android.contacts
p204
(dp205
g10
I2
ssVcom.chaozh.iReaderFree
p206
(dp207
g10
I2
sssg19
(dp208
Vcom.android.browser
p209
(dp210
g10
I2
ssVcom.tencent.android.qqdownloader
p211
(dp212
g10
F0.40000000000000002
ssVcom.taobao.taobao
p213
(dp214
g10
I1
ssVcom.android.fileexplorer
p215
(dp216
g10
F0.40000000000000002
ssVcom.tencent.mm
p217
(dp218
g10
F3.6000000000000001
ssVcom.tencent.pao
p219
(dp220
g10
F14.800000000000002
ssVcom.yuedong.sport
p221
(dp222
g10
I1
ssVcom.meizu.mzsnssyncservice
p223
(dp224
g10
F3.7000000000000002
ssg17
(dp225
g10
I3
ssVcom.storm.smart
p226
(dp227
g10
I1
ssVcom.android.video
p228
(dp229
g10
F0.69999999999999996
ssVcom.tencent.token
p230
(dp231
g10
F1.7000000000000002
ssVcom.tencent.qqlive
p232
(dp233
g10
F5.9000000000000004
ssVcom.android.phone
p234
(dp235
g10
F9.8000000000000007
ssg99
(dp236
g10
F1.7000000000000002
ssVcom.tencent.mobileqq
p237
(dp238
g10
F24.099999999999998
ssVcom.android.contacts
p239
(dp240
g10
I3
ssVcom.chaozh.iReaderFree
p241
(dp242
g10
I11
ssVcom.android.settings
p243
(dp244
g10
I1
sssg21
(dp245
Vcom.android.calculator
p246
(dp247
g10
F1.7
ssVcom.tencent.mobileqq
p248
(dp249
g10
F1.3
ssVcom.anzogame.game
p250
(dp251
g10
F1.7
ssVcom.android.mms
p252
(dp253
g10
F1.3
ssVcom.taobao.taobao
p254
(dp255
g10
I1
sssg23
(dp256
g165
(dp257
g10
F3.4000000000000004
ssVcom.tencent.gamejoy
p258
(dp259
g10
F0.69999999999999996
ssg111
(dp260
g10
F1.3
ssVcom.android.packageinstaller
p261
(dp262
g10
F0.90000000000000002
ssVcom.tencent.pao
p263
(dp264
g10
F1.8999999999999999
ssVcom.tencent.mobileqq
p265
(dp266
g10
F4.2999999999999998
ssg55
(dp267
g10
F0.40000000000000002
sssg25
(dp268
Vcom.tencent.qqpimsecure
p269
(dp270
g10
F1.7
ssVcom.tencent.mobileqq
p271
(dp272
g10
I1
sssg27
(dp273
Vcom.android.browser
p274
(dp275
g10
I1
ssVcom.tencent.game.rhythmmaster
p276
(dp277
g10
F1.7
ssVcom.tencent.gamejoy
p278
(dp279
g10
F2.2999999999999998
ssVcom.android.settings
p280
(dp281
g10
F1.7
ssVcom.android.packageinstaller
p282
(dp283
g10
F16.199999999999996
ssVcom.tencent.pao
p284
(dp285
g10
F2.2999999999999998
ssg65
(dp286
g10
F2.5
ssVcom.tencent.qqpimsecure
p287
(dp288
g10
F0.69999999999999996
ssVcom.tencent.qqlive
p289
(dp290
g10
F1.7
ssVcom.android.phone
p291
(dp292
g10
F0.90000000000000002
ssVcom.storm.smart
p293
(dp294
g10
F1.7000000000000002
ssVcom.tencent.mobileqq
p295
(dp296
g10
F9.7000000000000011
ssVcom.android.contacts
p297
(dp298
g10
I1
ssVcom.chaozh.iReaderFree
p299
(dp300
g10
F0.90000000000000002
sssg29
(dp301
Vcom.android.browser
p302
(dp303
g10
F1.7
ssVcom.autonavi.minimap
p304
(dp305
g10
I1
ssVcom.tencent.pao
p306
(dp307
g10
F0.90000000000000002
ssVcom.tencent.token
p308
(dp309
g10
F2.7000000000000002
ssVcom.android.deskclock
p310
(dp311
g10
F4.7999999999999998
ssVcom.tencent.qqlive
p312
(dp313
g10
F5.7000000000000002
ssVcom.android.phone
p314
(dp315
g10
I1
ssg287
(dp316
g10
I2
ssVcom.android.contacts
p317
(dp318
g10
I2
ssVcom.chaozh.iReaderFree
p319
(dp320
g10
F3.7000000000000002
ssVcom.android.settings
p321
(dp322
g10
I1
sssg31
(dp323
Vcom.android.browser
p324
(dp325
g10
I3
ssVcom.tencent.game.rhythmmaster
p326
(dp327
g10
F0.90000000000000002
ssVcom.autonavi.minimap
p328
(dp329
g10
F2.8999999999999999
ssg15
(dp330
g10
F0.69999999999999996
ssVcom.tencent.tmgp.carrot2
p331
(dp332
g10
I3
ssVcom.android.deskclock
p333
(dp334
g10
F0.90000000000000002
ssVcom.snda.wifilocating
p335
(dp336
g10
I1
ssg43
(dp337
g10
I6
ssVcom.storm.smart
p338
(dp339
g10
F2.7000000000000002
ssVcom.tencent.gamejoy
p340
(dp341
g10
I1
ssVcom.android.gallery3d
p342
(dp343
g10
I1
ssVcom.android.mms
p344
(dp345
g10
F4.7000000000000002
ssVcom.taobao.taobao
p346
(dp347
g10
F1.7
ssVcom.android.phone
p348
(dp349
g10
F78.90000000000002
ssVcom.tencent.mm
p350
(dp351
g10
F4.7000000000000002
ssg183
(dp352
g10
F0.40000000000000002
ssVcom.tencent.token
p353
(dp354
g10
F0.69999999999999996
ssVcom.chaozh.iReaderFree
p355
(dp356
g10
F2.8999999999999999
ssVcom.tencent.mobileqq
p357
(dp358
g10
F10.800000000000001
ssVcom.tencent.pao
p359
(dp360
g10
F15.6
ssVcom.qidian.QDReader
p361
(dp362
g10
I1
ssg95
(dp363
g10
F1.7
ssVcom.ss.android.essay.joke
p364
(dp365
g10
I1
ssVcom.android.settings
p366
(dp367
g10
F6
ssVcom.tencent.qqpimsecure
p368
(dp369
g10
F2.2000000000000002
sssg33
(dp370
Vcom.tencent.mobileqq
p371
(dp372
g10
F6.0999999999999996
ssVcom.android.packageinstaller
p373
(dp374
g10
I1
ssVcom.android.deskclock
p375
(dp376
g10
F3.2999999999999998
ssVcom.chinamworld.bocmbci
p377
(dp378
g10
F0.90000000000000002
ssg61
(dp379
g10
F0.90000000000000002
ssg79
(dp380
g10
F0.69999999999999996
sssg35
(dp381
Vcom.tencent.mm
p382
(dp383
g10
F4.0999999999999996
ssVcom.tencent.pao
p384
(dp385
g10
F5.2999999999999998
ssVcom.tencent.android.qqdownloader
p386
(dp387
g10
F1.7
ssVcom.tencent.mtt
p388
(dp389
g10
F1.7
ssVcom.tencent.mobileqq
p390
(dp391
g10
F10.700000000000001
ssg299
(dp392
g10
I1
sssg37
(dp393
Vcom.android.browser
p394
(dp395
g10
I2
ssg11
(dp396
g10
F2.6000000000000001
ssVcom.autonavi.minimap
p397
(dp398
g10
F1.7
ssg377
(dp399
g10
I1
ssVcom.tencent.android.qqdownloader
p400
(dp401
g10
F14.399999999999999
ssg293
(dp402
g10
F0.69999999999999996
ssg117
(dp403
g10
F0.69999999999999996
ssg250
(dp404
g10
F1.3
ssg278
(dp405
g10
F2.0999999999999996
ssg65
(dp406
g10
I1
ssg51
(dp407
g10
F1.3
ssVcom.tencent.mm
p408
(dp409
g10
F1.6000000000000001
ssg55
(dp410
g10
F0.90000000000000002
ssVcom.baidu.input
p411
(dp412
g10
F1.1000000000000001
ssVcom.happyelements.AndroidAnimal.qq
p413
(dp414
g10
F1.7
ssg289
(dp415
g10
F2.2000000000000002
ssg160
(dp416
g10
F11.799999999999999
ssg143
(dp417
g10
I2
ssVcom.tencent.pao
p418
(dp419
g10
F0.90000000000000002
ssg93
(dp420
g10
F0.90000000000000002
ssVcom.yuedong.sport
p421
(dp422
g10
F2.2999999999999998
ssg97
(dp423
g10
F0.69999999999999996
ssVcom.tencent.qqpimsecure
p424
(dp425
g10
F1.3999999999999999
ssg103
(dp426
g10
F0.90000000000000002
sssg39
(dp427
Vcom.anzogame.game
p428
(dp429
g10
F0.90000000000000002
ssVcom.meizu.mstore
p430
(dp431
g10
I1
ssVcom.android.fileexplorer
p432
(dp433
g10
F2.7000000000000002
ssVcom.android.calendar
p434
(dp435
g10
F4.7000000000000002
ssVcom.tencent.pao
p436
(dp437
g10
F1.7
ssVcom.yuedong.sport
p438
(dp439
g10
I1
ssVcom.tencent.qqpimsecure
p440
(dp441
g10
I1
ssVcom.tencent.android.qqdownloader
p442
(dp443
g10
F0.90000000000000002
ssVcom.android.phone
p444
(dp445
g10
I1
ssVcom.storm.smart
p446
(dp447
g10
I1
ssVcom.tencent.mobileqq
p448
(dp449
g10
F6.0000000000000009
ssVcom.android.contacts
p450
(dp451
g10
F2.8999999999999999
sssg41
(dp452
Vcom.android.browser
p453
(dp454
g10
I1
ssVcom.android.calculator
p455
(dp456
g10
I1
ssVcom.android.settings
p457
(dp458
g10
F0.69999999999999996
ssVcom.tencent.mm
p459
(dp460
g10
F2.5999999999999996
ssVcom.tencent.pao
p461
(dp462
g10
F0.69999999999999996
ssg95
(dp463
g10
F1.8999999999999999
ssVcom.autonavi.minimap
p464
(dp465
g10
F0.90000000000000002
ssVcom.android.phone
p466
(dp467
g10
F1.7
ssVcom.tencent.qqpimsecure
p468
(dp469
g10
F2.3999999999999999
ssVcom.tencent.mobileqq
p470
(dp471
g10
F7.7000000000000011
ssVcom.android.contacts
p472
(dp473
g10
F7.7000000000000002
sssg43
(dp474
Vcom.autonavi.minimap
p475
(dp476
g10
I1
ssVcom.android.mms
p477
(dp478
g10
F1.7
ssVcom.tencent.token
p479
(dp480
g10
F0.90000000000000002
ssVcom.android.deskclock
p481
(dp482
g10
I1
ssVcom.android.phone
p483
(dp484
g10
F2.8999999999999999
ssVcom.tencent.mobileqq
p485
(dp486
g10
I2
ssVcom.android.contacts
p487
(dp488
g10
F4.5999999999999996
ssVcom.chaozh.iReaderFree
p489
(dp490
g10
I1
sssg45
(dp491
Vcom.android.browser
p492
(dp493
g10
F6.8000000000000007
ssVcom.tencent.mobileqq
p494
(dp495
g10
F3.7000000000000002
ssVcom.tencent.pao
p496
(dp497
g10
F1.3999999999999999
ssVcom.yuedong.sport
p498
(dp499
g10
I3
ssVcom.baidu.input
p500
(dp501
g10
F1.3999999999999999
ssVcom.android.deskclock
p502
(dp503
g10
F2.8999999999999999
ssVcom.chinamworld.bocmbci
p504
(dp505
g10
I1
ssVcom.tencent.android.qqdownloader
p506
(dp507
g10
F0.90000000000000002
ssVcom.tencent.qqpimsecure
p508
(dp509
g10
F0.90000000000000002
ssVcom.tencent.mm
p510
(dp511
g10
F2.8999999999999999
sssg47
(dp512
g81
(dp513
g10
F0.90000000000000002
ssg83
(dp514
g10
F2.6000000000000001
ssVcom.android.calendar
p515
(dp516
g10
I1
ssVcom.android.settings
p517
(dp518
g10
F2.7000000000000002
ssVcom.yuedong.sport
p519
(dp520
g10
F2.7000000000000002
ssVcom.meizu.mzsnssyncservice
p521
(dp522
g10
I1
ssVcom.android.deskclock
p523
(dp524
g10
F2.8999999999999999
ssVcom.android.fileexplorer
p525
(dp526
g10
F26.799999999999997
ssVcom.android.phone
p527
(dp528
g10
I3
ssVcom.storm.smart
p529
(dp530
g10
I1
ssVcom.android.email
p531
(dp532
g10
F0.90000000000000002
ssVcom.tencent.mm
p533
(dp534
g10
F0.69999999999999996
ssVcom.chaozh.iReaderFree
p535
(dp536
g10
F2.7000000000000002
ssVcom.tencent.mobileqq
p537
(dp538
g10
F2.7999999999999998
sssg49
(dp539
g165
(dp540
g10
F3.7000000000000002
ssVcom.autonavi.minimap
p541
(dp542
g10
F5
ssg15
(dp543
g10
F0.40000000000000002
ssVcom.tencent.tmgp.carrot2
p544
(dp545
g10
F9.8000000000000007
ssVcom.android.deskclock
p546
(dp547
g10
F3.5
ssg23
(dp548
g10
F1.8
ssg346
(dp549
g10
F0.90000000000000002
ssVcom.storm.smart
p550
(dp551
g10
F1.3
ssVcom.android.contacts
p552
(dp553
g10
F156.30000000000004
ssVcom.android.gallery3d
p554
(dp555
g10
F6.8000000000000007
ssg477
(dp556
g10
F2.2999999999999998
ssg43
(dp557
g10
F14.300000000000001
ssVcom.android.video
p558
(dp559
g10
F2.8999999999999999
ssVcom.tencent.mm
p560
(dp561
g10
F5.0999999999999996
ssVcom.android.calculator
p562
(dp563
g10
I1
ssg479
(dp564
g10
F2.7000000000000002
ssVcom.android.fileexplorer
p565
(dp566
g10
F2.2999999999999998
ssVcom.happyelements.AndroidAnimal.qq
p567
(dp568
g10
I2
ssVcom.tencent.qqlive
p569
(dp570
g10
F4.9000000000000004
ssVcom.chaozh.iReaderFree
p571
(dp572
g10
F18.599999999999998
ssg357
(dp573
g10
F29.899999999999988
ssVcom.android.calendar
p574
(dp575
g10
I1
ssg366
(dp576
g10
F4.7000000000000002
ssVcom.tencent.pao
p577
(dp578
g10
F24.399999999999995
ssg361
(dp579
g10
F0.90000000000000002
ssVcom.yuedong.sport
p580
(dp581
g10
I2
ssg364
(dp582
g10
F0.90000000000000002
ssVcom.tencent.qqpimsecure
p583
(dp584
g10
F2.1000000000000001
sssg51
(dp585
Vcom.tencent.mm
p586
(dp587
g10
F1.7
ssVcom.tencent.mobileqq
p588
(dp589
g10
F19.599999999999998
sssg53
(dp590
Vcom.android.browser
p591
(dp592
g10
F24.999999999999996
ssVcom.tencent.game.rhythmmaster
p593
(dp594
g10
F8
ssVcom.autonavi.minimap
p595
(dp596
g10
I1
ssg15
(dp597
g10
F2.2000000000000002
ssVcom.tencent.tmgp.carrot2
p598
(dp599
g10
I5
ssVcom.android.deskclock
p600
(dp601
g10
F21.499999999999996
ssg21
(dp602
g10
F2.5999999999999996
ssVcom.snda.wifilocating
p603
(dp604
g10
I2
ssVcom.tencent.qqpim
p605
(dp606
g10
I1
ssVcom.tencent.android.qqdownloader
p607
(dp608
g10
F8.0999999999999996
ssVcom.android.contacts
p609
(dp610
g10
F19.899999999999995
ssVcom.anzogame.game
p611
(dp612
g10
F3.1000000000000001
ssg35
(dp613
g10
F17.5
ssg152
(dp614
g10
F6.0000000000000009
ssVcom.android.gallery3d
p615
(dp616
g10
F13.399999999999999
ssg45
(dp617
g10
F5.4000000000000004
ssVcom.android.video
p618
(dp619
g10
F6.6000000000000005
ssVcom.android.phone
p620
(dp621
g10
F30.600000000000001
ssg51
(dp622
g10
F18.299999999999997
ssg61
(dp623
g10
F32.29999999999999
ssg183
(dp624
g10
F1.3999999999999999
ssVcom.meizu.mzsnssyncservice
p625
(dp626
g10
F3.7000000000000002
ssVcom.baidu.input
p627
(dp628
g10
F1.7
ssVcom.tencent.token
p629
(dp630
g10
F26.699999999999999
ssVcom.android.fileexplorer
p631
(dp632
g10
F12.600000000000001
ssVcom.happyelements.AndroidAnimal.qq
p633
(dp634
g10
F4.7000000000000002
ssg75
(dp635
g10
F22.199999999999996
ssg79
(dp636
g10
F7.8000000000000007
ssg515
(dp637
g10
F0.90000000000000002
ssg366
(dp638
g10
F16.100000000000001
ssg91
(dp639
g10
F147.40000000000009
ssVcom.yuedong.sport
p640
(dp641
g10
I4
ssg97
(dp642
g10
F1.3
ssg99
(dp643
g10
F13.699999999999999
sssg55
(dp644
sg57
(dp645
Vcom.meizu.cloud
p646
(dp647
g10
I1
ssVcom.android.settings
p648
(dp649
g10
F1.8
ssVcom.android.gallery3d
p650
(dp651
g10
I1
ssVcom.android.thememanager
p652
(dp653
g10
I1
ssg69
(dp654
g10
F3
ssVcom.android.video
p655
(dp656
g10
F0.69999999999999996
sssg59
(dp657
Vcom.android.browser
p658
(dp659
g10
I1
ssVcom.android.packageinstaller
p660
(dp661
g10
F0.90000000000000002
ssVcom.tencent.pao
p662
(dp663
g10
F1.8999999999999999
ssg252
(dp664
g10
F2.7000000000000002
ssVcom.yuedong.sport
p665
(dp666
g10
F2.7000000000000002
ssg71
(dp667
g10
I1
ssVcom.tencent.android.qqdownloader
p668
(dp669
g10
F1.7
ssVcom.tencent.qqpimsecure
p670
(dp671
g10
F2.2999999999999998
ssVcom.tencent.mobileqq
p672
(dp673
g10
F0.40000000000000002
ssVcom.android.contacts
p674
(dp675
g10
I1
ssVcom.chaozh.iReaderFree
p676
(dp677
g10
I1
sssg61
(dp678
Vcom.storm.smart
p679
(dp680
g10
F1.6000000000000001
ssVcom.meizu.notepaper
p681
(dp682
g10
I1
ssVcom.android.mms
p683
(dp684
g10
I1
ssVcom.android.browser
p685
(dp686
g10
F5.9000000000000004
ssVcom.android.settings
p687
(dp688
g10
I3
ssg384
(dp689
g10
F17.5
ssg39
(dp690
g10
F4.6999999999999993
ssg63
(dp691
g10
F3.7999999999999998
ssVcom.tencent.token
p692
(dp693
g10
I1
ssVcom.android.deskclock
p694
(dp695
g10
I1
ssVcom.android.fileexplorer
p696
(dp697
g10
F1.7
ssVcom.tencent.qqlive
p698
(dp699
g10
F3.1999999999999997
ssVcom.android.phone
p700
(dp701
g10
I3
ssVcom.tencent.qqpimsecure
p702
(dp703
g10
F2.8999999999999999
ssg448
(dp704
g10
F25.599999999999991
ssVcom.android.contacts
p705
(dp706
g10
F4.0999999999999996
ssg79
(dp707
g10
I3
sssg63
(dp708
Vcom.tencent.mobileqq
p709
(dp710
g10
F1.7
ssVcom.taobao.taobao
p711
(dp712
g10
F1.8999999999999999
sssg65
(dp713
Vcom.android.browser
p714
(dp715
g10
F1.7
ssVcom.tencent.qqlive
p716
(dp717
g10
F3.6000000000000001
ssg278
(dp718
g10
F0.69999999999999996
ssVcom.tencent.mm
p719
(dp720
g10
F0.90000000000000002
ssVcom.android.settings
p721
(dp722
g10
F0.90000000000000002
ssVcom.android.packageinstaller
p723
(dp724
g10
F0.90000000000000002
ssVcom.tencent.pao
p725
(dp726
g10
F0.90000000000000002
ssVcom.android.gallery3d
p727
(dp728
g10
F5.8999999999999995
ssVcom.yuedong.sport
p729
(dp730
g10
I1
ssVcom.taobao.taobao
p731
(dp732
g10
F1.3
ssVcom.android.contacts
p733
(dp734
g10
F0.90000000000000002
ssVcom.tencent.android.qqdownloader
p735
(dp736
g10
I2
ssVcom.android.phone
p737
(dp738
g10
F3.3999999999999999
ssVcom.storm.smart
p739
(dp740
g10
F3.7000000000000002
ssg627
(dp741
g10
F1.3
ssVcom.tencent.mobileqq
p742
(dp743
g10
F22.499999999999996
ssVcom.android.mms
p744
(dp745
g10
F1.7
sssg67
(dp746
Vcom.android.browser
p747
(dp748
g10
F1.7
ssVcom.android.settings
p749
(dp750
g10
F0.90000000000000002
sssg69
(dp751
Vcom.android.browser
p752
(dp753
g10
I1
ssg81
(dp754
g10
I1
ssg83
(dp755
g10
F5.1000000000000005
ssVcom.meizu.mstore
p756
(dp757
g10
F1.3
ssg648
(dp758
g10
I10
ssg533
(dp759
g10
F0.90000000000000002
ssg39
(dp760
g10
I3
ssVcom.yuedong.sport
p761
(dp762
g10
F2.2999999999999998
ssVcom.tencent.token
p763
(dp764
g10
I1
ssg47
(dp765
g10
F20.199999999999996
ssVcom.autonavi.minimap
p766
(dp767
g10
F0.69999999999999996
ssg531
(dp768
g10
I1
ssVcom.tencent.mobileqq
p769
(dp770
g10
F4.7000000000000002
ssVcom.chaozh.iReaderFree
p771
(dp772
g10
F0.40000000000000002
sssg71
(dp773
g87
(dp774
g10
I1
ssg152
(dp775
g10
F1.7
ssVcom.tencent.pao
p776
(dp777
g10
F1.7
ssVcom.android.gallery3d
p778
(dp779
g10
I1
ssVcom.tencent.mobileqq
p780
(dp781
g10
F4.5999999999999996
ssVcom.chaozh.iReaderFree
p782
(dp783
g10
F1.8999999999999999
sssg73
(dp784
Vcom.tencent.qqpimsecure
p785
(dp786
g10
I1
ssVcom.android.browser
p787
(dp788
g10
F1.3
ssVcom.android.packageinstaller
p789
(dp790
g10
F0.69999999999999996
sssg75
(dp791
g302
(dp792
g10
F1.3
ssVcom.tencent.tmgp.carrot2
p793
(dp794
g10
I1
ssVcom.android.deskclock
p795
(dp796
g10
F8.6999999999999993
ssg65
(dp797
g10
F4.3999999999999995
ssVcom.tencent.android.qqdownloader
p798
(dp799
g10
F1.3999999999999999
ssg29
(dp800
g10
F13
ssVcom.android.contacts
p801
(dp802
g10
I4
ssVcom.android.packageinstaller
p803
(dp804
g10
F0.90000000000000002
ssVcom.android.gallery3d
p805
(dp806
g10
F1.8999999999999999
ssVcom.taobao.taobao
p807
(dp808
g10
I1
ssVcom.android.video
p809
(dp810
g10
F5.5000000000000009
ssVcom.android.phone
p811
(dp812
g10
I1
ssVcom.tencent.mobileqq
p813
(dp814
g10
F14.099999999999998
ssVcom.meizu.mzsnssyncservice
p815
(dp816
g10
I1
ssVcom.android.calculator
p817
(dp818
g10
I1
ssVcom.android.fileexplorer
p819
(dp820
g10
F8.5999999999999996
ssVcom.chaozh.iReaderFree
p821
(dp822
g10
F3.2999999999999998
ssg83
(dp823
g10
F0.69999999999999996
ssVcom.android.settings
p824
(dp825
g10
F2.8999999999999999
ssVcom.tencent.pao
p826
(dp827
g10
F5.5999999999999996
ssVcom.yuedong.sport
p828
(dp829
g10
I1
ssg97
(dp830
g10
I1
ssg287
(dp831
g10
F0.90000000000000002
sssg77
(dp832
Vcom.chaozh.iReaderFree
p833
(dp834
g10
I1
sssg79
(dp835
Vcom.android.browser
p836
(dp837
g10
F5.5999999999999996
ssg41
(dp838
g10
I2
ssVcom.tencent.tmgp.carrot2
p839
(dp840
g10
I2
ssg19
(dp841
g10
F11.9
ssVcom.chinamworld.bocmbci
p842
(dp843
g10
I1
ssVcom.snda.wifilocating
p844
(dp845
g10
I1
ssg211
(dp846
g10
F0.69999999999999996
ssVcom.storm.smart
p847
(dp848
g10
F2.7000000000000002
ssg31
(dp849
g10
F7.5
ssVcom.tencent.gamejoy
p850
(dp851
g10
F0.80000000000000004
ssg123
(dp852
g10
F0.90000000000000002
ssg125
(dp853
g10
F2.2999999999999998
ssVcom.meizu.mzsnssyncservice
p854
(dp855
g10
I1
ssVcom.android.phone
p856
(dp857
g10
F10.9
ssg132
(dp858
g10
F1.8999999999999999
ssg135
(dp859
g10
F4.1999999999999993
ssVcom.happyelements.AndroidAnimal.qq
p860
(dp861
g10
I1
ssg232
(dp862
g10
F6.9000000000000004
ssVcom.tencent.mobileqq
p863
(dp864
g10
F9.1999999999999993
ssVcom.android.calendar
p865
(dp866
g10
I1
ssg89
(dp867
g10
F1.7
ssg662
(dp868
g10
F4.7999999999999998
ssg93
(dp869
g10
F0.40000000000000002
ssVcom.autonavi.minimap
p870
(dp871
g10
F1.8999999999999999
sssg81
(dp872
Vcom.tencent.mobileqq
p873
(dp874
g10
I1
ssg533
(dp875
g10
I1
sssg83
(dp876
Vcom.android.fileexplorer
p877
(dp878
g10
F4.7000000000000002
ssVcom.android.video
p879
(dp880
g10
F3
ssg756
(dp881
g10
F1.7
sssg85
(dp882
Vcom.tencent.qqpimsecure
p883
(dp884
g10
F0.69999999999999996
ssVcom.android.settings
p885
(dp886
g10
I1
ssVcom.android.browser
p887
(dp888
g10
F1.3
sssg87
(dp889
g537
(dp890
g10
I1
ssVcom.android.gallery3d
p891
(dp892
g10
F7.4000000000000004
ssVcom.chaozh.iReaderFree
p893
(dp894
g10
I1
sssg89
(dp895
g8
(dp896
g10
F5.6000000000000005
ssg326
(dp897
g10
I1
ssg183
(dp898
g10
F1.8
ssVcom.tencent.mobileqq
p899
(dp900
g10
F11.500000000000002
ssVcom.android.packageinstaller
p901
(dp902
g10
F2.2999999999999998
ssVcom.tencent.pao
p903
(dp904
g10
F7
ssg93
(dp905
g10
I1
ssg411
(dp906
g10
F2
ssg15
(dp907
g10
F2.7000000000000002
ssVcom.yuedong.sport
p908
(dp909
g10
I3
ssVcom.android.deskclock
p910
(dp911
g10
F3.8999999999999999
ssVcom.android.fileexplorer
p912
(dp913
g10
F11.700000000000001
ssg47
(dp914
g10
F7.1000000000000005
ssVcom.tencent.token
p915
(dp916
g10
I1
ssVcom.tencent.android.qqdownloader
p917
(dp918
g10
F2.7000000000000002
ssVcom.android.phone
p919
(dp920
g10
I2
ssVcom.tencent.qqpimsecure
p921
(dp922
g10
F2.5
ssVcom.android.gallery3d
p923
(dp924
g10
F0.90000000000000002
ssg408
(dp925
g10
F6.0999999999999996
ssg117
(dp926
g10
F3.1000000000000001
ssVcom.chaozh.iReaderFree
p927
(dp928
g10
I2
sssg91
(dp929
Vcom.android.browser
p930
(dp931
g10
F8.4000000000000004
ssg11
(dp932
g10
F7.0000000000000009
ssVcom.tencent.tmgp.carrot2
p933
(dp934
g10
I1
ssVcom.android.deskclock
p935
(dp936
g10
F9.4000000000000004
ssg807
(dp937
g10
F0.90000000000000002
ssg27
(dp938
g10
F7.4000000000000004
ssVcom.storm.smart
p939
(dp940
g10
I1
ssVcom.android.contacts
p941
(dp942
g10
F8.1000000000000014
ssVcom.anzogame.game
p943
(dp944
g10
F2.8999999999999999
ssg35
(dp945
g10
F2.9999999999999996
ssg37
(dp946
g10
F2.6000000000000001
ssg629
(dp947
g10
F5.1999999999999993
ssVcom.android.video
p948
(dp949
g10
F3.2999999999999998
ssVcom.android.phone
p950
(dp951
g10
F12.200000000000001
ssg382
(dp952
g10
F26.79999999999999
ssVcom.android.calculator
p953
(dp954
g10
I1
ssVcom.android.fileexplorer
p955
(dp956
g10
F3.5
ssVcom.tencent.qqlive
p957
(dp958
g10
F5.9000000000000004
ssg77
(dp959
g10
F0.90000000000000002
ssVcom.chaozh.iReaderFree
p960
(dp961
g10
F6.3000000000000007
ssg81
(dp962
g10
F2
ssg160
(dp963
g10
F106.00000000000006
ssg683
(dp964
g10
F1.6000000000000001
ssVcom.yuedong.sport
p965
(dp966
g10
I1
ssVcom.android.settings
p967
(dp968
g10
F7.6000000000000014
ssg99
(dp969
g10
F12.800000000000001
sssg93
(dp970
g117
(dp971
g10
I1
ssg355
(dp972
g10
I1
sssg95
(dp973
g752
(dp974
g10
F1.8
ssVcom.tencent.pao
p975
(dp976
g10
F5.6000000000000005
ssVcom.android.calculator
p977
(dp978
g10
F3.6000000000000001
ssg766
(dp979
g10
F3.1999999999999997
ssg167
(dp980
g10
F4.5
ssg174
(dp981
g10
F1.3999999999999999
ssVcom.android.gallery3d
p982
(dp983
g10
F2.8999999999999999
ssg500
(dp984
g10
F0.69999999999999996
ssVcom.taobao.taobao
p985
(dp986
g10
F1.3
ssVcom.android.contacts
p987
(dp988
g10
F1.8999999999999999
ssVcom.android.fileexplorer
p989
(dp990
g10
F1.7
ssVcom.android.video
p991
(dp992
g10
F1.3
ssVcom.tencent.game.rhythmmaster
p993
(dp994
g10
F0.40000000000000002
ssVcom.tencent.token
p995
(dp996
g10
I1
ssg457
(dp997
g10
F5.9000000000000004
ssg508
(dp998
g10
I1
ssVcom.android.mms
p999
(dp1000
g10
I1
ssg77
(dp1001
g10
I1
ssVcom.tencent.mobileqq
p1002
(dp1003
g10
F14.600000000000001
ssVcom.android.phone
p1004
(dp1005
g10
I1
ssVcom.chaozh.iReaderFree
p1006
(dp1007
g10
F1.8999999999999999
sssg97
(dp1008
Vcom.android.deskclock
p1009
(dp1010
g10
I1
ssVcom.android.settings
p1011
(dp1012
g10
I1
ssVcom.tencent.pao
p1013
(dp1014
g10
F0.90000000000000002
ssVcom.android.contacts
p1015
(dp1016
g10
I1
ssVcom.android.phone
p1017
(dp1018
g10
I1
sssg99
(dp1019
Vcom.android.browser
p1020
(dp1021
g10
F2.7000000000000002
ssg428
(dp1022
g10
I1
ssg103
(dp1023
g10
F0.40000000000000002
ssg35
(dp1024
g10
I3
ssVcom.android.settings
p1025
(dp1026
g10
F1.8999999999999999
ssVcom.android.packageinstaller
p1027
(dp1028
g10
F1.8999999999999999
ssg384
(dp1029
g10
F2.2999999999999998
ssVcom.android.gallery3d
p1030
(dp1031
g10
F3.2999999999999998
ssVcom.yuedong.sport
p1032
(dp1033
g10
I1
ssg985
(dp1034
g10
F1.7
ssg500
(dp1035
g10
F0.90000000000000002
ssVcom.android.deskclock
p1036
(dp1037
g10
I1
ssg432
(dp1038
g10
F0.69999999999999996
ssVcom.storm.smart
p1039
(dp1040
g10
I1
ssg382
(dp1041
g10
F3
ssVcom.chaozh.iReaderFree
p1042
(dp1043
g10
F3.8999999999999999
ssVcom.tencent.mobileqq
p1044
(dp1045
g10
F6.2999999999999998
sssg101
(dp1046
g747
(dp1047
g10
F1.3
ssg67
(dp1048
g10
I1
ssg749
(dp1049
g10
F0.69999999999999996
sssg103
(dp1050
ssS'edge'
p1051
g109
sS'graph'
p1052
(dp1053
sS'adjlist_dict_factory'
p1054
g106
sS'adj'
p1055
g109
sS'pred'
p1056
(dp1057
g8
(dp1058
g541
g166
sg73
g788
sVcom.android.deskclock
p1059
g210
sg23
g257
sVcom.tencent.token
p1060
g715
sVcom.tencent.android.qqdownloader
p1061
g275
sVcom.storm.smart
p1062
g303
sg85
g888
sg261
g395
sg67
g748
sg127
g493
sVcom.android.contacts
p1063
g325
sVcom.android.phone
p1064
g540
sVcom.tencent.mm
p1065
g686
sVcom.android.calculator
p1066
g659
sg989
g753
sg312
g792
sVcom.chaozh.iReaderFree
p1067
g837
sVcom.tencent.mobileqq
p1068
g592
sVcom.android.settings
p1069
g896
sVcom.tencent.pao
p1070
g931
sVcom.android.mms
p1071
g454
sVcom.yuedong.sport
p1072
g974
sg883
g1021
sg101
g1047
ssg11
(dp1073
Vcom.android.settings
p1074
g897
sg37
g396
sVcom.tencent.pao
p1075
g932
sVcom.yuedong.sport
p1076
g994
sVcom.tencent.android.qqdownloader
p1077
g277
sg160
g594
sVcom.android.contacts
p1078
g327
ssg13
(dp1079
g165
g112
sg167
g398
sg1071
g465
sg761
g979
sVcom.meizu.mzsnssyncservice
p1080
g476
sVcom.android.fileexplorer
p1081
g767
sg23
g260
sg1064
g542
sg550
g305
sVcom.tencent.mobileqq
p1082
g596
sVcom.android.contacts
p1083
g329
sVcom.chaozh.iReaderFree
p1084
g871
ssg15
(dp1085
g366
g907
sVcom.meizu.mstore
p1086
g653
sVcom.tencent.mobileqq
p1087
g597
sVcom.android.contacts
p1088
g330
sVcom.android.phone
p1089
g543
ssg17
(dp1090
Vcom.tencent.pao
p1091
g934
sVcom.android.deskclock
p1092
g225
sVcom.tencent.qqlive
p1093
g794
sVcom.android.phone
p1094
g545
sVcom.tencent.mobileqq
p1095
g599
sVcom.android.contacts
p1096
g332
sVcom.chaozh.iReaderFree
p1097
g840
ssg19
(dp1098
Vcom.android.browser
p1099
g114
sVcom.anzogame.game
p1100
g376
sVcom.tencent.pao
p1101
g936
sVcom.android.settings
p1102
g911
sVcom.tencent.mm
p1103
g695
sVcom.meizu.mzsnssyncservice
p1104
g482
sVcom.tencent.tmgp.carrot2
p1105
g193
sVcom.tencent.qqpimsecure
p1106
g1037
sVcom.android.video
p1107
g524
sVcom.taobao.taobao
p1108
g503
sVcom.tencent.qqlive
p1109
g796
sVcom.android.phone
p1110
g547
sVcom.storm.smart
p1111
g311
sVcom.tencent.mobileqq
p1112
g601
sVcom.android.contacts
p1113
g334
sVcom.chaozh.iReaderFree
p1114
g841
sVcom.ss.android.essay.joke
p1115
g1010
ssg21
(dp1116
Vcom.anzogame.game
p1117
g378
sg373
g399
sVcom.tencent.mobileqq
p1118
g602
sVcom.taobao.taobao
p1119
g505
sVcom.chaozh.iReaderFree
p1120
g843
ssg23
(dp1121
g541
g171
sVcom.tencent.mobileqq
p1122
g604
sVcom.android.contacts
p1123
g336
sVcom.chaozh.iReaderFree
p1124
g845
sg1064
g548
ssg25
(dp1125
g271
g606
ssg27
(dp1126
Vcom.tencent.gamejoy
p1127
g387
sVcom.android.calculator
p1128
g669
sVcom.android.settings
p1129
g918
sVcom.android.packageinstaller
p1130
g401
sVcom.tencent.pao
p1131
g938
sVcom.android.gallery3d
p1132
g443
sg65
g736
sVcom.tencent.tmgp.carrot2
p1133
g187
sVcom.android.deskclock
p1134
g212
sVcom.taobao.taobao
p1135
g507
sVcom.tencent.qqlive
p1136
g799
sVcom.tencent.mobileqq
p1137
g608
sVcom.chaozh.iReaderFree
p1138
g846
ssg29
(dp1139
g302
g116
sVcom.tencent.android.qqdownloader
p1140
g294
sg304
g173
sVcom.android.packageinstaller
p1141
g402
sVcom.tencent.pao
p1142
g940
sVcom.android.gallery3d
p1143
g447
sg308
g740
sg310
g227
sg1107
g530
sVcom.tencent.qqlive
p1144
g800
sVcom.android.phone
p1145
g551
sg287
g1040
sVcom.tencent.mm
p1146
g680
sVcom.android.contacts
p1147
g339
sVcom.chaozh.iReaderFree
p1148
g848
ssg31
(dp1149
g836
g118
sVcom.android.mms
p1150
g473
sVcom.tencent.tmgp.carrot2
p1151
g205
sVcom.android.deskclock
p1152
g240
sVcom.tencent.token
p1153
g734
sVcom.tencent.android.qqdownloader
p1154
g298
sVcom.storm.smart
p1155
g318
sg123
g403
sVcom.android.gallery3d
p1156
g451
sVcom.meizu.mzsnssyncservice
p1157
g488
sg49
g553
sVcom.tencent.mm
p1158
g706
sVcom.android.calculator
p1159
g675
sVcom.tencent.qqlive
p1160
g802
sVcom.chaozh.iReaderFree
p1161
g849
sVcom.tencent.mobileqq
p1162
g610
sg143
g926
sVcom.tencent.pao
p1163
g942
sg93
g971
sVcom.yuedong.sport
p1164
g988
sVcom.ss.android.essay.joke
p1165
g1016
sVcom.autonavi.minimap
p1166
g177
ssg33
(dp1167
Vcom.android.browser
p1168
g120
sg373
g404
sVcom.tencent.pao
p1169
g944
sVcom.android.gallery3d
p1170
g429
sg377
g251
sg440
g1022
sVcom.tencent.mobileqq
p1171
g612
ssg35
(dp1172
Vcom.android.browser
p1173
g122
sg803
g405
sg219
g945
sg65
g718
sg844
g259
sg735
g279
sg99
g1024
sg237
g613
sVcom.android.contacts
p1174
g341
sg1138
g851
ssg37
(dp1175
g836
g124
sg1117
g374
sVcom.tencent.game.rhythmmaster
p1176
g153
sg1136
g804
sg1128
g661
sVcom.android.settings
p1177
g902
sg1075
g946
sg761
g980
sg65
g724
sg156
g775
sVcom.snda.wifilocating
p1178
g262
sg73
g790
sVcom.tencent.android.qqdownloader
p1179
g283
sg766
g168
sVcom.tencent.qqpimsecure
p1180
g1028
sVcom.tencent.mobileqq
p1181
g614
sg1067
g852
ssg39
(dp1182
Vcom.android.browser
p1183
g126
sVcom.meizu.mstore
p1184
g651
sg434
g892
sVcom.tencent.mobileqq
p1185
g616
sVcom.yuedong.sport
p1186
g983
sVcom.tencent.token
p1187
g728
sg696
g760
sVcom.happyelements.AndroidAnimal.qq
p1188
g779
sVcom.tencent.qqlive
p1189
g806
sVcom.android.phone
p1190
g555
sVcom.tencent.qqpimsecure
p1191
g1031
sVcom.tencent.mm
p1192
g690
sVcom.android.contacts
p1193
g343
sVcom.chaozh.iReaderFree
p1194
g853
sVcom.android.settings
p1195
g924
ssg41
(dp1196
g246
g664
sVcom.tencent.pao
p1197
g964
sVcom.yuedong.sport
p1198
g1000
sg1157
g478
sVcom.chinamworld.bocmbci
p1199
g253
sg1153
g745
sVcom.android.phone
p1200
g556
sVcom.tencent.mm
p1201
g684
sg487
g345
sVcom.chaozh.iReaderFree
p1202
g838
ssg43
(dp1203
Vcom.android.deskclock
p1204
g224
sVcom.android.video
p1205
g522
sVcom.tencent.qqlive
p1206
g816
sVcom.android.phone
p1207
g557
sVcom.tencent.mobileqq
p1208
g626
sVcom.android.contacts
p1209
g337
sVcom.chaozh.iReaderFree
p1210
g855
ssg45
(dp1211
Vcom.android.browser
p1212
g128
sVcom.tencent.pao
p1213
g937
sVcom.yuedong.sport
p1214
g986
sVcom.tencent.token
p1215
g732
sg500
g712
sVcom.android.deskclock
p1216
g214
sg504
g255
sVcom.tencent.qqlive
p1217
g808
sVcom.android.phone
p1218
g549
sg508
g1034
sVcom.tencent.mobileqq
p1219
g617
sVcom.android.contacts
p1220
g347
ssg47
(dp1221
g83
g880
sg756
g656
sVcom.android.settings
p1222
g914
sVcom.tencent.pao
p1223
g949
sg519
g992
sVcom.tencent.tmgp.carrot2
p1224
g197
sVcom.android.deskclock
p1225
g229
sVcom.android.fileexplorer
p1226
g765
sVcom.tencent.qqlive
p1227
g810
sVcom.android.phone
p1228
g559
sVcom.tencent.mobileqq
p1229
g619
ssg49
(dp1230
Vcom.android.browser
p1231
g130
sg744
g467
sVcom.ss.android.essay.joke
p1232
g1018
sVcom.tencent.qqlive
p1233
g812
sVcom.android.settings
p1234
g920
sVcom.tencent.pao
p1235
g951
sVcom.android.gallery3d
p1236
g445
sVcom.yuedong.sport
p1237
g1005
sVcom.meizu.mzsnssyncservice
p1238
g484
sVcom.tencent.tmgp.carrot2
p1239
g201
sVcom.android.deskclock
p1240
g235
sVcom.android.video
p1241
g528
sVcom.tencent.token
p1242
g738
sg1154
g292
sVcom.storm.smart
p1243
g315
sVcom.tencent.mm
p1244
g701
sVcom.android.contacts
p1245
g349
sVcom.chaozh.iReaderFree
p1246
g857
sVcom.tencent.mobileqq
p1247
g621
ssg51
(dp1248
Vcom.android.browser
p1249
g131
sVcom.android.packageinstaller
p1250
g407
sVcom.tencent.mobileqq
p1251
g622
sVcom.tencent.gamejoy
p1252
g389
ssg53
(dp1253
g1173
g142
sg11
g161
sVcom.tencent.tmgp.carrot2
p1254
g203
sVcom.android.deskclock
p1255
g238
sg377
g249
sg844
g266
sg25
g272
sg607
g296
sVcom.android.contacts
p1256
g358
sg33
g372
sg121
g391
sg37
g416
sg125
g449
sg65
g743
sg1135
g495
sVcom.android.video
p1257
g538
sVcom.android.phone
p1258
g573
sg51
g589
sg132
g704
sVcom.meizu.mzsnssyncservice
p1259
g486
sg1128
g673
sg627
g710
sVcom.android.fileexplorer
p1260
g770
sVcom.happyelements.AndroidAnimal.qq
p1261
g781
sVcom.tencent.qqlive
p1262
g814
sVcom.chaozh.iReaderFree
p1263
g864
sg681
g874
sg515
g890
sg1074
g900
sg1075
g963
sVcom.android.mms
p1264
g471
sVcom.yuedong.sport
p1265
g1003
sVcom.tencent.qqpimsecure
p1266
g1045
ssg55
(dp1267
Vcom.android.browser
p1268
g134
sg261
g410
sg1178
g267
ssg57
(dp1269
Vcom.meizu.cloud
p1270
g881
sg366
g898
sg650
g431
sg15
g184
sVcom.android.fileexplorer
p1271
g757
sg1087
g624
sg1088
g352
ssg59
(dp1272
g975
g954
sg252
g456
sVcom.yuedong.sport
p1273
g978
sg1199
g247
sVcom.tencent.qqlive
p1274
g818
sVcom.android.phone
p1275
g563
ssg61
(dp1276
g1183
g133
sg33
g379
sg81
g875
sg35
g383
sg1177
g925
sg901
g409
sg219
g952
sg683
g460
sg421
g981
sg45
g511
sVcom.android.contacts
p1277
g351
sVcom.android.deskclock
p1278
g218
sg215
g759
sg228
g534
sg1060
g720
sVcom.android.phone
p1279
g561
sg99
g1041
sVcom.tencent.mtt
p1280
g587
sg371
g623
sg397
g175
sg1194
g858
ssg63
(dp1281
g1177
g906
sg901
g412
sg1214
g984
sVcom.taobao.taobao
p1282
g501
sVcom.tencent.token
p1283
g741
sg508
g1035
sVcom.tencent.mm
p1284
g691
sVcom.tencent.mobileqq
p1285
g628
ssg65
(dp1286
g1136
g797
sVcom.tencent.mm
p1287
g693
sg721
g916
sg803
g406
sg496
g947
sVcom.yuedong.sport
p1288
g996
sVcom.meizu.mzsnssyncservice
p1289
g480
sVcom.android.deskclock
p1290
g231
sVcom.android.fileexplorer
p1291
g764
sg798
g286
sVcom.android.phone
p1292
g564
sVcom.storm.smart
p1293
g309
sg494
g630
sVcom.android.contacts
p1294
g354
ssg67
(dp1295
g101
g1048
ssg69
(dp1296
Vcom.android.browser
p1297
g136
sg83
g878
sg57
g654
sg648
g913
sg1223
g956
sg1030
g433
sg1072
g990
sg1224
g195
sg1225
g216
sg47
g526
sVcom.tencent.qqlive
p1298
g820
sVcom.android.phone
p1299
g566
sVcom.tencent.qqpimsecure
p1300
g1038
sg1192
g697
sVcom.chaozh.iReaderFree
p1301
g859
sVcom.tencent.mobileqq
p1302
g632
ssg71
(dp1303
g1176
g157
sg59
g667
sg152
g414
sVcom.android.phone
p1304
g568
sVcom.tencent.mobileqq
p1305
g634
sVcom.chaozh.iReaderFree
p1306
g861
ssg73
(dp1307
sg75
(dp1308
Vcom.android.browser
p1309
g138
sVcom.tencent.game.rhythmmaster
p1310
g159
sg53
g635
sVcom.android.packageinstaller
p1311
g415
sVcom.tencent.pao
p1312
g958
sVcom.tencent.token
p1313
g717
sVcom.tencent.tmgp.carrot2
p1314
g199
sVcom.android.deskclock
p1315
g233
sg1140
g290
sVcom.android.phone
p1316
g570
sg847
g313
sg1146
g699
sVcom.chaozh.iReaderFree
p1317
g862
ssg77
(dp1318
Vcom.android.fileexplorer
p1319
g768
sVcom.android.video
p1320
g532
sVcom.tencent.pao
p1321
g959
sg965
g1001
ssg79
(dp1322
g302
g140
sVcom.tencent.game.rhythmmaster
p1323
g163
sg13
g179
sVcom.tencent.tmgp.carrot2
p1324
g207
sVcom.android.deskclock
p1325
g242
sg211
g300
sVcom.storm.smart
p1326
g320
sVcom.android.contacts
p1327
g356
sg33
g380
sg850
g392
sVcom.meizu.mzsnssyncservice
p1328
g490
sVcom.android.video
p1329
g536
sg856
g572
sg371
g636
sVcom.android.calculator
p1330
g677
sVcom.android.fileexplorer
p1331
g772
sVcom.happyelements.AndroidAnimal.qq
p1332
g783
sVcom.tencent.qqlive
p1333
g822
sg77
g834
sVcom.android.calendar
p1334
g894
sg61
g707
sVcom.tencent.pao
p1335
g961
sg361
g972
sVcom.yuedong.sport
p1336
g1007
sVcom.android.settings
p1337
g928
sVcom.tencent.qqpimsecure
p1338
g1043
ssg81
(dp1339
g215
g754
sg228
g513
sVcom.tencent.pao
p1340
g962
sVcom.tencent.mm
p1341
g682
ssg83
(dp1342
Vcom.android.fileexplorer
p1343
g755
sVcom.android.video
p1344
g514
sg756
g647
sVcom.tencent.qqlive
p1345
g823
ssg85
(dp1346
sg87
(dp1347
Vcom.android.gallery3d
p1348
g435
sg1257
g516
sVcom.happyelements.AndroidAnimal.qq
p1349
g774
sVcom.android.phone
p1350
g575
sVcom.tencent.mobileqq
p1351
g637
sVcom.chaozh.iReaderFree
p1352
g866
ssg89
(dp1353
g836
g144
sVcom.android.thememanager
p1354
g182
sg598
g189
sVcom.android.deskclock
p1355
g244
sg1061
g281
sVcom.storm.smart
p1356
g322
sg85
g886
sg123
g417
sg67
g750
sg629
g722
sg1088
g367
sVcom.android.video
p1357
g518
sg1089
g576
sVcom.tencent.mm
p1358
g688
sg57
g649
sg69
g758
sVcom.tencent.qqlive
p1359
g825
sVcom.chaozh.iReaderFree
p1360
g867
sg1087
g638
sVcom.tencent.pao
p1361
g968
sVcom.android.mms
p1362
g458
sg95
g997
sg364
g1012
sVcom.tencent.qqpimsecure
p1363
g1026
sg101
g1049
ssg91
(dp1364
g1173
g146
sVcom.tencent.game.rhythmmaster
p1365
g155
sg1254
g191
sg1255
g220
sg335
g264
sg915
g726
sg442
g285
sVcom.storm.smart
p1366
g307
sVcom.android.contacts
p1367
g360
sg35
g385
sVcom.android.packageinstaller
p1368
g419
sg1132
g437
sg1135
g497
sg950
g578
sVcom.tencent.mobileqq
p1369
g639
sg1330
g663
sg1261
g777
sg1262
g827
sg676
g868
sg382
g689
sg1264
g462
sVcom.yuedong.sport
p1370
g976
sg364
g1014
sg967
g904
sg99
g1029
ssg93
(dp1371
g836
g147
sg143
g905
sg123
g420
sVcom.android.phone
p1372
g579
sg1327
g362
sg1067
g869
ssg95
(dp1373
g1321
g966
sg977
g666
sg766
g170
sg167
g422
sVcom.android.phone
p1374
g581
sg982
g439
sg1362
g463
sVcom.taobao.taobao
p1375
g499
sVcom.android.deskclock
p1376
g222
sg1081
g762
sg1357
g520
sVcom.tencent.token
p1377
g730
sVcom.tencent.qqlive
p1378
g829
sVcom.android.settings
p1379
g909
sVcom.tencent.qqpimsecure
p1380
g1033
sVcom.tencent.mobileqq
p1381
g641
sVcom.android.contacts
p1382
g363
ssg97
(dp1383
Vcom.android.packageinstaller
p1384
g423
sVcom.tencent.mobileqq
p1385
g642
sVcom.android.contacts
p1386
g365
sVcom.tencent.qqlive
p1387
g830
sVcom.android.phone
p1388
g582
ssg99
(dp1389
Vcom.android.browser
p1390
g149
sg1170
g441
sg289
g831
sVcom.android.calculator
p1391
g671
sg560
g703
sg1027
g425
sg219
g969
sg252
g469
sg1214
g998
sg1282
g509
sg85
g884
sg1255
g236
sg25
g270
sVcom.tencent.android.qqdownloader
p1392
g288
sg1279
g584
sg293
g316
sg73
g786
sg237
g643
sg1367
g369
sVcom.android.settings
p1393
g922
ssg101
(dp1394
sg103
(dp1395
g785
g1023
sg787
g150
sg789
g426
sssb.