ccopy_reg
_reconstructor
p1
(cnetworkx.classes.digraph
DiGraph
p2
c__builtin__
object
p3
NtRp4
(dp5
S'node'
p6
(dp7
Vcom.android.browser
p8
(dp9
S'weight'
p10
F0.0065811677354033074
ssVcom.android.updater
p11
(dp12
g10
F5.8797174442984965e-07
ssVcom.xiaomi.smarthome
p13
(dp14
g10
F4.4097880832238726e-05
ssVcom.duowan.mobile
p15
(dp16
g10
F0.0001810952972843937
ssVcom.snda.wifilocating
p17
(dp18
g10
F8.9371705153337152e-05
ssVcom.tencent.token
p19
(dp20
g10
F0.00050271584148752152
ssVcom.eg.android.AlipayGphone
p21
(dp22
g10
F0.0013887892603433049
ssVcn.wps.moffice_eng
p23
(dp24
g10
F0.003454333998525367
ssVcom.android.packageinstaller
p25
(dp26
g10
F2.5282785010483537e-05
ssVcom.baidu.searchbox
p27
(dp28
g10
F0.45251187408937876
ssVcom.taobao.taobao
p29
(dp30
g10
F5.8797174442984965e-07
ssVcom.android.phone
p31
(dp32
g10
F0.0067075816604557255
ssVcom.miui.gallery
p33
(dp34
g10
F0.0001028950552752237
ssVcom.tencent.mobileqq
p35
(dp36
g10
F0.41693958355137284
ssVcom.miui.antispam
p37
(dp38
g10
F3.5278304665790979e-06
ssVcom.kugou.android
p39
(dp40
g10
F0.022280601283424725
ssVcom.cootek.smartdialer
p41
(dp42
g10
F0.0065188427304937431
ssVcom.android.fileexplorer
p43
(dp44
g10
F4.9977598276537225e-05
ssVcom.changyou.zzb
p45
(dp46
g10
F0.037198620383098867
ssVcom.android.calendar
p47
(dp48
g10
F6.4676891887283471e-05
ssVcom.tencent.mm
p49
(dp50
g10
F0.019031469423705375
ssVorg.zywx.wbpalmstar.widgetone.uex11368919
p51
(dp52
g10
F1.8227124077325339e-05
ssVcom.android.mms
p53
(dp54
g10
F0.0013082371313564156
ssVcom.baidu.BaiduMap
p55
(dp56
g10
F0.00046155781937743198
ssVcom.qzone
p57
(dp58
g10
F0.00041216819284532464
ssVcom.duowan.lolbox
p59
(dp60
g10
F0.0042533875992055324
ssVcom.android.settings
p61
(dp62
g10
F0.017730287953282117
ssVcom.android.quicksearchbox
p63
(dp64
g10
F2.3518869777193986e-06
ssVcom.android.camera
p65
(dp66
g10
F0.00014111321866316391
ssVcom.tencent.qt.qtl
p67
(dp68
g10
F0.0019949881288504798
sssS'node_dict_factory'
p69
c__builtin__
dict
p70
sS'edge_attr_dict_factory'
p71
g70
sS'succ'
p72
(dp73
g8
(dp74
g23
(dp75
g10
F4.7999999999999998
ssVcom.tencent.mm
p76
(dp77
g10
F4.9000000000000004
ssg25
(dp78
g10
I1
ssVcom.android.mms
p79
(dp80
g10
I1
ssVcom.baidu.searchbox
p81
(dp82
g10
F8.6000000000000014
ssVcom.android.phone
p83
(dp84
g10
F3
ssVcom.android.camera
p85
(dp86
g10
F0.90000000000000002
ssVcom.tencent.mobileqq
p87
(dp88
g10
F9.6999999999999993
ssg51
(dp89
g10
F0.90000000000000002
ssVcom.android.settings
p90
(dp91
g10
F0.69999999999999996
sssg11
(dp92
Vcom.tencent.mm
p93
(dp94
g10
I1
sssg13
(dp95
Vcom.android.settings
p96
(dp97
g10
F0.90000000000000002
ssVcom.kugou.android
p98
(dp99
g10
I4
ssVcom.baidu.searchbox
p100
(dp101
g10
F1.7
ssVcom.android.quicksearchbox
p102
(dp103
g10
I1
ssVcom.tencent.mm
p104
(dp105
g10
F2.2999999999999998
ssVcom.eg.android.AlipayGphone
p106
(dp107
g10
F2.7999999999999998
ssVcom.tencent.mobileqq
p108
(dp109
g10
F3.7999999999999998
sssg15
(dp110
Vcom.tencent.mm
p111
(dp112
g10
F1.3
ssVcom.tencent.mobileqq
p113
(dp114
g10
F2.8999999999999999
ssVcom.baidu.searchbox
p115
(dp116
g10
F0.69999999999999996
sssg17
(dp117
Vcom.android.settings
p118
(dp119
g10
F1.6000000000000001
ssVcom.tencent.mm
p120
(dp121
g10
F1.1000000000000001
ssVcom.tencent.mobileqq
p122
(dp123
g10
F2.2999999999999998
ssVcom.baidu.searchbox
p124
(dp125
g10
I1
ssVcom.android.browser
p126
(dp127
g10
I1
sssg19
(dp128
Vcom.tencent.mm
p129
(dp130
g10
I1
ssVcom.tencent.mobileqq
p131
(dp132
g10
I1
sssg21
(dp133
Vcom.xiaomi.smarthome
p134
(dp135
g10
F2.7999999999999998
ssVcom.kugou.android
p136
(dp137
g10
F1.7
ssVcom.miui.gallery
p138
(dp139
g10
I1
ssVcom.android.mms
p140
(dp141
g10
F9.6999999999999993
ssVcom.changyou.zzb
p142
(dp143
g10
F1.7
sssg23
(dp144
Vcom.android.browser
p145
(dp146
g10
F8.1000000000000014
ssVcom.tencent.mobileqq
p147
(dp148
g10
F5.2000000000000002
ssg53
(dp149
g10
I1
ssg81
(dp150
g10
F8.4000000000000004
ssVcom.snda.wifilocating
p151
(dp152
g10
F0.90000000000000002
ssg76
(dp153
g10
F3.5
sssg25
(dp154
Vcom.android.browser
p155
(dp156
g10
F0.90000000000000002
ssg51
(dp157
g10
I1
ssVcom.tencent.mm
p158
(dp159
g10
F1.7
ssVcom.baidu.searchbox
p160
(dp161
g10
F0.90000000000000002
ssVcom.tencent.mobileqq
p162
(dp163
g10
I1
sssg27
(dp164
Vcom.kugou.android
p165
(dp166
g10
F12.300000000000001
ssg8
(dp167
g10
F24.499999999999996
ssg23
(dp168
g10
F7.0000000000000009
ssVcom.android.calendar
p169
(dp170
g10
F5.4000000000000004
ssVcom.tencent.mobileqq
p171
(dp172
g10
F693.50000000000171
ssVcom.android.packageinstaller
p173
(dp174
g10
F2.6000000000000001
ssVcom.changyou.zzb
p175
(dp176
g10
F7.5999999999999996
ssVcom.android.mms
p177
(dp178
g10
F16.899999999999999
ssVcom.tencent.token
p179
(dp180
g10
F1.8999999999999999
ssVcom.cootek.smartdialer
p181
(dp182
g10
F31.599999999999984
ssVcom.android.fileexplorer
p183
(dp184
g10
F2.8999999999999999
ssVcom.xiaomi.smarthome
p185
(dp186
g10
I3
ssVcom.qzone
p187
(dp188
g10
F10.199999999999999
ssg151
(dp189
g10
I1
ssVcom.android.phone
p190
(dp191
g10
F47.099999999999987
ssg102
(dp192
g10
F0.90000000000000002
ssVcom.android.camera
p193
(dp194
g10
F3.5
ssg138
(dp195
g10
F0.90000000000000002
ssVcom.tencent.mm
p196
(dp197
g10
F102.60000000000009
ssVcom.eg.android.AlipayGphone
p198
(dp199
g10
I1
ssVcom.android.settings
p200
(dp201
g10
F19
sssg29
(dp202
Vcom.tencent.mm
p203
(dp204
g10
F0.90000000000000002
ssVcom.tencent.mobileqq
p205
(dp206
g10
F1.7
ssVcom.baidu.searchbox
p207
(dp208
g10
F0.40000000000000002
sssg31
(dp209
Vcom.android.browser
p210
(dp211
g10
F2.1000000000000001
ssVcom.android.calendar
p212
(dp213
g10
F1.6000000000000001
ssVcom.tencent.mobileqq
p214
(dp215
g10
F26.899999999999991
ssg11
(dp216
g10
F1.1000000000000001
ssg140
(dp217
g10
F4.2000000000000002
ssVcom.baidu.BaiduMap
p218
(dp219
g10
I1
ssVcom.baidu.searchbox
p220
(dp221
g10
F13.200000000000003
ssVcom.cootek.smartdialer
p222
(dp223
g10
F100.90000000000008
ssVcom.qzone
p224
(dp225
g10
F0.40000000000000002
ssVcom.changyou.zzb
p226
(dp227
g10
I1
ssVcom.tencent.mm
p228
(dp229
g10
F10.800000000000001
ssg21
(dp230
g10
F1.3
ssVcom.android.settings
p231
(dp232
g10
F3.7999999999999998
sssg33
(dp233
g65
(dp234
g10
I1
ssVcom.tencent.mobileqq
p235
(dp236
g10
F1.8999999999999999
sssg35
(dp237
Vcom.android.browser
p238
(dp239
g10
F11.000000000000002
ssVcom.xiaomi.smarthome
p240
(dp241
g10
F2.7999999999999998
ssg17
(dp242
g10
F3.7999999999999998
ssVcom.tencent.token
p243
(dp244
g10
F6.6000000000000005
ssVcom.eg.android.AlipayGphone
p245
(dp246
g10
F0.90000000000000002
ssVcn.wps.moffice_eng
p247
(dp248
g10
F1.8
ssg25
(dp249
g10
F1.7
ssVcom.baidu.searchbox
p250
(dp251
g10
F744.10000000000207
ssVcom.android.phone
p252
(dp253
g10
F72.000000000000028
ssVcom.miui.gallery
p254
(dp255
g10
I1
ssg196
(dp256
g10
F178.50000000000011
ssg37
(dp257
g10
F2
ssVcom.kugou.android
p258
(dp259
g10
F30.099999999999998
ssg41
(dp260
g10
F78.400000000000048
ssg183
(dp261
g10
F2
ssg45
(dp262
g10
F14.699999999999999
ssg47
(dp263
g10
F8.4000000000000004
ssVcom.android.settings
p264
(dp265
g10
F30.999999999999993
ssVcom.tencent.qt.qtl
p266
(dp267
g10
F2.8999999999999999
ssVcom.android.mms
p268
(dp269
g10
F30.499999999999989
ssVcom.baidu.BaiduMap
p270
(dp271
g10
I4
ssg57
(dp272
g10
F13.299999999999999
ssVcom.duowan.lolbox
p273
(dp274
g10
I3
ssVcom.android.camera
p275
(dp276
g10
F15.6
ssg51
(dp277
g10
F0.40000000000000002
sssg37
(dp278
Vcom.tencent.mm
p279
(dp280
g10
F1.3
ssVcom.android.mms
p281
(dp282
g10
F4.4000000000000004
sssg39
(dp283
Vcom.cootek.smartdialer
p284
(dp285
g10
F2.3999999999999999
ssVcom.tencent.mobileqq
p286
(dp287
g10
F37.799999999999997
ssg173
(dp288
g10
F1.3
ssVcom.android.phone
p289
(dp290
g10
F1.3
ssVcom.android.mms
p291
(dp292
g10
F1.8999999999999999
ssVcom.baidu.searchbox
p293
(dp294
g10
F7.9000000000000004
ssVcom.xiaomi.smarthome
p295
(dp296
g10
F4.8999999999999995
ssg183
(dp297
g10
F0.40000000000000002
ssVcom.qzone
p298
(dp299
g10
F3
ssVcom.android.settings
p300
(dp301
g10
I1
ssVcom.tencent.mm
p302
(dp303
g10
F6.5000000000000009
ssg106
(dp304
g10
F6
sssg41
(dp305
g212
(dp306
g10
F1.3
ssVcom.tencent.mobileqq
p307
(dp308
g10
F30.299999999999986
ssg11
(dp309
g10
F0.90000000000000002
ssVcom.changyou.zzb
p310
(dp311
g10
I1
ssg140
(dp312
g10
F2.7000000000000002
ssVcom.baidu.searchbox
p313
(dp314
g10
F12.300000000000001
ssg224
(dp315
g10
F1.7
ssg252
(dp316
g10
F162.70000000000019
ssVcom.android.camera
p317
(dp318
g10
F0.90000000000000002
ssVcom.tencent.mm
p319
(dp320
g10
F10.6
ssg21
(dp321
g10
F1.7
ssVcom.android.settings
p322
(dp323
g10
F0.69999999999999996
sssg43
(dp324
Vcom.tencent.mm
p325
(dp326
g10
F1.8999999999999999
ssg35
(dp327
g10
F6.1000000000000005
ssVcn.wps.moffice_eng
p328
(dp329
g10
I3
ssVcom.baidu.searchbox
p330
(dp331
g10
F1.7999999999999998
sssg45
(dp332
Vcom.android.calendar
p333
(dp334
g10
F0.90000000000000002
ssVcom.tencent.mm
p335
(dp336
g10
F3.8999999999999999
ssVcom.android.mms
p337
(dp338
g10
F5.5
ssVcom.baidu.searchbox
p339
(dp340
g10
F13.6
ssg41
(dp341
g10
F3.3999999999999999
ssVcom.android.phone
p342
(dp343
g10
F4.5
ssVcom.tencent.mobileqq
p344
(dp345
g10
F13.4
ssVcom.eg.android.AlipayGphone
p346
(dp347
g10
F2.7000000000000002
sssg47
(dp348
Vcom.tencent.mm
p349
(dp350
g10
I1
ssVcom.baidu.searchbox
p351
(dp352
g10
F3.1999999999999997
ssVcom.cootek.smartdialer
p353
(dp354
g10
F1.3999999999999999
ssVcom.android.phone
p355
(dp356
g10
F2.5
ssVcom.android.camera
p357
(dp358
g10
I1
ssVcom.tencent.mobileqq
p359
(dp360
g10
F5.4000000000000004
sssg49
(dp361
g8
(dp362
g10
F10.900000000000002
ssg11
(dp363
g10
I1
ssg295
(dp364
g10
I1
ssVcom.duowan.mobile
p365
(dp366
g10
F0.90000000000000002
ssg245
(dp367
g10
I1
ssg23
(dp368
g10
F1.6000000000000001
ssg25
(dp369
g10
F1.8999999999999999
ssg27
(dp370
g10
F106.70000000000013
ssg252
(dp371
g10
F5.6000000000000005
ssVcom.tencent.mobileqq
p372
(dp373
g10
F129.60000000000019
ssg165
(dp374
g10
F2.5999999999999996
ssg181
(dp375
g10
F7.3000000000000007
ssVcom.android.fileexplorer
p376
(dp377
g10
I1
ssVcom.changyou.zzb
p378
(dp379
g10
I1
ssVcom.android.calendar
p380
(dp381
g10
F1.7
ssVcom.android.settings
p382
(dp383
g10
F8.5999999999999996
ssVcom.tencent.qt.qtl
p384
(dp385
g10
I1
ssg268
(dp386
g10
F1.6000000000000001
ssg57
(dp387
g10
F2.5999999999999996
ssVcom.duowan.lolbox
p388
(dp389
g10
I1
ssg63
(dp390
g10
I1
ssg51
(dp391
g10
F0.69999999999999996
sssg51
(dp392
g155
(dp393
g10
I1
ssg158
(dp394
g10
F0.90000000000000002
sssg53
(dp395
Vcom.android.browser
p396
(dp397
g10
F2.3999999999999999
ssVcom.tencent.mobileqq
p398
(dp399
g10
F15.999999999999996
ssg142
(dp400
g10
F1.8999999999999999
ssVcom.kugou.android
p401
(dp402
g10
F1.3
ssVcom.baidu.searchbox
p403
(dp404
g10
F19.699999999999999
ssVcom.cootek.smartdialer
p405
(dp406
g10
F3.2999999999999998
ssg57
(dp407
g10
F0.90000000000000002
ssVcom.android.phone
p408
(dp409
g10
F4.2999999999999998
ssVcom.tencent.mm
p410
(dp411
g10
F6.9000000000000004
ssg37
(dp412
g10
F4.4000000000000004
ssVcom.eg.android.AlipayGphone
p413
(dp414
g10
F9.0999999999999996
ssVcom.android.settings
p415
(dp416
g10
F3.1999999999999997
sssg55
(dp417
g47
(dp418
g10
F1.7
ssVcom.cootek.smartdialer
p419
(dp420
g10
F2.3999999999999999
ssVcom.tencent.mobileqq
p421
(dp422
g10
F5.7000000000000002
ssVcom.android.phone
p423
(dp424
g10
F4.4000000000000004
sssg57
(dp425
Vcom.tencent.mobileqq
p426
(dp427
g10
F12.800000000000001
ssg67
(dp428
g10
I1
ssVcom.kugou.android
p429
(dp430
g10
F3.2999999999999998
ssVcom.baidu.searchbox
p431
(dp432
g10
F12.199999999999999
ssVcom.android.settings
p433
(dp434
g10
I1
ssVcom.tencent.mm
p435
(dp436
g10
F0.90000000000000002
sssg59
(dp437
Vcom.tencent.mobileqq
p438
(dp439
g10
F3.2999999999999998
ssg365
(dp440
g10
I1
ssVcom.tencent.mm
p441
(dp442
g10
F2.3999999999999999
ssVcom.baidu.searchbox
p443
(dp444
g10
F2.2999999999999998
ssVcom.android.phone
p445
(dp446
g10
F0.90000000000000002
sssg61
(dp447
Vcom.kugou.android
p448
(dp449
g10
F1.7
ssg247
(dp450
g10
F0.40000000000000002
ssVcom.tencent.mobileqq
p451
(dp452
g10
F33.299999999999997
ssVcom.changyou.zzb
p453
(dp454
g10
I1
ssVcom.android.mms
p455
(dp456
g10
F3.5
ssVcom.baidu.BaiduMap
p457
(dp458
g10
F1.7
ssg250
(dp459
g10
F16.5
ssVcom.cootek.smartdialer
p460
(dp461
g10
F3.8999999999999999
ssg183
(dp462
g10
F0.69999999999999996
ssVcom.qzone
p463
(dp464
g10
I2
ssg17
(dp465
g10
F2.5999999999999996
ssg29
(dp466
g10
I1
ssVcom.android.phone
p467
(dp468
g10
F4.1000000000000005
ssVcom.tencent.mm
p469
(dp470
g10
F11.900000000000002
sssg63
(dp471
Vcom.tencent.mobileqq
p472
(dp473
g10
F2.7000000000000002
ssg100
(dp474
g10
F1.3
sssg65
(dp475
Vcom.cootek.smartdialer
p476
(dp477
g10
F1.3
ssVcom.miui.gallery
p478
(dp479
g10
I1
ssg235
(dp480
g10
F17.099999999999998
ssVcom.tencent.token
p481
(dp482
g10
F0.40000000000000002
ssVcom.baidu.searchbox
p483
(dp484
g10
F6.9000000000000012
sssg67
(dp485
ssS'edge'
p486
g73
sS'graph'
p487
(dp488
sS'adjlist_dict_factory'
p489
g70
sS'adj'
p490
g73
sS'pred'
p491
(dp492
g8
(dp493
g23
g146
sVcom.tencent.mobileqq
p494
g239
sg25
g156
sg53
g397
sVcom.baidu.searchbox
p495
g167
sg151
g127
sg83
g211
sVcom.tencent.mm
p496
g362
sg51
g393
ssg11
(dp497
Vcom.cootek.smartdialer
p498
g309
sVcom.tencent.mm
p499
g363
sVcom.android.phone
p500
g216
ssg13
(dp501
g104
g364
sg98
g296
sVcom.baidu.searchbox
p502
g186
sVcom.eg.android.AlipayGphone
p503
g135
sVcom.tencent.mobileqq
p504
g241
ssg15
(dp505
g388
g440
sVcom.tencent.mm
p506
g366
ssg17
(dp507
Vcom.android.settings
p508
g465
sVcom.tencent.mobileqq
p509
g242
sVcn.wps.moffice_eng
p510
g152
sVcom.baidu.searchbox
p511
g189
ssg19
(dp512
Vcom.android.camera
p513
g482
sg131
g244
sVcom.baidu.searchbox
p514
g180
ssg21
(dp515
g134
g107
sVcom.android.mms
p516
g414
sVcom.tencent.mm
p517
g367
sVcom.android.phone
p518
g230
sg136
g304
sVcom.baidu.searchbox
p519
g199
sVcom.cootek.smartdialer
p520
g321
sVcom.changyou.zzb
p521
g347
sVcom.tencent.mobileqq
p522
g246
ssg23
(dp523
g8
g75
sg300
g450
sg496
g368
sg495
g168
sVcom.android.fileexplorer
p524
g329
sVcom.tencent.mobileqq
p525
g248
ssg25
(dp526
g401
g288
sVcom.tencent.mm
p527
g369
sVcom.tencent.mobileqq
p528
g249
sVcom.baidu.searchbox
p529
g174
sVcom.android.browser
p530
g78
ssg27
(dp531
g39
g294
sg8
g82
sVcom.xiaomi.smarthome
p532
g101
sg23
g150
sg380
g352
sVcom.tencent.mobileqq
p533
g251
sVcom.android.packageinstaller
p534
g161
sg83
g221
sVcom.android.mms
p535
g404
sVcom.snda.wifilocating
p536
g125
sVcom.cootek.smartdialer
p537
g314
sg183
g331
sg365
g116
sg57
g432
sg59
g444
sg29
g208
sVcom.android.settings
p538
g459
sg102
g474
sg85
g484
sg49
g370
sVcom.changyou.zzb
p539
g340
ssg29
(dp540
Vcom.android.settings
p541
g466
ssg31
(dp542
Vcom.kugou.android
p543
g290
sVcom.android.browser
p544
g84
sg333
g356
sVcom.tencent.mobileqq
p545
g253
sVcom.changyou.zzb
p546
g343
sg177
g409
sVcom.baidu.BaiduMap
p547
g424
sVcom.baidu.searchbox
p548
g191
sVcom.cootek.smartdialer
p549
g316
sVcom.duowan.lolbox
p550
g446
sVcom.android.settings
p551
g468
sVcom.tencent.mm
p552
g371
ssg33
(dp553
Vcom.android.camera
p554
g479
sVcom.tencent.mobileqq
p555
g255
sg198
g139
sg519
g195
ssg35
(dp556
g238
g88
sg240
g109
sg15
g114
sVcom.snda.wifilocating
p557
g123
sg19
g132
sg328
g148
sVcom.android.packageinstaller
p558
g163
sVcom.baidu.searchbox
p559
g172
sg29
g206
sVcom.android.phone
p560
g215
sg33
g236
sVcom.tencent.mm
p561
g373
sVcom.kugou.android
p562
g287
sVcom.cootek.smartdialer
p563
g308
sg43
g327
sg539
g345
sg380
g360
sg61
g452
sg177
g399
sg55
g422
sg57
g427
sg550
g439
sg63
g473
sg65
g480
ssg37
(dp564
Vcom.android.mms
p565
g412
sVcom.tencent.mobileqq
p566
g257
ssg39
(dp567
Vcom.tencent.mm
p568
g374
sVcom.android.mms
p569
g402
sVcom.baidu.searchbox
p570
g166
sg13
g99
sg298
g430
sVcom.android.settings
p571
g449
sVcom.tencent.mobileqq
p572
g259
sg503
g137
ssg41
(dp573
g543
g285
sVcom.android.calendar
p574
g354
sg551
g461
sg45
g341
sg177
g406
sg547
g420
sg27
g182
sg252
g223
sVcom.android.camera
p575
g477
sg49
g375
sVcom.tencent.mobileqq
p576
g260
ssg43
(dp577
Vcom.kugou.android
p578
g297
sVcom.tencent.mm
p579
g377
sVcom.baidu.searchbox
p580
g184
sg525
g261
sg300
g462
ssg45
(dp581
g576
g262
sg516
g400
sVcom.baidu.searchbox
p582
g176
sVcom.cootek.smartdialer
p583
g311
sg31
g227
sg335
g379
sVcom.eg.android.AlipayGphone
p584
g143
sVcom.android.settings
p585
g454
ssg47
(dp586
Vcom.tencent.mobileqq
p587
g263
sVcom.changyou.zzb
p588
g334
sVcom.baidu.BaiduMap
p589
g418
sVcom.baidu.searchbox
p590
g170
sVcom.cootek.smartdialer
p591
g306
sVcom.android.phone
p592
g213
sVcom.tencent.mm
p593
g381
ssg49
(dp594
g145
g77
sg11
g94
sg13
g105
sg365
g112
sg557
g121
sg559
g197
sg23
g153
sg25
g159
sg29
g204
sg560
g229
sg171
g256
sVcom.miui.antispam
p595
g280
sg39
g303
sVcom.tencent.token
p596
g130
sVcom.cootek.smartdialer
p597
g320
sg376
g326
sVcom.changyou.zzb
p598
g336
sVcom.android.calendar
p599
g350
sg538
g470
sg51
g394
sg535
g411
sVcom.qzone
p600
g436
sg550
g442
ssg51
(dp601
g527
g391
sg25
g157
sg528
g277
sg530
g89
ssg53
(dp602
Vcom.android.browser
p603
g80
sVcn.wps.moffice_eng
p604
g149
sg517
g386
sVcom.changyou.zzb
p605
g338
sg39
g292
sg548
g178
sg520
g312
sVcom.android.phone
p606
g217
sg522
g269
sg37
g282
sg21
g141
sVcom.android.settings
p607
g456
ssg55
(dp608
Vcom.android.settings
p609
g458
sVcom.tencent.mobileqq
p610
g271
sVcom.android.phone
p611
g219
ssg57
(dp612
Vcom.kugou.android
p613
g299
sVcom.tencent.mobileqq
p614
g272
sVcom.android.mms
p615
g407
sVcom.baidu.searchbox
p616
g188
sg563
g315
sVcom.android.phone
p617
g225
sVcom.tencent.mm
p618
g387
sVcom.android.settings
p619
g464
ssg59
(dp620
g506
g389
sVcom.tencent.mobileqq
p621
g274
ssg61
(dp622
g603
g91
sg533
g265
sg578
g301
sg455
g416
sVcom.baidu.searchbox
p623
g201
sVcom.xiaomi.smarthome
p624
g97
sVcom.qzone
p625
g434
sg557
g119
sVcom.android.phone
p626
g232
sVcom.tencent.mm
p627
g383
sVcom.cootek.smartdialer
p628
g323
ssg63
(dp629
g532
g103
sVcom.tencent.mm
p630
g390
sVcom.baidu.searchbox
p631
g192
ssg65
(dp632
Vcom.android.browser
p633
g86
sVcom.android.calendar
p634
g358
sVcom.baidu.searchbox
p635
g194
sVcom.cootek.smartdialer
p636
g318
sg33
g234
sVcom.tencent.mobileqq
p637
g276
ssg67
(dp638
Vcom.tencent.mm
p639
g385
sVcom.qzone
p640
g428
sVcom.tencent.mobileqq
p641
g267
sssb.