ccopy_reg
_reconstructor
p1
(cnetworkx.classes.digraph
DiGraph
p2
c__builtin__
object
p3
NtRp4
(dp5
S'node'
p6
(dp7
Vcom.android.browser
p8
(dp9
S'weight'
p10
F0.036191656609804626
ssVcom.youba.FileExplorer
p11
(dp12
g10
F0.0011024495254248344
ssVcom.handsgo.jiakao.android
p13
(dp14
g10
F0.019596203398675755
ssVcom.julyapp.julyqesbank
p15
(dp16
g10
F0.0010698326755601943
ssVcom.youdao.mrtime
p17
(dp18
g10
F0.0089957271926677327
ssVcom.android.launcher
p19
(dp20
g10
F0.81451449818976485
ssVcom.google.android.deskclock
p21
(dp22
g10
F0.00017613098926905638
ssVcom.mymoney
p23
(dp24
g10
F0.00044358915815910499
ssVcom.android.contacts
p25
(dp26
g10
F0.0022766561205518772
ssVcom.eg.android.AlipayGphone
p27
(dp28
g10
F0.0039923024234319445
ssVorg.greenvpn
p29
(dp30
g10
F0.0018330669623927722
ssVcom.android.vending
p31
(dp32
g10
F0.0012981506246126748
ssVcom.android.packageinstaller
p33
(dp34
g10
F0.018324146253954794
ssVcom.android.gallery3d
p35
(dp36
g10
F0.0018852539221761962
ssVcom.google.android.googlequicksearchbox
p37
(dp38
g10
F0.00064581362731987342
ssVcom.google.android.gsf.login
p39
(dp40
g10
F0.00073714080694086564
ssVcom.android.phone
p41
(dp42
g10
F5.8710329756352133e-05
ssVcom.google.android.videos
p43
(dp44
g10
F7.1757069702208155e-05
ssVcom.android.htmlviewer
p45
(dp46
g10
F0.0050164715091816428
ssVcom.tencent.mm
p47
(dp48
g10
F0.063505006686454216
ssVcom.baidu.lbs.waimai
p49
(dp50
g10
F0.0090674842623699407
ssVcom.android.calculator
p51
(dp52
g10
F1.9570109918784043e-05
ssVcom.google.android.email
p53
(dp54
g10
F2.6093479891712058e-05
ssVcom.tf.thinkdroid.sg
p55
(dp56
g10
F0.0024658338497667897
ssVcom.dianxing.heloandroid
p57
(dp58
g10
F0.0045924524609413219
ssVcom.android.vpndialogs
p59
(dp60
g10
F8.480380964806419e-05
ssVcom.google.android.gm
p61
(dp62
g10
F0.00029355164878176065
ssVcom.android.settings
p63
(dp64
g10
F0.0015721321634756516
ssVcom.android.mms
p65
(dp66
g10
F9.1327179620992208e-05
ssVcom.google.android.videoeditor
p67
(dp68
g10
F5.2186959783424115e-05
sssS'node_dict_factory'
p69
c__builtin__
dict
p70
sS'edge_attr_dict_factory'
p71
g70
sS'succ'
p72
(dp73
g8
(dp74
Vcom.android.contacts
p75
(dp76
g10
F0.90000000000000002
ssg57
(dp77
g10
F0.69999999999999996
ssVcom.android.vending
p78
(dp79
g10
F1.1000000000000001
ssVcom.android.settings
p80
(dp81
g10
F2.8999999999999999
ssVcom.android.packageinstaller
p82
(dp83
g10
F9.5999999999999996
ssg49
(dp84
g10
F1.6000000000000001
ssVcom.android.gallery3d
p85
(dp86
g10
F1.3
ssg17
(dp87
g10
F1.8
ssVcom.google.android.googlequicksearchbox
p88
(dp89
g10
F7
ssVcom.android.launcher
p90
(dp91
g10
F15.800000000000002
ssg23
(dp92
g10
F0.40000000000000002
ssVcom.android.vpndialogs
p93
(dp94
g10
F1.3999999999999999
ssVcom.tencent.mm
p95
(dp96
g10
I1
ssg15
(dp97
g10
F0.69999999999999996
ssg39
(dp98
g10
I1
ssVorg.greenvpn
p99
(dp100
g10
F4.2999999999999998
sssg11
(dp101
g33
(dp102
g10
F0.90000000000000002
ssVcom.tf.thinkdroid.sg
p103
(dp104
g10
I1
ssVcom.android.launcher
p105
(dp106
g10
F10.199999999999999
ssg41
(dp107
g10
F1.3
ssg43
(dp108
g10
F0.40000000000000002
ssVcom.android.htmlviewer
p109
(dp110
g10
I5
ssg25
(dp111
g10
F2.6000000000000001
sssg13
(dp112
Vcom.baidu.lbs.waimai
p113
(dp114
g10
I1
ssVcom.android.launcher
p115
(dp116
g10
F2.8999999999999999
sssg15
(dp117
sg17
(dp118
Vcom.android.browser
p119
(dp120
g10
I1
ssVcom.android.contacts
p121
(dp122
g10
F0.90000000000000002
ssVcom.android.launcher
p123
(dp124
g10
F3.8999999999999999
sssg19
(dp125
g8
(dp126
g10
F23.299999999999997
ssVcom.youba.FileExplorer
p127
(dp128
g10
F14.999999999999998
ssVcom.handsgo.jiakao.android
p129
(dp130
g10
I1
ssg15
(dp131
g10
I1
ssg17
(dp132
g10
F4.7000000000000002
ssg21
(dp133
g10
F11.200000000000001
ssg23
(dp134
g10
I1
ssg25
(dp135
g10
F22.599999999999998
ssVcom.eg.android.AlipayGphone
p136
(dp137
g10
F2.7000000000000002
ssg29
(dp138
g10
F10.899999999999999
ssg31
(dp139
g10
F6.0999999999999996
ssg33
(dp140
g10
F21.499999999999993
ssg35
(dp141
g10
F15.5
ssg37
(dp142
g10
F11.100000000000001
ssg39
(dp143
g10
F1.3
ssg41
(dp144
g10
F2.6000000000000001
ssg43
(dp145
g10
F1.7
ssVcom.android.htmlviewer
p146
(dp147
g10
F4.7999999999999998
ssg47
(dp148
g10
F19.100000000000001
ssg49
(dp149
g10
F2.3999999999999999
ssg51
(dp150
g10
F1.7
ssg53
(dp151
g10
I1
ssg103
(dp152
g10
F0.90000000000000002
ssg59
(dp153
g10
F5.2000000000000002
ssg61
(dp154
g10
F3
ssg63
(dp155
g10
F13
ssg65
(dp156
g10
F4.4000000000000004
ssg67
(dp157
g10
I1
sssg21
(dp158
Vcom.android.mms
p159
(dp160
g10
F0.90000000000000002
ssg35
(dp161
g10
F2.6000000000000001
ssVcom.youba.FileExplorer
p162
(dp163
g10
F0.40000000000000002
ssVcom.android.launcher
p164
(dp165
g10
F6.1000000000000005
ssVcom.google.android.googlequicksearchbox
p166
(dp167
g10
F0.90000000000000002
sssg23
(dp168
Vcom.android.packageinstaller
p169
(dp170
g10
F0.90000000000000002
ssVcom.android.gallery3d
p171
(dp172
g10
F0.69999999999999996
ssVcom.android.launcher
p173
(dp174
g10
F1.3999999999999999
sssg25
(dp175
Vcom.google.android.gm
p176
(dp177
g10
F1.3
ssVcom.youba.FileExplorer
p178
(dp179
g10
F0.69999999999999996
ssVcom.android.settings
p180
(dp181
g10
F0.90000000000000002
ssVcom.baidu.lbs.waimai
p182
(dp183
g10
F1.3
ssg166
(dp184
g10
F0.40000000000000002
ssVcom.android.launcher
p185
(dp186
g10
F12.399999999999999
ssVcom.android.phone
p187
(dp188
g10
I1
ssVcom.google.android.deskclock
p189
(dp190
g10
F1.3
ssVcom.android.htmlviewer
p191
(dp192
g10
F0.40000000000000002
sssg27
(dp193
Vcom.android.packageinstaller
p194
(dp195
g10
F1.3
ssVcom.android.launcher
p196
(dp197
g10
F6.1000000000000005
sssg29
(dp198
Vcom.android.browser
p199
(dp200
g10
F3.3999999999999999
ssVcom.android.vending
p201
(dp202
g10
F1.3
ssVcom.android.packageinstaller
p203
(dp204
g10
F0.40000000000000002
ssVcom.android.launcher
p205
(dp206
g10
F11.599999999999998
ssg59
(dp207
g10
F4.2999999999999998
ssg75
(dp208
g10
F0.40000000000000002
ssg39
(dp209
g10
F0.69999999999999996
sssg31
(dp210
g8
(dp211
g10
F0.40000000000000002
ssg180
(dp212
g10
F0.40000000000000002
ssg203
(dp213
g10
F1.8
ssVcom.android.launcher
p214
(dp215
g10
F7.1000000000000005
ssg59
(dp216
g10
F0.69999999999999996
ssg47
(dp217
g10
F0.40000000000000002
ssVcom.android.contacts
p218
(dp219
g10
F1.8
ssg29
(dp220
g10
F1.3
sssg33
(dp221
g61
(dp222
g10
F0.69999999999999996
ssg8
(dp223
g10
F4.0999999999999996
ssg57
(dp224
g10
I1
ssg31
(dp225
g10
F0.69999999999999996
ssVcom.android.settings
p226
(dp227
g10
F2
ssg15
(dp228
g10
F0.90000000000000002
ssg49
(dp229
g10
F1.8999999999999999
ssVcom.android.gallery3d
p230
(dp231
g10
I3
ssg17
(dp232
g10
F1.3999999999999999
ssVcom.google.android.googlequicksearchbox
p233
(dp234
g10
I1
ssVcom.android.launcher
p235
(dp236
g10
F14.300000000000002
ssVcom.google.android.deskclock
p237
(dp238
g10
F0.69999999999999996
ssg23
(dp239
g10
F0.69999999999999996
ssg93
(dp240
g10
F0.40000000000000002
ssg47
(dp241
g10
F0.90000000000000002
ssg99
(dp242
g10
F1.1000000000000001
sssg35
(dp243
Vcom.android.browser
p244
(dp245
g10
F0.40000000000000002
ssg31
(dp246
g10
F0.90000000000000002
ssg51
(dp247
g10
F1.3
ssVcom.baidu.lbs.waimai
p248
(dp249
g10
I1
ssVcom.google.android.googlequicksearchbox
p250
(dp251
g10
F1.7000000000000002
ssVcom.android.launcher
p252
(dp253
g10
F12.899999999999999
ssg237
(dp254
g10
F0.90000000000000002
ssVcom.tencent.mm
p255
(dp256
g10
F6.1000000000000005
ssg29
(dp257
g10
F0.40000000000000002
sssg37
(dp258
g244
(dp259
g10
F2.2999999999999998
ssVcom.android.vending
p260
(dp261
g10
F0.90000000000000002
ssVcom.youba.FileExplorer
p262
(dp263
g10
F2.6000000000000001
ssVcom.android.settings
p264
(dp265
g10
I1
ssg169
(dp266
g10
F1.1000000000000001
ssVcom.android.launcher
p267
(dp268
g10
F7.4000000000000004
ssg146
(dp269
g10
F1.3999999999999999
ssg23
(dp270
g10
F0.90000000000000002
ssVcom.android.contacts
p271
(dp272
g10
F1.3999999999999999
sssg39
(dp273
Vcom.android.browser
p274
(dp275
g10
I1
ssg260
(dp276
g10
F0.40000000000000002
ssVcom.android.launcher
p277
(dp278
g10
F0.69999999999999996
ssVcom.google.android.googlequicksearchbox
p279
(dp280
g10
F0.90000000000000002
sssg41
(dp281
g43
(dp282
g10
F0.90000000000000002
ssg191
(dp283
g10
F0.69999999999999996
ssVcom.youba.FileExplorer
p284
(dp285
g10
F1.7000000000000002
ssVcom.android.launcher
p286
(dp287
g10
F2.7000000000000002
sssg43
(dp288
Vcom.android.htmlviewer
p289
(dp290
g10
F0.69999999999999996
ssg284
(dp291
g10
F1.3
ssVcom.android.launcher
p292
(dp293
g10
I1
sssg45
(dp294
g33
(dp295
g10
F0.69999999999999996
ssVcom.android.launcher
p296
(dp297
g10
F4.4000000000000004
ssVcom.youba.FileExplorer
p298
(dp299
g10
F7.4000000000000004
ssVcom.android.contacts
p300
(dp301
g10
F0.69999999999999996
sssg47
(dp302
Vcom.android.browser
p303
(dp304
g10
I1
ssg57
(dp305
g10
F1.3
ssVcom.android.settings
p306
(dp307
g10
I1
ssVcom.android.packageinstaller
p308
(dp309
g10
F1.7
ssVcom.android.gallery3d
p310
(dp311
g10
F9.1999999999999993
ssVcom.google.android.googlequicksearchbox
p312
(dp313
g10
F0.90000000000000002
ssVcom.android.launcher
p314
(dp315
g10
F9
sssg49
(dp316
Vcom.android.launcher
p317
(dp318
g10
I1
sssg51
(dp319
g262
(dp320
g10
F0.40000000000000002
ssVcom.android.launcher
p321
(dp322
g10
F1.7
ssg250
(dp323
g10
F0.90000000000000002
sssg53
(dp324
Vcom.google.android.deskclock
p325
(dp326
g10
F0.40000000000000002
ssg65
(dp327
g10
F0.90000000000000002
ssVcom.android.launcher
p328
(dp329
g10
F1.7
sssg55
(dp330
g109
(dp331
g10
F0.90000000000000002
ssVcom.android.launcher
p332
(dp333
g10
F0.40000000000000002
ssVcom.youba.FileExplorer
p334
(dp335
g10
F2.7000000000000002
sssg57
(dp336
sg59
(dp337
g199
(dp338
g10
F1.6000000000000001
ssg80
(dp339
g10
F0.40000000000000002
ssg201
(dp340
g10
F0.69999999999999996
ssg205
(dp341
g10
F5.6000000000000005
ssVorg.greenvpn
p342
(dp343
g10
F3.7000000000000002
sssg61
(dp344
Vcom.android.packageinstaller
p345
(dp346
g10
F0.90000000000000002
ssVcom.android.launcher
p347
(dp348
g10
I1
sssg63
(dp349
g61
(dp350
g10
I1
ssVcom.android.browser
p351
(dp352
g10
F1.8999999999999999
ssg78
(dp353
g10
F0.90000000000000002
ssVcom.android.packageinstaller
p354
(dp355
g10
F2.7000000000000002
ssg49
(dp356
g10
F0.80000000000000004
ssVcom.android.gallery3d
p357
(dp358
g10
F2.5
ssVcom.google.android.googlequicksearchbox
p359
(dp360
g10
I1
ssVcom.android.launcher
p361
(dp362
g10
F10.699999999999999
ssVcom.android.contacts
p363
(dp364
g10
F2.2000000000000002
sssg65
(dp365
g325
(dp366
g10
F1.8
ssg35
(dp367
g10
F0.40000000000000002
ssVcom.android.launcher
p368
(dp369
g10
F3.4000000000000004
sssg67
(dp370
Vcom.google.android.deskclock
p371
(dp372
g10
F0.90000000000000002
ssVcom.android.launcher
p373
(dp374
g10
I1
ssssS'edge'
p375
g73
sS'graph'
p376
(dp377
sS'adjlist_dict_factory'
p378
g70
sS'adj'
p379
g73
sS'pred'
p380
(dp381
g8
(dp382
g201
g211
sVcom.android.settings
p383
g352
sg203
g223
sVcom.android.gallery3d
p384
g245
sg17
g120
sVcom.google.android.googlequicksearchbox
p385
g259
sVcom.android.launcher
p386
g126
sVcom.android.vpndialogs
p387
g338
sVcom.tencent.mm
p388
g304
sg39
g275
sVorg.greenvpn
p389
g200
ssg11
(dp390
g51
g320
sg250
g263
sg43
g291
sg55
g335
sVcom.android.launcher
p391
g128
sg41
g285
sg189
g163
sg45
g299
sVcom.android.contacts
p392
g179
ssg13
(dp393
Vcom.android.launcher
p394
g130
ssg15
(dp395
Vcom.android.browser
p396
g97
sg82
g228
sVcom.android.launcher
p397
g131
ssg17
(dp398
Vcom.android.browser
p399
g87
sVcom.android.packageinstaller
p400
g232
sVcom.android.launcher
p401
g132
ssg19
(dp402
g8
g91
sg11
g106
sg13
g116
sg17
g124
sg325
g165
sg23
g174
sg363
g186
sg27
g197
sg29
g206
sg31
g215
sVcom.android.packageinstaller
p403
g236
sg35
g253
sg250
g268
sg39
g278
sg41
g287
sg43
g293
sg45
g297
sVcom.tencent.mm
p404
g315
sVcom.baidu.lbs.waimai
p405
g318
sg51
g322
sg53
g329
sg55
g333
sg59
g341
sg61
g348
sg63
g362
sg65
g369
sg67
g374
ssg21
(dp406
g171
g254
sg169
g238
sg65
g366
sVcom.android.launcher
p407
g133
sg53
g326
sg300
g190
sg67
g372
ssg23
(dp408
Vcom.android.browser
p409
g92
sVcom.android.packageinstaller
p410
g239
sVcom.android.launcher
p411
g134
sg233
g270
ssg25
(dp412
Vcom.android.browser
p413
g76
sg11
g111
sVcom.android.vending
p414
g219
sVcom.android.settings
p415
g364
sVcom.youdao.mrtime
p416
g122
sg279
g272
sg105
g135
sg146
g301
sVorg.greenvpn
p417
g208
ssg27
(dp418
g196
g137
ssg29
(dp419
g8
g100
sg31
g220
sg203
g242
sg230
g257
sg235
g138
sg59
g343
ssg31
(dp420
g199
g79
sg80
g353
sg403
g225
sg230
g246
sg279
g261
sVcom.android.launcher
p421
g139
sg59
g340
sg39
g276
sg29
g202
ssg33
(dp422
g61
g346
sg396
g83
sg298
g102
sg201
g213
sg80
g355
sg233
g266
sg296
g140
sg45
g295
sg23
g170
sg388
g309
sVcom.eg.android.AlipayGphone
p423
g195
sg342
g204
ssg35
(dp424
Vcom.android.browser
p425
g86
sVcom.android.settings
p426
g358
sg403
g231
sg65
g367
sg368
g141
sg325
g161
sg23
g172
sg404
g311
ssg37
(dp427
Vcom.android.browser
p428
g89
sg51
g323
sVcom.android.settings
p429
g360
sg410
g234
sVcom.android.gallery3d
p430
g251
sVcom.android.launcher
p431
g142
sg189
g167
sVcom.tencent.mm
p432
g313
sVcom.android.contacts
p433
g184
sg39
g280
ssg39
(dp434
Vcom.android.browser
p435
g98
sVcom.android.launcher
p436
g143
sVorg.greenvpn
p437
g209
ssg41
(dp438
Vcom.android.launcher
p439
g144
sVcom.youba.FileExplorer
p440
g107
sg392
g188
ssg43
(dp441
Vcom.android.launcher
p442
g145
sVcom.youba.FileExplorer
p443
g108
sg41
g282
ssg45
(dp444
g334
g110
sg250
g269
sg55
g331
sg321
g147
sg187
g283
sg43
g290
sg392
g192
ssg47
(dp445
g303
g96
sg354
g241
sg310
g256
sVcom.android.launcher
p446
g148
sg78
g217
ssg49
(dp447
g351
g84
sVcom.handsgo.jiakao.android
p448
g114
sg383
g356
sVcom.android.packageinstaller
p449
g229
sg85
g249
sVcom.android.launcher
p450
g149
sVcom.android.contacts
p451
g183
ssg51
(dp452
g35
g247
sg252
g150
ssg53
(dp453
Vcom.android.launcher
p454
g151
ssg55
(dp455
Vcom.youba.FileExplorer
p456
g104
sVcom.android.launcher
p457
g152
ssg57
(dp458
g303
g77
sg308
g224
sg388
g305
ssg59
(dp459
Vcom.android.browser
p460
g94
sVcom.android.packageinstaller
p461
g240
sg31
g216
sg235
g153
sg29
g207
ssg61
(dp462
g226
g350
sVcom.android.packageinstaller
p463
g222
sVcom.android.contacts
p464
g177
sVcom.android.launcher
p465
g154
ssg63
(dp466
g199
g81
sg260
g212
sg194
g227
sg359
g265
sg19
g155
sg387
g339
sVcom.tencent.mm
p467
g307
sg271
g181
ssg65
(dp468
Vcom.google.android.deskclock
p469
g160
sg454
g156
sg53
g327
ssg67
(dp470
Vcom.android.launcher
p471
g157
sssb.