ccopy_reg
_reconstructor
p1
(cnetworkx.classes.digraph
DiGraph
p2
c__builtin__
object
p3
NtRp4
(dp5
S'node'
p6
(dp7
Vim.yixin
p8
(dp9
S'weight'
p10
F0.0020850868467365523
ssVcom.android.launcher
p11
(dp12
g10
F0.57435534470885297
ssVcom.android.mediacenter
p13
(dp14
g10
F0.00066952329941081948
ssVcom.sina.weibo
p15
(dp16
g10
F0.019358787971535694
ssVcom.android.contacts
p17
(dp18
g10
F0.14249368735174842
ssVcom.android.gallery3d
p19
(dp20
g10
F0.0023528961665008801
ssVcom.taobao.taobao
p21
(dp22
g10
F0.022495982860203535
ssVcom.cici.tiexin
p23
(dp24
g10
F0.00063126482515877267
ssVcom.huawei.hidisk
p25
(dp26
g10
F0.002544188537761114
ssVcom.android.phone
p27
(dp28
g10
F0.024906266738082484
ssVcom.tencent.mtt
p29
(dp30
g10
F0.00066952329941081948
ssVcom.tencent.mm
p31
(dp32
g10
F0.035312571734639225
ssVcom.android.calculator
p33
(dp34
g10
F1.9129237126023413e-05
ssVcom.cootek.smartdialer
p35
(dp36
g10
F0.008780319840844748
ssVcom.chinamobile.cmccwifi
p37
(dp38
g10
F0.0010712372790573112
ssVcom.tencent.mobileqq
p39
(dp40
g10
F0.062112632948198028
ssVcom.android.settings
p41
(dp42
g10
F0.0040745275078429869
ssVcom.android.mms
p43
(dp44
g10
F0.047612671206672279
ssVcom.zhaopin.social
p45
(dp46
g10
F0.048090902134822866
ssVcom.huawei.hwid
p47
(dp48
g10
F1.9129237126023413e-05
ssVcom.yx
p49
(dp50
g10
F0.0002869385568903512
ssVcom.lidroid.lockscreen
p51
(dp52
g10
F5.7387711378070245e-05
sssS'node_dict_factory'
p53
c__builtin__
dict
p54
sS'edge_attr_dict_factory'
p55
g54
sS'succ'
p56
(dp57
g8
(dp58
sg11
(dp59
g37
(dp60
g10
F5.4000000000000004
ssg47
(dp61
g10
F1.3
ssg33
(dp62
g10
I1
ssg41
(dp63
g10
F28.499999999999996
ssVcom.sina.weibo
p64
(dp65
g10
I1
ssg8
(dp66
g10
F1.7
ssg19
(dp67
g10
F7.4000000000000012
ssg43
(dp68
g10
I1
ssg21
(dp69
g10
F8.8000000000000007
ssg23
(dp70
g10
F1.7
ssg35
(dp71
g10
F6.4000000000000004
ssg25
(dp72
g10
F1.7
ssg13
(dp73
g10
F3.3999999999999999
ssVcom.lidroid.lockscreen
p74
(dp75
g10
I2
ssg27
(dp76
g10
F15.600000000000001
ssg29
(dp77
g10
F1.8999999999999999
ssg45
(dp78
g10
I1
ssVcom.tencent.mm
p79
(dp80
g10
F18.599999999999998
ssg17
(dp81
g10
F11.5
ssVcom.yx
p82
(dp83
g10
F2.7000000000000002
ssg39
(dp84
g10
F3.7000000000000002
sssg13
(dp85
g47
(dp86
g10
I1
ssVcom.android.gallery3d
p87
(dp88
g10
F0.69999999999999996
ssVcom.taobao.taobao
p89
(dp90
g10
F2.6000000000000001
ssVcom.android.launcher
p91
(dp92
g10
F2.7000000000000002
ssVcom.android.phone
p93
(dp94
g10
F0.69999999999999996
sssg15
(dp95
Vcom.tencent.mm
p96
(dp97
g10
F1.3
ssVcom.chinamobile.cmccwifi
p98
(dp99
g10
F1.3
ssVcom.android.launcher
p100
(dp101
g10
F6.8000000000000007
ssVcom.taobao.taobao
p102
(dp103
g10
F0.90000000000000002
sssg17
(dp104
Vcom.android.launcher
p105
(dp106
g10
F7.7000000000000002
ssVcom.android.phone
p107
(dp108
g10
F13.499999999999998
sssg19
(dp109
Vcom.android.mediacenter
p110
(dp111
g10
F0.69999999999999996
ssVcom.tencent.mm
p112
(dp113
g10
F2
ssg37
(dp114
g10
F0.90000000000000002
ssVcom.android.launcher
p115
(dp116
g10
F7.0000000000000018
ssVcom.taobao.taobao
p117
(dp118
g10
I2
sssg21
(dp119
Vcom.android.settings
p120
(dp121
g10
F1.7000000000000002
ssVcom.android.gallery3d
p122
(dp123
g10
F2.7000000000000002
ssg47
(dp124
g10
F0.69999999999999996
ssVcom.chinamobile.cmccwifi
p125
(dp126
g10
F0.90000000000000002
ssVcom.android.launcher
p127
(dp128
g10
F11.499999999999998
ssg93
(dp129
g10
I2
ssg13
(dp130
g10
F2.6000000000000001
ssVcom.tencent.mm
p131
(dp132
g10
F1.3
ssVcom.tencent.mobileqq
p133
(dp134
g10
I1
sssg23
(dp135
Vcom.android.settings
p136
(dp137
g10
F0.90000000000000002
ssVcom.android.launcher
p138
(dp139
g10
I1
sssg25
(dp140
g29
(dp141
g10
I1
ssVcom.android.gallery3d
p142
(dp143
g10
I1
ssVcom.android.launcher
p144
(dp145
g10
F1.7
sssg27
(dp146
g41
(dp147
g10
F4.5
ssg122
(dp148
g10
F0.90000000000000002
ssVcom.taobao.taobao
p149
(dp150
g10
F2.0999999999999996
ssVcom.cootek.smartdialer
p151
(dp152
g10
F2.3999999999999999
ssVcom.android.launcher
p153
(dp154
g10
F15.599999999999998
ssVcom.tencent.mm
p155
(dp156
g10
F0.40000000000000002
ssVcom.android.contacts
p157
(dp158
g10
F9.4000000000000004
sssg29
(dp159
Vcom.huawei.hidisk
p160
(dp161
g10
I1
ssg79
(dp162
g10
F0.90000000000000002
ssg144
(dp163
g10
F2.5999999999999996
sssg31
(dp164
Vcom.android.settings
p165
(dp166
g10
F5.3000000000000007
ssg8
(dp167
g10
F1.3
ssVcom.android.gallery3d
p168
(dp169
g10
F1.3
ssg23
(dp170
g10
F0.40000000000000002
ssVcom.cootek.smartdialer
p171
(dp172
g10
I1
ssg74
(dp173
g10
F0.90000000000000002
ssVcom.android.launcher
p174
(dp175
g10
F22.299999999999997
ssVcom.android.phone
p176
(dp177
g10
F0.40000000000000002
ssVcom.tencent.mtt
p178
(dp179
g10
F0.90000000000000002
ssVcom.android.contacts
p180
(dp181
g10
F0.69999999999999996
ssg82
(dp182
g10
F0.90000000000000002
ssVcom.chinamobile.cmccwifi
p183
(dp184
g10
F0.90000000000000002
sssg33
(dp185
Vcom.android.launcher
p186
(dp187
g10
I1
sssg35
(dp188
Vcom.android.settings
p189
(dp190
g10
F3.9000000000000004
ssVcom.tencent.mm
p191
(dp192
g10
F0.90000000000000002
ssVcom.android.launcher
p193
(dp194
g10
F6.4000000000000012
ssVcom.android.phone
p195
(dp196
g10
I1
sssg37
(dp197
Vcom.android.settings
p198
(dp199
g10
F0.90000000000000002
ssVcom.android.launcher
p200
(dp201
g10
F5.9000000000000004
sssg39
(dp202
Vcom.android.settings
p203
(dp204
g10
F3.5
ssVcom.taobao.taobao
p205
(dp206
g10
F3.5999999999999996
ssVcom.android.launcher
p207
(dp208
g10
F10.1
ssVcom.android.phone
p209
(dp210
g10
F0.69999999999999996
ssVcom.tencent.mm
p211
(dp212
g10
F2.2000000000000002
ssVcom.android.contacts
p213
(dp214
g10
F1.7000000000000002
sssg41
(dp215
Vcom.tencent.mobileqq
p216
(dp217
g10
I2
ssVcom.android.gallery3d
p218
(dp219
g10
F0.90000000000000002
ssg149
(dp220
g10
F0.90000000000000002
ssg35
(dp221
g10
F2.5
ssg37
(dp222
g10
F0.40000000000000002
ssVcom.android.launcher
p223
(dp224
g10
F19.599999999999998
ssg176
(dp225
g10
F1.3
ssg13
(dp226
g10
F0.40000000000000002
ssg191
(dp227
g10
F3.2999999999999998
ssg180
(dp228
g10
F2.3999999999999999
sssg43
(dp229
Vcom.android.settings
p230
(dp231
g10
F1.6000000000000001
ssVcom.tencent.mobileqq
p232
(dp233
g10
F1.3
ssVcom.android.launcher
p234
(dp235
g10
F2.7000000000000002
sssg45
(dp236
Vcom.android.settings
p237
(dp238
g10
I1
ssVcom.android.contacts
p239
(dp240
g10
F1.3
ssVcom.android.launcher
p241
(dp242
g10
I2
ssVcom.android.phone
p243
(dp244
g10
F0.69999999999999996
sssg47
(dp245
Vcom.android.mediacenter
p246
(dp247
g10
I1
ssg89
(dp248
g10
F0.69999999999999996
ssg91
(dp249
g10
F0.90000000000000002
ssg93
(dp250
g10
F0.40000000000000002
sssg49
(dp251
Vcom.cootek.smartdialer
p252
(dp253
g10
F0.90000000000000002
ssVcom.android.settings
p254
(dp255
g10
F1.7999999999999998
ssVcom.android.launcher
p256
(dp257
g10
F3.4000000000000004
ssg23
(dp258
g10
F0.90000000000000002
sssg51
(dp259
Vcom.tencent.mm
p260
(dp261
g10
F0.90000000000000002
ssg82
(dp262
g10
F0.40000000000000002
ssVcom.android.launcher
p263
(dp264
g10
F1.7
ssssS'edge'
p265
g57
sS'graph'
p266
(dp267
sS'adjlist_dict_factory'
p268
g54
sS'adj'
p269
g57
sS'pred'
p270
(dp271
g8
(dp272
Vcom.tencent.mm
p273
g167
sVcom.android.launcher
p274
g66
ssg11
(dp275
g37
g201
sg47
g249
sg33
g187
sg41
g224
sg15
g101
sg19
g116
sg43
g235
sg21
g128
sg23
g139
sg35
g194
sg25
g145
sg13
g92
sg51
g264
sVcom.android.phone
p276
g154
sg29
g163
sVcom.zhaopin.social
p277
g242
sg31
g175
sg17
g106
sg82
g257
sg39
g208
ssg13
(dp278
Vcom.android.settings
p279
g226
sg122
g111
sg149
g130
sVcom.android.launcher
p280
g73
sg47
g247
ssg15
(dp281
Vcom.android.launcher
p282
g65
ssg17
(dp283
g165
g228
sg191
g181
sg277
g240
sVcom.android.launcher
p284
g81
sVcom.android.phone
p285
g158
sVcom.tencent.mobileqq
p286
g214
ssg19
(dp287
Vcom.android.settings
p288
g219
sVcom.taobao.taobao
p289
g123
sVcom.huawei.hidisk
p290
g143
sVcom.android.launcher
p291
g67
sVcom.android.phone
p292
g148
sg110
g88
sg155
g169
ssg21
(dp293
g279
g220
sg122
g118
sg47
g248
sVcom.android.launcher
p294
g69
sVcom.android.phone
p295
g150
sg13
g90
sVcom.sina.weibo
p296
g103
sVcom.tencent.mobileqq
p297
g206
ssg23
(dp298
g260
g170
sg82
g258
sVcom.android.launcher
p299
g70
ssg25
(dp300
g29
g161
sg11
g72
ssg27
(dp301
g165
g225
sg89
g129
sg277
g244
sVcom.cootek.smartdialer
p302
g196
sg47
g250
sVcom.android.launcher
p303
g76
sg246
g94
sg191
g177
sg17
g108
sVcom.tencent.mobileqq
p304
g210
ssg29
(dp305
g25
g141
sg31
g179
sg11
g77
ssg31
(dp306
Vcom.android.settings
p307
g227
sVcom.sina.weibo
p308
g97
sg168
g113
sVcom.taobao.taobao
p309
g132
sg151
g192
sg51
g261
sg174
g80
sVcom.android.phone
p310
g156
sg178
g162
sVcom.tencent.mobileqq
p311
g212
ssg33
(dp312
Vcom.android.launcher
p313
g62
ssg35
(dp314
Vcom.android.settings
p315
g221
sVcom.tencent.mm
p316
g172
sVcom.yx
p317
g253
sVcom.android.launcher
p318
g71
sVcom.android.phone
p319
g152
ssg37
(dp320
g288
g222
sVcom.tencent.mm
p321
g184
sg218
g114
sg102
g126
sVcom.android.launcher
p322
g60
sg15
g99
ssg39
(dp323
Vcom.android.settings
p324
g217
sVcom.android.mms
p325
g233
sVcom.taobao.taobao
p326
g134
sVcom.android.launcher
p327
g84
ssg41
(dp328
g311
g204
sg43
g231
sVcom.taobao.taobao
p329
g121
sg23
g137
sg35
g190
sg183
g199
sVcom.android.launcher
p330
g63
sg276
g147
sg45
g238
sg191
g166
sg49
g255
ssg43
(dp331
Vcom.android.launcher
p332
g68
ssg45
(dp333
Vcom.android.launcher
p334
g78
ssg47
(dp335
g13
g86
sg149
g124
sg280
g61
ssg49
(dp336
g260
g182
sg51
g262
sg263
g83
ssg51
(dp337
Vcom.tencent.mm
p338
g173
sVcom.android.launcher
p339
g75
sssb.