ccopy_reg
_reconstructor
p1
(cnetworkx.classes.digraph
DiGraph
p2
c__builtin__
object
p3
NtRp4
(dp5
S'node'
p6
(dp7
Vcom.android.browser
p8
(dp9
S'weight'
p10
F5.3246527839998277e-05
ssVcom.huawei.android.FMRadio
p11
(dp12
g10
F0.0015938119342876408
ssVcom.youdao.dict
p13
(dp14
g10
F0.00037221370903537261
ssVcom.taobao.taobao
p15
(dp16
g10
F0.0034917434602768104
ssVcom.handsgo.jiakao.android
p17
(dp18
g10
F0.0030990503174568229
ssVcom.android.soundrecorder
p19
(dp20
g10
F0.0012999320594784195
ssVcom.dongqiudi.news
p21
(dp22
g10
F0.10106805367045212
ssVcom.huawei.android.totemweather
p23
(dp24
g10
F0.0020453834492383956
ssVcom.android.deskclock
p25
(dp26
g10
F0.018431490406153252
ssVcom.UCMobile
p27
(dp28
g10
F0.12104113345474224
ssVcom.facebook.katana
p29
(dp30
g10
F0.00013106837622153423
ssVcom.zhihu.android
p31
(dp32
g10
F0.0014171768178953387
ssVcom.snda.wifilocating
p33
(dp34
g10
F0.00045873931677536977
ssVcom.huawei.motionservice
p35
(dp36
g10
F2.6111278075383772e-05
ssVcom.android.notepad
p37
(dp38
g10
F0.001032163462744582
ssVcom.huawei.android.internal.app
p39
(dp40
g10
F4.4030782636921657e-05
ssVcom.android.mediacenter
p41
(dp42
g10
F9.5229367098458462e-05
ssVcom.sina.weibo
p43
(dp44
g10
F0.0038168544716075691
ssVcom.android.contacts
p45
(dp46
g10
F0.035307055830520399
ssVcom.eg.android.AlipayGphone
p47
(dp48
g10
F0.00081968933722920427
ssVorg.hbrchina
p49
(dp50
g10
F0.00016537142781076388
ssVcom.aquila.bible
p51
(dp52
g10
F0.012986008962824196
ssVcom.mojang.minecraftpe
p53
(dp54
g10
F8.1917735138458891e-05
ssVcn.wps.moffice_i18n
p55
(dp56
g10
F2.0991419629230093e-05
ssVcom.huawei.hwid
p57
(dp58
g10
F3.9422910035383343e-05
ssVcom.android.packageinstaller
p59
(dp60
g10
F0.0024160612007399218
ssVcom.android.gallery3d
p61
(dp62
g10
F0.0062564670211997979
ssVcom.lofter.android
p63
(dp64
g10
F0.0015088222840814896
ssVcom.baidu.searchbox
p65
(dp66
g10
F1.5359575338461042e-06
ssVcom.soco.veggies3.HUAWEI
p67
(dp68
g10
F8.396567851692037e-05
ssVcom.huawei.hidisk
p69
(dp70
g10
F0.00056420840076613563
ssVcom.android.video
p71
(dp72
g10
F3.7374966656921871e-05
ssVcom.android.hwmirror
p73
(dp74
g10
F2.6111278075383772e-05
ssVcom.sirma.mobile.bible.android
p75
(dp76
g10
F0.00099376452439842947
ssVcom.android.phone
p77
(dp78
g10
F0.0014663274589784142
ssVcom.sdu.didi.psnger
p79
(dp80
g10
F0.00017561114470307124
ssVcom.tencent.mobileqq
p81
(dp82
g10
F0.24287533298279368
ssVcom.android.settings
p83
(dp84
g10
F0.020136915254567043
ssVcom.netease.mobimail
p85
(dp86
g10
F0.00029439186065383663
ssVcom.netease.cloudmusic
p87
(dp88
g10
F0.0037083134725491109
ssVcom.huawei.android.hwouc
p89
(dp90
g10
F6.1438301353844167e-06
ssVcom.android.calculator
p91
(dp92
g10
F0.00059953542404459598
ssVcom.zms.android
p93
(dp94
g10
F0.0023899499226645382
ssVcom.kugou.android
p95
(dp96
g10
F0.00022680972916460805
ssVcom.example.chinesechess.huawei
p97
(dp98
g10
F0.011455171287424246
ssVcom.android.fileexplorer
p99
(dp100
g10
F2.918319314307598e-05
ssVcom.netease.newsreader.activity
p101
(dp102
g10
F0.056223725526436646
ssVcom.android.thememanager
p103
(dp104
g10
F0.00020991419629230092
ssVcom.huawei.lcagent
p105
(dp106
g10
F0.0018149898191614799
ssVcom.baidu.BaiduMap
p107
(dp108
g10
F0.0067853483986874729
ssVcom.android.email
p109
(dp110
g10
F7.9357805915382057e-05
ssVcom.huawei.health
p111
(dp112
g10
F0.0088030846123166393
ssVcom.rrh.jdb
p113
(dp114
g10
F0.00026264873828768385
ssVcom.MobileTicket
p115
(dp116
g10
F0.00078333834226151314
ssVcom.huawei.vassistant
p117
(dp118
g10
F4.3006810947690918e-05
ssVcom.qw.android
p119
(dp120
g10
F0.00010290915476768898
ssVcom.android.calendar
p121
(dp122
g10
F0.0034108496968275823
ssVcom.tencent.mm
p123
(dp124
g10
F0.30420867723849171
ssVorg.wikipedia
p125
(dp126
g10
F7.6797876692305215e-06
ssVcom.huawei.android.karaokeeffect
p127
(dp128
g10
F7.1678018246151527e-06
ssVcom.liulishuo.engzo
p129
(dp130
g10
F0.00050277009941229148
ssVcom.iflytek.cmcc
p131
(dp132
g10
F4.7614683549229231e-05
ssVcom.baidu.input_huawei
p133
(dp134
g10
F0.00021503405473845459
ssVcom.android.keyguard
p135
(dp136
g10
F0.00056318442907690486
ssVcom.baidu.tieba
p137
(dp138
g10
F0.0023756143190153079
ssVcom.huawei.appmarket
p139
(dp140
g10
F0.0033105004712829698
ssVcom.android.camera
p141
(dp142
g10
F0.0060491127541305737
ssVcom.huawei.android.airsharing
p143
(dp144
g10
F3.5839009123075763e-06
sssS'node_dict_factory'
p145
c__builtin__
dict
p146
sS'edge_attr_dict_factory'
p147
g146
sS'succ'
p148
(dp149
g8
(dp150
g31
(dp151
g10
F0.90000000000000002
ssg119
(dp152
g10
F3
ssVcom.android.settings
p153
(dp154
g10
F1.7
ssVcom.android.packageinstaller
p155
(dp156
g10
I1
ssVcom.android.gallery3d
p157
(dp158
g10
F0.69999999999999996
ssVcom.android.thememanager
p159
(dp160
g10
F1.3
ssVcom.UCMobile
p161
(dp162
g10
I1
ssVcom.lofter.android
p163
(dp164
g10
I1
ssVcom.zms.android
p165
(dp166
g10
F2.7000000000000002
ssVcom.tencent.mm
p167
(dp168
g10
F1.3
ssVcom.android.contacts
p169
(dp170
g10
F1.8999999999999999
sssg11
(dp171
Vcom.example.chinesechess.huawei
p172
(dp173
g10
I2
ssVcom.tencent.mobileqq
p174
(dp175
g10
F0.40000000000000002
ssVcom.android.soundrecorder
p176
(dp177
g10
F0.90000000000000002
ssVcom.dongqiudi.news
p178
(dp179
g10
F0.69999999999999996
ssg71
(dp180
g10
F0.69999999999999996
ssVcom.android.notepad
p181
(dp182
g10
F0.90000000000000002
ssVcom.android.camera
p183
(dp184
g10
I2
ssg41
(dp185
g10
F1.3999999999999999
ssVcom.tencent.mm
p186
(dp187
g10
F3.8999999999999999
ssVcom.android.contacts
p188
(dp189
g10
I3
sssg13
(dp190
Vcom.android.settings
p191
(dp192
g10
I2
ssVcom.aquila.bible
p193
(dp194
g10
F0.40000000000000002
ssVcom.tencent.mm
p195
(dp196
g10
F2.8999999999999999
ssVcom.UCMobile
p197
(dp198
g10
F0.69999999999999996
sssg15
(dp199
Vcom.android.fileexplorer
p200
(dp201
g10
F2.7000000000000002
ssVcom.tencent.mobileqq
p202
(dp203
g10
F2.8999999999999999
ssVcom.liulishuo.engzo
p204
(dp205
g10
F1.6000000000000001
ssVcom.android.deskclock
p206
(dp207
g10
I1
ssVcom.UCMobile
p208
(dp209
g10
F2.7999999999999998
ssVcom.netease.newsreader.activity
p210
(dp211
g10
F0.40000000000000002
ssVcom.android.camera
p212
(dp213
g10
I2
ssVcom.tencent.mm
p214
(dp215
g10
F7.4000000000000004
ssVcom.android.contacts
p216
(dp217
g10
I3
sssg17
(dp218
Vcom.android.settings
p219
(dp220
g10
I2
ssVcom.tencent.mm
p221
(dp222
g10
F12.4
ssVcom.android.gallery3d
p223
(dp224
g10
F0.40000000000000002
ssVcom.tencent.mobileqq
p225
(dp226
g10
F8.6999999999999993
ssVcom.UCMobile
p227
(dp228
g10
F0.69999999999999996
sssg19
(dp229
Vcom.aquila.bible
p230
(dp231
g10
I1
ssVcom.tencent.mm
p232
(dp233
g10
I2
ssg71
(dp234
g10
I1
ssg139
(dp235
g10
F1.6000000000000001
ssVcom.android.mediacenter
p236
(dp237
g10
F0.90000000000000002
ssVcom.tencent.mobileqq
p238
(dp239
g10
I1
sssg21
(dp240
Vcom.android.deskclock
p241
(dp242
g10
F2.8999999999999999
ssVcom.UCMobile
p243
(dp244
g10
F35
ssg43
(dp245
g10
F3.1999999999999997
ssVcom.android.contacts
p246
(dp247
g10
F5.9000000000000004
ssg75
(dp248
g10
F1.3
ssVcom.zhihu.android
p249
(dp250
g10
I1
ssVcom.example.chinesechess.huawei
p251
(dp252
g10
F0.40000000000000002
ssVcom.android.packageinstaller
p253
(dp254
g10
I1
ssVcom.android.gallery3d
p255
(dp256
g10
F4.2999999999999998
ssVcom.taobao.taobao
p257
(dp258
g10
I1
ssVcom.android.phone
p259
(dp260
g10
F5.7000000000000002
ssVcom.tencent.mm
p261
(dp262
g10
F118.00000000000011
ssVcom.netease.cloudmusic
p263
(dp264
g10
F1.3
ssVcom.aquila.bible
p265
(dp266
g10
F6.8000000000000007
ssVcom.netease.newsreader.activity
p267
(dp268
g10
F9.5
ssVcom.huawei.lcagent
p269
(dp270
g10
I1
ssVcom.huawei.health
p271
(dp272
g10
F3.6000000000000001
ssVcom.tencent.mobileqq
p273
(dp274
g10
F116.8000000000001
ssVcom.huawei.vassistant
p275
(dp276
g10
I1
ssVcom.android.settings
p277
(dp278
g10
F2.2999999999999998
ssVcom.huawei.hwid
p279
(dp280
g10
F0.69999999999999996
ssVcom.huawei.appmarket
p281
(dp282
g10
F1.8999999999999999
ssVcom.android.camera
p283
(dp284
g10
I1
sssg23
(dp285
Vcom.tencent.mobileqq
p286
(dp287
g10
F6.2999999999999998
ssVcom.huawei.health
p288
(dp289
g10
F1.3
ssVcom.UCMobile
p290
(dp291
g10
F1.7
ssVcom.android.phone
p292
(dp293
g10
F0.90000000000000002
ssVcom.android.camera
p294
(dp295
g10
I1
ssVcom.tencent.mm
p296
(dp297
g10
F5.4000000000000004
ssVcom.android.contacts
p298
(dp299
g10
F1.7
sssg25
(dp300
Vcom.huawei.android.totemweather
p301
(dp302
g10
F1.8999999999999999
ssVcom.aquila.bible
p303
(dp304
g10
I1
ssVcom.android.calendar
p305
(dp306
g10
I1
ssVcom.tencent.mm
p307
(dp308
g10
F5.7999999999999998
ssVcom.example.chinesechess.huawei
p309
(dp310
g10
I1
ssVcom.android.contacts
p311
(dp312
g10
F2.7999999999999998
ssVcom.UCMobile
p313
(dp314
g10
I3
ssVcom.huawei.appmarket
p315
(dp316
g10
I1
ssVcom.tencent.mobileqq
p317
(dp318
g10
I3
ssVcom.huawei.health
p319
(dp320
g10
F1.8999999999999999
sssg27
(dp321
Vcom.android.browser
p322
(dp323
g10
F0.40000000000000002
ssVcom.android.calendar
p324
(dp325
g10
F0.90000000000000002
ssVcom.youdao.dict
p326
(dp327
g10
I1
ssVcom.dongqiudi.news
p328
(dp329
g10
F38.79999999999999
ssVcom.android.deskclock
p330
(dp331
g10
F4.9000000000000004
ssVcom.snda.wifilocating
p332
(dp333
g10
I1
ssVcom.android.notepad
p334
(dp335
g10
I1
ssVcom.huawei.android.internal.app
p336
(dp337
g10
F2.5
ssg55
(dp338
g10
F0.69999999999999996
ssVcom.sina.weibo
p339
(dp340
g10
F0.90000000000000002
ssVcom.android.contacts
p341
(dp342
g10
F14.800000000000001
ssVcom.eg.android.AlipayGphone
p343
(dp344
g10
F0.69999999999999996
ssg49
(dp345
g10
F0.40000000000000002
ssg97
(dp346
g10
F3.7000000000000002
ssg143
(dp347
g10
I1
ssg61
(dp348
g10
F12.800000000000001
ssVcom.taobao.taobao
p349
(dp350
g10
F1.6000000000000001
ssg75
(dp351
g10
F0.69999999999999996
ssg93
(dp352
g10
F0.69999999999999996
ssg273
(dp353
g10
F141.20000000000013
ssVcom.android.settings
p354
(dp355
g10
F12.6
ssg87
(dp356
g10
F6.4000000000000004
ssg31
(dp357
g10
F4
ssVcom.android.calculator
p358
(dp359
g10
I1
ssVcom.android.phone
p360
(dp361
g10
I3
ssVcom.aquila.bible
p362
(dp363
g10
F26.599999999999987
ssVcom.netease.newsreader.activity
p364
(dp365
g10
F26.699999999999992
ssVcom.android.thememanager
p366
(dp367
g10
F1.6000000000000001
ssVcom.huawei.lcagent
p368
(dp369
g10
I2
ssg271
(dp370
g10
F10.200000000000001
ssVcom.MobileTicket
p371
(dp372
g10
F0.90000000000000002
ssVcom.huawei.vassistant
p373
(dp374
g10
I1
ssVcom.baidu.input_huawei
p375
(dp376
g10
F1.3
ssVcom.tencent.mm
p377
(dp378
g10
F224.70000000000005
ssVcom.baidu.BaiduMap
p379
(dp380
g10
I4
ssVcom.huawei.hwid
p381
(dp382
g10
F5.2000000000000002
ssVcom.lofter.android
p383
(dp384
g10
I1
ssVcom.baidu.tieba
p385
(dp386
g10
F20.399999999999999
ssVcom.huawei.appmarket
p387
(dp388
g10
F10.100000000000001
ssVcom.android.camera
p389
(dp390
g10
F6.8000000000000007
ssVcom.android.packageinstaller
p391
(dp392
g10
F1.3
sssg29
(dp393
sg31
(dp394
g125
(dp395
g10
I1
ssVcom.tencent.mobileqq
p396
(dp397
g10
I3
ssVcom.android.keyguard
p398
(dp399
g10
I1
ssVcom.tencent.mm
p400
(dp401
g10
F1.8999999999999999
ssVcom.netease.newsreader.activity
p402
(dp403
g10
I1
sssg33
(dp404
g11
(dp405
g10
I1
ssVcom.android.settings
p406
(dp407
g10
F1.7
ssVcom.android.deskclock
p408
(dp409
g10
I1
ssVcom.UCMobile
p410
(dp411
g10
F1.6000000000000001
ssVcom.huawei.lcagent
p412
(dp413
g10
I1
ssVcom.tencent.mm
p414
(dp415
g10
F3.8999999999999999
sssg35
(dp416
Vcom.android.settings
p417
(dp418
g10
I1
ssVcom.android.contacts
p419
(dp420
g10
F0.90000000000000002
sssg37
(dp421
Vcom.android.browser
p422
(dp423
g10
I1
ssVcom.aquila.bible
p424
(dp425
g10
F1.3
ssVcom.tencent.mobileqq
p426
(dp427
g10
I1
ssVcom.android.gallery3d
p428
(dp429
g10
F1.6000000000000001
ssg99
(dp430
g10
F1.8999999999999999
ssVcom.android.camera
p431
(dp432
g10
I1
ssVcom.tencent.mm
p433
(dp434
g10
F7.7000000000000002
ssVcom.huawei.health
p435
(dp436
g10
I1
sssg39
(dp437
Vorg.hbrchina
p438
(dp439
g10
I1
ssVcom.aquila.bible
p440
(dp441
g10
F0.90000000000000002
ssVcom.huawei.hidisk
p442
(dp443
g10
F2.2999999999999998
ssVcom.tencent.mobileqq
p444
(dp445
g10
F5.5
ssg61
(dp446
g10
F1.3
ssg55
(dp447
g10
I1
ssg27
(dp448
g10
I4
ssVcom.baidu.tieba
p449
(dp450
g10
F0.40000000000000002
ssVcom.android.settings
p451
(dp452
g10
F0.69999999999999996
ssg377
(dp453
g10
F12.1
ssVcom.huawei.health
p454
(dp455
g10
I1
ssVcom.eg.android.AlipayGphone
p456
(dp457
g10
F0.40000000000000002
sssg41
(dp458
Vcom.netease.cloudmusic
p459
(dp460
g10
F0.90000000000000002
ssVcom.tencent.mobileqq
p461
(dp462
g10
F2.2999999999999998
ssg176
(dp463
g10
I1
ssVcom.huawei.hidisk
p464
(dp465
g10
F7.4000000000000004
ssg71
(dp466
g10
F0.90000000000000002
ssVcom.huawei.android.internal.app
p467
(dp468
g10
F1.3
ssVcom.tencent.mm
p469
(dp470
g10
F6.0000000000000009
sssg43
(dp471
g49
(dp472
g10
F1.3
ssg251
(dp473
g10
F1.3
ssVcom.UCMobile
p474
(dp475
g10
F3.5
ssVcom.baidu.input_huawei
p476
(dp477
g10
F0.90000000000000002
ssVcom.tencent.mobileqq
p478
(dp479
g10
F2.3999999999999999
ssg131
(dp480
g10
F1.7
ssVcom.android.gallery3d
p481
(dp482
g10
F3.3999999999999999
ssVcom.huawei.hwid
p483
(dp484
g10
F0.69999999999999996
ssVcom.netease.newsreader.activity
p485
(dp486
g10
F2.3999999999999999
ssVcom.baidu.tieba
p487
(dp488
g10
F3.7000000000000002
ssVcom.huawei.appmarket
p489
(dp490
g10
I1
ssVcom.huawei.android.internal.app
p491
(dp492
g10
F1.7
ssVcom.tencent.mm
p493
(dp494
g10
F18.199999999999996
ssVcom.android.contacts
p495
(dp496
g10
F0.90000000000000002
ssVcom.android.settings
p497
(dp498
g10
I1
sssg45
(dp499
g8
(dp500
g10
F5.2000000000000002
ssVcom.baidu.input_huawei
p501
(dp502
g10
F0.90000000000000002
ssVcom.android.thememanager
p503
(dp504
g10
F3.2999999999999998
ssVcom.rrh.jdb
p505
(dp506
g10
F1.8999999999999999
ssVcom.UCMobile
p507
(dp508
g10
F16.400000000000002
ssVcom.snda.wifilocating
p509
(dp510
g10
F0.90000000000000002
ssVcom.android.notepad
p511
(dp512
g10
F2.8999999999999999
ssg336
(dp513
g10
F0.90000000000000002
ssVcom.android.mediacenter
p514
(dp515
g10
F0.90000000000000002
ssVcom.eg.android.AlipayGphone
p516
(dp517
g10
F6.5
ssg31
(dp518
g10
F1.3999999999999999
ssVcom.example.chinesechess.huawei
p519
(dp520
g10
F3.3999999999999999
ssVcom.android.gallery3d
p521
(dp522
g10
I2
ssVcom.taobao.taobao
p523
(dp524
g10
I1
ssVcom.huawei.hidisk
p525
(dp526
g10
F1.7
ssVcom.android.phone
p527
(dp528
g10
F19.899999999999999
ssVcom.tencent.mm
p529
(dp530
g10
F114.70000000000013
ssg263
(dp531
g10
F0.40000000000000002
ssg358
(dp532
g10
F0.90000000000000002
ssVcom.netease.newsreader.activity
p533
(dp534
g10
F2.3999999999999999
ssVcom.dongqiudi.news
p535
(dp536
g10
F8.2000000000000011
ssVcom.huawei.health
p537
(dp538
g10
F5.9000000000000004
ssVcom.tencent.mobileqq
p539
(dp540
g10
F51.499999999999993
ssVcom.MobileTicket
p541
(dp542
g10
I1
ssVcom.huawei.vassistant
p543
(dp544
g10
I1
ssVcom.qw.android
p545
(dp546
g10
I1
ssVcom.android.calendar
p547
(dp548
g10
F0.90000000000000002
ssVcom.android.settings
p549
(dp550
g10
F13.9
ssVcom.baidu.BaiduMap
p551
(dp552
g10
F0.90000000000000002
ssVcom.huawei.hwid
p553
(dp554
g10
F1.8
ssVcom.baidu.tieba
p555
(dp556
g10
F0.90000000000000002
ssVcom.huawei.appmarket
p557
(dp558
g10
I1
ssVcom.android.camera
p559
(dp560
g10
F2.8999999999999999
sssg47
(dp561
Vcom.android.browser
p562
(dp563
g10
F1.3
ssVcom.mojang.minecraftpe
p564
(dp565
g10
I1
ssVcom.netease.cloudmusic
p566
(dp567
g10
F0.40000000000000002
ssVorg.wikipedia
p568
(dp569
g10
I1
ssVcom.tencent.mm
p570
(dp571
g10
F11.300000000000001
ssVcom.netease.newsreader.activity
p572
(dp573
g10
F0.69999999999999996
ssVcom.huawei.android.internal.app
p574
(dp575
g10
I1
ssVcom.tencent.mobileqq
p576
(dp577
g10
F4.7000000000000002
ssVcom.android.contacts
p578
(dp579
g10
F3.7000000000000002
sssg49
(dp580
Vcom.huawei.android.internal.app
p581
(dp582
g10
I1
ssVcom.tencent.mm
p583
(dp584
g10
F3.7000000000000002
ssVcom.huawei.appmarket
p585
(dp586
g10
F1.7
sssg51
(dp587
g11
(dp588
g10
F0.69999999999999996
ssg326
(dp589
g10
F0.69999999999999996
ssVcom.netease.cloudmusic
p590
(dp591
g10
I1
ssg99
(dp592
g10
F0.40000000000000002
ssVcom.tencent.mobileqq
p593
(dp594
g10
F32.099999999999994
ssVcom.android.phone
p595
(dp596
g10
I2
ssg19
(dp597
g10
I1
ssg379
(dp598
g10
F0.69999999999999996
ssVcom.dongqiudi.news
p599
(dp600
g10
F3.2999999999999998
ssVcom.UCMobile
p601
(dp602
g10
F21.299999999999994
ssVcom.netease.newsreader.activity
p603
(dp604
g10
F1.3
ssg33
(dp605
g10
F0.90000000000000002
ssVcom.sirma.mobile.bible.android
p606
(dp607
g10
F6.0000000000000009
ssVcom.android.notepad
p608
(dp609
g10
F2.5
ssg139
(dp610
g10
F3
ssVcom.huawei.android.internal.app
p611
(dp612
g10
F0.69999999999999996
ssVcom.tencent.mm
p613
(dp614
g10
F59.799999999999983
ssVcom.huawei.health
p615
(dp616
g10
F1.3999999999999999
ssVcom.eg.android.AlipayGphone
p617
(dp618
g10
F0.69999999999999996
ssVcom.android.settings
p619
(dp620
g10
F2
sssg53
(dp621
Vcom.huawei.hwid
p622
(dp623
g10
F0.90000000000000002
ssVcom.tencent.mm
p624
(dp625
g10
I1
ssVcom.huawei.health
p626
(dp627
g10
F0.40000000000000002
ssVcom.huawei.appmarket
p628
(dp629
g10
F1.7
sssg55
(dp630
sg57
(dp631
g115
(dp632
g10
F0.90000000000000002
ssVcom.example.chinesechess.huawei
p633
(dp634
g10
F4.7000000000000002
ssVcom.android.settings
p635
(dp636
g10
F2.6000000000000001
ssg103
(dp637
g10
F1.3999999999999999
ssVcom.huawei.hidisk
p638
(dp639
g10
I1
ssVcom.huawei.appmarket
p640
(dp641
g10
F13.300000000000001
ssVcom.tencent.mm
p642
(dp643
g10
F4.2999999999999998
ssg626
(dp644
g10
F0.90000000000000002
ssVcom.tencent.mobileqq
p645
(dp646
g10
F0.40000000000000002
sssg59
(dp647
g322
(dp648
g10
F1.3
ssVcom.android.settings
p649
(dp650
g10
F0.90000000000000002
ssVcom.tencent.mm
p651
(dp652
g10
F1.8999999999999999
ssg119
(dp653
g10
F2.1000000000000001
ssg93
(dp654
g10
F1.7
sssg61
(dp655
Vcom.zms.android
p656
(dp657
g10
F0.90000000000000002
ssVcom.android.thememanager
p658
(dp659
g10
F4.1999999999999993
ssVcom.UCMobile
p660
(dp661
g10
F16.5
ssVcom.android.notepad
p662
(dp663
g10
I1
ssg491
(dp664
g10
F4.9000000000000004
ssVcom.android.mediacenter
p665
(dp666
g10
I1
ssVcom.sina.weibo
p667
(dp668
g10
I1
ssVcom.android.contacts
p669
(dp670
g10
F4.7999999999999998
ssVcom.android.phone
p671
(dp672
g10
F0.90000000000000002
ssVcom.tencent.mm
p673
(dp674
g10
F24.999999999999993
ssVcom.netease.cloudmusic
p675
(dp676
g10
I1
ssVorg.wikipedia
p677
(dp678
g10
F0.40000000000000002
ssVcom.huawei.appmarket
p679
(dp680
g10
F2.5999999999999996
ssVcom.android.fileexplorer
p681
(dp682
g10
F1.8
ssVcom.netease.newsreader.activity
p683
(dp684
g10
F2
ssVcom.huawei.lcagent
p685
(dp686
g10
F1.7
ssVcom.huawei.health
p687
(dp688
g10
F1.6000000000000001
ssVcom.tencent.mobileqq
p689
(dp690
g10
F15.9
ssVcom.android.calendar
p691
(dp692
g10
I1
ssVcom.huawei.android.totemweather
p693
(dp694
g10
F0.90000000000000002
ssVcom.huawei.hwid
p695
(dp696
g10
F0.40000000000000002
ssVcom.lofter.android
p697
(dp698
g10
F2.3999999999999999
ssVcom.baidu.tieba
p699
(dp700
g10
F3.1999999999999997
ssVcom.android.settings
p701
(dp702
g10
F10.600000000000001
ssVcom.android.camera
p703
(dp704
g10
I12
sssg63
(dp705
Vcom.android.browser
p706
(dp707
g10
I1
ssVcom.aquila.bible
p708
(dp709
g10
I2
ssVcom.UCMobile
p710
(dp711
g10
I1
ssVcom.tencent.mobileqq
p712
(dp713
g10
F6.1000000000000005
ssVcom.android.gallery3d
p714
(dp715
g10
F2.7000000000000002
ssVcom.dongqiudi.news
p716
(dp717
g10
F1.7000000000000002
ssVcom.android.fileexplorer
p718
(dp719
g10
F3.7999999999999998
ssVcom.tencent.mm
p720
(dp721
g10
F3.1999999999999997
sssg65
(dp722
Vcom.UCMobile
p723
(dp724
g10
I1
ssVcom.tencent.mm
p725
(dp726
g10
F0.90000000000000002
sssg67
(dp727
Vcom.UCMobile
p728
(dp729
g10
F0.69999999999999996
ssVcom.aquila.bible
p730
(dp731
g10
F1.3
ssVcom.tencent.mm
p732
(dp733
g10
I1
sssg69
(dp734
Vcom.tencent.mobileqq
p735
(dp736
g10
F3.6000000000000001
ssVcom.huawei.android.totemweather
p737
(dp738
g10
I1
ssg553
(dp739
g10
I1
ssg451
(dp740
g10
F1.3
ssg467
(dp741
g10
F3.1000000000000001
ssVcom.android.mediacenter
p742
(dp743
g10
F5.2999999999999998
ssVcom.tencent.mm
p744
(dp745
g10
F3.6000000000000001
sssg71
(dp746
g236
(dp747
g10
I1
sssg73
(dp748
sg75
(dp749
Vcom.tencent.mm
p750
(dp751
g10
F5.1999999999999993
ssVcom.aquila.bible
p752
(dp753
g10
F1.3
ssVcom.tencent.mobileqq
p754
(dp755
g10
F5
ssVcom.dongqiudi.news
p756
(dp757
g10
I1
ssVcom.handsgo.jiakao.android
p758
(dp759
g10
F1.3999999999999999
sssg77
(dp760
Vcom.aquila.bible
p761
(dp762
g10
F0.69999999999999996
ssVcom.android.settings
p763
(dp764
g10
F1.8999999999999999
ssVcom.tencent.mm
p765
(dp766
g10
F6.2999999999999998
ssVcom.android.gallery3d
p767
(dp768
g10
F0.90000000000000002
ssVcom.baidu.BaiduMap
p769
(dp770
g10
I1
ssVcom.dongqiudi.news
p771
(dp772
g10
I1
ssVcom.huawei.health
p773
(dp774
g10
F0.90000000000000002
ssVcom.UCMobile
p775
(dp776
g10
F0.69999999999999996
ssVcom.huawei.lcagent
p777
(dp778
g10
I1
ssVcom.huawei.appmarket
p779
(dp780
g10
I1
ssVcom.android.camera
p781
(dp782
g10
I1
ssVcom.tencent.mobileqq
p783
(dp784
g10
F3.6000000000000001
ssVcom.android.contacts
p785
(dp786
g10
F40.699999999999996
ssVcom.eg.android.AlipayGphone
p787
(dp788
g10
F0.90000000000000002
sssg79
(dp789
Vcom.android.contacts
p790
(dp791
g10
I1
sssg81
(dp792
Vcom.android.notepad
p793
(dp794
g10
F1.3999999999999999
ssVcom.handsgo.jiakao.android
p795
(dp796
g10
F2.2999999999999998
ssg19
(dp797
g10
F3.7000000000000002
ssVcom.dongqiudi.news
p798
(dp799
g10
F115.70000000000012
ssg107
(dp800
g10
F6.7000000000000002
ssVcom.android.deskclock
p801
(dp802
g10
F8.5
ssg27
(dp803
g10
F162.10000000000016
ssVcom.snda.wifilocating
p804
(dp805
g10
F1.3999999999999999
ssVcom.netease.mobimail
p806
(dp807
g10
I1
ssg39
(dp808
g10
F7.6000000000000014
ssVcom.android.mediacenter
p809
(dp810
g10
F4.0999999999999996
ssVcom.sina.weibo
p811
(dp812
g10
F8.8000000000000007
ssVcom.android.contacts
p813
(dp814
g10
F69.700000000000017
ssVcom.eg.android.AlipayGphone
p815
(dp816
g10
F2.7999999999999998
ssVcom.youdao.dict
p817
(dp818
g10
I1
ssVcom.zhihu.android
p819
(dp820
g10
F2.2999999999999998
ssg51
(dp821
g10
F51.300000000000004
ssg53
(dp822
g10
F1.7
ssg55
(dp823
g10
F0.90000000000000002
ssVcom.huawei.android.airsharing
p824
(dp825
g10
F0.90000000000000002
ssVcom.android.gallery3d
p826
(dp827
g10
F11.299999999999999
ssVcom.lofter.android
p828
(dp829
g10
F2.7000000000000002
ssg349
(dp830
g10
F6.6000000000000005
ssg67
(dp831
g10
I1
ssVcom.huawei.hidisk
p832
(dp833
g10
F6.2999999999999998
ssVcom.android.video
p834
(dp835
g10
F1.3
ssVcom.sirma.mobile.bible.android
p836
(dp837
g10
F5.7000000000000002
ssVcom.android.phone
p838
(dp839
g10
F4.2000000000000002
ssg123
(dp840
g10
F591.19999999999823
ssVcom.android.settings
p841
(dp842
g10
F18.999999999999996
ssVcom.netease.cloudmusic
p843
(dp844
g10
F8.3000000000000007
ssVorg.hbrchina
p845
(dp846
g10
I1
ssg125
(dp847
g10
F1.3999999999999999
ssVcom.zms.android
p848
(dp849
g10
F4.9000000000000004
ssVcom.example.chinesechess.huawei
p850
(dp851
g10
F7.2999999999999998
ssVcom.android.fileexplorer
p852
(dp853
g10
F0.90000000000000002
ssVcom.netease.newsreader.activity
p854
(dp855
g10
F39.299999999999983
ssVcom.android.thememanager
p856
(dp857
g10
F2.7000000000000002
ssVcom.huawei.health
p858
(dp859
g10
F10.4
ssVcom.huawei.vassistant
p860
(dp861
g10
I1
ssVcom.android.calendar
p862
(dp863
g10
F9.9000000000000004
ssg23
(dp864
g10
F5.7000000000000002
ssVcom.baidu.input_huawei
p865
(dp866
g10
F4
ssVcom.liulishuo.engzo
p867
(dp868
g10
F3.8999999999999999
ssg622
(dp869
g10
F5.4000000000000004
ssVcom.android.keyguard
p870
(dp871
g10
I1
ssg555
(dp872
g10
I1
ssVcom.huawei.appmarket
p873
(dp874
g10
F11.500000000000002
ssVcom.android.camera
p875
(dp876
g10
F5.2999999999999998
ssVcom.android.packageinstaller
p877
(dp878
g10
F1.8999999999999999
sssg83
(dp879
Vcom.android.browser
p880
(dp881
g10
F2.7000000000000002
ssVcom.youdao.dict
p882
(dp883
g10
I1
ssg103
(dp884
g10
F25.499999999999993
ssVcom.UCMobile
p885
(dp886
g10
F6.4000000000000012
ssg29
(dp887
g10
F0.90000000000000002
ssVcom.snda.wifilocating
p888
(dp889
g10
F7.7999999999999998
ssg35
(dp890
g10
F3
ssVcom.huawei.android.internal.app
p891
(dp892
g10
F2.5
ssVcom.android.contacts
p893
(dp894
g10
F14.1
ssVcom.aquila.bible
p895
(dp896
g10
F5.7000000000000011
ssg155
(dp897
g10
F0.90000000000000002
ssVcom.android.gallery3d
p898
(dp899
g10
F9.1000000000000014
ssVcom.huawei.hidisk
p900
(dp901
g10
F1.3999999999999999
ssVcom.android.phone
p902
(dp903
g10
F0.69999999999999996
ssg783
(dp904
g10
F14.800000000000001
ssVcom.netease.cloudmusic
p905
(dp906
g10
F2.7000000000000002
ssg89
(dp907
g10
F1.7
ssg677
(dp908
g10
F1.8999999999999999
ssg848
(dp909
g10
F0.40000000000000002
ssVcom.netease.newsreader.activity
p910
(dp911
g10
F0.69999999999999996
ssVcom.dongqiudi.news
p912
(dp913
g10
F3.7000000000000002
ssVcom.huawei.lcagent
p914
(dp915
g10
F3.7999999999999998
ssVcom.huawei.health
p916
(dp917
g10
F6.7000000000000002
ssg119
(dp918
g10
F3
ssg127
(dp919
g10
F2.2999999999999998
ssVcom.tencent.mm
p920
(dp921
g10
F56.599999999999994
ssVcom.baidu.BaiduMap
p922
(dp923
g10
F3.1999999999999997
ssVcom.huawei.hwid
p924
(dp925
g10
F0.69999999999999996
ssVcom.android.keyguard
p926
(dp927
g10
I1
ssVcom.baidu.tieba
p928
(dp929
g10
F2.6000000000000001
ssVcom.huawei.appmarket
p930
(dp931
g10
F2.7000000000000002
sssg85
(dp932
Vcom.aquila.bible
p933
(dp934
g10
I1
ssVcom.android.contacts
p935
(dp936
g10
I1
sssg87
(dp937
g51
(dp938
g10
F2.6000000000000001
ssVcom.huawei.android.FMRadio
p939
(dp940
g10
F1.3
ssVcom.huawei.hwid
p941
(dp942
g10
F1.3999999999999999
ssVcom.tencent.mobileqq
p943
(dp944
g10
F10.5
ssg848
(dp945
g10
F4.4000000000000004
ssg19
(dp946
g10
F1.3
ssVcom.baidu.BaiduMap
p947
(dp948
g10
I1
ssVcom.dongqiudi.news
p949
(dp950
g10
F2.3999999999999999
ssVcom.UCMobile
p951
(dp952
g10
F4.5999999999999996
ssVcom.netease.newsreader.activity
p953
(dp954
g10
F1.7
ssg139
(dp955
g10
F3
ssVcom.android.camera
p956
(dp957
g10
I3
ssg41
(dp958
g10
F1.6000000000000001
ssVcom.tencent.mm
p959
(dp960
g10
F10.9
ssVcom.huawei.health
p961
(dp962
g10
I1
ssg617
(dp963
g10
F0.90000000000000002
ssVcom.android.settings
p964
(dp965
g10
I2
sssg89
(dp966
Vcom.android.settings
p967
(dp968
g10
F1.7
ssVcom.android.gallery3d
p969
(dp970
g10
F0.90000000000000002
ssg658
(dp971
g10
F0.40000000000000002
sssg91
(dp972
Vcom.aquila.bible
p973
(dp974
g10
F0.40000000000000002
ssVcom.huawei.vassistant
p975
(dp976
g10
I1
ssVcom.tencent.mobileqq
p977
(dp978
g10
I2
ssg507
(dp979
g10
F1.6000000000000001
ssVcom.tencent.mm
p980
(dp981
g10
F1.8999999999999999
ssVcom.android.contacts
p982
(dp983
g10
I1
sssg93
(dp984
g322
(dp985
g10
F2.7000000000000002
ssVcom.android.settings
p986
(dp987
g10
F1.8999999999999999
ssg695
(dp988
g10
F0.90000000000000002
ssVcom.snda.wifilocating
p989
(dp990
g10
F0.69999999999999996
ssVcom.huawei.appmarket
p991
(dp992
g10
F2.7000000000000002
ssVcom.android.mediacenter
p993
(dp994
g10
F0.90000000000000002
ssg167
(dp995
g10
F8.2000000000000028
ssVcom.huawei.health
p996
(dp997
g10
I1
ssVcom.tencent.mobileqq
p998
(dp999
g10
F5.0999999999999996
sssg95
(dp1000
Vcom.tencent.mm
p1001
(dp1002
g10
I1
ssVcom.android.contacts
p1003
(dp1004
g10
F0.90000000000000002
sssg97
(dp1005
Vcom.zhihu.android
p1006
(dp1007
g10
F0.90000000000000002
ssVcom.huawei.android.FMRadio
p1008
(dp1009
g10
I2
ssg181
(dp1010
g10
F0.69999999999999996
ssVcom.UCMobile
p1011
(dp1012
g10
I1
ssVcom.android.calendar
p1013
(dp1014
g10
I1
ssVcom.tencent.mobileqq
p1015
(dp1016
g10
F6.9000000000000004
ssVcom.android.gallery3d
p1017
(dp1018
g10
F0.90000000000000002
ssg178
(dp1019
g10
F1.3
ssVcom.huawei.health
p1020
(dp1021
g10
F2.6000000000000001
ssVcom.android.deskclock
p1022
(dp1023
g10
I3
ssVcom.huawei.hwid
p1024
(dp1025
g10
I5
ssVcom.netease.newsreader.activity
p1026
(dp1027
g10
I1
ssVcom.huawei.lcagent
p1028
(dp1029
g10
I1
ssVcom.android.settings
p1030
(dp1031
g10
F1.8999999999999999
ssg891
(dp1032
g10
F0.40000000000000002
ssVcom.android.camera
p1033
(dp1034
g10
I3
ssVcom.tencent.mm
p1035
(dp1036
g10
F13.6
ssVcom.android.contacts
p1037
(dp1038
g10
F6.7000000000000011
ssVcom.eg.android.AlipayGphone
p1039
(dp1040
g10
F0.90000000000000002
sssg99
(dp1041
Vcom.mojang.minecraftpe
p1042
(dp1043
g10
F0.69999999999999996
ssVcom.tencent.mobileqq
p1044
(dp1045
g10
F0.90000000000000002
ssg428
(dp1046
g10
F4.7999999999999998
ssVcom.taobao.taobao
p1047
(dp1048
g10
I1
ssVcom.liulishuo.engzo
p1049
(dp1050
g10
F2.7000000000000002
ssg697
(dp1051
g10
F1.8
ssg662
(dp1052
g10
F0.90000000000000002
ssg628
(dp1053
g10
F0.40000000000000002
ssg141
(dp1054
g10
F0.90000000000000002
ssg673
(dp1055
g10
F0.69999999999999996
sssg101
(dp1056
Vcom.dongqiudi.news
p1057
(dp1058
g10
F13.6
ssVcom.UCMobile
p1059
(dp1060
g10
F9.3000000000000025
ssVcom.snda.wifilocating
p1061
(dp1062
g10
I1
ssg611
(dp1063
g10
F2.2999999999999998
ssg43
(dp1064
g10
F2
ssVcom.android.contacts
p1065
(dp1066
g10
F8.1999999999999993
ssVcom.zhihu.android
p1067
(dp1068
g10
I1
ssVcom.example.chinesechess.huawei
p1069
(dp1070
g10
I1
ssg255
(dp1071
g10
I2
ssVcom.taobao.taobao
p1072
(dp1073
g10
I1
ssVcom.android.phone
p1074
(dp1075
g10
I1
ssVcom.tencent.mm
p1076
(dp1077
g10
F51.699999999999996
ssVcom.netease.cloudmusic
p1078
(dp1079
g10
F3.6000000000000001
ssg656
(dp1080
g10
F0.69999999999999996
ssVcom.aquila.bible
p1081
(dp1082
g10
F3.2999999999999998
ssVcom.huawei.health
p1083
(dp1084
g10
I1
ssVcom.tencent.mobileqq
p1085
(dp1086
g10
F51.299999999999997
ssg117
(dp1087
g10
I1
ssVcom.baidu.input_huawei
p1088
(dp1089
g10
F1.3999999999999999
ssg635
(dp1090
g10
F7.4000000000000012
ssVcom.baidu.BaiduMap
p1091
(dp1092
g10
I1
ssg57
(dp1093
g10
F3.6000000000000001
ssVcom.huawei.appmarket
p1094
(dp1095
g10
F9.2000000000000011
ssVcom.android.camera
p1096
(dp1097
g10
I1
sssg103
(dp1098
g89
(dp1099
g10
F1.3
ssg127
(dp1100
g10
F0.69999999999999996
ssVcom.android.settings
p1101
(dp1102
g10
F17.499999999999996
ssg898
(dp1103
g10
F4.6999999999999993
ssVcom.android.contacts
p1104
(dp1105
g10
I1
ssg924
(dp1106
g10
F1.3
ssg930
(dp1107
g10
F2.3999999999999999
ssg687
(dp1108
g10
F0.40000000000000002
sssg105
(dp1109
Vcom.tencent.mm
p1110
(dp1111
g10
F7.8000000000000007
ssg767
(dp1112
g10
F1.7
ssVcom.taobao.taobao
p1113
(dp1114
g10
I1
ssVcom.UCMobile
p1115
(dp1116
g10
F2.8999999999999999
ssg910
(dp1117
g10
F0.40000000000000002
ssg332
(dp1118
g10
F0.69999999999999996
ssg671
(dp1119
g10
I1
ssVcom.tencent.mobileqq
p1120
(dp1121
g10
F1.7
ssVcom.android.settings
p1122
(dp1123
g10
I2
sssg107
(dp1124
g761
(dp1125
g10
F2.3999999999999999
ssVcom.huawei.android.FMRadio
p1126
(dp1127
g10
F0.69999999999999996
ssVcom.tencent.mobileqq
p1128
(dp1129
g10
F3.8999999999999999
ssg172
(dp1130
g10
F0.40000000000000002
ssVcom.dongqiudi.news
p1131
(dp1132
g10
I1
ssVcom.UCMobile
p1133
(dp1134
g10
F3.7000000000000002
ssVcom.android.phone
p1135
(dp1136
g10
I1
ssVcom.android.camera
p1137
(dp1138
g10
I2
ssVcom.tencent.mm
p1139
(dp1140
g10
F16.5
ssVcom.android.contacts
p1141
(dp1142
g10
F4.2999999999999998
ssVcom.android.settings
p1143
(dp1144
g10
F4.1999999999999993
sssg109
(dp1145
Vcom.huawei.hwid
p1146
(dp1147
g10
F0.90000000000000002
ssVcom.android.contacts
p1148
(dp1149
g10
I1
ssVcom.huawei.appmarket
p1150
(dp1151
g10
F1.7
sssg111
(dp1152
Vcom.android.browser
p1153
(dp1154
g10
F1.8999999999999999
ssg939
(dp1155
g10
F0.69999999999999996
ssVcom.dongqiudi.news
p1156
(dp1157
g10
F3
ssVcom.UCMobile
p1158
(dp1159
g10
F10
ssVcom.android.notepad
p1160
(dp1161
g10
I1
ssg891
(dp1162
g10
I1
ssg41
(dp1163
g10
F0.40000000000000002
ssVcom.android.contacts
p1164
(dp1165
g10
F8.3000000000000007
ssVcom.zhihu.android
p1166
(dp1167
g10
F0.69999999999999996
ssg424
(dp1168
g10
F3.8999999999999999
ssg53
(dp1169
g10
F1.3
ssg877
(dp1170
g10
F0.90000000000000002
ssVcom.android.gallery3d
p1171
(dp1172
g10
F0.90000000000000002
ssg349
(dp1173
g10
I1
ssVcom.android.phone
p1174
(dp1175
g10
F0.90000000000000002
ssg273
(dp1176
g10
F13.200000000000001
ssVcom.android.settings
p1177
(dp1178
g10
F6.8000000000000007
ssVcom.netease.cloudmusic
p1179
(dp1180
g10
I1
ssVcom.huawei.lcagent
p1181
(dp1182
g10
F0.90000000000000002
ssg121
(dp1183
g10
F1.8999999999999999
ssg959
(dp1184
g10
F21.799999999999997
ssg873
(dp1185
g10
F2.7000000000000002
ssVcom.android.camera
p1186
(dp1187
g10
F2.7000000000000002
sssg113
(dp1188
Vcom.android.contacts
p1189
(dp1190
g10
I1
ssVcom.android.phone
p1191
(dp1192
g10
F1.8999999999999999
sssg115
(dp1193
Vcom.baidu.input_huawei
p1194
(dp1195
g10
F0.90000000000000002
ssVcom.tencent.mobileqq
p1196
(dp1197
g10
I1
ssVcom.tencent.mm
p1198
(dp1199
g10
F2.8999999999999999
ssVcom.android.contacts
p1200
(dp1201
g10
F1.7
ssg343
(dp1202
g10
F2.2999999999999998
sssg117
(dp1203
Vcom.netease.newsreader.activity
p1204
(dp1205
g10
I1
ssVcom.tencent.mm
p1206
(dp1207
g10
I3
ssVcom.aquila.bible
p1208
(dp1209
g10
F1.7
ssVcom.dongqiudi.news
p1210
(dp1211
g10
I1
ssVcom.android.contacts
p1212
(dp1213
g10
I1
sssg119
(dp1214
g649
(dp1215
g10
I1
ssVcom.android.contacts
p1216
(dp1217
g10
F2.1000000000000001
ssVcom.android.browser
p1218
(dp1219
g10
F2.2999999999999998
sssg121
(dp1220
g17
(dp1221
g10
F0.90000000000000002
ssVcom.tencent.mm
p1222
(dp1223
g10
F8.6000000000000014
ssVcom.android.gallery3d
p1224
(dp1225
g10
I1
ssVcom.dongqiudi.news
p1226
(dp1227
g10
I1
ssVcom.UCMobile
p1228
(dp1229
g10
F1.3
ssVcom.android.settings
p1230
(dp1231
g10
I1
ssVcom.android.camera
p1232
(dp1233
g10
F0.90000000000000002
ssVcom.tencent.mobileqq
p1234
(dp1235
g10
F10.1
ssVcom.android.contacts
p1236
(dp1237
g10
F3.8999999999999999
sssg123
(dp1238
g8
(dp1239
g10
F3.4999999999999996
ssg11
(dp1240
g10
F3.7999999999999998
ssg326
(dp1241
g10
F1.3
ssg17
(dp1242
g10
F8.6000000000000014
ssg61
(dp1243
g10
F25.79999999999999
ssVcom.android.thememanager
p1244
(dp1245
g10
F4.4000000000000004
ssg23
(dp1246
g10
F4.9000000000000004
ssVcom.android.deskclock
p1247
(dp1248
g10
F5.7000000000000002
ssg27
(dp1249
g10
F289.99999999999977
ssg33
(dp1250
g10
F5.4000000000000004
ssg37
(dp1251
g10
F9.0999999999999996
ssg39
(dp1252
g10
F14.399999999999999
ssg41
(dp1253
g10
F10.9
ssg43
(dp1254
g10
F19.499999999999993
ssg45
(dp1255
g10
F131.40000000000015
ssVcom.eg.android.AlipayGphone
p1256
(dp1257
g10
F9.0000000000000018
ssg49
(dp1258
g10
F3.4000000000000004
ssVcom.aquila.bible
p1259
(dp1260
g10
F69.699999999999989
ssg464
(dp1261
g10
F2.6000000000000001
ssg143
(dp1262
g10
F3
ssg176
(dp1263
g10
F2.7000000000000002
ssVcom.lofter.android
p1264
(dp1265
g10
I3
ssg15
(dp1266
g10
F5.7999999999999998
ssg125
(dp1267
g10
F1.3
ssg71
(dp1268
g10
F2.1000000000000001
ssg73
(dp1269
g10
I1
ssg75
(dp1270
g10
F5
ssVcom.android.phone
p1271
(dp1272
g10
F18.199999999999999
ssVcom.tencent.mobileqq
p1273
(dp1274
g10
F558.79999999999791
ssVcom.netease.cloudmusic
p1275
(dp1276
g10
F16.199999999999999
ssg31
(dp1277
g10
F6.4000000000000004
ssg91
(dp1278
g10
F3.8999999999999999
ssg93
(dp1279
g10
F4.2999999999999998
ssg251
(dp1280
g10
F19.299999999999997
ssg99
(dp1281
g10
F1.3999999999999999
ssVcom.netease.newsreader.activity
p1282
(dp1283
g10
F58.299999999999997
ssVcom.dongqiudi.news
p1284
(dp1285
g10
F106.00000000000007
ssg914
(dp1286
g10
F5.7000000000000002
ssg107
(dp1287
g10
F11.900000000000002
ssg109
(dp1288
g10
I1
ssVcom.huawei.health
p1289
(dp1290
g10
F32.199999999999996
ssg115
(dp1291
g10
F1.3999999999999999
ssVcom.huawei.vassistant
p1292
(dp1293
g10
F4.7000000000000002
ssg119
(dp1294
g10
F0.40000000000000002
ssVcom.android.calendar
p1295
(dp1296
g10
F8.3000000000000007
ssVcom.android.settings
p1297
(dp1298
g10
F47.399999999999991
ssg1088
(dp1299
g10
F19.699999999999999
ssg867
(dp1300
g10
F0.90000000000000002
ssVcom.iflytek.cmcc
p1301
(dp1302
g10
I1
ssg381
(dp1303
g10
F10.000000000000002
ssg135
(dp1304
g10
I2
ssg137
(dp1305
g10
F59.800000000000004
ssg873
(dp1306
g10
F31.499999999999986
ssg875
(dp1307
g10
F29.199999999999996
ssg391
(dp1308
g10
F4.0999999999999996
sssg125
(dp1309
Vcom.tencent.mobileqq
p1310
(dp1311
g10
I1
ssVcom.dongqiudi.news
p1312
(dp1313
g10
F1.8999999999999999
sssg127
(dp1314
Vcom.android.settings
p1315
(dp1316
g10
F1.7
ssVcom.android.thememanager
p1317
(dp1318
g10
F1.3
sssg129
(dp1319
g1042
(dp1320
g10
F1.3
ssg622
(dp1321
g10
F0.80000000000000004
ssVcom.tencent.mobileqq
p1322
(dp1323
g10
F3.5999999999999996
ssVcom.taobao.taobao
p1324
(dp1325
g10
F3
ssg852
(dp1326
g10
F6.1000000000000005
ssg628
(dp1327
g10
F1.8
ssg141
(dp1328
g10
F1.7
ssVcom.tencent.mm
p1329
(dp1330
g10
F4.5
ssVcom.huawei.health
p1331
(dp1332
g10
I1
sssg131
(dp1333
Vcom.tencent.mm
p1334
(dp1335
g10
I1
sssg133
(dp1336
g324
(dp1337
g10
F0.40000000000000002
ssVcom.tencent.mm
p1338
(dp1339
g10
F10.799999999999999
ssVcom.huawei.health
p1340
(dp1341
g10
F0.69999999999999996
ssVcom.UCMobile
p1342
(dp1343
g10
F3.5
ssVcom.tencent.mobileqq
p1344
(dp1345
g10
F5.7000000000000011
ssVcom.android.contacts
p1346
(dp1347
g10
I1
sssg135
(dp1348
Vcom.UCMobile
p1349
(dp1350
g10
I1
ssVcom.tencent.mm
p1351
(dp1352
g10
I1
sssg137
(dp1353
Vcom.tencent.mm
p1354
(dp1355
g10
F54
ssg131
(dp1356
g10
F1.3
ssVcom.android.gallery3d
p1357
(dp1358
g10
F4.2999999999999998
ssVcom.UCMobile
p1359
(dp1360
g10
F21.799999999999994
ssg533
(dp1361
g10
F0.90000000000000002
ssg83
(dp1362
g10
F5
ssVcom.sina.weibo
p1363
(dp1364
g10
F4.7999999999999998
sssg139
(dp1365
Vcom.handsgo.jiakao.android
p1366
(dp1367
g10
I1
ssg103
(dp1368
g10
F3.8999999999999999
ssVcom.android.deskclock
p1369
(dp1370
g10
F1.7
ssVcom.UCMobile
p1371
(dp1372
g10
F1.8999999999999999
ssg29
(dp1373
g10
I1
ssVcom.android.contacts
p1374
(dp1375
g10
F2
ssg75
(dp1376
g10
I1
ssg49
(dp1377
g10
F1.7
ssg97
(dp1378
g10
F1.3
ssg53
(dp1379
g10
I1
ssg898
(dp1380
g10
F1.3999999999999999
ssVcom.tencent.mm
p1381
(dp1382
g10
F20.300000000000001
ssg1282
(dp1383
g10
F0.90000000000000002
ssg798
(dp1384
g10
F4.1000000000000005
ssg626
(dp1385
g10
F2.7000000000000002
ssg1322
(dp1386
g10
F6.1000000000000005
ssg115
(dp1387
g10
F1.7
ssg635
(dp1388
g10
F8.8000000000000007
ssg129
(dp1389
g10
I2
ssg57
(dp1390
g10
F19.699999999999999
ssg63
(dp1391
g10
I1
ssVcom.baidu.tieba
p1392
(dp1393
g10
F1.1000000000000001
sssg141
(dp1394
Vcom.android.thememanager
p1395
(dp1396
g10
F1.6000000000000001
ssVcom.huawei.android.FMRadio
p1397
(dp1398
g10
I1
ssg1044
(dp1399
g10
F10.699999999999998
ssVcom.android.phone
p1400
(dp1401
g10
I2
ssg826
(dp1402
g10
F16.899999999999999
ssVcom.taobao.taobao
p1403
(dp1404
g10
F1.7
ssVcom.liulishuo.engzo
p1405
(dp1406
g10
F3.6000000000000001
ssg206
(dp1407
g10
F0.90000000000000002
ssVcom.android.fileexplorer
p1408
(dp1409
g10
F1.3
ssg683
(dp1410
g10
F0.40000000000000002
ssVcom.dongqiudi.news
p1411
(dp1412
g10
I1
ssVcom.android.settings
p1413
(dp1414
g10
F3.1999999999999997
ssVcom.huawei.health
p1415
(dp1416
g10
I2
ssVcom.tencent.mm
p1417
(dp1418
g10
F21.799999999999997
ssVcom.android.contacts
p1419
(dp1420
g10
I1
sssg143
(dp1421
Vcom.huawei.android.internal.app
p1422
(dp1423
g10
F0.90000000000000002
ssVcom.UCMobile
p1424
(dp1425
g10
I1
ssVcom.tencent.mm
p1426
(dp1427
g10
F2.1000000000000001
ssssS'edge'
p1428
g149
sS'graph'
p1429
(dp1430
sS'adjlist_dict_factory'
p1431
g146
sS'adj'
p1432
g149
sS'pred'
p1433
(dp1434
g8
(dp1435
g119
g1219
sVcom.android.settings
p1436
g881
sg391
g648
sVcom.huawei.health
p1437
g1154
sVcom.UCMobile
p1438
g323
sVcom.lofter.android
p1439
g707
sg511
g423
sg93
g985
sVcom.tencent.mm
p1440
g1239
sg45
g500
sg516
g563
ssg11
(dp1441
Vcom.aquila.bible
p1442
g588
sg1179
g940
sVcom.example.chinesechess.huawei
p1443
g1009
sg947
g1127
sg33
g405
sVcom.android.camera
p1444
g1398
sg613
g1240
sVcom.huawei.health
p1445
g1155
ssg13
(dp1446
Vcom.UCMobile
p1447
g327
sVcom.aquila.bible
p1448
g589
sVcom.tencent.mm
p1449
g1241
sVcom.tencent.mobileqq
p1450
g818
sVcom.android.settings
p1451
g883
ssg15
(dp1452
g200
g1048
sVcom.tencent.mm
p1453
g1266
sVcom.dongqiudi.news
p1454
g258
sVcom.android.contacts
p1455
g524
sVcom.UCMobile
p1456
g350
sVcom.netease.newsreader.activity
p1457
g1073
sVcom.huawei.lcagent
p1458
g1114
sVcom.android.camera
p1459
g1404
sg204
g1325
sVcom.tencent.mobileqq
p1460
g830
sVcom.huawei.health
p1461
g1173
ssg17
(dp1462
Vcom.android.calendar
p1463
g1221
sVcom.tencent.mobileqq
p1464
g796
sg1222
g1242
sVcom.sirma.mobile.bible.android
p1465
g759
sVcom.huawei.appmarket
p1466
g1367
ssg19
(dp1467
g51
g597
sg939
g177
sg843
g946
sVcom.tencent.mobileqq
p1468
g797
sg41
g463
sg959
g1263
ssg21
(dp1469
Vcom.baidu.BaiduMap
p1470
g1132
sg362
g600
sVcom.huawei.android.FMRadio
p1471
g179
sVcom.huawei.vassistant
p1472
g1211
sVcom.netease.cloudmusic
p1473
g950
sg862
g1227
sg645
g799
sVcom.android.phone
p1474
g772
sVorg.wikipedia
p1475
g1313
sg828
g717
sVcom.huawei.health
p1476
g1157
sg243
g329
sg1282
g1058
sVcom.example.chinesechess.huawei
p1477
g1019
sVcom.huawei.appmarket
p1478
g1384
sVcom.android.camera
p1479
g1412
sVcom.tencent.mm
p1480
g1285
sVcom.android.contacts
p1481
g536
sVcom.sirma.mobile.bible.android
p1482
g757
sVcom.android.settings
p1483
g913
ssg23
(dp1484
Vcom.android.deskclock
p1485
g302
sVcom.tencent.mobileqq
p1486
g864
sVcom.android.gallery3d
p1487
g694
sVcom.tencent.mm
p1488
g1246
sVcom.huawei.hidisk
p1489
g738
ssg25
(dp1490
Vcom.example.chinesechess.huawei
p1491
g1023
sVcom.tencent.mobileqq
p1492
g802
sg1403
g207
sVcom.UCMobile
p1493
g331
sVcom.snda.wifilocating
p1494
g409
sVcom.dongqiudi.news
p1495
g242
sVcom.huawei.appmarket
p1496
g1370
sg1459
g1407
sVcom.tencent.mm
p1497
g1248
ssg27
(dp1498
Vcom.android.browser
p1499
g162
sg326
g198
sVcom.handsgo.jiakao.android
p1500
g228
sg535
g244
sVcom.android.deskclock
p1501
g314
sg989
g411
sVcom.taobao.taobao
p1502
g209
sg39
g448
sVcom.sina.weibo
p1503
g475
sg982
g508
sg1259
g602
sg143
g1425
sg1357
g661
sg135
g1350
sg65
g724
sg67
g729
sVcom.android.phone
p1504
g776
sg81
g803
sg619
g886
sVcom.netease.cloudmusic
p1505
g952
sVcom.android.calculator
p1506
g979
sg123
g1249
sVcom.example.chinesechess.huawei
p1507
g1012
sVcom.netease.newsreader.activity
p1508
g1060
sg368
g1116
sg271
g1159
sg865
g1343
sg23
g291
sVcom.baidu.BaiduMap
p1509
g1134
sVcom.android.calendar
p1510
g1229
sg383
g711
sg137
g1360
sVcom.huawei.appmarket
p1511
g1372
ssg29
(dp1512
Vcom.android.settings
p1513
g887
sVcom.huawei.appmarket
p1514
g1373
ssg31
(dp1515
g1499
g151
sVcom.example.chinesechess.huawei
p1516
g1007
sVcom.tencent.mobileqq
p1517
g820
sVcom.dongqiudi.news
p1518
g250
sg1340
g1167
sg161
g357
sVcom.netease.newsreader.activity
p1519
g1068
sVcom.tencent.mm
p1520
g1277
sVcom.android.contacts
p1521
g518
ssg33
(dp1522
g1442
g605
sVcom.android.settings
p1523
g889
sVcom.UCMobile
p1524
g333
sVcom.netease.newsreader.activity
p1525
g1062
sg412
g1118
sVcom.zms.android
p1526
g990
sg613
g1250
sVcom.android.contacts
p1527
g510
sVcom.tencent.mobileqq
p1528
g805
ssg35
(dp1529
g549
g890
ssg37
(dp1530
g424
g609
sVcom.huawei.android.FMRadio
p1531
g182
sVcom.UCMobile
p1532
g335
sVcom.tencent.mobileqq
p1533
g794
sg428
g663
sVcom.example.chinesechess.huawei
p1534
g1010
sVcom.android.contacts
p1535
g512
sg99
g1052
sVcom.tencent.mm
p1536
g1251
sg435
g1161
ssg39
(dp1537
Vorg.hbrchina
p1538
g582
sVcom.example.chinesechess.huawei
p1539
g1032
sVcom.huawei.hidisk
p1540
g741
sg1503
g492
sg824
g1423
sg481
g664
sVcom.aquila.bible
p1541
g612
sVcom.android.contacts
p1542
g513
sVcom.UCMobile
p1543
g337
sVcom.netease.newsreader.activity
p1544
g1063
sg1030
g892
sVcom.android.mediacenter
p1545
g468
sg123
g1252
sg1020
g1162
sg815
g575
sg81
g808
ssg41
(dp1546
g939
g185
sg1179
g958
sVcom.tencent.mobileqq
p1547
g810
sg176
g237
sVcom.android.contacts
p1548
g515
sg464
g743
sg71
g747
sVcom.zms.android
p1549
g994
sVcom.android.gallery3d
p1550
g666
sg959
g1253
sg1445
g1163
ssg43
(dp1551
Vcom.tencent.mm
p1552
g1254
sg481
g668
sg1057
g245
sVcom.UCMobile
p1553
g340
sg1282
g1064
sVcom.baidu.tieba
p1554
g1364
sVcom.tencent.mobileqq
p1555
g812
ssg45
(dp1556
g8
g170
sVcom.huawei.android.FMRadio
p1557
g189
sg21
g247
sg79
g791
sVcom.android.deskclock
p1558
g312
sVcom.UCMobile
p1559
g342
sg35
g420
sg85
g936
sVcom.sina.weibo
p1560
g496
sg516
g579
sVcom.huawei.android.totemweather
p1561
g299
sVcom.example.chinesechess.huawei
p1562
g1038
sVcom.android.gallery3d
p1563
g670
sVcom.taobao.taobao
p1564
g217
sg77
g786
sg1440
g1255
sg1506
g983
sg95
g1004
sVcom.netease.newsreader.activity
p1565
g1066
sVcom.android.thememanager
p1566
g1105
sg109
g1149
sg111
g1165
sVcom.rrh.jdb
p1567
g1190
sVcom.tencent.mobileqq
p1568
g814
sg541
g1201
sg543
g1213
sVcom.qw.android
p1569
g1217
sg121
g1237
sg701
g894
sVcom.baidu.BaiduMap
p1570
g1142
sVcom.baidu.input_huawei
p1571
g1347
sVcom.huawei.appmarket
p1572
g1375
sVcom.android.camera
p1573
g1420
ssg47
(dp1574
g371
g1202
sVcom.aquila.bible
p1575
g618
sg590
g963
sVcom.tencent.mm
p1576
g1257
sVcom.example.chinesechess.huawei
p1577
g1040
sVcom.UCMobile
p1578
g344
sVcom.android.phone
p1579
g788
sg574
g457
sVcom.tencent.mobileqq
p1580
g816
sVcom.android.contacts
p1581
g517
ssg49
(dp1582
Vcom.tencent.mm
p1583
g1258
sg1553
g345
sg489
g1377
sg581
g439
sg339
g472
sVcom.tencent.mobileqq
p1584
g846
ssg51
(dp1585
Vcom.android.deskclock
p1586
g304
sVcom.netease.mobimail
p1587
g934
sg843
g938
sVcom.android.calculator
p1588
g974
sg1468
g821
sg1135
g762
sg19
g231
sVcom.baidu.BaiduMap
p1589
g1125
sVcom.dongqiudi.news
p1590
g266
sg67
g731
sg1292
g1209
sg728
g363
sVcom.lofter.android
p1591
g709
sg37
g425
sVcom.android.settings
p1592
g896
sVcom.netease.newsreader.activity
p1593
g1082
sg611
g441
sVcom.tencent.mm
p1594
g1260
sg435
g1168
sVcom.sirma.mobile.bible.android
p1595
g753
sg326
g194
ssg53
(dp1596
g1405
g1320
sg1408
g1043
sg873
g1379
sVcom.tencent.mobileqq
p1597
g822
sVcom.huawei.health
p1598
g1169
sg47
g565
ssg55
(dp1599
Vcom.huawei.android.internal.app
p1600
g447
sVcom.UCMobile
p1601
g338
sVcom.tencent.mobileqq
p1602
g823
ssg57
(dp1603
g97
g1025
sg1042
g623
sVcom.netease.cloudmusic
p1604
g942
sg525
g739
sVcom.android.settings
p1605
g925
sg43
g484
sVcom.tencent.mm
p1606
g1303
sVcom.android.gallery3d
p1607
g696
sVcom.android.thememanager
p1608
g1106
sVcom.liulishuo.engzo
p1609
g1321
sg656
g988
sVcom.UCMobile
p1610
g382
sg101
g1093
sVcom.dongqiudi.news
p1611
g280
sg1094
g1390
sVcom.android.email
p1612
g1147
sg1044
g869
sVcom.android.contacts
p1613
g554
ssg59
(dp1614
Vcom.android.browser
p1615
g156
sVcom.android.settings
p1616
g897
sVcom.dongqiudi.news
p1617
g254
sVcom.UCMobile
p1618
g392
sVcom.tencent.mm
p1619
g1308
sVcom.huawei.health
p1620
g1170
sVcom.tencent.mobileqq
p1621
g878
ssg61
(dp1622
g880
g158
sg1500
g224
sVcom.android.thememanager
p1623
g1103
sg27
g348
sg608
g429
sg39
g446
sVcom.sina.weibo
p1624
g482
sVcom.android.contacts
p1625
g522
sVcom.example.chinesechess.huawei
p1626
g1018
sg671
g768
sg377
g1243
sg89
g970
sg99
g1046
sVcom.netease.newsreader.activity
p1627
g1071
sVcom.dongqiudi.news
p1628
g256
sg685
g1112
sVcom.huawei.health
p1629
g1172
sVcom.tencent.mobileqq
p1630
g827
sVcom.android.calendar
p1631
g1225
sVcom.android.settings
p1632
g899
sVcom.lofter.android
p1633
g715
sVcom.baidu.tieba
p1634
g1358
sVcom.huawei.appmarket
p1635
g1380
sg389
g1402
ssg63
(dp1636
g706
g164
sg718
g1051
sVcom.tencent.mobileqq
p1637
g829
sg714
g698
sVcom.UCMobile
p1638
g384
sVcom.huawei.appmarket
p1639
g1391
sg720
g1265
ssg65
(dp1640
sg67
(dp1641
Vcom.tencent.mobileqq
p1642
g831
ssg69
(dp1643
Vcom.tencent.mobileqq
p1644
g833
sg553
g639
sg451
g901
sg467
g443
sg809
g465
sVcom.tencent.mm
p1645
g1261
sg1613
g526
ssg71
(dp1646
g176
g234
sg41
g466
sg939
g180
sg959
g1268
sVcom.tencent.mobileqq
p1647
g835
ssg73
(dp1648
Vcom.tencent.mm
p1649
g1269
ssg75
(dp1650
g752
g607
sVcom.tencent.mm
p1651
g1270
sVcom.dongqiudi.news
p1652
g248
sVcom.UCMobile
p1653
g351
sVcom.huawei.appmarket
p1654
g1376
sg754
g837
ssg77
(dp1655
g1561
g293
sVcom.aquila.bible
p1656
g596
sVcom.tencent.mm
p1657
g1272
sVcom.android.gallery3d
p1658
g672
sg1589
g1136
sVcom.dongqiudi.news
p1659
g260
sVcom.huawei.health
p1660
g1175
sg113
g1192
sVcom.UCMobile
p1661
g361
sVcom.netease.newsreader.activity
p1662
g1075
sg685
g1119
sg841
g903
sVcom.android.camera
p1663
g1401
sVcom.tencent.mobileqq
p1664
g839
sVcom.android.contacts
p1665
g528
ssg79
(dp1666
sg81
(dp1667
g862
g1235
sg1471
g175
sg848
g999
sg1366
g226
sVcom.android.soundrecorder
p1668
g239
sg1156
g274
sVcom.android.deskclock
p1669
g318
sVcom.UCMobile
p1670
g353
sVcom.android.notepad
p1671
g427
sg1422
g445
sg809
g462
sVcom.sina.weibo
p1672
g479
sVcom.android.contacts
p1673
g540
sg1256
g577
sVcom.zhihu.android
p1674
g397
sg1259
g594
sg1017
g690
sVcom.taobao.taobao
p1675
g203
sg69
g736
sg1595
g755
sg902
g784
sVcom.tencent.mm
p1676
g1274
sg1505
g944
sVcom.android.calculator
p1677
g978
sVcom.huawei.appmarket
p1678
g1386
sVcom.example.chinesechess.huawei
p1679
g1016
sg1408
g1045
sVcom.netease.newsreader.activity
p1680
g1086
sVcom.huawei.lcagent
p1681
g1121
sg1476
g1176
sVcom.MobileTicket
p1682
g1197
sVcom.baidu.input_huawei
p1683
g1345
sg23
g287
sg677
g1311
sg107
g1129
sg129
g1323
sg622
g646
sg63
g713
sg763
g904
sg141
g1399
ssg83
(dp1684
g880
g154
sVcom.android.calendar
p1685
g1231
sg13
g192
sVcom.handsgo.jiakao.android
p1686
g220
sg103
g1102
sVcom.UCMobile
p1687
g355
sg989
g407
sg35
g418
sg467
g452
sVcom.sina.weibo
p1688
g498
sg893
g550
sg1539
g1031
sg155
g650
sg898
g702
sVcom.huawei.hidisk
p1689
g740
sg902
g764
sVcom.tencent.mobileqq
p1690
g842
sVcom.netease.cloudmusic
p1691
g965
sg89
g968
sg1526
g987
sg193
g620
sg101
g1090
sVcom.dongqiudi.news
p1692
g278
sVcom.huawei.lcagent
p1693
g1123
sg687
g1178
sg119
g1215
sg127
g1316
sVcom.tencent.mm
p1694
g1298
sVcom.baidu.BaiduMap
p1695
g1144
sg57
g636
sVcom.baidu.tieba
p1696
g1362
sg1094
g1388
sVcom.android.camera
p1697
g1414
ssg85
(dp1698
Vcom.tencent.mobileqq
p1699
g807
ssg87
(dp1700
g1575
g591
sg1468
g844
sg1607
g676
sVcom.dongqiudi.news
p1701
g264
sVcom.android.contacts
p1702
g531
sVcom.UCMobile
p1703
g356
sVcom.netease.newsreader.activity
p1704
g1079
sVcom.android.settings
p1705
g906
sVcom.android.mediacenter
p1706
g460
sVcom.tencent.mm
p1707
g1276
sg1445
g1180
sVcom.eg.android.AlipayGphone
p1708
g567
ssg89
(dp1709
Vcom.android.settings
p1710
g907
sVcom.android.thememanager
p1711
g1099
ssg91
(dp1712
g507
g359
sVcom.tencent.mm
p1713
g1278
sg982
g532
ssg93
(dp1714
g322
g166
sg905
g945
sg1705
g909
sg391
g654
sg1607
g657
sg1438
g352
sVcom.netease.newsreader.activity
p1715
g1080
sg1619
g1279
sVcom.tencent.mobileqq
p1716
g849
ssg95
(dp1717
sg97
(dp1718
g1126
g173
sg1371
g346
sVcom.tencent.mm
p1719
g1280
sg947
g1130
sg1057
g252
sVcom.android.deskclock
p1720
g310
sg1024
g634
sVcom.netease.newsreader.activity
p1721
g1070
sg1511
g1378
sg43
g473
sVcom.android.contacts
p1722
g520
sVcom.tencent.mobileqq
p1723
g851
ssg99
(dp1724
g424
g592
sVcom.tencent.mm
p1725
g1281
sg714
g682
sg1324
g201
sVcom.liulishuo.engzo
p1726
g1326
sg1633
g719
sg608
g430
sg141
g1409
sVcom.tencent.mobileqq
p1727
g853
ssg101
(dp1728
Vcom.zhihu.android
p1729
g403
sg1679
g1027
sg117
g1205
sg1604
g954
sVcom.tencent.mobileqq
p1730
g855
sg1560
g486
sg1017
g684
sVcom.aquila.bible
p1731
g604
sVcom.dongqiudi.news
p1732
g268
sVcom.UCMobile
p1733
g365
sg555
g1361
sVcom.taobao.taobao
p1734
g211
sg1181
g1117
sVcom.huawei.appmarket
p1735
g1383
sg1033
g1410
sVcom.tencent.mm
p1736
g1283
sVcom.android.contacts
p1737
g534
sVcom.eg.android.AlipayGphone
p1738
g573
sVcom.android.settings
p1739
g911
ssg103
(dp1740
Vcom.UCMobile
p1741
g367
sg880
g160
sg89
g971
sg127
g1318
sg635
g884
sg969
g659
sg57
g637
sg1094
g1368
sg1697
g1396
sg1694
g1245
sVcom.android.contacts
p1742
g504
sVcom.tencent.mobileqq
p1743
g857
ssg105
(dp1744
Vcom.example.chinesechess.huawei
p1745
g1029
sg354
g915
sg1658
g686
sVcom.dongqiudi.news
p1746
g270
sVcom.UCMobile
p1747
g369
sVcom.snda.wifilocating
p1748
g413
sg671
g778
sVcom.tencent.mm
p1749
g1286
sVcom.huawei.health
p1750
g1182
ssg107
(dp1751
Vcom.aquila.bible
p1752
g598
sVcom.netease.cloudmusic
p1753
g948
sVcom.tencent.mm
p1754
g1287
sVcom.UCMobile
p1755
g380
sVcom.netease.newsreader.activity
p1756
g1092
sg1135
g770
sVcom.tencent.mobileqq
p1757
g800
sVcom.android.contacts
p1758
g552
sVcom.android.settings
p1759
g923
ssg109
(dp1760
Vcom.tencent.mm
p1761
g1288
ssg111
(dp1762
g328
g272
sg25
g320
sVcom.UCMobile
p1763
g370
sg628
g1385
sg37
g436
sg891
g455
sVcom.android.contacts
p1764
g538
sg1539
g1021
sg1042
g627
sg898
g688
sg838
g774
sVcom.tencent.mm
p1765
g1290
sVcom.netease.cloudmusic
p1766
g962
sVcom.zms.android
p1767
g997
sVcom.aquila.bible
p1768
g616
sVcom.netease.newsreader.activity
p1769
g1084
sg1623
g1108
sg1597
g859
sVcom.baidu.input_huawei
p1770
g1341
sVcom.huawei.android.totemweather
p1771
g289
sVcom.liulishuo.engzo
p1772
g1332
sg622
g644
sVcom.android.settings
p1773
g917
sVcom.android.camera
p1774
g1416
ssg113
(dp1775
Vcom.android.contacts
p1776
g506
ssg115
(dp1777
g1578
g372
sVcom.huawei.hwid
p1778
g632
sVcom.tencent.mm
p1779
g1291
sg1581
g542
sVcom.huawei.appmarket
p1780
g1387
ssg117
(dp1781
Vcom.android.calculator
p1782
g976
sVcom.tencent.mm
p1783
g1293
sVcom.dongqiudi.news
p1784
g276
sVcom.UCMobile
p1785
g374
sVcom.netease.newsreader.activity
p1786
g1087
sVcom.tencent.mobileqq
p1787
g861
sVcom.android.contacts
p1788
g544
ssg119
(dp1789
g1616
g918
sg155
g653
sVcom.tencent.mm
p1790
g1294
sg1216
g546
sg1615
g152
ssg121
(dp1791
Vcom.example.chinesechess.huawei
p1792
g1014
sVcom.baidu.input_huawei
p1793
g1337
sVcom.tencent.mm
p1794
g1296
sVcom.android.gallery3d
p1795
g692
sVcom.android.contacts
p1796
g548
sVcom.android.deskclock
p1797
g306
sVcom.UCMobile
p1798
g325
sVcom.tencent.mobileqq
p1799
g863
sVcom.huawei.health
p1800
g1183
ssg123
(dp1801
g1463
g1223
sVcom.huawei.android.FMRadio
p1802
g187
sg326
g196
sg322
g168
sVcom.android.soundrecorder
p1803
g233
sg1156
g262
sVcom.huawei.android.totemweather
p1804
g297
sg1247
g308
sg27
g378
sVcom.snda.wifilocating
p1805
g415
sVcom.taobao.taobao
p1806
g215
sg37
g434
sg39
g453
sVcom.android.mediacenter
p1807
g470
sg43
g494
sg1065
g530
sg1256
g571
sg49
g584
sg1442
g614
sVcom.mojang.minecraftpe
p1808
g625
sg59
g652
sg1500
g222
sg428
g674
sVcom.android.keyguard
p1809
g1352
sg65
g726
sg67
g733
sg1689
g745
sg1465
g751
sg165
g995
sg81
g840
sg1179
g960
sVcom.zhihu.android
p1810
g401
sVcom.android.calculator
p1811
g981
sg1135
g766
sg95
g1002
sg251
g1036
sg99
g1055
sVcom.netease.newsreader.activity
p1812
g1077
sg105
g1111
sVcom.iflytek.cmcc
p1813
g1335
sg1445
g1184
sg115
g1199
sg1292
g1207
sg133
g1339
sg354
g921
sg107
g1140
sg1726
g1330
sg381
g643
sVcom.lofter.android
p1814
g721
sg1392
g1355
sVcom.huawei.appmarket
p1815
g1382
sVcom.android.camera
p1816
g1418
sg824
g1427
ssg125
(dp1817
g819
g395
sVcom.android.settings
p1818
g908
sVcom.tencent.mm
p1819
g1267
sVcom.android.gallery3d
p1820
g678
sVcom.tencent.mobileqq
p1821
g847
sVcom.eg.android.AlipayGphone
p1822
g569
ssg127
(dp1823
g635
g919
sg103
g1100
ssg129
(dp1824
g1329
g1300
sVcom.taobao.taobao
p1825
g205
sVcom.android.fileexplorer
p1826
g1050
sg1678
g1389
sg141
g1406
sg1727
g868
ssg131
(dp1827
Vcom.sina.weibo
p1828
g480
sVcom.tencent.mm
p1829
g1302
sg487
g1356
ssg133
(dp1830
Vcom.MobileTicket
p1831
g1195
sVcom.tencent.mobileqq
p1832
g866
sVcom.tencent.mm
p1833
g1299
sVcom.UCMobile
p1834
g376
sVcom.netease.newsreader.activity
p1835
g1089
sVcom.sina.weibo
p1836
g477
sVcom.android.contacts
p1837
g502
ssg135
(dp1838
Vcom.zhihu.android
p1839
g399
sVcom.android.settings
p1840
g927
sVcom.tencent.mm
p1841
g1304
sVcom.tencent.mobileqq
p1842
g871
ssg137
(dp1843
Vcom.android.settings
p1844
g929
sg1363
g488
sg1357
g700
sg1359
g386
sVcom.huawei.appmarket
p1845
g1393
sg491
g450
sVcom.tencent.mm
p1846
g1305
sg1737
g556
sVcom.tencent.mobileqq
p1847
g872
ssg139
(dp1848
g656
g992
sg19
g235
sg1608
g1107
sg1369
g316
sg1610
g388
sg339
g490
sVcom.android.contacts
p1849
g558
sg49
g586
sg51
g610
sg1042
g629
sVcom.android.gallery3d
p1850
g680
sg838
g780
sg1597
g874
sg843
g955
sVcom.tencent.mm
p1851
g1306
sg1408
g1053
sg101
g1095
sg1611
g282
sg1612
g1151
sg1598
g1185
sVcom.android.settings
p1852
g931
sg1609
g1327
sg57
g641
ssg141
(dp1853
g1626
g1034
sVcom.huawei.android.FMRadio
p1854
g184
sVcom.netease.cloudmusic
p1855
g957
sg1826
g1054
sg1631
g1233
sVcom.tencent.mobileqq
p1856
g876
sVcom.android.phone
p1857
g782
sVcom.android.gallery3d
p1858
g704
sVcom.baidu.BaiduMap
p1859
g1138
sVcom.dongqiudi.news
p1860
g284
sVcom.liulishuo.engzo
p1861
g1328
sVcom.UCMobile
p1862
g390
sVcom.netease.newsreader.activity
p1863
g1097
sg1825
g213
sVcom.android.notepad
p1864
g432
sVcom.huawei.android.totemweather
p1865
g295
sg1629
g1187
sVcom.tencent.mm
p1866
g1307
sVcom.android.contacts
p1867
g560
ssg143
(dp1868
Vcom.UCMobile
p1869
g347
sVcom.tencent.mm
p1870
g1262
sVcom.tencent.mobileqq
p1871
g825
sssb.