ccopy_reg
_reconstructor
p1
(cnetworkx.classes.digraph
DiGraph
p2
c__builtin__
object
p3
NtRp4
(dp5
S'node'
p6
(dp7
Vcom.android.browser
p8
(dp9
S'weight'
p10
F0.042177774153590468
ssVcom.suning.mobile.ebuy
p11
(dp12
g10
F0.012953880922148574
ssVcom.autonavi.minimap
p13
(dp14
g10
F0.0020696698235926829
ssVcom.soufun.app
p15
(dp16
g10
F0.0037238524593346768
ssVcom.sdu.didi.psnger
p17
(dp18
g10
F0.0062633722804033721
ssVcom.android.deskclock
p19
(dp20
g10
F0.0021783954428433302
ssVcom.UCMobile
p21
(dp22
g10
F0.02116266517557246
ssVcom.eg.android.AlipayGphone
p23
(dp24
g10
F0.14814642234466799
ssVcom.wacai365
p25
(dp26
g10
F0.00055139421191399804
ssVcom.miui.weather2
p27
(dp28
g10
F5.4362809625323752e-05
ssVcom.miui.cleanmaster
p29
(dp30
g10
F0.00010484256142026723
ssVme.ele
p31
(dp32
g10
F0.00074166404560263111
ssVcom.android.gamecenter
p33
(dp34
g10
F0.0053081400541298259
ssVcom.android.phone
p35
(dp36
g10
F0.030804297768406666
ssVcn.com.sina.sports
p37
(dp38
g10
F0.014355664798915851
ssVcom.suning.snmessenger
p39
(dp40
g10
F0.010359998291454555
ssVcom.miui.gallery
p41
(dp42
g10
F0.0078942565691630853
ssVcom.tencent.mm
p43
(dp44
g10
F0.15428553677449919
ssVcom.miui.antispam
p45
(dp46
g10
F3.8830578303802677e-06
ssVcom.sankuai.meituan.takeoutnew
p47
(dp48
g10
F0.01014254705295326
ssVqsbk.app
p49
(dp50
g10
F0.0058012883985881199
ssVandroid.zhibo8
p51
(dp52
g10
F0.020300626337228039
ssVcom.kugou.android
p53
(dp54
g10
F0.0054828776564969381
ssVcom.yipiao
p55
(dp56
g10
F0.0009785305732558276
ssVcom.xiaomi.market
p57
(dp58
g10
F0.00013979008189368965
ssVcom.android.fileexplorer
p59
(dp60
g10
F0.0064342268249401036
ssVcom.tencent.qqlive
p61
(dp62
g10
F0.065413992210585997
ssVcom.miui.yellowpage
p63
(dp64
g10
F2.7181404812661876e-05
ssVcom.funcity.taxi.passenger
p65
(dp66
g10
F0.0042247669194537315
ssVcom.duokan.reader
p67
(dp68
g10
F0.0093931168916898677
ssVcom.tencent.mobileqq
p69
(dp70
g10
F0.015481751569726128
ssVcom.miui.player
p71
(dp72
g10
F0.001378485529784995
ssVcom.android.settings
p73
(dp74
g10
F0.00039607189869878733
ssVcom.android.mms
p75
(dp76
g10
F0.0093931168916898677
ssVcom.miui.video
p77
(dp78
g10
F2.7181404812661876e-05
ssVcmb.pb
p79
(dp80
g10
F0.00023298346982281607
ssVcom.cnvcs.xiangqi
p81
(dp82
g10
F0.3768274640914227
ssVcom.android.quicksearchbox
p83
(dp84
g10
F4.6596693964563215e-05
ssVcom.android.camera
p85
(dp86
g10
F0.0047373305530639268
sssS'node_dict_factory'
p87
c__builtin__
dict
p88
sS'edge_attr_dict_factory'
p89
g88
sS'succ'
p90
(dp91
g8
(dp92
Vqsbk.app
p93
(dp94
g10
F1.8999999999999999
ssVcom.tencent.qqlive
p95
(dp96
g10
F1.7
ssg13
(dp97
g10
I2
ssVandroid.zhibo8
p98
(dp99
g10
F1.3
ssg17
(dp100
g10
I1
ssVcom.UCMobile
p101
(dp102
g10
F1.7
ssg55
(dp103
g10
I1
ssVcom.cnvcs.xiangqi
p104
(dp105
g10
F8.5
ssVcom.android.phone
p106
(dp107
g10
F1.7
ssVcn.com.sina.sports
p108
(dp109
g10
I1
ssVcom.android.camera
p110
(dp111
g10
F1.7
ssVcom.sankuai.meituan.takeoutnew
p112
(dp113
g10
F1.3
ssVcom.tencent.mm
p114
(dp115
g10
F6.4000000000000004
ssVcom.android.settings
p116
(dp117
g10
F2.6000000000000001
sssg11
(dp118
Vcom.android.camera
p119
(dp120
g10
F0.90000000000000002
ssVcom.tencent.mm
p121
(dp122
g10
F1.7
ssVcom.tencent.mobileqq
p123
(dp124
g10
I1
sssg13
(dp125
Vcom.android.browser
p126
(dp127
g10
F1.7
ssVcom.android.settings
p128
(dp129
g10
F0.90000000000000002
ssg114
(dp130
g10
F1.6000000000000001
ssg81
(dp131
g10
I1
ssg85
(dp132
g10
I2
sssg15
(dp133
Vcom.tencent.qqlive
p134
(dp135
g10
I1
sssg17
(dp136
Vcom.android.settings
p137
(dp138
g10
I1
ssg65
(dp139
g10
F1.8999999999999999
ssVcom.android.mms
p140
(dp141
g10
I1
ssVcom.autonavi.minimap
p142
(dp143
g10
I1
sssg19
(dp144
Vcom.android.browser
p145
(dp146
g10
F1.8999999999999999
ssVcom.cnvcs.xiangqi
p147
(dp148
g10
F1.1000000000000001
ssVcom.android.settings
p149
(dp150
g10
I1
ssVcom.android.mms
p151
(dp152
g10
F0.90000000000000002
ssg95
(dp153
g10
F0.90000000000000002
ssVcom.android.phone
p154
(dp155
g10
I1
ssg110
(dp156
g10
F0.69999999999999996
ssVcom.tencent.mm
p157
(dp158
g10
F1.3999999999999999
sssg21
(dp159
Vcom.android.deskclock
p160
(dp161
g10
I1
ssVandroid.zhibo8
p162
(dp163
g10
F5.7000000000000002
ssVcom.tencent.qqlive
p164
(dp165
g10
F2
sssg23
(dp166
g79
(dp167
g10
I1
ssVcom.android.settings
p168
(dp169
g10
F1.3
ssg43
(dp170
g10
F3.5
ssVcom.android.mms
p171
(dp172
g10
F6
ssVcom.sankuai.meituan.takeoutnew
p173
(dp174
g10
F3.0999999999999996
sssg25
(dp175
Vcom.android.phone
p176
(dp177
g10
I1
sssg27
(dp178
g83
(dp179
g10
F0.40000000000000002
ssVcom.autonavi.minimap
p180
(dp181
g10
I1
ssg81
(dp182
g10
F0.90000000000000002
ssVcom.android.phone
p183
(dp184
g10
F2.5999999999999996
sssg29
(dp185
Vcom.android.fileexplorer
p186
(dp187
g10
F1.7
ssVcom.miui.gallery
p188
(dp189
g10
F1.3
sssg31
(dp190
g73
(dp191
g10
F2.1000000000000001
ssg69
(dp192
g10
I1
ssg75
(dp193
g10
F1.3
ssg23
(dp194
g10
F0.90000000000000002
ssg47
(dp195
g10
F2.0999999999999996
sssg33
(dp196
Vcom.tencent.mm
p197
(dp198
g10
I1
sssg35
(dp199
Vcom.android.browser
p200
(dp201
g10
F2.7000000000000002
ssVqsbk.app
p202
(dp203
g10
F0.69999999999999996
ssVcom.miui.weather2
p204
(dp205
g10
F0.90000000000000002
ssVcom.cnvcs.xiangqi
p206
(dp207
g10
F1.8999999999999999
ssVcom.android.settings
p208
(dp209
g10
I4
ssVcom.android.mms
p210
(dp211
g10
F2.5
ssg55
(dp212
g10
F0.90000000000000002
ssVcn.com.sina.sports
p213
(dp214
g10
F0.90000000000000002
ssVcom.tencent.mobileqq
p215
(dp216
g10
F1.8999999999999999
ssVcom.tencent.qqlive
p217
(dp218
g10
F2.1000000000000001
ssg63
(dp219
g10
I1
ssg83
(dp220
g10
F3.5
ssVcom.android.camera
p221
(dp222
g10
I1
ssg41
(dp223
g10
F0.90000000000000002
ssVcom.tencent.mm
p224
(dp225
g10
F10.299999999999999
ssg45
(dp226
g10
I1
ssVcom.sankuai.meituan.takeoutnew
p227
(dp228
g10
F3.7000000000000002
sssg37
(dp229
Vcom.UCMobile
p230
(dp231
g10
F0.90000000000000002
ssVcom.cnvcs.xiangqi
p232
(dp233
g10
F3.2999999999999998
ssVandroid.zhibo8
p234
(dp235
g10
F2.7000000000000002
ssVcom.tencent.qqlive
p236
(dp237
g10
F0.90000000000000002
ssVcom.android.browser
p238
(dp239
g10
I1
sssg39
(dp240
Vcom.android.quicksearchbox
p241
(dp242
g10
I1
ssVcom.tencent.mm
p243
(dp244
g10
F0.90000000000000002
ssVcom.tencent.mobileqq
p245
(dp246
g10
I1
sssg41
(dp247
Vcom.miui.cleanmaster
p248
(dp249
g10
F1.3
ssVcom.android.camera
p250
(dp251
g10
F6.2999999999999998
ssVcom.tencent.mm
p252
(dp253
g10
F3.8999999999999999
ssVcom.android.fileexplorer
p254
(dp255
g10
F2.7000000000000002
ssVcom.android.browser
p256
(dp257
g10
F1.8999999999999999
sssg43
(dp258
g8
(dp259
g10
F14.100000000000001
ssg93
(dp260
g10
F0.90000000000000002
ssg204
(dp261
g10
F1.7
ssg61
(dp262
g10
F4.0999999999999996
ssg13
(dp263
g10
F1.3
ssVcom.android.phone
p264
(dp265
g10
F21.699999999999996
ssVcom.android.mms
p266
(dp267
g10
F6.4000000000000012
ssg39
(dp268
g10
I1
ssVandroid.zhibo8
p269
(dp270
g10
F4.7999999999999998
ssg63
(dp271
g10
F0.90000000000000002
ssVcom.xiaomi.market
p272
(dp273
g10
I1
ssVcom.cnvcs.xiangqi
p274
(dp275
g10
F14.800000000000001
ssVcom.android.settings
p276
(dp277
g10
F13.1
ssg37
(dp278
g10
I1
ssg119
(dp279
g10
F5.2000000000000002
ssVcom.miui.gallery
p280
(dp281
g10
F1.6000000000000001
ssg215
(dp282
g10
F0.69999999999999996
ssVcom.eg.android.AlipayGphone
p283
(dp284
g10
F7.4000000000000004
ssVcom.sankuai.meituan.takeoutnew
p285
(dp286
g10
F8.4000000000000004
sssg45
(dp287
g213
(dp288
g10
I1
ssg238
(dp289
g10
F0.90000000000000002
sssg47
(dp290
g168
(dp291
g10
F7.1000000000000005
ssg43
(dp292
g10
F7.6000000000000005
ssg266
(dp293
g10
F2.6000000000000001
ssg23
(dp294
g10
F2.3999999999999999
ssVcom.android.phone
p295
(dp296
g10
F3.7000000000000002
sssg49
(dp297
Vcom.android.browser
p298
(dp299
g10
F1.8999999999999999
ssVcom.android.phone
p300
(dp301
g10
F1.3
ssg15
(dp302
g10
I1
ssVcom.tencent.qqlive
p303
(dp304
g10
F2.8999999999999999
ssg112
(dp305
g10
F1.7
sssg51
(dp306
g21
(dp307
g10
F5.7000000000000002
ssVcom.tencent.mm
p308
(dp309
g10
I1
ssVcom.cnvcs.xiangqi
p310
(dp311
g10
F1.8999999999999999
ssg236
(dp312
g10
F4
ssVcom.android.browser
p313
(dp314
g10
I1
sssg53
(dp315
Vcom.android.settings
p316
(dp317
g10
F0.90000000000000002
ssVcom.cnvcs.xiangqi
p318
(dp319
g10
I1
sssg55
(dp320
g202
(dp321
g10
I1
ssVcom.tencent.qqlive
p322
(dp323
g10
F0.90000000000000002
sssg57
(dp324
g11
(dp325
g10
I1
sssg59
(dp326
g188
(dp327
g10
F3.7999999999999998
ssg29
(dp328
g10
F3.5999999999999996
sssg61
(dp329
g210
(dp330
g10
F1.7
ssVcom.cnvcs.xiangqi
p331
(dp332
g10
I1
ssVcom.android.phone
p333
(dp334
g10
I1
sssg63
(dp335
Vcom.android.phone
p336
(dp337
g10
I1
sssg65
(dp338
Vcom.android.phone
p339
(dp340
g10
I1
sssg67
(dp341
sg69
(dp342
Vcom.suning.mobile.ebuy
p343
(dp344
g10
I1
ssg73
(dp345
g10
F0.90000000000000002
ssg75
(dp346
g10
F2.7000000000000002
ssVme.ele
p347
(dp348
g10
F1.3999999999999999
ssVcom.tencent.qqlive
p349
(dp350
g10
F0.90000000000000002
ssg243
(dp351
g10
I1
sssg71
(dp352
Vcom.android.browser
p353
(dp354
g10
F1.6000000000000001
ssVcom.tencent.mm
p355
(dp356
g10
I1
sssg73
(dp357
g8
(dp358
g10
F3.8999999999999999
ssVqsbk.app
p359
(dp360
g10
F0.40000000000000002
ssg204
(dp361
g10
F0.40000000000000002
ssg61
(dp362
g10
F1.3
ssg13
(dp363
g10
F0.69999999999999996
ssg75
(dp364
g10
I4
ssg269
(dp365
g10
F1.7
ssVcom.sdu.didi.psnger
p366
(dp367
g10
I1
ssVme.ele
p368
(dp369
g10
F0.90000000000000002
ssg274
(dp370
g10
F3.2999999999999998
ssVcom.android.phone
p371
(dp372
g10
F5.9000000000000004
ssg37
(dp373
g10
F0.90000000000000002
ssg43
(dp374
g10
F23.600000000000001
ssg23
(dp375
g10
F1.1000000000000001
ssg47
(dp376
g10
F5.9000000000000004
sssg75
(dp377
g359
(dp378
g10
F1.1000000000000001
ssg349
(dp379
g10
F2.7000000000000002
ssVcom.tencent.mobileqq
p380
(dp381
g10
I1
ssg368
(dp382
g10
I1
ssg147
(dp383
g10
F3.8999999999999999
ssVcom.android.phone
p384
(dp385
g10
F1.3
ssVcom.tencent.mm
p386
(dp387
g10
F5.7000000000000002
ssg23
(dp388
g10
F3
ssg47
(dp389
g10
F1.3
sssg77
(dp390
Vcom.android.browser
p391
(dp392
g10
I1
sssg79
(dp393
Vcom.android.mms
p394
(dp395
g10
F0.69999999999999996
ssVcom.eg.android.AlipayGphone
p396
(dp397
g10
F1.8999999999999999
sssg81
(dp398
Vcom.android.browser
p399
(dp400
g10
F7.7999999999999998
ssg49
(dp401
g10
F4.5
ssg65
(dp402
g10
F0.69999999999999996
ssVandroid.zhibo8
p403
(dp404
g10
I1
ssVcom.android.settings
p405
(dp406
g10
F4.7000000000000002
ssVcom.android.mms
p407
(dp408
g10
F1.3999999999999999
ssVcom.sdu.didi.psnger
p409
(dp410
g10
F1.8999999999999999
ssg19
(dp411
g10
I3
ssVcom.android.quicksearchbox
p412
(dp413
g10
I1
ssg61
(dp414
g10
F2.6000000000000001
ssVcom.android.phone
p415
(dp416
g10
I3
ssVcn.com.sina.sports
p417
(dp418
g10
F2.5999999999999996
ssg221
(dp419
g10
F1.8999999999999999
ssg41
(dp420
g10
F0.69999999999999996
ssVcom.tencent.mm
p421
(dp422
g10
F12.9
ssg45
(dp423
g10
F0.90000000000000002
ssVcom.eg.android.AlipayGphone
p424
(dp425
g10
F0.69999999999999996
sssg83
(dp426
Vcom.android.browser
p427
(dp428
g10
I1
sssg85
(dp429
g128
(dp430
g10
I1
ssg41
(dp431
g10
F13
ssVcom.tencent.mm
p432
(dp433
g10
F7.1000000000000005
ssVandroid.zhibo8
p434
(dp435
g10
F2
ssssS'edge'
p436
g91
sS'graph'
p437
(dp438
sS'adjlist_dict_factory'
p439
g88
sS'adj'
p440
g91
sS'pred'
p441
(dp442
g8
(dp443
g359
g299
sg71
g354
sVandroid.zhibo8
p444
g314
sVcom.android.settings
p445
g358
sg77
g392
sVcom.android.deskclock
p446
g146
sg213
g239
sVcom.android.quicksearchbox
p447
g428
sVcom.cnvcs.xiangqi
p448
g400
sg106
g201
sg13
g127
sVcom.miui.gallery
p449
g257
sVcom.tencent.mm
p450
g259
sg45
g289
ssg11
(dp451
g123
g344
sg57
g325
ssg13
(dp452
Vcom.sdu.didi.psnger
p453
g143
sg445
g363
sg27
g181
sg450
g263
sg8
g97
ssg15
(dp454
Vqsbk.app
p455
g302
ssg17
(dp456
Vcom.android.browser
p457
g100
sVcom.cnvcs.xiangqi
p458
g410
sg137
g367
ssg19
(dp459
Vcom.UCMobile
p460
g161
sVcom.cnvcs.xiangqi
p461
g411
ssg21
(dp462
g108
g231
sVcom.android.browser
p463
g102
sg51
g307
ssg23
(dp464
g73
g375
sg75
g388
sg79
g397
sg368
g194
sVcom.cnvcs.xiangqi
p465
g425
sVcom.tencent.mm
p466
g284
sg47
g294
ssg25
(dp467
sg27
(dp468
Vcom.android.settings
p469
g361
sVcom.tencent.mm
p470
g261
sVcom.android.phone
p471
g205
ssg29
(dp472
g59
g328
sg188
g249
ssg31
(dp473
g73
g369
sg69
g348
sg75
g382
ssg33
(dp474
sg35
(dp475
Vcom.android.browser
p476
g107
sg93
g301
sg204
g184
sVcom.tencent.qqlive
p477
g334
sVcom.android.settings
p478
g372
sVcom.android.mms
p479
g385
sVcom.funcity.taxi.passenger
p480
g340
sVcom.android.deskclock
p481
g155
sg25
g177
sVcom.cnvcs.xiangqi
p482
g416
sg63
g337
sVcom.tencent.mm
p483
g265
sVcom.sankuai.meituan.takeoutnew
p484
g296
ssg37
(dp485
Vcom.android.browser
p486
g109
sVcom.android.settings
p487
g373
sg232
g418
sVcom.android.phone
p488
g214
sVcom.tencent.mm
p489
g278
sg45
g288
ssg39
(dp490
Vcom.tencent.mm
p491
g268
ssg41
(dp492
g252
g281
sg59
g327
sg482
g420
sg415
g223
sg221
g431
sg29
g189
ssg43
(dp493
g8
g115
sg71
g356
sVandroid.zhibo8
p494
g309
sVcom.suning.mobile.ebuy
p495
g122
sg13
g130
sg264
g225
sVcom.android.mms
p496
g387
sVcom.suning.snmessenger
p497
g244
sVcom.android.deskclock
p498
g158
sg33
g198
sg448
g422
sg168
g374
sg85
g433
sVcom.miui.gallery
p499
g253
sg245
g351
sg23
g170
sg47
g292
ssg45
(dp500
Vcom.cnvcs.xiangqi
p501
g423
sg488
g226
ssg47
(dp502
Vcom.android.browser
p503
g113
sg93
g305
sg73
g376
sg75
g389
sg347
g195
sg295
g228
sg43
g286
sg23
g174
ssg49
(dp504
g503
g94
sg149
g360
sg151
g378
sg55
g321
sVcom.cnvcs.xiangqi
p505
g401
sVcom.android.phone
p506
g203
sVcom.tencent.mm
p507
g260
ssg51
(dp508
g486
g99
sVcom.android.settings
p509
g365
sg21
g163
sVcom.cnvcs.xiangqi
p510
g404
sg37
g235
sg110
g435
sVcom.tencent.mm
p511
g270
ssg53
(dp512
sg55
(dp513
Vcom.android.browser
p514
g103
sg506
g212
ssg57
(dp515
Vcom.tencent.mm
p516
g273
ssg59
(dp517
g188
g255
sg29
g187
ssg61
(dp518
g145
g96
sg49
g304
sg234
g312
sVcom.android.settings
p519
g362
sVcom.android.mms
p520
g379
sg55
g323
sg446
g153
sVcom.UCMobile
p521
g165
sVcom.cnvcs.xiangqi
p522
g414
sg333
g218
sg37
g237
sVcom.tencent.mm
p523
g262
sg15
g135
sg380
g350
ssg63
(dp524
Vcom.tencent.mm
p525
g271
sVcom.android.phone
p526
g219
ssg65
(dp527
g458
g402
sg409
g139
ssg67
(dp528
sg69
(dp529
Vcom.suning.mobile.ebuy
p530
g124
sg520
g381
sg31
g192
sVcom.android.phone
p531
g216
sg497
g246
sVcom.tencent.mm
p532
g282
ssg71
(dp533
sg73
(dp534
Vcom.android.browser
p535
g117
sg69
g345
sg53
g317
sVcom.sdu.didi.psnger
p536
g138
sVcom.android.deskclock
p537
g150
sg31
g191
sg448
g406
sg35
g209
sVcom.autonavi.minimap
p538
g129
sg85
g430
sVcom.tencent.mm
p539
g277
sg23
g169
sg47
g291
ssg75
(dp540
g79
g395
sg465
g408
sg73
g364
sVcom.sdu.didi.psnger
p541
g141
sg537
g152
sg31
g193
sg477
g330
sg333
g211
sVcom.sankuai.meituan.takeoutnew
p542
g293
sVcom.tencent.mm
p543
g267
sVcom.eg.android.AlipayGphone
p544
g172
sg69
g346
ssg77
(dp545
sg79
(dp546
Vcom.eg.android.AlipayGphone
p547
g167
ssg81
(dp548
Vcom.android.browser
p549
g105
sg27
g182
sVandroid.zhibo8
p550
g311
sg180
g131
sVcom.android.phone
p551
g207
sg53
g319
sg151
g383
sg537
g148
sVcom.tencent.qqlive
p552
g332
sg405
g370
sVcn.com.sina.sports
p553
g233
sg421
g275
ssg83
(dp554
Vcom.suning.snmessenger
p555
g242
sg204
g179
sVcom.cnvcs.xiangqi
p556
g413
sg183
g220
ssg85
(dp557
Vcom.android.browser
p558
g111
sg495
g120
sg538
g132
sg498
g156
sg482
g419
sg415
g222
sg499
g251
sg121
g279
sssb.