ccopy_reg
_reconstructor
p1
(cnetworkx.classes.digraph
DiGraph
p2
c__builtin__
object
p3
NtRp4
(dp5
S'node'
p6
(dp7
Vcom.android.browser
p8
(dp9
S'weight'
p10
F0.028110524312710477
ssVcom.linkedin.android
p11
(dp12
g10
F2.638318390443829e-05
ssVcom.adobe.reader
p13
(dp14
g10
F0.00025291465949771878
ssVcom.android.notepad
p15
(dp16
g10
F2.4260398992586933e-05
ssVcom.gotokeep.keep
p17
(dp18
g10
F5.9741232519245323e-05
ssVcom.autonavi.minimap
p19
(dp20
g10
F1.728553428221819e-05
ssVcom.amap.android.location
p21
(dp22
g10
F1.2130199496293467e-06
ssVcom.android.thememanager
p23
(dp24
g10
F1.9408319194069547e-05
ssVcom.huawei.android.totemweather
p25
(dp26
g10
F1.6982279294810852e-05
ssVcom.android.deskclock
p27
(dp28
g10
F0.00047338103534285249
ssVcom.taou.maimai
p29
(dp30
g10
F0.0019951145621528677
ssVcom.huawei.android.pushagent
p31
(dp32
g10
F9.4009046096274364e-06
ssVcom.record.myLife
p33
(dp34
g10
F0.00020651664642439626
ssVcom.google.android.youtube
p35
(dp36
g10
F3.6390598488880396e-06
ssVcom.android.launcher
p37
(dp38
g10
F0.67925174864407112
ssVcom.smartapp.easyvpn
p39
(dp40
g10
F9.2796026146645013e-05
ssVcom.huawei.dataservicediagnose
p41
(dp42
g10
F1.2130199496293467e-06
ssVcom.hupu.games
p43
(dp44
g10
F0.0028900200299919183
ssVfm.jihua.kecheng
p45
(dp46
g10
F0.00063622896358059224
ssVcom.sina.weibo
p47
(dp48
g10
F0.00031872099176511083
ssVcom.android.contacts
p49
(dp50
g10
F0.0029345985131407968
ssVcom.eg.android.AlipayGphone
p51
(dp52
g10
F0.00042334396242064195
ssVcom.android.wifi
p53
(dp54
g10
F1.1220434534071456e-05
ssVcom.zhihu.android
p55
(dp56
g10
F0.0048360072841847979
ssVcom.android.email
p57
(dp58
g10
F0.00034571068564436376
ssVcom.hipu.yidian
p59
(dp60
g10
F0.0017831393259551394
ssVcom.netease.edu.study
p61
(dp62
g10
F0.00060529695486504398
ssVcom.microsoft.office.officehub
p63
(dp64
g10
F1.0917179546664119e-05
ssVcom.android.packageinstaller
p65
(dp66
g10
F0.00040059983836509172
ssVcom.sankuai.meituan
p67
(dp68
g10
F0.0002283510055177245
ssVcom.android.gallery3d
p69
(dp70
g10
F4.7611033022951854e-05
ssVcom.sdu.didi.psnger
p71
(dp72
g10
F2.1531104105920903e-05
ssVcom.taobao.taobao
p73
(dp74
g10
F0.00023199006536661255
ssVcom.android.vpndialogs
p75
(dp76
g10
F6.5199822292577383e-05
ssVcom.huawei.hidisk
p77
(dp78
g10
F0.0001273670947110814
ssVme.ele
p79
(dp80
g10
F0.00049400237448655137
ssVcom.android.hwmirror
p81
(dp82
g10
F0.00039028916879324229
ssVcom.google.android.gsf.login
p83
(dp84
g10
F2.0924594131106229e-05
ssVcom.android.phone
p85
(dp86
g10
F0.00024472677483772069
ssVcom.vmall.client
p87
(dp88
g10
F3.6390598488880396e-06
ssVcom.tencent.mtt
p89
(dp90
g10
F0.077332144573782693
ssVcom.huawei.fans
p91
(dp92
g10
F0.00013282568448441345
ssVcom.tencent.mm
p93
(dp94
g10
F0.013263463384234684
ssVcom.shanbay.words
p95
(dp96
g10
F9.0976496222200996e-06
ssVcom.sankuai.meituan.takeoutnew
p97
(dp98
g10
F0.0010246986024493906
ssVcom.android.video
p99
(dp100
g10
F0.0010219693075627246
ssVcom.google.android.gm
p101
(dp102
g10
F3.3054793627399698e-05
ssVcom.huawei.magnifier
p103
(dp104
g10
F2.1227849118513564e-06
ssVandroid.zhibo8
p105
(dp106
g10
F0.01018845781192429
ssVcom.netease.cloudmusic
p107
(dp108
g10
F0.053126634733916496
ssVcom.huawei.android.hwouc
p109
(dp110
g10
F4.0029658337768441e-05
ssVcom.shanbay.listen
p111
(dp112
g10
F0.00023108030040439053
ssVcom.baidu.lbs.waimai
p113
(dp114
g10
F0.0021385541711965378
ssVcom.nice.main
p115
(dp116
g10
F2.2744124055550247e-05
ssVcom.biganiseed.reindeer
p117
(dp118
g10
F7.9452806700722198e-05
ssVcom.android.fileexplorer
p119
(dp120
g10
F1.3343219445922812e-05
ssVcom.netease.newsreader.activity
p121
(dp122
g10
F0.00042880255219397402
ssVcom.instagram.android
p123
(dp124
g10
F0.00055222733206876005
ssVcom.qiyi.video
p125
(dp126
g10
F0.0052426722222980362
ssVcom.huawei.lcagent
p127
(dp128
g10
F3.0325498740733667e-06
ssVcom.googlesuit.ggkj
p129
(dp130
g10
F1.9711574181476882e-05
ssVcom.iflytek.ringdiyclient
p131
(dp132
g10
F0.00010189367576886511
ssVcom.bubugao.yhglobal
p133
(dp134
g10
F8.1878846599980889e-06
ssVcom.alibaba.android.rimet
p135
(dp136
g10
F3.7300363451102411e-05
ssVcom.tencent.mobileqq
p137
(dp138
g10
F0.085869075724286634
ssVcom.facebook.orca
p139
(dp140
g10
F4.9733817934803207e-05
ssVcom.huawei.vassistant
p141
(dp142
g10
F0.00012463779982441536
ssVcom.immomo.momo
p143
(dp144
g10
F0.00021258174617254299
ssVcom.twitter.android
p145
(dp146
g10
F0.0042137280500249424
ssVcom.android.calendar
p147
(dp148
g10
F4.3668718186656476e-05
ssVcom.android.settings
p149
(dp150
g10
F0.0064208178483755388
ssVcom.xdf.recite
p151
(dp152
g10
F0.0029806932712267121
ssVcom.baidu.input_huawei
p153
(dp154
g10
F3.0325498740733667e-06
ssVcom.liulishuo.engzo
p155
(dp156
g10
F0.00023229332035401988
ssVcom.huawei.hwid
p157
(dp158
g10
F2.0621339143698891e-05
ssVcom.android.keyguard
p159
(dp160
g10
F0.00018195299244440198
ssVcom.baidu.tieba
p161
(dp162
g10
F0.0036681723276791442
ssVcom.android.mediacenter
p163
(dp164
g10
F1.3343219445922812e-05
ssVcom.huawei.appmarket
p165
(dp166
g10
F0.0030925943615800191
ssVcom.huawei.android.internal.app
p167
(dp168
g10
F5.7618447607393964e-06
ssVcom.android.camera
p169
(dp170
g10
F0.00012797360468589606
ssVcom.google.android.gms
p171
(dp172
g10
F3.942314836295376e-06
ssVfq.router2
p173
(dp174
g10
F4.1545933274805123e-05
ssVcom.jhss.youguu
p175
(dp176
g10
F6.3683547355540693e-06
sssS'node_dict_factory'
p177
c__builtin__
dict
p178
sS'edge_attr_dict_factory'
p179
g178
sS'succ'
p180
(dp181
g8
(dp182
Vcom.sina.weibo
p183
(dp184
g10
F0.90000000000000002
ssVcom.baidu.lbs.waimai
p185
(dp186
g10
F0.90000000000000002
ssVcom.netease.cloudmusic
p187
(dp188
g10
F0.90000000000000002
ssg17
(dp189
g10
F0.90000000000000002
ssVcom.android.settings
p190
(dp191
g10
F6.4000000000000012
ssVcom.android.packageinstaller
p192
(dp193
g10
F4.4000000000000004
ssVcom.tencent.mm
p194
(dp195
g10
F2.6000000000000001
ssVcom.android.vpndialogs
p196
(dp197
g10
F0.90000000000000002
ssg35
(dp198
g10
F0.40000000000000002
ssVcom.android.deskclock
p199
(dp200
g10
F0.40000000000000002
ssVcom.huawei.hwid
p201
(dp202
g10
F0.69999999999999996
ssg117
(dp203
g10
F1.3
ssVcom.microsoft.office.officehub
p204
(dp205
g10
F3.4000000000000004
ssVcom.android.launcher
p206
(dp207
g10
F55.900000000000027
ssVcom.huawei.appmarket
p208
(dp209
g10
F4.4000000000000004
ssVcom.taou.maimai
p210
(dp211
g10
F0.90000000000000002
ssVcom.tencent.mtt
p212
(dp213
g10
F2.2000000000000002
ssVcom.huawei.fans
p214
(dp215
g10
F5.2000000000000002
ssVcom.tencent.mobileqq
p216
(dp217
g10
F13.200000000000003
ssVcom.android.contacts
p218
(dp219
g10
F3.1000000000000001
ssVcom.sankuai.meituan.takeoutnew
p220
(dp221
g10
F0.40000000000000002
sssg11
(dp222
Vcom.android.launcher
p223
(dp224
g10
I1
sssg13
(dp225
Vcom.tencent.mobileqq
p226
(dp227
g10
F1.7
ssVcom.android.launcher
p228
(dp229
g10
F2.0999999999999996
ssVcom.qiyi.video
p230
(dp231
g10
F0.90000000000000002
ssVcom.android.contacts
p232
(dp233
g10
F1.3
sssg15
(dp234
Vcom.tencent.mm
p235
(dp236
g10
F0.40000000000000002
ssVcom.tencent.mobileqq
p237
(dp238
g10
F1.3
ssVcom.android.launcher
p239
(dp240
g10
F3.4000000000000004
sssg17
(dp241
Vcom.android.browser
p242
(dp243
g10
F0.90000000000000002
ssVcom.tencent.mobileqq
p244
(dp245
g10
F0.40000000000000002
ssVcom.android.launcher
p246
(dp247
g10
F1.7
sssg19
(dp248
sg21
(dp249
Vcom.twitter.android
p250
(dp251
g10
F0.90000000000000002
ssVcom.android.settings
p252
(dp253
g10
I1
ssVcom.android.launcher
p254
(dp255
g10
F0.69999999999999996
ssg139
(dp256
g10
F0.40000000000000002
sssg23
(dp257
Vcom.android.settings
p258
(dp259
g10
I1
ssVcom.android.deskclock
p260
(dp261
g10
I2
ssVcom.huawei.hwid
p262
(dp263
g10
F0.69999999999999996
ssVcom.android.launcher
p264
(dp265
g10
F2.2999999999999998
ssVcom.huawei.appmarket
p266
(dp267
g10
F1.3
ssVcom.tencent.mtt
p268
(dp269
g10
I1
ssVcom.iflytek.ringdiyclient
p270
(dp271
g10
F0.69999999999999996
sssg25
(dp272
Vcom.huawei.hidisk
p273
(dp274
g10
F0.40000000000000002
ssVcom.tencent.mtt
p275
(dp276
g10
F0.90000000000000002
ssg69
(dp277
g10
F0.90000000000000002
ssVcom.android.launcher
p278
(dp279
g10
F4.4000000000000004
ssVcom.huawei.appmarket
p280
(dp281
g10
F0.40000000000000002
sssg27
(dp282
Vcom.record.myLife
p283
(dp284
g10
F0.90000000000000002
ssVcom.huawei.lcagent
p285
(dp286
g10
F0.69999999999999996
ssVcom.netease.cloudmusic
p287
(dp288
g10
F2.2000000000000002
ssVcom.huawei.android.totemweather
p289
(dp290
g10
F0.90000000000000002
ssVcom.tencent.mm
p291
(dp292
g10
F1.3
ssg69
(dp293
g10
F0.40000000000000002
ssVcom.android.thememanager
p294
(dp295
g10
I2
ssVcom.taou.maimai
p296
(dp297
g10
F0.90000000000000002
ssVcom.android.launcher
p298
(dp299
g10
F21.699999999999999
ssVcom.android.settings
p300
(dp301
g10
F1.1000000000000001
ssVcom.tencent.mtt
p302
(dp303
g10
F1.6000000000000001
ssVfm.jihua.kecheng
p304
(dp305
g10
F0.90000000000000002
ssVcom.tencent.mobileqq
p306
(dp307
g10
F7.1000000000000014
ssVcom.android.contacts
p308
(dp309
g10
I1
sssg29
(dp310
Vcom.zhihu.android
p311
(dp312
g10
F1.7000000000000002
ssVfm.jihua.kecheng
p313
(dp314
g10
F1.7000000000000002
ssVandroid.zhibo8
p315
(dp316
g10
F0.80000000000000004
ssVcom.android.settings
p317
(dp318
g10
F22.499999999999989
ssVcom.android.packageinstaller
p319
(dp320
g10
F0.40000000000000002
ssg61
(dp321
g10
F0.40000000000000002
ssVcom.netease.newsreader.activity
p322
(dp323
g10
F0.90000000000000002
ssVcom.taobao.taobao
p324
(dp325
g10
F0.90000000000000002
ssVcom.twitter.android
p326
(dp327
g10
F2.6000000000000001
ssg31
(dp328
g10
F0.90000000000000002
ssVcom.baidu.tieba
p329
(dp330
g10
F0.90000000000000002
ssVcom.qiyi.video
p331
(dp332
g10
F0.90000000000000002
ssVcom.android.launcher
p333
(dp334
g10
F109.8000000000001
ssVcom.huawei.appmarket
p335
(dp336
g10
F0.40000000000000002
ssVcom.smartapp.easyvpn
p337
(dp338
g10
F0.40000000000000002
ssVcom.tencent.mtt
p339
(dp340
g10
F7.1000000000000014
ssVcom.android.email
p341
(dp342
g10
F1.7000000000000002
ssVcom.tencent.mm
p343
(dp344
g10
F4
ssVcom.alibaba.android.rimet
p345
(dp346
g10
F0.90000000000000002
ssVcom.hupu.games
p347
(dp348
g10
F1.3
ssVcom.tencent.mobileqq
p349
(dp350
g10
F13.500000000000004
sssg31
(dp351
Vcom.android.settings
p352
(dp353
g10
F0.40000000000000002
ssg349
(dp354
g10
F0.90000000000000002
ssVcom.android.launcher
p355
(dp356
g10
F1.7
sssg33
(dp357
Vcom.android.settings
p358
(dp359
g10
F0.40000000000000002
ssVcom.android.packageinstaller
p360
(dp361
g10
I1
ssVcom.android.deskclock
p362
(dp363
g10
F0.90000000000000002
ssVcom.taou.maimai
p364
(dp365
g10
F0.69999999999999996
ssVcom.android.launcher
p366
(dp367
g10
F7.8000000000000007
ssVcom.tencent.mobileqq
p368
(dp369
g10
F4.0999999999999996
sssg35
(dp370
g145
(dp371
g10
F0.90000000000000002
ssVcom.android.settings
p372
(dp373
g10
F2
ssg171
(dp374
g10
F0.40000000000000002
ssVcom.android.launcher
p375
(dp376
g10
F2.7000000000000002
sssg37
(dp377
g8
(dp378
g10
F62.200000000000031
ssg11
(dp379
g10
F1.7
ssg13
(dp380
g10
F2.2000000000000002
ssg111
(dp381
g10
F1.7
ssg17
(dp382
g10
I1
ssg19
(dp383
g10
I1
ssg21
(dp384
g10
F0.40000000000000002
ssg23
(dp385
g10
F7.5000000000000009
ssg25
(dp386
g10
F4.4000000000000004
ssVcom.android.deskclock
p387
(dp388
g10
F141
ssg29
(dp389
g10
F114.90000000000013
ssg31
(dp390
g10
F1.3999999999999999
ssg33
(dp391
g10
F13.6
ssg35
(dp392
g10
F2.7000000000000002
ssg15
(dp393
g10
F3.7000000000000002
ssg39
(dp394
g10
F41.100000000000009
ssg41
(dp395
g10
I1
ssVcom.hupu.games
p396
(dp397
g10
F28.899999999999991
ssg45
(dp398
g10
F37.700000000000003
ssg47
(dp399
g10
F10.5
ssg49
(dp400
g10
F160.40000000000009
ssg51
(dp401
g10
F11.100000000000001
ssg53
(dp402
g10
F2.7000000000000002
ssg55
(dp403
g10
F44.5
ssg57
(dp404
g10
F39
ssg59
(dp405
g10
F20.299999999999997
ssg61
(dp406
g10
F4.4000000000000004
ssVcom.microsoft.office.officehub
p407
(dp408
g10
F1.7
ssg65
(dp409
g10
F36.59999999999998
ssg67
(dp410
g10
I2
ssg69
(dp411
g10
F12.499999999999998
ssg71
(dp412
g10
F2.3999999999999999
ssg73
(dp413
g10
F11
ssg75
(dp414
g10
F74.000000000000014
ssg77
(dp415
g10
F16.499999999999996
ssg79
(dp416
g10
F14.999999999999996
ssg81
(dp417
g10
F2.7000000000000002
ssg83
(dp418
g10
F1.3
ssg87
(dp419
g10
F4.4000000000000004
ssg89
(dp420
g10
F411.89999999999827
ssg91
(dp421
g10
F9.5
ssg93
(dp422
g10
F236.69999999999962
ssg95
(dp423
g10
F2.6000000000000001
ssg97
(dp424
g10
F31.599999999999991
ssg99
(dp425
g10
F4.5
ssg101
(dp426
g10
F2.3999999999999999
ssg103
(dp427
g10
F1.7
ssg105
(dp428
g10
F17
ssg107
(dp429
g10
F59.200000000000017
ssg109
(dp430
g10
F2.6000000000000001
ssg113
(dp431
g10
F36.399999999999999
ssg115
(dp432
g10
F1.7
ssg117
(dp433
g10
I1
ssg119
(dp434
g10
F2.6000000000000001
ssg121
(dp435
g10
F6.8000000000000007
ssg123
(dp436
g10
F21.199999999999999
ssg125
(dp437
g10
F10.199999999999999
ssg127
(dp438
g10
F4
ssg129
(dp439
g10
I1
ssg131
(dp440
g10
F4
ssg133
(dp441
g10
F0.40000000000000002
ssVcom.alibaba.android.rimet
p442
(dp443
g10
F3.3999999999999999
ssg137
(dp444
g10
F841.30000000000018
ssg139
(dp445
g10
F1.7
ssg141
(dp446
g10
F22.999999999999996
ssg143
(dp447
g10
F3.5999999999999996
ssg145
(dp448
g10
F59.200000000000017
ssg147
(dp449
g10
F4.4000000000000004
ssg149
(dp450
g10
F575.79999999999939
ssg151
(dp451
g10
F12.499999999999998
ssg153
(dp452
g10
F0.90000000000000002
ssg155
(dp453
g10
F3.3999999999999999
ssg157
(dp454
g10
F38.19999999999996
ssVcom.android.keyguard
p455
(dp456
g10
I3
ssg161
(dp457
g10
F52.300000000000018
ssg163
(dp458
g10
F3.7000000000000002
ssg165
(dp459
g10
F82.900000000000091
ssVcom.huawei.android.internal.app
p460
(dp461
g10
F4.7999999999999998
ssg169
(dp462
g10
F25.499999999999993
ssg171
(dp463
g10
F1.6000000000000001
ssg173
(dp464
g10
F26.899999999999991
ssg175
(dp465
g10
I1
sssg39
(dp466
Vcom.android.browser
p467
(dp468
g10
I1
ssVcom.android.email
p469
(dp470
g10
F3.3999999999999999
ssVcom.zhihu.android
p471
(dp472
g10
F0.80000000000000004
ssVcom.android.settings
p473
(dp474
g10
F1.2000000000000002
ssVcom.twitter.android
p475
(dp476
g10
F15.500000000000005
ssVcom.taou.maimai
p477
(dp478
g10
F1.3999999999999999
ssVcom.instagram.android
p479
(dp480
g10
F1.7000000000000002
ssVcom.baidu.tieba
p481
(dp482
g10
F0.69999999999999996
ssVcom.android.launcher
p483
(dp484
g10
F44.600000000000009
ssVcom.huawei.appmarket
p485
(dp486
g10
F1.5
ssVcom.tencent.mtt
p487
(dp488
g10
F2.6000000000000001
ssg75
(dp489
g10
F19.300000000000001
sssg41
(dp490
Vcom.taou.maimai
p491
(dp492
g10
F0.90000000000000002
ssVcom.tencent.mobileqq
p493
(dp494
g10
I1
ssVcom.android.launcher
p495
(dp496
g10
F0.69999999999999996
ssVcom.android.settings
p497
(dp498
g10
F0.40000000000000002
sssg43
(dp499
Vcom.instagram.android
p500
(dp501
g10
F1.3
ssVcom.tencent.mobileqq
p502
(dp503
g10
F9.2000000000000011
ssVcom.android.deskclock
p504
(dp505
g10
F0.40000000000000002
ssVcom.taou.maimai
p506
(dp507
g10
F0.40000000000000002
ssVcom.android.launcher
p508
(dp509
g10
F27.499999999999993
ssVcom.android.settings
p510
(dp511
g10
F3.1000000000000001
ssVcom.tencent.mtt
p512
(dp513
g10
F5.8000000000000007
ssVcom.tencent.mm
p514
(dp515
g10
F0.80000000000000004
ssVcom.android.contacts
p516
(dp517
g10
F0.90000000000000002
ssg11
(dp518
g10
F0.90000000000000002
sssg45
(dp519
Vcom.huawei.hwid
p520
(dp521
g10
F0.69999999999999996
ssVcom.android.settings
p522
(dp523
g10
F8.0000000000000018
ssVcom.taobao.taobao
p524
(dp525
g10
F1.7
ssVcom.taou.maimai
p526
(dp527
g10
F2.8999999999999999
ssVcom.baidu.tieba
p528
(dp529
g10
F1.3
ssVcom.android.launcher
p530
(dp531
g10
F22.399999999999999
ssVcom.tencent.mtt
p532
(dp533
g10
F0.90000000000000002
ssVcom.android.email
p534
(dp535
g10
F0.90000000000000002
ssVcom.tencent.mm
p536
(dp537
g10
F0.90000000000000002
ssVcom.android.mediacenter
p538
(dp539
g10
F1.3
ssVcom.tencent.mobileqq
p540
(dp541
g10
F0.90000000000000002
sssg47
(dp542
Vcom.zhihu.android
p543
(dp544
g10
F0.40000000000000002
ssVcom.tencent.mobileqq
p545
(dp546
g10
F1.8
ssVcom.android.launcher
p547
(dp548
g10
F5.1000000000000005
ssVcom.android.settings
p549
(dp550
g10
F0.40000000000000002
ssVfm.jihua.kecheng
p551
(dp552
g10
F0.90000000000000002
ssVcom.tencent.mm
p553
(dp554
g10
F0.40000000000000002
sssg49
(dp555
Vcom.android.browser
p556
(dp557
g10
F1.3
ssVcom.android.email
p558
(dp559
g10
F0.40000000000000002
ssVcom.huawei.vassistant
p560
(dp561
g10
F0.40000000000000002
ssVcom.taou.maimai
p562
(dp563
g10
F1.2000000000000002
ssVcom.android.settings
p564
(dp565
g10
F9.5000000000000018
ssVcom.tencent.mm
p566
(dp567
g10
F13.999999999999998
ssVcom.android.deskclock
p568
(dp569
g10
I1
ssVcom.huawei.hwid
p570
(dp571
g10
F0.69999999999999996
ssVcom.baidu.tieba
p572
(dp573
g10
F0.40000000000000002
ssVcom.android.launcher
p574
(dp575
g10
F119.30000000000007
ssVcom.huawei.appmarket
p576
(dp577
g10
F0.90000000000000002
ssVcom.vmall.client
p578
(dp579
g10
F0.69999999999999996
ssVcom.android.camera
p580
(dp581
g10
F1.3999999999999999
ssVcom.tencent.mtt
p582
(dp583
g10
F7.0000000000000018
ssVcom.android.vpndialogs
p584
(dp585
g10
F0.90000000000000002
ssVcom.tencent.mobileqq
p586
(dp587
g10
F46.899999999999963
ssVcom.hupu.games
p588
(dp589
g10
F0.90000000000000002
ssg97
(dp590
g10
F0.40000000000000002
sssg51
(dp591
Vcom.tencent.mobileqq
p592
(dp593
g10
F1.8
ssVcom.baidu.lbs.waimai
p594
(dp595
g10
I1
ssVme.ele
p596
(dp597
g10
I1
ssVcom.android.launcher
p598
(dp599
g10
F7.6000000000000005
ssVcom.android.settings
p600
(dp601
g10
F0.90000000000000002
ssVcom.tencent.mm
p602
(dp603
g10
F0.90000000000000002
ssVcom.android.contacts
p604
(dp605
g10
F0.40000000000000002
ssVcom.sankuai.meituan.takeoutnew
p606
(dp607
g10
I1
sssg53
(dp608
Vcom.android.launcher
p609
(dp610
g10
I1
sssg55
(dp611
Vcom.twitter.android
p612
(dp613
g10
F0.90000000000000002
ssVcom.android.settings
p614
(dp615
g10
F11.400000000000002
ssVcom.android.packageinstaller
p616
(dp617
g10
F0.90000000000000002
ssVcom.android.gallery3d
p618
(dp619
g10
F0.40000000000000002
ssVcom.android.deskclock
p620
(dp621
g10
F0.80000000000000004
ssVcom.taou.maimai
p622
(dp623
g10
F1.8
ssVcom.baidu.tieba
p624
(dp625
g10
F1.7000000000000002
ssVcom.android.launcher
p626
(dp627
g10
F43.400000000000006
ssg167
(dp628
g10
F3.1000000000000001
ssVcom.tencent.mtt
p629
(dp630
g10
F3
ssVcom.android.vpndialogs
p631
(dp632
g10
F1.3
ssVcom.tencent.mm
p633
(dp634
g10
F1.7999999999999998
ssg133
(dp635
g10
F0.69999999999999996
ssVcom.tencent.mobileqq
p636
(dp637
g10
F83.800000000000082
sssg57
(dp638
Vcom.smartapp.easyvpn
p639
(dp640
g10
F2.6000000000000001
ssVcom.android.calendar
p641
(dp642
g10
F0.90000000000000002
ssVcom.android.settings
p643
(dp644
g10
F7.3000000000000007
ssVcom.tencent.mm
p645
(dp646
g10
F0.40000000000000002
ssVfq.router2
p647
(dp648
g10
F1.7000000000000002
ssVcom.twitter.android
p649
(dp650
g10
F1.7000000000000002
ssVcom.instagram.android
p651
(dp652
g10
F0.90000000000000002
ssVcom.android.launcher
p653
(dp654
g10
F29.599999999999994
ssVcom.huawei.appmarket
p655
(dp656
g10
F0.40000000000000002
ssVcom.tencent.mtt
p657
(dp658
g10
F0.90000000000000002
ssVcom.android.vpndialogs
p659
(dp660
g10
F3.3999999999999995
ssVcom.tencent.mobileqq
p661
(dp662
g10
F4.4000000000000004
ssVcom.android.contacts
p663
(dp664
g10
F0.90000000000000002
sssg59
(dp665
Vcom.netease.cloudmusic
p666
(dp667
g10
F0.90000000000000002
ssVcom.android.settings
p668
(dp669
g10
F2.6000000000000001
ssVcom.taou.maimai
p670
(dp671
g10
F1.8
ssg329
(dp672
g10
F0.40000000000000002
ssVcom.android.launcher
p673
(dp674
g10
F14.599999999999998
ssVcom.tencent.mm
p675
(dp676
g10
F0.40000000000000002
ssVcom.android.contacts
p677
(dp678
g10
F0.40000000000000002
ssVcom.tencent.mobileqq
p679
(dp680
g10
F12
sssg61
(dp681
Vcom.android.settings
p682
(dp683
g10
F0.69999999999999996
ssVcom.hupu.games
p684
(dp685
g10
F1.3
ssVcom.android.launcher
p686
(dp687
g10
I3
sssg63
(dp688
Vcom.android.browser
p689
(dp690
g10
F2.7000000000000002
ssVcom.tencent.mm
p691
(dp692
g10
F1.7
ssVcom.tencent.mobileqq
p693
(dp694
g10
F3.1000000000000001
ssVcom.android.launcher
p695
(dp696
g10
F3
sssg65
(dp697
Vcom.android.browser
p698
(dp699
g10
F3.7000000000000002
ssVcom.record.myLife
p700
(dp701
g10
F0.90000000000000002
ssVcom.android.deskclock
p702
(dp703
g10
F0.69999999999999996
ssVcom.huawei.appmarket
p704
(dp705
g10
F1.3999999999999999
ssVcom.android.launcher
p706
(dp707
g10
F31.499999999999986
ssg39
(dp708
g10
F0.69999999999999996
ssVcom.android.contacts
p709
(dp710
g10
I1
ssVcom.zhihu.android
p711
(dp712
g10
F1.3
ssg123
(dp713
g10
F4.7999999999999998
ssVcom.huawei.hidisk
p714
(dp715
g10
F1.7
ssg133
(dp716
g10
I1
ssVcom.huawei.fans
p717
(dp718
g10
F3
ssg368
(dp719
g10
F2.6000000000000001
ssVandroid.zhibo8
p720
(dp721
g10
F0.69999999999999996
ssVcom.baidu.lbs.waimai
p722
(dp723
g10
F0.69999999999999996
ssg75
(dp724
g10
F1.7000000000000002
ssVcom.tencent.mtt
p725
(dp726
g10
F31.999999999999996
ssg129
(dp727
g10
F0.69999999999999996
ssVcom.android.settings
p728
(dp729
g10
F2.0999999999999996
ssVcom.huawei.hwid
p730
(dp731
g10
F0.40000000000000002
ssVcom.baidu.tieba
p732
(dp733
g10
F0.69999999999999996
ssg117
(dp734
g10
F0.69999999999999996
ssg173
(dp735
g10
F0.69999999999999996
sssg67
(dp736
Vcom.baidu.lbs.waimai
p737
(dp738
g10
F1.8
ssVcom.android.launcher
p739
(dp740
g10
F2.7000000000000002
ssVcom.sankuai.meituan.takeoutnew
p741
(dp742
g10
F0.40000000000000002
sssg69
(dp743
Vcom.android.settings
p744
(dp745
g10
F0.90000000000000002
ssVcom.twitter.android
p746
(dp747
g10
F1.3
ssg273
(dp748
g10
F2.2999999999999998
ssVcom.android.launcher
p749
(dp750
g10
F6
ssVcom.android.camera
p751
(dp752
g10
F0.90000000000000002
ssVcom.tencent.mtt
p753
(dp754
g10
F0.69999999999999996
sssg71
(dp755
Vcom.android.settings
p756
(dp757
g10
F2.2999999999999998
ssVcom.android.launcher
p758
(dp759
g10
F1.7
sssg73
(dp760
Vcom.android.browser
p761
(dp762
g10
F0.40000000000000002
ssVcom.android.settings
p763
(dp764
g10
F2.2000000000000002
ssVcom.taou.maimai
p765
(dp766
g10
F2.5999999999999996
ssVcom.android.launcher
p767
(dp768
g10
F8.1000000000000014
ssVcom.tencent.mtt
p769
(dp770
g10
F0.40000000000000002
ssVcom.tencent.mobileqq
p771
(dp772
g10
F0.90000000000000002
sssg75
(dp773
Vcom.android.browser
p774
(dp775
g10
F0.69999999999999996
ssVcom.android.email
p776
(dp777
g10
F2.7999999999999998
ssVcom.netease.cloudmusic
p778
(dp779
g10
F0.40000000000000002
ssVcom.zhihu.android
p780
(dp781
g10
F0.40000000000000002
ssg473
(dp782
g10
F12.000000000000002
ssg192
(dp783
g10
F2.0999999999999996
ssVcom.tencent.mm
p784
(dp785
g10
F1.7000000000000002
ssg618
(dp786
g10
F0.90000000000000002
ssVcom.twitter.android
p787
(dp788
g10
F10.399999999999999
ssVcom.taou.maimai
p789
(dp790
g10
F1.6000000000000001
ssg479
(dp791
g10
F1.3999999999999999
ssVcom.baidu.tieba
p792
(dp793
g10
F0.90000000000000002
ssg483
(dp794
g10
F59.999999999999957
ssVcom.huawei.appmarket
p795
(dp796
g10
F0.40000000000000002
ssg487
(dp797
g10
F5.4000000000000004
ssVcom.smartapp.easyvpn
p798
(dp799
g10
F17.699999999999999
ssVfq.router2
p800
(dp801
g10
F13
ssg717
(dp802
g10
F2.2999999999999998
ssVcom.tencent.mobileqq
p803
(dp804
g10
F1.6000000000000001
sssg77
(dp805
Vcom.android.browser
p806
(dp807
g10
F0.40000000000000002
ssVcom.baidu.lbs.waimai
p808
(dp809
g10
F0.40000000000000002
ssVcom.android.settings
p810
(dp811
g10
F1.7000000000000002
ssVcom.android.packageinstaller
p812
(dp813
g10
I1
ssVcom.adobe.reader
p814
(dp815
g10
F0.69999999999999996
ssVcom.android.gallery3d
p816
(dp817
g10
I1
ssVcom.taou.maimai
p818
(dp819
g10
F0.90000000000000002
ssVcom.android.video
p820
(dp821
g10
F7.2000000000000011
ssVcom.android.launcher
p822
(dp823
g10
F13.399999999999997
ssg460
(dp824
g10
F9.6000000000000014
ssVcom.tencent.mtt
p825
(dp826
g10
F5.7000000000000002
ssVcom.tencent.mobileqq
p827
(dp828
g10
F1.3
sssg79
(dp829
g602
(dp830
g10
F6.1000000000000005
ssVcom.baidu.lbs.waimai
p831
(dp832
g10
F1.8
ssVcom.taou.maimai
p833
(dp834
g10
F2.2000000000000002
ssVcom.android.launcher
p835
(dp836
g10
F10.5
ssg135
(dp837
g10
I1
ssg45
(dp838
g10
F0.40000000000000002
ssVcom.tencent.mobileqq
p839
(dp840
g10
F1.7000000000000002
ssVcom.tencent.mtt
p841
(dp842
g10
F0.40000000000000002
ssg51
(dp843
g10
F2.3999999999999999
ssVcom.sankuai.meituan.takeoutnew
p844
(dp845
g10
F2.6000000000000001
sssg81
(dp846
Vcom.android.settings
p847
(dp848
g10
F1.3
ssVcom.tencent.mtt
p849
(dp850
g10
F0.40000000000000002
ssg103
(dp851
g10
F0.90000000000000002
ssVcom.android.launcher
p852
(dp853
g10
F3.4000000000000004
sssg83
(dp854
Vcom.google.android.gm
p855
(dp856
g10
I1
ssVcom.android.settings
p857
(dp858
g10
F0.69999999999999996
ssVcom.google.android.gms
p859
(dp860
g10
F0.40000000000000002
ssVcom.android.launcher
p861
(dp862
g10
F0.90000000000000002
sssg85
(dp863
Vcom.android.contacts
p864
(dp865
g10
F7.7000000000000002
ssVcom.android.launcher
p866
(dp867
g10
F0.90000000000000002
sssg87
(dp868
Vcom.android.settings
p869
(dp870
g10
F1.8
ssVcom.android.vpndialogs
p871
(dp872
g10
F0.69999999999999996
ssVfq.router2
p873
(dp874
g10
F1.3
ssVcom.android.launcher
p875
(dp876
g10
I3
sssg89
(dp877
Vcom.android.browser
p878
(dp879
g10
F3.7999999999999998
ssVcom.android.launcher
p880
(dp881
g10
F375.89999999999884
ssVcom.android.thememanager
p882
(dp883
g10
F1.3999999999999999
ssVcom.android.deskclock
p884
(dp885
g10
F3.1000000000000001
ssg29
(dp886
g10
F8.9000000000000004
ssg31
(dp887
g10
F0.69999999999999996
ssg111
(dp888
g10
F0.40000000000000002
ssVcom.huawei.android.internal.app
p889
(dp890
g10
F1.3999999999999999
ssVcom.hupu.games
p891
(dp892
g10
F4.4000000000000004
ssg39
(dp893
g10
F4.5000000000000009
ssg47
(dp894
g10
F1.8
ssVcom.android.contacts
p895
(dp896
g10
F4.5
ssVcom.zhihu.android
p897
(dp898
g10
F2.6999999999999997
ssg469
(dp899
g10
F2.7000000000000002
ssVcom.hipu.yidian
p900
(dp901
g10
F1.8
ssg65
(dp902
g10
F31.399999999999991
ssVme.ele
p903
(dp904
g10
F0.40000000000000002
ssg475
(dp905
g10
F3.1000000000000001
ssVcom.huawei.hidisk
p906
(dp907
g10
F3.1999999999999997
ssVcom.android.video
p908
(dp909
g10
F0.80000000000000004
ssVcom.vmall.client
p910
(dp911
g10
F0.90000000000000002
ssg129
(dp912
g10
F0.90000000000000002
ssVcom.tencent.mm
p913
(dp914
g10
F19.699999999999999
ssVandroid.zhibo8
p915
(dp916
g10
F9.2000000000000011
ssVcom.netease.cloudmusic
p917
(dp918
g10
F1.3
ssVcom.baidu.lbs.waimai
p919
(dp920
g10
F2.7000000000000002
ssg123
(dp921
g10
F2.2000000000000002
ssVcom.qiyi.video
p922
(dp923
g10
F1.3
ssg75
(dp924
g10
F5.1000000000000005
ssVcom.tencent.mobileqq
p925
(dp926
g10
F170.9000000000002
ssg101
(dp927
g10
F0.40000000000000002
ssVcom.huawei.fans
p928
(dp929
g10
F1.3
ssVcom.huawei.vassistant
p930
(dp931
g10
F1.7000000000000002
ssVcom.immomo.momo
p932
(dp933
g10
F0.90000000000000002
ssVcom.android.settings
p934
(dp935
g10
F58.999999999999922
ssVcom.xdf.recite
p936
(dp937
g10
F1.8
ssVcom.huawei.hwid
p938
(dp939
g10
F4.2000000000000002
ssg732
(dp940
g10
F10.100000000000001
ssVcom.huawei.appmarket
p941
(dp942
g10
F14.400000000000004
ssg173
(dp943
g10
F4.2999999999999998
sssg91
(dp944
Vcom.android.browser
p945
(dp946
g10
F7.4000000000000004
ssg192
(dp947
g10
F4
ssVcom.twitter.android
p948
(dp949
g10
F0.40000000000000002
ssVcom.huawei.hwid
p950
(dp951
g10
F1.7
ssVcom.android.launcher
p952
(dp953
g10
F8.8000000000000007
ssVcom.huawei.appmarket
p954
(dp955
g10
F1.7000000000000002
ssg196
(dp956
g10
F3.1000000000000001
ssVfq.router2
p957
(dp958
g10
F1.3
sssg93
(dp959
Vcom.android.browser
p960
(dp961
g10
F2
ssVcom.record.myLife
p962
(dp963
g10
F0.40000000000000002
ssVcom.android.deskclock
p964
(dp965
g10
F1.3
ssVcom.taou.maimai
p966
(dp967
g10
F7.6000000000000005
ssVcom.android.launcher
p968
(dp969
g10
F222.19999999999968
ssg63
(dp970
g10
F2.6000000000000001
ssg396
(dp971
g10
F0.40000000000000002
ssVfm.jihua.kecheng
p972
(dp973
g10
F0.80000000000000004
ssVcom.sina.weibo
p974
(dp975
g10
F0.90000000000000002
ssVcom.android.contacts
p976
(dp977
g10
F1.7
ssVcom.eg.android.AlipayGphone
p978
(dp979
g10
F0.90000000000000002
ssVcom.zhihu.android
p980
(dp981
g10
F3.4999999999999996
ssVcom.android.vpndialogs
p982
(dp983
g10
F0.40000000000000002
ssVcom.android.packageinstaller
p984
(dp985
g10
F0.69999999999999996
ssVcom.android.gallery3d
p986
(dp987
g10
F0.40000000000000002
ssVcom.twitter.android
p988
(dp989
g10
F0.40000000000000002
ssVme.ele
p990
(dp991
g10
F3.7000000000000002
ssg578
(dp992
g10
F0.90000000000000002
ssVcom.tencent.mtt
p993
(dp994
g10
F26.599999999999984
ssVcom.tencent.mobileqq
p995
(dp996
g10
F49.499999999999972
ssVcom.shanbay.words
p997
(dp998
g10
F1.7
ssVcom.sankuai.meituan.takeoutnew
p999
(dp1000
g10
F3.7999999999999998
ssg131
(dp1001
g10
F0.40000000000000002
ssVandroid.zhibo8
p1002
(dp1003
g10
F0.40000000000000002
ssVcom.netease.cloudmusic
p1004
(dp1005
g10
F2.2999999999999998
ssVcom.huawei.appmarket
p1006
(dp1007
g10
F3
ssVcom.android.email
p1008
(dp1009
g10
F1.3
ssVcom.android.settings
p1010
(dp1011
g10
F52.999999999999936
ssVcom.liulishuo.engzo
p1012
(dp1013
g10
F2.7000000000000002
ssVcom.huawei.hwid
p1014
(dp1015
g10
F0.69999999999999996
ssVcom.baidu.tieba
p1016
(dp1017
g10
F5.2000000000000002
ssVcom.xdf.recite
p1018
(dp1019
g10
F1.1000000000000001
ssg873
(dp1020
g10
F0.40000000000000002
sssg95
(dp1021
Vcom.tencent.mm
p1022
(dp1023
g10
F1.7
ssVcom.android.launcher
p1024
(dp1025
g10
F0.90000000000000002
sssg97
(dp1026
Vcom.tencent.mobileqq
p1027
(dp1028
g10
F1.3
ssg831
(dp1029
g10
F1.3
ssVcom.taou.maimai
p1030
(dp1031
g10
F1.7000000000000002
ssg79
(dp1032
g10
F5.3000000000000007
ssVcom.android.launcher
p1033
(dp1034
g10
F29.799999999999994
ssVcom.android.settings
p1035
(dp1036
g10
F0.90000000000000002
ssVcom.tencent.mm
p1037
(dp1038
g10
F8.3000000000000007
ssVcom.eg.android.AlipayGphone
p1039
(dp1040
g10
I1
sssg99
(dp1041
Vcom.huawei.hidisk
p1042
(dp1043
g10
F6.8000000000000007
ssVcom.android.settings
p1044
(dp1045
g10
F0.69999999999999996
ssg808
(dp1046
g10
F1.3
ssVcom.huawei.hwid
p1047
(dp1048
g10
I1
ssVcom.android.launcher
p1049
(dp1050
g10
F9.1000000000000014
ssVcom.huawei.android.internal.app
p1051
(dp1052
g10
F3.6000000000000001
ssVcom.android.camera
p1053
(dp1054
g10
F1.3
ssVcom.tencent.mtt
p1055
(dp1056
g10
F0.90000000000000002
ssg818
(dp1057
g10
F0.69999999999999996
ssVcom.tencent.mobileqq
p1058
(dp1059
g10
F1.3
sssg101
(dp1060
g857
(dp1061
g10
F1.7000000000000002
ssg859
(dp1062
g10
F0.69999999999999996
ssg861
(dp1063
g10
F1.7
ssg83
(dp1064
g10
I1
sssg103
(dp1065
Vcom.android.settings
p1066
(dp1067
g10
F0.90000000000000002
ssVcom.smartapp.easyvpn
p1068
(dp1069
g10
F0.40000000000000002
ssVcom.android.launcher
p1070
(dp1071
g10
F1.7
sssg105
(dp1072
Vcom.android.settings
p1073
(dp1074
g10
F5.3000000000000007
ssVcom.baidu.lbs.waimai
p1075
(dp1076
g10
F0.40000000000000002
ssVcom.taou.maimai
p1077
(dp1078
g10
F1.7
ssVcom.android.launcher
p1079
(dp1080
g10
F18.199999999999999
ssVcom.tencent.mtt
p1081
(dp1082
g10
F6.9000000000000012
ssVcom.tencent.mobileqq
p1083
(dp1084
g10
F7.1000000000000005
ssVcom.hupu.games
p1085
(dp1086
g10
F1.8
sssg107
(dp1087
Vfm.jihua.kecheng
p1088
(dp1089
g10
F2.2000000000000002
ssg127
(dp1090
g10
F0.90000000000000002
ssVcom.taou.maimai
p1091
(dp1092
g10
F7.2000000000000002
ssVcom.android.calendar
p1093
(dp1094
g10
F0.90000000000000002
ssVcom.android.settings
p1095
(dp1096
g10
F15.100000000000003
ssVcom.tencent.mm
p1097
(dp1098
g10
F2.7999999999999998
ssg23
(dp1099
g10
F1.1000000000000001
ssVcom.android.deskclock
p1100
(dp1101
g10
F3.7999999999999998
ssg77
(dp1102
g10
F1.3
ssVcom.android.launcher
p1103
(dp1104
g10
F68.40000000000002
ssVcom.huawei.android.totemweather
p1105
(dp1106
g10
F0.90000000000000002
ssg87
(dp1107
g10
F0.90000000000000002
ssVcom.tencent.mtt
p1108
(dp1109
g10
F6.1000000000000005
ssVcom.iflytek.ringdiyclient
p1110
(dp1111
g10
I1
ssVcom.tencent.mobileqq
p1112
(dp1113
g10
F23.699999999999999
ssg677
(dp1114
g10
F0.90000000000000002
sssg109
(dp1115
Vcom.android.settings
p1116
(dp1117
g10
F0.69999999999999996
ssVcom.tencent.mobileqq
p1118
(dp1119
g10
F5.0000000000000009
ssVcom.android.launcher
p1120
(dp1121
g10
F3
sssg111
(dp1122
Vcom.android.settings
p1123
(dp1124
g10
F0.40000000000000002
ssVcom.tencent.mm
p1125
(dp1126
g10
I1
ssVcom.android.launcher
p1127
(dp1128
g10
F1.7
ssVcom.huawei.appmarket
p1129
(dp1130
g10
F0.90000000000000002
sssg113
(dp1131
Vcom.android.settings
p1132
(dp1133
g10
F0.90000000000000002
ssg1030
(dp1134
g10
F1.3999999999999999
ssVme.ele
p1135
(dp1136
g10
F2.5
ssVcom.android.launcher
p1137
(dp1138
g10
F38.600000000000001
ssVcom.tencent.mtt
p1139
(dp1140
g10
F0.40000000000000002
ssVcom.tencent.mobileqq
p1141
(dp1142
g10
F5.2000000000000002
ssVcom.android.contacts
p1143
(dp1144
g10
F0.90000000000000002
ssg51
(dp1145
g10
I2
ssVcom.sankuai.meituan.takeoutnew
p1146
(dp1147
g10
F11.600000000000003
sssg115
(dp1148
sg117
(dp1149
Vcom.android.browser
p1150
(dp1151
g10
F0.40000000000000002
ssVcom.huawei.fans
p1152
(dp1153
g10
F1.8
ssVcom.tencent.mobileqq
p1154
(dp1155
g10
I1
ssVcom.android.launcher
p1156
(dp1157
g10
F3.4000000000000004
sssg119
(dp1158
Vcom.twitter.android
p1159
(dp1160
g10
F2.7000000000000002
ssVcom.facebook.orca
p1161
(dp1162
g10
I1
ssVcom.android.gallery3d
p1163
(dp1164
g10
F0.69999999999999996
ssVcom.google.android.youtube
p1165
(dp1166
g10
F0.69999999999999996
ssVcom.android.launcher
p1167
(dp1168
g10
F3
sssg121
(dp1169
Vcom.tencent.mtt
p1170
(dp1171
g10
F0.40000000000000002
ssVcom.tencent.mobileqq
p1172
(dp1173
g10
F11.300000000000001
ssVcom.android.launcher
p1174
(dp1175
g10
F5.8000000000000007
sssg123
(dp1176
Vcom.smartapp.easyvpn
p1177
(dp1178
g10
F0.40000000000000002
ssVcom.android.settings
p1179
(dp1180
g10
F5.2000000000000011
ssVcom.android.packageinstaller
p1181
(dp1182
g10
F3
ssg115
(dp1183
g10
F0.90000000000000002
ssVcom.twitter.android
p1184
(dp1185
g10
F2.2000000000000002
ssg714
(dp1186
g10
F1.7000000000000002
ssVcom.android.launcher
p1187
(dp1188
g10
F21.699999999999996
ssVcom.tencent.mtt
p1189
(dp1190
g10
F1.8
ssVcom.android.vpndialogs
p1191
(dp1192
g10
F5.8000000000000007
ssVfq.router2
p1193
(dp1194
g10
F0.40000000000000002
ssVcom.tencent.mobileqq
p1195
(dp1196
g10
F0.69999999999999996
sssg125
(dp1197
Vcom.huawei.hidisk
p1198
(dp1199
g10
F0.69999999999999996
ssVcom.android.settings
p1200
(dp1201
g10
F3.8999999999999999
ssVcom.netease.edu.study
p1202
(dp1203
g10
F0.40000000000000002
ssVcom.taou.maimai
p1204
(dp1205
g10
F0.90000000000000002
ssVcom.android.launcher
p1206
(dp1207
g10
F13.599999999999998
ssVcom.tencent.mobileqq
p1208
(dp1209
g10
F13.000000000000002
sssg127
(dp1210
Vcom.taou.maimai
p1211
(dp1212
g10
F0.69999999999999996
ssVcom.tencent.mobileqq
p1213
(dp1214
g10
I1
ssVcom.android.launcher
p1215
(dp1216
g10
F2.2999999999999998
sssg129
(dp1217
Vcom.android.settings
p1218
(dp1219
g10
F0.40000000000000002
ssVcom.tencent.mtt
p1220
(dp1221
g10
F0.90000000000000002
ssVcom.android.launcher
p1222
(dp1223
g10
F1.7
sssg131
(dp1224
g1100
(dp1225
g10
F0.40000000000000002
ssVcom.android.settings
p1226
(dp1227
g10
F1.3
ssg23
(dp1228
g10
F0.69999999999999996
ssVcom.netease.cloudmusic
p1229
(dp1230
g10
F1.8
ssVcom.android.launcher
p1231
(dp1232
g10
F4.0999999999999996
sssg133
(dp1233
g711
(dp1234
g10
F1.7
ssVcom.android.launcher
p1235
(dp1236
g10
F0.90000000000000002
sssg135
(dp1237
Vme.ele
p1238
(dp1239
g10
I1
ssg900
(dp1240
g10
F0.40000000000000002
ssVcom.tencent.mtt
p1241
(dp1242
g10
F0.90000000000000002
ssVcom.android.launcher
p1243
(dp1244
g10
F2.7000000000000002
sssg137
(dp1245
Vcom.android.browser
p1246
(dp1247
g10
F8.3000000000000025
ssg133
(dp1248
g10
F0.90000000000000002
ssg61
(dp1249
g10
F1.8
ssVcom.qiyi.video
p1250
(dp1251
g10
F13.599999999999998
ssg71
(dp1252
g10
F0.40000000000000002
ssVcom.android.deskclock
p1253
(dp1254
g10
F4.4000000000000004
ssVcom.taou.maimai
p1255
(dp1256
g10
F29.499999999999989
ssg33
(dp1257
g10
F3.6000000000000001
ssVcom.android.launcher
p1258
(dp1259
g10
F810.19999999999868
ssVcom.smartapp.easyvpn
p1260
(dp1261
g10
F2.5
ssVcom.hupu.games
p1262
(dp1263
g10
F8.6000000000000014
ssg45
(dp1264
g10
F2.2000000000000002
ssg47
(dp1265
g10
F0.40000000000000002
ssg49
(dp1266
g10
F76.700000000000003
ssVcom.eg.android.AlipayGphone
p1267
(dp1268
g10
F2.2999999999999998
ssg55
(dp1269
g10
F89.800000000000097
ssg659
(dp1270
g10
F2.7000000000000002
ssg59
(dp1271
g10
F13.199999999999999
ssg65
(dp1272
g10
F6.7999999999999998
ssg13
(dp1273
g10
I2
ssVcom.android.gallery3d
p1274
(dp1275
g10
F1.8
ssVcom.taobao.taobao
p1276
(dp1277
g10
F0.90000000000000002
ssVcom.twitter.android
p1278
(dp1279
g10
F4.5999999999999996
ssg1198
(dp1280
g10
F1.3
ssg79
(dp1281
g10
F2.6000000000000001
ssg578
(dp1282
g10
F0.40000000000000002
ssg442
(dp1283
g10
F1.3
ssg93
(dp1284
g10
F102.10000000000015
ssg63
(dp1285
g10
F4.7999999999999998
ssg97
(dp1286
g10
F2.1000000000000001
ssVandroid.zhibo8
p1287
(dp1288
g10
F4.3999999999999995
ssg107
(dp1289
g10
F23.199999999999999
ssg109
(dp1290
g10
F5.0999999999999996
ssVcom.baidu.lbs.waimai
p1291
(dp1292
g10
F3.4999999999999996
ssg121
(dp1293
g10
F10.899999999999999
ssVcom.instagram.android
p1294
(dp1295
g10
F0.40000000000000002
ssg882
(dp1296
g10
F0.90000000000000002
ssg285
(dp1297
g10
I1
ssg57
(dp1298
g10
F5.7000000000000011
ssVcom.tencent.mtt
p1299
(dp1300
g10
F196.70000000000022
ssVcom.huawei.vassistant
p1301
(dp1302
g10
F1.8
ssVcom.immomo.momo
p1303
(dp1304
g10
F1.3999999999999999
ssg147
(dp1305
g10
F0.40000000000000002
ssg149
(dp1306
g10
F129.70000000000041
ssVcom.xdf.recite
p1307
(dp1308
g10
F6
ssg153
(dp1309
g10
I1
ssVcom.liulishuo.engzo
p1310
(dp1311
g10
F0.90000000000000002
ssVcom.huawei.hwid
p1312
(dp1313
g10
F6.4000000000000012
ssg161
(dp1314
g10
F33.299999999999983
ssg165
(dp1315
g10
F22.799999999999997
ssg167
(dp1316
g10
F2.2000000000000002
ssVcom.android.camera
p1317
(dp1318
g10
F7
ssVfq.router2
p1319
(dp1320
g10
F1.7999999999999998
sssg139
(dp1321
g119
(dp1322
g10
I1
ssg1165
(dp1323
g10
F1.3
ssg1167
(dp1324
g10
F2.3999999999999999
ssVcom.android.settings
p1325
(dp1326
g10
F0.40000000000000002
sssg141
(dp1327
g103
(dp1328
g10
F0.40000000000000002
ssVcom.tencent.mobileqq
p1329
(dp1330
g10
F2.2999999999999998
ssVcom.android.launcher
p1331
(dp1332
g10
F14.599999999999998
ssg163
(dp1333
g10
F1.7
ssVcom.android.hwmirror
p1334
(dp1335
g10
F1.3
ssVcom.tencent.mtt
p1336
(dp1337
g10
F1.3
sssg143
(dp1338
Vcom.android.settings
p1339
(dp1340
g10
F0.90000000000000002
ssVcom.tencent.mobileqq
p1341
(dp1342
g10
F0.90000000000000002
ssVcom.netease.cloudmusic
p1343
(dp1344
g10
F0.40000000000000002
ssVcom.android.launcher
p1345
(dp1346
g10
F2.7000000000000002
sssg145
(dp1347
g21
(dp1348
g10
F0.69999999999999996
ssg139
(dp1349
g10
F1.3
ssg254
(dp1350
g10
F63.000000000000036
ssg1262
(dp1351
g10
F0.90000000000000002
ssVcom.smartapp.easyvpn
p1352
(dp1353
g10
F5.4000000000000004
ssVcom.sina.weibo
p1354
(dp1355
g10
F0.90000000000000002
ssg11
(dp1356
g10
F0.40000000000000002
ssVcom.zhihu.android
p1357
(dp1358
g10
F4
ssVcom.android.vpndialogs
p1359
(dp1360
g10
F10.800000000000002
ssVcom.android.packageinstaller
p1361
(dp1362
g10
F0.69999999999999996
ssg1163
(dp1363
g10
F1.3
ssVcom.taobao.taobao
p1364
(dp1365
g10
F0.90000000000000002
ssVcom.tencent.mtt
p1366
(dp1367
g10
F3.2999999999999998
ssVcom.tencent.mm
p1368
(dp1369
g10
F1.3
ssg119
(dp1370
g10
F3.3999999999999999
ssVcom.instagram.android
p1371
(dp1372
g10
F5.4000000000000004
ssVcom.android.email
p1373
(dp1374
g10
F2.2000000000000002
ssVcom.tencent.mobileqq
p1375
(dp1376
g10
F2.3999999999999999
ssg477
(dp1377
g10
I1
ssg372
(dp1378
g10
F4.7000000000000002
ssVcom.huawei.hwid
p1379
(dp1380
g10
F2.2999999999999998
ssg481
(dp1381
g10
F1.3
ssVcom.huawei.appmarket
p1382
(dp1383
g10
F5.2000000000000002
ssg171
(dp1384
g10
F0.90000000000000002
ssVfq.router2
p1385
(dp1386
g10
F1.3
sssg147
(dp1387
Vcom.android.deskclock
p1388
(dp1389
g10
F0.90000000000000002
ssVcom.taou.maimai
p1390
(dp1391
g10
F0.90000000000000002
ssVcom.android.launcher
p1392
(dp1393
g10
F2.7000000000000002
sssg149
(dp1394
g1246
(dp1395
g10
F6.6000000000000014
ssg962
(dp1396
g10
F1.8
ssg21
(dp1397
g10
F0.90000000000000002
ssVcom.qiyi.video
p1398
(dp1399
g10
F2.2000000000000002
ssg71
(dp1400
g10
F2.2999999999999998
ssg620
(dp1401
g10
F10.400000000000002
ssVcom.taou.maimai
p1402
(dp1403
g10
F4.2000000000000002
ssVcom.android.launcher
p1404
(dp1405
g10
F288.89999999999935
ssg1068
(dp1406
g10
F4.7000000000000002
ssg396
(dp1407
g10
F4.0999999999999996
ssg972
(dp1408
g10
F4.5
ssVcom.sina.weibo
p1409
(dp1410
g10
F1.7000000000000002
ssVcom.android.contacts
p1411
(dp1412
g10
F1.2000000000000002
ssVcom.zhihu.android
p1413
(dp1414
g10
F5.7000000000000002
ssg131
(dp1415
g10
F2.2000000000000002
ssg59
(dp1416
g10
F3.1000000000000001
ssg986
(dp1417
g10
F0.90000000000000002
ssVcom.taobao.taobao
p1418
(dp1419
g10
F0.90000000000000002
ssg250
(dp1420
g10
F3.9999999999999996
ssVcom.huawei.hidisk
p1421
(dp1422
g10
F0.90000000000000002
ssVcom.android.video
p1423
(dp1424
g10
F0.40000000000000002
ssg1108
(dp1425
g10
F40.399999999999956
ssg928
(dp1426
g10
F0.40000000000000002
ssVcom.tencent.mm
p1427
(dp1428
g10
F15.000000000000005
ssVcom.sankuai.meituan.takeoutnew
p1429
(dp1430
g10
F1.2000000000000002
ssg315
(dp1431
g10
F3.1000000000000001
ssVcom.netease.cloudmusic
p1432
(dp1433
g10
F3.5
ssg109
(dp1434
g10
I1
ssVcom.baidu.lbs.waimai
p1435
(dp1436
g10
F3.6000000000000001
ssg119
(dp1437
g10
F0.40000000000000002
ssVcom.instagram.android
p1438
(dp1439
g10
F1.1000000000000001
ssg23
(dp1440
g10
F2.3999999999999999
ssVcom.android.vpndialogs
p1441
(dp1442
g10
F10.700000000000001
ssVcom.android.email
p1443
(dp1444
g10
F6.2000000000000002
ssg442
(dp1445
g10
F0.40000000000000002
ssVcom.tencent.mobileqq
p1446
(dp1447
g10
F46.999999999999957
ssVcom.huawei.vassistant
p1448
(dp1449
g10
F1.3
ssg139
(dp1450
g10
F0.69999999999999996
ssg147
(dp1451
g10
F0.90000000000000002
ssg25
(dp1452
g10
F0.90000000000000002
ssVcom.xdf.recite
p1453
(dp1454
g10
F1.7000000000000002
ssg157
(dp1455
g10
F4.2000000000000002
ssg792
(dp1456
g10
F2.6000000000000001
ssg165
(dp1457
g10
F8.6000000000000032
ssVcom.huawei.android.internal.app
p1458
(dp1459
g10
F0.69999999999999996
ssg751
(dp1460
g10
F1.1000000000000001
ssg171
(dp1461
g10
I2
ssVfq.router2
p1462
(dp1463
g10
F1.3
sssg151
(dp1464
Vcom.android.launcher
p1465
(dp1466
g10
F25.799999999999994
ssVcom.android.settings
p1467
(dp1468
g10
F7.1000000000000014
ssg155
(dp1469
g10
F1.7000000000000002
ssVcom.android.deskclock
p1470
(dp1471
g10
F0.40000000000000002
ssg111
(dp1472
g10
F0.90000000000000002
ssg1022
(dp1473
g10
F3.3999999999999995
ssg95
(dp1474
g10
F0.90000000000000002
ssVcom.tencent.mobileqq
p1475
(dp1476
g10
F9.2000000000000011
sssg153
(dp1477
Vcom.tencent.mobileqq
p1478
(dp1479
g10
I1
ssVcom.android.launcher
p1480
(dp1481
g10
F1.3
ssVcom.huawei.appmarket
p1482
(dp1483
g10
F0.69999999999999996
sssg155
(dp1484
g1475
(dp1485
g10
F0.40000000000000002
ssVcom.tencent.mm
p1486
(dp1487
g10
F2.7000000000000002
ssVcom.android.launcher
p1488
(dp1489
g10
F3.3999999999999999
ssg1018
(dp1490
g10
F1.3
sssg157
(dp1491
g143
(dp1492
g10
F0.69999999999999996
ssVcom.android.vpndialogs
p1493
(dp1494
g10
F2
ssg105
(dp1495
g10
F0.69999999999999996
ssg175
(dp1496
g10
F0.69999999999999996
ssVcom.android.settings
p1497
(dp1498
g10
F3
ssg1409
(dp1499
g10
F0.40000000000000002
ssVcom.tencent.mm
p1500
(dp1501
g10
F2
ssVfq.router2
p1502
(dp1503
g10
F1.3
ssg125
(dp1504
g10
F0.69999999999999996
ssVcom.android.video
p1505
(dp1506
g10
I1
ssVcom.twitter.android
p1507
(dp1508
g10
F0.90000000000000002
ssVcom.taou.maimai
p1509
(dp1510
g10
F0.69999999999999996
ssVcom.android.mediacenter
p1511
(dp1512
g10
I1
ssVcom.android.launcher
p1513
(dp1514
g10
F34.199999999999982
ssVcom.huawei.appmarket
p1515
(dp1516
g10
F21.399999999999999
ssg1053
(dp1517
g10
F0.69999999999999996
ssVcom.tencent.mtt
p1518
(dp1519
g10
F6.5000000000000009
ssVcom.huawei.fans
p1520
(dp1521
g10
I1
ssg1208
(dp1522
g10
F4.1000000000000005
ssVcom.android.packageinstaller
p1523
(dp1524
g10
F1.3
sssg159
(dp1525
Vcom.android.settings
p1526
(dp1527
g10
F0.90000000000000002
ssVcom.baidu.tieba
p1528
(dp1529
g10
F0.40000000000000002
ssVcom.android.launcher
p1530
(dp1531
g10
F18.199999999999999
ssVcom.huawei.appmarket
p1532
(dp1533
g10
F0.40000000000000002
ssVcom.tencent.mtt
p1534
(dp1535
g10
F1.7000000000000002
ssVcom.tencent.mm
p1536
(dp1537
g10
F1.3
ssVcom.android.contacts
p1538
(dp1539
g10
F1.8
ssVcom.tencent.mobileqq
p1540
(dp1541
g10
F3.1000000000000001
sssg161
(dp1542
g55
(dp1543
g10
F1.3
ssVcom.android.email
p1544
(dp1545
g10
F0.40000000000000002
ssg778
(dp1546
g10
F0.90000000000000002
ssVcom.android.browser
p1547
(dp1548
g10
F0.40000000000000002
ssVcom.tencent.mobileqq
p1549
(dp1550
g10
F37.699999999999974
ssVcom.huawei.appmarket
p1551
(dp1552
g10
F1.3
ssg1421
(dp1553
g10
F0.40000000000000002
ssVcom.android.contacts
p1554
(dp1555
g10
F0.40000000000000002
ssVcom.huawei.hwid
p1556
(dp1557
g10
F0.69999999999999996
ssVcom.netease.newsreader.activity
p1558
(dp1559
g10
F0.40000000000000002
ssVcom.android.launcher
p1560
(dp1561
g10
F50.700000000000017
ssVcom.android.settings
p1562
(dp1563
g10
F8.4000000000000021
ssVcom.tencent.mtt
p1564
(dp1565
g10
F3.5
ssVcom.android.vpndialogs
p1566
(dp1567
g10
F1.3
ssg93
(dp1568
g10
F1.3
ssVcom.hupu.games
p1569
(dp1570
g10
F0.40000000000000002
sssg163
(dp1571
g520
(dp1572
g10
I1
ssVcom.huawei.vassistant
p1573
(dp1574
g10
F2.1000000000000001
ssVcom.android.launcher
p1575
(dp1576
g10
F3.7000000000000002
ssVcom.android.settings
p1577
(dp1578
g10
F1.3
sssg165
(dp1579
g467
(dp1580
g10
F1.8
ssg33
(dp1581
g10
F0.40000000000000002
ssg125
(dp1582
g10
F1.7000000000000002
ssg1509
(dp1583
g10
F2.2000000000000002
ssg1513
(dp1584
g10
F85.600000000000065
ssVcom.smartapp.easyvpn
p1585
(dp1586
g10
I1
ssg83
(dp1587
g10
F0.69999999999999996
ssg1443
(dp1588
g10
F1.3
ssg175
(dp1589
g10
F1.3
ssg1523
(dp1590
g10
F3.1999999999999997
ssg35
(dp1591
g10
F0.90000000000000002
ssg145
(dp1592
g10
F2.1000000000000001
ssg910
(dp1593
g10
F0.40000000000000002
ssg1518
(dp1594
g10
F18.899999999999999
ssg343
(dp1595
g10
F4.5000000000000009
ssg105
(dp1596
g10
F1.3
ssVcom.netease.cloudmusic
p1597
(dp1598
g10
F0.90000000000000002
ssg1493
(dp1599
g10
F1.8
ssVcom.tencent.mobileqq
p1600
(dp1601
g10
F16.100000000000001
ssg101
(dp1602
g10
F1.3
ssg143
(dp1603
g10
F1.3
ssg1123
(dp1604
g10
F6.200000000000002
ssg157
(dp1605
g10
F33.299999999999997
ssg1016
(dp1606
g10
F0.40000000000000002
ssg1307
(dp1607
g10
F1.3
ssg1502
(dp1608
g10
F0.69999999999999996
sssg167
(dp1609
Vcom.zhihu.android
p1610
(dp1611
g10
F2.2000000000000002
ssg818
(dp1612
g10
F0.40000000000000002
ssg808
(dp1613
g10
F0.69999999999999996
ssVcom.huawei.hidisk
p1614
(dp1615
g10
F4.5
ssg820
(dp1616
g10
F9.6000000000000014
ssVcom.android.launcher
p1617
(dp1618
g10
F4.2000000000000002
ssg1055
(dp1619
g10
F0.69999999999999996
ssVcom.tencent.mobileqq
p1620
(dp1621
g10
F3.7999999999999998
sssg169
(dp1622
Vcom.android.settings
p1623
(dp1624
g10
F1.3999999999999999
ssg1274
(dp1625
g10
F1.3
ssg746
(dp1626
g10
F1.3
ssVcom.android.fileexplorer
p1627
(dp1628
g10
F0.69999999999999996
ssVcom.android.launcher
p1629
(dp1630
g10
F11.199999999999999
ssg538
(dp1631
g10
F0.40000000000000002
ssVfm.jihua.kecheng
p1632
(dp1633
g10
F0.90000000000000002
ssVcom.tencent.mobileqq
p1634
(dp1635
g10
F7.1999999999999993
sssg171
(dp1636
g250
(dp1637
g10
F0.69999999999999996
ssg252
(dp1638
g10
F2.5999999999999996
ssVcom.android.email
p1639
(dp1640
g10
F0.90000000000000002
ssg21
(dp1641
g10
I1
ssg254
(dp1642
g10
F0.40000000000000002
sssg173
(dp1643
Vcom.android.email
p1644
(dp1645
g10
F2.6000000000000001
ssg1371
(dp1646
g10
F2.5
ssVcom.taou.maimai
p1647
(dp1648
g10
F1.7000000000000002
ssVcom.android.packageinstaller
p1649
(dp1650
g10
F1.7000000000000002
ssg115
(dp1651
g10
F0.40000000000000002
ssg948
(dp1652
g10
F6.5000000000000009
ssVcom.huawei.hwid
p1653
(dp1654
g10
F0.40000000000000002
ssVcom.android.launcher
p1655
(dp1656
g10
F29.399999999999988
ssg795
(dp1657
g10
F0.69999999999999996
ssVcom.tencent.mtt
p1658
(dp1659
g10
F0.40000000000000002
ssVcom.android.vpndialogs
p1660
(dp1661
g10
I11
ssVcom.tencent.mobileqq
p1662
(dp1663
g10
F3
sssg175
(dp1664
Vcom.android.settings
p1665
(dp1666
g10
F0.90000000000000002
ssVcom.android.launcher
p1667
(dp1668
g10
F1.7
ssg25
(dp1669
g10
F0.40000000000000002
ssssS'edge'
p1670
g181
sS'graph'
p1671
(dp1672
sS'adjlist_dict_factory'
p1673
g178
sS'adj'
p1674
g181
sS'pred'
p1675
(dp1676
g8
(dp1677
Vcom.huawei.fans
p1678
g946
sg17
g243
sVcom.android.settings
p1679
g1395
sVcom.android.packageinstaller
p1680
g699
sVcom.biganiseed.reindeer
p1681
g1151
sg1418
g762
sVcom.android.vpndialogs
p1682
g775
sVcom.huawei.hidisk
p1683
g807
sVcom.baidu.tieba
p1684
g1548
sVcom.android.launcher
p1685
g378
sg485
g1580
sg63
g690
sVcom.tencent.mtt
p1686
g879
sg1585
g468
sg194
g961
sVcom.android.contacts
p1687
g557
sVcom.tencent.mobileqq
p1688
g1247
ssg11
(dp1689
Vcom.twitter.android
p1690
g1356
sg1262
g518
sVcom.android.launcher
p1691
g379
ssg13
(dp1692
g1198
g815
sVcom.tencent.mobileqq
p1693
g1273
sVcom.android.launcher
p1694
g380
ssg15
(dp1695
Vcom.android.launcher
p1696
g393
ssg17
(dp1697
Vcom.android.browser
p1698
g189
sVcom.android.launcher
p1699
g382
ssg19
(dp1700
Vcom.android.launcher
p1701
g383
ssg21
(dp1702
g145
g1348
sg372
g1397
sg171
g1641
sg375
g384
ssg23
(dp1703
g1229
g1099
sg1226
g1440
sg1100
g295
sVcom.android.launcher
p1704
g385
sVcom.tencent.mtt
p1705
g883
sg1110
g1228
sVcom.tencent.mobileqq
p1706
g1296
ssg25
(dp1707
Vcom.android.deskclock
p1708
g290
sg1665
g1452
sVcom.netease.cloudmusic
p1709
g1106
sg1667
g386
sg175
g1669
ssg27
(dp1710
Vcom.android.browser
p1711
g200
sg962
g363
sVcom.netease.cloudmusic
p1712
g1101
sVcom.zhihu.android
p1713
g621
sg147
g1389
sVcom.android.settings
p1714
g1401
sVcom.android.packageinstaller
p1715
g703
sVcom.tencent.mm
p1716
g965
sg294
g261
sg298
g388
sVcom.xdf.recite
p1717
g1471
sVcom.tencent.mtt
p1718
g885
sg270
g1225
sVcom.tencent.mobileqq
p1719
g1254
sVcom.android.contacts
p1720
g569
sg588
g505
ssg29
(dp1721
Vcom.android.browser
p1722
g211
sVcom.record.myLife
p1723
g365
sg922
g1205
sg702
g297
sVcom.android.launcher
p1724
g389
sg889
g1612
sg41
g492
sVcom.hupu.games
p1725
g507
sVcom.smartapp.easyvpn
p1726
g478
sVcom.android.contacts
p1727
g563
sVcom.zhihu.android
p1728
g623
sg45
g527
sVcom.hipu.yidian
p1729
g671
sVme.ele
p1730
g834
sVcom.taobao.taobao
p1731
g766
sg475
g1377
sg1614
g819
sg908
g1057
sVcom.tencent.mtt
p1732
g886
sVcom.tencent.mm
p1733
g967
sVcom.sankuai.meituan.takeoutnew
p1734
g1031
sVandroid.zhibo8
p1735
g1078
sVcom.netease.cloudmusic
p1736
g1092
sVcom.baidu.lbs.waimai
p1737
g1134
sg285
g1212
sVcom.android.vpndialogs
p1738
g790
sVcom.tencent.mobileqq
p1739
g1256
sVcom.android.calendar
p1740
g1391
sVcom.android.settings
p1741
g1403
sVcom.huawei.hwid
p1742
g1510
sg1532
g1583
sg1385
g1648
ssg31
(dp1743
Vcom.taou.maimai
p1744
g328
sVcom.tencent.mtt
p1745
g887
sVcom.android.launcher
p1746
g390
ssg33
(dp1747
Vcom.android.settings
p1748
g1396
sg360
g701
sVcom.android.deskclock
p1749
g284
sVcom.android.launcher
p1750
g391
sg1482
g1581
sVcom.tencent.mm
p1751
g963
sVcom.tencent.mobileqq
p1752
g1257
ssg35
(dp1753
g139
g1323
sVcom.android.browser
p1754
g198
sg119
g1166
sVcom.android.launcher
p1755
g392
sVcom.huawei.appmarket
p1756
g1591
ssg37
(dp1757
Vcom.android.browser
p1758
g207
sg11
g224
sg13
g229
sg930
g1332
sVcom.android.notepad
p1759
g240
sg17
g247
sg93
g969
sg21
g255
sg23
g265
sg25
g279
sg27
g299
sg29
g334
sg31
g356
sg33
g367
sg35
g376
sVcom.shanbay.listen
p1760
g1128
sg39
g484
sg41
g496
sg43
g509
sg45
g531
sg47
g548
sg49
g575
sVcom.eg.android.AlipayGphone
p1761
g599
sg53
g610
sg55
g627
sg57
g654
sg175
g1668
sg61
g687
sVcom.microsoft.office.officehub
p1762
g696
sg65
g707
sg67
g740
sg69
g750
sg99
g1050
sg524
g768
sg75
g794
sg77
g823
sg79
g836
sg81
g853
sg83
g862
sVcom.android.phone
p1763
g867
sg87
g876
sg89
g881
sg91
g953
sVcom.tencent.mobileqq
p1764
g1259
sg95
g1025
sg97
g1034
sg101
g1063
sg103
g1071
sg105
g1080
sg107
g1104
sg109
g1121
sg113
g1138
sg117
g1157
sg119
g1168
sg121
g1175
sg479
g1188
sg125
g1207
sVcom.huawei.lcagent
p1765
g1216
sg129
g1223
sg131
g1232
sg133
g1236
sg442
g1244
sg71
g759
sg139
g1324
sVcom.hipu.yidian
p1766
g674
sg1303
g1346
sg250
g1350
sg147
g1393
sVcom.android.settings
p1767
g1405
sg151
g1466
sg153
g1481
sg1012
g1489
sg157
g1514
sg159
g1531
sg161
g1561
sg163
g1576
sg165
g1584
sg460
g1618
sg169
g1630
sg171
g1642
sg173
g1656
ssg39
(dp1768
g103
g1069
sVcom.android.email
p1769
g640
sg1066
g1406
sg1523
g708
sg326
g1353
sVcom.taou.maimai
p1770
g338
sg1371
g1178
sVcom.android.launcher
p1771
g394
sg485
g1586
sVcom.tencent.mtt
p1772
g893
sg75
g799
sVcom.tencent.mobileqq
p1773
g1261
ssg41
(dp1774
Vcom.android.launcher
p1775
g395
ssg43
(dp1776
Vandroid.zhibo8
p1777
g1086
sVcom.android.settings
p1778
g1407
sg1202
g685
sg1690
g1351
sVcom.taou.maimai
p1779
g348
sVcom.baidu.tieba
p1780
g1570
sVcom.android.launcher
p1781
g397
sVcom.tencent.mtt
p1782
g892
sg553
g971
sg1554
g589
sg1662
g1263
ssg45
(dp1783
Vcom.netease.cloudmusic
p1784
g1089
sg839
g1264
sg974
g552
sVcom.android.deskclock
p1785
g305
sVcom.taou.maimai
p1786
g314
sg990
g838
sVcom.android.launcher
p1787
g398
sVcom.android.settings
p1788
g1408
sVcom.android.camera
p1789
g1633
sVcom.tencent.mm
p1790
g973
ssg47
(dp1791
Vcom.android.browser
p1792
g184
sVcom.android.settings
p1793
g1410
sVcom.tencent.mm
p1794
g975
sVcom.twitter.android
p1795
g1355
sVcom.huawei.hwid
p1796
g1499
sVcom.android.launcher
p1797
g399
sVcom.tencent.mtt
p1798
g894
sVcom.tencent.mobileqq
p1799
g1265
ssg49
(dp1800
Vcom.android.browser
p1801
g219
sVcom.adobe.reader
p1802
g233
sg666
g1114
sVcom.hipu.yidian
p1803
g678
sVcom.tencent.mm
p1804
g977
sVcom.android.packageinstaller
p1805
g710
sVcom.baidu.lbs.waimai
p1806
g1144
sg568
g309
sVcom.android.keyguard
p1807
g1539
sVcom.baidu.tieba
p1808
g1555
sVcom.android.launcher
p1809
g400
sg85
g865
sg43
g517
sVcom.android.email
p1810
g664
sVcom.tencent.mobileqq
p1811
g1266
sVcom.tencent.mtt
p1812
g896
sg1761
g605
sVcom.android.settings
p1813
g1412
ssg51
(dp1814
Vcom.tencent.mobileqq
p1815
g1268
sg831
g1145
sg79
g843
sg1033
g401
sVcom.tencent.mm
p1816
g979
sVcom.sankuai.meituan.takeoutnew
p1817
g1040
ssg53
(dp1818
Vcom.android.launcher
p1819
g402
ssg55
(dp1820
Vcom.android.vpndialogs
p1821
g781
sg47
g544
sg616
g712
sg633
g981
sVcom.twitter.android
p1822
g1358
sVcom.taou.maimai
p1823
g312
sVcom.baidu.tieba
p1824
g1543
sVcom.android.launcher
p1825
g403
sVcom.android.settings
p1826
g1414
sg167
g1611
sVcom.tencent.mtt
p1827
g898
sVcom.smartapp.easyvpn
p1828
g472
sVcom.tencent.mobileqq
p1829
g1269
sg133
g1234
ssg57
(dp1830
Vcom.android.vpndialogs
p1831
g777
sg1123
g1444
sg647
g1645
sVcom.android.contacts
p1832
g559
sVcom.twitter.android
p1833
g1374
sVcom.taou.maimai
p1834
g342
sVfm.jihua.kecheng
p1835
g535
sVcom.android.launcher
p1836
g404
sg1129
g1588
sVcom.baidu.tieba
p1837
g1545
sVcom.tencent.mtt
p1838
g899
sVcom.smartapp.easyvpn
p1839
g470
sVcom.tencent.mm
p1840
g1009
sg859
g1640
sVcom.tencent.mobileqq
p1841
g1298
ssg59
(dp1842
g1767
g1416
sg345
g1240
sVcom.tencent.mobileqq
p1843
g1271
sg1241
g901
sVcom.android.launcher
p1844
g405
ssg61
(dp1845
g506
g321
sVcom.tencent.mobileqq
p1846
g1249
sg331
g1203
sVcom.android.launcher
p1847
g406
ssg63
(dp1848
Vcom.tencent.mm
p1849
g970
sVcom.tencent.mobileqq
p1850
g1285
sg695
g408
sg689
g205
ssg65
(dp1851
g945
g193
sg196
g783
sg714
g813
sg800
g1650
sVcom.tencent.mm
p1852
g985
sVcom.twitter.android
p1853
g1362
sVcom.huawei.hwid
p1854
g1524
sVcom.instagram.android
p1855
g1182
sVcom.android.launcher
p1856
g409
sVcom.huawei.appmarket
p1857
g1590
sVcom.taou.maimai
p1858
g320
sVcom.zhihu.android
p1859
g617
sVcom.tencent.mtt
p1860
g902
sg1678
g947
sg1446
g1272
sg33
g361
ssg67
(dp1861
Vcom.android.launcher
p1862
g410
ssg69
(dp1863
g1159
g1363
sVcom.android.fileexplorer
p1864
g1164
sg289
g277
sg1368
g987
sg1708
g293
sg273
g817
sg1357
g619
sVcom.android.launcher
p1865
g411
sVcom.android.settings
p1866
g1417
sVcom.android.camera
p1867
g1625
sg631
g786
sVcom.tencent.mobileqq
p1868
g1275
ssg71
(dp1869
Vcom.android.settings
p1870
g1400
sVcom.tencent.mobileqq
p1871
g1252
sVcom.android.launcher
p1872
g412
ssg73
(dp1873
g763
g1419
sVcom.twitter.android
p1874
g1365
sVcom.taou.maimai
p1875
g325
sVcom.android.launcher
p1876
g413
sVfm.jihua.kecheng
p1877
g525
sVcom.tencent.mobileqq
p1878
g1277
ssg75
(dp1879
g1357
g632
sVcom.android.email
p1880
g660
sg945
g197
sVcom.android.settings
p1881
g1442
sg1523
g724
sg514
g983
sg173
g1661
sVcom.android.contacts
p1882
g585
sg326
g1360
sVcom.huawei.hwid
p1883
g1494
sg1438
g1192
sg481
g1567
sg1771
g414
sg335
g1599
sg578
g872
sVcom.tencent.mtt
p1884
g924
sg39
g489
sg1375
g1270
sg1678
g956
ssg77
(dp1885
Vcom.instagram.android
p1886
g1186
sVcom.netease.cloudmusic
p1887
g1102
sg289
g274
sVcom.android.packageinstaller
p1888
g715
sg69
g748
sg230
g1199
sVcom.android.video
p1889
g1043
sVcom.baidu.tieba
p1890
g1553
sVcom.android.launcher
p1891
g415
sVcom.android.settings
p1892
g1422
sg889
g1615
sg825
g907
sg226
g1280
ssg79
(dp1893
Vcom.tencent.mobileqq
p1894
g1281
sVcom.baidu.lbs.waimai
p1895
g1136
sVcom.android.launcher
p1896
g416
sg135
g1239
sVcom.tencent.mm
p1897
g991
sVcom.tencent.mtt
p1898
g904
sVcom.eg.android.AlipayGphone
p1899
g597
sg97
g1032
ssg81
(dp1900
Vcom.huawei.vassistant
p1901
g1335
sVcom.android.launcher
p1902
g417
ssg83
(dp1903
g101
g1064
sVcom.android.launcher
p1904
g418
sg655
g1587
ssg85
(dp1905
sg87
(dp1906
Vcom.netease.cloudmusic
p1907
g1107
sVcom.tencent.mm
p1908
g992
sVcom.android.launcher
p1909
g419
sVcom.huawei.appmarket
p1910
g1593
sVcom.tencent.mtt
p1911
g911
sVcom.tencent.mobileqq
p1912
g1282
sVcom.android.contacts
p1913
g579
ssg89
(dp1914
g878
g213
sVcom.android.thememanager
p1915
g269
sg1105
g276
sg1253
g303
sVcom.taou.maimai
p1916
g340
sg37
g420
sg460
g1619
sg1725
g513
sg972
g533
sVcom.android.contacts
p1917
g583
sVcom.zhihu.android
p1918
g630
sg39
g488
sg65
g726
sg816
g754
sg1730
g842
sVcom.taobao.taobao
p1919
g770
sg475
g1367
sg77
g826
sg820
g1056
sg81
g850
sg345
g1242
sg129
g1221
sVcom.tencent.mm
p1920
g994
sVandroid.zhibo8
p1921
g1082
sg1432
g1109
sg1806
g1140
sg121
g1171
sg1438
g1190
sg75
g797
sVcom.tencent.mobileqq
p1922
g1300
sg469
g658
sg1448
g1337
sg1095
g1425
sg157
g1519
sVcom.android.keyguard
p1923
g1535
sVcom.baidu.tieba
p1924
g1565
sg165
g1594
sVfq.router2
p1925
g1659
ssg91
(dp1926
g945
g215
sVcom.android.settings
p1927
g1426
sg192
g718
sg950
g1521
sVcom.android.launcher
p1928
g421
sg117
g1153
sVcom.tencent.mtt
p1929
g929
sg196
g802
ssg93
(dp1930
Vcom.android.browser
p1931
g195
sg1560
g422
sVcom.android.deskclock
p1932
g292
sg1509
g344
sg111
g1126
sg1762
g692
sVcom.hupu.games
p1933
g515
sg313
g537
sg1409
g554
sVcom.android.contacts
p1934
g567
sg1899
g603
sg543
g634
sVcom.android.email
p1935
g646
sVcom.hipu.yidian
p1936
g676
sVcom.twitter.android
p1937
g1369
sVme.ele
p1938
g830
sVcom.tencent.mtt
p1939
g914
sg1549
g1284
sg95
g1023
sg220
g1038
sVcom.netease.cloudmusic
p1940
g1098
sg151
g1473
sVcom.android.vpndialogs
p1941
g785
sVcom.android.settings
p1942
g1428
sg155
g1487
sg1379
g1501
sVcom.android.keyguard
p1943
g1537
sg161
g1568
sg1515
g1595
sVcom.android.notepad
p1944
g236
ssg95
(dp1945
g1022
g998
sVcom.android.launcher
p1946
g423
sg151
g1474
ssg97
(dp1947
Vcom.android.browser
p1948
g221
sVcom.sankuai.meituan
p1949
g742
sVcom.android.settings
p1950
g1430
sVcom.tencent.mm
p1951
g1000
sVcom.baidu.lbs.waimai
p1952
g1147
sVme.ele
p1953
g845
sVcom.android.launcher
p1954
g424
sg1894
g1286
sVcom.android.contacts
p1955
g590
sg1039
g607
ssg99
(dp1956
Vcom.huawei.hidisk
p1957
g821
sg1892
g1424
sg1047
g1506
sVcom.android.launcher
p1958
g425
sg460
g1616
sVcom.tencent.mtt
p1959
g909
ssg101
(dp1960
g657
g927
sg83
g856
sg1904
g426
sg655
g1602
ssg103
(dp1961
g1334
g851
sVcom.huawei.vassistant
p1962
g1328
sVcom.android.launcher
p1963
g427
ssg105
(dp1964
Vcom.taou.maimai
p1965
g316
sVcom.android.settings
p1966
g1431
sg319
g721
sVcom.tencent.mm
p1967
g1003
sVcom.huawei.hwid
p1968
g1495
sVcom.android.launcher
p1969
g428
sVcom.huawei.appmarket
p1970
g1596
sg1081
g916
sg771
g1288
ssg107
(dp1971
g1711
g188
sVcom.android.vpndialogs
p1972
g779
sg932
g1344
sg1803
g667
sg1095
g1433
sVcom.tencent.mm
p1973
g1005
sVcom.android.deskclock
p1974
g288
sg792
g1546
sVcom.android.launcher
p1975
g429
sVcom.huawei.appmarket
p1976
g1598
sVcom.tencent.mtt
p1977
g918
sg131
g1230
sVcom.tencent.mobileqq
p1978
g1289
ssg109
(dp1979
Vcom.android.settings
p1980
g1434
sVcom.tencent.mobileqq
p1981
g1290
sVcom.android.launcher
p1982
g430
ssg111
(dp1983
Vcom.tencent.mtt
p1984
g888
sVcom.android.launcher
p1985
g381
sg936
g1472
ssg113
(dp1986
g1948
g186
sVandroid.zhibo8
p1987
g1076
sg1950
g1436
sVcom.android.packageinstaller
p1988
g723
sg67
g738
sVcom.android.video
p1989
g1046
sVcom.huawei.hidisk
p1990
g809
sg79
g832
sVcom.android.launcher
p1991
g431
sVcom.huawei.android.internal.app
p1992
g1613
sVcom.tencent.mtt
p1993
g920
sg1141
g1292
sVcom.eg.android.AlipayGphone
p1994
g595
sg97
g1029
ssg115
(dp1995
Vcom.instagram.android
p1996
g1183
sVfq.router2
p1997
g1651
sVcom.android.launcher
p1998
g432
ssg117
(dp1999
g774
g203
sg1680
g734
sVcom.android.launcher
p2000
g433
ssg119
(dp2001
g250
g1370
sg252
g1437
sg751
g1628
sg254
g434
sg139
g1322
ssg121
(dp2002
Vcom.baidu.tieba
p2003
g1559
sVcom.tencent.mobileqq
p2004
g1293
sVcom.android.launcher
p2005
g435
sVcom.taou.maimai
p2006
g323
ssg123
(dp2007
g1644
g652
sVcom.smartapp.easyvpn
p2008
g480
sVcom.android.settings
p2009
g1439
sVcom.android.packageinstaller
p2010
g713
sg948
g1372
sVcom.android.launcher
p2011
g436
sVcom.tencent.mtt
p2012
g921
sVcom.android.vpndialogs
p2013
g791
sg957
g1646
sg684
g501
sVcom.tencent.mobileqq
p2014
g1295
ssg125
(dp2015
g1204
g332
sg1200
g1399
sg13
g231
sg938
g1504
sVcom.android.launcher
p2016
g437
sVcom.huawei.appmarket
p2017
g1582
sVcom.tencent.mtt
p2018
g923
sg1208
g1251
ssg127
(dp2019
Vcom.android.deskclock
p2020
g286
sVcom.tencent.mobileqq
p2021
g1297
sVcom.netease.cloudmusic
p2022
g1090
sVcom.android.launcher
p2023
g438
ssg129
(dp2024
Vcom.android.packageinstaller
p2025
g727
sVcom.tencent.mtt
p2026
g912
sVcom.android.launcher
p2027
g439
ssg131
(dp2028
Vcom.android.settings
p2029
g1415
sg23
g271
sg913
g1001
sg1229
g1111
sVcom.android.launcher
p2030
g440
ssg133
(dp2031
g1859
g635
sg616
g716
sVcom.tencent.mobileqq
p2032
g1248
sVcom.android.launcher
p2033
g441
ssg135
(dp2034
Vcom.android.settings
p2035
g1445
sVme.ele
p2036
g837
sg661
g1283
sVcom.android.launcher
p2037
g443
sVcom.taou.maimai
p2038
g346
ssg137
(dp2039
g1801
g217
sg700
g369
sg1759
g238
sg17
g245
sg125
g1209
sg1253
g307
sg1744
g350
sg31
g354
sVcom.android.launcher
p2040
g444
sg204
g694
sg41
g494
sg1933
g503
sVfm.jihua.kecheng
p2041
g541
sg47
g546
sg49
g587
sg1761
g593
sg55
g637
sg584
g804
sVcom.hipu.yidian
p2042
g680
sg360
g719
sg13
g227
sVcom.android.video
p2043
g1059
sg1919
g772
sg1833
g1376
sg1198
g828
sVme.ele
p2044
g840
sVcom.biganiseed.reindeer
p2045
g1155
sVcom.tencent.mtt
p2046
g926
sg93
g996
sg220
g1028
sg105
g1084
sg107
g1113
sg109
g1119
sVcom.baidu.lbs.waimai
p2047
g1142
sg121
g1173
sVcom.instagram.android
p2048
g1196
sg285
g1214
sg1443
g662
sVcom.huawei.vassistant
p2049
g1330
sg1303
g1342
sg153
g1479
sVcom.android.settings
p2050
g1447
sg1018
g1476
sVcom.liulishuo.engzo
p2051
g1485
sg938
g1522
sVcom.android.keyguard
p2052
g1541
sg161
g1550
sVcom.huawei.appmarket
p2053
g1601
sg167
g1621
sg169
g1635
sg1319
g1663
ssg139
(dp2054
g250
g1349
sg252
g1450
sg21
g256
sg254
g445
sg119
g1162
ssg141
(dp2055
g1577
g1449
sVcom.android.contacts
p2056
g561
sVcom.android.launcher
p2057
g446
sVcom.tencent.mtt
p2058
g931
sVcom.tencent.mobileqq
p2059
g1302
sg163
g1574
ssg143
(dp2060
Vcom.huawei.hwid
p2061
g1492
sVcom.tencent.mtt
p2062
g933
sVcom.tencent.mobileqq
p2063
g1304
sVcom.android.launcher
p2064
g447
sVcom.huawei.appmarket
p2065
g1603
ssg145
(dp2066
g1653
g1508
sVcom.zhihu.android
p2067
g613
sVcom.android.email
p2068
g650
sVcom.android.vpndialogs
p2069
g788
sg957
g1652
sg1627
g1160
sg372
g1420
sVcom.tencent.mm
p2070
g989
sg986
g747
sg21
g251
sg35
g371
sVcom.huawei.fans
p2071
g949
sg477
g327
sg2048
g1185
sVcom.android.launcher
p2072
g448
sg1756
g1592
sg751
g1626
sg171
g1637
sg1726
g476
sVcom.tencent.mobileqq
p2073
g1279
sVcom.tencent.mtt
p2074
g905
ssg147
(dp2075
Vcom.android.settings
p2076
g1451
sVcom.android.email
p2077
g642
sVcom.tencent.mobileqq
p2078
g1305
sVcom.netease.cloudmusic
p2079
g1094
sVcom.android.launcher
p2080
g449
ssg149
(dp2081
Vcom.android.browser
p2082
g191
sVcom.record.myLife
p2083
g359
sg1258
g450
sg1202
g683
sg21
g253
sg23
g259
sg71
g757
sVcom.android.deskclock
p2084
g301
sg1255
g318
sg31
g353
sg35
g373
sg1760
g1124
sg1352
g474
sg41
g498
sg538
g1578
sg45
g523
sg974
g550
sVcom.android.contacts
p2085
g565
sg83
g858
sg55
g615
sg1110
g1227
sg175
g1666
sVcom.android.packageinstaller
p2086
g729
sg618
g745
sg524
g764
sg145
g1378
sVcom.huawei.hidisk
p2087
g811
sg1889
g1045
sg81
g848
sVcom.eg.android.AlipayGphone
p2088
g601
sg87
g870
sg725
g935
sg1764
g1306
sVcom.hupu.games
p2089
g511
sg999
g1036
sg103
g1067
sVcom.baidu.lbs.waimai
p2090
g1133
sVandroid.zhibo8
p2091
g1074
sg107
g1096
sg109
g1117
sVcom.xdf.recite
p2092
g1468
sg479
g1180
sg125
g1201
sg1359
g782
sg57
g644
sg129
g1219
sg101
g1061
sVcom.hipu.yidian
p2093
g669
sg932
g1340
sg1161
g1326
sg93
g1011
sg201
g1498
sg1923
g1527
sVcom.baidu.tieba
p2094
g1563
sg1129
g1604
sVcom.android.camera
p2095
g1624
sg171
g1638
ssg151
(dp2096
Vcom.tencent.mm
p2097
g1019
sg1012
g1490
sg1946
g451
sVcom.huawei.appmarket
p2098
g1607
sg1984
g937
sVcom.tencent.mobileqq
p2099
g1308
sVcom.android.settings
p2100
g1454
ssg153
(dp2101
Vcom.tencent.mobileqq
p2102
g1309
sVcom.android.launcher
p2103
g452
ssg155
(dp2104
Vcom.tencent.mobileqq
p2105
g1311
sg1486
g1013
sVcom.android.launcher
p2106
g453
sVcom.xdf.recite
p2107
g1469
ssg157
(dp2108
Vcom.android.browser
p2109
g202
sg1632
g521
sg352
g1455
sVcom.android.packageinstaller
p2110
g731
sg1500
g1015
sVfq.router2
p2111
g1654
sg882
g263
sg99
g1048
sVcom.twitter.android
p2112
g1380
sg538
g1572
sVcom.baidu.tieba
p2113
g1557
sVcom.android.launcher
p2114
g454
sg165
g1605
sVcom.tencent.mtt
p2115
g939
sg91
g951
sVcom.tencent.mobileqq
p2116
g1313
sVcom.android.contacts
p2117
g571
ssg159
(dp2118
Vcom.android.launcher
p2119
g456
ssg161
(dp2120
Vcom.zhihu.android
p2121
g625
sVcom.smartapp.easyvpn
p2122
g482
sVcom.hipu.yidian
p2123
g672
sVcom.tencent.mm
p2124
g1017
sg65
g733
sg1972
g793
sVcom.twitter.android
p2125
g1381
sVcom.taou.maimai
p2126
g330
sVcom.android.keyguard
p2127
g1529
sVcom.android.launcher
p2128
g457
sVcom.huawei.appmarket
p2129
g1606
sg1860
g940
sg972
g529
sVcom.tencent.mobileqq
p2130
g1314
sVcom.android.contacts
p2131
g573
sVcom.android.settings
p2132
g1456
ssg163
(dp2133
g1789
g1631
sg1632
g539
sg930
g1333
sVcom.android.launcher
p2134
g458
sg520
g1512
ssg165
(dp2135
g2109
g209
sg1760
g1130
sg882
g267
sg789
g336
sg2114
g459
sg798
g486
sg2117
g577
sVcom.android.vpndialogs
p2136
g796
sVcom.android.packageinstaller
p2137
g705
sVcom.twitter.android
p2138
g1383
sVcom.tencent.mtt
p2139
g942
sg91
g955
sVcom.tencent.mm
p2140
g1007
sg469
g656
sg349
g1315
sg153
g1483
sg352
g1457
sg1742
g1516
sVcom.android.keyguard
p2141
g1533
sg2113
g1552
sg1105
g281
sg2111
g1657
ssg167
(dp2142
Vcom.zhihu.android
p2143
g628
sg1892
g1459
sg1957
g824
sg1423
g1052
sVcom.android.launcher
p2144
g461
sg1959
g890
sVcom.tencent.mobileqq
p2145
g1316
ssg169
(dp2146
g1866
g1460
sg986
g752
sg1047
g1517
sg99
g1054
sVcom.android.launcher
p2147
g462
sVcom.tencent.mobileqq
p2148
g1318
sVcom.android.contacts
p2149
g581
ssg171
(dp2150
g855
g1062
sg372
g1461
sg35
g374
sg145
g1384
sg375
g463
sg83
g860
ssg173
(dp2151
Vcom.android.email
p2152
g648
sVcom.instagram.android
p2153
g1194
sVcom.android.launcher
p2154
g464
sVcom.android.settings
p2155
g1463
sVcom.android.packageinstaller
p2156
g735
sg1908
g1020
sVcom.twitter.android
p2157
g1386
sVcom.huawei.hwid
p2158
g1503
sg1660
g801
sVcom.huawei.appmarket
p2159
g1608
sg578
g874
sVcom.tencent.mtt
p2160
g943
sVcom.huawei.fans
p2161
g958
sVcom.tencent.mobileqq
p2162
g1320
ssg175
(dp2163
Vcom.huawei.hwid
p2164
g1496
sVcom.android.launcher
p2165
g465
sVcom.huawei.appmarket
p2166
g1589
sssb.