ccopy_reg
_reconstructor
p1
(cnetworkx.classes.digraph
DiGraph
p2
c__builtin__
object
p3
NtRp4
(dp5
S'node'
p6
(dp7
Vcom.sankuai.meituan
p8
(dp9
S'weight'
p10
F0.00054142923180663482
ssVcom.tct.tcttaskmanage
p11
(dp12
g10
F6.5028053950666324e-05
ssVcom.youdao.dict
p13
(dp14
g10
F9.471477423249226e-05
ssVcom.android.wifi.cmcc
p15
(dp16
g10
F8.4819200805216953e-06
ssVcom.shuqi.com.controller
p17
(dp18
g10
F9.3301120885738641e-05
ssVcom.android.deskclock
p19
(dp20
g10
F0.074927868337981901
ssVcom.UCMobile
p21
(dp22
g10
F0.19430241155124423
ssVcom.tencent.qqgame.qqTexaswvga
p23
(dp24
g10
F0.0021897490341213507
ssVcom.sohu.inputmethod.sogou
p25
(dp26
g10
F0.0016638699891290058
ssVcom.android.launcher
p27
(dp28
g10
F0.17903354175295844
ssVcom.storm.smart
p29
(dp30
g10
F0.00053577461841962035
ssVcom.wandoujia.phoenix2
p31
(dp32
g10
F6.0787093910405479e-05
ssVmy.PCamera
p33
(dp34
g10
F5.5132480523391016e-05
ssVcom.android.contacts
p35
(dp36
g10
F0.044965485653539007
ssVcom.eg.android.AlipayGphone
p37
(dp38
g10
F0.013433947754199611
ssVcom.android.camera2
p39
(dp40
g10
F0.0048092486856558007
ssVcom.zhihu.android
p41
(dp42
g10
F0.0048304534858571047
ssVcom.android.dialer
p43
(dp44
g10
F0.02689051396194728
ssVcom.chinamworld.main
p45
(dp46
g10
F0.00018094762838446283
ssVcn.wps.moffice_eng
p47
(dp48
g10
F7.0682667337680785e-06
ssVcom.android.packageinstaller
p49
(dp50
g10
F0.00018377493507797004
ssVcom.qqgame.hlddz
p51
(dp52
g10
F1.2722880120782541e-05
ssVcom.android.gallery3d
p53
(dp54
g10
F0.00074358166039240189
ssVcom.android.contacts.personalwidget
p55
(dp56
g10
F4.8064213789622933e-05
ssVcom.android.phone
p57
(dp58
g10
F0.00072520416688460489
ssVcom.android.nfc
p59
(dp60
g10
F8.4819200805216953e-06
ssVcom.uniriho.szt
p61
(dp62
g10
F0.00058242517886248973
ssVcom.tencent.mobileqq
p63
(dp64
g10
F0.15420696167727141
ssVcom.android.mplayer
p65
(dp66
g10
F0.00061352555249106924
ssVcom.sankuai.meituan.takeoutnew
p67
(dp68
g10
F0.00034775872330138947
ssVcom.cmpay.hjb
p69
(dp70
g10
F4.8064213789622933e-05
ssVqsbk.app
p71
(dp72
g10
F0.0020653475396070326
ssVcom.quora.android
p73
(dp74
g10
F0.00094007947559115448
ssVcn.com.fetion
p75
(dp76
g10
F0.00019367050850524535
ssVcom.yipiao
p77
(dp78
g10
F0.0023777649292395816
ssVcom.dianping.v1
p79
(dp80
g10
F0.00016681109491692667
ssVcom.coomix.app.bus
p81
(dp82
g10
F0.0010644809701054728
ssVcom.Qunar
p83
(dp84
g10
F0.00020780704197278152
ssVcom.android.email
p85
(dp86
g10
F0.010483653219524814
ssVcom.jrdcom.app2sdcard
p87
(dp88
g10
F5.6546133870144628e-05
ssVcom.xunlei.downloadprovider
p89
(dp90
g10
F0.0015592596414692381
ssVcom.huawei.mobilenotes
p91
(dp92
g10
F0.017778104488773473
ssVcom.cnvcs.gomoku
p93
(dp94
g10
F0.00066583072632095299
ssVcom.rsa.securidapp
p95
(dp96
g10
F0.00039158197705075156
ssVcom.android.calendar
p97
(dp98
g10
F4.0995947055854857e-05
ssVcom.tencent.mm
p99
(dp100
g10
F0.17228051971551639
ssVcom.android.mms
p101
(dp102
g10
F0.0090572769926504162
ssVcom.baidu.BaiduMap
p103
(dp104
g10
F0.050481561012571619
ssVcmb.pb
p105
(dp106
g10
F0.0078302258876682771
ssVcom.cmcc.wallet
p107
(dp108
g10
F2.4032106894811467e-05
ssVcom.android.settings
p109
(dp110
g10
F0.0048968951931545254
ssVcom.android.calculator2
p111
(dp112
g10
F0.010147203722997454
ssVcom.tct.filemanager
p113
(dp114
g10
F0.0010602400100652117
ssVcom.cmcc.nqweather.cmm812
p115
(dp116
g10
F1.9791146854550622e-05
sssS'graph'
p117
(dp118
sS'succ'
p119
(dp120
g8
(dp121
Vcom.android.launcher
p122
(dp123
g10
I2
ssg79
(dp124
g10
F0.90000000000000002
sssg11
(dp125
g8
(dp126
g10
F0.90000000000000002
ssVcom.android.launcher
p127
(dp128
g10
F1.7
ssg79
(dp129
g10
F0.40000000000000002
sssg13
(dp130
Vcom.quora.android
p131
(dp132
g10
F1.8999999999999999
ssVcom.android.launcher
p133
(dp134
g10
F1.8999999999999999
sssg15
(dp135
Vcom.android.settings
p136
(dp137
g10
I1
ssVcom.android.mms
p138
(dp139
g10
F0.40000000000000002
ssVcom.android.launcher
p140
(dp141
g10
F0.90000000000000002
ssVcom.UCMobile
p142
(dp143
g10
F0.69999999999999996
sssg17
(dp144
Vcom.tencent.mm
p145
(dp146
g10
F0.40000000000000002
ssg93
(dp147
g10
F0.90000000000000002
ssVcom.android.launcher
p148
(dp149
g10
F1.7
sssg19
(dp150
Vcom.tencent.mm
p151
(dp152
g10
F2.7999999999999998
ssVcom.android.launcher
p153
(dp154
g10
F2.7000000000000002
sssg21
(dp155
Vcom.zhihu.android
p156
(dp157
g10
F1.3
ssVcom.android.dialer
p158
(dp159
g10
F11.699999999999999
ssVcom.tencent.mobileqq
p160
(dp161
g10
F18.699999999999999
ssVcom.tct.filemanager
p162
(dp163
g10
F0.90000000000000002
ssVcom.sankuai.meituan
p164
(dp165
g10
F0.90000000000000002
ssVcom.android.mms
p166
(dp167
g10
F5.2999999999999998
ssVcom.baidu.BaiduMap
p168
(dp169
g10
F0.69999999999999996
ssg105
(dp170
g10
F0.90000000000000002
ssVcom.android.phone
p171
(dp172
g10
F2.2000000000000002
ssVcom.android.launcher
p173
(dp174
g10
F61.899999999999991
ssVcom.android.settings
p175
(dp176
g10
F7.3000000000000007
ssVcom.storm.smart
p177
(dp178
g10
F0.69999999999999996
ssVcom.android.email
p179
(dp180
g10
F2.7000000000000002
ssVcom.tencent.mm
p181
(dp182
g10
F35.799999999999997
ssVcom.android.contacts
p183
(dp184
g10
F8.9000000000000021
ssg37
(dp185
g10
F1.8
ssg15
(dp186
g10
F0.90000000000000002
sssg23
(dp187
Vcom.android.email
p188
(dp189
g10
F0.90000000000000002
ssg51
(dp190
g10
F0.40000000000000002
ssVcom.tencent.mm
p191
(dp192
g10
F1.8
ssVcom.android.contacts
p193
(dp194
g10
F0.40000000000000002
ssVcom.android.launcher
p195
(dp196
g10
F4.4000000000000004
sssg25
(dp197
Vcom.tencent.mm
p198
(dp199
g10
F0.90000000000000002
ssVcom.android.launcher
p200
(dp201
g10
I1
sssg27
(dp202
g8
(dp203
g10
F2.7000000000000002
ssg11
(dp204
g10
F1.7
ssg13
(dp205
g10
F1.7
ssg15
(dp206
g10
F0.69999999999999996
ssg17
(dp207
g10
F1.7
ssVcom.android.deskclock
p208
(dp209
g10
I1
ssg21
(dp210
g10
F42.300000000000004
ssVcom.tencent.qqgame.qqTexaswvga
p211
(dp212
g10
F2.7000000000000002
ssg29
(dp213
g10
F4.7000000000000002
ssg31
(dp214
g10
F1.7
ssg33
(dp215
g10
F2.2999999999999998
ssg35
(dp216
g10
F191.89999999999992
ssg37
(dp217
g10
F24.29999999999999
ssg39
(dp218
g10
F8.0999999999999996
ssg41
(dp219
g10
F4.7000000000000002
ssVcom.android.dialer
p220
(dp221
g10
F113.00000000000021
ssg45
(dp222
g10
F1.7
ssg47
(dp223
g10
F0.90000000000000002
ssg49
(dp224
g10
F3.2999999999999998
ssg51
(dp225
g10
F1.7
ssg53
(dp226
g10
F9.7000000000000011
ssg55
(dp227
g10
I1
ssVcom.android.phone
p228
(dp229
g10
F17.5
ssVcom.android.nfc
p230
(dp231
g10
F1.8999999999999999
ssg61
(dp232
g10
F9.5
ssg63
(dp233
g10
F100.10000000000009
ssg65
(dp234
g10
F3
ssg67
(dp235
g10
F5.1000000000000005
ssg69
(dp236
g10
F1.3
ssg71
(dp237
g10
I1
ssVcom.quora.android
p238
(dp239
g10
F2.7000000000000002
ssg75
(dp240
g10
F3.3999999999999999
ssVcom.yipiao
p241
(dp242
g10
F8.8000000000000007
ssg79
(dp243
g10
F1.7
ssVcom.coomix.app.bus
p244
(dp245
g10
F4.7000000000000002
ssg83
(dp246
g10
F1.7
ssVcom.android.email
p247
(dp248
g10
F31.199999999999996
ssg91
(dp249
g10
F6.4000000000000004
ssg93
(dp250
g10
F1.7
ssVcom.rsa.securidapp
p251
(dp252
g10
I1
ssg97
(dp253
g10
F3.7000000000000002
ssVcom.tencent.mm
p254
(dp255
g10
F191.89999999999995
ssg101
(dp256
g10
F48.200000000000003
ssg103
(dp257
g10
F18.599999999999998
ssg105
(dp258
g10
F10.899999999999999
ssg107
(dp259
g10
F2.3999999999999999
ssVcom.android.settings
p260
(dp261
g10
F17.500000000000004
ssg111
(dp262
g10
F3.7000000000000002
ssg113
(dp263
g10
F6.4000000000000004
sssg29
(dp264
Vcom.android.mplayer
p265
(dp266
g10
F0.90000000000000002
ssVcom.android.dialer
p267
(dp268
g10
I1
ssVcom.android.launcher
p269
(dp270
g10
F2.7000000000000002
sssg31
(dp271
Vcom.android.packageinstaller
p272
(dp273
g10
I1
ssVcom.uniriho.szt
p274
(dp275
g10
F1.3
ssVcom.eg.android.AlipayGphone
p276
(dp277
g10
F0.69999999999999996
sssg33
(dp278
Vcom.tencent.mm
p279
(dp280
g10
I1
ssVcom.android.launcher
p281
(dp282
g10
F1.8999999999999999
sssg35
(dp283
g91
(dp284
g10
F1.7000000000000002
ssg71
(dp285
g10
F0.90000000000000002
ssg220
(dp286
g10
F140.3000000000001
ssVcom.zhihu.android
p287
(dp288
g10
F1.3
ssVcom.tencent.mm
p289
(dp290
g10
F54.899999999999963
ssg101
(dp291
g10
F21.899999999999991
ssg103
(dp292
g10
F1.7000000000000002
ssVcmb.pb
p293
(dp294
g10
F0.40000000000000002
ssVcom.UCMobile
p295
(dp296
g10
F5.2000000000000002
ssVcom.coomix.app.bus
p297
(dp298
g10
F0.90000000000000002
ssVcom.uniriho.szt
p299
(dp300
g10
F1.3
ssVcom.android.launcher
p301
(dp302
g10
F194.59999999999988
ssg228
(dp303
g10
F19.600000000000001
ssg53
(dp304
g10
F1.3
ssg247
(dp305
g10
F10.300000000000001
ssVcom.tencent.mobileqq
p306
(dp307
g10
F21.799999999999997
ssVcom.sankuai.meituan.takeoutnew
p308
(dp309
g10
F1.7000000000000002
sssg37
(dp310
Vcom.huawei.mobilenotes
p311
(dp312
g10
I1
ssVmy.PCamera
p313
(dp314
g10
F0.90000000000000002
ssVcom.wandoujia.phoenix2
p315
(dp316
g10
F1.3
ssVcom.tencent.mm
p317
(dp318
g10
F11.800000000000001
ssVcom.android.mms
p319
(dp320
g10
F3.7000000000000002
ssVcom.yipiao
p321
(dp322
g10
I2
ssVcmb.pb
p323
(dp324
g10
F1.3
ssVcom.UCMobile
p325
(dp326
g10
I1
ssVcom.android.launcher
p327
(dp328
g10
F24.999999999999993
ssg230
(dp329
g10
F0.69999999999999996
ssg61
(dp330
g10
F3.0999999999999996
ssVcom.tencent.mobileqq
p331
(dp332
g10
F4.5
ssVcom.android.contacts
p333
(dp334
g10
F0.69999999999999996
sssg39
(dp335
Vcom.android.dialer
p336
(dp337
g10
I1
ssVcom.tencent.mm
p338
(dp339
g10
F1.8
ssVcom.android.gallery3d
p340
(dp341
g10
I4
ssVcom.android.launcher
p342
(dp343
g10
F7.9000000000000012
ssVcom.android.settings
p344
(dp345
g10
F1.7
ssVcom.tencent.mobileqq
p346
(dp347
g10
F1.3
ssg115
(dp348
g10
F1.3
sssg41
(dp349
g39
(dp350
g10
F0.40000000000000002
ssVcom.tencent.mm
p351
(dp352
g10
F3.2999999999999998
ssVcom.UCMobile
p353
(dp354
g10
F1.3
ssVcom.android.launcher
p355
(dp356
g10
F7.4000000000000004
ssVcom.android.email
p357
(dp358
g10
F1.3
ssVcom.tencent.mobileqq
p359
(dp360
g10
F1.8999999999999999
sssg43
(dp361
Vcom.android.camera2
p362
(dp363
g10
I1
ssg41
(dp364
g10
F0.69999999999999996
ssg53
(dp365
g10
F0.69999999999999996
ssg115
(dp366
g10
F0.69999999999999996
ssVcom.huawei.mobilenotes
p367
(dp368
g10
F0.69999999999999996
ssVcom.tencent.mm
p369
(dp370
g10
F31.499999999999986
ssg344
(dp371
g10
F0.90000000000000002
ssg101
(dp372
g10
F9.7000000000000011
ssVcom.baidu.BaiduMap
p373
(dp374
g10
F1.7
ssVcom.yipiao
p375
(dp376
g10
I1
ssVcom.UCMobile
p377
(dp378
g10
F8.5
ssVcom.tencent.qqgame.qqTexaswvga
p379
(dp380
g10
I1
ssVcom.android.calculator2
p381
(dp382
g10
F0.40000000000000002
ssVcom.android.launcher
p383
(dp384
g10
F71.899999999999977
ssg57
(dp385
g10
F2.2999999999999998
ssVcom.storm.smart
p386
(dp387
g10
I1
ssg247
(dp388
g10
F4.6000000000000005
ssVcom.tencent.mobileqq
p389
(dp390
g10
F13.400000000000002
ssVcom.android.contacts
p391
(dp392
g10
F96.700000000000045
ssVcom.eg.android.AlipayGphone
p393
(dp394
g10
F0.69999999999999996
ssVcom.sankuai.meituan.takeoutnew
p395
(dp396
g10
I1
sssg45
(dp397
g107
(dp398
g10
F0.40000000000000002
ssVcom.android.launcher
p399
(dp400
g10
F1.7
ssVcom.android.calculator2
p401
(dp402
g10
F0.90000000000000002
sssg47
(dp403
sg49
(dp404
g31
(dp405
g10
F0.90000000000000002
ssg109
(dp406
g10
F0.90000000000000002
ssg113
(dp407
g10
F1.3
ssg75
(dp408
g10
F0.69999999999999996
ssVcom.android.mms
p409
(dp410
g10
F0.40000000000000002
ssVcom.coomix.app.bus
p411
(dp412
g10
I1
ssVcom.android.launcher
p413
(dp414
g10
F4.2999999999999998
ssg274
(dp415
g10
F2.0999999999999996
ssg87
(dp416
g10
I1
ssg276
(dp417
g10
F1.3
sssg51
(dp418
Vcom.tencent.mm
p419
(dp420
g10
I1
sssg53
(dp421
Vcom.android.dialer
p422
(dp423
g10
F0.40000000000000002
ssg65
(dp424
g10
F16.699999999999996
ssVcom.yipiao
p425
(dp426
g10
I1
ssVcom.android.launcher
p427
(dp428
g10
F8.4000000000000004
ssg29
(dp429
g10
F0.90000000000000002
ssVcom.tencent.mm
p430
(dp431
g10
F1.3
ssVcom.android.contacts
p432
(dp433
g10
F0.69999999999999996
sssg55
(dp434
Vcom.android.dialer
p435
(dp436
g10
I1
sssg57
(dp437
Vcom.android.dialer
p438
(dp439
g10
F17.399999999999999
ssVcom.tencent.mobileqq
p440
(dp441
g10
F0.40000000000000002
ssg53
(dp442
g10
F0.40000000000000002
ssVcom.UCMobile
p443
(dp444
g10
F0.90000000000000002
ssg301
(dp445
g10
F10.600000000000001
ssVcom.android.settings
p446
(dp447
g10
F6.7999999999999998
ssVcom.tencent.mm
p448
(dp449
g10
F3.4999999999999996
ssVcom.android.contacts
p450
(dp451
g10
F11.700000000000003
sssg59
(dp452
Vcom.android.packageinstaller
p453
(dp454
g10
F0.69999999999999996
ssg61
(dp455
g10
F2.7000000000000002
ssVcom.android.mms
p456
(dp457
g10
F0.90000000000000002
ssVcom.android.launcher
p458
(dp459
g10
F3.2999999999999998
ssVcom.eg.android.AlipayGphone
p460
(dp461
g10
I1
sssg61
(dp462
g31
(dp463
g10
F2.1000000000000001
ssVcom.android.settings
p464
(dp465
g10
F2.1000000000000001
ssg453
(dp466
g10
F0.90000000000000002
ssVcom.android.launcher
p467
(dp468
g10
F7.8000000000000007
ssVcom.android.email
p469
(dp470
g10
F1.3
ssg276
(dp471
g10
F2.7000000000000002
sssg63
(dp472
g17
(dp473
g10
F0.90000000000000002
ssVcom.UCMobile
p474
(dp475
g10
F17.700000000000003
ssVcom.android.launcher
p476
(dp477
g10
F168.00000000000017
ssg33
(dp478
g10
F0.69999999999999996
ssg391
(dp479
g10
F40.499999999999986
ssVcom.eg.android.AlipayGphone
p480
(dp481
g10
F3.7999999999999998
ssVcom.zhihu.android
p482
(dp483
g10
F1.8999999999999999
ssVcom.android.dialer
p484
(dp485
g10
F16.100000000000001
ssg453
(dp486
g10
F1.3999999999999999
ssVcom.android.gallery3d
p487
(dp488
g10
F2.2000000000000002
ssVcom.android.phone
p489
(dp490
g10
F1.1000000000000001
ssVcom.android.nfc
p491
(dp492
g10
I1
ssVcom.uniriho.szt
p493
(dp494
g10
F0.90000000000000002
ssVcom.tencent.mm
p495
(dp496
g10
F65.59999999999998
ssg75
(dp497
g10
F1.3
ssg241
(dp498
g10
F5.2000000000000002
ssg244
(dp499
g10
F1.8
ssVcom.android.email
p500
(dp501
g10
F16.199999999999999
ssVcom.xunlei.downloadprovider
p502
(dp503
g10
I1
ssVcom.huawei.mobilenotes
p504
(dp505
g10
I2
ssg93
(dp506
g10
F0.40000000000000002
ssVcom.android.calendar
p507
(dp508
g10
F0.40000000000000002
ssVcom.android.mms
p509
(dp510
g10
F9.0999999999999996
ssVcom.baidu.BaiduMap
p511
(dp512
g10
F4.5999999999999996
ssVcmb.pb
p513
(dp514
g10
F0.90000000000000002
ssVcom.tct.filemanager
p515
(dp516
g10
F0.90000000000000002
sssg65
(dp517
Vcom.storm.smart
p518
(dp519
g10
F0.90000000000000002
ssVcom.android.gallery3d
p520
(dp521
g10
F16.299999999999997
ssVcom.android.launcher
p522
(dp523
g10
F1.7
sssg67
(dp524
Vcom.android.dialer
p525
(dp526
g10
I1
ssVcom.tencent.mm
p527
(dp528
g10
F1.3
ssVcom.android.launcher
p529
(dp530
g10
F3.3999999999999999
sssg69
(dp531
Vcom.cmcc.wallet
p532
(dp533
g10
I1
ssVcom.android.launcher
p534
(dp535
g10
F0.90000000000000002
sssg71
(dp536
Vcom.tencent.mobileqq
p537
(dp538
g10
F0.40000000000000002
ssVcom.tencent.mm
p539
(dp540
g10
F0.90000000000000002
ssVcom.android.launcher
p541
(dp542
g10
F1.7
sssg73
(dp543
g13
(dp544
g10
F1.3
ssVcom.android.launcher
p545
(dp546
g10
F4.4000000000000004
sssg75
(dp547
Vcom.android.gallery3d
p548
(dp549
g10
F0.90000000000000002
ssg409
(dp550
g10
I1
ssVcom.android.launcher
p551
(dp552
g10
F1.7
sssg77
(dp553
g487
(dp554
g10
I1
ssVcom.tencent.mobileqq
p555
(dp556
g10
F5.0999999999999996
ssVcom.android.mms
p557
(dp558
g10
F0.69999999999999996
ssVcom.android.launcher
p559
(dp560
g10
F14.5
ssVcom.android.email
p561
(dp562
g10
F0.90000000000000002
ssg317
(dp563
g10
F0.40000000000000002
ssVcom.android.contacts
p564
(dp565
g10
F0.90000000000000002
ssg480
(dp566
g10
F3.2999999999999998
sssg79
(dp567
sg81
(dp568
Vcom.android.dialer
p569
(dp570
g10
F0.69999999999999996
ssVcom.android.settings
p571
(dp572
g10
F1.7
ssVcom.android.packageinstaller
p573
(dp574
g10
I1
ssg75
(dp575
g10
F1.3
ssVcom.android.mms
p576
(dp577
g10
F11.5
ssg103
(dp578
g10
F2.2000000000000002
ssVcom.android.launcher
p579
(dp580
g10
F6.4000000000000004
ssVcom.android.contacts
p581
(dp582
g10
F0.90000000000000002
sssg83
(dp583
Vcom.tencent.mm
p584
(dp585
g10
I1
sssg85
(dp586
Vcom.android.dialer
p587
(dp588
g10
F6.1000000000000005
ssg47
(dp589
g10
I1
ssVcom.tencent.mobileqq
p590
(dp591
g10
F8.1000000000000014
ssVcom.android.phone
p592
(dp593
g10
F0.69999999999999996
ssVcom.android.mms
p594
(dp595
g10
F3.2999999999999998
ssg55
(dp596
g10
F0.90000000000000002
ssg295
(dp597
g10
F0.90000000000000002
ssVcom.tencent.qqgame.qqTexaswvga
p598
(dp599
g10
F0.90000000000000002
ssVcom.android.launcher
p600
(dp601
g10
F49.100000000000009
ssg260
(dp602
g10
F1.3
ssVcom.tencent.mm
p603
(dp604
g10
F7.1000000000000005
ssVcom.android.contacts
p605
(dp606
g10
F13.400000000000004
ssVcom.eg.android.AlipayGphone
p607
(dp608
g10
F1.3
sssg87
(dp609
g109
(dp610
g10
I1
ssVcom.android.launcher
p611
(dp612
g10
F0.90000000000000002
sssg89
(dp613
Vcom.android.gallery3d
p614
(dp615
g10
F1.3
ssVcom.tencent.mobileqq
p616
(dp617
g10
I2
ssVcom.android.launcher
p618
(dp619
g10
F2.3999999999999999
sssg91
(dp620
Vcom.android.camera2
p621
(dp622
g10
F0.90000000000000002
ssVcom.android.dialer
p623
(dp624
g10
F0.40000000000000002
ssVcom.tencent.mm
p625
(dp626
g10
F1.8
ssg340
(dp627
g10
F0.69999999999999996
ssVcom.android.launcher
p628
(dp629
g10
F9.6999999999999993
ssVcom.tencent.mobileqq
p630
(dp631
g10
I2
ssVcom.android.contacts
p632
(dp633
g10
F1.1000000000000001
sssg93
(dp634
g145
(dp635
g10
F0.90000000000000002
ssVcom.android.launcher
p636
(dp637
g10
I1
sssg95
(dp638
Vcom.android.email
p639
(dp640
g10
F0.90000000000000002
ssVcom.android.launcher
p641
(dp642
g10
F2.7000000000000002
sssg97
(dp643
Vcom.tencent.mm
p644
(dp645
g10
F0.90000000000000002
ssVcom.android.contacts
p646
(dp647
g10
F1.3
ssVcom.android.launcher
p648
(dp649
g10
F4.4000000000000004
sssg99
(dp650
g21
(dp651
g10
F22.299999999999994
ssg598
(dp652
g10
F0.40000000000000002
ssVcom.android.launcher
p653
(dp654
g10
F277.39999999999975
ssg33
(dp655
g10
I1
ssVcom.android.contacts
p656
(dp657
g10
F68.599999999999966
ssVcom.eg.android.AlipayGphone
p658
(dp659
g10
F15.9
ssg39
(dp660
g10
F4.9000000000000004
ssg41
(dp661
g10
F4.6000000000000005
ssg438
(dp662
g10
F43.199999999999989
ssg51
(dp663
g10
F0.90000000000000002
ssg487
(dp664
g10
F0.90000000000000002
ssg55
(dp665
g10
F0.69999999999999996
ssg228
(dp666
g10
F7.3000000000000016
ssg299
(dp667
g10
F0.40000000000000002
ssg346
(dp668
g10
F65.799999999999983
ssg67
(dp669
g10
F2.5
ssVcom.yipiao
p670
(dp671
g10
F1.7
ssVcom.Qunar
p672
(dp673
g10
I1
ssVcom.android.email
p674
(dp675
g10
F12.000000000000002
ssVcom.huawei.mobilenotes
p676
(dp677
g10
F3.1999999999999997
ssg97
(dp678
g10
F1.8
ssg260
(dp679
g10
F4.5999999999999996
ssVcom.android.mms
p680
(dp681
g10
F12.900000000000002
ssVcom.baidu.BaiduMap
p682
(dp683
g10
F3.7999999999999998
ssg105
(dp684
g10
F1.7999999999999998
ssg111
(dp685
g10
F2.7999999999999998
sssg101
(dp686
g158
(dp687
g10
F10.6
ssg251
(dp688
g10
F0.90000000000000002
ssVcom.tencent.mobileqq
p689
(dp690
g10
F8.4000000000000004
ssVcom.android.phone
p691
(dp692
g10
F0.90000000000000002
ssVcn.com.fetion
p693
(dp694
g10
I1
ssg168
(dp695
g10
F1.3
ssg241
(dp696
g10
F0.40000000000000002
ssg293
(dp697
g10
F2.7000000000000002
ssg377
(dp698
g10
F4.2000000000000002
ssVcom.coomix.app.bus
p699
(dp700
g10
F10.5
ssg61
(dp701
g10
F0.69999999999999996
ssVcom.android.launcher
p702
(dp703
g10
F69.000000000000028
ssg571
(dp704
g10
F1.3
ssg59
(dp705
g10
F1.8999999999999999
ssVcom.android.email
p706
(dp707
g10
F2.2999999999999998
ssVcom.tencent.mm
p708
(dp709
g10
F14.800000000000001
ssVcom.android.contacts
p710
(dp711
g10
F22.699999999999989
ssg460
(dp712
g10
F0.90000000000000002
ssg381
(dp713
g10
F0.69999999999999996
sssg103
(dp714
g91
(dp715
g10
F0.90000000000000002
ssg569
(dp716
g10
F2.0999999999999996
ssVcom.tencent.mobileqq
p717
(dp718
g10
F3.3999999999999999
ssVcom.yipiao
p719
(dp720
g10
F0.90000000000000002
ssVcom.coomix.app.bus
p721
(dp722
g10
F1.8
ssVcom.android.launcher
p723
(dp724
g10
F33.200000000000003
ssVcom.android.phone
p725
(dp726
g10
F1.3999999999999999
ssVcom.android.email
p727
(dp728
g10
I1
ssVcom.tencent.mm
p729
(dp730
g10
F1.8
ssVcom.android.contacts
p731
(dp732
g10
F2.6000000000000001
ssVcom.android.settings
p733
(dp734
g10
F3.6000000000000001
sssg105
(dp735
Vcom.android.dialer
p736
(dp737
g10
F0.90000000000000002
ssg45
(dp738
g10
F1.3
ssVcom.android.settings
p739
(dp740
g10
F1.3
ssVcom.android.mms
p741
(dp742
g10
F1.8999999999999999
ssVcom.android.launcher
p743
(dp744
g10
F11.5
ssVcom.tencent.mm
p745
(dp746
g10
F2.2999999999999998
ssVcom.android.contacts
p747
(dp748
g10
I1
ssg37
(dp749
g10
F1.3
ssg401
(dp750
g10
F0.40000000000000002
sssg107
(dp751
g69
(dp752
g10
I1
ssg534
(dp753
g10
F1.7
sssg109
(dp754
Vcom.uniriho.szt
p755
(dp756
g10
I1
ssg15
(dp757
g10
F1.3999999999999999
ssVcom.android.mms
p758
(dp759
g10
F2.7000000000000002
ssVcom.UCMobile
p760
(dp761
g10
F5.7000000000000011
ssVcom.coomix.app.bus
p762
(dp763
g10
F0.90000000000000002
ssg611
(dp764
g10
F17.099999999999998
ssVcom.android.phone
p765
(dp766
g10
F7.4000000000000004
ssg469
(dp767
g10
F0.69999999999999996
ssVcom.tencent.mm
p768
(dp769
g10
F4.0999999999999996
ssVcom.android.contacts
p770
(dp771
g10
F0.69999999999999996
ssg115
(dp772
g10
I1
sssg111
(dp773
Vcom.android.dialer
p774
(dp775
g10
F0.90000000000000002
ssg69
(dp776
g10
F0.69999999999999996
ssg107
(dp777
g10
F1.3
ssVcom.android.launcher
p778
(dp779
g10
F5.7000000000000002
ssVcom.tencent.mm
p780
(dp781
g10
F3.7000000000000002
ssVcom.eg.android.AlipayGphone
p782
(dp783
g10
F0.69999999999999996
sssg113
(dp784
g267
(dp785
g10
F1.8
ssg11
(dp786
g10
F0.90000000000000002
ssg8
(dp787
g10
F0.40000000000000002
ssVcom.android.gallery3d
p788
(dp789
g10
F0.90000000000000002
ssVcom.android.launcher
p790
(dp791
g10
F7.8000000000000007
ssg29
(dp792
g10
F2.0999999999999996
ssVcom.android.email
p793
(dp794
g10
F1.3
ssVcom.android.contacts
p795
(dp796
g10
F0.40000000000000002
sssg115
(dp797
ssS'edge'
p798
g120
sS'pred'
p799
(dp800
g8
(dp801
Vcom.UCMobile
p802
g165
sVcom.tct.filemanager
p803
g787
sg11
g126
sVcom.android.launcher
p804
g203
ssg11
(dp805
g803
g786
sVcom.android.launcher
p806
g204
ssg13
(dp807
g73
g544
sg545
g205
ssg15
(dp808
Vcom.android.settings
p809
g757
sVcom.android.launcher
p810
g206
sVcom.UCMobile
p811
g186
ssg17
(dp812
Vcom.tencent.mobileqq
p813
g473
sVcom.android.launcher
p814
g207
ssg19
(dp815
Vcom.android.launcher
p816
g209
ssg21
(dp817
Vcom.zhihu.android
p818
g354
sVcom.android.dialer
p819
g378
sVcom.tencent.mobileqq
p820
g475
sg15
g143
sVcom.android.phone
p821
g444
sVcom.android.mms
p822
g698
sVcom.android.launcher
p823
g210
sg175
g761
sVcom.android.email
p824
g597
sVcom.tencent.mm
p825
g651
sVcom.android.contacts
p826
g296
sVcom.eg.android.AlipayGphone
p827
g326
ssg23
(dp828
Vcom.android.email
p829
g599
sVcom.tencent.mm
p830
g652
sVcom.android.dialer
p831
g380
sVcom.android.launcher
p832
g212
ssg25
(dp833
sg27
(dp834
g265
g523
sg11
g128
sg13
g134
sg15
g141
sg17
g149
sg19
g154
sg21
g174
sg23
g196
sg25
g201
sg29
g270
sg33
g282
sg450
g302
sg37
g328
sg39
g343
sg41
g356
sg587
g384
sg45
g400
sg49
g414
sg8
g123
sg53
g428
sVcom.android.phone
p835
g445
sg59
g459
sg61
g468
sg63
g477
sVcom.android.calculator2
p836
g779
sg69
g535
sVqsbk.app
p837
g542
sg73
g546
sVcn.com.fetion
p838
g552
sg77
g560
sg244
g580
sVcom.android.email
p839
g601
sg87
g612
sVcom.xunlei.downloadprovider
p840
g619
sVcom.huawei.mobilenotes
p841
g629
sg93
g637
sg95
g642
sg97
g649
sg99
g654
sg319
g703
sg103
g724
sg105
g744
sg107
g753
sg109
g764
sg308
g530
sg113
g791
ssg29
(dp842
g267
g387
sg515
g792
sg265
g519
sg788
g429
sVcom.UCMobile
p843
g178
sVcom.android.launcher
p844
g213
ssg31
(dp845
g453
g405
sg493
g463
sg276
g316
sVcom.android.launcher
p846
g214
ssg33
(dp847
Vcom.tencent.mm
p848
g655
sVcom.tencent.mobileqq
p849
g478
sVcom.eg.android.AlipayGphone
p850
g314
sVcom.android.launcher
p851
g215
ssg35
(dp852
Vcom.huawei.mobilenotes
p853
g633
sVcom.android.dialer
p854
g392
sVcom.android.calendar
p855
g647
sVcom.tencent.mm
p856
g657
sVcom.tct.filemanager
p857
g796
sg680
g711
sVcom.baidu.BaiduMap
p858
g732
sg241
g565
sVcmb.pb
p859
g748
sVcom.UCMobile
p860
g184
sg379
g194
sVcom.coomix.app.bus
p861
g582
sVcom.android.launcher
p862
g216
sg835
g451
sVcom.android.gallery3d
p863
g433
sg839
g606
sg389
g479
sg393
g334
sVcom.android.settings
p864
g771
ssg37
(dp865
Vcom.android.email
p866
g608
sg31
g277
sVcom.tencent.mm
p867
g659
sg272
g417
sVcom.android.mms
p868
g712
sVcom.yipiao
p869
g566
sg105
g749
sg21
g185
sg774
g394
sg173
g217
sg59
g461
sg274
g471
sVcom.tencent.mobileqq
p870
g481
sg381
g783
ssg39
(dp871
g41
g350
sg336
g363
sg351
g660
sg355
g218
sg841
g622
ssg41
(dp872
g484
g364
sVcom.tencent.mm
p873
g661
sg353
g157
sVcom.android.launcher
p874
g219
sg359
g483
sVcom.android.contacts
p875
g288
ssg43
(dp876
Vcom.android.camera2
p877
g337
sg853
g624
sg863
g423
sg289
g662
sg162
g785
sg822
g687
sg103
g716
sg55
g436
sg859
g737
sg377
g159
sg297
g570
sVcom.android.calculator2
p878
g775
sg862
g221
sg228
g439
sg177
g268
sg839
g588
sVcom.tencent.mobileqq
p879
g485
sg35
g286
sg308
g526
ssg45
(dp880
g323
g738
sVcom.android.launcher
p881
g222
ssg47
(dp882
Vcom.android.email
p883
g589
sVcom.android.launcher
p884
g223
ssg49
(dp885
g31
g273
sVcom.coomix.app.bus
p886
g574
sVcom.android.launcher
p887
g224
sg491
g454
sg493
g466
sVcom.tencent.mobileqq
p888
g486
ssg51
(dp889
g211
g190
sVcom.tencent.mm
p890
g663
sVcom.android.launcher
p891
g225
ssg53
(dp892
g840
g615
sg841
g627
sVcom.android.dialer
p893
g365
sg621
g341
sVcom.tencent.mm
p894
g664
sg515
g789
sg65
g521
sg838
g549
sg670
g554
sVcom.android.launcher
p895
g226
sVcom.android.phone
p896
g442
sVcom.tencent.mobileqq
p897
g488
sVcom.android.contacts
p898
g304
ssg55
(dp899
Vcom.android.email
p900
g596
sVcom.tencent.mm
p901
g665
sVcom.android.launcher
p902
g227
ssg57
(dp903
g43
g385
sg289
g666
sVcom.android.mms
p904
g692
sg858
g726
sg443
g172
sVcom.android.launcher
p905
g229
sg864
g766
sg188
g593
sVcom.tencent.mobileqq
p906
g490
sVcom.android.contacts
p907
g303
ssg59
(dp908
g888
g492
sg868
g705
sg458
g231
sg460
g329
ssg61
(dp909
g31
g275
sVcom.tencent.mm
p910
g667
sg453
g415
sg456
g701
sg458
g232
sg464
g756
sg230
g455
sg888
g494
sVcom.android.contacts
p911
g300
sg460
g330
ssg63
(dp912
Vcom.android.camera2
p913
g347
sVcom.zhihu.android
p914
g360
sg837
g538
sg854
g390
sg89
g617
sVcom.huawei.mobilenotes
p915
g631
sg509
g690
sVcom.baidu.BaiduMap
p916
g718
sg241
g556
sVcom.UCMobile
p917
g161
sg27
g233
sVcom.android.phone
p918
g441
sg85
g591
sg338
g668
sVcom.android.contacts
p919
g307
sg480
g332
ssg65
(dp920
g29
g266
sVcom.android.gallery3d
p921
g424
sVcom.android.launcher
p922
g234
ssg67
(dp923
g525
g396
sVcom.tencent.mm
p924
g669
sVcom.android.contacts
p925
g309
sVcom.android.launcher
p926
g235
ssg69
(dp927
g107
g752
sg399
g236
sg401
g776
ssg71
(dp928
Vcom.android.contacts
p929
g285
sVcom.android.launcher
p930
g237
ssg73
(dp931
g13
g132
sg545
g239
ssg75
(dp932
g409
g694
sVcom.android.packageinstaller
p933
g408
sg411
g575
sVcom.tencent.mobileqq
p934
g497
sVcom.android.launcher
p935
g240
ssg77
(dp936
Vcom.android.dialer
p937
g376
sg894
g671
sVcom.android.mms
p938
g696
sVcom.baidu.BaiduMap
p939
g720
sVcom.android.launcher
p940
g242
sg487
g426
sVcom.tencent.mobileqq
p941
g498
sg480
g322
ssg79
(dp942
g8
g124
sg11
g129
sg127
g243
ssg81
(dp943
Vcom.android.settings
p944
g763
sg933
g412
sg576
g700
sVcom.baidu.BaiduMap
p945
g722
sVcom.android.launcher
p946
g245
sVcom.tencent.mobileqq
p947
g499
sVcom.android.contacts
p948
g298
ssg83
(dp949
g584
g673
sVcom.android.launcher
p950
g246
ssg85
(dp951
g914
g358
sg587
g388
sg95
g640
sg590
g501
sg113
g794
sVcom.android.mms
p952
g707
sVcom.baidu.BaiduMap
p953
g728
sVcom.yipiao
p954
g562
sVcom.UCMobile
p955
g180
sg379
g189
sg383
g248
sg464
g767
sVcom.uniriho.szt
p956
g470
sVcom.tencent.mm
p957
g675
sg605
g305
ssg87
(dp958
Vcom.android.packageinstaller
p959
g416
ssg89
(dp960
Vcom.tencent.mobileqq
p961
g503
ssg91
(dp962
Vcom.android.dialer
p963
g368
sVcom.tencent.mobileqq
p964
g505
sVcom.baidu.BaiduMap
p965
g715
sVcom.android.launcher
p966
g249
sVcom.tencent.mm
p967
g677
sVcom.android.contacts
p968
g284
sVcom.eg.android.AlipayGphone
p969
g312
ssg93
(dp970
g813
g506
sg17
g147
sVcom.android.launcher
p971
g250
ssg95
(dp972
Vcom.android.mms
p973
g688
sVcom.android.launcher
p974
g252
ssg97
(dp975
Vcom.tencent.mobileqq
p976
g508
sVcom.tencent.mm
p977
g678
sVcom.android.launcher
p978
g253
ssg99
(dp979
g17
g146
sg19
g152
sVcom.UCMobile
p980
g182
sg23
g192
sg25
g199
sg653
g255
sg33
g280
sg656
g290
sVcom.eg.android.AlipayGphone
p981
g318
sg39
g339
sg41
g352
sg484
g370
sg51
g420
sg53
g431
sg489
g449
sVcom.tencent.mobileqq
p982
g496
sVcom.android.calculator2
p983
g781
sg837
g540
sVcom.yipiao
p984
g563
sg83
g585
sVcom.android.email
p985
g604
sg853
g626
sg93
g635
sg507
g645
sg260
g769
sg680
g709
sVcom.baidu.BaiduMap
p986
g730
sVcmb.pb
p987
g746
sg308
g528
ssg101
(dp988
Vcom.android.dialer
p989
g372
sVcom.tencent.mm
p990
g681
sg933
g410
sg75
g550
sg321
g558
sg293
g742
sVcom.UCMobile
p991
g167
sg81
g577
sVcom.android.launcher
p992
g256
sg571
g759
sg59
g457
sVcom.android.email
p993
g595
sVcom.tencent.mobileqq
p994
g510
sVcom.android.contacts
p995
g291
sg37
g320
sg15
g139
ssg103
(dp996
g569
g374
sVcom.tencent.mm
p997
g683
sg138
g695
sg142
g169
sg297
g578
sVcom.android.launcher
p998
g257
sVcom.tencent.mobileqq
p999
g512
sg948
g292
ssg105
(dp1000
Vcom.tencent.mobileqq
p1001
g514
sVcom.android.mms
p1002
g697
sg21
g170
sVcom.android.launcher
p1003
g258
sg825
g684
sVcom.android.contacts
p1004
g294
sVcom.eg.android.AlipayGphone
p1005
g324
ssg107
(dp1006
g69
g533
sg45
g398
sg399
g259
sg401
g777
ssg109
(dp1007
g877
g345
sg299
g465
sg336
g371
sg959
g406
sVcom.android.mms
p1008
g704
sVcom.baidu.BaiduMap
p1009
g734
sVcmb.pb
p1010
g740
sVcom.UCMobile
p1011
g176
sVcom.coomix.app.bus
p1012
g572
sVcom.android.launcher
p1013
g261
sg821
g447
sg674
g602
sVcom.tencent.mm
p1014
g679
sg87
g610
sg15
g137
ssg111
(dp1015
Vcom.android.dialer
p1016
g382
sg45
g402
sVcom.android.mms
p1017
g713
sVcmb.pb
p1018
g750
sVcom.android.launcher
p1019
g262
sVcom.tencent.mm
p1020
g685
ssg113
(dp1021
g843
g163
sg49
g407
sVcom.tencent.mobileqq
p1022
g516
sg887
g263
ssg115
(dp1023
g877
g348
sg344
g772
sg336
g366
sssS'adj'
p1024
g120
sb.