ccopy_reg
_reconstructor
p1
(cnetworkx.classes.digraph
DiGraph
p2
c__builtin__
object
p3
NtRp4
(dp5
S'node'
p6
(dp7
Vcom.shanbay.news
p8
(dp9
S'weight'
p10
F3.1009832894027369e-05
ssVcom.android.browser
p11
(dp12
g10
F0.0011209823174527505
ssVcom.sand.airdroid
p13
(dp14
g10
F2.4067332992379451e-05
ssVcom.wandoujia.phoenix2
p15
(dp16
g10
F0.0021248678032310393
ssVcom.youdao.dict
p17
(dp18
g10
F0.012362278158201059
ssVcom.ss.android.article.news
p19
(dp20
g10
F0.0018874343065946807
ssVcom.qidian.QDReader
p21
(dp22
g10
F0.13302894328208997
ssVcom.shanbay.words
p23
(dp24
g10
F1.8513333071061114e-06
ssVcom.sdu.didi.psnger
p25
(dp26
g10
F0.0011936471497566653
ssVcom.android.deskclock
p27
(dp28
g10
F0.00087938332087540293
ssVcom.UCMobile
p29
(dp30
g10
F0.043333695886105972
ssVcom.douban.movie
p31
(dp32
g10
F0.00078126265559877906
ssVcom.sohu.inputmethod.sogou
p33
(dp34
g10
F1.8513333071061114e-06
ssVcom.android.notepad
p35
(dp36
g10
F0.015404944448429953
ssVcom.storm.smart
p37
(dp38
g10
F0.001636115810155026
ssVcom.android.contacts
p39
(dp40
g10
F0.050982016611088095
ssVcom.eg.android.AlipayGphone
p41
(dp42
g10
F0.00026890616285716267
ssVcn.kuwo.player
p43
(dp44
g10
F0.0018985423064373174
ssVcom.estrongs.android.taskmanager
p45
(dp46
g10
F9.025249872142294e-05
ssVcn.wps.moffice_eng
p47
(dp48
g10
F5.5539999213183342e-06
ssVcom.ontim.filemanager
p49
(dp50
g10
F0.0035684449494470297
ssVcom.android.bluetooth
p51
(dp52
g10
F6.2482499114831268e-05
ssVcom.sankuai.meituan
p53
(dp54
g10
F0.0034013621184807033
ssVcom.android.gallery3d
p55
(dp56
g10
F0.0060200730813822984
ssVcom.jingdong.app.mall
p57
(dp58
g10
F0.0025691877969365061
ssVcom.taobao.taobao
p59
(dp60
g10
F6.0168332480948627e-06
ssVcom.baidu.stu
p61
(dp62
g10
F3.7952332795675286e-05
ssVmindware.mindgamespro
p63
(dp64
g10
F0.000282328329333682
ssVcom.android.systemui
p65
(dp66
g10
F0.072949011966555663
ssVcom.qq.ac.android
p67
(dp68
g10
F0.0002925106625227656
ssVcom.tencent.mobileqq
p69
(dp70
g10
F0.033560507357892809
ssVcom.lenovo.safecenter
p71
(dp72
g10
F0.026065847297400496
ssVtv.danmaku.bili
p73
(dp74
g10
F0.00020179533047456614
ssVcom.android.calculator2
p75
(dp76
g10
F0.0033893284519845137
ssVcom.aibang.nextbus
p77
(dp78
g10
F0.00038461449455129464
ssVcom.ontim.safe
p79
(dp80
g10
F9.256666535530557e-07
ssVcom.MobileTicket
p81
(dp82
g10
F0.0092557408688770052
ssVuniqueName.photoAlbumManager
p83
(dp84
g10
F0.0011209823174527505
ssVcom.android.phone
p85
(dp86
g10
F0.029311234584757512
ssVcom.vnes.supermr
p87
(dp88
g10
F0.00017448816419475102
ssVcom.dianping.v1
p89
(dp90
g10
F0.0027950504604034518
ssVcom.pp.assistant
p91
(dp92
g10
F6.0168332480948627e-06
ssVsina.mobile.tianqitong
p93
(dp94
g10
F0.011522235670101662
ssVcom.android.profiles
p95
(dp96
g10
F1.3884999803295835e-06
ssVcom.ontim.softap
p97
(dp98
g10
F1.3884999803295835e-06
ssVme.abitno.vplayer.t
p99
(dp100
g10
F1.1107999842636668e-05
ssVcom.chaozh.iReaderFree
p101
(dp102
g10
F0.14124840033231434
ssVair.games.shirogames.evoland12
p103
(dp104
g10
F3.2398332874356951e-06
ssVcom.xunlei.downloadprovider
p105
(dp106
g10
F0.0068082782368827253
ssVcom.lenovo.lsf
p107
(dp108
g10
F1.3884999803295836e-05
ssVru.zdevs.zarchiver
p109
(dp110
g10
F7.2664832303914869e-05
ssVcom.tmall.wireless
p111
(dp112
g10
F4.0729332756334452e-05
ssVcom.zhihu.daily.android
p113
(dp114
g10
F0.0011344044839292698
ssVcom.android.calendar
p115
(dp116
g10
F0.0035749246160219012
ssVcom.tencent.mm
p117
(dp118
g10
F0.29598561514020377
ssVair.com.ppllaayy.tfqsports
p119
(dp120
g10
F2.3141666338826395e-06
ssVcom.android.mms
p121
(dp122
g10
F0.026952635951504322
ssVcom.youdao.note
p123
(dp124
g10
F0.0046408297675882447
ssVcom.baidu.tieba
p125
(dp126
g10
F0.00086318415443822449
ssVcom.jd.mobiledd.sdk
p127
(dp128
g10
F5.7854165847065985e-05
ssVcom.android.settings
p129
(dp130
g10
F0.0062501012447902324
ssVcom.autonavi.minimap
p131
(dp132
g10
F0.038301309124064785
sssS'graph'
p133
(dp134
sS'succ'
p135
(dp136
g8
(dp137
Vcom.xunlei.downloadprovider
p138
(dp139
g10
F0.69999999999999996
ssVcom.android.calendar
p140
(dp141
g10
F0.40000000000000002
ssVcom.android.systemui
p142
(dp143
g10
F0.90000000000000002
ssVcom.UCMobile
p144
(dp145
g10
I1
ssVcom.android.phone
p146
(dp147
g10
F0.90000000000000002
ssVcom.android.contacts
p148
(dp149
g10
I1
sssg11
(dp150
Vcom.xunlei.downloadprovider
p151
(dp152
g10
F0.69999999999999996
ssVcom.tencent.mm
p153
(dp154
g10
F0.90000000000000002
ssVcom.ontim.filemanager
p155
(dp156
g10
F0.90000000000000002
ssVcom.android.systemui
p157
(dp158
g10
I3
sssg13
(dp159
Vcom.UCMobile
p160
(dp161
g10
I1
ssVcom.android.settings
p162
(dp163
g10
F0.69999999999999996
ssVcom.android.bluetooth
p164
(dp165
g10
F0.40000000000000002
ssVcom.android.systemui
p166
(dp167
g10
F0.90000000000000002
sssg15
(dp168
Vcom.xunlei.downloadprovider
p169
(dp170
g10
F6.6000000000000014
ssg81
(dp171
g10
F1.3
ssVcom.android.contacts
p172
(dp173
g10
F0.69999999999999996
ssVcom.ontim.filemanager
p174
(dp175
g10
F0.69999999999999996
ssVcom.android.calendar
p176
(dp177
g10
F1.3
ssg109
(dp178
g10
F1.3
ssVcom.qidian.QDReader
p179
(dp180
g10
F1.7
ssVcom.android.mms
p181
(dp182
g10
F2
ssg25
(dp183
g10
F1.3
ssVcom.UCMobile
p184
(dp185
g10
I1
ssg91
(dp186
g10
F1.7
ssVcom.android.systemui
p187
(dp188
g10
F18.199999999999999
ssg61
(dp189
g10
F0.90000000000000002
ssVcom.tencent.mm
p190
(dp191
g10
F4.0999999999999996
ssVcom.lenovo.safecenter
p192
(dp193
g10
F69.600000000000051
sssg17
(dp194
Vcom.shanbay.news
p195
(dp196
g10
I1
ssVcom.MobileTicket
p197
(dp198
g10
F1.3
ssVcom.tencent.mobileqq
p199
(dp200
g10
F5.4000000000000004
ssVcom.android.systemui
p201
(dp202
g10
F4
ssVcom.android.mms
p203
(dp204
g10
I1
ssVcom.UCMobile
p205
(dp206
g10
I3
ssVcom.android.phone
p207
(dp208
g10
F3.6000000000000001
ssVcom.tencent.mm
p209
(dp210
g10
I1
ssg148
(dp211
g10
F1.8999999999999999
sssg19
(dp212
Vcom.tencent.mm
p213
(dp214
g10
I3
ssVcom.android.contacts
p215
(dp216
g10
F3.6000000000000001
ssVcom.android.phone
p217
(dp218
g10
F2.2000000000000002
sssg21
(dp219
Vcom.wandoujia.phoenix2
p220
(dp221
g10
F1.8999999999999999
ssVcom.youdao.dict
p222
(dp223
g10
F2.7000000000000002
ssVcom.autonavi.minimap
p224
(dp225
g10
F5.5
ssVcom.UCMobile
p226
(dp227
g10
F13.1
ssVcom.douban.movie
p228
(dp229
g10
F1.6000000000000001
ssVcom.android.notepad
p230
(dp231
g10
I2
ssVcom.android.contacts
p232
(dp233
g10
F8
ssVcn.kuwo.player
p234
(dp235
g10
F1.3999999999999999
ssg45
(dp236
g10
F0.69999999999999996
ssVcom.ontim.filemanager
p237
(dp238
g10
F2.6000000000000001
ssVru.zdevs.zarchiver
p239
(dp240
g10
F0.69999999999999996
ssVcom.android.gallery3d
p241
(dp242
g10
F2.2999999999999998
ssVcom.jingdong.app.mall
p243
(dp244
g10
F5.4000000000000004
ssVcom.android.phone
p245
(dp246
g10
F7.5
ssVcom.tencent.mm
p247
(dp248
g10
F77.800000000000026
ssVcom.lenovo.safecenter
p249
(dp250
g10
F12.899999999999999
ssVcom.aibang.nextbus
p251
(dp252
g10
F0.90000000000000002
ssVcom.android.systemui
p253
(dp254
g10
F111.00000000000009
ssVsina.mobile.tianqitong
p255
(dp256
g10
I3
ssg61
(dp257
g10
F0.40000000000000002
ssVcom.chaozh.iReaderFree
p258
(dp259
g10
F16.900000000000006
ssVcom.xunlei.downloadprovider
p260
(dp261
g10
F6.1000000000000005
ssVcom.MobileTicket
p262
(dp263
g10
F11.100000000000001
ssg111
(dp264
g10
I1
ssVcom.android.calendar
p265
(dp266
g10
I1
ssVcom.tencent.mobileqq
p267
(dp268
g10
F24.499999999999993
ssVcom.android.mms
p269
(dp270
g10
F7.5000000000000009
ssVcom.baidu.tieba
p271
(dp272
g10
F1.3999999999999999
ssVcom.jd.mobiledd.sdk
p273
(dp274
g10
F0.69999999999999996
ssVcom.android.settings
p275
(dp276
g10
F1.7
sssg23
(dp277
Vcom.android.contacts
p278
(dp279
g10
F1.7
ssVcom.android.phone
p280
(dp281
g10
F1.3
sssg25
(dp282
Vcom.MobileTicket
p283
(dp284
g10
F0.69999999999999996
ssVcom.wandoujia.phoenix2
p285
(dp286
g10
F0.69999999999999996
ssVcom.autonavi.minimap
p287
(dp288
g10
F3.0999999999999996
ssVcom.android.phone
p289
(dp290
g10
F4
ssVcom.android.mms
p291
(dp292
g10
F4.4000000000000004
ssVcom.android.contacts
p293
(dp294
g10
F3.3999999999999999
ssVcom.android.systemui
p295
(dp296
g10
F7.7000000000000002
ssVcom.aibang.nextbus
p297
(dp298
g10
I1
ssVcom.tencent.mm
p299
(dp300
g10
F8.0999999999999996
ssVcom.lenovo.safecenter
p301
(dp302
g10
F2.1000000000000001
sssg27
(dp303
Vcom.autonavi.minimap
p304
(dp305
g10
I1
ssVcom.android.systemui
p306
(dp307
g10
F3.4000000000000004
ssVcom.qidian.QDReader
p308
(dp309
g10
I1
ssVsina.mobile.tianqitong
p310
(dp311
g10
F1.3
ssVcom.tencent.mm
p312
(dp313
g10
I1
ssVcom.android.settings
p314
(dp315
g10
F2.7000000000000002
sssg29
(dp316
Vcom.android.browser
p317
(dp318
g10
I1
ssVcom.wandoujia.phoenix2
p319
(dp320
g10
F1.3
ssg17
(dp321
g10
I2
ssVcom.qidian.QDReader
p322
(dp323
g10
F5.1000000000000005
ssVcom.sdu.didi.psnger
p324
(dp325
g10
F0.40000000000000002
ssVcom.android.notepad
p326
(dp327
g10
I1
ssVcom.storm.smart
p328
(dp329
g10
F0.69999999999999996
ssVcom.android.contacts
p330
(dp331
g10
F15.700000000000001
ssVcom.eg.android.AlipayGphone
p332
(dp333
g10
F0.40000000000000002
ssg45
(dp334
g10
I1
ssVcom.ontim.filemanager
p335
(dp336
g10
F7.0000000000000009
ssVcom.android.bluetooth
p337
(dp338
g10
F1.6000000000000001
ssVcom.sankuai.meituan
p339
(dp340
g10
F1.8999999999999999
ssVcom.android.gallery3d
p341
(dp342
g10
F9.8000000000000007
ssg57
(dp343
g10
F3.9000000000000004
ssVcom.android.phone
p344
(dp345
g10
F12.699999999999999
ssVcom.tencent.mm
p346
(dp347
g10
F35.899999999999991
ssVcom.lenovo.safecenter
p348
(dp349
g10
F12.6
ssVtv.danmaku.bili
p350
(dp351
g10
F3
ssVcom.aibang.nextbus
p352
(dp353
g10
F0.90000000000000002
ssVcom.android.systemui
p354
(dp355
g10
F68.5
ssVcom.dianping.v1
p356
(dp357
g10
F2.7999999999999998
ssVsina.mobile.tianqitong
p358
(dp359
g10
I3
ssVcom.chaozh.iReaderFree
p360
(dp361
g10
F6.2999999999999998
ssVcom.xunlei.downloadprovider
p362
(dp363
g10
F3.1000000000000001
ssVcom.MobileTicket
p364
(dp365
g10
F3.2999999999999998
ssg140
(dp366
g10
F0.69999999999999996
ssVcom.tencent.mobileqq
p367
(dp368
g10
F9.0000000000000018
ssg269
(dp369
g10
F7.3000000000000007
ssg127
(dp370
g10
F1.1000000000000001
ssVcom.android.settings
p371
(dp372
g10
F3
ssVcom.autonavi.minimap
p373
(dp374
g10
I3
sssg31
(dp375
Vcom.tencent.mobileqq
p376
(dp377
g10
F0.69999999999999996
ssVcom.tencent.mm
p378
(dp379
g10
F0.90000000000000002
ssVcom.qidian.QDReader
p380
(dp381
g10
F0.90000000000000002
ssVcom.android.systemui
p382
(dp383
g10
F4.4000000000000004
sssg33
(dp384
Vcom.autonavi.minimap
p385
(dp386
g10
I1
ssVcom.android.systemui
p387
(dp388
g10
F0.90000000000000002
sssg35
(dp389
Vcom.MobileTicket
p390
(dp391
g10
F1.3
ssVcom.android.contacts
p392
(dp393
g10
F4.7000000000000002
ssVcom.android.mms
p394
(dp395
g10
F0.90000000000000002
ssVcom.android.phone
p396
(dp397
g10
F2.7000000000000002
ssVcom.qidian.QDReader
p398
(dp399
g10
F1.8999999999999999
ssVcom.lenovo.safecenter
p400
(dp401
g10
I1
ssg63
(dp402
g10
F0.90000000000000002
ssVcom.UCMobile
p403
(dp404
g10
I1
ssVcom.baidu.tieba
p405
(dp406
g10
F0.69999999999999996
ssVcom.android.systemui
p407
(dp408
g10
F4.8000000000000007
ssVcom.android.settings
p409
(dp410
g10
F1.3
ssVcom.tencent.mm
p411
(dp412
g10
F6.1999999999999993
ssg123
(dp413
g10
I2
ssVcom.tencent.mobileqq
p414
(dp415
g10
I1
sssg37
(dp416
Vcom.xunlei.downloadprovider
p417
(dp418
g10
F3.8999999999999999
ssVcom.qidian.QDReader
p419
(dp420
g10
F0.90000000000000002
ssg99
(dp421
g10
F1.3
ssVcom.ontim.filemanager
p422
(dp423
g10
F13.599999999999998
ssVcom.android.systemui
p424
(dp425
g10
F6.9000000000000012
sssg39
(dp426
Vcom.wandoujia.phoenix2
p427
(dp428
g10
F5.4000000000000004
ssVcom.ss.android.article.news
p429
(dp430
g10
F0.90000000000000002
ssVcom.android.mms
p431
(dp432
g10
F41.499999999999993
ssVcom.sdu.didi.psnger
p433
(dp434
g10
F1.3
ssg184
(dp435
g10
F8.8000000000000007
ssVcom.android.notepad
p436
(dp437
g10
F1.8999999999999999
ssVcom.ontim.filemanager
p438
(dp439
g10
F1.8
ssVcom.android.bluetooth
p440
(dp441
g10
F0.40000000000000002
ssVcom.sankuai.meituan
p442
(dp443
g10
F0.90000000000000002
ssVcom.android.gallery3d
p444
(dp445
g10
F2.3999999999999999
ssVcom.android.phone
p446
(dp447
g10
F172.49999999999994
ssVcom.tencent.mobileqq
p448
(dp449
g10
F6.9000000000000004
ssVcom.lenovo.safecenter
p450
(dp451
g10
F8.8000000000000007
ssVcom.android.calculator2
p452
(dp453
g10
I1
ssg79
(dp454
g10
I2
ssVcom.MobileTicket
p455
(dp456
g10
F3.6000000000000001
ssVcom.android.systemui
p457
(dp458
g10
F29.699999999999985
ssg87
(dp459
g10
F0.90000000000000002
ssVcom.dianping.v1
p460
(dp461
g10
I2
ssVsina.mobile.tianqitong
p462
(dp463
g10
F3.2999999999999998
ssg95
(dp464
g10
F0.90000000000000002
ssVcom.chaozh.iReaderFree
p465
(dp466
g10
F4.2000000000000002
ssVcom.xunlei.downloadprovider
p467
(dp468
g10
F2.2999999999999998
ssg107
(dp469
g10
F0.69999999999999996
ssVcom.android.calendar
p470
(dp471
g10
F0.69999999999999996
ssVcom.tencent.mm
p472
(dp473
g10
F81.400000000000034
ssVcom.qidian.QDReader
p474
(dp475
g10
F4.5
ssg23
(dp476
g10
I1
ssVcom.android.settings
p477
(dp478
g10
F5.2999999999999998
ssVcom.autonavi.minimap
p479
(dp480
g10
F6.2000000000000002
sssg41
(dp481
Vcom.dianping.v1
p482
(dp483
g10
F0.90000000000000002
ssg59
(dp484
g10
I1
ssVcom.android.systemui
p485
(dp486
g10
F3.3999999999999999
sssg43
(dp487
Vcom.ontim.filemanager
p488
(dp489
g10
F3.8999999999999999
ssVcom.autonavi.minimap
p490
(dp491
g10
F0.90000000000000002
ssVcom.android.systemui
p492
(dp493
g10
F9.0999999999999996
ssVcom.android.mms
p494
(dp495
g10
F0.69999999999999996
ssVcom.android.phone
p496
(dp497
g10
I1
ssVcom.tencent.mobileqq
p498
(dp499
g10
I2
ssVcom.android.contacts
p500
(dp501
g10
F1.3
ssVcom.chaozh.iReaderFree
p502
(dp503
g10
F5.9000000000000004
ssVcom.android.settings
p504
(dp505
g10
F0.69999999999999996
sssg45
(dp506
Vcom.ontim.filemanager
p507
(dp508
g10
F1.3
ssVcom.android.settings
p509
(dp510
g10
F5.0000000000000009
ssVcom.UCMobile
p511
(dp512
g10
I1
ssVcom.android.systemui
p513
(dp514
g10
F5.0999999999999996
ssVcom.tencent.mm
p515
(dp516
g10
F0.69999999999999996
ssVcom.android.contacts
p517
(dp518
g10
F0.40000000000000002
sssg47
(dp519
Vcom.tencent.mm
p520
(dp521
g10
F1.3
ssVcom.android.systemui
p522
(dp523
g10
F3.7000000000000002
sssg49
(dp524
g8
(dp525
g10
F0.40000000000000002
ssVcom.autonavi.minimap
p526
(dp527
g10
F1.6000000000000001
ssVcom.UCMobile
p528
(dp529
g10
F2.3999999999999999
ssVcom.storm.smart
p530
(dp531
g10
F7.1000000000000005
ssVcom.android.contacts
p532
(dp533
g10
F1.3
ssVcn.kuwo.player
p534
(dp535
g10
F7.4000000000000004
ssVcom.estrongs.android.taskmanager
p536
(dp537
g10
F0.90000000000000002
ssg239
(dp538
g10
I2
ssVcom.android.gallery3d
p539
(dp540
g10
F5.5999999999999996
ssVcom.jingdong.app.mall
p541
(dp542
g10
F0.90000000000000002
ssVcom.android.phone
p543
(dp544
g10
F0.69999999999999996
ssVcom.tencent.mobileqq
p545
(dp546
g10
F5
ssVcom.android.settings
p547
(dp548
g10
F4.2999999999999998
ssg83
(dp549
g10
F2.0999999999999996
ssg65
(dp550
g10
F47.699999999999989
ssg99
(dp551
g10
F1.7
ssg101
(dp552
g10
F11.700000000000001
ssg105
(dp553
g10
F24.799999999999986
ssVcom.MobileTicket
p554
(dp555
g10
F0.90000000000000002
ssg117
(dp556
g10
F7.3999999999999995
ssg119
(dp557
g10
I1
ssVcom.qidian.QDReader
p558
(dp559
g10
F7
ssg271
(dp560
g10
F0.69999999999999996
ssVcom.android.bluetooth
p561
(dp562
g10
F6.1000000000000005
sssg51
(dp563
Vcom.xunlei.downloadprovider
p564
(dp565
g10
F6.1000000000000014
ssVcom.estrongs.android.taskmanager
p566
(dp567
g10
F1.7000000000000002
ssVcom.ontim.filemanager
p568
(dp569
g10
F8.4000000000000004
ssg547
(dp570
g10
F19.699999999999996
ssVcom.qidian.QDReader
p571
(dp572
g10
F0.69999999999999996
ssVcom.android.systemui
p573
(dp574
g10
F2.2999999999999998
ssVcom.tencent.mm
p575
(dp576
g10
F1.8
ssVcom.tencent.mobileqq
p577
(dp578
g10
F1.3
sssg53
(dp579
g129
(dp580
g10
F4.5
ssVcom.android.phone
p581
(dp582
g10
F0.90000000000000002
ssVcom.qidian.QDReader
p583
(dp584
g10
F0.90000000000000002
ssVcom.android.mms
p585
(dp586
g10
F1.7
ssg89
(dp587
g10
F6.1000000000000005
ssVcom.UCMobile
p588
(dp589
g10
F4.1999999999999993
ssg33
(dp590
g10
I1
ssVcom.android.systemui
p591
(dp592
g10
F18.5
ssVcom.autonavi.minimap
p593
(dp594
g10
I2
ssVcom.tencent.mm
p595
(dp596
g10
F12.699999999999999
ssVcom.android.contacts
p597
(dp598
g10
F2.6999999999999997
ssVcom.tencent.mobileqq
p599
(dp600
g10
F1.3
sssg55
(dp601
Vcom.xunlei.downloadprovider
p602
(dp603
g10
F1.7
ssVcom.android.deskclock
p604
(dp605
g10
F0.90000000000000002
ssg438
(dp606
g10
F6.2000000000000011
ssVuniqueName.photoAlbumManager
p607
(dp608
g10
F1.3999999999999999
ssVcom.autonavi.minimap
p609
(dp610
g10
F4.9000000000000004
ssg53
(dp611
g10
F0.90000000000000002
ssVcom.qidian.QDReader
p612
(dp613
g10
F0.90000000000000002
ssVcom.baidu.stu
p614
(dp615
g10
I1
ssVcom.android.settings
p616
(dp617
g10
F2.3999999999999999
ssVcom.UCMobile
p618
(dp619
g10
F13
ssVsina.mobile.tianqitong
p620
(dp621
g10
I1
ssVcom.android.notepad
p622
(dp623
g10
I1
ssVcom.android.systemui
p624
(dp625
g10
F15.800000000000002
ssVcom.ontim.softap
p626
(dp627
g10
F0.90000000000000002
ssVcom.tencent.mm
p628
(dp629
g10
F7.7999999999999998
ssVcom.lenovo.safecenter
p630
(dp631
g10
F1.3
ssVcom.chaozh.iReaderFree
p632
(dp633
g10
I1
ssVcom.tencent.mobileqq
p634
(dp635
g10
F2.7000000000000002
sssg57
(dp636
Vcom.ontim.filemanager
p637
(dp638
g10
I1
ssVcom.autonavi.minimap
p639
(dp640
g10
I1
ssVcom.android.mms
p641
(dp642
g10
F1.7
ssg59
(dp643
g10
F1.3
ssVcom.UCMobile
p644
(dp645
g10
F1.7
ssVcom.qidian.QDReader
p646
(dp647
g10
F0.90000000000000002
ssg127
(dp648
g10
F12.199999999999999
ssVcom.android.systemui
p649
(dp650
g10
F11
ssVcom.tencent.mm
p651
(dp652
g10
F5.2999999999999998
ssVcom.lenovo.safecenter
p653
(dp654
g10
F2.6000000000000001
ssVcom.eg.android.AlipayGphone
p655
(dp656
g10
F2.3999999999999999
sssg59
(dp657
Vcom.eg.android.AlipayGphone
p658
(dp659
g10
I1
ssVcom.android.systemui
p660
(dp661
g10
F0.90000000000000002
sssg61
(dp662
Vcom.android.gallery3d
p663
(dp664
g10
I1
ssVcom.wandoujia.phoenix2
p665
(dp666
g10
I1
sssg63
(dp667
g67
(dp668
g10
F0.90000000000000002
ssVcom.tencent.mm
p669
(dp670
g10
F3.1999999999999997
ssg407
(dp671
g10
F5.7000000000000002
sssg65
(dp672
g8
(dp673
g10
F1.7
ssg11
(dp674
g10
F1.8
ssg15
(dp675
g10
F22.399999999999995
ssg17
(dp676
g10
F3.6999999999999997
ssVcom.ss.android.article.news
p677
(dp678
g10
I2
ssVcom.android.mms
p679
(dp680
g10
F9.4000000000000021
ssVcom.sdu.didi.psnger
p681
(dp682
g10
F4.4000000000000004
ssVcom.UCMobile
p683
(dp684
g10
F35.499999999999986
ssg31
(dp685
g10
F3.7000000000000002
ssVcom.android.notepad
p686
(dp687
g10
F0.90000000000000002
ssg530
(dp688
g10
F3.9999999999999996
ssVcom.android.contacts
p689
(dp690
g10
F21.999999999999996
ssg332
(dp691
g10
F2.1000000000000001
ssg234
(dp692
g10
F5
ssg45
(dp693
g10
F1.8999999999999999
ssVcn.wps.moffice_eng
p694
(dp695
g10
F3.2999999999999998
ssg335
(dp696
g10
F42.799999999999983
ssg109
(dp697
g10
F2.6000000000000001
ssVcom.sankuai.meituan
p698
(dp699
g10
F5.8999999999999995
ssVcom.android.gallery3d
p700
(dp701
g10
F13.199999999999999
ssg57
(dp702
g10
F8.0999999999999996
ssVmindware.mindgamespro
p703
(dp704
g10
I1
ssVcom.android.phone
p705
(dp706
g10
F20.999999999999996
ssg67
(dp707
g10
F1.7
ssVcom.tencent.mobileqq
p708
(dp709
g10
F27.199999999999989
ssVcom.lenovo.safecenter
p710
(dp711
g10
F19.399999999999999
ssg73
(dp712
g10
F4.7000000000000002
ssg352
(dp713
g10
I2
ssg83
(dp714
g10
F1.8
ssVcom.tencent.mm
p715
(dp716
g10
F162.20000000000005
ssVcom.vnes.supermr
p717
(dp718
g10
I1
ssg482
(dp719
g10
F4.7000000000000002
ssVcom.pp.assistant
p720
(dp721
g10
F1.3
ssVsina.mobile.tianqitong
p722
(dp723
g10
F7.3000000000000007
ssg97
(dp724
g10
F2.2999999999999998
ssVcom.baidu.stu
p725
(dp726
g10
F1.7
ssVcom.chaozh.iReaderFree
p727
(dp728
g10
F39.599999999999994
ssg105
(dp729
g10
F90.900000000000034
ssg81
(dp730
g10
F28.999999999999989
ssVcom.zhihu.daily.android
p731
(dp732
g10
I1
ssg140
(dp733
g10
F5.2000000000000002
ssg547
(dp734
g10
F18.300000000000001
ssg322
(dp735
g10
F47.09999999999998
ssVcom.youdao.note
p736
(dp737
g10
I1
ssg271
(dp738
g10
F1.8999999999999999
ssg127
(dp739
g10
F3.5
ssg164
(dp740
g10
F1.3
ssVcom.autonavi.minimap
p741
(dp742
g10
F30.599999999999994
sssg67
(dp743
Vcom.tencent.mm
p744
(dp745
g10
F2.8999999999999999
ssVcom.android.systemui
p746
(dp747
g10
F1.8999999999999999
sssg69
(dp748
Vcom.wandoujia.phoenix2
p749
(dp750
g10
F0.90000000000000002
ssg17
(dp751
g10
F1.3999999999999999
ssVcom.autonavi.minimap
p752
(dp753
g10
F1.8999999999999999
ssVcom.android.deskclock
p754
(dp755
g10
F1.8999999999999999
ssg683
(dp756
g10
F7.5
ssg39
(dp757
g10
F3.5
ssg332
(dp758
g10
F0.90000000000000002
ssg234
(dp759
g10
F2.0999999999999996
ssg47
(dp760
g10
F1.7
ssg49
(dp761
g10
F11.5
ssg109
(dp762
g10
F0.40000000000000002
ssVcom.android.gallery3d
p763
(dp764
g10
F2.2999999999999998
ssVcom.android.mms
p765
(dp766
g10
F1.8999999999999999
ssg65
(dp767
g10
F43.699999999999996
ssg117
(dp768
g10
F58.399999999999999
ssg710
(dp769
g10
F1.6000000000000001
ssg705
(dp770
g10
I2
ssg482
(dp771
g10
F0.40000000000000002
ssg93
(dp772
g10
I1
ssg101
(dp773
g10
F14
ssg103
(dp774
g10
F1.7
ssVcom.android.calendar
p775
(dp776
g10
I1
ssVcom.android.settings
p777
(dp778
g10
F3.5999999999999996
ssVcom.qidian.QDReader
p779
(dp780
g10
F19.799999999999997
ssVcom.android.bluetooth
p781
(dp782
g10
F1.3
sssg71
(dp783
Vcom.wandoujia.phoenix2
p784
(dp785
g10
F68.30000000000004
ssVcom.android.mms
p786
(dp787
g10
F7.5000000000000009
ssg25
(dp788
g10
F2.7000000000000002
ssVcom.android.deskclock
p789
(dp790
g10
F1.7
ssVcom.UCMobile
p791
(dp792
g10
F2.7999999999999998
ssVcom.android.notepad
p793
(dp794
g10
I2
ssg689
(dp795
g10
F12.399999999999999
ssVcom.ontim.filemanager
p796
(dp797
g10
F1.7
ssg109
(dp798
g10
F2.6000000000000001
ssVcom.sankuai.meituan
p799
(dp800
g10
F1.3999999999999999
ssVcom.android.gallery3d
p801
(dp802
g10
F2.6000000000000001
ssVcom.jingdong.app.mall
p803
(dp804
g10
F1.7
ssg295
(dp805
g10
F25.799999999999986
ssVcom.tencent.mm
p806
(dp807
g10
F29.499999999999989
ssg77
(dp808
g10
I1
ssVcom.ontim.safe
p809
(dp810
g10
F0.90000000000000002
ssg81
(dp811
g10
F2.8999999999999999
ssVcom.android.phone
p812
(dp813
g10
F2.7000000000000002
ssg91
(dp814
g10
F1.3
ssg61
(dp815
g10
F1.7
ssVcom.xunlei.downloadprovider
p816
(dp817
g10
F6.8000000000000007
ssg107
(dp818
g10
F0.90000000000000002
ssg176
(dp819
g10
F0.69999999999999996
ssVcom.android.settings
p820
(dp821
g10
F3.5
ssVcom.qidian.QDReader
p822
(dp823
g10
F8
ssVcom.jd.mobiledd.sdk
p824
(dp825
g10
F1.3
ssVcom.autonavi.minimap
p826
(dp827
g10
F7.1000000000000005
sssg73
(dp828
Vcom.autonavi.minimap
p829
(dp830
g10
F0.69999999999999996
ssVcom.UCMobile
p831
(dp832
g10
F1.7000000000000002
ssVcom.sankuai.meituan
p833
(dp834
g10
F0.40000000000000002
ssVcom.tencent.mm
p835
(dp836
g10
F0.90000000000000002
ssVcom.android.systemui
p837
(dp838
g10
F4.4000000000000004
sssg75
(dp839
Vcom.android.mms
p840
(dp841
g10
F0.69999999999999996
ssVcom.tencent.mm
p842
(dp843
g10
I1
ssVcom.android.contacts
p844
(dp845
g10
F2.2999999999999998
ssVcom.lenovo.safecenter
p846
(dp847
g10
I1
ssVcom.android.phone
p848
(dp849
g10
F1.8999999999999999
sssg77
(dp850
g289
(dp851
g10
F0.69999999999999996
ssg293
(dp852
g10
F0.90000000000000002
ssVcom.sdu.didi.psnger
p853
(dp854
g10
F1.3999999999999999
sssg79
(dp855
Vcom.android.contacts
p856
(dp857
g10
I2
sssg81
(dp858
Vcom.android.browser
p859
(dp860
g10
F0.90000000000000002
ssVcom.wandoujia.phoenix2
p861
(dp862
g10
I1
ssVcom.ontim.filemanager
p863
(dp864
g10
F0.40000000000000002
ssVcom.android.mms
p865
(dp866
g10
F12.099999999999998
ssVsina.mobile.tianqitong
p867
(dp868
g10
F4.4000000000000004
ssVcom.qidian.QDReader
p869
(dp870
g10
F3.6999999999999993
ssVcom.android.contacts
p871
(dp872
g10
F0.40000000000000002
ssVcom.UCMobile
p873
(dp874
g10
F3.5999999999999996
ssVcom.douban.movie
p875
(dp876
g10
F0.90000000000000002
ssVcom.android.phone
p877
(dp878
g10
F0.90000000000000002
ssg405
(dp879
g10
I1
ssVcom.android.systemui
p880
(dp881
g10
F44.799999999999997
ssVcom.tencent.mm
p882
(dp883
g10
F25.899999999999988
ssg348
(dp884
g10
F1.6000000000000001
ssVcom.android.settings
p885
(dp886
g10
F0.90000000000000002
sssg83
(dp887
Vcom.ontim.filemanager
p888
(dp889
g10
I1
ssVcom.android.phone
p890
(dp891
g10
F0.90000000000000002
ssVcom.android.gallery3d
p892
(dp893
g10
I1
ssg528
(dp894
g10
F1.3
ssVcom.android.systemui
p895
(dp896
g10
F1.3999999999999999
ssVcom.tencent.mobileqq
p897
(dp898
g10
F0.90000000000000002
ssVcom.android.contacts
p899
(dp900
g10
F1.7
sssg85
(dp901
Vcom.xunlei.downloadprovider
p902
(dp903
g10
I1
ssVcom.MobileTicket
p904
(dp905
g10
F1.3
ssg442
(dp906
g10
I1
ssg251
(dp907
g10
I1
ssg79
(dp908
g10
F1.3999999999999999
ssg777
(dp909
g10
F1.8
ssg462
(dp910
g10
F1.7
ssg786
(dp911
g10
F17.100000000000001
ssVcom.android.systemui
p912
(dp913
g10
F4.2999999999999998
ssg689
(dp914
g10
F96.400000000000091
ssg791
(dp915
g10
F6.4000000000000004
ssg583
(dp916
g10
F0.69999999999999996
ssVcom.autonavi.minimap
p917
(dp918
g10
I1
ssVcom.android.gallery3d
p919
(dp920
g10
F0.69999999999999996
ssg433
(dp921
g10
F3.4000000000000004
ssg806
(dp922
g10
F19
ssVcom.lenovo.safecenter
p923
(dp924
g10
F18.899999999999999
ssVcom.chaozh.iReaderFree
p925
(dp926
g10
I1
ssVcom.tencent.mobileqq
p927
(dp928
g10
I1
sssg87
(dp929
Vcom.tencent.mm
p930
(dp931
g10
F0.40000000000000002
ssVcom.tencent.mobileqq
p932
(dp933
g10
F0.90000000000000002
ssVcom.android.systemui
p934
(dp935
g10
F2.7000000000000002
sssg89
(dp936
Vcom.android.settings
p937
(dp938
g10
I1
ssVcom.tencent.mm
p939
(dp940
g10
F3.1999999999999997
ssVcom.sankuai.meituan
p941
(dp942
g10
F7
ssg324
(dp943
g10
F1.3
ssVcom.UCMobile
p944
(dp945
g10
F0.80000000000000004
ssVcom.android.systemui
p946
(dp947
g10
F10.399999999999999
ssVcom.autonavi.minimap
p948
(dp949
g10
F3.8999999999999999
ssg581
(dp950
g10
F2.2999999999999998
ssg597
(dp951
g10
F2.5999999999999996
sssg91
(dp952
Vcom.xunlei.downloadprovider
p953
(dp954
g10
F0.40000000000000002
ssg11
(dp955
g10
F0.90000000000000002
ssVcom.wandoujia.phoenix2
p956
(dp957
g10
F1.7
ssg155
(dp958
g10
F0.40000000000000002
ssg157
(dp959
g10
F0.69999999999999996
ssVcom.lenovo.safecenter
p960
(dp961
g10
F0.90000000000000002
ssVcom.chaozh.iReaderFree
p962
(dp963
g10
I1
sssg93
(dp964
g602
(dp965
g10
F1.3
ssVcom.MobileTicket
p966
(dp967
g10
I2
ssVcom.android.gallery3d
p968
(dp969
g10
F1.8999999999999999
ssVcom.android.phone
p970
(dp971
g10
F2.3999999999999999
ssVcom.qidian.QDReader
p972
(dp973
g10
I1
ssVcom.android.mms
p974
(dp975
g10
F1.8999999999999999
ssVcom.android.contacts
p976
(dp977
g10
F0.90000000000000002
ssVcom.UCMobile
p978
(dp979
g10
I3
ssVtv.danmaku.bili
p980
(dp981
g10
F0.90000000000000002
ssVcom.android.systemui
p982
(dp983
g10
F12.199999999999999
ssVcom.tencent.mm
p984
(dp985
g10
F7.4000000000000004
ssg846
(dp986
g10
F1.3
ssVcom.chaozh.iReaderFree
p987
(dp988
g10
F4.2999999999999998
ssg75
(dp989
g10
I1
sssg95
(dp990
Vcom.android.settings
p991
(dp992
g10
F1.7
ssVcom.tencent.mm
p993
(dp994
g10
F0.40000000000000002
ssg440
(dp995
g10
F0.90000000000000002
sssg97
(dp996
Vcom.android.settings
p997
(dp998
g10
I2
sssg99
(dp999
Vcom.xunlei.downloadprovider
p1000
(dp1001
g10
F1.8
ssVcom.ontim.filemanager
p1002
(dp1003
g10
F1.3999999999999999
ssVcom.android.systemui
p1004
(dp1005
g10
F1.7
sssg101
(dp1006
g11
(dp1007
g10
F1.7
ssVcom.wandoujia.phoenix2
p1008
(dp1009
g10
F0.90000000000000002
ssg17
(dp1010
g10
F2.3999999999999999
ssVcom.android.mms
p1011
(dp1012
g10
F15.1
ssg25
(dp1013
g10
F0.40000000000000002
ssg226
(dp1014
g10
F11.9
ssVcom.android.notepad
p1015
(dp1016
g10
I4
ssVcom.android.contacts
p1017
(dp1018
g10
F10.100000000000001
ssVcn.kuwo.player
p1019
(dp1020
g10
F8.6000000000000014
ssVcn.wps.moffice_eng
p1021
(dp1022
g10
F1.7
ssVcom.ontim.filemanager
p1023
(dp1024
g10
F12.600000000000001
ssVcom.sankuai.meituan
p1025
(dp1026
g10
F0.90000000000000002
ssVcom.android.gallery3d
p1027
(dp1028
g10
F0.90000000000000002
ssVcom.jingdong.app.mall
p1029
(dp1030
g10
I2
ssg63
(dp1031
g10
F0.69999999999999996
ssg65
(dp1032
g10
F78.700000000000045
ssg708
(dp1033
g10
F17.299999999999997
ssg923
(dp1034
g10
F7.3000000000000007
ssg809
(dp1035
g10
F0.40000000000000002
ssVcom.android.phone
p1036
(dp1037
g10
F12.300000000000001
ssg720
(dp1038
g10
F1.7
ssVsina.mobile.tianqitong
p1039
(dp1040
g10
I6
ssVme.abitno.vplayer.t
p1041
(dp1042
g10
I1
ssVcom.xunlei.downloadprovider
p1043
(dp1044
g10
F25.299999999999983
ssg470
(dp1045
g10
I1
ssg715
(dp1046
g10
F71.599999999999994
ssg558
(dp1047
g10
F9.5000000000000018
ssg123
(dp1048
g10
F1.8
ssg271
(dp1049
g10
F0.40000000000000002
ssVcom.android.settings
p1050
(dp1051
g10
F3.6000000000000001
ssVcom.autonavi.minimap
p1052
(dp1053
g10
F4.9000000000000004
sssg103
(dp1054
Vcom.tencent.mm
p1055
(dp1056
g10
F0.69999999999999996
ssVcom.chaozh.iReaderFree
p1057
(dp1058
g10
F0.90000000000000002
ssVcom.android.systemui
p1059
(dp1060
g10
I1
sssg105
(dp1061
g8
(dp1062
g10
F0.90000000000000002
ssg536
(dp1063
g10
F0.69999999999999996
ssg15
(dp1064
g10
F6.9000000000000012
ssVcom.ontim.filemanager
p1065
(dp1066
g10
F27.999999999999989
ssg140
(dp1067
g10
I1
ssg561
(dp1068
g10
F6
ssVcom.qidian.QDReader
p1069
(dp1070
g10
F4.6999999999999993
ssVcom.android.contacts
p1071
(dp1072
g10
F1.3
ssVcom.UCMobile
p1073
(dp1074
g10
F1.6000000000000001
ssg83
(dp1075
g10
F0.69999999999999996
ssVcom.android.systemui
p1076
(dp1077
g10
F73.600000000000009
ssg530
(dp1078
g10
F2.5
ssVcom.tencent.mm
p1079
(dp1080
g10
F6.6000000000000005
ssVcom.lenovo.safecenter
p1081
(dp1082
g10
F9.4000000000000004
ssVcom.chaozh.iReaderFree
p1083
(dp1084
g10
F10.100000000000001
ssVcom.android.settings
p1085
(dp1086
g10
F3.8999999999999999
sssg107
(dp1087
sg109
(dp1088
Vcom.xunlei.downloadprovider
p1089
(dp1090
g10
F1.7000000000000002
ssVcom.android.settings
p1091
(dp1092
g10
F0.40000000000000002
ssVcom.chaozh.iReaderFree
p1093
(dp1094
g10
F0.69999999999999996
ssVcom.ontim.filemanager
p1095
(dp1096
g10
F1.7
ssVcom.android.systemui
p1097
(dp1098
g10
F3.6000000000000001
sssg111
(dp1099
g641
(dp1100
g10
F0.40000000000000002
ssVcom.tencent.mm
p1101
(dp1102
g10
F0.90000000000000002
ssVcom.jingdong.app.mall
p1103
(dp1104
g10
F1.7
sssg113
(dp1105
Vcom.baidu.tieba
p1106
(dp1107
g10
I1
ssVcom.tencent.mm
p1108
(dp1109
g10
F0.90000000000000002
ssVcom.android.systemui
p1110
(dp1111
g10
F2.8999999999999999
sssg115
(dp1112
Vcom.android.browser
p1113
(dp1114
g10
F1.7
ssg103
(dp1115
g10
F0.90000000000000002
ssVcom.MobileTicket
p1116
(dp1117
g10
I1
ssVcom.tencent.mobileqq
p1118
(dp1119
g10
I1
ssVcom.sankuai.meituan
p1120
(dp1121
g10
F1.7
ssVcom.android.mms
p1122
(dp1123
g10
I1
ssVcom.dianping.v1
p1124
(dp1125
g10
F0.90000000000000002
ssg33
(dp1126
g10
F0.90000000000000002
ssg1059
(dp1127
g10
F5.4000000000000012
ssVcom.tencent.mm
p1128
(dp1129
g10
I2
ssVcom.android.contacts
p1130
(dp1131
g10
F0.90000000000000002
ssVcom.chaozh.iReaderFree
p1132
(dp1133
g10
F1.3999999999999999
sssg117
(dp1134
Vcom.android.browser
p1135
(dp1136
g10
I1
ssg15
(dp1137
g10
F9.7000000000000011
ssVcom.youdao.dict
p1138
(dp1139
g10
F6.9000000000000004
ssVcom.android.mms
p1140
(dp1141
g10
F64.699999999999989
ssg25
(dp1142
g10
F11.399999999999999
ssg754
(dp1143
g10
F3.2999999999999998
ssVcom.UCMobile
p1144
(dp1145
g10
F58.59999999999998
ssg228
(dp1146
g10
F3.2999999999999998
ssVcom.android.notepad
p1147
(dp1148
g10
F6.7000000000000002
ssVcom.storm.smart
p1149
(dp1150
g10
F0.40000000000000002
ssg39
(dp1151
g10
F116.60000000000011
ssg41
(dp1152
g10
I1
ssg234
(dp1153
g10
F3.7000000000000002
ssVcom.ontim.filemanager
p1154
(dp1155
g10
F10.700000000000001
ssVcom.android.bluetooth
p1156
(dp1157
g10
F1.6000000000000001
ssVcom.sankuai.meituan
p1158
(dp1159
g10
F23.599999999999994
ssVcom.android.gallery3d
p1160
(dp1161
g10
F24.199999999999996
ssVcom.jingdong.app.mall
p1162
(dp1163
g10
F7.5000000000000009
ssVmindware.mindgamespro
p1164
(dp1165
g10
F1.8999999999999999
ssg344
(dp1166
g10
F72.299999999999997
ssg67
(dp1167
g10
F0.40000000000000002
ssVcom.tencent.mobileqq
p1168
(dp1169
g10
F56.200000000000003
ssg71
(dp1170
g10
F38.79999999999999
ssg79
(dp1171
g10
F1.3
ssVcom.MobileTicket
p1172
(dp1173
g10
F41
ssVcom.android.systemui
p1174
(dp1175
g10
F206.3000000000003
ssg87
(dp1176
g10
I1
ssg89
(dp1177
g10
F10.100000000000001
ssVsina.mobile.tianqitong
p1178
(dp1179
g10
F14.300000000000002
ssg97
(dp1180
g10
F2.1000000000000001
ssg61
(dp1181
g10
F2.3999999999999999
ssg101
(dp1182
g10
F25.899999999999995
ssVcom.xunlei.downloadprovider
p1183
(dp1184
g10
F14.700000000000001
ssg107
(dp1185
g10
I1
ssg470
(dp1186
g10
F4.2000000000000002
ssg1085
(dp1187
g10
F34.199999999999996
ssg779
(dp1188
g10
F95.500000000000028
ssVcom.baidu.tieba
p1189
(dp1190
g10
F1.8
ssVcom.jd.mobiledd.sdk
p1191
(dp1192
g10
F3.1000000000000001
ssVcom.autonavi.minimap
p1193
(dp1194
g10
F68.199999999999989
sssg119
(dp1195
Vcom.tencent.mm
p1196
(dp1197
g10
F0.90000000000000002
ssVcom.android.systemui
p1198
(dp1199
g10
I1
sssg121
(dp1200
g285
(dp1201
g10
F3
ssVcom.autonavi.minimap
p1202
(dp1203
g10
F4.7000000000000002
ssVcom.sdu.didi.psnger
p1204
(dp1205
g10
I1
ssVcom.UCMobile
p1206
(dp1207
g10
F5.6000000000000005
ssg326
(dp1208
g10
F1.7
ssVcom.android.contacts
p1209
(dp1210
g10
F35.999999999999993
ssVcn.kuwo.player
p1211
(dp1212
g10
F0.90000000000000002
ssVcom.ontim.filemanager
p1213
(dp1214
g10
F1.3999999999999999
ssVcom.sankuai.meituan
p1215
(dp1216
g10
F1.8999999999999999
ssVcom.android.gallery3d
p1217
(dp1218
g10
F1.3
ssVcom.jingdong.app.mall
p1219
(dp1220
g10
F1.7
ssVcom.android.phone
p1221
(dp1222
g10
F17.5
ssVcom.tencent.mobileqq
p1223
(dp1224
g10
F2.5
ssVcom.lenovo.safecenter
p1225
(dp1226
g10
F4.7000000000000002
ssg457
(dp1227
g10
F17.399999999999999
ssg462
(dp1228
g10
I4
ssVcom.chaozh.iReaderFree
p1229
(dp1230
g10
F8.6999999999999993
ssVcom.MobileTicket
p1231
(dp1232
g10
F6.7000000000000002
ssVcom.tencent.mm
p1233
(dp1234
g10
F57.899999999999991
ssg474
(dp1235
g10
F8.1000000000000014
ssVcom.jd.mobiledd.sdk
p1236
(dp1237
g10
F0.90000000000000002
ssg477
(dp1238
g10
I5
sssg123
(dp1239
g63
(dp1240
g10
I1
ssVcom.UCMobile
p1241
(dp1242
g10
I1
ssg669
(dp1243
g10
F1.6000000000000001
ssVcom.qidian.QDReader
p1244
(dp1245
g10
F0.69999999999999996
ssg407
(dp1246
g10
F1.8999999999999999
sssg125
(dp1247
g1116
(dp1248
g10
F0.40000000000000002
ssVcom.ontim.filemanager
p1249
(dp1250
g10
F0.69999999999999996
ssVcom.android.calendar
p1251
(dp1252
g10
F0.69999999999999996
ssVcom.android.settings
p1253
(dp1254
g10
I1
ssVcom.UCMobile
p1255
(dp1256
g10
I1
ssVcom.android.systemui
p1257
(dp1258
g10
F5.5
ssVcom.tencent.mm
p1259
(dp1260
g10
F1.8999999999999999
ssVcom.chaozh.iReaderFree
p1261
(dp1262
g10
F0.40000000000000002
sssg127
(dp1263
Vcom.jingdong.app.mall
p1264
(dp1265
g10
F10.1
ssg59
(dp1266
g10
F0.69999999999999996
ssVcom.android.systemui
p1267
(dp1268
g10
F3.2999999999999998
ssg651
(dp1269
g10
F2.2000000000000002
ssVcom.lenovo.safecenter
p1270
(dp1271
g10
F0.90000000000000002
ssg655
(dp1272
g10
F1.3
sssg129
(dp1273
Vcom.wandoujia.phoenix2
p1274
(dp1275
g10
F0.90000000000000002
ssVcom.qidian.QDReader
p1276
(dp1277
g10
F5.1000000000000005
ssVcom.android.deskclock
p1278
(dp1279
g10
F2.7000000000000002
ssVcom.UCMobile
p1280
(dp1281
g10
F3.6000000000000001
ssVcom.douban.movie
p1282
(dp1283
g10
I1
ssVcom.android.notepad
p1284
(dp1285
g10
I1
ssVcom.android.contacts
p1286
(dp1287
g10
F6.2999999999999998
ssVcn.kuwo.player
p1288
(dp1289
g10
F0.69999999999999996
ssVcom.estrongs.android.taskmanager
p1290
(dp1291
g10
F6.1000000000000005
ssg568
(dp1292
g10
F11.200000000000001
ssg51
(dp1293
g10
F22.599999999999998
ssVcom.sankuai.meituan
p1294
(dp1295
g10
F2.2999999999999998
ssg444
(dp1296
g10
F2.7000000000000002
ssg573
(dp1297
g10
F22.099999999999998
ssVcom.tencent.mm
p1298
(dp1299
g10
F25.399999999999999
ssVcom.lenovo.safecenter
p1300
(dp1301
g10
F2.6000000000000001
ssVcom.android.phone
p1302
(dp1303
g10
F3.1000000000000001
ssg97
(dp1304
g10
F2.5999999999999996
ssg310
(dp1305
g10
F0.69999999999999996
ssg95
(dp1306
g10
I1
ssVcom.chaozh.iReaderFree
p1307
(dp1308
g10
I1
ssg105
(dp1309
g10
F4.2999999999999998
ssg113
(dp1310
g10
I1
ssg599
(dp1311
g10
F5.5
ssg181
(dp1312
g10
F1.3999999999999999
ssg1189
(dp1313
g10
F0.69999999999999996
ssVcom.autonavi.minimap
p1314
(dp1315
g10
F2.3999999999999999
sssg131
(dp1316
Vcom.qidian.QDReader
p1317
(dp1318
g10
F3.8999999999999999
ssVcom.sdu.didi.psnger
p1319
(dp1320
g10
F1.8999999999999999
ssg27
(dp1321
g10
I1
ssg1144
(dp1322
g10
F14.800000000000001
ssVcom.sohu.inputmethod.sogou
p1323
(dp1324
g10
I1
ssVcom.android.notepad
p1325
(dp1326
g10
I2
ssVcom.android.contacts
p1327
(dp1328
g10
F9.7000000000000011
ssg1288
(dp1329
g10
F0.40000000000000002
ssVcom.ontim.filemanager
p1330
(dp1331
g10
F0.69999999999999996
ssg53
(dp1332
g10
F14.399999999999999
ssg1160
(dp1333
g10
F8.6999999999999993
ssg243
(dp1334
g10
F3
ssg354
(dp1335
g10
F50.199999999999989
ssVcom.tencent.mm
p1336
(dp1337
g10
F51.699999999999989
ssg71
(dp1338
g10
F6.7000000000000002
ssg85
(dp1339
g10
F13.4
ssg89
(dp1340
g10
F6.1000000000000005
ssg1178
(dp1341
g10
F3.7999999999999998
ssg1307
(dp1342
g10
F0.90000000000000002
ssg367
(dp1343
g10
F0.40000000000000002
ssVcom.MobileTicket
p1344
(dp1345
g10
F0.40000000000000002
ssg129
(dp1346
g10
F6.1000000000000005
ssVcom.android.mms
p1347
(dp1348
g10
F6
ssg273
(dp1349
g10
F0.40000000000000002
ssssS'edge'
p1350
g136
sS'pred'
p1351
(dp1352
g8
(dp1353
Vcom.xunlei.downloadprovider
p1354
g1062
sVcom.youdao.dict
p1355
g196
sVcom.ontim.filemanager
p1356
g525
sVcom.android.systemui
p1357
g673
ssg11
(dp1358
g1116
g860
sVcom.android.calendar
p1359
g1114
sVcom.UCMobile
p1360
g318
sg720
g955
sVcom.android.systemui
p1361
g674
sVcom.tencent.mm
p1362
g1136
sVcom.chaozh.iReaderFree
p1363
g1007
ssg13
(dp1364
sg15
(dp1365
g1183
g1064
sg81
g862
sVcom.qidian.QDReader
p1366
g221
sVcom.android.contacts
p1367
g428
sVcom.tencent.mobileqq
p1368
g750
sg291
g1201
sg681
g286
sg184
g320
sg91
g957
sVcom.android.systemui
p1369
g675
sg61
g666
sVcom.tencent.mm
p1370
g1137
sg301
g785
sVcom.chaozh.iReaderFree
p1371
g1009
sg820
g1275
ssg17
(dp1372
Vcom.tencent.mobileqq
p1373
g751
sVcom.qidian.QDReader
p1374
g223
sVcom.UCMobile
p1375
g321
sVcom.android.systemui
p1376
g676
sg209
g1139
sVcom.chaozh.iReaderFree
p1377
g1010
ssg19
(dp1378
Vcom.android.contacts
p1379
g430
sVcom.android.systemui
p1380
g678
ssg21
(dp1381
g220
g180
sVcom.autonavi.minimap
p1382
g1318
sVcom.android.deskclock
p1383
g309
sg1144
g323
sg31
g381
sg35
g399
sVcom.storm.smart
p1384
g420
sg1209
g475
sg1249
g559
sVcom.android.bluetooth
p1385
g572
sg442
g584
sVcom.android.gallery3d
p1386
g613
sVcom.jingdong.app.mall
p1387
g647
sg581
g916
sg247
g1188
sVcom.lenovo.safecenter
p1388
g823
sg354
g735
sg255
g973
sg1261
g1047
sg417
g1070
sVcom.MobileTicket
p1389
g870
sg267
g780
sVcom.android.mms
p1390
g1235
sg736
g1245
sVcom.android.settings
p1391
g1277
ssg23
(dp1392
Vcom.android.contacts
p1393
g476
ssg25
(dp1394
g1008
g183
sVcom.autonavi.minimap
p1395
g1320
sg289
g921
sVcom.android.mms
p1396
g1205
sVcom.dianping.v1
p1397
g943
sVcom.UCMobile
p1398
g325
sg295
g682
sg297
g854
sg293
g434
sVcom.tencent.mm
p1399
g1142
sg192
g788
sg1371
g1013
ssg27
(dp1400
g131
g1321
sVcom.android.gallery3d
p1401
g605
sg314
g1279
sVcom.tencent.mm
p1402
g1143
sVcom.lenovo.safecenter
p1403
g790
sVcom.tencent.mobileqq
p1404
g755
ssg29
(dp1405
g8
g145
sg13
g161
sVcom.wandoujia.phoenix2
p1406
g185
sVcom.youdao.dict
p1407
g206
sVcom.autonavi.minimap
p1408
g1322
sVcom.jingdong.app.mall
p1409
g645
sVcom.android.notepad
p1410
g404
sVcom.android.contacts
p1411
g435
sg45
g512
sVcom.ontim.filemanager
p1412
g529
sg698
g589
sg341
g619
sVcom.android.mms
p1413
g1207
sVcom.android.systemui
p1414
g684
sVcom.tencent.mm
p1415
g1145
sg1225
g792
sg350
g832
sg83
g894
sg1221
g915
sVcom.dianping.v1
p1416
g945
sVsina.mobile.tianqitong
p1417
g979
sg258
g1014
sVcom.xunlei.downloadprovider
p1418
g1074
sVcom.MobileTicket
p1419
g874
sVcom.tencent.mobileqq
p1420
g756
sVcom.qidian.QDReader
p1421
g227
sVcom.youdao.note
p1422
g1242
sg125
g1256
sVcom.android.settings
p1423
g1281
ssg31
(dp1424
Vcom.qidian.QDReader
p1425
g229
sVcom.MobileTicket
p1426
g876
sVcom.android.settings
p1427
g1283
sVcom.tencent.mm
p1428
g1146
sVcom.android.systemui
p1429
g685
ssg33
(dp1430
Vcom.android.calendar
p1431
g1126
sVcom.autonavi.minimap
p1432
g1324
sVcom.sankuai.meituan
p1433
g590
ssg35
(dp1434
Vcom.android.gallery3d
p1435
g623
sVcom.autonavi.minimap
p1436
g1326
sVcom.android.mms
p1437
g1208
sVcom.android.contacts
p1438
g437
sVcom.UCMobile
p1439
g327
sVcom.qidian.QDReader
p1440
g231
sVcom.android.systemui
p1441
g687
sVcom.tencent.mm
p1442
g1148
sVcom.lenovo.safecenter
p1443
g794
sVcom.chaozh.iReaderFree
p1444
g1016
sVcom.android.settings
p1445
g1285
ssg37
(dp1446
Vcom.xunlei.downloadprovider
p1447
g1078
sVcom.UCMobile
p1448
g329
sVcom.tencent.mm
p1449
g1150
sVcom.ontim.filemanager
p1450
g531
sVcom.android.systemui
p1451
g688
ssg39
(dp1452
g195
g149
sg1274
g173
sg1355
g211
sg677
g216
sVcom.qidian.QDReader
p1453
g233
sVcom.sdu.didi.psnger
p1454
g294
sVcom.UCMobile
p1455
g331
sVcom.android.notepad
p1456
g393
sVcn.kuwo.player
p1457
g501
sVcom.estrongs.android.taskmanager
p1458
g518
sVcom.ontim.filemanager
p1459
g533
sVcom.sankuai.meituan
p1460
g598
sVcom.android.systemui
p1461
g690
sVcom.tencent.mobileqq
p1462
g757
sg710
g795
sVcom.android.calculator2
p1463
g845
sg297
g852
sg79
g857
sVuniqueName.photoAlbumManager
p1464
g900
sg705
g914
sVcom.dianping.v1
p1465
g951
sVsina.mobile.tianqitong
p1466
g977
sVcom.chaozh.iReaderFree
p1467
g1018
sVcom.xunlei.downloadprovider
p1468
g1072
sVcom.MobileTicket
p1469
g872
sVcom.android.calendar
p1470
g1131
sVcom.android.settings
p1471
g1287
sVcom.tencent.mm
p1472
g1151
sg1390
g1210
sg23
g279
sVcom.autonavi.minimap
p1473
g1328
ssg41
(dp1474
Vcom.tencent.mobileqq
p1475
g758
sVcom.jingdong.app.mall
p1476
g656
sg59
g659
sVcom.UCMobile
p1477
g333
sg273
g1272
sVcom.android.systemui
p1478
g691
sVcom.tencent.mm
p1479
g1152
ssg43
(dp1480
g488
g535
sVcom.tencent.mobileqq
p1481
g759
sVcom.qidian.QDReader
p1482
g235
sVcom.android.mms
p1483
g1212
sVcom.android.systemui
p1484
g692
sg490
g1329
sVcom.tencent.mm
p1485
g1153
sVcom.chaozh.iReaderFree
p1486
g1020
sg504
g1289
ssg45
(dp1487
Vcom.xunlei.downloadprovider
p1488
g1063
sVcom.ontim.filemanager
p1489
g537
sg509
g1291
sVcom.qidian.QDReader
p1490
g236
sVcom.UCMobile
p1491
g334
sVcom.android.systemui
p1492
g693
sVcom.android.bluetooth
p1493
g567
ssg47
(dp1494
Vcom.tencent.mobileqq
p1495
g760
sVcom.chaozh.iReaderFree
p1496
g1022
sg522
g695
ssg49
(dp1497
g11
g156
sVcom.wandoujia.phoenix2
p1498
g175
sg490
g1331
sg683
g336
sg37
g423
sg517
g439
sg1019
g489
sg536
g508
sg51
g569
sg444
g606
sVcom.jingdong.app.mall
p1499
g638
sg1414
g696
sg69
g761
sVcom.lenovo.safecenter
p1500
g797
sVcom.android.settings
p1501
g1292
sg83
g889
sg720
g958
sg99
g1003
sg101
g1024
sg105
g1066
sVcom.MobileTicket
p1502
g864
sg1483
g1214
sg117
g1155
sVcom.qidian.QDReader
p1503
g238
sg125
g1250
sVru.zdevs.zarchiver
p1504
g1096
ssg51
(dp1505
g105
g1068
sg13
g165
sVcom.ontim.filemanager
p1506
g562
sg1501
g1293
sVcom.tencent.mm
p1507
g1157
sVcom.UCMobile
p1508
g338
sg166
g740
sg95
g995
sVcom.tencent.mobileqq
p1509
g782
sVcom.android.contacts
p1510
g441
ssg53
(dp1511
g597
g443
sVcom.android.calendar
p1512
g1121
sg609
g1332
sg581
g906
sg55
g611
sg585
g1216
sVcom.dianping.v1
p1513
g942
sVcom.UCMobile
p1514
g340
sVtv.danmaku.bili
p1515
g834
sVcom.android.systemui
p1516
g699
sVcom.tencent.mm
p1517
g1159
sVcom.lenovo.safecenter
p1518
g800
sVcom.chaozh.iReaderFree
p1519
g1026
sg129
g1295
ssg55
(dp1520
g438
g540
sg607
g893
sVcom.autonavi.minimap
p1521
g1333
sVcom.android.systemui
p1522
g701
sVcom.qidian.QDReader
p1523
g242
sVcom.android.mms
p1524
g1218
sVcom.lenovo.safecenter
p1525
g802
sVcom.android.settings
p1526
g1296
sVcom.UCMobile
p1527
g342
sVcom.android.phone
p1528
g920
sVsina.mobile.tianqitong
p1529
g969
sg725
g664
sVcom.tencent.mm
p1530
g1161
sg517
g445
sVcom.chaozh.iReaderFree
p1531
g1028
sVcom.tencent.mobileqq
p1532
g764
ssg57
(dp1533
g111
g1104
sg637
g542
sg224
g1334
sVcom.qidian.QDReader
p1534
g244
sg641
g1220
sVcom.UCMobile
p1535
g343
sg127
g1265
sVcom.android.systemui
p1536
g702
sg651
g1163
sg1270
g804
sVcom.chaozh.iReaderFree
p1537
g1030
ssg59
(dp1538
g655
g484
sg1476
g643
sg273
g1266
ssg61
(dp1539
Vcom.wandoujia.phoenix2
p1540
g189
sVcom.qidian.QDReader
p1541
g257
sg663
g615
sVcom.android.systemui
p1542
g726
sVcom.tencent.mm
p1543
g1181
sVcom.lenovo.safecenter
p1544
g815
ssg63
(dp1545
Vcom.android.systemui
p1546
g704
sVcom.tencent.mm
p1547
g1165
sg1015
g402
sg1444
g1031
sg123
g1240
ssg65
(dp1548
g8
g143
sg11
g158
sg13
g167
sg15
g188
sg1407
g202
sg1390
g1227
sg25
g296
sg754
g307
sg1144
g355
sg31
g383
sg1323
g388
sg1015
g408
sg37
g425
sg1209
g458
sg332
g486
sg234
g493
sg536
g514
sg47
g523
sg1154
g550
sg51
g574
sg799
g592
sVcom.android.gallery3d
p1549
g625
sg1499
g650
sg59
g661
sg63
g671
sg1408
g1335
sg67
g747
sg1168
g767
sg192
g805
sg350
g838
sg83
g896
sVcom.tencent.mm
p1550
g1175
sg87
g935
sg1513
g947
sg720
g959
sVsina.mobile.tianqitong
p1551
g983
sg99
g1005
sg101
g1032
sg103
g1060
sg362
g1077
sg1389
g881
sg113
g1111
sg775
g1127
sg1501
g1297
sg119
g1199
sVcom.qidian.QDReader
p1552
g254
sg123
g1246
sg125
g1258
sVcom.jd.mobiledd.sdk
p1553
g1268
sg109
g1098
sVcom.android.phone
p1554
g913
ssg67
(dp1555
g703
g668
sVcom.tencent.mm
p1556
g1167
sg1546
g707
ssg69
(dp1557
g43
g499
sg763
g635
sVcom.youdao.dict
p1558
g200
sg49
g546
sg775
g1119
sg129
g1311
sVcom.sankuai.meituan
p1559
g600
sg21
g268
sg1413
g1224
sg717
g933
sg1144
g368
sg31
g377
sVcom.android.phone
p1560
g928
sg607
g898
sVcom.android.notepad
p1561
g415
sg65
g709
sg1408
g1343
sg117
g1169
sVcom.android.contacts
p1562
g449
sg101
g1033
sVcom.android.bluetooth
p1563
g578
ssg71
(dp1564
g1008
g193
sg1193
g1338
sVcom.jingdong.app.mall
p1565
g654
sg873
g349
sVcom.android.notepad
p1566
g401
sg1367
g451
sg801
g631
sg679
g1226
sg1461
g711
sVcom.tencent.mm
p1567
g1170
sg75
g847
sg1036
g924
sg91
g961
sVsina.mobile.tianqitong
p1568
g986
sg681
g302
sVcom.chaozh.iReaderFree
p1569
g1034
sVcom.tencent.mobileqq
p1570
g769
sVcom.xunlei.downloadprovider
p1571
g1082
sg1419
g884
sg820
g1301
sVcom.qidian.QDReader
p1572
g250
sg1236
g1271
ssg73
(dp1573
Vcom.UCMobile
p1574
g351
sVsina.mobile.tianqitong
p1575
g981
sVcom.android.systemui
p1576
g712
ssg75
(dp1577
Vcom.android.contacts
p1578
g453
sg1568
g989
ssg77
(dp1579
Vcom.android.systemui
p1580
g713
sVcom.qidian.QDReader
p1581
g252
sg1454
g298
sVcom.UCMobile
p1582
g353
sVcom.android.phone
p1583
g907
sVcom.lenovo.safecenter
p1584
g808
ssg79
(dp1585
Vcom.lenovo.safecenter
p1586
g810
sVcom.tencent.mm
p1587
g1171
sVcom.android.contacts
p1588
g454
sVcom.chaozh.iReaderFree
p1589
g1035
sVcom.android.phone
p1590
g908
ssg81
(dp1591
g319
g171
sVcom.youdao.dict
p1592
g198
sVcom.ontim.filemanager
p1593
g555
sg1251
g1117
sg865
g1232
sg877
g905
sVcom.qidian.QDReader
p1594
g263
sVcom.android.contacts
p1595
g456
sg873
g365
sVsina.mobile.tianqitong
p1596
g967
sg1189
g1248
sVcom.android.notepad
p1597
g391
sVcom.android.systemui
p1598
g730
sVcom.autonavi.minimap
p1599
g1345
sVcom.sdu.didi.psnger
p1600
g284
sVcom.tencent.mm
p1601
g1173
sVcom.lenovo.safecenter
p1602
g811
ssg83
(dp1603
g1000
g1075
sVcom.android.gallery3d
p1604
g608
sg1002
g549
sg1004
g714
ssg85
(dp1605
g195
g147
sVcom.youdao.dict
p1606
g208
sg677
g218
sVcom.autonavi.minimap
p1607
g1339
sg1454
g290
sg1455
g345
sg1456
g397
sVcom.android.contacts
p1608
g447
sVcn.kuwo.player
p1609
g497
sg1459
g544
sVcom.sankuai.meituan
p1610
g582
sg679
g1222
sg1461
g706
sVcom.tencent.mm
p1611
g1166
sg23
g281
sg1463
g849
sg297
g851
sg1464
g891
sg1465
g950
sVsina.mobile.tianqitong
p1612
g971
sg1569
g1037
sVcom.MobileTicket
p1613
g878
sg1570
g770
sVcom.qidian.QDReader
p1614
g246
sVcom.lenovo.safecenter
p1615
g813
sVcom.android.settings
p1616
g1303
ssg87
(dp1617
Vcom.tencent.mm
p1618
g1176
sVcom.android.contacts
p1619
g459
sVcom.android.systemui
p1620
g718
ssg89
(dp1621
g1512
g1125
sVcom.autonavi.minimap
p1622
g1340
sVcom.sankuai.meituan
p1623
g587
sg1514
g357
sVcom.android.systemui
p1624
g719
sVcom.tencent.mm
p1625
g1177
sVcom.android.contacts
p1626
g461
sg332
g483
sg1475
g771
ssg91
(dp1627
Vcom.wandoujia.phoenix2
p1628
g186
sVcom.lenovo.safecenter
p1629
g814
sVcom.chaozh.iReaderFree
p1630
g1038
sVcom.android.systemui
p1631
g721
ssg93
(dp1632
Vcom.MobileTicket
p1633
g868
sVcom.android.gallery3d
p1634
g621
sVcom.autonavi.minimap
p1635
g1341
sVcom.android.systemui
p1636
g723
sVcom.qidian.QDReader
p1637
g256
sVcom.android.mms
p1638
g1228
sg1278
g311
sVcom.UCMobile
p1639
g359
sVcom.android.phone
p1640
g910
sVcom.android.settings
p1641
g1305
sVcom.tencent.mm
p1642
g1179
sVcom.android.contacts
p1643
g463
sVcom.chaozh.iReaderFree
p1644
g1040
sVcom.tencent.mobileqq
p1645
g772
ssg95
(dp1646
Vcom.android.settings
p1647
g1306
sg1510
g464
ssg97
(dp1648
Vcom.android.settings
p1649
g1304
sVcom.android.gallery3d
p1650
g627
sVcom.tencent.mm
p1651
g1180
sVcom.android.systemui
p1652
g724
ssg99
(dp1653
Vcom.storm.smart
p1654
g421
sVcom.chaozh.iReaderFree
p1655
g1042
sVcom.ontim.filemanager
p1656
g551
ssg101
(dp1657
g1418
g1084
sg534
g503
sVcom.android.gallery3d
p1658
g633
sVru.zdevs.zarchiver
p1659
g1094
sg103
g1058
sVcom.ontim.filemanager
p1660
g552
sg115
g1133
sg117
g1182
sg1551
g988
sg1421
g259
sg1011
g1230
sg226
g361
sg1554
g926
sg125
g1262
sg720
g963
sVcom.android.systemui
p1661
g728
sg490
g1342
sg1168
g773
sVcom.android.contacts
p1662
g466
sg504
g1308
ssg103
(dp1663
g775
g1115
sVcom.tencent.mobileqq
p1664
g774
ssg105
(dp1665
g8
g139
sg11
g152
sg968
g603
sg15
g170
sg568
g553
sg109
g1090
sg547
g1309
sg573
g729
sVcom.qidian.QDReader
p1666
g261
sg99
g1001
sVcom.android.contacts
p1667
g468
sg1280
g363
sg1529
g965
sVcom.android.phone
p1668
g903
sg91
g954
sg561
g565
sg37
g418
sg1370
g1184
sg1081
g817
sVcom.chaozh.iReaderFree
p1669
g1044
ssg107
(dp1670
Vcom.tencent.mm
p1671
g1185
sVcom.android.contacts
p1672
g469
sVcom.lenovo.safecenter
p1673
g818
ssg109
(dp1674
g749
g178
sVcom.ontim.filemanager
p1675
g538
sVcom.qidian.QDReader
p1676
g240
sVcom.android.systemui
p1677
g697
sg1368
g762
sVcom.lenovo.safecenter
p1678
g798
ssg111
(dp1679
Vcom.qidian.QDReader
p1680
g264
ssg113
(dp1681
Vcom.android.settings
p1682
g1310
sVcom.android.systemui
p1683
g732
ssg115
(dp1684
g8
g141
sg138
g1067
sVcom.wandoujia.phoenix2
p1685
g177
sg1664
g776
sVcom.qidian.QDReader
p1686
g266
sVcom.lenovo.safecenter
p1687
g819
sg144
g366
sg1189
g1252
sg142
g733
sVcom.tencent.mm
p1688
g1186
sVcom.android.contacts
p1689
g471
sVcom.chaozh.iReaderFree
p1690
g1045
ssg117
(dp1691
Vcom.android.browser
p1692
g154
sVcom.wandoujia.phoenix2
p1693
g191
sVcom.youdao.dict
p1694
g210
sg19
g214
sg121
g1234
sVcom.sdu.didi.psnger
p1695
g300
sVcom.android.deskclock
p1696
g313
sg29
g347
sVcom.douban.movie
p1697
g379
sg35
g412
sg1562
g473
sg1458
g516
sg103
g1056
sg49
g556
sVcom.android.bluetooth
p1698
g576
sg799
g596
sg763
g629
sg57
g652
sg63
g670
sg1221
g922
sg67
g745
sg69
g768
sg123
g1243
sg1515
g836
sVcom.android.calculator2
p1699
g843
sg65
g716
sg717
g931
sVcom.dianping.v1
p1700
g940
sVsina.mobile.tianqitong
p1701
g985
sg95
g994
sg101
g1046
sg1021
g521
sVcom.xunlei.downloadprovider
p1702
g1080
sg1389
g883
sg111
g1102
sg113
g1109
sg1470
g1129
sg1050
g1299
sg119
g1197
sg21
g248
sg1225
g807
sVcom.baidu.tieba
p1703
g1260
sg127
g1269
sVcom.autonavi.minimap
p1704
g1337
ssg119
(dp1705
Vcom.ontim.filemanager
p1706
g557
ssg121
(dp1707
g1274
g182
sVcom.youdao.dict
p1708
g204
sVcom.autonavi.minimap
p1709
g1348
sg25
g292
sVcom.UCMobile
p1710
g369
sVcom.android.notepad
p1711
g395
sg232
g432
sg1457
g495
sVcom.sankuai.meituan
p1712
g586
sg1103
g642
sg1221
g911
sVcom.tencent.mobileqq
p1713
g766
sg1225
g787
sg1463
g841
sVcom.android.systemui
p1714
g680
sg462
g975
sVcom.chaozh.iReaderFree
p1715
g1012
sg1419
g866
sg111
g1100
sg176
g1123
sg820
g1312
sVcom.tencent.mm
p1716
g1141
sVcom.qidian.QDReader
p1717
g270
ssg123
(dp1718
g1015
g413
sg1444
g1048
sVcom.android.systemui
p1719
g737
ssg125
(dp1720
Vcom.MobileTicket
p1721
g879
sVcom.zhihu.daily.android
p1722
g1107
sVcom.ontim.filemanager
p1723
g560
sg1253
g1313
sg558
g272
sg230
g406
sVcom.android.systemui
p1724
g738
sg1259
g1190
sg1261
g1049
ssg127
(dp1725
Vcom.autonavi.minimap
p1726
g1349
sVcom.qidian.QDReader
p1727
g274
sg57
g648
sg1270
g825
sg1535
g370
sg1536
g739
sg651
g1192
sg641
g1237
ssg129
(dp1728
g13
g163
sVcom.autonavi.minimap
p1729
g1346
sg789
g315
sg1508
g372
sVcom.android.notepad
p1730
g410
sVcom.android.contacts
p1731
g478
sVcn.kuwo.player
p1732
g505
sVcom.estrongs.android.taskmanager
p1733
g510
sg568
g548
sg1659
g1092
sg1559
g580
sVcom.android.gallery3d
p1734
g617
sVcom.qidian.QDReader
p1735
g276
sg573
g734
sg1507
g1187
sVcom.lenovo.safecenter
p1736
g821
sg1560
g909
sg89
g938
sg95
g992
sg97
g998
sVcom.chaozh.iReaderFree
p1737
g1051
sVcom.xunlei.downloadprovider
p1738
g1086
sg1502
g886
sg927
g778
sVcom.android.mms
p1739
g1238
sg1703
g1254
sg51
g570
ssg131
(dp1740
g1732
g491
sg1534
g225
sVcom.sankuai.meituan
p1741
g594
sVcom.ontim.filemanager
p1742
g527
sVcom.tencent.mobileqq
p1743
g753
sVcom.android.phone
p1744
g918
sg55
g610
sg243
g640
sVcom.lenovo.safecenter
p1745
g827
sg27
g305
sVcom.UCMobile
p1746
g374
sg1323
g386
sg1515
g830
sg1516
g742
sg1695
g288
sg1347
g1203
sg1513
g949
sg1567
g1194
sVcom.android.contacts
p1747
g480
sVcom.chaozh.iReaderFree
p1748
g1053
sVcom.android.settings
p1749
g1315
sssS'adj'
p1750
g136
sb.