ccopy_reg
_reconstructor
p1
(cnetworkx.classes.digraph
DiGraph
p2
c__builtin__
object
p3
NtRp4
(dp5
S'node'
p6
(dp7
Vcom.chinamobile.cmccwifi
p8
(dp9
S'weight'
p10
F0.0025167408206372747
ssVcom.huawei.hwid
p11
(dp12
g10
F4.4941800368522762e-05
ssVcom.android.calculator
p13
(dp14
g10
F4.4941800368522762e-05
ssVcom.android.settings
p15
(dp16
g10
F0.0095726034784953482
ssVcom.sina.weibo
p17
(dp18
g10
F0.045481101972945033
ssVim.yixin
p19
(dp20
g10
F0.0048986562401689814
ssVcom.android.gallery3d
p21
(dp22
g10
F0.0055278414453282998
ssVcom.android.mms
p23
(dp24
g10
F0.11186014111725316
ssVcom.taobao.taobao
p25
(dp26
g10
F0.052851557233382772
ssVcom.cici.tiexin
p27
(dp28
g10
F0.0014830794121612511
ssVcom.cootek.smartdialer
p29
(dp30
g10
F0.020628286369151948
ssVcom.huawei.hidisk
p31
(dp32
g10
F0.0059772594490135273
ssVcom.android.mediacenter
p33
(dp34
g10
F0.0015729630128982967
ssVcom.lidroid.lockscreen
p35
(dp36
g10
F0.00013482540110556829
ssVcom.android.phone
p37
(dp38
g10
F0.058514224079816636
ssVcom.tencent.mtt
p39
(dp40
g10
F0.0015729630128982967
ssVcom.zhaopin.social
p41
(dp42
g10
F0.11298368612646623
ssVcom.tencent.mm
p43
(dp44
g10
F0.082962563480293017
ssVcom.android.contacts
p45
(dp46
g10
F0.33477147094512605
ssVcom.yx
p47
(dp48
g10
F0.00067412700552784148
ssVcom.tencent.mobileqq
p49
(dp50
g10
F0.14592602579659342
sssS'node_dict_factory'
p51
c__builtin__
dict
p52
sS'edge_attr_dict_factory'
p53
g52
sS'succ'
p54
(dp55
g8
(dp56
Vcom.android.settings
p57
(dp58
g10
I1
ssg25
(dp59
g10
I1
sssg11
(dp60
Vcom.android.mediacenter
p61
(dp62
g10
I1
ssVcom.taobao.taobao
p63
(dp64
g10
F0.90000000000000002
ssVcom.android.phone
p65
(dp66
g10
F0.69999999999999996
sssg13
(dp67
sg15
(dp68
Vcom.tencent.mobileqq
p69
(dp70
g10
I2
ssg21
(dp71
g10
F1.7
ssVcom.taobao.taobao
p72
(dp73
g10
I1
ssg29
(dp74
g10
F2.8999999999999999
ssg11
(dp75
g10
F0.69999999999999996
ssg33
(dp76
g10
F1.3
ssg8
(dp77
g10
F0.90000000000000002
ssVcom.android.phone
p78
(dp79
g10
F1.6000000000000001
ssVcom.tencent.mtt
p80
(dp81
g10
F0.90000000000000002
ssg43
(dp82
g10
F6.8000000000000007
ssVcom.android.contacts
p83
(dp84
g10
F3.3999999999999995
sssg17
(dp85
Vcom.tencent.mm
p86
(dp87
g10
F1.8999999999999999
ssVcom.chinamobile.cmccwifi
p88
(dp89
g10
F1.8999999999999999
ssVcom.taobao.taobao
p90
(dp91
g10
I1
sssg19
(dp92
sg21
(dp93
Vcom.android.settings
p94
(dp95
g10
F1.3999999999999999
ssVcom.android.mediacenter
p96
(dp97
g10
F0.90000000000000002
ssVcom.tencent.mm
p98
(dp99
g10
F3.1999999999999997
ssg8
(dp100
g10
I1
ssVcom.taobao.taobao
p101
(dp102
g10
F2.7000000000000002
sssg23
(dp103
Vcom.android.settings
p104
(dp105
g10
I1
sssg25
(dp106
Vcom.android.settings
p107
(dp108
g10
F3
ssVcom.android.gallery3d
p109
(dp110
g10
F3.3999999999999999
ssg11
(dp111
g10
F0.90000000000000002
ssVcom.chinamobile.cmccwifi
p112
(dp113
g10
I1
ssg65
(dp114
g10
I2
ssg33
(dp115
g10
F3.3999999999999999
ssVcom.tencent.mm
p116
(dp117
g10
F1.7
ssVcom.tencent.mobileqq
p118
(dp119
g10
I1
sssg27
(dp120
Vcom.android.settings
p121
(dp122
g10
I1
sssg29
(dp123
Vcom.android.settings
p124
(dp125
g10
F4.5999999999999996
ssVcom.tencent.mm
p126
(dp127
g10
I1
ssg83
(dp128
g10
F0.69999999999999996
ssg78
(dp129
g10
F1.3999999999999999
sssg31
(dp130
g39
(dp131
g10
I1
ssVcom.android.gallery3d
p132
(dp133
g10
I1
sssg33
(dp134
g11
(dp135
g10
I1
ssg116
(dp136
g10
F0.40000000000000002
ssVcom.android.gallery3d
p137
(dp138
g10
F0.90000000000000002
ssg63
(dp139
g10
F3.4000000000000004
ssg65
(dp140
g10
F1.3
sssg35
(dp141
g121
(dp142
g10
F1.3
ssVcom.android.mms
p143
(dp144
g10
I1
ssg41
(dp145
g10
I1
ssg27
(dp146
g10
F0.69999999999999996
ssVcom.tencent.mm
p147
(dp148
g10
I1
ssVcom.yx
p149
(dp150
g10
F0.90000000000000002
sssg37
(dp151
g15
(dp152
g10
F8
ssg21
(dp153
g10
F1.3
ssg72
(dp154
g10
F2.5999999999999996
ssg29
(dp155
g10
F3.7999999999999998
ssg11
(dp156
g10
F0.40000000000000002
ssg33
(dp157
g10
F1.1000000000000001
ssg126
(dp158
g10
F2.2999999999999998
ssVcom.android.contacts
p159
(dp160
g10
F11.399999999999999
sssg39
(dp161
Vcom.huawei.hidisk
p162
(dp163
g10
I1
ssVcom.tencent.mm
p164
(dp165
g10
I1
sssg41
(dp166
Vcom.android.settings
p167
(dp168
g10
I1
ssVcom.android.contacts
p169
(dp170
g10
F1.7
ssVcom.android.phone
p171
(dp172
g10
F0.90000000000000002
sssg43
(dp173
g121
(dp174
g10
F7.9000000000000004
ssg19
(dp175
g10
F1.8999999999999999
ssg21
(dp176
g10
F1.8999999999999999
ssg27
(dp177
g10
F0.90000000000000002
ssVcom.cootek.smartdialer
p178
(dp179
g10
F2.1000000000000001
ssVcom.chinamobile.cmccwifi
p180
(dp181
g10
I1
ssg78
(dp182
g10
F0.69999999999999996
ssg80
(dp183
g10
I1
ssg83
(dp184
g10
F1.3
ssg149
(dp185
g10
I1
sssg45
(dp186
Vcom.zhaopin.social
p187
(dp188
g10
I1
ssVcom.android.phone
p189
(dp190
g10
F14.799999999999999
sssg47
(dp191
Vcom.cootek.smartdialer
p192
(dp193
g10
I1
ssVcom.android.settings
p194
(dp195
g10
F2.7999999999999998
ssg27
(dp196
g10
I1
sssg49
(dp197
g13
(dp198
g10
I1
ssVcom.android.settings
p199
(dp200
g10
F5.5
ssVcom.taobao.taobao
p201
(dp202
g10
F3.7000000000000002
ssVcom.android.phone
p203
(dp204
g10
F1.7000000000000002
ssVcom.tencent.mm
p205
(dp206
g10
F3.7000000000000002
ssVcom.android.contacts
p207
(dp208
g10
F2.3999999999999999
ssssS'edge'
p209
g55
sS'graph'
p210
(dp211
sS'adjlist_dict_factory'
p212
g52
sS'adj'
p213
g55
sS'pred'
p214
(dp215
g8
(dp216
Vcom.android.settings
p217
g77
sg17
g89
sVcom.tencent.mm
p218
g181
sVcom.android.gallery3d
p219
g100
sg90
g113
ssg11
(dp220
Vcom.android.settings
p221
g75
sg33
g135
sg72
g111
sVcom.android.phone
p222
g156
ssg13
(dp223
Vcom.tencent.mobileqq
p224
g198
ssg15
(dp225
Vcom.tencent.mobileqq
p226
g200
sg21
g95
sg23
g105
sVcom.taobao.taobao
p227
g108
sg27
g122
sg29
g125
sg35
g142
sg37
g152
sg41
g168
sg147
g174
sg47
g195
sg180
g58
ssg17
(dp228
sg19
(dp229
Vcom.tencent.mm
p230
g175
ssg21
(dp231
Vcom.android.settings
p232
g71
sVcom.taobao.taobao
p233
g110
sVcom.huawei.hidisk
p234
g133
sVcom.android.phone
p235
g153
sg96
g138
sVcom.tencent.mm
p236
g176
ssg23
(dp237
Vcom.lidroid.lockscreen
p238
g144
ssg25
(dp239
g221
g73
sg109
g102
sg11
g64
sVcom.chinamobile.cmccwifi
p240
g59
sg222
g154
sg33
g139
sVcom.sina.weibo
p241
g91
sVcom.tencent.mobileqq
p242
g202
ssg27
(dp243
g147
g177
sg35
g146
sg149
g196
ssg29
(dp244
Vcom.android.settings
p245
g74
sg98
g179
sVcom.yx
p246
g193
sVcom.android.phone
p247
g155
ssg31
(dp248
g39
g163
ssg33
(dp249
g11
g62
sg221
g76
sg109
g97
sg72
g115
sg222
g157
ssg35
(dp250
sg37
(dp251
Vcom.android.settings
p252
g79
sg63
g114
sVcom.zhaopin.social
p253
g172
sVcom.cootek.smartdialer
p254
g129
sg11
g66
sg33
g140
sg126
g182
sg45
g190
sVcom.tencent.mobileqq
p255
g204
ssg39
(dp256
g31
g131
sg43
g183
sVcom.android.settings
p257
g81
ssg41
(dp258
Vcom.lidroid.lockscreen
p259
g145
sVcom.android.contacts
p260
g188
ssg43
(dp261
g257
g82
sVcom.sina.weibo
p262
g87
sg21
g99
sg227
g117
sg254
g127
sg35
g148
sVcom.android.phone
p263
g158
sg80
g165
sg49
g206
sg96
g136
ssg45
(dp264
Vcom.android.settings
p265
g84
sg253
g170
sg254
g128
sVcom.android.phone
p266
g160
sg126
g184
sg255
g208
ssg47
(dp267
g147
g185
sg35
g150
ssg49
(dp268
Vcom.android.settings
p269
g70
sVcom.taobao.taobao
p270
g119
sssb.