ccopy_reg
_reconstructor
p1
(cnetworkx.classes.digraph
DiGraph
p2
c__builtin__
object
p3
NtRp4
(dp5
S'node'
p6
(dp7
Vcom.google.android.gm
p8
(dp9
S'weight'
p10
F5.2492253455696275e-07
ssVcom.eg.android.AlipayGphone
p11
(dp12
g10
F0.0062722993654211476
ssVcom.android.rk
p13
(dp14
g10
F0.00013962939419215209
ssVcom.android.vending
p15
(dp16
g10
F5.2492253455696275e-07
ssVcom.tencent.mobileqq
p17
(dp18
g10
F0.0033957238760489923
ssVcom.android.packageinstaller
p19
(dp20
g10
F5.7741478801265903e-06
ssVcom.android.gallery3d
p21
(dp22
g10
F0.00098842913257076088
ssVcom.qihoo.cleandroid_cn
p23
(dp24
g10
F1.9947056313164585e-05
ssVcom.qihoo360.mobilesafe
p25
(dp26
g10
F4.199380276455702e-05
ssVcom.iflytek.inputmethod
p27
(dp28
g10
F5.2492253455696275e-07
ssVcom.chaozh.iReaderFree
p29
(dp30
g10
F3.9369190091772207e-05
ssVcom.android.launcher
p31
(dp32
g10
F0.7698603128643291
ssVcom.android.settings
p33
(dp34
g10
F0.0062329301753293754
ssVcom.android.quicksearchbox
p35
(dp36
g10
F6.2990704146835531e-06
ssVcom.android.music
p37
(dp38
g10
F0.00013018078857012676
ssVcom.tencent.mm
p39
(dp40
g10
F0.10207538622487787
ssVcom.android.contacts
p41
(dp42
g10
F6.2990704146835531e-06
ssVcom.google.android.gsf.login
p43
(dp44
g10
F3.6744577418987393e-06
ssVcom.qihoo.expressbrowser
p45
(dp46
g10
F0.11078017661543597
sssS'node_dict_factory'
p47
c__builtin__
dict
p48
sS'edge_attr_dict_factory'
p49
g48
sS'succ'
p50
(dp51
g8
(dp52
g29
(dp53
g10
F0.69999999999999996
ssVcom.android.launcher
p54
(dp55
g10
F1.3
ssVcom.google.android.gsf.login
p56
(dp57
g10
I1
sssg11
(dp58
Vcom.tencent.mm
p59
(dp60
g10
F0.90000000000000002
ssVcom.qihoo.expressbrowser
p61
(dp62
g10
F2.6000000000000001
ssVcom.android.launcher
p63
(dp64
g10
F2.8999999999999999
sssg13
(dp65
Vcom.qihoo.expressbrowser
p66
(dp67
g10
F0.90000000000000002
ssVcom.android.settings
p68
(dp69
g10
F1.7
ssg19
(dp70
g10
F1.3
ssg21
(dp71
g10
F4
ssVcom.android.launcher
p72
(dp73
g10
F7.1000000000000005
ssVcom.tencent.mobileqq
p74
(dp75
g10
F0.90000000000000002
sssg15
(dp76
Vcom.android.launcher
p77
(dp78
g10
F0.90000000000000002
ssg43
(dp79
g10
I1
sssg17
(dp80
g13
(dp81
g10
F0.90000000000000002
ssVcom.android.settings
p82
(dp83
g10
F0.69999999999999996
ssg31
(dp84
g10
F14.4
ssg35
(dp85
g10
F0.90000000000000002
ssg39
(dp86
g10
F2.7999999999999998
ssVcom.qihoo.expressbrowser
p87
(dp88
g10
F1.8999999999999999
sssg19
(dp89
sg21
(dp90
g8
(dp91
g10
F1.3
ssVcom.android.rk
p92
(dp93
g10
F4
ssVcom.qihoo360.mobilesafe
p94
(dp95
g10
F1.7
ssVcom.android.launcher
p96
(dp97
g10
F11.9
ssg56
(dp98
g10
F0.69999999999999996
ssVcom.qihoo.expressbrowser
p99
(dp100
g10
F0.90000000000000002
sssg23
(dp101
Vcom.android.launcher
p102
(dp103
g10
I1
sssg25
(dp104
g8
(dp105
g10
F0.69999999999999996
ssVcom.qihoo.expressbrowser
p106
(dp107
g10
F2.7000000000000002
ssg37
(dp108
g10
F0.40000000000000002
ssVcom.android.gallery3d
p109
(dp110
g10
I1
ssVcom.android.launcher
p111
(dp112
g10
F5.5999999999999996
ssVcom.tencent.mm
p113
(dp114
g10
I1
ssg56
(dp115
g10
F0.40000000000000002
sssg27
(dp116
sg29
(dp117
Vcom.android.gallery3d
p118
(dp119
g10
F0.90000000000000002
ssVcom.android.launcher
p120
(dp121
g10
F1.7
sssg31
(dp122
g8
(dp123
g10
I1
ssg13
(dp124
g10
F9.5
ssg15
(dp125
g10
F1.7
ssg74
(dp126
g10
F15.199999999999999
ssg19
(dp127
g10
F0.69999999999999996
ssg21
(dp128
g10
F13.899999999999999
ssg25
(dp129
g10
F4.2999999999999998
ssg29
(dp130
g10
F1.3999999999999999
ssg82
(dp131
g10
F5
ssg35
(dp132
g10
I1
ssg37
(dp133
g10
F1.7
ssg39
(dp134
g10
F74.500000000000014
ssg41
(dp135
g10
F0.90000000000000002
ssg43
(dp136
g10
F2.2000000000000002
ssg45
(dp137
g10
F125.70000000000007
sssg33
(dp138
Vcom.android.rk
p139
(dp140
g10
F1.7000000000000002
ssg19
(dp141
g10
I1
ssg21
(dp142
g10
F0.69999999999999996
ssVcom.android.launcher
p143
(dp144
g10
F4.5999999999999996
ssVcom.tencent.mm
p145
(dp146
g10
I1
ssVcom.qihoo.expressbrowser
p147
(dp148
g10
F0.90000000000000002
sssg35
(dp149
sg37
(dp150
Vcom.android.settings
p151
(dp152
g10
F0.40000000000000002
ssVcom.qihoo.expressbrowser
p153
(dp154
g10
F1.8999999999999999
ssVcom.android.launcher
p155
(dp156
g10
F1.7
sssg39
(dp157
g45
(dp158
g10
F13.300000000000002
ssg33
(dp159
g10
I1
ssg25
(dp160
g10
F1.8
ssVcom.android.launcher
p161
(dp162
g10
F74.200000000000017
ssVcom.tencent.mobileqq
p163
(dp164
g10
F10.6
ssg41
(dp165
g10
F0.69999999999999996
sssg41
(dp166
Vcom.qihoo.expressbrowser
p167
(dp168
g10
I1
sssg43
(dp169
g118
(dp170
g10
F0.40000000000000002
ssg29
(dp171
g10
F0.90000000000000002
ssg77
(dp172
g10
F2.7000000000000002
sssg45
(dp173
g139
(dp174
g10
F1.3
ssg15
(dp175
g10
F0.90000000000000002
ssVcom.tencent.mm
p176
(dp177
g10
F11.500000000000004
ssg37
(dp178
g10
F2.8999999999999999
ssVcom.android.gallery3d
p179
(dp180
g10
F2.2000000000000002
ssg27
(dp181
g10
I1
ssVcom.android.launcher
p182
(dp183
g10
F123.40000000000006
ssg82
(dp184
g10
F2.2000000000000002
ssVcom.tencent.mobileqq
p185
(dp186
g10
F1.3999999999999999
ssg41
(dp187
g10
I3
ssg43
(dp188
g10
F0.69999999999999996
ssssS'edge'
p189
g51
sS'graph'
p190
(dp191
sS'adjlist_dict_factory'
p192
g48
sS'adj'
p193
g51
sS'pred'
p194
(dp195
g8
(dp196
Vcom.android.gallery3d
p197
g91
sVcom.android.launcher
p198
g123
sg94
g105
ssg11
(dp199
sg13
(dp200
g82
g140
sg21
g93
sg17
g81
sg87
g174
sg31
g124
ssg15
(dp201
Vcom.qihoo.expressbrowser
p202
g175
sVcom.android.launcher
p203
g125
ssg17
(dp204
Vcom.tencent.mm
p205
g164
sg13
g75
sg31
g126
sVcom.qihoo.expressbrowser
p206
g186
ssg19
(dp207
g68
g141
sVcom.android.rk
p208
g70
sVcom.android.launcher
p209
g127
ssg21
(dp210
g139
g71
sg82
g142
sg94
g110
sg29
g119
sVcom.android.launcher
p211
g128
sg56
g170
sVcom.qihoo.expressbrowser
p212
g180
ssg23
(dp213
sg25
(dp214
Vcom.android.gallery3d
p215
g95
sVcom.tencent.mm
p216
g160
sVcom.android.launcher
p217
g129
ssg27
(dp218
Vcom.qihoo.expressbrowser
p219
g181
ssg29
(dp220
g8
g53
sg56
g171
sg198
g130
ssg31
(dp221
g8
g55
sg11
g64
sg13
g73
sg15
g78
sg33
g144
sVcom.qihoo.expressbrowser
p222
g183
sg21
g97
sg23
g103
sg25
g112
sg29
g121
sVcom.tencent.mm
p223
g162
sg37
g156
sg43
g172
sg17
g84
ssg33
(dp224
Vcom.qihoo.expressbrowser
p225
g184
sVcom.tencent.mm
p226
g159
sg37
g152
sg211
g131
sVcom.tencent.mobileqq
p227
g83
sg208
g69
ssg35
(dp228
Vcom.tencent.mobileqq
p229
g85
sVcom.android.launcher
p230
g132
ssg37
(dp231
Vcom.android.launcher
p232
g133
sVcom.qihoo360.mobilesafe
p233
g108
sVcom.qihoo.expressbrowser
p234
g178
ssg39
(dp235
Vcom.qihoo.expressbrowser
p236
g177
sg33
g146
sVcom.qihoo360.mobilesafe
p237
g114
sVcom.android.launcher
p238
g134
sVcom.tencent.mobileqq
p239
g86
sg11
g60
ssg41
(dp240
Vcom.tencent.mm
p241
g165
sVcom.qihoo.expressbrowser
p242
g187
sVcom.android.launcher
p243
g135
ssg43
(dp244
g8
g57
sg202
g188
sg15
g79
sg109
g98
sg94
g115
sg203
g136
ssg45
(dp245
Vcom.android.rk
p246
g67
sVcom.tencent.mm
p247
g158
sg37
g154
sVcom.android.gallery3d
p248
g100
sg25
g107
sVcom.android.launcher
p249
g137
sVcom.android.settings
p250
g148
sg227
g88
sVcom.android.contacts
p251
g168
sg11
g62
sssb.