ccopy_reg
_reconstructor
p1
(cnetworkx.classes.digraph
DiGraph
p2
c__builtin__
object
p3
NtRp4
(dp5
S'node'
p6
(dp7
Vcom.huawei.android.multiscreen
p8
(dp9
S'weight'
p10
F7.302409576087822e-07
ssVcom.android.browser
p11
(dp12
g10
F0.0033393918991449609
ssVcom.mobilecaltronics.calculator
p13
(dp14
g10
F0.001136254930039265
ssVcom.moji.mjweather
p15
(dp16
g10
F0.0065619452450725166
ssVcom.youdao.dict
p17
(dp18
g10
F0.049081685483759074
ssVcom.android.soundrecorder
p19
(dp20
g10
F1.4604819152175644e-06
ssVcom.baidu.netdisk
p21
(dp22
g10
F0.014802714451687623
ssVcom.UCMobile
p23
(dp24
g10
F0.10749292944192795
ssVcom.huawei.android.dlna
p25
(dp26
g10
F3.6512047880439109e-06
ssVcom.sohu.inputmethod.sogou
p27
(dp28
g10
F9.4931324489141685e-06
ssVcom.taobao.taobao
p29
(dp30
g10
F0.0088804602854803995
ssVcom.android.launcher
p31
(dp32
g10
F0.20575780390255372
ssVcom.iBookStar.activity
p33
(dp34
g10
F0.00033810156337286615
ssVcom.sina.weibo
p35
(dp36
g10
F0.090806193319609665
ssVcom.android.contacts
p37
(dp38
g10
F0.0044573908052440063
ssVcom.eg.android.AlipayGphone
p39
(dp40
g10
F0.0007258595118631295
ssVcom.docin.zlibrary.ui.android
p41
(dp42
g10
F0.0051598826064636547
ssVcn.wps.moffice_eng
p43
(dp44
g10
F0.0030158951549242702
ssVcom.changba
p45
(dp46
g10
F0.0080538275214672578
ssVair.fyzb3
p47
(dp48
g10
F0.0037234986428471804
ssVcom.android.bluetooth
p49
(dp50
g10
F5.1116867032614751e-06
ssVcom.android.packageinstaller
p51
(dp52
g10
F1.0953614364131732e-05
ssVcom.sankuai.meituan
p53
(dp54
g10
F0.00097195071457728912
ssVcom.android.gallery3d
p55
(dp56
g10
F0.0079253051129281136
ssVcom.android.video
p57
(dp58
g10
F0.00045859132137831518
ssVcom.qihoo360.mobilesafe
p59
(dp60
g10
F0.021480037768062326
ssVcom.huawei.hidisk
p61
(dp62
g10
F0.0030743144315329729
ssVme.ele
p63
(dp64
g10
F0.00073097119856639094
ssVcom.fanli.android.apps
p65
(dp66
g10
F0.00018109975748697798
ssVcom.mediatek.FMRadio
p67
(dp68
g10
F0.0050978121250669084
ssVcom.android.phone
p69
(dp70
g10
F0.0057769362156430753
ssVcom.tencent.mm
p71
(dp72
g10
F0.060819578636362642
ssVcom.android.notepad
p73
(dp74
g10
F0.0008945451730707582
ssVcn.com.fetion
p75
(dp76
g10
F0.0018949752849947898
ssVcom.kugou.android
p77
(dp78
g10
F0.0092579948605641411
ssVcom.zhangyu
p79
(dp80
g10
F0.00056155529640115344
ssVcom.xtuone.android.syllabus
p81
(dp82
g10
F0.00029720806974677436
ssVcom.jiongji.andriod.card
p83
(dp84
g10
F0.08649192974205698
ssVcom.android.email
p85
(dp86
g10
F7.302409576087822e-07
ssVcom.tencent.mobileqq
p87
(dp88
g10
F0.20161660743195431
ssVcom.eusoft.ting.en
p89
(dp90
g10
F1.9716505855437117e-05
ssVinsigma.waybook
p91
(dp92
g10
F0.0030816168411090606
ssVcom.immomo.momo
p93
(dp94
g10
F0.00011683855321740515
ssVcom.codoon.gps
p95
(dp96
g10
F0.00012414096279349298
ssVcom.android.calendar
p97
(dp98
g10
F8.7628914913053869e-06
ssVcom.android.settings
p99
(dp100
g10
F0.0032707492491297354
ssVcom.android.mms
p101
(dp102
g10
F0.014102413373340802
ssVcom.tiexue.ms
p103
(dp104
g10
F0.055670649644263118
ssVcom.appcenter.TheOnion
p105
(dp106
g10
F1.3874578194566862e-05
ssVcom.huawei.hwid
p107
(dp108
g10
F6.5721686184790393e-06
ssVcom.mediatek.data
p109
(dp110
g10
F0.00027457060006090209
ssVcom.baidu.tieba
p111
(dp112
g10
F0.0023776645579741949
ssVcom.android.mediacenter
p113
(dp114
g10
F2.8479397346742504e-05
ssVcom.snda.wifilocating
p115
(dp116
g10
F6.5721686184790393e-06
sssS'node_dict_factory'
p117
c__builtin__
dict
p118
sS'edge_attr_dict_factory'
p119
g118
sS'succ'
p120
(dp121
g8
(dp122
Vcom.qihoo360.mobilesafe
p123
(dp124
g10
F0.90000000000000002
ssVcom.android.launcher
p125
(dp126
g10
I1
sssg11
(dp127
Vcom.sankuai.meituan
p128
(dp129
g10
F0.90000000000000002
ssVcom.youdao.dict
p130
(dp131
g10
F1.3
ssVcom.baidu.netdisk
p132
(dp133
g10
F1.1000000000000001
ssVcom.UCMobile
p134
(dp135
g10
F35.699999999999967
ssg25
(dp136
g10
I1
ssVcom.taobao.taobao
p137
(dp138
g10
F3.5
ssVcom.android.launcher
p139
(dp140
g10
F274.89999999999935
ssVcom.sina.weibo
p141
(dp142
g10
F22.499999999999989
ssVcom.android.contacts
p143
(dp144
g10
F0.40000000000000002
ssVcom.eg.android.AlipayGphone
p145
(dp146
g10
F0.90000000000000002
ssVcn.wps.moffice_eng
p147
(dp148
g10
F1.3999999999999999
ssVcom.changba
p149
(dp150
g10
F0.90000000000000002
ssVcom.moji.mjweather
p151
(dp152
g10
F0.90000000000000002
ssVcom.qihoo360.mobilesafe
p153
(dp154
g10
F1.7999999999999998
ssVcom.huawei.hidisk
p155
(dp156
g10
F0.40000000000000002
ssVcom.mediatek.FMRadio
p157
(dp158
g10
F1.1000000000000001
ssVcom.tencent.mobileqq
p159
(dp160
g10
F38.599999999999973
ssVcn.com.fetion
p161
(dp162
g10
F0.90000000000000002
ssVcom.docin.zlibrary.ui.android
p163
(dp164
g10
F0.40000000000000002
ssVcom.tencent.mm
p165
(dp166
g10
F17.799999999999997
ssVcom.android.mms
p167
(dp168
g10
F0.69999999999999996
ssVcom.tiexue.ms
p169
(dp170
g10
F10.200000000000003
ssVcom.android.settings
p171
(dp172
g10
F34.299999999999969
sssg13
(dp173
Vcom.jiongji.andriod.card
p174
(dp175
g10
F1.7
ssVcn.wps.moffice_eng
p176
(dp177
g10
F0.69999999999999996
ssVcom.baidu.netdisk
p178
(dp179
g10
F0.90000000000000002
ssVcom.qihoo360.mobilesafe
p180
(dp181
g10
F0.90000000000000002
ssVcom.UCMobile
p182
(dp183
g10
F1.3
ssVcom.android.launcher
p184
(dp185
g10
F11.200000000000001
ssVcom.tencent.mobileqq
p186
(dp187
g10
F2.2000000000000002
ssVcom.eg.android.AlipayGphone
p188
(dp189
g10
F1.3
sssg15
(dp190
Vcom.android.browser
p191
(dp192
g10
F0.90000000000000002
ssVcom.jiongji.andriod.card
p193
(dp194
g10
I2
ssVinsigma.waybook
p195
(dp196
g10
F0.90000000000000002
ssVcom.appcenter.TheOnion
p197
(dp198
g10
F1.3
ssVcom.android.calendar
p199
(dp200
g10
F0.90000000000000002
ssVcom.sina.weibo
p201
(dp202
g10
F1.8999999999999999
ssVcom.tencent.mm
p203
(dp204
g10
F11.400000000000002
ssVcom.android.gallery3d
p205
(dp206
g10
I1
ssVcom.tiexue.ms
p207
(dp208
g10
F2
ssVcom.UCMobile
p209
(dp210
g10
F0.40000000000000002
ssVcom.baidu.tieba
p211
(dp212
g10
F0.90000000000000002
ssVcom.qihoo360.mobilesafe
p213
(dp214
g10
F0.40000000000000002
ssVcom.android.launcher
p215
(dp216
g10
F37.399999999999999
ssVcom.tencent.mobileqq
p217
(dp218
g10
F8.1999999999999993
ssVcom.youdao.dict
p219
(dp220
g10
F1.3999999999999999
sssg17
(dp221
Vcom.android.browser
p222
(dp223
g10
F2.6000000000000001
ssVcom.jiongji.andriod.card
p224
(dp225
g10
I1
ssVcom.moji.mjweather
p226
(dp227
g10
F0.90000000000000002
ssg31
(dp228
g10
F205.99999999999997
ssVcom.UCMobile
p229
(dp230
g10
F36.299999999999976
ssVcom.snda.wifilocating
p231
(dp232
g10
F0.90000000000000002
ssg73
(dp233
g10
F1.3
ssg33
(dp234
g10
F0.69999999999999996
ssVcom.sina.weibo
p235
(dp236
g10
F4.9000000000000004
ssVcom.android.contacts
p237
(dp238
g10
F3.8000000000000003
ssVcom.eg.android.AlipayGphone
p239
(dp240
g10
F0.90000000000000002
ssVcn.wps.moffice_eng
p241
(dp242
g10
F0.40000000000000002
ssVcom.changba
p243
(dp244
g10
F6.7000000000000002
ssVcom.sankuai.meituan
p245
(dp246
g10
F1.7
ssVcom.android.gallery3d
p247
(dp248
g10
F2.2000000000000002
ssVcom.taobao.taobao
p249
(dp250
g10
F2.2000000000000002
ssg61
(dp251
g10
F3.8000000000000003
ssVcom.android.video
p252
(dp253
g10
F0.69999999999999996
ssVcom.mediatek.FMRadio
p254
(dp255
g10
F0.69999999999999996
ssVcom.android.phone
p256
(dp257
g10
F10.200000000000001
ssVcom.tencent.mobileqq
p258
(dp259
g10
F52.499999999999986
ssVcom.xtuone.android.syllabus
p260
(dp261
g10
F0.90000000000000002
ssVcom.android.calendar
p262
(dp263
g10
F1.3
ssVcom.tencent.mm
p264
(dp265
g10
F25.399999999999984
ssVcom.android.mms
p266
(dp267
g10
F6.2999999999999998
ssVcom.tiexue.ms
p268
(dp269
g10
F2.8999999999999999
ssVcom.android.settings
p270
(dp271
g10
F3
sssg19
(dp272
Vcom.android.launcher
p273
(dp274
g10
I1
sssg21
(dp275
Vcom.android.browser
p276
(dp277
g10
F1.1000000000000001
ssVcom.mobilecaltronics.calculator
p278
(dp279
g10
F0.40000000000000002
ssVair.fyzb3
p280
(dp281
g10
F2.2999999999999998
ssg93
(dp282
g10
F0.90000000000000002
ssVcom.changba
p283
(dp284
g10
F2.2000000000000002
ssVcom.huawei.hidisk
p285
(dp286
g10
F1.8
ssVcom.sina.weibo
p287
(dp288
g10
F2.2000000000000002
ssVcom.tencent.mm
p289
(dp290
g10
F9.8000000000000007
ssVcom.android.mms
p291
(dp292
g10
F4.9000000000000004
ssVcom.tiexue.ms
p293
(dp294
g10
F1.3
ssVcom.UCMobile
p295
(dp296
g10
F7.1000000000000005
ssVcom.baidu.tieba
p297
(dp298
g10
F2.2999999999999998
ssVcom.taobao.taobao
p299
(dp300
g10
F0.90000000000000002
ssVcom.android.launcher
p301
(dp302
g10
F91.400000000000119
ssVcom.android.settings
p303
(dp304
g10
F3.6000000000000001
ssVcom.android.notepad
p305
(dp306
g10
F0.80000000000000004
ssVcom.tencent.mobileqq
p307
(dp308
g10
F26.699999999999989
ssg188
(dp309
g10
F0.90000000000000002
sssg23
(dp310
Vcom.android.browser
p311
(dp312
g10
F41.19999999999996
ssg13
(dp313
g10
F1.6000000000000001
ssVcom.sankuai.meituan
p314
(dp315
g10
I1
ssVcom.youdao.dict
p316
(dp317
g10
F39.499999999999979
ssVcom.android.gallery3d
p318
(dp319
g10
F1.3999999999999999
ssVcom.baidu.netdisk
p320
(dp321
g10
F16.199999999999999
ssg95
(dp322
g10
F1.7000000000000002
ssg27
(dp323
g10
F1.7
ssVcom.taobao.taobao
p324
(dp325
g10
F2.8999999999999999
ssVcom.android.notepad
p326
(dp327
g10
F1.6000000000000001
ssVcom.sina.weibo
p328
(dp329
g10
F32.199999999999989
ssg37
(dp330
g10
F7.0000000000000009
ssVcom.eg.android.AlipayGphone
p331
(dp332
g10
I2
ssVcn.wps.moffice_eng
p333
(dp334
g10
F6.7000000000000011
ssg285
(dp335
g10
F5.3000000000000007
ssg51
(dp336
g10
F0.40000000000000002
ssg15
(dp337
g10
F1.8999999999999999
ssg19
(dp338
g10
I1
ssg59
(dp339
g10
F4.7000000000000002
ssVair.fyzb3
p340
(dp341
g10
F3.1000000000000001
ssg63
(dp342
g10
F0.90000000000000002
ssVcom.mediatek.FMRadio
p343
(dp344
g10
F6.8000000000000007
ssg69
(dp345
g10
F5.7000000000000002
ssVcom.tencent.mm
p346
(dp347
g10
F106.40000000000016
ssVcom.kugou.android
p348
(dp349
g10
F1.8999999999999999
ssg79
(dp350
g10
F1.3999999999999999
ssVcom.jiongji.andriod.card
p351
(dp352
g10
I17
ssg41
(dp353
g10
F0.90000000000000002
ssVcom.tencent.mobileqq
p354
(dp355
g10
F209.00000000000026
ssVinsigma.waybook
p356
(dp357
g10
F0.90000000000000002
ssVcom.android.settings
p358
(dp359
g10
F45.49999999999995
ssVcom.android.mms
p360
(dp361
g10
F11.699999999999999
ssVcom.tiexue.ms
p362
(dp363
g10
F33.39999999999997
ssg107
(dp364
g10
F0.69999999999999996
ssVcom.baidu.tieba
p365
(dp366
g10
F0.69999999999999996
ssVcom.android.launcher
p367
(dp368
g10
F614.99999999999807
sssg25
(dp369
Vcom.UCMobile
p370
(dp371
g10
F0.40000000000000002
ssVcom.tiexue.ms
p372
(dp373
g10
F0.90000000000000002
ssVcom.android.launcher
p374
(dp375
g10
F1.7
sssg27
(dp376
Vcom.UCMobile
p377
(dp378
g10
F1.3
ssVcom.tencent.mobileqq
p379
(dp380
g10
F3.7000000000000002
ssVcom.taobao.taobao
p381
(dp382
g10
F0.90000000000000002
ssVcom.android.launcher
p383
(dp384
g10
F0.69999999999999996
sssg29
(dp385
Vcom.android.browser
p386
(dp387
g10
F1.8
ssVcom.youdao.dict
p388
(dp389
g10
F0.90000000000000002
ssVcom.tencent.mm
p390
(dp391
g10
F8.3000000000000025
ssVcom.sina.weibo
p392
(dp393
g10
F0.69999999999999996
ssVcom.android.mms
p394
(dp395
g10
F1.3
ssVcom.baidu.netdisk
p396
(dp397
g10
F0.90000000000000002
ssVcom.qihoo360.mobilesafe
p398
(dp399
g10
I1
ssVcom.UCMobile
p400
(dp401
g10
F0.90000000000000002
ssVcom.tiexue.ms
p402
(dp403
g10
F0.90000000000000002
ssVcom.android.launcher
p404
(dp405
g10
F53.900000000000006
ssVcom.android.settings
p406
(dp407
g10
F0.90000000000000002
ssVcom.tencent.mobileqq
p408
(dp409
g10
F11.899999999999999
ssVcom.android.contacts
p410
(dp411
g10
F2.5999999999999996
ssVcom.eg.android.AlipayGphone
p412
(dp413
g10
F3.5999999999999996
sssg31
(dp414
g8
(dp415
g10
I1
ssVcom.android.browser
p416
(dp417
g10
F276.89999999999935
ssg13
(dp418
g10
F9.0999999999999996
ssg15
(dp419
g10
F41.899999999999991
ssVcom.youdao.dict
p420
(dp421
g10
F142.2000000000001
ssVcom.baidu.netdisk
p422
(dp423
g10
F68.300000000000026
ssg23
(dp424
g10
F575.39999999999861
ssg25
(dp425
g10
F1.3
ssg27
(dp426
g10
F2.6000000000000001
ssVcom.taobao.taobao
p427
(dp428
g10
F55.100000000000023
ssg73
(dp429
g10
F27.699999999999996
ssg33
(dp430
g10
F3.1000000000000001
ssg35
(dp431
g10
F425.29999999999808
ssg37
(dp432
g10
F109.10000000000011
ssg39
(dp433
g10
F16.399999999999999
ssVcom.docin.zlibrary.ui.android
p434
(dp435
g10
F9.1999999999999993
ssg147
(dp436
g10
F18.600000000000001
ssg45
(dp437
g10
F43.300000000000011
ssg340
(dp438
g10
F15.699999999999996
ssVcom.android.bluetooth
p439
(dp440
g10
F1.3999999999999999
ssg51
(dp441
g10
F4.0999999999999996
ssVcom.sankuai.meituan
p442
(dp443
g10
F8.7000000000000011
ssg55
(dp444
g10
F59.499999999999993
ssVcom.qihoo360.mobilesafe
p445
(dp446
g10
F48.199999999999989
ssg61
(dp447
g10
F42.699999999999996
ssg57
(dp448
g10
F4.2999999999999998
ssg65
(dp449
g10
F1.7
ssg67
(dp450
g10
F24.499999999999993
ssVcom.android.phone
p451
(dp452
g10
F47.199999999999953
ssVcom.tencent.mobileqq
p453
(dp454
g10
F1198.7000000000087
ssg75
(dp455
g10
F27.599999999999998
ssg77
(dp456
g10
F17.799999999999997
ssg79
(dp457
g10
F4.5
ssg81
(dp458
g10
F14.899999999999999
ssg83
(dp459
g10
F62.400000000000006
ssg85
(dp460
g10
F1.3
ssg89
(dp461
g10
F1.8999999999999999
ssg91
(dp462
g10
F9.1000000000000014
ssg93
(dp463
g10
F1.7
ssg95
(dp464
g10
F5
ssg97
(dp465
g10
F5.4000000000000004
ssVcom.tencent.mm
p466
(dp467
g10
F803.50000000000068
ssg101
(dp468
g10
F144.30000000000013
ssg103
(dp469
g10
F255.29999999999964
ssg197
(dp470
g10
I1
ssg107
(dp471
g10
F1.3
ssg109
(dp472
g10
F0.90000000000000002
ssVcom.baidu.tieba
p473
(dp474
g10
F20.699999999999999
ssg99
(dp475
g10
F240.19999999999968
ssg115
(dp476
g10
F2.7000000000000002
sssg33
(dp477
Vcom.jiongji.andriod.card
p478
(dp479
g10
F0.90000000000000002
ssVcom.tencent.mobileqq
p480
(dp481
g10
F0.40000000000000002
ssVcom.android.mms
p482
(dp483
g10
F0.40000000000000002
ssVcom.baidu.netdisk
p484
(dp485
g10
F0.90000000000000002
ssVcom.huawei.hidisk
p486
(dp487
g10
F5.1000000000000005
ssVcom.android.launcher
p488
(dp489
g10
F3.4000000000000004
ssg49
(dp490
g10
F1.3
ssg289
(dp491
g10
F0.40000000000000002
sssg35
(dp492
g311
(dp493
g10
F28.299999999999983
ssVcom.jiongji.andriod.card
p494
(dp495
g10
I5
ssVcom.moji.mjweather
p496
(dp497
g10
F0.90000000000000002
ssg130
(dp498
g10
F2.2999999999999998
ssg422
(dp499
g10
F3.3999999999999995
ssVcom.UCMobile
p500
(dp501
g10
F44.899999999999963
ssVcom.taobao.taobao
p502
(dp503
g10
F0.90000000000000002
ssVcom.android.launcher
p504
(dp505
g10
F492.89999999999702
ssVcom.android.contacts
p506
(dp507
g10
F4.9000000000000004
ssVcn.wps.moffice_eng
p508
(dp509
g10
F0.90000000000000002
ssVcom.changba
p510
(dp511
g10
F6.0000000000000009
ssg442
(dp512
g10
F0.40000000000000002
ssVcom.android.gallery3d
p513
(dp514
g10
F2.3999999999999999
ssVcom.qihoo360.mobilesafe
p515
(dp516
g10
F11.100000000000001
ssVair.fyzb3
p517
(dp518
g10
F0.40000000000000002
ssVcom.mobilecaltronics.calculator
p519
(dp520
g10
F0.90000000000000002
ssg67
(dp521
g10
F2.1000000000000001
ssVcom.android.phone
p522
(dp523
g10
F7.4000000000000004
ssVcom.tencent.mm
p524
(dp525
g10
F65.100000000000009
ssVcn.com.fetion
p526
(dp527
g10
F0.69999999999999996
ssg93
(dp528
g10
F0.40000000000000002
ssg453
(dp529
g10
F186.20000000000033
ssVcom.android.mms
p530
(dp531
g10
F10.800000000000001
ssVcom.tiexue.ms
p532
(dp533
g10
F24.699999999999996
ssg473
(dp534
g10
F2
ssVcom.android.settings
p535
(dp536
g10
F30.59999999999998
sssg37
(dp537
Vcom.android.browser
p538
(dp539
g10
F0.40000000000000002
ssg356
(dp540
g10
F0.40000000000000002
ssVcom.android.settings
p541
(dp542
g10
F1.3
ssg51
(dp543
g10
F0.90000000000000002
ssVcom.tencent.mm
p544
(dp545
g10
F3.2000000000000002
ssVcom.android.mms
p546
(dp547
g10
F14.100000000000003
ssVcom.tiexue.ms
p548
(dp549
g10
F1.8
ssVcom.taobao.taobao
p550
(dp551
g10
F0.80000000000000004
ssVcom.UCMobile
p552
(dp553
g10
F2.2000000000000002
ssVcom.qihoo360.mobilesafe
p554
(dp555
g10
F3.6000000000000001
ssVcom.android.launcher
p556
(dp557
g10
F75.300000000000026
ssg451
(dp558
g10
F31.199999999999999
ssg392
(dp559
g10
F0.90000000000000002
ssVcom.tencent.mobileqq
p560
(dp561
g10
F23.499999999999989
sssg39
(dp562
Vcom.android.browser
p563
(dp564
g10
F0.90000000000000002
ssg13
(dp565
g10
F1.8
ssg99
(dp566
g10
F0.90000000000000002
ssg178
(dp567
g10
F0.40000000000000002
ssVcom.taobao.taobao
p568
(dp569
g10
I1
ssVcom.UCMobile
p570
(dp571
g10
F0.90000000000000002
ssVcom.android.launcher
p572
(dp573
g10
F17.899999999999999
ssVcom.tencent.mobileqq
p574
(dp575
g10
F1.8999999999999999
sssg41
(dp576
Vcom.android.browser
p577
(dp578
g10
F1.8
ssVcom.android.notepad
p579
(dp580
g10
F0.69999999999999996
ssVcom.android.settings
p581
(dp582
g10
F1.8
ssVcom.android.mms
p583
(dp584
g10
I1
ssVcom.qihoo360.mobilesafe
p585
(dp586
g10
I1
ssVcom.android.launcher
p587
(dp588
g10
F17.699999999999999
ssVcom.android.phone
p589
(dp590
g10
I1
ssVcom.tencent.mm
p591
(dp592
g10
F3.6999999999999997
ssVcom.android.contacts
p593
(dp594
g10
F1.3
ssVcom.tencent.mobileqq
p595
(dp596
g10
F5.2999999999999998
sssg43
(dp597
Vcom.android.browser
p598
(dp599
g10
F0.69999999999999996
ssVcom.jiongji.andriod.card
p600
(dp601
g10
I4
ssVcom.android.gallery3d
p602
(dp603
g10
F0.90000000000000002
ssVcom.youdao.dict
p604
(dp605
g10
F0.90000000000000002
ssVcom.huawei.hidisk
p606
(dp607
g10
F16.399999999999999
ssVcom.tencent.mobileqq
p608
(dp609
g10
F14.100000000000001
ssVcom.sina.weibo
p610
(dp611
g10
F0.90000000000000002
ssVcom.android.mms
p612
(dp613
g10
F0.40000000000000002
ssVcom.mobilecaltronics.calculator
p614
(dp615
g10
F0.90000000000000002
ssVcom.tiexue.ms
p616
(dp617
g10
F0.40000000000000002
ssVcom.UCMobile
p618
(dp619
g10
F6.9000000000000004
ssVcom.android.launcher
p620
(dp621
g10
F23.099999999999994
ssVcom.tencent.mm
p622
(dp623
g10
F2
sssg45
(dp624
g77
(dp625
g10
F1.8
ssVcom.android.browser
p626
(dp627
g10
F0.90000000000000002
ssVcom.jiongji.andriod.card
p628
(dp629
g10
I2
ssVcom.moji.mjweather
p630
(dp631
g10
F0.40000000000000002
ssVcom.youdao.dict
p632
(dp633
g10
F8.4000000000000004
ssg73
(dp634
g10
F1.6000000000000001
ssVcom.tencent.mobileqq
p635
(dp636
g10
F14.500000000000002
ssVcom.sina.weibo
p637
(dp638
g10
F3.7999999999999998
ssg442
(dp639
g10
F0.90000000000000002
ssg101
(dp640
g10
F2.3999999999999999
ssg103
(dp641
g10
F0.90000000000000002
ssVcom.UCMobile
p642
(dp643
g10
F1.6000000000000001
ssVcom.qihoo360.mobilesafe
p644
(dp645
g10
F1.6000000000000001
ssVcom.android.launcher
p646
(dp647
g10
F55.600000000000009
ssVcom.tencent.mm
p648
(dp649
g10
F2.7999999999999998
ssVcom.mediatek.FMRadio
p650
(dp651
g10
F0.90000000000000002
sssg47
(dp652
Vcom.android.settings
p653
(dp654
g10
I1
ssVcom.tencent.mm
p655
(dp656
g10
F0.69999999999999996
ssVcom.android.mms
p657
(dp658
g10
F1.3
ssVcom.baidu.netdisk
p659
(dp660
g10
F3.1999999999999997
ssVcom.UCMobile
p661
(dp662
g10
F3.2999999999999998
ssg79
(dp663
g10
F4.7000000000000002
ssVcom.android.launcher
p664
(dp665
g10
F18.799999999999997
ssVcom.tencent.mobileqq
p666
(dp667
g10
F14.599999999999998
sssg49
(dp668
Vcom.huawei.hidisk
p669
(dp670
g10
F1.7
ssg71
(dp671
g10
F0.40000000000000002
ssg480
(dp672
g10
F1.8
ssVcom.android.launcher
p673
(dp674
g10
F0.40000000000000002
ssVcom.android.settings
p675
(dp676
g10
F1.7
sssg51
(dp677
Vcom.android.launcher
p678
(dp679
g10
F3
ssVcom.qihoo360.mobilesafe
p680
(dp681
g10
I1
ssg81
(dp682
g10
F1.6000000000000001
sssg53
(dp683
Vcom.android.browser
p684
(dp685
g10
F0.90000000000000002
ssVcom.youdao.dict
p686
(dp687
g10
I1
ssVcom.tencent.mm
p688
(dp689
g10
F0.90000000000000002
ssg153
(dp690
g10
F0.90000000000000002
ssVcom.tiexue.ms
p691
(dp692
g10
F0.40000000000000002
ssVcom.android.launcher
p693
(dp694
g10
F10.199999999999999
ssg637
(dp695
g10
F0.90000000000000002
ssVcom.tencent.mobileqq
p696
(dp697
g10
F0.90000000000000002
sssg55
(dp698
Vcom.youdao.dict
p699
(dp700
g10
I1
ssVcom.android.browser
p701
(dp702
g10
F0.69999999999999996
ssVcom.jiongji.andriod.card
p703
(dp704
g10
F7.7000000000000002
ssVcn.wps.moffice_eng
p705
(dp706
g10
F1.3
ssVcom.huawei.hidisk
p707
(dp708
g10
F12.199999999999999
ssVcom.tencent.mm
p709
(dp710
g10
F7.2000000000000011
ssVcom.android.mms
p711
(dp712
g10
F1.7000000000000002
ssVcom.qihoo360.mobilesafe
p713
(dp714
g10
I1
ssVcom.UCMobile
p715
(dp716
g10
F2.1000000000000001
ssVcom.android.video
p717
(dp718
g10
F7
ssVcom.taobao.taobao
p719
(dp720
g10
F1.3
ssVcom.android.launcher
p721
(dp722
g10
F62.900000000000013
ssVcom.android.phone
p723
(dp724
g10
F2.7000000000000002
ssVcom.sina.weibo
p725
(dp726
g10
F1.7000000000000002
ssVcom.android.contacts
p727
(dp728
g10
F1.7000000000000002
ssVcom.tencent.mobileqq
p729
(dp730
g10
F34.79999999999999
sssg57
(dp731
Vcom.android.browser
p732
(dp733
g10
F0.69999999999999996
ssVcom.youdao.dict
p734
(dp735
g10
F0.69999999999999996
ssVcom.android.gallery3d
p736
(dp737
g10
F4.2999999999999998
ssVcom.huawei.hidisk
p738
(dp739
g10
F39
ssVcom.android.launcher
p740
(dp741
g10
F3.5999999999999996
ssVcom.tencent.mm
p742
(dp743
g10
I1
sssg59
(dp744
Vcom.android.browser
p745
(dp746
g10
F3
ssg83
(dp747
g10
F8.4000000000000004
ssVcom.youdao.dict
p748
(dp749
g10
F1.3
ssVcom.UCMobile
p750
(dp751
g10
F3.2999999999999998
ssVcom.android.notepad
p752
(dp753
g10
F0.69999999999999996
ssVcom.sina.weibo
p754
(dp755
g10
F7.2000000000000002
ssVcom.android.contacts
p756
(dp757
g10
F5.9000000000000004
ssVcom.eg.android.AlipayGphone
p758
(dp759
g10
F0.69999999999999996
ssVcom.android.packageinstaller
p760
(dp761
g10
F0.40000000000000002
ssVcom.moji.mjweather
p762
(dp763
g10
F0.40000000000000002
ssVcom.android.gallery3d
p764
(dp765
g10
F1.7
ssg427
(dp766
g10
F1.3999999999999999
ssVcom.huawei.hidisk
p767
(dp768
g10
F1.8
ssg63
(dp769
g10
I1
ssg65
(dp770
g10
F1.7
ssVcom.android.phone
p771
(dp772
g10
F6.2000000000000002
ssg346
(dp773
g10
F13.200000000000001
ssVcn.com.fetion
p774
(dp775
g10
F0.90000000000000002
ssg81
(dp776
g10
F1.3
ssg41
(dp777
g10
I1
ssVcom.tencent.mobileqq
p778
(dp779
g10
F30.299999999999994
ssVcom.android.calendar
p780
(dp781
g10
F0.90000000000000002
ssVcom.android.settings
p782
(dp783
g10
F4
ssVcom.android.mms
p784
(dp785
g10
F5
ssVcom.tiexue.ms
p786
(dp787
g10
F1.7
ssg473
(dp788
g10
F0.90000000000000002
ssVcom.android.launcher
p789
(dp790
g10
F76.900000000000006
sssg61
(dp791
g604
(dp792
g10
F2.2999999999999998
ssVcom.android.browser
p793
(dp794
g10
F0.40000000000000002
ssg519
(dp795
g10
F0.40000000000000002
ssg612
(dp796
g10
F0.69999999999999996
ssVcn.wps.moffice_eng
p797
(dp798
g10
F14.499999999999998
ssg107
(dp799
g10
I1
ssg49
(dp800
g10
F2.3999999999999999
ssg35
(dp801
g10
F1.6000000000000001
ssVcom.moji.mjweather
p802
(dp803
g10
F1.3
ssg736
(dp804
g10
F9.8000000000000007
ssg484
(dp805
g10
F2.3999999999999999
ssVcom.qihoo360.mobilesafe
p806
(dp807
g10
F1.8999999999999999
ssVcom.UCMobile
p808
(dp809
g10
F3.7999999999999998
ssg717
(dp810
g10
F40.100000000000001
ssVcom.android.launcher
p811
(dp812
g10
F35.899999999999991
ssVcom.android.settings
p813
(dp814
g10
F4.5
ssg33
(dp815
g10
F6.4000000000000004
ssg71
(dp816
g10
F3.7000000000000002
ssg113
(dp817
g10
F9.5
ssg480
(dp818
g10
F13.6
sssg63
(dp819
g750
(dp820
g10
I1
ssg346
(dp821
g10
F0.90000000000000002
ssg789
(dp822
g10
F0.69999999999999996
sssg65
(dp823
Vcom.android.packageinstaller
p824
(dp825
g10
F0.69999999999999996
ssVcom.android.mms
p826
(dp827
g10
F1.7
ssVcom.android.launcher
p828
(dp829
g10
F2.6999999999999997
sssg67
(dp830
Vcom.jiongji.andriod.card
p831
(dp832
g10
I1
ssVcom.tencent.mobileqq
p833
(dp834
g10
F11.800000000000001
ssVcom.sina.weibo
p835
(dp836
g10
F0.40000000000000002
ssVcom.moji.mjweather
p837
(dp838
g10
F0.40000000000000002
ssVcom.android.gallery3d
p839
(dp840
g10
F0.90000000000000002
ssVcom.tiexue.ms
p841
(dp842
g10
F0.90000000000000002
ssVcom.UCMobile
p843
(dp844
g10
F0.90000000000000002
ssVcom.taobao.taobao
p845
(dp846
g10
F0.90000000000000002
ssVcom.android.launcher
p847
(dp848
g10
F29.199999999999992
ssVcom.android.settings
p849
(dp850
g10
F0.90000000000000002
ssVcom.tencent.mm
p851
(dp852
g10
F5.4000000000000012
sssg69
(dp853
Vcom.jiongji.andriod.card
p854
(dp855
g10
I1
ssVcom.android.gallery3d
p856
(dp857
g10
I1
ssVcom.youdao.dict
p858
(dp859
g10
I2
ssg264
(dp860
g10
F4.5999999999999996
ssVcom.sankuai.meituan
p861
(dp862
g10
F0.90000000000000002
ssVcom.android.mms
p863
(dp864
g10
F4
ssVcom.mobilecaltronics.calculator
p865
(dp866
g10
F0.69999999999999996
ssVcom.tiexue.ms
p867
(dp868
g10
I2
ssg381
(dp869
g10
F0.40000000000000002
ssVcom.UCMobile
p870
(dp871
g10
F3.7000000000000002
ssVcom.sohu.inputmethod.sogou
p872
(dp873
g10
F0.90000000000000002
ssVcom.qihoo360.mobilesafe
p874
(dp875
g10
F8.6000000000000014
ssVcom.android.launcher
p876
(dp877
g10
F43.999999999999972
ssVcom.docin.zlibrary.ui.android
p878
(dp879
g10
I1
ssVcom.sina.weibo
p880
(dp881
g10
I6
ssg37
(dp882
g10
F62.000000000000014
ssVcom.tencent.mobileqq
p883
(dp884
g10
F19.099999999999998
sssg71
(dp885
Vcom.android.browser
p886
(dp887
g10
F16.400000000000002
ssVcom.jiongji.andriod.card
p888
(dp889
g10
F13.4
ssVcom.sankuai.meituan
p890
(dp891
g10
F0.90000000000000002
ssVcom.youdao.dict
p892
(dp893
g10
F14.700000000000003
ssVcom.baidu.netdisk
p894
(dp895
g10
F6.4000000000000004
ssg23
(dp896
g10
F88.800000000000097
ssVcom.sohu.inputmethod.sogou
p897
(dp898
g10
I1
ssVcom.taobao.taobao
p899
(dp900
g10
F7.6000000000000014
ssg811
(dp901
g10
F803.20000000000027
ssg35
(dp902
g10
F107.80000000000024
ssVcom.android.contacts
p903
(dp904
g10
F7.7000000000000011
ssg239
(dp905
g10
F0.40000000000000002
ssVcn.wps.moffice_eng
p906
(dp907
g10
F0.90000000000000002
ssg510
(dp908
g10
F5.6000000000000005
ssVair.fyzb3
p909
(dp910
g10
F2
ssg760
(dp911
g10
F0.69999999999999996
ssg837
(dp912
g10
F2.7000000000000002
ssVcom.android.gallery3d
p913
(dp914
g10
F5.2000000000000002
ssg57
(dp915
g10
F1.8999999999999999
ssg59
(dp916
g10
F5.9000000000000004
ssVcom.huawei.hidisk
p917
(dp918
g10
F2.5
ssg63
(dp919
g10
F0.69999999999999996
ssg65
(dp920
g10
F1.3
ssVcom.mediatek.FMRadio
p921
(dp922
g10
F0.80000000000000004
ssVcom.android.phone
p923
(dp924
g10
F7.5
ssg453
(dp925
g10
F222.20000000000056
ssVcom.android.notepad
p926
(dp927
g10
F0.90000000000000002
ssVcn.com.fetion
p928
(dp929
g10
F1.7999999999999998
ssVcom.kugou.android
p930
(dp931
g10
F5.0999999999999996
ssVcom.xtuone.android.syllabus
p932
(dp933
g10
F0.90000000000000002
ssVcom.docin.zlibrary.ui.android
p934
(dp935
g10
F4.4000000000000004
ssg97
(dp936
g10
F0.40000000000000002
ssVcom.android.settings
p937
(dp938
g10
F12.000000000000004
ssVcom.android.mms
p939
(dp940
g10
F11.4
ssVcom.tiexue.ms
p941
(dp942
g10
F41.099999999999952
ssVcom.baidu.tieba
p943
(dp944
g10
F3.3999999999999999
sssg73
(dp945
Vcom.jiongji.andriod.card
p946
(dp947
g10
I1
ssVcom.youdao.dict
p948
(dp949
g10
F0.90000000000000002
ssVcom.changba
p950
(dp951
g10
F0.40000000000000002
ssVcom.tencent.mm
p952
(dp953
g10
F0.90000000000000002
ssVcom.android.mms
p954
(dp955
g10
F4.9000000000000004
ssVcom.baidu.netdisk
p956
(dp957
g10
F0.90000000000000002
ssVcom.android.launcher
p958
(dp959
g10
F25.699999999999999
ssg85
(dp960
g10
F0.69999999999999996
ssVcom.sina.weibo
p961
(dp962
g10
F0.80000000000000004
ssVcom.tencent.mobileqq
p963
(dp964
g10
F6.6000000000000005
sssg75
(dp965
Vcom.android.browser
p966
(dp967
g10
F0.69999999999999996
ssVcom.moji.mjweather
p968
(dp969
g10
F1.3
ssVcom.android.settings
p970
(dp971
g10
F1.3
ssVcom.tencent.mm
p972
(dp973
g10
F0.80000000000000004
ssVcom.android.mms
p974
(dp975
g10
F5.3000000000000007
ssVcom.tiexue.ms
p976
(dp977
g10
F1.3
ssVcom.codoon.gps
p978
(dp979
g10
I1
ssg109
(dp980
g10
I1
ssVcom.android.launcher
p981
(dp982
g10
F32.899999999999991
ssVcom.tencent.mobileqq
p983
(dp984
g10
F8.9000000000000021
ssVcom.android.contacts
p985
(dp986
g10
I1
sssg77
(dp987
Vcom.jiongji.andriod.card
p988
(dp989
g10
F14.699999999999999
ssg861
(dp990
g10
F0.40000000000000002
ssVcom.tencent.mobileqq
p991
(dp992
g10
F7.6000000000000014
ssVcom.tencent.mm
p993
(dp994
g10
F6.9000000000000012
ssVcom.android.mms
p995
(dp996
g10
I1
ssVcom.tiexue.ms
p997
(dp998
g10
F2.2000000000000002
ssVcom.UCMobile
p999
(dp1000
g10
F1.8999999999999999
ssVcom.android.launcher
p1001
(dp1002
g10
F37.199999999999996
ssVcom.android.phone
p1003
(dp1004
g10
F0.90000000000000002
ssVcom.sina.weibo
p1005
(dp1006
g10
F0.80000000000000004
ssVcom.android.contacts
p1007
(dp1008
g10
F1.3
sssg79
(dp1009
Vair.fyzb3
p1010
(dp1011
g10
F2.2999999999999998
ssVcom.android.launcher
p1012
(dp1013
g10
F4.3999999999999995
ssg661
(dp1014
g10
F1.6000000000000001
sssg81
(dp1015
Vcom.sina.weibo
p1016
(dp1017
g10
I1
ssVcom.moji.mjweather
p1018
(dp1019
g10
F1.3
ssVcom.android.launcher
p1020
(dp1021
g10
F12.700000000000001
ssVcom.android.settings
p1022
(dp1023
g10
F0.90000000000000002
ssVcom.tencent.mm
p1024
(dp1025
g10
F0.80000000000000004
ssVcom.tencent.mobileqq
p1026
(dp1027
g10
F2.3999999999999999
sssg83
(dp1028
Vcom.android.browser
p1029
(dp1030
g10
F0.40000000000000002
ssVcom.mobilecaltronics.calculator
p1031
(dp1032
g10
I1
ssVcom.moji.mjweather
p1033
(dp1034
g10
I1
ssVcom.youdao.dict
p1035
(dp1036
g10
F2.8999999999999999
ssVcom.baidu.netdisk
p1037
(dp1038
g10
F0.69999999999999996
ssVcom.UCMobile
p1039
(dp1040
g10
F12.800000000000001
ssVcom.android.notepad
p1041
(dp1042
g10
F1.3999999999999999
ssVcom.sina.weibo
p1043
(dp1044
g10
F9.8000000000000007
ssVcom.android.contacts
p1045
(dp1046
g10
F3.2000000000000002
ssVcn.wps.moffice_eng
p1047
(dp1048
g10
F2.2999999999999998
ssVcom.changba
p1049
(dp1050
g10
I1
ssVcom.sankuai.meituan
p1051
(dp1052
g10
F0.40000000000000002
ssg55
(dp1053
g10
F14.699999999999999
ssVcom.qihoo360.mobilesafe
p1054
(dp1055
g10
F4.7999999999999998
ssg917
(dp1056
g10
F1.8
ssVcom.mediatek.FMRadio
p1057
(dp1058
g10
I1
ssVcom.tencent.mm
p1059
(dp1060
g10
F25.199999999999992
ssVcom.kugou.android
p1061
(dp1062
g10
F6.9000000000000004
ssVcom.xtuone.android.syllabus
p1063
(dp1064
g10
F0.69999999999999996
ssVcom.tencent.mobileqq
p1065
(dp1066
g10
F71.400000000000006
ssVinsigma.waybook
p1067
(dp1068
g10
I1
ssg95
(dp1069
g10
F1.7
ssg262
(dp1070
g10
F0.69999999999999996
ssVcom.android.settings
p1071
(dp1072
g10
F1.3
ssVcom.android.mms
p1073
(dp1074
g10
F7.0000000000000009
ssVcom.tiexue.ms
p1075
(dp1076
g10
F6.5000000000000009
ssg197
(dp1077
g10
F0.69999999999999996
ssVcom.android.launcher
p1078
(dp1079
g10
F120.30000000000024
sssg85
(dp1080
Vcom.android.mms
p1081
(dp1082
g10
I1
ssVcom.android.launcher
p1083
(dp1084
g10
F0.90000000000000002
sssg87
(dp1085
g11
(dp1086
g10
F42.099999999999959
ssg83
(dp1087
g10
F96.300000000000054
ssg1051
(dp1088
g10
F0.69999999999999996
ssg17
(dp1089
g10
F46.199999999999974
ssVcom.baidu.netdisk
p1090
(dp1091
g10
F21.699999999999996
ssg23
(dp1092
g10
F157.80000000000032
ssg27
(dp1093
g10
F3.7000000000000002
ssVcom.taobao.taobao
p1094
(dp1095
g10
F18.100000000000001
ssg73
(dp1096
g10
F11.000000000000002
ssg33
(dp1097
g10
F0.40000000000000002
ssg35
(dp1098
g10
F175.50000000000043
ssg756
(dp1099
g10
F27.599999999999987
ssVcom.eg.android.AlipayGphone
p1100
(dp1101
g10
F3.2999999999999998
ssg865
(dp1102
g10
F1.8
ssg147
(dp1103
g10
F12.500000000000002
ssVcom.changba
p1104
(dp1105
g10
F8.7000000000000011
ssg340
(dp1106
g10
F10.800000000000001
ssg760
(dp1107
g10
F0.90000000000000002
ssVcom.moji.mjweather
p1108
(dp1109
g10
F8.5
ssg55
(dp1110
g10
F49.999999999999986
ssg445
(dp1111
g10
F33.199999999999989
ssg61
(dp1112
g10
F15.600000000000001
ssVcom.android.video
p1113
(dp1114
g10
F0.69999999999999996
ssg65
(dp1115
g10
F0.40000000000000002
ssg67
(dp1116
g10
F8.0000000000000018
ssg771
(dp1117
g10
F21.399999999999999
ssg71
(dp1118
g10
F355.8999999999985
ssVcn.com.fetion
p1119
(dp1120
g10
F7.2000000000000011
ssVcom.kugou.android
p1121
(dp1122
g10
F3
ssVcom.zhangyu
p1123
(dp1124
g10
F0.69999999999999996
ssVcom.xtuone.android.syllabus
p1125
(dp1126
g10
F3.8999999999999999
ssg934
(dp1127
g10
F1.3999999999999999
ssg91
(dp1128
g10
F5.0999999999999996
ssg97
(dp1129
g10
F1.3
ssg541
(dp1130
g10
F27.699999999999985
ssg360
(dp1131
g10
F40.899999999999977
ssVcom.tiexue.ms
p1132
(dp1133
g10
F88.000000000000128
ssg943
(dp1134
g10
F3.8999999999999999
ssVcom.android.mediacenter
p1135
(dp1136
g10
F1.3
ssg31
(dp1137
g10
F1407.2000000000185
ssg115
(dp1138
g10
F1.6000000000000001
sssg89
(dp1139
sg91
(dp1140
Vcom.jiongji.andriod.card
p1141
(dp1142
g10
I1
ssVcom.android.settings
p1143
(dp1144
g10
I1
ssVcom.android.mms
p1145
(dp1146
g10
F0.90000000000000002
ssVcom.tiexue.ms
p1147
(dp1148
g10
F0.90000000000000002
ssVcom.android.launcher
p1149
(dp1150
g10
F19.499999999999996
ssVcom.tencent.mm
p1151
(dp1152
g10
F3.5999999999999996
ssVcom.tencent.mobileqq
p1153
(dp1154
g10
F9.5
sssg93
(dp1155
sg95
(dp1156
Vcom.android.settings
p1157
(dp1158
g10
I1
ssVcom.jiongji.andriod.card
p1159
(dp1160
g10
I1
ssVcn.com.fetion
p1161
(dp1162
g10
I1
ssVcom.android.launcher
p1163
(dp1164
g10
F4.0999999999999996
ssg966
(dp1165
g10
F1.3
sssg97
(dp1166
Vcom.moji.mjweather
p1167
(dp1168
g10
I2
ssVcom.tencent.mm
p1169
(dp1170
g10
F0.90000000000000002
ssVcom.android.launcher
p1171
(dp1172
g10
I1
sssg99
(dp1173
Vcom.huawei.hidisk
p1174
(dp1175
g10
F4.2000000000000002
ssVcom.android.browser
p1176
(dp1177
g10
F36.599999999999966
ssg508
(dp1178
g10
F1.1000000000000001
ssVcom.changba
p1179
(dp1180
g10
F0.40000000000000002
ssVcom.UCMobile
p1181
(dp1182
g10
F37.699999999999967
ssg526
(dp1183
g10
F1.3
ssVcom.tencent.mobileqq
p1184
(dp1185
g10
F29.199999999999985
ssVcom.tencent.mm
p1186
(dp1187
g10
F14.4
ssVcom.android.mms
p1188
(dp1189
g10
F1.3
ssVcom.baidu.netdisk
p1190
(dp1191
g10
F3.1999999999999997
ssVcom.qihoo360.mobilesafe
p1192
(dp1193
g10
F3.2999999999999998
ssVcom.taobao.taobao
p1194
(dp1195
g10
F1.8
ssVair.fyzb3
p1196
(dp1197
g10
I1
ssVcom.tiexue.ms
p1198
(dp1199
g10
F4.8000000000000007
ssVcom.android.launcher
p1200
(dp1201
g10
F242.69999999999976
ssg439
(dp1202
g10
F0.90000000000000002
ssVcom.codoon.gps
p1203
(dp1204
g10
I1
ssg434
(dp1205
g10
F0.90000000000000002
ssVcom.sina.weibo
p1206
(dp1207
g10
F22.099999999999994
ssVcom.android.contacts
p1208
(dp1209
g10
F1.3
ssVcom.youdao.dict
p1210
(dp1211
g10
F1.3999999999999999
sssg101
(dp1212
g684
(dp1213
g10
F2
ssVcom.jiongji.andriod.card
p1214
(dp1215
g10
I1
ssVcom.android.launcher
p1216
(dp1217
g10
F153.70000000000007
ssg956
(dp1218
g10
F1.3999999999999999
ssVcom.UCMobile
p1219
(dp1220
g10
F9.5999999999999996
ssVcom.taobao.taobao
p1221
(dp1222
g10
F0.90000000000000002
ssVcom.android.notepad
p1223
(dp1224
g10
F4.5
ssVcom.sina.weibo
p1225
(dp1226
g10
F3.8999999999999999
ssVcom.android.contacts
p1227
(dp1228
g10
F9.8000000000000007
ssVcom.youdao.dict
p1229
(dp1230
g10
F1.1000000000000001
ssVcom.docin.zlibrary.ui.android
p1231
(dp1232
g10
I1
ssVcn.wps.moffice_eng
p1233
(dp1234
g10
F0.69999999999999996
ssg950
(dp1235
g10
F0.90000000000000002
ssg824
(dp1236
g10
F0.90000000000000002
ssg1051
(dp1237
g10
F0.90000000000000002
ssVcom.android.gallery3d
p1238
(dp1239
g10
I1
ssVcom.qihoo360.mobilesafe
p1240
(dp1241
g10
F1.8
ssVcom.huawei.hidisk
p1242
(dp1243
g10
F1.3
ssVcom.mobilecaltronics.calculator
p1244
(dp1245
g10
F0.40000000000000002
ssVcom.android.phone
p1246
(dp1247
g10
F1.7
ssg648
(dp1248
g10
F15.000000000000004
ssVcom.kugou.android
p1249
(dp1250
g10
I1
ssg75
(dp1251
g10
F4.7999999999999998
ssVcom.xtuone.android.syllabus
p1252
(dp1253
g10
F0.40000000000000002
ssg85
(dp1254
g10
I1
ssg91
(dp1255
g10
F0.40000000000000002
ssVcom.tencent.mobileqq
p1256
(dp1257
g10
F42.799999999999976
ssVcom.tiexue.ms
p1258
(dp1259
g10
F5.8000000000000007
sssg103
(dp1260
Vcom.android.browser
p1261
(dp1262
g10
F11.800000000000004
ssVcom.jiongji.andriod.card
p1263
(dp1264
g10
I6
ssg25
(dp1265
g10
F0.69999999999999996
ssVcom.youdao.dict
p1266
(dp1267
g10
F2.7000000000000002
ssVcom.baidu.netdisk
p1268
(dp1269
g10
F2.2999999999999998
ssVcom.UCMobile
p1270
(dp1271
g10
F27.999999999999982
ssg324
(dp1272
g10
F0.90000000000000002
ssVcom.android.launcher
p1273
(dp1274
g10
F299.49999999999926
ssVcom.sina.weibo
p1275
(dp1276
g10
F8.7000000000000011
ssVcom.android.contacts
p1277
(dp1278
g10
F3.7999999999999998
ssVcn.wps.moffice_eng
p1279
(dp1280
g10
F0.69999999999999996
ssVcom.changba
p1281
(dp1282
g10
F2.7000000000000002
ssVair.fyzb3
p1283
(dp1284
g10
F1.7000000000000002
ssVcom.moji.mjweather
p1285
(dp1286
g10
F2.7000000000000002
ssVcom.android.gallery3d
p1287
(dp1288
g10
F5.7000000000000002
ssVcom.qihoo360.mobilesafe
p1289
(dp1290
g10
F1.7
ssVcom.huawei.hidisk
p1291
(dp1292
g10
F0.80000000000000004
ssg921
(dp1293
g10
F1.8
ssg923
(dp1294
g10
F7.3000000000000007
ssVcom.tencent.mm
p1295
(dp1296
g10
F40.799999999999969
ssg1161
(dp1297
g10
F1.1000000000000001
ssVcom.kugou.android
p1298
(dp1299
g10
F1.7
ssg932
(dp1300
g10
F0.40000000000000002
ssg635
(dp1301
g10
F96.200000000000145
ssVcom.codoon.gps
p1302
(dp1303
g10
F1.7000000000000002
ssVcom.android.settings
p1304
(dp1305
g10
F9.1000000000000014
ssVcom.android.mms
p1306
(dp1307
g10
F8.3000000000000007
ssg211
(dp1308
g10
F1.3
sssg105
(dp1309
Vcom.tencent.mobileqq
p1310
(dp1311
g10
F1.3
ssg213
(dp1312
g10
F0.90000000000000002
ssVcom.android.launcher
p1313
(dp1314
g10
F3.4000000000000004
sssg107
(dp1315
Vcom.huawei.hidisk
p1316
(dp1317
g10
F1.7
ssVcom.android.launcher
p1318
(dp1319
g10
F1.3
sssg109
(dp1320
g968
(dp1321
g10
F0.69999999999999996
ssVcn.com.fetion
p1322
(dp1323
g10
I2
ssVcom.android.launcher
p1324
(dp1325
g10
F1.3
sssg111
(dp1326
Vcom.android.browser
p1327
(dp1328
g10
F1.3
ssg1281
(dp1329
g10
F0.40000000000000002
ssVcom.sina.weibo
p1330
(dp1331
g10
F2.6999999999999997
ssVcom.baidu.netdisk
p1332
(dp1333
g10
F1.8999999999999999
ssg515
(dp1334
g10
F0.90000000000000002
ssVcom.UCMobile
p1335
(dp1336
g10
F0.40000000000000002
ssVcom.tencent.mobileqq
p1337
(dp1338
g10
F2.2000000000000002
ssVcom.tiexue.ms
p1339
(dp1340
g10
F1.8
ssVcom.android.launcher
p1341
(dp1342
g10
F17.999999999999996
ssVcom.tencent.mm
p1343
(dp1344
g10
F1.7000000000000002
ssVcom.mediatek.FMRadio
p1345
(dp1346
g10
F0.90000000000000002
sssg113
(dp1347
Vcom.huawei.hidisk
p1348
(dp1349
g10
F10.199999999999999
ssVcom.tencent.mobileqq
p1350
(dp1351
g10
F2.6000000000000001
ssVcom.android.launcher
p1352
(dp1353
g10
F0.40000000000000002
sssg115
(dp1354
Vcom.tencent.mm
p1355
(dp1356
g10
F1.8
ssVcom.android.launcher
p1357
(dp1358
g10
F3.4000000000000004
ssssS'edge'
p1359
g121
sS'graph'
p1360
(dp1361
sS'adjlist_dict_factory'
p1362
g118
sS'adj'
p1363
g121
sS'pred'
p1364
(dp1365
g8
(dp1366
Vcom.android.launcher
p1367
g415
ssg11
(dp1368
Vcom.jiongji.andriod.card
p1369
g1030
sg1051
g685
sVcom.youdao.dict
p1370
g223
sVcom.baidu.netdisk
p1371
g277
sVcom.UCMobile
p1372
g312
sVcom.taobao.taobao
p1373
g387
sg139
g417
sVcom.sina.weibo
p1374
g493
sVcom.android.contacts
p1375
g539
sVcom.eg.android.AlipayGphone
p1376
g564
sg43
g599
sg1179
g627
sg1285
g192
sVcom.android.gallery3d
p1377
g702
sVcom.qihoo360.mobilesafe
p1378
g746
sVcom.huawei.hidisk
p1379
g794
sg252
g733
sVcom.tencent.mobileqq
p1380
g1086
sg1161
g967
sg434
g578
sg1302
g1165
sVcom.tencent.mm
p1381
g887
sVcom.android.mms
p1382
g1213
sVcom.tiexue.ms
p1383
g1262
sVcom.baidu.tieba
p1384
g1328
sg171
g1177
ssg13
(dp1385
Vcom.jiongji.andriod.card
p1386
g1032
sVcn.wps.moffice_eng
p1387
g615
sVcom.UCMobile
p1388
g313
sVcom.tencent.mobileqq
p1389
g1102
sVcom.android.mms
p1390
g1245
sg178
g279
sVcom.huawei.hidisk
p1391
g795
sg367
g418
sVcom.android.phone
p1392
g866
sVcom.sina.weibo
p1393
g520
sg331
g565
ssg15
(dp1394
g191
g152
sVcom.jiongji.andriod.card
p1395
g1034
sVcom.youdao.dict
p1396
g227
sg1049
g631
sg1316
g803
sg97
g1168
sVcom.tencent.mobileqq
p1397
g1109
sVcom.sina.weibo
p1398
g497
sVcn.com.fetion
p1399
g969
sVcom.tiexue.ms
p1400
g1286
sg1240
g763
sVcom.UCMobile
p1401
g337
sVcom.mediatek.data
p1402
g1321
sVcom.mediatek.FMRadio
p1403
g838
sVcom.android.launcher
p1404
g419
sVcom.tencent.mm
p1405
g912
sg1125
g1019
ssg17
(dp1406
Vcom.android.browser
p1407
g131
sVcom.jiongji.andriod.card
p1408
g1036
sVcom.moji.mjweather
p1409
g220
sVcn.wps.moffice_eng
p1410
g605
sVcom.changba
p1411
g633
sVcom.huawei.hidisk
p1412
g792
sVcom.tencent.mm
p1413
g893
sVcom.sina.weibo
p1414
g498
sg53
g687
sVcom.android.mms
p1415
g1230
sVcom.tiexue.ms
p1416
g1267
sVcom.taobao.taobao
p1417
g389
sg229
g317
sVcom.android.video
p1418
g735
sVcom.qihoo360.mobilesafe
p1419
g749
sVcom.android.launcher
p1420
g421
sVcom.android.phone
p1421
g859
sVcom.android.notepad
p1422
g949
sVcom.android.gallery3d
p1423
g700
sg87
g1089
sVcom.android.settings
p1424
g1211
ssg19
(dp1425
Vcom.UCMobile
p1426
g338
ssg21
(dp1427
Vcom.android.browser
p1428
g133
sg13
g179
sg280
g660
sVcom.android.notepad
p1429
g957
sVcom.UCMobile
p1430
g321
sVcom.tencent.mm
p1431
g895
sVcom.android.mms
p1432
g1218
sVcom.jiongji.andriod.card
p1433
g1038
sVcom.tiexue.ms
p1434
g1269
sVcom.huawei.hidisk
p1435
g805
sVcom.baidu.tieba
p1436
g1333
sg1194
g397
sg301
g423
sg303
g1191
sVcom.iBookStar.activity
p1437
g485
sg287
g499
sg331
g567
sVcom.tencent.mobileqq
p1438
g1091
ssg23
(dp1439
g745
g135
sg351
g1040
sg25
g371
sVcom.youdao.dict
p1440
g230
sg320
g296
sg27
g378
sVcom.taobao.taobao
p1441
g401
sVcom.android.launcher
p1442
g424
sVcom.sina.weibo
p1443
g501
sg1375
g553
sVcom.eg.android.AlipayGphone
p1444
g571
sg147
g619
sVcom.changba
p1445
g643
sg1010
g662
sg1018
g210
sg913
g716
sg59
g751
sVcom.huawei.hidisk
p1446
g809
sg63
g820
sVcom.mediatek.FMRadio
p1447
g844
sg69
g871
sg466
g896
sVcom.kugou.android
p1448
g1000
sVcom.zhangyu
p1449
g1014
sg1244
g183
sVcom.tencent.mobileqq
p1450
g1092
sg358
g1182
sVcom.android.mms
p1451
g1220
sVcom.tiexue.ms
p1452
g1271
sVcom.baidu.tieba
p1453
g1336
ssg25
(dp1454
Vcom.android.browser
p1455
g136
sVcom.tiexue.ms
p1456
g1265
sVcom.android.launcher
p1457
g425
ssg27
(dp1458
Vcom.UCMobile
p1459
g323
sVcom.tencent.mm
p1460
g898
sVcom.tencent.mobileqq
p1461
g1093
sVcom.android.launcher
p1462
g426
sVcom.android.phone
p1463
g873
ssg29
(dp1464
Vcom.android.browser
p1465
g138
sVcom.android.mms
p1466
g1222
sVcom.youdao.dict
p1467
g250
sg390
g900
sVcom.sina.weibo
p1468
g503
sg1463
g869
sVcom.android.gallery3d
p1469
g720
sVcom.tiexue.ms
p1470
g1272
sVcom.qihoo360.mobilesafe
p1471
g766
sg396
g300
sVcom.UCMobile
p1472
g325
sg872
g382
sVcom.mediatek.FMRadio
p1473
g846
sVcom.android.launcher
p1474
g428
sg406
g1195
sg408
g1095
sVcom.android.contacts
p1475
g551
sg412
g569
ssg31
(dp1476
g8
g126
sg11
g140
sg13
g185
sg15
g216
sg17
g228
sg19
g274
sg21
g302
sg1388
g368
sg25
g375
sVcom.sohu.inputmethod.sogou
p1477
g384
sVcom.taobao.taobao
p1478
g405
sVcom.android.notepad
p1479
g959
sg1437
g489
sVcom.sina.weibo
p1480
g505
sg37
g557
sg39
g573
sg41
g588
sg43
g621
sg45
g647
sg669
g812
sg439
g674
sg51
g679
sg53
g694
sVcom.android.gallery3d
p1481
g722
sg57
g741
sg59
g790
sg47
g665
sg63
g822
sg65
g829
sVcom.mediatek.FMRadio
p1482
g848
sg69
g877
sg71
g901
sg75
g982
sg77
g1002
sg79
g1013
sg81
g1021
sVcom.jiongji.andriod.card
p1483
g1079
sg85
g1084
sg87
g1137
sg91
g1150
sg95
g1164
sg780
g1172
sg99
g1201
sg101
g1217
sg103
g1274
sg105
g1314
sg107
g1319
sg1402
g1325
sg111
g1342
sVcom.android.mediacenter
p1484
g1353
sg115
g1358
ssg33
(dp1485
g61
g815
sg87
g1097
sg17
g234
sg31
g430
ssg35
(dp1486
Vcom.android.browser
p1487
g142
sg83
g1044
sg442
g695
sVcom.youdao.dict
p1488
g236
sg21
g288
sg500
g329
sVcom.taobao.taobao
p1489
g393
sg1479
g962
sVcom.android.contacts
p1490
g559
sg508
g611
sg510
g638
sVcom.moji.mjweather
p1491
g202
sVcom.android.gallery3d
p1492
g726
sg515
g755
sVcom.huawei.hidisk
p1493
g801
sg1057
g836
sg522
g881
sg480
g1098
sVcom.kugou.android
p1494
g1006
sg1063
g1017
sg71
g902
sg101
g1226
sVcom.tiexue.ms
p1495
g1276
sg111
g1331
sg811
g431
sg535
g1207
ssg37
(dp1496
Vcom.kugou.android
p1497
g1008
sVcom.android.browser
p1498
g144
sVcom.jiongji.andriod.card
p1499
g1046
sVcom.android.gallery3d
p1500
g728
sVcom.youdao.dict
p1501
g238
sVcn.com.fetion
p1502
g986
sVcom.sina.weibo
p1503
g507
sg851
g904
sg546
g1228
sVcom.qihoo360.mobilesafe
p1504
g757
sVcom.taobao.taobao
p1505
g411
sVcom.UCMobile
p1506
g330
sVcom.tiexue.ms
p1507
g1278
sg876
g432
sg69
g882
sVcom.docin.zlibrary.ui.android
p1508
g594
sg778
g1099
sVcom.android.settings
p1509
g1209
ssg39
(dp1510
g563
g146
sg13
g189
sVcom.youdao.dict
p1511
g240
sVcom.tencent.mm
p1512
g905
sg178
g309
sg1094
g413
sg1388
g332
sg398
g759
sVcom.android.launcher
p1513
g433
sVcom.tencent.mobileqq
p1514
g1101
ssg41
(dp1515
Vcom.android.browser
p1516
g164
sVcom.tencent.mobileqq
p1517
g1127
sg589
g879
sg583
g1232
sVcom.qihoo360.mobilesafe
p1518
g777
sVcom.UCMobile
p1519
g353
sVcom.android.launcher
p1520
g435
sVcom.android.settings
p1521
g1205
sVcom.tencent.mm
p1522
g935
ssg43
(dp1523
g598
g148
sVcom.jiongji.andriod.card
p1524
g1048
sVcom.android.gallery3d
p1525
g706
sg604
g242
sVcom.UCMobile
p1526
g334
sVcom.android.settings
p1527
g1178
sVcom.sina.weibo
p1528
g509
sVcom.tencent.mm
p1529
g907
sVcom.android.mms
p1530
g1234
sg1244
g177
sVcom.tiexue.ms
p1531
g1280
sg606
g798
sg620
g436
sVcom.tencent.mobileqq
p1532
g1103
ssg45
(dp1533
Vcom.android.browser
p1534
g150
sVcom.jiongji.andriod.card
p1535
g1050
sg632
g244
sVcom.android.notepad
p1536
g951
sVcom.tencent.mm
p1537
g908
sVcom.android.mms
p1538
g1235
sVcom.baidu.netdisk
p1539
g284
sg1339
g1282
sVcom.baidu.tieba
p1540
g1329
sVcom.android.launcher
p1541
g437
sg303
g1180
sVcom.sina.weibo
p1542
g511
sVcom.tencent.mobileqq
p1543
g1105
ssg47
(dp1544
g653
g1197
sVcom.sina.weibo
p1545
g518
sVcom.baidu.netdisk
p1546
g281
sVcom.tiexue.ms
p1547
g1284
sVcom.UCMobile
p1548
g341
sg79
g1011
sVcom.android.launcher
p1549
g438
sg655
g910
sVcom.tencent.mobileqq
p1550
g1106
ssg49
(dp1551
Vcom.huawei.hidisk
p1552
g800
sVcom.iBookStar.activity
p1553
g490
sVcom.android.launcher
p1554
g440
sg813
g1202
ssg51
(dp1555
Vcom.tencent.mobileqq
p1556
g1107
sg826
g1236
sVcom.qihoo360.mobilesafe
p1557
g761
sVcom.UCMobile
p1558
g336
sVcom.fanli.android.apps
p1559
g825
sVcom.android.launcher
p1560
g441
sVcom.tencent.mm
p1561
g911
sg1208
g543
ssg53
(dp1562
Vcom.kugou.android
p1563
g990
sg684
g129
sVcom.jiongji.andriod.card
p1564
g1052
sg686
g246
sg510
g639
sg1542
g512
sg688
g891
sg1382
g1237
sVcom.UCMobile
p1565
g315
sVcom.android.launcher
p1566
g443
sg1003
g862
sVcom.tencent.mobileqq
p1567
g1088
ssg55
(dp1568
Vcom.jiongji.andriod.card
p1569
g1053
sVcom.moji.mjweather
p1570
g206
sVcom.youdao.dict
p1571
g248
sVcom.UCMobile
p1572
g319
sVcom.tencent.mobileqq
p1573
g1110
sg725
g514
sVcom.qihoo360.mobilesafe
p1574
g765
sVcom.android.mms
p1575
g1239
sVcom.tiexue.ms
p1576
g1288
sg738
g804
sg57
g737
sVcom.mediatek.FMRadio
p1577
g840
sVcom.android.launcher
p1578
g444
sg723
g857
sg709
g914
sVcn.wps.moffice_eng
p1579
g603
ssg57
(dp1580
Vcom.youdao.dict
p1581
g253
sVcom.tencent.mm
p1582
g915
sg736
g718
sg707
g810
sVcom.android.launcher
p1583
g448
sVcom.tencent.mobileqq
p1584
g1114
ssg59
(dp1585
g8
g124
sg684
g154
sVcom.jiongji.andriod.card
p1586
g1055
sg1033
g214
sVcom.mobilecaltronics.calculator
p1587
g181
sVcom.UCMobile
p1588
g339
sVcom.android.launcher
p1589
g446
sg1330
g516
sVcom.android.contacts
p1590
g555
sVcom.changba
p1591
g645
sg51
g681
sg128
g690
sVcom.android.gallery3d
p1592
g714
sg550
g399
sg917
g807
sVcom.android.phone
p1593
g875
sVcom.tencent.mobileqq
p1594
g1111
sVcom.tencent.mm
p1595
g916
sVcom.docin.zlibrary.ui.android
p1596
g586
sg541
g1193
sVcom.android.mms
p1597
g1241
sVcom.tiexue.ms
p1598
g1290
sg197
g1312
sg111
g1334
ssg61
(dp1599
Vcom.android.browser
p1600
g156
sVcom.jiongji.andriod.card
p1601
g1056
sg1530
g1243
sg17
g251
sg107
g1317
sg49
g670
sVcom.tencent.mm
p1602
g918
sg736
g708
sVcom.baidu.netdisk
p1603
g286
sVcom.qihoo360.mobilesafe
p1604
g768
sVcom.UCMobile
p1605
g335
sg57
g739
sVcom.tiexue.ms
p1606
g1292
sg31
g447
sVcom.android.settings
p1607
g1175
sg33
g487
sg87
g1112
sg113
g1349
sVcn.wps.moffice_eng
p1608
g607
ssg63
(dp1609
g1588
g342
sg1595
g919
sg59
g769
ssg65
(dp1610
Vcom.tencent.mm
p1611
g920
sVcom.tencent.mobileqq
p1612
g1115
sVcom.qihoo360.mobilesafe
p1613
g770
sVcom.android.launcher
p1614
g449
ssg67
(dp1615
Vcom.android.browser
p1616
g158
sg831
g1058
sVcom.youdao.dict
p1617
g255
sVcom.changba
p1618
g651
sVcom.sina.weibo
p1619
g521
sVcom.tencent.mm
p1620
g922
sVcom.tiexue.ms
p1621
g1293
sVcom.UCMobile
p1622
g344
sVcom.baidu.tieba
p1623
g1346
sVcom.android.launcher
p1624
g450
sVcom.tencent.mobileqq
p1625
g1116
ssg69
(dp1626
g1563
g1004
sg1500
g724
sVcom.youdao.dict
p1627
g257
sVcom.tencent.mobileqq
p1628
g1117
sVcom.tencent.mm
p1629
g924
sg546
g1247
sg1504
g772
sg1506
g345
sg786
g1294
sVcom.android.launcher
p1630
g452
sg1508
g590
sg1503
g523
sVcom.android.contacts
p1631
g558
ssg71
(dp1632
Vcom.android.browser
p1633
g166
sVcom.jiongji.andriod.card
p1634
g1060
sg314
g689
sg858
g265
sg484
g290
sg1588
g347
sg115
g1356
sg29
g391
sVcom.android.launcher
p1635
g467
sg1437
g491
sVcom.sina.weibo
p1636
g525
sg593
g545
sg147
g623
sVcom.changba
p1637
g649
sg669
g816
sg49
g671
sg15
g204
sVcom.android.gallery3d
p1638
g710
sg252
g743
sg59
g773
sVair.fyzb3
p1639
g656
sg63
g821
sg1482
g852
sg1421
g860
sg480
g1118
sg1479
g953
sVcn.com.fetion
p1640
g973
sVcom.kugou.android
p1641
g994
sVcom.xtuone.android.syllabus
p1642
g1025
sVcom.docin.zlibrary.ui.android
p1643
g592
sg356
g1152
sg199
g1170
sVcom.android.settings
p1644
g1187
sg101
g1248
sVcom.tiexue.ms
p1645
g1296
sVcom.baidu.tieba
p1646
g1344
ssg73
(dp1647
g946
g1042
sVcom.youdao.dict
p1648
g233
sVcom.changba
p1649
g634
sVcom.tencent.mm
p1650
g927
sVcom.android.mms
p1651
g1224
sVcom.baidu.netdisk
p1652
g306
sg806
g753
sVcom.UCMobile
p1653
g327
sVcom.android.launcher
p1654
g429
sg1231
g580
sVcom.tencent.mobileqq
p1655
g1096
ssg75
(dp1656
Vcom.android.browser
p1657
g162
sVcom.sina.weibo
p1658
g527
sVcom.tencent.mm
p1659
g929
sVcom.android.mms
p1660
g1251
sVcom.tiexue.ms
p1661
g1297
sg1302
g1162
sg109
g1323
sVcom.qihoo360.mobilesafe
p1662
g775
sVcom.android.launcher
p1663
g455
sVcom.android.settings
p1664
g1183
sVcom.tencent.mobileqq
p1665
g1120
ssg77
(dp1666
Vcom.jiongji.andriod.card
p1667
g1062
sVcom.changba
p1668
g625
sVcom.tencent.mobileqq
p1669
g1122
sg995
g1250
sg997
g1299
sVcom.UCMobile
p1670
g349
sVcom.android.launcher
p1671
g456
sVcom.tencent.mm
p1672
g931
ssg79
(dp1673
g1548
g350
sVcom.tencent.mobileqq
p1674
g1124
sg1549
g457
sg340
g663
ssg81
(dp1675
Vcom.jiongji.andriod.card
p1676
g1064
sVcom.youdao.dict
p1677
g261
sVcom.tencent.mm
p1678
g933
sg51
g682
sg826
g1253
sg680
g776
sVcom.tiexue.ms
p1679
g1300
sVcom.android.launcher
p1680
g458
sg1026
g1126
ssg83
(dp1681
Vcom.youdao.dict
p1682
g225
sVcom.mobilecaltronics.calculator
p1683
g175
sVcom.android.gallery3d
p1684
g704
sVcom.android.notepad
p1685
g947
sVcom.changba
p1686
g629
sVcom.codoon.gps
p1687
g1160
sVcom.tencent.mm
p1688
g889
sVcom.sina.weibo
p1689
g495
sVcom.moji.mjweather
p1690
g194
sVcom.kugou.android
p1691
g989
sVcom.android.mms
p1692
g1215
sVcom.tiexue.ms
p1693
g1264
sVinsigma.waybook
p1694
g1142
sVcom.UCMobile
p1695
g352
sg554
g747
sVcom.android.launcher
p1696
g459
sVcom.android.phone
p1697
g855
sVcom.iBookStar.activity
p1698
g479
sVcom.tencent.mobileqq
p1699
g1087
sVcn.wps.moffice_eng
p1700
g601
sVcom.mediatek.FMRadio
p1701
g832
ssg85
(dp1702
Vcom.android.mms
p1703
g1254
sVcom.android.notepad
p1704
g960
sVcom.android.launcher
p1705
g460
ssg87
(dp1706
g745
g160
sVcom.jiongji.andriod.card
p1707
g1066
sg861
g697
sVcom.youdao.dict
p1708
g259
sg422
g308
sg23
g355
sg27
g380
sg427
g409
sg811
g454
sVcom.iBookStar.activity
p1709
g481
sg35
g529
sVcom.android.contacts
p1710
g561
sg1100
g575
sg43
g609
sg45
g636
sVair.fyzb3
p1711
g667
sg49
g672
sg15
g218
sg55
g730
sg1192
g779
sVcom.huawei.hidisk
p1712
g818
sg1683
g187
sg1482
g834
sVcom.android.phone
p1713
g884
sg71
g925
sg752
g964
sVcn.com.fetion
p1714
g984
sg1494
g992
sVcom.android.mediacenter
p1715
g1351
sg81
g1027
sg1643
g596
sg91
g1154
sg541
g1185
sVcom.android.mms
p1716
g1257
sg103
g1301
sg105
g1311
sg297
g1338
ssg89
(dp1717
Vcom.android.launcher
p1718
g461
ssg91
(dp1719
g1141
g1068
sVcom.moji.mjweather
p1720
g196
sg1716
g1255
sVcom.UCMobile
p1721
g357
sVcom.android.launcher
p1722
g462
sg1256
g1128
sVcom.android.contacts
p1723
g540
ssg93
(dp1724
Vcom.sina.weibo
p1725
g528
sg894
g282
sVcom.android.launcher
p1726
g463
ssg95
(dp1727
Vcom.jiongji.andriod.card
p1728
g1069
sg1157
g1204
sg1161
g979
sg976
g1303
sVcom.UCMobile
p1729
g322
sVcom.android.launcher
p1730
g464
ssg97
(dp1731
g224
g1070
sg1682
g263
sVcom.tencent.mm
p1732
g936
sVcom.moji.mjweather
p1733
g200
sVcom.qihoo360.mobilesafe
p1734
g781
sVcom.android.launcher
p1735
g465
sVcom.tencent.mobileqq
p1736
g1129
ssg99
(dp1737
g311
g172
sVcom.jiongji.andriod.card
p1738
g1072
sg748
g271
sg132
g304
sVcom.UCMobile
p1739
g359
sVcom.taobao.taobao
p1740
g407
sg1513
g475
sVcom.sina.weibo
p1741
g536
sg1710
g542
sg39
g566
sg47
g654
sg439
g676
sVcom.qihoo360.mobilesafe
p1742
g783
sg1174
g814
sVcom.mediatek.FMRadio
p1743
g850
sVcom.tencent.mm
p1744
g938
sg161
g971
sVcom.xtuone.android.syllabus
p1745
g1023
sg41
g582
sVinsigma.waybook
p1746
g1144
sg95
g1158
sg560
g1130
sVcom.tiexue.ms
p1747
g1305
ssg101
(dp1748
Vcom.android.browser
p1749
g168
sVcom.jiongji.andriod.card
p1750
g1074
sVcom.android.launcher
p1751
g468
sg956
g292
sVcom.UCMobile
p1752
g361
sVcom.taobao.taobao
p1753
g395
sg1685
g955
sg1698
g483
sVcom.sina.weibo
p1754
g531
sVcom.android.contacts
p1755
g547
sVcom.youdao.dict
p1756
g267
sVcom.docin.zlibrary.ui.android
p1757
g584
sVcn.wps.moffice_eng
p1758
g613
sg283
g640
sVair.fyzb3
p1759
g658
sVcom.android.gallery3d
p1760
g712
sVcom.qihoo360.mobilesafe
p1761
g785
sVcom.huawei.hidisk
p1762
g796
sg65
g827
sVcom.android.phone
p1763
g864
sVcom.tencent.mobileqq
p1764
g1131
sVcom.kugou.android
p1765
g996
sg75
g975
sg85
g1082
sVinsigma.waybook
p1766
g1146
sVcom.tencent.mm
p1767
g940
sVcom.tiexue.ms
p1768
g1307
sVcom.android.settings
p1769
g1189
ssg103
(dp1770
g1327
g170
sVcom.jiongji.andriod.card
p1771
g1076
sg442
g692
sVcom.youdao.dict
p1772
g269
sVcom.baidu.netdisk
p1773
g294
sVcom.UCMobile
p1774
g363
sg25
g373
sg299
g403
sg1541
g469
sg1225
g533
sg506
g549
sg508
g617
sg45
g641
sg837
g208
sg1289
g787
sg921
g842
sg923
g868
sg635
g1133
sg526
g977
sVcom.kugou.android
p1775
g998
sVinsigma.waybook
p1776
g1148
sg1295
g942
sVcom.android.mms
p1777
g1259
sg1540
g1340
sVcom.android.settings
p1778
g1199
ssg105
(dp1779
g1395
g1077
sVcom.moji.mjweather
p1780
g198
sVcom.android.launcher
p1781
g470
ssg107
(dp1782
Vcom.UCMobile
p1783
g364
sVcom.android.launcher
p1784
g471
sVcom.huawei.hidisk
p1785
g799
ssg109
(dp1786
Vcn.com.fetion
p1787
g980
sVcom.android.launcher
p1788
g472
ssg111
(dp1789
g1330
g534
sVcom.moji.mjweather
p1790
g212
sg1332
g298
sVcom.tiexue.ms
p1791
g1308
sVcom.UCMobile
p1792
g366
sg515
g788
sg1341
g474
sVcom.tencent.mm
p1793
g944
sVcom.tencent.mobileqq
p1794
g1134
ssg113
(dp1795
Vcom.huawei.hidisk
p1796
g817
sg1350
g1136
ssg115
(dp1797
Vcom.tencent.mobileqq
p1798
g1138
sVcom.youdao.dict
p1799
g232
sVcom.android.launcher
p1800
g476
sssb.