ccopy_reg
_reconstructor
p1
(cnetworkx.classes.digraph
DiGraph
p2
c__builtin__
object
p3
NtRp4
(dp5
S'node'
p6
(dp7
Vcom.android.browser
p8
(dp9
S'weight'
p10
F6.5008516115611142e-06
ssVcom.autonavi.minimap
p11
(dp12
g10
F0.00068258941921391699
ssVim.yixin
p13
(dp14
g10
F2.4146020271512712e-05
ssVcom.android.thememanager
p15
(dp16
g10
F1.5787782485219848e-05
ssVcom.huawei.android.totemweather
p17
(dp18
g10
F0.00027210707459820094
ssVcom.android.deskclock
p19
(dp20
g10
F0.01161052097824815
ssVcom.UCMobile
p21
(dp22
g10
F0.018336116316951808
ssVcom.android.launcher
p23
(dp24
g10
F0.73730801592151429
ssVcom.sina.weibo
p25
(dp26
g10
F0.0027498602316903516
ssVcom.android.contacts
p27
(dp28
g10
F0.0053845625205473343
ssVcom.eg.android.AlipayGphone
p29
(dp30
g10
F0.00027303576768556679
ssVcom.dangdang.buy2
p31
(dp32
g10
F0.00062965391323406225
ssVcn.wps.moffice_eng
p33
(dp34
g10
F0.00023403065801620013
ssVcom.estrongs.android.pop
p35
(dp36
g10
F0.0054607153537113359
ssVcom.android.packageinstaller
p37
(dp38
g10
F2.0431247922049218e-05
ssVcom.android.gallery3d
p39
(dp40
g10
F0.0006890902708254781
ssVcom.jingdong.app.mall
p41
(dp42
g10
F0.00043277097871249708
ssVcom.tencent.game.SSGame
p43
(dp44
g10
F0.00011422924974600244
ssVcom.android.video
p45
(dp46
g10
F9.8441467260782585e-05
ssVcom.android.phone
p47
(dp48
g10
F0.00017459430042478423
ssVcom.vmall.client
p49
(dp50
g10
F6.6865902290342896e-05
ssVcom.doupo.zhangyue.zy
p51
(dp52
g10
F0.00026560622298663983
ssVcom.tencent.mm
p53
(dp54
g10
F0.0089043093216639949
ssVcom.ylmf.androidclient
p55
(dp56
g10
F0.00027953661929712794
ssVcom.huawei.KoBackup
p57
(dp58
g10
F4.6434654368293673e-06
ssVcom.mxtech.videoplayer.ad
p59
(dp60
g10
F0.0027702914796124008
ssVcom.chaozh.iReaderFree15
p61
(dp62
g10
F0.14020293801345118
ssVcom.android.email
p63
(dp64
g10
F1.2073010135756356e-05
ssVcom.dining
p65
(dp66
g10
F3.5290337319903193e-05
ssVcom.tencent.mobileqq
p67
(dp68
g10
F0.048962556952103581
ssVcom.MobileTicket
p69
(dp70
g10
F0.0001439474285417104
ssVcom.huawei.gamebox
p71
(dp72
g10
F0.00048013432616815662
ssVcom.cyou.cx.mtlbb.huawei
p73
(dp74
g10
F0.00023867412345302948
ssVcom.android.calendar
p75
(dp76
g10
F2.6003406446244457e-05
ssVcom.android.settings
p77
(dp78
g10
F0.00028603747090868905
ssVcom.tencent.pao
p79
(dp80
g10
F0.0046964009428092221
ssVnet.csdn.csdnplus
p81
(dp82
g10
F5.5721585241952408e-06
ssVcom.huawei.hwid
p83
(dp84
g10
F2.0431247922049218e-05
ssVcom.huawei.appmarket
p85
(dp86
g10
F0.0052703332708013322
ssVcom.android.camera
p87
(dp88
g10
F2.7860792620976206e-05
ssVcc.thedream.qinsmoon.HUAWEI
p89
(dp90
g10
F0.00012630225988175878
ssVcom.sohu.sohuvideo
p91
(dp92
g10
F0.0026569909229537639
sssS'node_dict_factory'
p93
c__builtin__
dict
p94
sS'edge_attr_dict_factory'
p95
g94
sS'succ'
p96
(dp97
g8
(dp98
sg11
(dp99
Vcom.tencent.mobileqq
p100
(dp101
g10
F2.2999999999999998
ssVcom.android.gallery3d
p102
(dp103
g10
I1
ssVcom.android.contacts
p104
(dp105
g10
F0.90000000000000002
ssVcom.android.launcher
p106
(dp107
g10
F4.5999999999999996
sssg13
(dp108
Vcom.estrongs.android.pop
p109
(dp110
g10
F0.90000000000000002
ssVcom.android.launcher
p111
(dp112
g10
I1
sssg15
(dp113
sg17
(dp114
Vcom.android.settings
p115
(dp116
g10
F0.90000000000000002
ssVcom.android.launcher
p117
(dp118
g10
F3.1000000000000001
sssg19
(dp119
Vcom.android.launcher
p120
(dp121
g10
F23.999999999999993
ssVcom.estrongs.android.pop
p122
(dp123
g10
F1.3
ssVcom.tencent.mobileqq
p124
(dp125
g10
F2.7000000000000002
ssVcom.chaozh.iReaderFree15
p126
(dp127
g10
F5.1000000000000005
ssg87
(dp128
g10
F0.90000000000000002
ssVcom.tencent.mm
p129
(dp130
g10
F0.40000000000000002
sssg21
(dp131
Vcom.android.contacts
p132
(dp133
g10
F2.2000000000000002
ssg71
(dp134
g10
F0.69999999999999996
ssg75
(dp135
g10
F0.90000000000000002
ssVcom.tencent.mobileqq
p136
(dp137
g10
F6.6000000000000005
ssVcom.tencent.mm
p138
(dp139
g10
F3
ssg39
(dp140
g10
F0.90000000000000002
ssVcom.estrongs.android.pop
p141
(dp142
g10
F2.7999999999999998
ssg83
(dp143
g10
F0.40000000000000002
ssg45
(dp144
g10
F0.90000000000000002
ssVcom.chaozh.iReaderFree15
p145
(dp146
g10
F1.1000000000000001
ssVcom.android.launcher
p147
(dp148
g10
F36.799999999999997
ssg85
(dp149
g10
F0.90000000000000002
ssg25
(dp150
g10
F1.3
ssVcom.ylmf.androidclient
p151
(dp152
g10
F0.90000000000000002
ssg65
(dp153
g10
F0.90000000000000002
sssg23
(dp154
g8
(dp155
g10
F1.3
ssVcom.autonavi.minimap
p156
(dp157
g10
F3.7000000000000002
ssg13
(dp158
g10
I1
ssg15
(dp159
g10
I1
ssg17
(dp160
g10
F3.2999999999999998
ssg19
(dp161
g10
F14.800000000000001
ssg21
(dp162
g10
F46.800000000000004
ssg25
(dp163
g10
F63.700000000000031
ssg27
(dp164
g10
F89.300000000000054
ssg29
(dp165
g10
F6.1000000000000005
ssg31
(dp166
g10
I1
ssg33
(dp167
g10
F0.90000000000000002
ssg35
(dp168
g10
F63.100000000000037
ssVcom.android.packageinstaller
p169
(dp170
g10
F0.69999999999999996
ssg39
(dp171
g10
F1.3
ssg41
(dp172
g10
F6.5000000000000009
ssg43
(dp173
g10
F2.1000000000000001
ssg45
(dp174
g10
F3.3999999999999999
ssg47
(dp175
g10
F2.1000000000000001
ssg49
(dp176
g10
F1.8999999999999999
ssg51
(dp177
g10
F2.3999999999999999
ssg53
(dp178
g10
F169.99999999999991
ssg151
(dp179
g10
F1.7
ssg59
(dp180
g10
F10.700000000000003
ssg61
(dp181
g10
F113.40000000000016
ssg63
(dp182
g10
I2
ssg65
(dp183
g10
F1.7
ssg67
(dp184
g10
F332.29999999999939
ssg57
(dp185
g10
I1
ssg71
(dp186
g10
F4.4000000000000004
ssg75
(dp187
g10
F3.3999999999999999
ssg77
(dp188
g10
F22.699999999999996
ssg79
(dp189
g10
F12.899999999999999
ssg81
(dp190
g10
I1
ssg83
(dp191
g10
F7.700000000000002
ssg85
(dp192
g10
F18.699999999999996
ssg87
(dp193
g10
F4.4000000000000004
ssg91
(dp194
g10
I2
sssg25
(dp195
Vcom.android.launcher
p196
(dp197
g10
F41.700000000000003
ssVcom.estrongs.android.pop
p198
(dp199
g10
F0.90000000000000002
ssVcom.android.settings
p200
(dp201
g10
F0.40000000000000002
ssVcom.tencent.mm
p202
(dp203
g10
F6.4000000000000012
ssVcom.UCMobile
p204
(dp205
g10
F0.90000000000000002
ssVcom.chaozh.iReaderFree15
p206
(dp207
g10
F0.90000000000000002
ssVcom.huawei.android.totemweather
p208
(dp209
g10
F0.69999999999999996
ssVcom.tencent.mobileqq
p210
(dp211
g10
F13.000000000000004
sssg27
(dp212
g8
(dp213
g10
F0.69999999999999996
ssVcom.chaozh.iReaderFree15
p214
(dp215
g10
F2.7999999999999998
ssVcom.UCMobile
p216
(dp217
g10
F3
ssg198
(dp218
g10
F0.40000000000000002
ssVcom.tencent.mm
p219
(dp220
g10
F2.6000000000000001
ssVcom.sina.weibo
p221
(dp222
g10
F1.8
ssVcom.huawei.hwid
p223
(dp224
g10
F0.69999999999999996
ssVcom.android.launcher
p225
(dp226
g10
F51.800000000000004
ssVcom.huawei.appmarket
p227
(dp228
g10
F0.90000000000000002
ssVcom.tencent.mobileqq
p229
(dp230
g10
F8.9000000000000021
ssVcom.eg.android.AlipayGphone
p231
(dp232
g10
I1
ssVcom.android.settings
p233
(dp234
g10
F0.90000000000000002
sssg29
(dp235
Vcom.tencent.mobileqq
p236
(dp237
g10
F2.2999999999999998
ssVcom.android.contacts
p238
(dp239
g10
I1
ssVcom.android.launcher
p240
(dp241
g10
F3.5999999999999996
sssg31
(dp242
Vcom.tencent.mobileqq
p243
(dp244
g10
F1.7
ssVcom.chaozh.iReaderFree15
p245
(dp246
g10
F0.90000000000000002
ssVcom.android.launcher
p247
(dp248
g10
F2.2999999999999998
sssg33
(dp249
Vcom.estrongs.android.pop
p250
(dp251
g10
I1
ssVcom.android.contacts
p252
(dp253
g10
F0.90000000000000002
ssVcom.android.launcher
p254
(dp255
g10
I1
sssg35
(dp256
g39
(dp257
g10
F1.7
ssg33
(dp258
g10
I1
ssVcom.android.launcher
p259
(dp260
g10
F46.999999999999986
ssVcom.tencent.mm
p261
(dp262
g10
F1.3
ssg59
(dp263
g10
F38.299999999999997
ssVcom.android.deskclock
p264
(dp265
g10
I3
ssVcom.UCMobile
p266
(dp267
g10
F3.7000000000000002
ssVcom.chaozh.iReaderFree15
p268
(dp269
g10
F6.3000000000000007
ssVcom.android.settings
p270
(dp271
g10
F1.8
ssVcom.tencent.mobileqq
p272
(dp273
g10
F5.0999999999999996
ssVcom.sohu.sohuvideo
p274
(dp275
g10
F1.3
sssg37
(dp276
Vcom.huawei.gamebox
p277
(dp278
g10
F0.40000000000000002
ssVcom.chaozh.iReaderFree15
p279
(dp280
g10
F0.90000000000000002
ssVcom.doupo.zhangyue.zy
p281
(dp282
g10
F1.7
sssg39
(dp283
Vcom.android.camera
p284
(dp285
g10
F0.90000000000000002
ssVcom.tencent.mobileqq
p286
(dp287
g10
F0.40000000000000002
ssVcom.android.launcher
p288
(dp289
g10
F2.7000000000000002
sssg41
(dp290
Vcom.android.contacts
p291
(dp292
g10
F0.90000000000000002
ssVcom.android.launcher
p293
(dp294
g10
F5.5999999999999996
sssg43
(dp295
g79
(dp296
g10
F0.40000000000000002
ssVcom.android.launcher
p297
(dp298
g10
F2.5999999999999996
sssg45
(dp299
Vcom.tencent.mm
p300
(dp301
g10
F0.40000000000000002
ssg136
(dp302
g10
F0.90000000000000002
ssg41
(dp303
g10
F0.90000000000000002
ssVcom.android.launcher
p304
(dp305
g10
F3.8000000000000003
sssg47
(dp306
g21
(dp307
g10
F0.90000000000000002
ssVcom.android.contacts
p308
(dp309
g10
F5.7000000000000002
ssVcom.android.launcher
p310
(dp311
g10
F2.2999999999999998
sssg49
(dp312
g21
(dp313
g10
F0.40000000000000002
ssVcom.android.launcher
p314
(dp315
g10
F1.7
ssg47
(dp316
g10
F0.90000000000000002
sssg51
(dp317
Vcom.huawei.gamebox
p318
(dp319
g10
F2.3999999999999999
ssVcom.android.launcher
p320
(dp321
g10
F3.6999999999999997
ssg169
(dp322
g10
F0.40000000000000002
ssVcom.huawei.hwid
p323
(dp324
g10
F0.69999999999999996
ssg279
(dp325
g10
I1
ssVcom.huawei.appmarket
p326
(dp327
g10
F2.9000000000000004
sssg53
(dp328
g8
(dp329
g10
I1
ssVcom.android.launcher
p330
(dp331
g10
F108.8000000000001
ssVcom.huawei.hwid
p332
(dp333
g10
F0.69999999999999996
ssVcom.estrongs.android.pop
p334
(dp335
g10
F0.80000000000000004
ssVcom.android.settings
p336
(dp337
g10
F0.69999999999999996
ssVcom.sina.weibo
p338
(dp339
g10
F10.300000000000002
ssg41
(dp340
g10
F0.40000000000000002
ssVcom.UCMobile
p341
(dp342
g10
F2.2000000000000002
ssg45
(dp343
g10
F1.3
ssVcom.chaozh.iReaderFree15
p344
(dp345
g10
F2.7999999999999998
ssVcom.huawei.appmarket
p346
(dp347
g10
F1.7000000000000002
ssVcom.tencent.mobileqq
p348
(dp349
g10
F28.399999999999981
ssVcom.android.contacts
p350
(dp351
g10
F10.200000000000003
sssg55
(dp352
Vcom.tencent.mobileqq
p353
(dp354
g10
F0.69999999999999996
ssVcom.android.launcher
p355
(dp356
g10
F0.90000000000000002
ssVcom.huawei.appmarket
p357
(dp358
g10
I1
sssg57
(dp359
Vcom.sina.weibo
p360
(dp361
g10
F0.90000000000000002
ssVcom.android.launcher
p362
(dp363
g10
I1
sssg59
(dp364
Vcom.estrongs.android.pop
p365
(dp366
g10
F32.499999999999993
ssg274
(dp367
g10
F0.69999999999999996
ssVcom.android.launcher
p368
(dp369
g10
F4.9000000000000004
sssg61
(dp370
g277
(dp371
g10
F0.90000000000000002
ssVcom.estrongs.android.pop
p372
(dp373
g10
F6.2000000000000011
ssg77
(dp374
g10
F4.5
ssVcom.sina.weibo
p375
(dp376
g10
F1.1000000000000001
ssVcom.tencent.mm
p377
(dp378
g10
F0.80000000000000004
ssVcom.jingdong.app.mall
p379
(dp380
g10
F0.90000000000000002
ssg19
(dp381
g10
F15.200000000000001
ssVcom.UCMobile
p382
(dp383
g10
F1.8
ssVcom.android.launcher
p384
(dp385
g10
F71.000000000000028
ssVcom.huawei.appmarket
p386
(dp387
g10
F0.40000000000000002
ssg124
(dp388
g10
F10.600000000000001
ssVcom.android.contacts
p389
(dp390
g10
F3.5
ssVcom.doupo.zhangyue.zy
p391
(dp392
g10
I1
sssg63
(dp393
g35
(dp394
g10
F2.2000000000000002
ssVcom.mxtech.videoplayer.ad
p395
(dp396
g10
F0.69999999999999996
ssVcom.android.launcher
p397
(dp398
g10
I2
sssg65
(dp399
Vcom.android.launcher
p400
(dp401
g10
I1
sssg67
(dp402
g17
(dp403
g10
F0.90000000000000002
ssVcom.android.gallery3d
p404
(dp405
g10
I1
ssVcom.android.launcher
p406
(dp407
g10
F277.39999999999947
ssVcom.huawei.hwid
p408
(dp409
g10
F1.3999999999999999
ssg75
(dp410
g10
F1.7000000000000002
ssg91
(dp411
g10
F0.90000000000000002
ssVcom.sina.weibo
p412
(dp413
g10
F16.100000000000005
ssVcom.tencent.pao
p414
(dp415
g10
F2.7000000000000002
ssVcom.mxtech.videoplayer.ad
p416
(dp417
g10
F0.69999999999999996
ssg379
(dp418
g10
F1.3
ssVcom.estrongs.android.pop
p419
(dp420
g10
F7.8000000000000016
ssVcom.android.deskclock
p421
(dp422
g10
F0.69999999999999996
ssVcom.UCMobile
p423
(dp424
g10
F14.000000000000004
ssVcom.android.video
p425
(dp426
g10
F0.40000000000000002
ssg126
(dp427
g10
F6.9000000000000012
ssg227
(dp428
g10
F4.2999999999999998
ssg284
(dp429
g10
F0.69999999999999996
ssVcom.tencent.mm
p430
(dp431
g10
F73.899999999999991
ssVcom.android.contacts
p432
(dp433
g10
F14.800000000000004
ssVcom.eg.android.AlipayGphone
p434
(dp435
g10
F2.2999999999999998
ssVcom.android.settings
p436
(dp437
g10
F1.3
sssg69
(dp438
sg71
(dp439
g279
(dp440
g10
F0.69999999999999996
ssg73
(dp441
g10
F2.3999999999999999
ssg169
(dp442
g10
I1
ssg83
(dp443
g10
F3.2999999999999998
ssVcom.android.launcher
p444
(dp445
g10
F7.2000000000000002
ssVcom.huawei.appmarket
p446
(dp447
g10
F1.3
ssVcom.doupo.zhangyue.zy
p448
(dp449
g10
F2.6000000000000001
sssg73
(dp450
Vcom.huawei.hwid
p451
(dp452
g10
I1
ssg444
(dp453
g10
F1.7
sssg75
(dp454
Vcom.tencent.mobileqq
p455
(dp456
g10
F0.90000000000000002
ssg25
(dp457
g10
F1.3
ssVcom.android.launcher
p458
(dp459
g10
F2.7000000000000002
sssg77
(dp460
Vcom.chaozh.iReaderFree15
p461
(dp462
g10
F3.7999999999999998
ssVcom.estrongs.android.pop
p463
(dp464
g10
F2.2000000000000002
ssVcom.tencent.mobileqq
p465
(dp466
g10
F0.40000000000000002
ssVcom.mxtech.videoplayer.ad
p467
(dp468
g10
F0.69999999999999996
ssg43
(dp469
g10
F0.90000000000000002
ssg19
(dp470
g10
F0.69999999999999996
ssg384
(dp471
g10
F21.199999999999999
ssVcom.tencent.mm
p472
(dp473
g10
F0.90000000000000002
sssg79
(dp474
Vcom.tencent.mobileqq
p475
(dp476
g10
F1.8999999999999999
ssVcom.android.launcher
p477
(dp478
g10
F3.8999999999999999
sssg81
(dp479
sg83
(dp480
Vcom.huawei.gamebox
p481
(dp482
g10
F3.2999999999999998
ssg73
(dp483
g10
F2.2999999999999998
ssVcom.android.settings
p484
(dp485
g10
F0.40000000000000002
ssg37
(dp486
g10
F0.90000000000000002
ssVcom.tencent.mm
p487
(dp488
g10
F0.40000000000000002
ssVcom.sina.weibo
p489
(dp490
g10
F0.69999999999999996
ssg444
(dp491
g10
F9.8000000000000025
ssVcom.huawei.appmarket
p492
(dp493
g10
F6.6000000000000005
ssVcc.thedream.qinsmoon.HUAWEI
p494
(dp495
g10
I1
ssVcom.tencent.mobileqq
p496
(dp497
g10
F1.3
ssg448
(dp498
g10
F0.69999999999999996
sssg85
(dp499
g69
(dp500
g10
I1
ssg71
(dp501
g10
F5.0999999999999996
ssg73
(dp502
g10
F0.40000000000000002
ssg489
(dp503
g10
F2.2000000000000002
ssg37
(dp504
g10
F2.6000000000000001
ssg83
(dp505
g10
F12.100000000000001
ssg279
(dp506
g10
F0.80000000000000004
ssVcom.android.launcher
p507
(dp508
g10
F15.299999999999999
ssg89
(dp509
g10
F1.7
ssg496
(dp510
g10
F4.2000000000000002
ssg281
(dp511
g10
F0.69999999999999996
sssg87
(dp512
g286
(dp513
g10
F0.90000000000000002
ssVcom.chaozh.iReaderFree15
p514
(dp515
g10
F0.69999999999999996
ssVcom.android.launcher
p516
(dp517
g10
F3.2999999999999998
sssg89
(dp518
Vcom.huawei.hwid
p519
(dp520
g10
I1
ssVcom.tencent.mobileqq
p521
(dp522
g10
F0.69999999999999996
ssVcom.android.launcher
p523
(dp524
g10
F1.7000000000000002
ssVcom.huawei.appmarket
p525
(dp526
g10
F1.7
sssg91
(dp527
Vcom.estrongs.android.pop
p528
(dp529
g10
F1.3
ssVcom.mxtech.videoplayer.ad
p530
(dp531
g10
F0.69999999999999996
ssVcom.android.launcher
p532
(dp533
g10
I1
ssssS'edge'
p534
g97
sS'graph'
p535
(dp536
sS'adjlist_dict_factory'
p537
g94
sS'adj'
p538
g97
sS'pred'
p539
(dp540
g8
(dp541
g219
g329
sVcom.android.contacts
p542
g213
sVcom.android.launcher
p543
g155
ssg11
(dp544
Vcom.android.launcher
p545
g157
ssg13
(dp546
Vcom.android.launcher
p547
g158
ssg15
(dp548
Vcom.android.launcher
p549
g159
ssg17
(dp550
Vcom.sina.weibo
p551
g209
sVcom.tencent.mobileqq
p552
g403
sVcom.android.launcher
p553
g160
ssg19
(dp554
Vcom.estrongs.android.pop
p555
g265
sg77
g470
sVcom.tencent.mobileqq
p556
g422
sg384
g161
sVcom.chaozh.iReaderFree15
p557
g381
ssg21
(dp558
g314
g162
sVcom.estrongs.android.pop
p559
g267
sVcom.tencent.mobileqq
p560
g424
sVcom.sina.weibo
p561
g205
sVcom.chaozh.iReaderFree15
p562
g383
sg47
g307
sg49
g313
sVcom.tencent.mm
p563
g342
sVcom.android.contacts
p564
g217
ssg23
(dp565
g156
g107
sg13
g112
sg17
g118
sg19
g121
sVcom.UCMobile
p566
g148
sg25
g197
sg350
g226
sg29
g241
sg31
g248
sVcn.wps.moffice_eng
p567
g255
sVcom.estrongs.android.pop
p568
g260
sVcom.android.gallery3d
p569
g289
sg41
g294
sg43
g298
sg45
g305
sg47
g311
sg49
g315
sg51
g321
sg53
g331
sg55
g356
sVcom.mxtech.videoplayer.ad
p570
g369
sg557
g385
sg63
g398
sg65
g401
sg124
g407
sg57
g363
sg481
g445
sg73
g453
sg75
g459
sg77
g471
sg414
g478
sg451
g491
sVcom.huawei.appmarket
p571
g508
sg87
g517
sg89
g524
sg91
g533
ssg25
(dp572
g57
g361
sVcom.chaozh.iReaderFree15
p573
g376
sg332
g490
sg75
g457
sVcom.tencent.mm
p574
g339
sg423
g150
sVcom.android.launcher
p575
g163
sg346
g503
sVcom.tencent.mobileqq
p576
g413
sVcom.android.contacts
p577
g222
ssg27
(dp578
Vcom.android.launcher
p579
g164
sVcom.tencent.mm
p580
g351
sVcom.jingdong.app.mall
p581
g292
sVcom.UCMobile
p582
g133
sVcom.chaozh.iReaderFree15
p583
g390
sVcom.android.phone
p584
g309
sVcom.autonavi.minimap
p585
g105
sVcom.tencent.mobileqq
p586
g433
sVcom.eg.android.AlipayGphone
p587
g239
sg567
g253
ssg29
(dp588
Vcom.tencent.mobileqq
p589
g435
sg238
g232
sVcom.android.launcher
p590
g165
ssg31
(dp591
Vcom.android.launcher
p592
g166
ssg33
(dp593
Vcom.estrongs.android.pop
p594
g258
sVcom.android.launcher
p595
g167
ssg35
(dp596
g33
g251
sVcom.tencent.mm
p597
g335
sVcom.sina.weibo
p598
g199
sg13
g110
sg59
g366
sVcom.android.deskclock
p599
g123
sg266
g142
sVcom.chaozh.iReaderFree15
p600
g373
sg23
g168
sg270
g464
sg63
g394
sVcom.tencent.mobileqq
p601
g420
sVcom.android.contacts
p602
g218
sg91
g529
ssg37
(dp603
Vcom.huawei.hwid
p604
g486
sg448
g322
sg318
g442
sVcom.android.launcher
p605
g170
sVcom.huawei.appmarket
p606
g504
ssg39
(dp607
Vcom.estrongs.android.pop
p608
g257
sg266
g140
sVcom.tencent.mobileqq
p609
g405
sVcom.android.launcher
p610
g171
sg11
g103
ssg41
(dp611
g521
g418
sg425
g303
sg300
g340
sVcom.chaozh.iReaderFree15
p612
g380
sVcom.android.launcher
p613
g172
ssg43
(dp614
g484
g469
sVcom.android.launcher
p615
g173
ssg45
(dp616
g341
g144
sg563
g343
sVcom.android.launcher
p617
g174
sg136
g426
ssg47
(dp618
g49
g316
sVcom.android.launcher
p619
g175
ssg49
(dp620
g619
g176
ssg51
(dp621
Vcom.huawei.gamebox
p622
g449
sVcom.android.launcher
p623
g177
sg169
g282
sVcom.huawei.hwid
p624
g498
sg279
g392
sg446
g511
ssg53
(dp625
Vcom.chaozh.iReaderFree15
p626
g378
sVcom.UCMobile
p627
g139
sVcom.estrongs.android.pop
p628
g262
sg489
g203
sVcom.android.deskclock
p629
g130
sVcom.huawei.hwid
p630
g488
sg45
g301
sVcom.android.launcher
p631
g178
sg436
g473
sVcom.tencent.mobileqq
p632
g431
sg542
g220
ssg55
(dp633
Vcom.UCMobile
p634
g152
sVcom.android.launcher
p635
g179
ssg57
(dp636
Vcom.android.launcher
p637
g185
ssg59
(dp638
g568
g263
sVcom.tencent.mobileqq
p639
g417
sVcom.android.launcher
p640
g180
sVcom.android.settings
p641
g468
sVcom.android.email
p642
g396
sg91
g531
ssg61
(dp643
Vcom.sina.weibo
p644
g207
sg318
g440
sVcom.UCMobile
p645
g146
sg31
g246
sg77
g462
sg169
g280
sg19
g127
sVcom.estrongs.android.pop
p646
g269
sVcom.android.launcher
p647
g181
sg446
g506
sg87
g515
sg281
g325
sg53
g345
sVcom.android.contacts
p648
g215
sg124
g427
ssg63
(dp649
g23
g182
ssg65
(dp650
Vcom.UCMobile
p651
g153
sVcom.android.launcher
p652
g183
ssg67
(dp653
Vcom.android.calendar
p654
g456
sVcom.dangdang.buy2
p655
g244
sVcom.android.launcher
p656
g184
sg630
g497
sg419
g273
sg375
g211
sVcom.tencent.pao
p657
g476
sg404
g287
sg55
g354
sg19
g125
sg341
g137
sg45
g302
sg461
g388
sVcom.huawei.appmarket
p658
g510
sg156
g101
sg284
g513
sg494
g522
sg430
g349
sVcom.android.contacts
p659
g230
sg434
g237
sg436
g466
ssg69
(dp660
Vcom.huawei.appmarket
p661
g500
ssg71
(dp662
g279
g371
sg566
g134
sg169
g278
sg83
g482
sVcom.android.launcher
p663
g186
sg85
g501
sg448
g319
ssg73
(dp664
g83
g483
sg71
g441
sg85
g502
ssg75
(dp665
g423
g135
sg560
g410
sVcom.android.launcher
p666
g187
ssg77
(dp667
Vcom.android.launcher
p668
g188
sVcom.estrongs.android.pop
p669
g271
sVcom.huawei.android.totemweather
p670
g116
sg644
g201
sVcom.huawei.hwid
p671
g485
sg557
g374
sVcom.tencent.mm
p672
g337
sVcom.android.contacts
p673
g234
sVcom.tencent.mobileqq
p674
g437
ssg79
(dp675
Vcom.tencent.mobileqq
p676
g415
sg297
g189
sg43
g296
ssg81
(dp677
Vcom.android.launcher
p678
g190
ssg83
(dp679
g71
g443
sg73
g452
sVcom.tencent.mobileqq
p680
g409
sg566
g143
sg147
g191
sg85
g505
sg89
g520
sVcom.tencent.mm
p681
g333
sVcom.android.contacts
p682
g224
sg51
g324
ssg85
(dp683
Vcom.huawei.gamebox
p684
g447
sg604
g493
sVcom.tencent.mobileqq
p685
g428
sg55
g358
sg566
g149
sg279
g387
sg663
g192
sg89
g526
sg681
g347
sg682
g228
sg51
g327
ssg87
(dp686
Vcom.android.deskclock
p687
g128
sg404
g285
sg609
g429
sVcom.android.launcher
p688
g193
ssg89
(dp689
g519
g495
sVcom.huawei.appmarket
p690
g509
ssg91
(dp691
Vcom.estrongs.android.pop
p692
g275
sVcom.mxtech.videoplayer.ad
p693
g367
sVcom.tencent.mobileqq
p694
g411
sVcom.android.launcher
p695
g194
sssb.