ccopy_reg
_reconstructor
p1
(cnetworkx.classes.digraph
DiGraph
p2
c__builtin__
object
p3
NtRp4
(dp5
S'node'
p6
(dp7
Vcom.android.browser
p8
(dp9
S'weight'
p10
F0.0010191752520268213
ssVcom.youku.phone
p11
(dp12
g10
F0.033356084153438909
ssVcom.ss.android.article.news
p13
(dp14
g10
F0.012373064258769058
ssVcom.wunding.kingline
p15
(dp16
g10
F0.14493502181311738
ssVcom.autonavi.minimap
p17
(dp18
g10
F0.00081626253216627773
ssVcom.alensw.PicFolder
p19
(dp20
g10
F0.00047961188330673945
ssVcom.android.deskclock
p21
(dp22
g10
F0.0001798544562400273
ssVcom.android.launcher
p23
(dp24
g10
F0.35622250302063252
ssVcom.eg.android.AlipayGphone
p25
(dp26
g10
F0.001291262762748914
ssVcom.pplive.androidphone
p27
(dp28
g10
F0.024225011759714445
ssVcom.android.dazhihui
p29
(dp30
g10
F0.030621374088045675
ssVcom.sankuai.meituan
p31
(dp32
g10
F0.00087160236485551697
ssVcom.jingdong.app.mall
p33
(dp34
g10
F0.027900498980824747
ssVcom.hexin.plat.android
p35
(dp36
g10
F0.032452200219514671
ssVme.ele
p37
(dp38
g10
F0.00053495171599597863
ssVcom.android.phone
p39
(dp40
g10
F0.065462410418645839
ssVcom.miui.gallery
p41
(dp42
g10
F0.0037077687901790244
ssVcom.tencent.mm
p43
(dp44
g10
F0.035122347146770462
ssVcom.sec.spen.flashannotate
p45
(dp46
g10
F0.00045655361968622313
ssVcom.android.calculator
p47
(dp48
g10
F5.0728179965135906e-05
ssVcom.achievo.vipshop
p49
(dp50
g10
F0.00026286420527388607
ssVcom.android.fileexplorer
p51
(dp52
g10
F0.00037815552337646768
ssVcom.android.email
p53
(dp54
g10
F0.0091679656155172883
ssVcn.wps.moffice_eng
p55
(dp56
g10
F0.00022597098348105994
ssVcom.miui.notes
p57
(dp58
g10
F8.7621401757962016e-05
ssVcom.miui.cloudservice
p59
(dp60
g10
F0.00052572841054777215
ssVcom.exam8.zhengquan
p61
(dp62
g10
F9.6844707206168541e-05
ssVcom.tuan800.tao800
p63
(dp64
g10
F7.378644358565222e-05
ssVcom.android.calendar
p65
(dp66
g10
F2.3058263620516321e-05
ssVcom.tencent.mobileqq
p67
(dp68
g10
F0.21101078204406895
ssVcom.android.mms
p69
(dp70
g10
F0.0029652927015983988
ssVcom.jm.android.jumei
p71
(dp72
g10
F0.0018031562151243762
ssVcom.android.settings
p73
(dp74
g10
F0.00049344684147904923
ssVcom.android.quicksearchbox
p75
(dp76
g10
F3.689322179282611e-05
ssVcom.android.camera
p77
(dp78
g10
F0.00071480617223600596
ssVcom.xiaomi.account
p79
(dp80
g10
F5.5339832689239168e-05
sssS'node_dict_factory'
p81
c__builtin__
dict
p82
sS'edge_attr_dict_factory'
p83
g82
sS'succ'
p84
(dp85
g8
(dp86
g65
(dp87
g10
F0.69999999999999996
ssVcom.ss.android.article.news
p88
(dp89
g10
F0.40000000000000002
ssg47
(dp90
g10
F0.69999999999999996
ssg69
(dp91
g10
I1
ssVcom.jingdong.app.mall
p92
(dp93
g10
F1.3
ssg35
(dp94
g10
F0.40000000000000002
ssVcom.android.launcher
p95
(dp96
g10
F9.0000000000000018
ssg75
(dp97
g10
F0.40000000000000002
ssVcom.android.email
p98
(dp99
g10
I1
ssVcom.tencent.mobileqq
p100
(dp101
g10
F7.5000000000000009
sssg11
(dp102
Vcom.tencent.mobileqq
p103
(dp104
g10
F0.90000000000000002
ssVcom.android.launcher
p105
(dp106
g10
F1.7
sssg13
(dp107
g43
(dp108
g10
F0.69999999999999996
ssVcom.android.email
p109
(dp110
g10
F0.90000000000000002
ssVcom.tencent.mobileqq
p111
(dp112
g10
F3.2999999999999998
ssg23
(dp113
g10
F3.5999999999999996
sssg15
(dp114
g53
(dp115
g10
F0.90000000000000002
ssVcom.android.launcher
p116
(dp117
g10
F2.7000000000000002
sssg17
(dp118
Vcom.android.launcher
p119
(dp120
g10
I1
sssg19
(dp121
Vcom.android.fileexplorer
p122
(dp123
g10
F0.40000000000000002
ssVcom.tencent.mobileqq
p124
(dp125
g10
F0.90000000000000002
ssVcom.android.launcher
p126
(dp127
g10
F1.7
sssg21
(dp128
sg23
(dp129
g8
(dp130
g10
F7.8000000000000007
ssg11
(dp131
g10
I2
ssg88
(dp132
g10
F4.4000000000000004
ssg15
(dp133
g10
I1
ssVcom.alensw.PicFolder
p134
(dp135
g10
F1.7
ssg21
(dp136
g10
I1
ssg25
(dp137
g10
I2
ssVcom.pplive.androidphone
p138
(dp139
g10
I1
ssVcom.android.dazhihui
p140
(dp141
g10
F4.4000000000000004
ssg31
(dp142
g10
I2
ssg33
(dp143
g10
F7.2000000000000002
ssg35
(dp144
g10
F15.799999999999999
ssVcom.android.phone
p145
(dp146
g10
I5
ssg41
(dp147
g10
F3.0999999999999996
ssVcom.tencent.mobileqq
p148
(dp149
g10
F72.100000000000009
ssg45
(dp150
g10
F1.3
ssg47
(dp151
g10
I2
ssg49
(dp152
g10
I1
ssg51
(dp153
g10
F3.3999999999999999
ssg53
(dp154
g10
F4.4000000000000004
ssg57
(dp155
g10
F2.7000000000000002
ssg59
(dp156
g10
F4.7000000000000002
ssg61
(dp157
g10
F1.7
ssg63
(dp158
g10
I1
ssg65
(dp159
g10
I1
ssg43
(dp160
g10
F10
ssg69
(dp161
g10
F5.2999999999999998
ssg75
(dp162
g10
F4.4000000000000004
ssVcom.android.camera
p163
(dp164
g10
F6.0000000000000009
ssg79
(dp165
g10
F3.3999999999999999
sssg25
(dp166
Vcom.tencent.mm
p167
(dp168
g10
F0.90000000000000002
ssVcom.sec.spen.flashannotate
p169
(dp170
g10
I1
sssg27
(dp171
Vcom.tencent.mobileqq
p172
(dp173
g10
I1
ssVcom.android.launcher
p174
(dp175
g10
F0.90000000000000002
sssg29
(dp176
Vcom.hexin.plat.android
p177
(dp178
g10
F3.5
ssVcom.tencent.mobileqq
p179
(dp180
g10
F6.1999999999999993
ssVcom.android.mms
p181
(dp182
g10
F0.90000000000000002
ssVcom.android.launcher
p183
(dp184
g10
F14.599999999999998
sssg31
(dp185
Vcom.android.launcher
p186
(dp187
g10
I1
sssg33
(dp188
Vcom.android.browser
p189
(dp190
g10
F2.6000000000000001
ssg31
(dp191
g10
F0.90000000000000002
ssg69
(dp192
g10
F0.69999999999999996
ssVcom.android.launcher
p193
(dp194
g10
F10.300000000000001
ssVcom.android.phone
p195
(dp196
g10
I2
ssVcom.tencent.mobileqq
p197
(dp198
g10
F8.9000000000000004
sssg35
(dp199
Vcom.android.browser
p200
(dp201
g10
F0.40000000000000002
ssVcom.android.calculator
p202
(dp203
g10
F0.90000000000000002
ssVcom.jingdong.app.mall
p204
(dp205
g10
F0.90000000000000002
ssVcom.android.dazhihui
p206
(dp207
g10
F0.90000000000000002
ssVcom.android.launcher
p208
(dp209
g10
F14.1
ssVcom.android.phone
p210
(dp211
g10
I3
ssVcom.android.quicksearchbox
p212
(dp213
g10
F0.90000000000000002
ssVcom.tencent.mobileqq
p214
(dp215
g10
F1.8
sssg37
(dp216
Vcom.tencent.mobileqq
p217
(dp218
g10
I1
ssVcom.android.launcher
p219
(dp220
g10
I1
sssg39
(dp221
g138
(dp222
g10
F0.69999999999999996
ssVcom.ss.android.article.news
p223
(dp224
g10
I2
ssVcom.tencent.mm
p225
(dp226
g10
I1
ssVcom.android.mms
p227
(dp228
g10
I1
ssVcom.android.deskclock
p229
(dp230
g10
I1
ssVcom.hexin.plat.android
p231
(dp232
g10
F0.90000000000000002
ssVme.ele
p233
(dp234
g10
F0.90000000000000002
ssVcom.android.launcher
p235
(dp236
g10
F11.5
ssVcom.android.camera
p237
(dp238
g10
F1.3999999999999999
ssg109
(dp239
g10
F0.69999999999999996
ssVcom.tencent.mobileqq
p240
(dp241
g10
F4.5
sssg41
(dp242
g45
(dp243
g10
F0.40000000000000002
ssVcom.tencent.mobileqq
p244
(dp245
g10
F2.9000000000000004
ssVcom.miui.cloudservice
p246
(dp247
g10
F2.7000000000000002
ssVcom.android.launcher
p248
(dp249
g10
F3
sssg43
(dp250
g57
(dp251
g10
F0.40000000000000002
ssg138
(dp252
g10
F0.90000000000000002
ssVcom.sec.spen.flashannotate
p253
(dp254
g10
I1
ssg73
(dp255
g10
F1.7
ssVcom.sankuai.meituan
p256
(dp257
g10
F0.90000000000000002
ssVcom.hexin.plat.android
p258
(dp259
g10
F0.40000000000000002
ssVcom.android.launcher
p260
(dp261
g10
F15.1
ssVcom.android.phone
p262
(dp263
g10
F2.8999999999999999
ssVcom.android.camera
p264
(dp265
g10
F0.90000000000000002
ssVcom.tencent.mobileqq
p266
(dp267
g10
F10.899999999999999
ssVcom.xiaomi.account
p268
(dp269
g10
F0.40000000000000002
ssg25
(dp270
g10
F0.69999999999999996
sssg45
(dp271
Vcom.tencent.mm
p272
(dp273
g10
F2.7000000000000002
ssVcom.tencent.mobileqq
p274
(dp275
g10
F3.1000000000000001
ssg73
(dp276
g10
F0.90000000000000002
sssg47
(dp277
Vcom.tencent.mobileqq
p278
(dp279
g10
F0.90000000000000002
ssVcom.android.launcher
p280
(dp281
g10
F1.7
sssg49
(dp282
Vcom.android.launcher
p283
(dp284
g10
I1
sssg51
(dp285
g197
(dp286
g10
F0.69999999999999996
ssg33
(dp287
g10
F0.90000000000000002
ssVcom.android.launcher
p288
(dp289
g10
F1.3999999999999999
sssg53
(dp290
g65
(dp291
g10
F0.90000000000000002
ssVcom.ss.android.article.news
p292
(dp293
g10
F0.90000000000000002
ssg55
(dp294
g10
I1
ssVcom.android.launcher
p295
(dp296
g10
F7.4000000000000004
ssg11
(dp297
g10
F0.90000000000000002
sssg55
(dp298
Vcom.android.email
p299
(dp300
g10
I1
ssVcom.android.launcher
p301
(dp302
g10
F0.90000000000000002
sssg57
(dp303
Vcom.android.email
p304
(dp305
g10
F0.90000000000000002
ssVcom.android.launcher
p306
(dp307
g10
I1
sssg59
(dp308
Vcom.tencent.mm
p309
(dp310
g10
F1.3
ssg41
(dp311
g10
I2
ssg244
(dp312
g10
F3.7999999999999998
ssg45
(dp313
g10
F0.69999999999999996
ssg248
(dp314
g10
F5.4000000000000004
sssg61
(dp315
sg63
(dp316
Vcom.android.launcher
p317
(dp318
g10
I1
sssg65
(dp319
Vcom.android.launcher
p320
(dp321
g10
I1
sssg67
(dp322
g8
(dp323
g10
F6.6000000000000014
ssg13
(dp324
g10
F3.2999999999999998
ssg19
(dp325
g10
I1
ssg23
(dp326
g10
F80.30000000000004
ssg25
(dp327
g10
F0.90000000000000002
ssVcom.android.dazhihui
p328
(dp329
g10
F4.2999999999999998
ssg33
(dp330
g10
F9.2000000000000011
ssg35
(dp331
g10
F4.5
ssg233
(dp332
g10
I1
ssVcom.android.phone
p333
(dp334
g10
F0.69999999999999996
ssg41
(dp335
g10
F2.1000000000000001
ssg43
(dp336
g10
F8.6000000000000014
ssg45
(dp337
g10
F5.4000000000000004
ssg47
(dp338
g10
F0.90000000000000002
ssg51
(dp339
g10
F2.2000000000000002
ssg57
(dp340
g10
F0.90000000000000002
ssg59
(dp341
g10
F3.0999999999999996
ssg61
(dp342
g10
F0.90000000000000002
ssg69
(dp343
g10
F1.8999999999999999
ssg75
(dp344
g10
F0.90000000000000002
ssg77
(dp345
g10
F12.800000000000001
ssg79
(dp346
g10
F2.2000000000000002
sssg69
(dp347
g47
(dp348
g10
F0.40000000000000002
ssVcom.android.browser
p349
(dp350
g10
I1
ssVcom.tencent.mobileqq
p351
(dp352
g10
F1.8
ssVcom.android.launcher
p353
(dp354
g10
F4.7000000000000002
sssg71
(dp355
g49
(dp356
g10
F0.90000000000000002
ssVcom.android.launcher
p357
(dp358
g10
F1.7
sssg73
(dp359
Vcom.tencent.mobileqq
p360
(dp361
g10
F0.90000000000000002
ssVcom.tencent.mm
p362
(dp363
g10
I1
ssg25
(dp364
g10
F0.40000000000000002
ssVcom.android.launcher
p365
(dp366
g10
F0.69999999999999996
sssg75
(dp367
Vcom.android.browser
p368
(dp369
g10
I1
ssVcom.tencent.mobileqq
p370
(dp371
g10
F0.69999999999999996
ssVcom.android.launcher
p372
(dp373
g10
F2.2999999999999998
ssg134
(dp374
g10
F0.90000000000000002
sssg77
(dp375
Vcom.miui.gallery
p376
(dp377
g10
I1
ssVcom.tencent.mobileqq
p378
(dp379
g10
I2
sssg79
(dp380
g41
(dp381
g10
F1.8
ssg244
(dp382
g10
F0.40000000000000002
ssg248
(dp383
g10
F1.1000000000000001
ssg59
(dp384
g10
F2.7000000000000002
ssssS'edge'
p385
g85
sS'graph'
p386
(dp387
sS'adjlist_dict_factory'
p388
g82
sS'adj'
p389
g85
sS'pred'
p390
(dp391
g8
(dp392
g69
g350
sVcom.jingdong.app.mall
p393
g190
sg35
g201
sVcom.android.launcher
p394
g130
sg75
g369
sVcom.tencent.mobileqq
p395
g323
ssg11
(dp396
Vcom.android.email
p397
g297
sVcom.android.launcher
p398
g131
ssg13
(dp399
g368
g89
sVcom.android.email
p400
g293
sg67
g324
sg372
g132
sVcom.android.phone
p401
g224
ssg15
(dp402
Vcom.android.launcher
p403
g133
ssg17
(dp404
sg19
(dp405
Vcom.android.quicksearchbox
p406
g374
sVcom.tencent.mobileqq
p407
g325
sVcom.android.launcher
p408
g135
ssg21
(dp409
Vcom.android.launcher
p410
g136
sVcom.android.phone
p411
g230
ssg23
(dp412
g8
g96
sVcom.youku.phone
p413
g106
sg13
g113
sg15
g117
sg19
g127
sg27
g175
sg29
g184
sg256
g187
sg33
g194
sg35
g209
sg233
g220
sg17
g120
sg41
g249
sg309
g261
sg47
g281
sg39
g236
sg49
g284
sg122
g289
sg53
g296
sg55
g302
sVcom.miui.notes
p414
g307
sg59
g314
sg63
g318
sg65
g321
sg67
g326
sg69
g354
sg71
g358
sg73
g366
sg75
g373
sg79
g383
ssg25
(dp415
g73
g364
sg362
g270
sg365
g137
sg360
g327
ssg27
(dp416
g225
g252
sVcom.android.launcher
p417
g139
sVcom.android.phone
p418
g222
ssg29
(dp419
Vcom.hexin.plat.android
p420
g207
sVcom.tencent.mobileqq
p421
g329
sg183
g141
ssg31
(dp422
Vcom.tencent.mm
p423
g257
sVcom.jingdong.app.mall
p424
g191
sVcom.android.launcher
p425
g142
ssg33
(dp426
g258
g205
sg122
g287
sg124
g330
sVcom.android.launcher
p427
g143
sVcom.android.browser
p428
g93
ssg35
(dp429
g8
g94
sg29
g178
sg100
g331
sg95
g144
sVcom.android.phone
p430
g232
sVcom.tencent.mm
p431
g259
ssg37
(dp432
Vcom.tencent.mobileqq
p433
g332
sVcom.android.phone
p434
g234
ssg39
(dp435
Vcom.hexin.plat.android
p436
g211
sVcom.tencent.mm
p437
g263
sVcom.jingdong.app.mall
p438
g196
sVcom.android.launcher
p439
g146
sVcom.tencent.mobileqq
p440
g334
ssg41
(dp441
g59
g311
sVcom.android.camera
p442
g377
sVcom.tencent.mobileqq
p443
g335
sg79
g381
sVcom.android.launcher
p444
g147
ssg43
(dp445
g253
g273
sg246
g310
sg73
g363
sVcom.ss.android.article.news
p446
g108
sVcom.android.launcher
p447
g160
sg418
g226
sVcom.tencent.mobileqq
p448
g336
sVcom.eg.android.AlipayGphone
p449
g168
ssg45
(dp450
Vcom.miui.cloudservice
p451
g313
sVcom.tencent.mobileqq
p452
g337
sVcom.android.launcher
p453
g150
sVcom.miui.gallery
p454
g243
sVcom.tencent.mm
p455
g254
sg449
g170
ssg47
(dp456
Vcom.hexin.plat.android
p457
g203
sg349
g90
sg69
g348
sg353
g151
sg351
g338
ssg49
(dp458
g357
g152
sg71
g356
ssg51
(dp459
g19
g123
sVcom.tencent.mobileqq
p460
g339
sVcom.android.launcher
p461
g153
ssg53
(dp462
Vcom.android.browser
p463
g99
sg414
g305
sg55
g300
sVcom.ss.android.article.news
p464
g110
sg15
g115
sg403
g154
sVcom.android.phone
p465
g239
ssg55
(dp466
Vcom.android.email
p467
g294
ssg57
(dp468
Vcom.tencent.mobileqq
p469
g340
sVcom.tencent.mm
p470
g251
sVcom.android.launcher
p471
g155
ssg59
(dp472
Vcom.miui.gallery
p473
g247
sg443
g341
sg79
g384
sVcom.android.launcher
p474
g156
ssg61
(dp475
Vcom.tencent.mobileqq
p476
g342
sVcom.android.launcher
p477
g157
ssg63
(dp478
Vcom.android.launcher
p479
g158
ssg65
(dp480
g463
g87
sg98
g291
sVcom.android.launcher
p481
g159
ssg67
(dp482
g8
g101
sg413
g104
sg13
g112
sg19
g125
sg394
g149
sg27
g173
sVcom.android.dazhihui
p483
g180
sg33
g198
sg35
g215
sg37
g218
sVcom.android.phone
p484
g241
sg41
g245
sg43
g267
sg45
g275
sg47
g279
sg122
g286
sg59
g312
sg73
g361
sg69
g352
sg75
g371
sVcom.android.camera
p485
g379
sg79
g382
ssg69
(dp486
Vcom.android.browser
p487
g91
sVcom.android.dazhihui
p488
g182
sVcom.jingdong.app.mall
p489
g192
sVcom.android.launcher
p490
g161
sg484
g228
sVcom.tencent.mobileqq
p491
g343
ssg71
(dp492
sg73
(dp493
g455
g255
sg253
g276
ssg75
(dp494
g200
g97
sVcom.tencent.mobileqq
p495
g344
sVcom.android.launcher
p496
g162
sVcom.hexin.plat.android
p497
g213
ssg77
(dp498
Vcom.tencent.mm
p499
g265
sVcom.tencent.mobileqq
p500
g345
sVcom.android.launcher
p501
g164
sVcom.android.phone
p502
g238
ssg79
(dp503
g309
g269
sVcom.tencent.mobileqq
p504
g346
sg474
g165
sssb.