ccopy_reg
_reconstructor
p1
(cnetworkx.classes.digraph
DiGraph
p2
c__builtin__
object
p3
NtRp4
(dp5
S'node'
p6
(dp7
Vcom.huawei.android.multiscreen
p8
(dp9
S'weight'
p10
F7.302409576087822e-07
ssVcom.android.browser
p11
(dp12
g10
F0.0033393918991449609
ssVcom.mobilecaltronics.calculator
p13
(dp14
g10
F0.001136254930039265
ssVcom.moji.mjweather
p15
(dp16
g10
F0.0065619452450725166
ssVcom.youdao.dict
p17
(dp18
g10
F0.049081685483759074
ssVcom.android.soundrecorder
p19
(dp20
g10
F1.4604819152175644e-06
ssVcom.baidu.netdisk
p21
(dp22
g10
F0.014802714451687623
ssVcom.UCMobile
p23
(dp24
g10
F0.10749292944192795
ssVcom.huawei.android.dlna
p25
(dp26
g10
F3.6512047880439109e-06
ssVcom.sohu.inputmethod.sogou
p27
(dp28
g10
F9.4931324489141685e-06
ssVcom.example.android.notepad
p29
(dp30
g10
F0.0008945451730707582
ssVcom.iBookStar.activity
p31
(dp32
g10
F0.00033810156337286615
ssVcom.sina.weibo
p33
(dp34
g10
F0.090806193319609665
ssVcom.android.contacts
p35
(dp36
g10
F0.0044573908052440063
ssVcom.eg.android.AlipayGphone
p37
(dp38
g10
F0.0007258595118631295
ssVcom.docin.zlibrary.ui.android
p39
(dp40
g10
F0.0051598826064636547
ssVcn.wps.moffice_eng
p41
(dp42
g10
F0.0030158951549242702
ssVcom.changba
p43
(dp44
g10
F0.0080538275214672578
ssVair.fyzb3
p45
(dp46
g10
F0.0037234986428471804
ssVcom.android.bluetooth
p47
(dp48
g10
F5.1116867032614751e-06
ssVcom.android.packageinstaller
p49
(dp50
g10
F1.0953614364131732e-05
ssVcom.sankuai.meituan
p51
(dp52
g10
F0.00097195071457728912
ssVcom.android.gallery3d
p53
(dp54
g10
F0.0079253051129281136
ssVcom.qihoo360.mobilesafe
p55
(dp56
g10
F0.021480037768062326
ssVcom.taobao.taobao
p57
(dp58
g10
F0.0088804602854803995
ssVcom.huawei.hidisk
p59
(dp60
g10
F0.0030743144315329729
ssVme.ele
p61
(dp62
g10
F0.00073097119856639094
ssVcom.fanli.android.apps
p63
(dp64
g10
F0.00018109975748697798
ssVcom.mediatek.FMRadio
p65
(dp66
g10
F0.0050978121250669084
ssVcom.android.systemui
p67
(dp68
g10
F0.00036073903305873837
ssVcom.tencent.mm
p69
(dp70
g10
F0.060819578636362642
ssVcom.tiantian.android.player.video
p71
(dp72
g10
F0.00045859132137831518
ssVcn.com.fetion
p73
(dp74
g10
F0.0018949752849947898
ssVcom.android.phone
p75
(dp76
g10
F0.0057769362156430753
ssVcom.kugou.android
p77
(dp78
g10
F0.0092579948605641411
ssVcom.zhangyu
p79
(dp80
g10
F0.00056155529640115344
ssVcom.huawei.android.launcher
p81
(dp82
g10
F0.20539706486949499
ssVcom.xtuone.android.syllabus
p83
(dp84
g10
F0.00029720806974677436
ssVcom.jiongji.andriod.card
p85
(dp86
g10
F0.08649192974205698
ssVcom.android.email
p87
(dp88
g10
F7.302409576087822e-07
ssVcom.tencent.mobileqq
p89
(dp90
g10
F0.20161660743195431
ssVcom.eusoft.ting.en
p91
(dp92
g10
F1.9716505855437117e-05
ssVinsigma.waybook
p93
(dp94
g10
F0.0030816168411090606
ssVcom.immomo.momo
p95
(dp96
g10
F0.00011683855321740515
ssVcom.codoon.gps
p97
(dp98
g10
F0.00012414096279349298
ssVcom.android.calendar
p99
(dp100
g10
F8.7628914913053869e-06
ssVcom.android.settings
p101
(dp102
g10
F0.0032707492491297354
ssVcom.android.mms
p103
(dp104
g10
F0.014102413373340802
ssVcom.tiexue.ms
p105
(dp106
g10
F0.055670649644263118
ssVcom.appcenter.TheOnion
p107
(dp108
g10
F1.3874578194566862e-05
ssVcom.huawei.hwid
p109
(dp110
g10
F6.5721686184790393e-06
ssVcom.mediatek.data
p111
(dp112
g10
F0.00027457060006090209
ssVcom.baidu.tieba
p113
(dp114
g10
F0.0023776645579741949
ssVcom.android.mediacenter
p115
(dp116
g10
F2.8479397346742504e-05
ssVcom.snda.wifilocating
p117
(dp118
g10
F6.5721686184790393e-06
sssS'graph'
p119
(dp120
sS'succ'
p121
(dp122
g8
(dp123
Vcom.huawei.android.launcher
p124
(dp125
g10
I1
ssVcom.qihoo360.mobilesafe
p126
(dp127
g10
F0.90000000000000002
sssg11
(dp128
Vcom.sankuai.meituan
p129
(dp130
g10
F0.90000000000000002
ssVcom.youdao.dict
p131
(dp132
g10
F1.3
ssVcom.baidu.netdisk
p133
(dp134
g10
F1.1000000000000001
ssVcom.UCMobile
p135
(dp136
g10
F35.699999999999967
ssg25
(dp137
g10
I1
ssVcom.taobao.taobao
p138
(dp139
g10
F3.5
ssVcom.sina.weibo
p140
(dp141
g10
F22.499999999999989
ssVcom.android.contacts
p142
(dp143
g10
F0.40000000000000002
ssVcom.eg.android.AlipayGphone
p144
(dp145
g10
F0.90000000000000002
ssVcn.wps.moffice_eng
p146
(dp147
g10
F1.3999999999999999
ssVcom.changba
p148
(dp149
g10
F0.90000000000000002
ssVcom.moji.mjweather
p150
(dp151
g10
F0.90000000000000002
ssVcom.qihoo360.mobilesafe
p152
(dp153
g10
F1.7999999999999998
ssVcom.huawei.hidisk
p154
(dp155
g10
F0.40000000000000002
ssVcom.mediatek.FMRadio
p156
(dp157
g10
F1.1000000000000001
ssVcom.android.systemui
p158
(dp159
g10
F0.40000000000000002
ssVcom.tencent.mm
p160
(dp161
g10
F17.799999999999997
ssVcn.com.fetion
p162
(dp163
g10
F0.90000000000000002
ssVcom.huawei.android.launcher
p164
(dp165
g10
F274.49999999999937
ssVcom.docin.zlibrary.ui.android
p166
(dp167
g10
F0.40000000000000002
ssVcom.tencent.mobileqq
p168
(dp169
g10
F38.599999999999973
ssVcom.android.settings
p170
(dp171
g10
F34.299999999999969
ssVcom.android.mms
p172
(dp173
g10
F0.69999999999999996
ssVcom.tiexue.ms
p174
(dp175
g10
F10.200000000000003
sssg13
(dp176
Vcom.jiongji.andriod.card
p177
(dp178
g10
F1.7
ssVcn.wps.moffice_eng
p179
(dp180
g10
F0.69999999999999996
ssVcom.baidu.netdisk
p181
(dp182
g10
F0.90000000000000002
ssVcom.qihoo360.mobilesafe
p183
(dp184
g10
F0.90000000000000002
ssVcom.UCMobile
p185
(dp186
g10
F1.3
ssVcom.huawei.android.launcher
p187
(dp188
g10
F10.800000000000001
ssVcom.android.systemui
p189
(dp190
g10
F0.40000000000000002
ssVcom.tencent.mobileqq
p191
(dp192
g10
F2.2000000000000002
ssVcom.eg.android.AlipayGphone
p193
(dp194
g10
F1.3
sssg15
(dp195
Vcom.youdao.dict
p196
(dp197
g10
F1.3999999999999999
ssVcom.android.browser
p198
(dp199
g10
F0.90000000000000002
ssVcom.jiongji.andriod.card
p200
(dp201
g10
I2
ssVinsigma.waybook
p202
(dp203
g10
F0.90000000000000002
ssVcom.appcenter.TheOnion
p204
(dp205
g10
F1.3
ssVcom.android.calendar
p206
(dp207
g10
F0.90000000000000002
ssVcom.sina.weibo
p208
(dp209
g10
F1.8999999999999999
ssVcom.android.gallery3d
p210
(dp211
g10
I1
ssVcom.tiexue.ms
p212
(dp213
g10
F2
ssVcom.UCMobile
p214
(dp215
g10
F0.40000000000000002
ssVcom.huawei.android.launcher
p216
(dp217
g10
F36.699999999999996
ssVcom.qihoo360.mobilesafe
p218
(dp219
g10
F0.40000000000000002
ssVcom.android.systemui
p220
(dp221
g10
F0.69999999999999996
ssVcom.baidu.tieba
p222
(dp223
g10
F0.90000000000000002
ssVcom.tencent.mm
p224
(dp225
g10
F11.400000000000002
ssVcom.tencent.mobileqq
p226
(dp227
g10
F8.1999999999999993
sssg17
(dp228
Vcom.android.browser
p229
(dp230
g10
F2.6000000000000001
ssVcom.jiongji.andriod.card
p231
(dp232
g10
I1
ssVcom.moji.mjweather
p233
(dp234
g10
F0.90000000000000002
ssVcom.UCMobile
p235
(dp236
g10
F36.299999999999976
ssVcom.snda.wifilocating
p237
(dp238
g10
F0.90000000000000002
ssg29
(dp239
g10
F1.3
ssg31
(dp240
g10
F0.69999999999999996
ssVcom.sina.weibo
p241
(dp242
g10
F4.9000000000000004
ssVcom.android.contacts
p243
(dp244
g10
F3.8000000000000003
ssVcom.eg.android.AlipayGphone
p245
(dp246
g10
F0.90000000000000002
ssVcn.wps.moffice_eng
p247
(dp248
g10
F0.40000000000000002
ssVcom.changba
p249
(dp250
g10
F6.7000000000000002
ssVcom.sankuai.meituan
p251
(dp252
g10
F1.7
ssVcom.android.gallery3d
p253
(dp254
g10
F2.2000000000000002
ssVcom.taobao.taobao
p255
(dp256
g10
F2.2000000000000002
ssg59
(dp257
g10
F3.8000000000000003
ssVcom.mediatek.FMRadio
p258
(dp259
g10
F0.69999999999999996
ssVcom.android.phone
p260
(dp261
g10
F10.200000000000001
ssVcom.tencent.mobileqq
p262
(dp263
g10
F52.499999999999986
ssVcom.tiantian.android.player.video
p264
(dp265
g10
F0.69999999999999996
ssVcom.android.systemui
p266
(dp267
g10
F6.1000000000000005
ssg81
(dp268
g10
F199.89999999999998
ssVcom.xtuone.android.syllabus
p269
(dp270
g10
F0.90000000000000002
ssVcom.android.calendar
p271
(dp272
g10
F1.3
ssVcom.tencent.mm
p273
(dp274
g10
F25.399999999999984
ssVcom.android.mms
p275
(dp276
g10
F6.2999999999999998
ssVcom.tiexue.ms
p277
(dp278
g10
F2.8999999999999999
ssVcom.android.settings
p279
(dp280
g10
F3
sssg19
(dp281
Vcom.huawei.android.launcher
p282
(dp283
g10
I1
sssg21
(dp284
Vcom.android.browser
p285
(dp286
g10
F1.1000000000000001
ssVcom.mobilecaltronics.calculator
p287
(dp288
g10
F0.40000000000000002
ssVair.fyzb3
p289
(dp290
g10
F2.2999999999999998
ssg95
(dp291
g10
F0.90000000000000002
ssVcom.changba
p292
(dp293
g10
F2.2000000000000002
ssVcom.huawei.hidisk
p294
(dp295
g10
F1.8
ssVcom.tencent.mobileqq
p296
(dp297
g10
F26.699999999999989
ssVcom.tencent.mm
p298
(dp299
g10
F9.8000000000000007
ssVcom.android.mms
p300
(dp301
g10
F4.9000000000000004
ssVcom.example.android.notepad
p302
(dp303
g10
F0.80000000000000004
ssVcom.taobao.taobao
p304
(dp305
g10
F0.90000000000000002
ssVcom.UCMobile
p306
(dp307
g10
F7.1000000000000005
ssVcom.huawei.android.launcher
p308
(dp309
g10
F88.500000000000099
ssVcom.tiexue.ms
p310
(dp311
g10
F1.3
ssg67
(dp312
g10
F2.8999999999999999
ssVcom.baidu.tieba
p313
(dp314
g10
F2.2999999999999998
ssVcom.sina.weibo
p315
(dp316
g10
F2.2000000000000002
ssg193
(dp317
g10
F0.90000000000000002
ssVcom.android.settings
p318
(dp319
g10
F3.6000000000000001
sssg23
(dp320
Vcom.android.browser
p321
(dp322
g10
F41.19999999999996
ssg13
(dp323
g10
F1.6000000000000001
ssVcom.sankuai.meituan
p324
(dp325
g10
I1
ssVcom.youdao.dict
p326
(dp327
g10
F39.499999999999979
ssVcom.android.gallery3d
p328
(dp329
g10
F1.3999999999999999
ssVcom.baidu.netdisk
p330
(dp331
g10
F16.199999999999999
ssg97
(dp332
g10
F1.7000000000000002
ssg27
(dp333
g10
F1.7
ssVcom.example.android.notepad
p334
(dp335
g10
F1.6000000000000001
ssVcom.sina.weibo
p336
(dp337
g10
F32.199999999999989
ssg35
(dp338
g10
F7.0000000000000009
ssVcom.eg.android.AlipayGphone
p339
(dp340
g10
I2
ssVcn.wps.moffice_eng
p341
(dp342
g10
F6.7000000000000011
ssg294
(dp343
g10
F5.3000000000000007
ssg49
(dp344
g10
F0.40000000000000002
ssg15
(dp345
g10
F1.8999999999999999
ssg19
(dp346
g10
I1
ssg55
(dp347
g10
F4.7000000000000002
ssVcom.taobao.taobao
p348
(dp349
g10
F2.8999999999999999
ssVair.fyzb3
p350
(dp351
g10
F3.1000000000000001
ssg61
(dp352
g10
F0.90000000000000002
ssVcom.mediatek.FMRadio
p353
(dp354
g10
F6.8000000000000007
ssVcom.android.systemui
p355
(dp356
g10
F7.0000000000000009
ssVcom.tencent.mm
p357
(dp358
g10
F106.40000000000016
ssg75
(dp359
g10
F5.7000000000000002
ssVcom.kugou.android
p360
(dp361
g10
F1.8999999999999999
ssg79
(dp362
g10
F1.3999999999999999
ssVcom.huawei.android.launcher
p363
(dp364
g10
F607.99999999999818
ssVcom.jiongji.andriod.card
p365
(dp366
g10
I17
ssg39
(dp367
g10
F0.90000000000000002
ssVcom.tencent.mobileqq
p368
(dp369
g10
F209.00000000000026
ssVinsigma.waybook
p370
(dp371
g10
F0.90000000000000002
ssVcom.android.settings
p372
(dp373
g10
F45.49999999999995
ssVcom.android.mms
p374
(dp375
g10
F11.699999999999999
ssVcom.tiexue.ms
p376
(dp377
g10
F33.39999999999997
ssg109
(dp378
g10
F0.69999999999999996
ssVcom.baidu.tieba
p379
(dp380
g10
F0.69999999999999996
sssg25
(dp381
Vcom.UCMobile
p382
(dp383
g10
F0.40000000000000002
ssVcom.huawei.android.launcher
p384
(dp385
g10
F1.7
ssVcom.tiexue.ms
p386
(dp387
g10
F0.90000000000000002
sssg27
(dp388
Vcom.huawei.android.launcher
p389
(dp390
g10
F0.69999999999999996
ssVcom.UCMobile
p391
(dp392
g10
F1.3
ssVcom.tencent.mobileqq
p393
(dp394
g10
F3.7000000000000002
ssVcom.taobao.taobao
p395
(dp396
g10
F0.90000000000000002
sssg29
(dp397
Vcom.jiongji.andriod.card
p398
(dp399
g10
I1
ssVcom.youdao.dict
p400
(dp401
g10
F0.90000000000000002
ssVcom.changba
p402
(dp403
g10
F0.40000000000000002
ssVcom.sina.weibo
p404
(dp405
g10
F0.80000000000000004
ssVcom.android.mms
p406
(dp407
g10
F4.9000000000000004
ssVcom.baidu.netdisk
p408
(dp409
g10
F0.90000000000000002
ssVcom.huawei.android.launcher
p410
(dp411
g10
F25.699999999999999
ssg87
(dp412
g10
F0.69999999999999996
ssVcom.tencent.mm
p413
(dp414
g10
F0.90000000000000002
ssVcom.tencent.mobileqq
p415
(dp416
g10
F6.6000000000000005
sssg31
(dp417
Vcom.jiongji.andriod.card
p418
(dp419
g10
F0.90000000000000002
ssVcom.tencent.mobileqq
p420
(dp421
g10
F0.40000000000000002
ssVcom.android.mms
p422
(dp423
g10
F0.40000000000000002
ssVcom.baidu.netdisk
p424
(dp425
g10
F0.90000000000000002
ssVcom.huawei.hidisk
p426
(dp427
g10
F5.1000000000000005
ssVcom.huawei.android.launcher
p428
(dp429
g10
F3.4000000000000004
ssg47
(dp430
g10
F1.3
ssg298
(dp431
g10
F0.40000000000000002
sssg33
(dp432
g321
(dp433
g10
F28.299999999999983
ssVcom.jiongji.andriod.card
p434
(dp435
g10
I5
ssVcom.moji.mjweather
p436
(dp437
g10
F0.90000000000000002
ssg131
(dp438
g10
F2.2999999999999998
ssVcom.baidu.netdisk
p439
(dp440
g10
F3.3999999999999995
ssVcom.UCMobile
p441
(dp442
g10
F44.899999999999963
ssVcom.taobao.taobao
p443
(dp444
g10
F0.90000000000000002
ssVcom.android.contacts
p445
(dp446
g10
F4.9000000000000004
ssVcn.wps.moffice_eng
p447
(dp448
g10
F0.90000000000000002
ssVcom.changba
p449
(dp450
g10
F6.0000000000000009
ssVcom.sankuai.meituan
p451
(dp452
g10
F0.40000000000000002
ssVcom.android.gallery3d
p453
(dp454
g10
F2.3999999999999999
ssVcom.qihoo360.mobilesafe
p455
(dp456
g10
F11.100000000000001
ssVair.fyzb3
p457
(dp458
g10
F0.40000000000000002
ssVcom.mobilecaltronics.calculator
p459
(dp460
g10
F0.90000000000000002
ssg65
(dp461
g10
F2.1000000000000001
ssVcom.android.systemui
p462
(dp463
g10
F4.9000000000000004
ssVcom.tencent.mm
p464
(dp465
g10
F65.100000000000009
ssVcom.android.phone
p466
(dp467
g10
F7.4000000000000004
ssVcn.com.fetion
p468
(dp469
g10
F0.69999999999999996
ssVcom.huawei.android.launcher
p470
(dp471
g10
F487.9999999999971
ssg95
(dp472
g10
F0.40000000000000002
ssVcom.tencent.mobileqq
p473
(dp474
g10
F186.20000000000033
ssVcom.android.mms
p475
(dp476
g10
F10.800000000000001
ssVcom.tiexue.ms
p477
(dp478
g10
F24.699999999999996
ssVcom.baidu.tieba
p479
(dp480
g10
F2
ssVcom.android.settings
p481
(dp482
g10
F30.59999999999998
sssg35
(dp483
Vcom.android.browser
p484
(dp485
g10
F0.40000000000000002
ssg370
(dp486
g10
F0.40000000000000002
ssVcom.tencent.mm
p487
(dp488
g10
F3.2000000000000002
ssVcom.android.settings
p489
(dp490
g10
F1.3
ssg49
(dp491
g10
F0.90000000000000002
ssg355
(dp492
g10
F3
ssVcom.android.mms
p493
(dp494
g10
F14.100000000000003
ssVcom.tiexue.ms
p495
(dp496
g10
F1.8
ssVcom.taobao.taobao
p497
(dp498
g10
F0.80000000000000004
ssVcom.UCMobile
p499
(dp500
g10
F2.2000000000000002
ssVcom.huawei.android.launcher
p501
(dp502
g10
F72.300000000000011
ssVcom.qihoo360.mobilesafe
p503
(dp504
g10
F3.6000000000000001
ssVcom.android.phone
p505
(dp506
g10
F31.199999999999999
ssVcom.sina.weibo
p507
(dp508
g10
F0.90000000000000002
ssVcom.tencent.mobileqq
p509
(dp510
g10
F23.499999999999989
sssg37
(dp511
Vcom.android.browser
p512
(dp513
g10
F0.90000000000000002
ssg13
(dp514
g10
F1.8
ssg101
(dp515
g10
F0.90000000000000002
ssg181
(dp516
g10
F0.40000000000000002
ssVcom.taobao.taobao
p517
(dp518
g10
I1
ssVcom.UCMobile
p519
(dp520
g10
F0.90000000000000002
ssVcom.huawei.android.launcher
p521
(dp522
g10
F17.199999999999999
ssVcom.android.systemui
p523
(dp524
g10
F0.69999999999999996
ssVcom.tencent.mobileqq
p525
(dp526
g10
F1.8999999999999999
sssg39
(dp527
Vcom.android.browser
p528
(dp529
g10
F1.8
ssVcom.android.settings
p530
(dp531
g10
F1.8
ssVcom.tencent.mm
p532
(dp533
g10
F3.6999999999999997
ssVcom.android.mms
p534
(dp535
g10
I1
ssVcom.qihoo360.mobilesafe
p536
(dp537
g10
I1
ssVcom.huawei.android.launcher
p538
(dp539
g10
F17.699999999999999
ssVcom.example.android.notepad
p540
(dp541
g10
F0.69999999999999996
ssVcom.android.phone
p542
(dp543
g10
I1
ssVcom.tencent.mobileqq
p544
(dp545
g10
F5.2999999999999998
ssVcom.android.contacts
p546
(dp547
g10
F1.3
sssg41
(dp548
Vcom.android.browser
p549
(dp550
g10
F0.69999999999999996
ssVcom.jiongji.andriod.card
p551
(dp552
g10
I4
ssVcom.android.gallery3d
p553
(dp554
g10
F0.90000000000000002
ssVcom.youdao.dict
p555
(dp556
g10
F0.90000000000000002
ssVcom.huawei.hidisk
p557
(dp558
g10
F16.399999999999999
ssVcom.tencent.mobileqq
p559
(dp560
g10
F14.100000000000001
ssVcom.sina.weibo
p561
(dp562
g10
F0.90000000000000002
ssVcom.android.mms
p563
(dp564
g10
F0.40000000000000002
ssVcom.mobilecaltronics.calculator
p565
(dp566
g10
F0.90000000000000002
ssVcom.tiexue.ms
p567
(dp568
g10
F0.40000000000000002
ssVcom.UCMobile
p569
(dp570
g10
F6.9000000000000004
ssVcom.huawei.android.launcher
p571
(dp572
g10
F23.099999999999994
ssVcom.tencent.mm
p573
(dp574
g10
F2
sssg43
(dp575
g77
(dp576
g10
F1.8
ssVcom.android.browser
p577
(dp578
g10
F0.90000000000000002
ssVcom.jiongji.andriod.card
p579
(dp580
g10
I2
ssVcom.moji.mjweather
p581
(dp582
g10
F0.40000000000000002
ssVcom.youdao.dict
p583
(dp584
g10
F8.4000000000000004
ssVcom.tencent.mm
p585
(dp586
g10
F2.7999999999999998
ssVcom.sina.weibo
p587
(dp588
g10
F3.7999999999999998
ssg451
(dp589
g10
F0.90000000000000002
ssg103
(dp590
g10
F2.3999999999999999
ssg105
(dp591
g10
F0.90000000000000002
ssg29
(dp592
g10
F1.6000000000000001
ssVcom.UCMobile
p593
(dp594
g10
F1.6000000000000001
ssVcom.huawei.android.launcher
p595
(dp596
g10
F52.800000000000004
ssVcom.qihoo360.mobilesafe
p597
(dp598
g10
F1.6000000000000001
ssg67
(dp599
g10
F2.7999999999999998
ssVcom.tencent.mobileqq
p600
(dp601
g10
F14.500000000000002
ssVcom.mediatek.FMRadio
p602
(dp603
g10
F0.90000000000000002
sssg45
(dp604
Vcom.android.settings
p605
(dp606
g10
I1
ssVcom.android.mms
p607
(dp608
g10
F1.3
ssVcom.baidu.netdisk
p609
(dp610
g10
F3.1999999999999997
ssVcom.UCMobile
p611
(dp612
g10
F3.2999999999999998
ssg79
(dp613
g10
F4.7000000000000002
ssVcom.huawei.android.launcher
p614
(dp615
g10
F18.799999999999997
ssVcom.tencent.mm
p616
(dp617
g10
F0.69999999999999996
ssVcom.tencent.mobileqq
p618
(dp619
g10
F14.599999999999998
sssg47
(dp620
Vcom.huawei.android.launcher
p621
(dp622
g10
F0.40000000000000002
ssVcom.huawei.hidisk
p623
(dp624
g10
F1.7
ssg69
(dp625
g10
F0.40000000000000002
ssg420
(dp626
g10
F1.8
ssVcom.android.settings
p627
(dp628
g10
F1.7
sssg49
(dp629
Vcom.huawei.android.launcher
p630
(dp631
g10
F3
ssg83
(dp632
g10
F1.6000000000000001
ssVcom.qihoo360.mobilesafe
p633
(dp634
g10
I1
sssg51
(dp635
Vcom.android.browser
p636
(dp637
g10
F0.90000000000000002
ssVcom.youdao.dict
p638
(dp639
g10
I1
ssVcom.tencent.mm
p640
(dp641
g10
F0.90000000000000002
ssg152
(dp642
g10
F0.90000000000000002
ssVcom.huawei.android.launcher
p643
(dp644
g10
F10.199999999999999
ssVcom.tiexue.ms
p645
(dp646
g10
F0.40000000000000002
ssg587
(dp647
g10
F0.90000000000000002
ssVcom.tencent.mobileqq
p648
(dp649
g10
F0.90000000000000002
sssg53
(dp650
Vcom.youdao.dict
p651
(dp652
g10
I1
ssVcom.android.browser
p653
(dp654
g10
F0.69999999999999996
ssVcom.jiongji.andriod.card
p655
(dp656
g10
F7.7000000000000002
ssVcom.tiantian.android.player.video
p657
(dp658
g10
F7
ssVcn.wps.moffice_eng
p659
(dp660
g10
F1.3
ssVcom.huawei.hidisk
p661
(dp662
g10
F12.199999999999999
ssVcom.tencent.mm
p663
(dp664
g10
F7.2000000000000011
ssVcom.android.mms
p665
(dp666
g10
F1.7000000000000002
ssVcom.qihoo360.mobilesafe
p667
(dp668
g10
I1
ssVcom.UCMobile
p669
(dp670
g10
F2.1000000000000001
ssVcom.huawei.android.launcher
p671
(dp672
g10
F62.900000000000013
ssVcom.taobao.taobao
p673
(dp674
g10
F1.3
ssVcom.android.phone
p675
(dp676
g10
F2.7000000000000002
ssVcom.sina.weibo
p677
(dp678
g10
F1.7000000000000002
ssVcom.android.contacts
p679
(dp680
g10
F1.7000000000000002
ssVcom.tencent.mobileqq
p681
(dp682
g10
F34.79999999999999
sssg55
(dp683
Vcom.android.browser
p684
(dp685
g10
F3
ssg85
(dp686
g10
F8.4000000000000004
ssVcom.youdao.dict
p687
(dp688
g10
F1.3
ssVcom.UCMobile
p689
(dp690
g10
F3.2999999999999998
ssVcom.example.android.notepad
p691
(dp692
g10
F0.69999999999999996
ssVcom.sina.weibo
p693
(dp694
g10
F7.2000000000000002
ssVcom.android.contacts
p695
(dp696
g10
F5.9000000000000004
ssVcom.eg.android.AlipayGphone
p697
(dp698
g10
F0.69999999999999996
ssVcom.android.packageinstaller
p699
(dp700
g10
F0.40000000000000002
ssVcom.moji.mjweather
p701
(dp702
g10
F0.40000000000000002
ssVcom.android.gallery3d
p703
(dp704
g10
F1.7
ssVcom.taobao.taobao
p705
(dp706
g10
F1.3999999999999999
ssVcom.huawei.hidisk
p707
(dp708
g10
F1.8
ssg61
(dp709
g10
I1
ssg63
(dp710
g10
F1.7
ssVcom.android.phone
p711
(dp712
g10
F6.2000000000000002
ssg357
(dp713
g10
F13.200000000000001
ssg189
(dp714
g10
F0.90000000000000002
ssVcn.com.fetion
p715
(dp716
g10
F0.90000000000000002
ssVcom.huawei.android.launcher
p717
(dp718
g10
F76.000000000000014
ssg83
(dp719
g10
F1.3
ssg39
(dp720
g10
I1
ssVcom.tencent.mobileqq
p721
(dp722
g10
F30.299999999999994
ssVcom.android.calendar
p723
(dp724
g10
F0.90000000000000002
ssVcom.android.settings
p725
(dp726
g10
F4
ssVcom.android.mms
p727
(dp728
g10
F5
ssVcom.tiexue.ms
p729
(dp730
g10
F1.7
ssg479
(dp731
g10
F0.90000000000000002
sssg57
(dp732
Vcom.android.browser
p733
(dp734
g10
F1.8
ssVcom.youdao.dict
p735
(dp736
g10
F0.90000000000000002
ssVcom.tencent.mobileqq
p737
(dp738
g10
F11.899999999999999
ssg507
(dp739
g10
F0.69999999999999996
ssVcom.android.mms
p740
(dp741
g10
F1.3
ssVcom.baidu.netdisk
p742
(dp743
g10
F0.90000000000000002
ssVcom.qihoo360.mobilesafe
p744
(dp745
g10
I1
ssVcom.UCMobile
p746
(dp747
g10
F0.90000000000000002
ssVcom.huawei.android.launcher
p748
(dp749
g10
F49.500000000000007
ssVcom.tiexue.ms
p750
(dp751
g10
F0.90000000000000002
ssg523
(dp752
g10
F4.4000000000000004
ssVcom.tencent.mm
p753
(dp754
g10
F8.3000000000000025
ssVcom.android.contacts
p755
(dp756
g10
F2.5999999999999996
ssVcom.eg.android.AlipayGphone
p757
(dp758
g10
F3.5999999999999996
ssVcom.android.settings
p759
(dp760
g10
F0.90000000000000002
sssg59
(dp761
g555
(dp762
g10
F2.2999999999999998
ssVcom.android.browser
p763
(dp764
g10
F0.40000000000000002
ssg459
(dp765
g10
F0.40000000000000002
ssg657
(dp766
g10
F40.100000000000001
ssVcn.wps.moffice_eng
p767
(dp768
g10
F14.499999999999998
ssg563
(dp769
g10
F0.69999999999999996
ssg109
(dp770
g10
I1
ssg47
(dp771
g10
F2.3999999999999999
ssg33
(dp772
g10
F1.6000000000000001
ssVcom.moji.mjweather
p773
(dp774
g10
F1.3
ssVcom.android.gallery3d
p775
(dp776
g10
F9.8000000000000007
ssg424
(dp777
g10
F2.3999999999999999
ssVcom.qihoo360.mobilesafe
p778
(dp779
g10
F1.8999999999999999
ssVcom.UCMobile
p780
(dp781
g10
F3.7999999999999998
ssVcom.huawei.android.launcher
p782
(dp783
g10
F35.899999999999991
ssVcom.android.settings
p784
(dp785
g10
F4.5
ssg31
(dp786
g10
F6.4000000000000004
ssg69
(dp787
g10
F3.7000000000000002
ssg115
(dp788
g10
F9.5
ssg420
(dp789
g10
F13.6
sssg61
(dp790
g717
(dp791
g10
F0.69999999999999996
ssg689
(dp792
g10
I1
ssg357
(dp793
g10
F0.90000000000000002
sssg63
(dp794
Vcom.android.mms
p795
(dp796
g10
F1.7
ssVcom.android.packageinstaller
p797
(dp798
g10
F0.69999999999999996
ssVcom.huawei.android.launcher
p799
(dp800
g10
F2.6999999999999997
sssg65
(dp801
Vcom.jiongji.andriod.card
p802
(dp803
g10
I1
ssVcom.tencent.mm
p804
(dp805
g10
F5.4000000000000012
ssVcom.sina.weibo
p806
(dp807
g10
F0.40000000000000002
ssVcom.moji.mjweather
p808
(dp809
g10
F0.40000000000000002
ssVcom.android.gallery3d
p810
(dp811
g10
F0.90000000000000002
ssVcom.tiexue.ms
p812
(dp813
g10
F0.90000000000000002
ssVcom.UCMobile
p814
(dp815
g10
F0.90000000000000002
ssVcom.huawei.android.launcher
p816
(dp817
g10
F29.199999999999992
ssVcom.taobao.taobao
p818
(dp819
g10
F0.90000000000000002
ssVcom.android.settings
p820
(dp821
g10
F0.90000000000000002
ssVcom.tencent.mobileqq
p822
(dp823
g10
F11.800000000000001
sssg67
(dp824
Vcom.android.browser
p825
(dp826
g10
F0.80000000000000004
ssg91
(dp827
g10
F0.90000000000000002
ssg581
(dp828
g10
F0.90000000000000002
ssVcom.youdao.dict
p829
(dp830
g10
F3.3999999999999999
ssVcom.changba
p831
(dp832
g10
I1
ssVcom.sina.weibo
p833
(dp834
g10
F2.6999999999999997
ssVcom.tencent.mm
p835
(dp836
g10
F4.2000000000000002
ssg103
(dp837
g10
F0.69999999999999996
ssVcom.tiexue.ms
p838
(dp839
g10
F2
ssVcom.UCMobile
p840
(dp841
g10
F3
ssg71
(dp842
g10
F0.69999999999999996
ssVcom.huawei.android.launcher
p843
(dp844
g10
F56.800000000000011
ssVcom.android.settings
p845
(dp846
g10
F0.40000000000000002
ssVcom.baidu.tieba
p847
(dp848
g10
F1.3
ssVcom.tencent.mobileqq
p849
(dp850
g10
F3.5
ssVcom.android.contacts
p851
(dp852
g10
F3.6000000000000001
sssg69
(dp853
Vcom.android.browser
p854
(dp855
g10
F16.400000000000002
ssVcom.jiongji.andriod.card
p856
(dp857
g10
F13.4
ssVcom.sankuai.meituan
p858
(dp859
g10
F0.90000000000000002
ssVcom.youdao.dict
p860
(dp861
g10
F14.700000000000003
ssVcom.baidu.netdisk
p862
(dp863
g10
F6.4000000000000004
ssg23
(dp864
g10
F88.800000000000097
ssVcom.sohu.inputmethod.sogou
p865
(dp866
g10
I1
ssVcom.taobao.taobao
p867
(dp868
g10
F7.6000000000000014
ssg33
(dp869
g10
F107.80000000000024
ssVcom.android.contacts
p870
(dp871
g10
F7.7000000000000011
ssg245
(dp872
g10
F0.40000000000000002
ssVcn.wps.moffice_eng
p873
(dp874
g10
F0.90000000000000002
ssg449
(dp875
g10
F5.6000000000000005
ssVair.fyzb3
p876
(dp877
g10
F2
ssVcom.example.android.notepad
p878
(dp879
g10
F0.90000000000000002
ssg699
(dp880
g10
F0.69999999999999996
ssg808
(dp881
g10
F2.7000000000000002
ssVcom.android.gallery3d
p882
(dp883
g10
F5.2000000000000002
ssg55
(dp884
g10
F5.9000000000000004
ssVcom.huawei.hidisk
p885
(dp886
g10
F2.5
ssg61
(dp887
g10
F0.69999999999999996
ssg63
(dp888
g10
F1.3
ssVcom.mediatek.FMRadio
p889
(dp890
g10
F0.80000000000000004
ssVcom.android.phone
p891
(dp892
g10
F7.5
ssg473
(dp893
g10
F222.20000000000056
ssg71
(dp894
g10
F1.8999999999999999
ssVcn.com.fetion
p895
(dp896
g10
F1.7999999999999998
ssVcom.android.systemui
p897
(dp898
g10
F4.2999999999999998
ssVcom.kugou.android
p899
(dp900
g10
F5.0999999999999996
ssg782
(dp901
g10
F798.90000000000032
ssVcom.xtuone.android.syllabus
p902
(dp903
g10
F0.90000000000000002
ssVcom.docin.zlibrary.ui.android
p904
(dp905
g10
F4.4000000000000004
ssg99
(dp906
g10
F0.40000000000000002
ssVcom.android.settings
p907
(dp908
g10
F12.000000000000004
ssVcom.android.mms
p909
(dp910
g10
F11.4
ssVcom.tiexue.ms
p911
(dp912
g10
F41.099999999999952
ssVcom.baidu.tieba
p913
(dp914
g10
F3.3999999999999999
sssg71
(dp915
Vcom.android.browser
p916
(dp917
g10
F0.69999999999999996
ssVcom.youdao.dict
p918
(dp919
g10
F0.69999999999999996
ssg775
(dp920
g10
F4.2999999999999998
ssVcom.huawei.hidisk
p921
(dp922
g10
F39
ssVcom.huawei.android.launcher
p923
(dp924
g10
F3.5999999999999996
ssVcom.tencent.mm
p925
(dp926
g10
I1
sssg73
(dp927
Vcom.android.browser
p928
(dp929
g10
F0.69999999999999996
ssVcom.moji.mjweather
p930
(dp931
g10
F1.3
ssVcom.android.settings
p932
(dp933
g10
F1.3
ssVcom.tencent.mm
p934
(dp935
g10
F0.80000000000000004
ssVcom.android.mms
p936
(dp937
g10
F5.3000000000000007
ssVcom.tiexue.ms
p938
(dp939
g10
F1.3
ssVcom.codoon.gps
p940
(dp941
g10
I1
ssg111
(dp942
g10
I1
ssVcom.huawei.android.launcher
p943
(dp944
g10
F31.999999999999993
ssVcom.android.systemui
p945
(dp946
g10
F0.90000000000000002
ssVcom.tencent.mobileqq
p947
(dp948
g10
F8.9000000000000021
ssVcom.android.contacts
p949
(dp950
g10
I1
sssg75
(dp951
Vcom.jiongji.andriod.card
p952
(dp953
g10
I1
ssVcom.android.gallery3d
p954
(dp955
g10
I1
ssVcom.youdao.dict
p956
(dp957
g10
I2
ssg273
(dp958
g10
F4.5999999999999996
ssVcom.sankuai.meituan
p959
(dp960
g10
F0.90000000000000002
ssVcom.android.mms
p961
(dp962
g10
F4
ssVcom.mobilecaltronics.calculator
p963
(dp964
g10
F0.69999999999999996
ssVcom.tiexue.ms
p965
(dp966
g10
I2
ssg395
(dp967
g10
F0.40000000000000002
ssVcom.UCMobile
p968
(dp969
g10
F3.7000000000000002
ssVcom.huawei.android.launcher
p970
(dp971
g10
F43.999999999999972
ssVcom.qihoo360.mobilesafe
p972
(dp973
g10
F8.6000000000000014
ssVcom.sohu.inputmethod.sogou
p974
(dp975
g10
F0.90000000000000002
ssVcom.docin.zlibrary.ui.android
p976
(dp977
g10
I1
ssVcom.sina.weibo
p978
(dp979
g10
I6
ssg35
(dp980
g10
F62.000000000000014
ssVcom.tencent.mobileqq
p981
(dp982
g10
F19.099999999999998
sssg77
(dp983
Vcom.jiongji.andriod.card
p984
(dp985
g10
F14.699999999999999
ssg959
(dp986
g10
F0.40000000000000002
ssVcom.sina.weibo
p987
(dp988
g10
F0.80000000000000004
ssVcom.tencent.mm
p989
(dp990
g10
F6.9000000000000012
ssVcom.android.mms
p991
(dp992
g10
I1
ssVcom.android.systemui
p993
(dp994
g10
F1.3
ssVcom.tiexue.ms
p995
(dp996
g10
F2.2000000000000002
ssVcom.UCMobile
p997
(dp998
g10
F1.8999999999999999
ssVcom.huawei.android.launcher
p999
(dp1000
g10
F35.899999999999991
ssVcom.android.phone
p1001
(dp1002
g10
F0.90000000000000002
ssVcom.tencent.mobileqq
p1003
(dp1004
g10
F7.6000000000000014
ssVcom.android.contacts
p1005
(dp1006
g10
F1.3
sssg79
(dp1007
Vair.fyzb3
p1008
(dp1009
g10
F2.2999999999999998
ssVcom.huawei.android.launcher
p1010
(dp1011
g10
F4.3999999999999995
ssg611
(dp1012
g10
F1.6000000000000001
sssg81
(dp1013
g8
(dp1014
g10
I1
ssVcom.android.browser
p1015
(dp1016
g10
F276.09999999999934
ssg13
(dp1017
g10
F9.0999999999999996
ssg15
(dp1018
g10
F40.999999999999993
ssVcom.youdao.dict
p1019
(dp1020
g10
F138.8000000000001
ssg439
(dp1021
g10
F68.300000000000026
ssg23
(dp1022
g10
F572.39999999999873
ssg25
(dp1023
g10
F1.3
ssg27
(dp1024
g10
F2.6000000000000001
ssg29
(dp1025
g10
F27.699999999999996
ssg31
(dp1026
g10
F3.1000000000000001
ssg33
(dp1027
g10
F422.59999999999803
ssg35
(dp1028
g10
F105.5000000000001
ssg37
(dp1029
g10
F16.399999999999999
ssVcom.docin.zlibrary.ui.android
p1030
(dp1031
g10
F9.1999999999999993
ssg146
(dp1032
g10
F18.600000000000001
ssg43
(dp1033
g10
F42.300000000000004
ssg350
(dp1034
g10
F15.699999999999996
ssVcom.android.bluetooth
p1035
(dp1036
g10
F1.3999999999999999
ssg49
(dp1037
g10
F4.0999999999999996
ssg451
(dp1038
g10
F8.7000000000000011
ssg53
(dp1039
g10
F59.499999999999993
ssVcom.qihoo360.mobilesafe
p1040
(dp1041
g10
F48.199999999999989
ssg705
(dp1042
g10
F55.100000000000023
ssg59
(dp1043
g10
F42.699999999999996
ssg63
(dp1044
g10
F1.7
ssg65
(dp1045
g10
F24.499999999999993
ssg67
(dp1046
g10
F76.000000000000043
ssg473
(dp1047
g10
F1195.2000000000085
ssg71
(dp1048
g10
F3.5999999999999996
ssg73
(dp1049
g10
F27.599999999999998
ssg505
(dp1050
g10
F47.199999999999953
ssg77
(dp1051
g10
F17.799999999999997
ssg79
(dp1052
g10
F4.5
ssg83
(dp1053
g10
F14.899999999999999
ssg85
(dp1054
g10
F62.400000000000006
ssg87
(dp1055
g10
F1.3
ssg91
(dp1056
g10
I1
ssg93
(dp1057
g10
F9.1000000000000014
ssg95
(dp1058
g10
F1.7
ssg97
(dp1059
g10
F5
ssg99
(dp1060
g10
F5.4000000000000004
ssVcom.tencent.mm
p1061
(dp1062
g10
F799.30000000000075
ssg103
(dp1063
g10
F143.60000000000011
ssg105
(dp1064
g10
F253.29999999999964
ssg204
(dp1065
g10
I1
ssg109
(dp1066
g10
F1.3
ssg111
(dp1067
g10
F0.90000000000000002
ssg479
(dp1068
g10
F19.399999999999999
ssg101
(dp1069
g10
F239.79999999999967
ssg117
(dp1070
g10
F2.7000000000000002
sssg83
(dp1071
Vcom.tencent.mm
p1072
(dp1073
g10
F0.80000000000000004
ssVcom.sina.weibo
p1074
(dp1075
g10
I1
ssVcom.moji.mjweather
p1076
(dp1077
g10
F1.3
ssVcom.huawei.android.launcher
p1078
(dp1079
g10
F11.800000000000001
ssVcom.android.systemui
p1080
(dp1081
g10
F0.90000000000000002
ssVcom.tencent.mobileqq
p1082
(dp1083
g10
F2.3999999999999999
ssVcom.android.settings
p1084
(dp1085
g10
F0.90000000000000002
sssg85
(dp1086
Vcom.android.browser
p1087
(dp1088
g10
F0.40000000000000002
ssVcom.mobilecaltronics.calculator
p1089
(dp1090
g10
I1
ssVcom.moji.mjweather
p1091
(dp1092
g10
I1
ssVcom.youdao.dict
p1093
(dp1094
g10
F2.8999999999999999
ssVcom.baidu.netdisk
p1095
(dp1096
g10
F0.69999999999999996
ssVcom.UCMobile
p1097
(dp1098
g10
F12.800000000000001
ssVcom.example.android.notepad
p1099
(dp1100
g10
F1.3999999999999999
ssVcom.sina.weibo
p1101
(dp1102
g10
F9.8000000000000007
ssVcom.android.contacts
p1103
(dp1104
g10
F3.2000000000000002
ssVcn.wps.moffice_eng
p1105
(dp1106
g10
F2.2999999999999998
ssVcom.changba
p1107
(dp1108
g10
I1
ssVcom.sankuai.meituan
p1109
(dp1110
g10
F0.40000000000000002
ssg53
(dp1111
g10
F14.699999999999999
ssVcom.qihoo360.mobilesafe
p1112
(dp1113
g10
F4.7999999999999998
ssg885
(dp1114
g10
F1.8
ssVcom.mediatek.FMRadio
p1115
(dp1116
g10
I1
ssVcom.android.systemui
p1117
(dp1118
g10
F1.3999999999999999
ssVcom.tencent.mm
p1119
(dp1120
g10
F25.199999999999992
ssVcom.kugou.android
p1121
(dp1122
g10
F6.9000000000000004
ssVcom.huawei.android.launcher
p1123
(dp1124
g10
F118.90000000000023
ssVcom.xtuone.android.syllabus
p1125
(dp1126
g10
F0.69999999999999996
ssVcom.tencent.mobileqq
p1127
(dp1128
g10
F71.400000000000006
ssVinsigma.waybook
p1129
(dp1130
g10
I1
ssg97
(dp1131
g10
F1.7
ssg271
(dp1132
g10
F0.69999999999999996
ssVcom.android.settings
p1133
(dp1134
g10
F1.3
ssVcom.android.mms
p1135
(dp1136
g10
F7.0000000000000009
ssVcom.tiexue.ms
p1137
(dp1138
g10
F6.5000000000000009
ssg204
(dp1139
g10
F0.69999999999999996
sssg87
(dp1140
Vcom.huawei.android.launcher
p1141
(dp1142
g10
F0.90000000000000002
ssVcom.android.mms
p1143
(dp1144
g10
I1
sssg89
(dp1145
g11
(dp1146
g10
F42.099999999999959
ssg85
(dp1147
g10
F96.300000000000054
ssg1109
(dp1148
g10
F0.69999999999999996
ssg17
(dp1149
g10
F46.199999999999974
ssVcom.baidu.netdisk
p1150
(dp1151
g10
F21.699999999999996
ssg23
(dp1152
g10
F157.80000000000032
ssg27
(dp1153
g10
F3.7000000000000002
ssg29
(dp1154
g10
F11.000000000000002
ssg31
(dp1155
g10
F0.40000000000000002
ssg33
(dp1156
g10
F175.50000000000043
ssg695
(dp1157
g10
F27.599999999999987
ssVcom.eg.android.AlipayGphone
p1158
(dp1159
g10
F3.2999999999999998
ssg146
(dp1160
g10
F12.500000000000002
ssVcom.changba
p1161
(dp1162
g10
F8.7000000000000011
ssg350
(dp1163
g10
F10.800000000000001
ssg699
(dp1164
g10
F0.90000000000000002
ssVcom.moji.mjweather
p1165
(dp1166
g10
F8.5
ssg53
(dp1167
g10
F49.999999999999986
ssg1040
(dp1168
g10
F33.199999999999989
ssVcom.taobao.taobao
p1169
(dp1170
g10
F18.100000000000001
ssg59
(dp1171
g10
F15.600000000000001
ssg963
(dp1172
g10
F1.8
ssg63
(dp1173
g10
F0.40000000000000002
ssg65
(dp1174
g10
F8.0000000000000018
ssg711
(dp1175
g10
F21.399999999999999
ssg69
(dp1176
g10
F355.8999999999985
ssVcom.tiantian.android.player.video
p1177
(dp1178
g10
F0.69999999999999996
ssVcn.com.fetion
p1179
(dp1180
g10
F7.2000000000000011
ssVcom.android.systemui
p1181
(dp1182
g10
F2.8999999999999999
ssVcom.kugou.android
p1183
(dp1184
g10
F3
ssVcom.zhangyu
p1185
(dp1186
g10
F0.69999999999999996
ssg81
(dp1187
g10
F1404.3000000000184
ssVcom.xtuone.android.syllabus
p1188
(dp1189
g10
F3.8999999999999999
ssg904
(dp1190
g10
F1.3999999999999999
ssg93
(dp1191
g10
F5.0999999999999996
ssg99
(dp1192
g10
F1.3
ssg489
(dp1193
g10
F27.699999999999985
ssg374
(dp1194
g10
F40.899999999999977
ssVcom.tiexue.ms
p1195
(dp1196
g10
F88.000000000000128
ssg913
(dp1197
g10
F3.8999999999999999
ssVcom.android.mediacenter
p1198
(dp1199
g10
F1.3
ssg117
(dp1200
g10
F1.6000000000000001
sssg91
(dp1201
sg93
(dp1202
Vcom.jiongji.andriod.card
p1203
(dp1204
g10
I1
ssVcom.tencent.mm
p1205
(dp1206
g10
F3.5999999999999996
ssVcom.android.mms
p1207
(dp1208
g10
F0.90000000000000002
ssVcom.tiexue.ms
p1209
(dp1210
g10
F0.90000000000000002
ssVcom.huawei.android.launcher
p1211
(dp1212
g10
F19.499999999999996
ssVcom.android.settings
p1213
(dp1214
g10
I1
ssVcom.tencent.mobileqq
p1215
(dp1216
g10
F9.5
sssg95
(dp1217
sg97
(dp1218
Vcn.com.fetion
p1219
(dp1220
g10
I1
ssVcom.android.settings
p1221
(dp1222
g10
I1
ssVcom.jiongji.andriod.card
p1223
(dp1224
g10
I1
ssVcom.huawei.android.launcher
p1225
(dp1226
g10
F4.0999999999999996
ssg928
(dp1227
g10
F1.3
sssg99
(dp1228
Vcom.huawei.android.launcher
p1229
(dp1230
g10
I1
ssVcom.moji.mjweather
p1231
(dp1232
g10
I2
ssVcom.tencent.mm
p1233
(dp1234
g10
F0.90000000000000002
sssg101
(dp1235
Vcom.android.browser
p1236
(dp1237
g10
F36.599999999999966
ssVcom.youdao.dict
p1238
(dp1239
g10
F1.3999999999999999
ssVcom.baidu.netdisk
p1240
(dp1241
g10
F3.1999999999999997
ssVcom.UCMobile
p1242
(dp1243
g10
F37.699999999999967
ssVcom.taobao.taobao
p1244
(dp1245
g10
F1.8
ssVcom.sina.weibo
p1246
(dp1247
g10
F22.099999999999994
ssVcom.android.contacts
p1248
(dp1249
g10
F1.3
ssg447
(dp1250
g10
F1.1000000000000001
ssVcom.changba
p1251
(dp1252
g10
F0.40000000000000002
ssVair.fyzb3
p1253
(dp1254
g10
I1
ssg1035
(dp1255
g10
F0.90000000000000002
ssVcom.qihoo360.mobilesafe
p1256
(dp1257
g10
F3.2999999999999998
ssVcom.huawei.hidisk
p1258
(dp1259
g10
F4.2000000000000002
ssVcom.android.systemui
p1260
(dp1261
g10
F3.1999999999999997
ssVcom.tencent.mobileqq
p1262
(dp1263
g10
F29.199999999999985
ssg468
(dp1264
g10
F1.3
ssVcom.huawei.android.launcher
p1265
(dp1266
g10
F239.49999999999977
ssg1030
(dp1267
g10
F0.90000000000000002
ssVcom.codoon.gps
p1268
(dp1269
g10
I1
ssVcom.tencent.mm
p1270
(dp1271
g10
F14.4
ssVcom.android.mms
p1272
(dp1273
g10
F1.3
ssVcom.tiexue.ms
p1274
(dp1275
g10
F4.8000000000000007
sssg103
(dp1276
g636
(dp1277
g10
F2
ssVcom.jiongji.andriod.card
p1278
(dp1279
g10
I1
ssVcom.youdao.dict
p1280
(dp1281
g10
F1.1000000000000001
ssg408
(dp1282
g10
F1.3999999999999999
ssVcom.UCMobile
p1283
(dp1284
g10
F9.5999999999999996
ssVcom.example.android.notepad
p1285
(dp1286
g10
F4.5
ssVcom.sina.weibo
p1287
(dp1288
g10
F3.8999999999999999
ssVcom.android.contacts
p1289
(dp1290
g10
F9.8000000000000007
ssVcom.docin.zlibrary.ui.android
p1291
(dp1292
g10
I1
ssVcn.wps.moffice_eng
p1293
(dp1294
g10
F0.69999999999999996
ssg402
(dp1295
g10
F0.90000000000000002
ssg797
(dp1296
g10
F0.90000000000000002
ssg1109
(dp1297
g10
F0.90000000000000002
ssVcom.android.gallery3d
p1298
(dp1299
g10
I1
ssVcom.qihoo360.mobilesafe
p1300
(dp1301
g10
F1.8
ssVcom.taobao.taobao
p1302
(dp1303
g10
F0.90000000000000002
ssVcom.huawei.hidisk
p1304
(dp1305
g10
F1.3
ssVcom.mobilecaltronics.calculator
p1306
(dp1307
g10
F0.40000000000000002
ssVcom.android.phone
p1308
(dp1309
g10
F1.7
ssg585
(dp1310
g10
F15.000000000000004
ssVcom.kugou.android
p1311
(dp1312
g10
I1
ssg73
(dp1313
g10
F4.7999999999999998
ssVcom.huawei.android.launcher
p1314
(dp1315
g10
F153.70000000000007
ssVcom.xtuone.android.syllabus
p1316
(dp1317
g10
F0.40000000000000002
ssg87
(dp1318
g10
I1
ssg93
(dp1319
g10
F0.40000000000000002
ssVcom.tencent.mobileqq
p1320
(dp1321
g10
F42.799999999999976
ssVcom.tiexue.ms
p1322
(dp1323
g10
F5.8000000000000007
sssg105
(dp1324
Vcom.android.browser
p1325
(dp1326
g10
F11.800000000000004
ssVcom.jiongji.andriod.card
p1327
(dp1328
g10
I6
ssg25
(dp1329
g10
F0.69999999999999996
ssVcom.youdao.dict
p1330
(dp1331
g10
F2.7000000000000002
ssVcom.tencent.mm
p1332
(dp1333
g10
F40.799999999999969
ssVcom.baidu.netdisk
p1334
(dp1335
g10
F2.2999999999999998
ssVcom.UCMobile
p1336
(dp1337
g10
F27.999999999999982
ssg348
(dp1338
g10
F0.90000000000000002
ssVcom.sina.weibo
p1339
(dp1340
g10
F8.7000000000000011
ssVcom.android.contacts
p1341
(dp1342
g10
F3.7999999999999998
ssVcn.wps.moffice_eng
p1343
(dp1344
g10
F0.69999999999999996
ssVcom.changba
p1345
(dp1346
g10
F2.7000000000000002
ssVcom.huawei.hidisk
p1347
(dp1348
g10
F0.80000000000000004
ssVcom.moji.mjweather
p1349
(dp1350
g10
F2.7000000000000002
ssVcom.android.gallery3d
p1351
(dp1352
g10
F5.7000000000000002
ssVcom.qihoo360.mobilesafe
p1353
(dp1354
g10
F1.7
ssVair.fyzb3
p1355
(dp1356
g10
F1.7000000000000002
ssg889
(dp1357
g10
F1.8
ssg891
(dp1358
g10
F7.3000000000000007
ssg600
(dp1359
g10
F96.200000000000145
ssg1219
(dp1360
g10
F1.1000000000000001
ssVcom.android.systemui
p1361
(dp1362
g10
F4.5999999999999996
ssVcom.kugou.android
p1363
(dp1364
g10
F1.7
ssVcom.huawei.android.launcher
p1365
(dp1366
g10
F294.89999999999924
ssg902
(dp1367
g10
F0.40000000000000002
ssVcom.codoon.gps
p1368
(dp1369
g10
F1.7000000000000002
ssVcom.android.settings
p1370
(dp1371
g10
F9.1000000000000014
ssVcom.android.mms
p1372
(dp1373
g10
F8.3000000000000007
ssg222
(dp1374
g10
F1.3
sssg107
(dp1375
Vcom.tencent.mobileqq
p1376
(dp1377
g10
F1.3
ssVcom.huawei.android.launcher
p1378
(dp1379
g10
F3.4000000000000004
ssg218
(dp1380
g10
F0.90000000000000002
sssg109
(dp1381
Vcom.huawei.hidisk
p1382
(dp1383
g10
F1.7
ssVcom.huawei.android.launcher
p1384
(dp1385
g10
F1.3
sssg111
(dp1386
Vcom.huawei.android.launcher
p1387
(dp1388
g10
F1.3
ssg930
(dp1389
g10
F0.69999999999999996
ssVcn.com.fetion
p1390
(dp1391
g10
I2
sssg113
(dp1392
g825
(dp1393
g10
F1.3
ssg1345
(dp1394
g10
F0.40000000000000002
ssVcom.sina.weibo
p1395
(dp1396
g10
F2.6999999999999997
ssVcom.baidu.netdisk
p1397
(dp1398
g10
F1.8999999999999999
ssVcom.tiexue.ms
p1399
(dp1400
g10
F1.8
ssVcom.UCMobile
p1401
(dp1402
g10
F0.40000000000000002
ssVcom.huawei.android.launcher
p1403
(dp1404
g10
F17.999999999999996
ssg455
(dp1405
g10
F0.90000000000000002
ssVcom.tencent.mobileqq
p1406
(dp1407
g10
F2.2000000000000002
ssVcom.tencent.mm
p1408
(dp1409
g10
F1.7000000000000002
ssVcom.mediatek.FMRadio
p1410
(dp1411
g10
F0.90000000000000002
sssg115
(dp1412
Vcom.huawei.android.launcher
p1413
(dp1414
g10
F0.40000000000000002
ssVcom.huawei.hidisk
p1415
(dp1416
g10
F10.199999999999999
ssVcom.tencent.mobileqq
p1417
(dp1418
g10
F2.6000000000000001
sssg117
(dp1419
Vcom.tencent.mm
p1420
(dp1421
g10
F1.8
ssVcom.huawei.android.launcher
p1422
(dp1423
g10
F3.4000000000000004
ssssS'edge'
p1424
g122
sS'pred'
p1425
(dp1426
g8
(dp1427
Vcom.huawei.android.launcher
p1428
g1014
ssg11
(dp1429
Vcom.jiongji.andriod.card
p1430
g1088
sg1109
g637
sVcom.youdao.dict
p1431
g230
sVcom.baidu.netdisk
p1432
g286
sVcom.UCMobile
p1433
g322
sVcom.taobao.taobao
p1434
g734
sVcom.sina.weibo
p1435
g433
sVcom.android.contacts
p1436
g485
sVcom.eg.android.AlipayGphone
p1437
g513
sg41
g550
sg1251
g578
sg1349
g199
sVcom.android.gallery3d
p1438
g654
sVcom.qihoo360.mobilesafe
p1439
g685
sVcom.huawei.hidisk
p1440
g764
sVcom.android.systemui
p1441
g826
sVcom.tencent.mm
p1442
g855
sg264
g917
sg1219
g929
sg164
g1016
sg1030
g529
sVcom.tencent.mobileqq
p1443
g1146
sg1368
g1227
sg170
g1237
sVcom.android.mms
p1444
g1277
sVcom.tiexue.ms
p1445
g1326
sg847
g1393
ssg13
(dp1446
Vcom.jiongji.andriod.card
p1447
g1090
sVcn.wps.moffice_eng
p1448
g566
sVcom.huawei.hidisk
p1449
g765
sVcom.tencent.mobileqq
p1450
g1172
sVcom.android.mms
p1451
g1307
sg181
g288
sVcom.UCMobile
p1452
g323
sg363
g1017
sVcom.android.phone
p1453
g964
sVcom.sina.weibo
p1454
g460
sg339
g514
ssg15
(dp1455
g198
g151
sVcom.jiongji.andriod.card
p1456
g1092
sVcom.youdao.dict
p1457
g234
sg1107
g582
sg1382
g774
sg99
g1232
sVcom.tencent.mm
p1458
g881
sVcom.sina.weibo
p1459
g437
sVcn.com.fetion
p1460
g931
sVcom.tiexue.ms
p1461
g1350
sg1300
g702
sVcom.UCMobile
p1462
g345
sVcom.mediatek.data
p1463
g1389
sVcom.huawei.android.launcher
p1464
g1018
sVcom.mediatek.FMRadio
p1465
g809
sg1117
g828
sVcom.tencent.mobileqq
p1466
g1166
sg1188
g1077
ssg17
(dp1467
Vcom.android.browser
p1468
g132
sVcom.jiongji.andriod.card
p1469
g1094
sg51
g639
sg235
g327
sVcom.example.android.notepad
p1470
g401
sVcom.sina.weibo
p1471
g438
sVcn.wps.moffice_eng
p1472
g556
sVcom.changba
p1473
g584
sVcom.moji.mjweather
p1474
g197
sVcom.android.gallery3d
p1475
g652
sVcom.qihoo360.mobilesafe
p1476
g688
sVcom.taobao.taobao
p1477
g736
sVcom.huawei.hidisk
p1478
g762
sg220
g830
sVcom.tencent.mm
p1479
g861
sVcom.tiantian.android.player.video
p1480
g919
sVcom.android.phone
p1481
g957
sVcom.huawei.android.launcher
p1482
g1020
sg89
g1149
sVcom.android.mms
p1483
g1281
sVcom.tiexue.ms
p1484
g1331
sVcom.android.settings
p1485
g1239
ssg19
(dp1486
Vcom.UCMobile
p1487
g346
ssg21
(dp1488
Vcom.android.browser
p1489
g134
sg13
g182
sg289
g610
sVcom.UCMobile
p1490
g331
sVcom.tencent.mm
p1491
g863
sVcom.android.mms
p1492
g1282
sVcom.jiongji.andriod.card
p1493
g1096
sVcom.example.android.notepad
p1494
g409
sg1244
g743
sVcom.huawei.hidisk
p1495
g777
sg308
g1021
sVcom.tiexue.ms
p1496
g1335
sg318
g1241
sVcom.baidu.tieba
p1497
g1398
sVcom.iBookStar.activity
p1498
g425
sg315
g440
sg339
g516
sVcom.tencent.mobileqq
p1499
g1151
ssg23
(dp1500
g684
g136
sg365
g1098
sg25
g383
sVcom.youdao.dict
p1501
g236
sg330
g307
sg27
g392
sVcom.taobao.taobao
p1502
g747
sVcom.sina.weibo
p1503
g442
sg1436
g500
sVcom.eg.android.AlipayGphone
p1504
g520
sg146
g570
sVcom.changba
p1505
g594
sg1008
g612
sg1076
g215
sg882
g670
sg55
g690
sVcom.huawei.hidisk
p1506
g781
sg61
g792
sVcom.mediatek.FMRadio
p1507
g815
sVcom.android.systemui
p1508
g841
sg1061
g864
sg75
g969
sVcom.kugou.android
p1509
g998
sVcom.zhangyu
p1510
g1012
sVcom.huawei.android.launcher
p1511
g1022
sg1306
g186
sVcom.tencent.mobileqq
p1512
g1152
sg372
g1243
sVcom.android.mms
p1513
g1284
sVcom.tiexue.ms
p1514
g1337
sVcom.baidu.tieba
p1515
g1402
ssg25
(dp1516
Vcom.android.browser
p1517
g137
sVcom.huawei.android.launcher
p1518
g1023
sVcom.tiexue.ms
p1519
g1329
ssg27
(dp1520
Vcom.tencent.mobileqq
p1521
g1153
sVcom.tencent.mm
p1522
g866
sVcom.huawei.android.launcher
p1523
g1024
sVcom.android.phone
p1524
g975
sVcom.UCMobile
p1525
g333
ssg29
(dp1526
g398
g1100
sVcom.youdao.dict
p1527
g239
sVcom.changba
p1528
g592
sVcom.tencent.mm
p1529
g879
sVcom.android.mms
p1530
g1286
sVcom.baidu.netdisk
p1531
g303
sg778
g692
sVcom.UCMobile
p1532
g335
sVcom.huawei.android.launcher
p1533
g1025
sg1291
g541
sVcom.tencent.mobileqq
p1534
g1154
ssg31
(dp1535
g81
g1026
sg89
g1155
sg17
g240
sg59
g786
ssg33
(dp1536
Vcom.android.browser
p1537
g141
sg85
g1102
sg451
g647
sVcom.youdao.dict
p1538
g242
sg21
g316
sg441
g337
sVcom.example.android.notepad
p1539
g405
sVcom.android.contacts
p1540
g508
sg447
g562
sg449
g588
sVcom.moji.mjweather
p1541
g209
sVcom.android.gallery3d
p1542
g678
sg455
g694
sVcom.taobao.taobao
p1543
g739
sVcom.huawei.hidisk
p1544
g772
sg1115
g807
sg462
g834
sg420
g1156
sg466
g979
sVcom.kugou.android
p1545
g988
sg782
g1027
sg1125
g1075
sg69
g869
sg103
g1288
sVcom.tiexue.ms
p1546
g1340
sg113
g1396
sg481
g1247
ssg35
(dp1547
Vcom.kugou.android
p1548
g1006
sVcom.android.browser
p1549
g143
sVcom.jiongji.andriod.card
p1550
g1104
sVcom.android.gallery3d
p1551
g680
sVcom.youdao.dict
p1552
g244
sVcn.com.fetion
p1553
g950
sg721
g1157
sg804
g871
sg493
g1290
sVcom.android.systemui
p1554
g852
sVcom.qihoo360.mobilesafe
p1555
g696
sVcom.taobao.taobao
p1556
g756
sVcom.UCMobile
p1557
g338
sg970
g1028
sVcom.tiexue.ms
p1558
g1342
sg75
g980
sVcom.docin.zlibrary.ui.android
p1559
g547
sVcom.sina.weibo
p1560
g446
sVcom.android.settings
p1561
g1249
ssg37
(dp1562
g512
g145
sg13
g194
sVcom.youdao.dict
p1563
g246
sVcom.tencent.mm
p1564
g872
sg181
g317
sg1169
g758
sg1452
g340
sVcom.huawei.android.launcher
p1565
g1029
sg744
g698
sVcom.tencent.mobileqq
p1566
g1159
ssg39
(dp1567
Vcom.android.browser
p1568
g167
sVcom.tencent.mm
p1569
g905
sg542
g977
sg534
g1292
sVcom.qihoo360.mobilesafe
p1570
g720
sVcom.UCMobile
p1571
g367
sVcom.huawei.android.launcher
p1572
g1031
sVcom.android.settings
p1573
g1267
sVcom.tencent.mobileqq
p1574
g1190
ssg41
(dp1575
g549
g147
sVcom.jiongji.andriod.card
p1576
g1106
sVcom.android.gallery3d
p1577
g660
sg555
g248
sVcom.UCMobile
p1578
g342
sVcom.android.settings
p1579
g1250
sVcom.sina.weibo
p1580
g448
sVcom.tencent.mm
p1581
g874
sVcom.android.mms
p1582
g1294
sg1306
g180
sVcom.tiexue.ms
p1583
g1344
sg557
g768
sg571
g1032
sVcom.tencent.mobileqq
p1584
g1160
ssg43
(dp1585
Vcom.android.browser
p1586
g149
sVcom.jiongji.andriod.card
p1587
g1108
sg583
g250
sVcom.sina.weibo
p1588
g450
sg67
g832
sVcom.android.mms
p1589
g1295
sVcom.baidu.netdisk
p1590
g293
sVcom.example.android.notepad
p1591
g403
sVcom.huawei.android.launcher
p1592
g1033
sg1399
g1346
sg318
g1252
sVcom.baidu.tieba
p1593
g1394
sVcom.tencent.mm
p1594
g875
sVcom.tencent.mobileqq
p1595
g1162
ssg45
(dp1596
g605
g1254
sVcom.sina.weibo
p1597
g458
sVcom.baidu.netdisk
p1598
g290
sVcom.tiexue.ms
p1599
g1356
sVcom.UCMobile
p1600
g351
sg79
g1009
sVcom.huawei.android.launcher
p1601
g1034
sg616
g877
sVcom.tencent.mobileqq
p1602
g1163
ssg47
(dp1603
Vcom.huawei.hidisk
p1604
g771
sVcom.iBookStar.activity
p1605
g430
sVcom.huawei.android.launcher
p1606
g1036
sg784
g1255
ssg49
(dp1607
Vcom.tencent.mobileqq
p1608
g1164
sg795
g1296
sVcom.qihoo360.mobilesafe
p1609
g700
sVcom.UCMobile
p1610
g344
sVcom.huawei.android.launcher
p1611
g1037
sVcom.fanli.android.apps
p1612
g798
sVcom.tencent.mm
p1613
g880
sg1248
g491
ssg51
(dp1614
Vcom.kugou.android
p1615
g986
sg636
g130
sVcom.jiongji.andriod.card
p1616
g1110
sg638
g252
sg449
g589
sVcom.tencent.mobileqq
p1617
g1148
sg640
g859
sg1444
g1297
sVcom.UCMobile
p1618
g325
sVcom.huawei.android.launcher
p1619
g1038
sg1001
g960
sg1588
g452
ssg53
(dp1620
Vcom.jiongji.andriod.card
p1621
g1111
sg71
g920
sVcom.youdao.dict
p1622
g254
sVcom.UCMobile
p1623
g329
sg663
g883
sg677
g454
sVcom.qihoo360.mobilesafe
p1624
g704
sVcom.android.mms
p1625
g1299
sVcom.moji.mjweather
p1626
g211
sVcom.tiexue.ms
p1627
g1352
sg921
g776
sVcom.huawei.android.launcher
p1628
g1039
sVcom.mediatek.FMRadio
p1629
g811
sg675
g955
sVcom.tencent.mobileqq
p1630
g1167
sVcn.wps.moffice_eng
p1631
g554
ssg55
(dp1632
g8
g127
sg636
g153
sVcom.jiongji.andriod.card
p1633
g1113
sg1091
g219
sVcom.mobilecaltronics.calculator
p1634
g184
sVcom.UCMobile
p1635
g347
sg1395
g456
sVcom.android.contacts
p1636
g504
sVcom.changba
p1637
g598
sg49
g634
sg129
g642
sVcom.android.gallery3d
p1638
g668
sg497
g745
sg885
g779
sVcom.android.phone
p1639
g973
sVcom.tencent.mobileqq
p1640
g1168
sVcom.tencent.mm
p1641
g884
sVcom.huawei.android.launcher
p1642
g1041
sVcom.docin.zlibrary.ui.android
p1643
g537
sg489
g1257
sVcom.android.mms
p1644
g1301
sVcom.tiexue.ms
p1645
g1354
sg204
g1380
sg113
g1405
ssg57
(dp1646
Vcom.android.browser
p1647
g139
sVcom.android.mms
p1648
g1303
sVcom.youdao.dict
p1649
g256
sg737
g1170
sVcom.sina.weibo
p1650
g444
sg1524
g967
sVcom.android.gallery3d
p1651
g674
sVcom.tiexue.ms
p1652
g1338
sVcom.qihoo360.mobilesafe
p1653
g706
sg742
g305
sVcom.UCMobile
p1654
g349
sVcom.huawei.android.launcher
p1655
g1042
sVcom.mediatek.FMRadio
p1656
g819
sg759
g1245
sg974
g396
sg753
g868
sVcom.android.contacts
p1657
g498
sg757
g518
ssg59
(dp1658
Vcom.android.browser
p1659
g155
sVcom.jiongji.andriod.card
p1660
g1114
sg71
g922
sg17
g257
sg1582
g1305
sg109
g1383
sg47
g624
sVcom.tencent.mm
p1661
g886
sg775
g662
sVcom.baidu.netdisk
p1662
g295
sVcom.qihoo360.mobilesafe
p1663
g708
sVcom.UCMobile
p1664
g343
sg81
g1043
sVcom.tiexue.ms
p1665
g1348
sVcom.android.settings
p1666
g1259
sg31
g427
sg89
g1171
sg115
g1416
sVcn.wps.moffice_eng
p1667
g558
ssg61
(dp1668
g1635
g352
sg1641
g887
sg55
g709
ssg63
(dp1669
Vcom.huawei.android.launcher
p1670
g1044
sVcom.tencent.mm
p1671
g888
sVcom.tencent.mobileqq
p1672
g1173
sVcom.qihoo360.mobilesafe
p1673
g710
ssg65
(dp1674
Vcom.android.browser
p1675
g157
sg802
g1116
sVcom.youdao.dict
p1676
g259
sVcom.changba
p1677
g603
sVcom.sina.weibo
p1678
g461
sVcom.tencent.mm
p1679
g890
sVcom.tiexue.ms
p1680
g1357
sVcom.UCMobile
p1681
g354
sVcom.huawei.android.launcher
p1682
g1045
sVcom.baidu.tieba
p1683
g1411
sVcom.tencent.mobileqq
p1684
g1174
ssg67
(dp1685
Vcom.android.browser
p1686
g159
sg1587
g1118
sVcom.youdao.dict
p1687
g267
sg292
g599
sVcn.com.fetion
p1688
g946
sVcom.tencent.mm
p1689
g898
sg1474
g221
sVcom.kugou.android
p1690
g994
sg1590
g312
sg212
g1362
sVcom.taobao.taobao
p1691
g752
sg968
g356
sg1634
g190
sVcom.huawei.android.launcher
p1692
g1046
sg269
g1081
sg183
g714
sVcom.android.settings
p1693
g1261
sVcom.sina.weibo
p1694
g463
sg35
g492
sg757
g524
sVcom.tencent.mobileqq
p1695
g1182
ssg69
(dp1696
Vcom.android.browser
p1697
g161
sVcom.jiongji.andriod.card
p1698
g1120
sg324
g641
sg956
g274
sg424
g299
sg1635
g358
sg117
g1421
sVcom.tiexue.ms
p1699
g1333
sg1498
g431
sVcom.sina.weibo
p1700
g465
sg546
g488
sg146
g574
sg831
g586
sg623
g787
sg47
g625
sg15
g225
sVcom.android.gallery3d
p1701
g664
sg55
g713
sg57
g754
sVair.fyzb3
p1702
g617
sg61
g793
sVcom.mediatek.FMRadio
p1703
g805
sVcom.android.systemui
p1704
g836
sg420
g1176
sg264
g926
sg1688
g935
sg1481
g958
sVcom.kugou.android
p1705
g990
sVcom.huawei.android.launcher
p1706
g1062
sVcom.xtuone.android.syllabus
p1707
g1073
sVcom.docin.zlibrary.ui.android
p1708
g533
sg370
g1206
sg206
g1234
sVcom.android.settings
p1709
g1271
sg103
g1310
sg1539
g414
sVcom.baidu.tieba
p1710
g1409
ssg71
(dp1711
Vcom.youdao.dict
p1712
g265
sVcom.tencent.mobileqq
p1713
g1178
sg775
g658
sg661
g766
sVcom.huawei.android.launcher
p1714
g1048
sVcom.android.systemui
p1715
g842
sVcom.tencent.mm
p1716
g894
ssg73
(dp1717
Vcom.android.browser
p1718
g163
sVcom.android.settings
p1719
g1264
sVcom.tencent.mm
p1720
g896
sVcom.android.mms
p1721
g1313
sVcom.tiexue.ms
p1722
g1360
sg1368
g1220
sg111
g1391
sVcom.huawei.android.launcher
p1723
g1049
sVcom.qihoo360.mobilesafe
p1724
g716
sVcom.sina.weibo
p1725
g469
sVcom.tencent.mobileqq
p1726
g1180
ssg75
(dp1727
g1615
g1002
sg1551
g676
sVcom.youdao.dict
p1728
g261
sVcom.tencent.mobileqq
p1729
g1175
sVcom.tencent.mm
p1730
g892
sg493
g1309
sg1555
g712
sg1557
g359
sVcom.huawei.android.launcher
p1731
g1050
sg729
g1358
sg1559
g543
sg1560
g467
sVcom.android.contacts
p1732
g506
ssg77
(dp1733
Vcom.jiongji.andriod.card
p1734
g1122
sVcom.changba
p1735
g576
sVcom.tencent.mm
p1736
g900
sg991
g1312
sg995
g1364
sVcom.UCMobile
p1737
g361
sVcom.huawei.android.launcher
p1738
g1051
sVcom.tencent.mobileqq
p1739
g1184
ssg79
(dp1740
g1600
g362
sg1601
g1052
sVcom.tencent.mobileqq
p1741
g1186
sg350
g613
ssg81
(dp1742
g8
g125
sg11
g165
sg13
g188
sg15
g217
sg17
g268
sg19
g283
sg21
g309
sg1452
g364
sg25
g385
sVcom.sohu.inputmethod.sogou
p1743
g390
sg1539
g411
sg1498
g429
sVcom.sina.weibo
p1744
g471
sg35
g502
sg37
g522
sg39
g539
sg41
g572
sg43
g596
sg45
g615
sg1035
g622
sg49
g631
sg51
g644
sVcom.android.gallery3d
p1745
g672
sg55
g718
sVcom.taobao.taobao
p1746
g749
sg623
g783
sg61
g791
sg63
g800
sg1703
g817
sg67
g844
sg69
g901
sg71
g924
sg73
g944
sg75
g971
sg77
g1000
sg79
g1011
sg83
g1079
sVcom.jiongji.andriod.card
p1747
g1124
sg87
g1142
sg89
g1187
sg93
g1212
sg97
g1226
sg723
g1230
sg101
g1266
sg103
g1315
sg105
g1366
sg107
g1379
sg109
g1385
sg1463
g1388
sg113
g1404
sVcom.android.mediacenter
p1748
g1414
sg117
g1423
ssg83
(dp1749
Vcom.jiongji.andriod.card
p1750
g1126
sVcom.youdao.dict
p1751
g270
sVcom.tencent.mm
p1752
g903
sg49
g632
sg795
g1317
sg633
g719
sVcom.huawei.android.launcher
p1753
g1053
sVcom.tiexue.ms
p1754
g1367
sg1082
g1189
ssg85
(dp1755
Vcom.youdao.dict
p1756
g232
sVcom.mobilecaltronics.calculator
p1757
g178
sVcom.android.gallery3d
p1758
g656
sVinsigma.waybook
p1759
g1204
sVcom.changba
p1760
g580
sVcom.codoon.gps
p1761
g1224
sVcom.tencent.mm
p1762
g857
sVcom.sina.weibo
p1763
g435
sVcom.moji.mjweather
p1764
g201
sVcom.kugou.android
p1765
g985
sVcom.android.mms
p1766
g1279
sVcom.tiexue.ms
p1767
g1328
sVcom.example.android.notepad
p1768
g399
sVcom.UCMobile
p1769
g366
sVcom.huawei.android.launcher
p1770
g1054
sg503
g686
sVcom.android.phone
p1771
g953
sVcom.iBookStar.activity
p1772
g419
sVcom.tencent.mobileqq
p1773
g1147
sVcn.wps.moffice_eng
p1774
g552
sVcom.mediatek.FMRadio
p1775
g803
ssg87
(dp1776
Vcom.android.mms
p1777
g1318
sVcom.huawei.android.launcher
p1778
g1055
sVcom.example.android.notepad
p1779
g412
ssg89
(dp1780
g684
g169
sVcom.jiongji.andriod.card
p1781
g1128
sg959
g649
sVcom.youdao.dict
p1782
g263
sg439
g297
sg23
g369
sg27
g394
sg691
g416
sVcom.iBookStar.activity
p1783
g421
sg33
g474
sVcom.android.contacts
p1784
g510
sg1158
g526
sg41
g560
sg43
g601
sVair.fyzb3
p1785
g619
sg47
g626
sg15
g227
sg53
g682
sg1256
g722
sg705
g738
sVcom.huawei.hidisk
p1786
g789
sg1757
g192
sg1703
g823
sg1704
g850
sg69
g893
sVcn.com.fetion
p1787
g948
sVcom.android.phone
p1788
g982
sg1545
g1004
sVcom.android.mediacenter
p1789
g1418
sg782
g1047
sg83
g1083
sg1708
g545
sg93
g1216
sg489
g1263
sVcom.android.mms
p1790
g1321
sg105
g1359
sg107
g1377
sg313
g1407
ssg91
(dp1791
Vcom.huawei.android.launcher
p1792
g1056
sVcom.android.systemui
p1793
g827
ssg93
(dp1794
g1203
g1130
sVcom.moji.mjweather
p1795
g203
sg1790
g1319
sVcom.UCMobile
p1796
g371
sVcom.huawei.android.launcher
p1797
g1057
sg1320
g1191
sVcom.android.contacts
p1798
g486
ssg95
(dp1799
Vcom.huawei.android.launcher
p1800
g1058
sVcom.sina.weibo
p1801
g472
sg862
g291
ssg97
(dp1802
Vcom.jiongji.andriod.card
p1803
g1131
sg1221
g1269
sg1219
g941
sg938
g1369
sVcom.UCMobile
p1804
g332
sVcom.huawei.android.launcher
p1805
g1059
ssg99
(dp1806
g231
g1132
sg1756
g272
sVcom.tencent.mobileqq
p1807
g1192
sVcom.moji.mjweather
p1808
g207
sVcom.qihoo360.mobilesafe
p1809
g724
sVcom.huawei.android.launcher
p1810
g1060
sVcom.tencent.mm
p1811
g906
ssg101
(dp1812
g321
g171
sVcom.jiongji.andriod.card
p1813
g1134
sg687
g280
sg133
g319
sVcom.UCMobile
p1814
g373
sVcom.taobao.taobao
p1815
g760
sVcom.sina.weibo
p1816
g482
sg1784
g490
sg37
g515
sg45
g606
sg1035
g628
sVcom.qihoo360.mobilesafe
p1817
g726
sg1258
g785
sVcom.mediatek.FMRadio
p1818
g821
sVcom.android.systemui
p1819
g846
sVcom.tencent.mm
p1820
g908
sg162
g933
sg1565
g1069
sVcom.xtuone.android.syllabus
p1821
g1085
sg39
g531
sVinsigma.waybook
p1822
g1214
sg97
g1222
sg509
g1193
sVcom.tiexue.ms
p1823
g1371
ssg103
(dp1824
Vcom.android.browser
p1825
g173
sVcom.jiongji.andriod.card
p1826
g1136
sVcom.youdao.dict
p1827
g276
sg408
g301
sVcom.UCMobile
p1828
g375
sVcom.tiexue.ms
p1829
g1373
sg1772
g423
sVcom.sina.weibo
p1830
g476
sVcom.android.contacts
p1831
g494
sVcom.docin.zlibrary.ui.android
p1832
g535
sVcn.wps.moffice_eng
p1833
g564
sg292
g590
sVcom.huawei.hidisk
p1834
g769
sVcom.android.gallery3d
p1835
g666
sVcom.qihoo360.mobilesafe
p1836
g728
sVcom.taobao.taobao
p1837
g741
sVair.fyzb3
p1838
g608
sg63
g796
sVcom.android.phone
p1839
g962
sVcom.tencent.mm
p1840
g910
sVcom.kugou.android
p1841
g992
sg67
g837
sg73
g937
sg843
g1063
sg87
g1144
sVinsigma.waybook
p1842
g1208
sVcom.tencent.mobileqq
p1843
g1194
sg1768
g407
sVcom.android.settings
p1844
g1273
ssg105
(dp1845
g825
g175
sVcom.jiongji.andriod.card
p1846
g1138
sg451
g646
sVcom.youdao.dict
p1847
g278
sVcom.baidu.netdisk
p1848
g311
sVcom.UCMobile
p1849
g377
sg25
g387
sg304
g751
sg1287
g478
sg445
g496
sg447
g568
sg43
g591
sg808
g213
sg1353
g730
sg889
g813
sg897
g839
sg1332
g912
sg468
g939
sg891
g966
sVcom.kugou.android
p1850
g996
sg1592
g1064
sVinsigma.waybook
p1851
g1210
sg600
g1196
sVcom.android.mms
p1852
g1323
sg1593
g1400
sVcom.android.settings
p1853
g1275
ssg107
(dp1854
g1456
g1139
sVcom.moji.mjweather
p1855
g205
sVcom.huawei.android.launcher
p1856
g1065
ssg109
(dp1857
Vcom.UCMobile
p1858
g378
sVcom.huawei.android.launcher
p1859
g1066
sVcom.huawei.hidisk
p1860
g770
ssg111
(dp1861
Vcn.com.fetion
p1862
g942
sVcom.huawei.android.launcher
p1863
g1067
ssg113
(dp1864
Vcom.tencent.mm
p1865
g914
sg1395
g480
sVcom.moji.mjweather
p1866
g223
sg1397
g314
sg455
g731
sVcom.UCMobile
p1867
g380
sg1403
g1068
sVcom.tiexue.ms
p1868
g1374
sVcom.android.systemui
p1869
g848
sVcom.tencent.mobileqq
p1870
g1197
ssg115
(dp1871
Vcom.huawei.hidisk
p1872
g788
sg1417
g1199
ssg117
(dp1873
Vcom.tencent.mobileqq
p1874
g1200
sVcom.huawei.android.launcher
p1875
g1070
sVcom.youdao.dict
p1876
g238
sssS'adj'
p1877
g122
sb.