ccopy_reg
_reconstructor
p1
(cnetworkx.classes.digraph
DiGraph
p2
c__builtin__
object
p3
NtRp4
(dp5
S'node'
p6
(dp7
Vcom.android.calendar
p8
(dp9
S'weight'
p10
F0.00021188959001948351
ssVcom.ksider.mobile.android.WebView
p11
(dp12
g10
F0.00014987312464792736
ssVcom.xfplay.play
p13
(dp14
g10
F0.0049871574236293069
ssVcom.android.thememanager
p15
(dp16
g10
F0.00020155351245755749
ssVcom.android.deskclock
p17
(dp18
g10
F0.0001292009695240753
ssVcom.UCMobile
p19
(dp20
g10
F0.0076228572019204433
ssVcom.tencent.pb
p21
(dp22
g10
F0.0010801201052212696
ssVcom.miui.gallery
p23
(dp24
g10
F0.0011731448032786039
ssVcom.tencent.android.qqdownloader
p25
(dp26
g10
F0.0015038992852602366
ssVcom.storm.smart
p27
(dp28
g10
F0.00023772978392429858
ssVcom.xingjiabi.shengsheng
p29
(dp30
g10
F9.3024698057334222e-05
ssVcn.kidstone.cartoon
p31
(dp32
g10
F0.0064342082822989501
ssVcom.sina.weibo
p33
(dp34
g10
F0.0085944484927414893
ssVcom.tencent.map
p35
(dp36
g10
F0.00085789443763986
ssVca.jasonrtbond.moonsun
p37
(dp38
g10
F5.1680387809630121e-06
ssVcom.android.packageinstaller
p39
(dp40
g10
F0.00052713995565822729
ssVcom.android.incallui
p41
(dp42
g10
F0.00015504116342889037
ssVcom.tencent.mtt
p43
(dp44
g10
F0.00095608717447815729
ssVcom.ikm
p45
(dp46
g10
F0.0047494276397050082
ssVcom.tencent.mm
p47
(dp48
g10
F0.064409267327142028
ssVcom.tencent.news
p49
(dp50
g10
F0.00016537724099081639
ssVcom.android.fileexplorer
p51
(dp52
g10
F0.0010542799113164546
ssVcom.android.quicksearchbox
p53
(dp54
g10
F1.5504116342889037e-05
ssVcom.mishi.android.mainapp
p55
(dp56
g10
F0.0005529801495630423
ssVcom.tencent.mobileqq
p57
(dp58
g10
F0.030470756652557923
ssVcom.xunlei.downloadprovider
p59
(dp60
g10
F0.002842421329529657
ssVcom.xiaomi.smarthome
p61
(dp62
g10
F2.5840193904815063e-05
ssVcom.sohu.inputmethod.sogou
p63
(dp64
g10
F4.1344310247704096e-05
ssVcom.miui.home
p65
(dp66
g10
F0.76437877589833436
ssVcom.tencent.reading
p67
(dp68
g10
F0.036414001250665386
ssVcom.u17.comic.phone
p69
(dp70
g10
F0.045587270086874729
ssVcom.android.settings
p71
(dp72
g10
F0.012584174431644935
ssVcom.miui.video
p73
(dp74
g10
F8.2688620495408193e-05
ssVcom.xiaomi.hm.health
p75
(dp76
g10
F9.819273683829723e-05
ssVcmb.pb
p77
(dp78
g10
F0.0007390295456777108
ssVcom.tencent.rtxlite
p79
(dp80
g10
F0.00029457821051489169
ssVcom.ct.client
p81
(dp82
g10
F0.00056848426590593135
ssVcom.android.camera
p83
(dp84
g10
F5.1680387809630121e-06
sssS'graph'
p85
(dp86
sS'succ'
p87
(dp88
g8
(dp89
Vcom.miui.home
p90
(dp91
g10
F2.7000000000000002
ssVcom.tencent.mobileqq
p92
(dp93
g10
F0.90000000000000002
sssg11
(dp94
g55
(dp95
g10
F0.90000000000000002
ssVcom.miui.home
p96
(dp97
g10
F1.7
ssVcom.tencent.mobileqq
p98
(dp99
g10
F0.40000000000000002
sssg13
(dp100
Vcom.xunlei.downloadprovider
p101
(dp102
g10
F2.7000000000000002
ssVcn.kidstone.cartoon
p103
(dp104
g10
F2.2000000000000002
ssg75
(dp105
g10
F0.40000000000000002
ssVcom.android.packageinstaller
p106
(dp107
g10
F1.7
ssVcom.android.fileexplorer
p108
(dp109
g10
F2.5
ssVcom.android.quicksearchbox
p110
(dp111
g10
F0.40000000000000002
ssVcom.tencent.mtt
p112
(dp113
g10
F1.7
ssVcom.miui.home
p114
(dp115
g10
F17.199999999999999
ssVcom.tencent.mobileqq
p116
(dp117
g10
F3.8999999999999999
ssVcom.UCMobile
p118
(dp119
g10
I1
sssg15
(dp120
Vcom.tencent.mm
p121
(dp122
g10
F0.69999999999999996
ssVcom.miui.home
p123
(dp124
g10
F1.3
ssVcom.tencent.pb
p125
(dp126
g10
I1
sssg17
(dp127
sg19
(dp128
g59
(dp129
g10
F0.90000000000000002
ssg31
(dp130
g10
F0.40000000000000002
ssVcom.u17.comic.phone
p131
(dp132
g10
F0.90000000000000002
ssVcom.tencent.mobileqq
p133
(dp134
g10
F0.90000000000000002
ssVcom.xfplay.play
p135
(dp136
g10
F1.3
ssVcom.android.fileexplorer
p137
(dp138
g10
F1.3
ssVcom.tencent.pb
p139
(dp140
g10
I1
ssVcom.tencent.android.qqdownloader
p141
(dp142
g10
F0.40000000000000002
ssVcom.miui.home
p143
(dp144
g10
F10.799999999999999
ssVcom.sina.weibo
p145
(dp146
g10
I1
ssg106
(dp147
g10
F0.69999999999999996
sssg21
(dp148
Vcom.UCMobile
p149
(dp150
g10
I1
ssg137
(dp151
g10
F0.69999999999999996
ssg121
(dp152
g10
F0.90000000000000002
ssVcom.android.incallui
p153
(dp154
g10
I1
ssg81
(dp155
g10
F2.2999999999999998
ssVcom.miui.home
p156
(dp157
g10
F8.6000000000000014
ssVcom.tencent.mobileqq
p158
(dp159
g10
F2.1000000000000001
sssg23
(dp160
Vcom.android.fileexplorer
p161
(dp162
g10
F2.6000000000000001
ssVcom.xfplay.play
p163
(dp164
g10
F0.90000000000000002
ssVcom.miui.home
p165
(dp166
g10
F3.2999999999999998
sssg25
(dp167
g11
(dp168
g10
F1.3
ssVcom.android.fileexplorer
p169
(dp170
g10
F0.90000000000000002
ssVcom.tencent.mm
p171
(dp172
g10
F1.7
ssVcom.android.packageinstaller
p173
(dp174
g10
F5.4000000000000004
ssg79
(dp175
g10
F0.90000000000000002
ssg55
(dp176
g10
F0.40000000000000002
ssVcom.miui.home
p177
(dp178
g10
F4.1000000000000005
ssVcom.tencent.mobileqq
p179
(dp180
g10
F0.40000000000000002
sssg27
(dp181
sg29
(dp182
Vcom.miui.home
p183
(dp184
g10
I1
sssg31
(dp185
Vcom.xunlei.downloadprovider
p186
(dp187
g10
F0.40000000000000002
ssVcom.xfplay.play
p188
(dp189
g10
F0.90000000000000002
ssg75
(dp190
g10
F0.90000000000000002
ssVcom.tencent.android.qqdownloader
p191
(dp192
g10
F0.90000000000000002
ssVcom.miui.home
p193
(dp194
g10
F6.1000000000000005
ssVcom.tencent.mm
p195
(dp196
g10
F2.2999999999999998
sssg33
(dp197
Vcom.tencent.news
p198
(dp199
g10
F0.40000000000000002
ssVcom.tencent.mobileqq
p200
(dp201
g10
F0.90000000000000002
ssg173
(dp202
g10
F0.69999999999999996
ssVcom.UCMobile
p203
(dp204
g10
F0.69999999999999996
ssg63
(dp205
g10
F1.3
ssVcom.tencent.android.qqdownloader
p206
(dp207
g10
F1.3
ssg53
(dp208
g10
F0.90000000000000002
ssVcom.miui.home
p209
(dp210
g10
F9.5000000000000018
ssVcom.tencent.mm
p211
(dp212
g10
F13.1
sssg35
(dp213
Vcom.UCMobile
p214
(dp215
g10
F0.90000000000000002
ssVcom.miui.home
p216
(dp217
g10
F1.7
ssg133
(dp218
g10
F0.40000000000000002
sssg37
(dp219
g29
(dp220
g10
F0.90000000000000002
ssVcom.miui.home
p221
(dp222
g10
F1.7
sssg39
(dp223
g11
(dp224
g10
F1.7
ssVcom.xfplay.play
p225
(dp226
g10
F1.7
ssVcom.tencent.android.qqdownloader
p227
(dp228
g10
F3.7000000000000002
ssg55
(dp229
g10
F0.69999999999999996
ssg112
(dp230
g10
F0.90000000000000002
ssVcom.miui.home
p231
(dp232
g10
F3
ssVcom.tencent.mm
p233
(dp234
g10
F1.8999999999999999
sssg41
(dp235
Vcom.miui.home
p236
(dp237
g10
F0.90000000000000002
ssVcom.tencent.pb
p238
(dp239
g10
I1
sssg43
(dp240
g103
(dp241
g10
F0.69999999999999996
ssVcom.tencent.mobileqq
p242
(dp243
g10
F1.8999999999999999
ssVcom.xfplay.play
p244
(dp245
g10
I1
ssg206
(dp246
g10
F0.40000000000000002
ssVcom.miui.home
p247
(dp248
g10
F4.7000000000000002
ssVcom.sina.weibo
p249
(dp250
g10
F1.3
sssg45
(dp251
Vcom.sina.weibo
p252
(dp253
g10
F1.7
ssVcom.miui.home
p254
(dp255
g10
I2
ssVcom.tencent.mobileqq
p256
(dp257
g10
F1.8999999999999999
sssg47
(dp258
g203
(dp259
g10
F2.2999999999999998
ssg101
(dp260
g10
F0.90000000000000002
ssg198
(dp261
g10
F0.90000000000000002
ssg108
(dp262
g10
F0.40000000000000002
ssVcom.tencent.reading
p263
(dp264
g10
F0.90000000000000002
ssg8
(dp265
g10
F1.3
ssVcom.tencent.mobileqq
p266
(dp267
g10
F8.9000000000000004
ssVcom.xfplay.play
p268
(dp269
g10
I2
ssg153
(dp270
g10
F0.69999999999999996
ssVcom.tencent.pb
p271
(dp272
g10
F1.3
ssVcom.tencent.android.qqdownloader
p273
(dp274
g10
F5.2999999999999998
ssg63
(dp275
g10
F1.7
ssg29
(dp276
g10
F0.40000000000000002
ssVcom.miui.home
p277
(dp278
g10
F37.899999999999991
ssVcom.sina.weibo
p279
(dp280
g10
F14.399999999999999
ssVcom.android.packageinstaller
p281
(dp282
g10
F1.8
ssg37
(dp283
g10
F0.90000000000000002
sssg49
(dp284
g271
(dp285
g10
F0.69999999999999996
ssg153
(dp286
g10
F0.40000000000000002
ssVcom.miui.home
p287
(dp288
g10
F3.6000000000000001
ssVcom.tencent.mm
p289
(dp290
g10
I1
ssVcom.tencent.reading
p291
(dp292
g10
F0.90000000000000002
sssg51
(dp293
Vcom.xunlei.downloadprovider
p294
(dp295
g10
F0.90000000000000002
ssg23
(dp296
g10
I2
ssVcom.android.packageinstaller
p297
(dp298
g10
I1
ssVcom.UCMobile
p299
(dp300
g10
F0.40000000000000002
ssg141
(dp301
g10
F0.90000000000000002
ssg110
(dp302
g10
F0.90000000000000002
ssVcom.miui.home
p303
(dp304
g10
F13.799999999999999
ssg57
(dp305
g10
F3.1000000000000001
ssg163
(dp306
g10
F0.69999999999999996
sssg53
(dp307
Vcom.miui.home
p308
(dp309
g10
I1
sssg55
(dp310
g77
(dp311
g10
F0.40000000000000002
ssVcom.miui.home
p312
(dp313
g10
F1.7
ssg98
(dp314
g10
F0.90000000000000002
sssg57
(dp315
g31
(dp316
g10
F1.3
ssVcom.tencent.news
p317
(dp318
g10
I1
ssVcom.android.fileexplorer
p319
(dp320
g10
F2.1000000000000001
ssVcom.tencent.reading
p321
(dp322
g10
F3.1999999999999997
ssg8
(dp323
g10
F1.6000000000000001
ssg252
(dp324
g10
F2.6000000000000001
ssVcom.xfplay.play
p325
(dp326
g10
F2.7000000000000002
ssVcom.xiaomi.hm.health
p327
(dp328
g10
F0.90000000000000002
ssg77
(dp329
g10
F0.90000000000000002
ssVcom.tencent.rtxlite
p330
(dp331
g10
F1.3
ssVcom.tencent.pb
p332
(dp333
g10
F2.2999999999999998
ssg23
(dp334
g10
F0.69999999999999996
ssg27
(dp335
g10
F0.90000000000000002
ssg81
(dp336
g10
F0.40000000000000002
ssg83
(dp337
g10
I1
ssVcom.tencent.mtt
p338
(dp339
g10
I1
ssVcom.miui.home
p340
(dp341
g10
F51.600000000000001
ssVcom.tencent.mm
p342
(dp343
g10
F13.800000000000001
ssVcom.ikm
p344
(dp345
g10
F1.3999999999999999
sssg59
(dp346
g108
(dp347
g10
F0.90000000000000002
ssg135
(dp348
g10
F1.3
ssVcom.miui.home
p349
(dp350
g10
F5.8000000000000007
ssg299
(dp351
g10
F0.90000000000000002
sssg61
(dp352
sg63
(dp353
Vcom.sina.weibo
p354
(dp355
g10
F1.3
ssVcom.tencent.mm
p356
(dp357
g10
F1.7
sssg65
(dp358
g135
(dp359
g10
F11.199999999999999
ssg15
(dp360
g10
F0.90000000000000002
ssg17
(dp361
g10
I3
ssg19
(dp362
g10
F9.6999999999999993
ssg21
(dp363
g10
F8
ssg25
(dp364
g10
F6.8000000000000007
ssg27
(dp365
g10
I1
ssg29
(dp366
g10
F1.7
ssg31
(dp367
g10
F6.1000000000000005
ssg279
(dp368
g10
F5.9000000000000004
ssg37
(dp369
g10
I1
ssg79
(dp370
g10
F3.3999999999999999
ssg106
(dp371
g10
F4.2999999999999998
ssg41
(dp372
g10
F1.8999999999999999
ssg43
(dp373
g10
F2.1000000000000001
ssg344
(dp374
g10
F2.3999999999999999
ssg57
(dp375
g10
F51.000000000000007
ssg49
(dp376
g10
F4.2999999999999998
ssVcom.tencent.mm
p377
(dp378
g10
F38.600000000000009
ssg51
(dp379
g10
F13.499999999999998
ssg53
(dp380
g10
F2.7000000000000002
ssg55
(dp381
g10
I1
ssg59
(dp382
g10
F9.5
ssg61
(dp383
g10
I2
ssg23
(dp384
g10
F1.3
ssg291
(dp385
g10
F9.5
ssg8
(dp386
g10
F2.7000000000000002
ssg71
(dp387
g10
I3
ssg73
(dp388
g10
I1
ssg75
(dp389
g10
F2.7000000000000002
ssg77
(dp390
g10
F1.7
ssg131
(dp391
g10
I2
ssg81
(dp392
g10
F2.3999999999999999
ssg83
(dp393
g10
F0.90000000000000002
sssg67
(dp394
g59
(dp395
g10
F0.40000000000000002
ssVcom.tencent.mm
p396
(dp397
g10
F2.3999999999999999
ssg15
(dp398
g10
I1
ssVcom.UCMobile
p399
(dp400
g10
F0.90000000000000002
ssg125
(dp401
g10
F0.90000000000000002
ssVcom.miui.home
p402
(dp403
g10
F9
ssVcom.tencent.mobileqq
p404
(dp405
g10
F2.2999999999999998
sssg69
(dp406
g79
(dp407
g10
F0.40000000000000002
ssVcom.miui.home
p408
(dp409
g10
F5.7000000000000002
ssVcom.tencent.mobileqq
p410
(dp411
g10
I1
ssg25
(dp412
g10
F1.8999999999999999
ssg19
(dp413
g10
F0.90000000000000002
sssg71
(dp414
Vcom.xunlei.downloadprovider
p415
(dp416
g10
F0.90000000000000002
ssg49
(dp417
g10
F0.90000000000000002
ssg291
(dp418
g10
F0.40000000000000002
ssg41
(dp419
g10
F0.90000000000000002
ssg43
(dp420
g10
F0.90000000000000002
ssVcom.miui.home
p421
(dp422
g10
F5.4000000000000004
ssg242
(dp423
g10
F0.40000000000000002
sssg73
(dp424
Vcom.miui.home
p425
(dp426
g10
I1
sssg75
(dp427
g186
(dp428
g10
F0.90000000000000002
ssVcom.xfplay.play
p429
(dp430
g10
F0.40000000000000002
ssVcom.miui.home
p431
(dp432
g10
F1.7
sssg77
(dp433
Vcom.android.calendar
p434
(dp435
g10
F0.40000000000000002
ssVcom.miui.home
p436
(dp437
g10
F1.7
ssVcom.tencent.mobileqq
p438
(dp439
g10
F0.90000000000000002
sssg79
(dp440
Vcom.miui.home
p441
(dp442
g10
I2
ssg256
(dp443
g10
F0.69999999999999996
ssg344
(dp444
g10
F1.3
sssg81
(dp445
g158
(dp446
g10
F1.3
ssVcom.miui.home
p447
(dp448
g10
F1.7
ssVcom.tencent.pb
p449
(dp450
g10
I1
sssg83
(dp451
g332
(dp452
g10
F0.69999999999999996
ssVcom.miui.home
p453
(dp454
g10
F1.3
ssVcom.tencent.mobileqq
p455
(dp456
g10
I1
ssssS'edge'
p457
g88
sS'pred'
p458
(dp459
g8
(dp460
g77
g435
sVcom.tencent.mobileqq
p461
g323
sVcom.miui.home
p462
g386
sVcom.tencent.mm
p463
g265
ssg11
(dp464
g173
g224
sg206
g168
ssg13
(dp465
g294
g348
sg103
g189
sVcom.android.fileexplorer
p466
g306
sg75
g430
sVcom.tencent.mobileqq
p467
g326
sg106
g226
sg299
g136
sVcom.miui.gallery
p468
g164
sg112
g245
sVcom.miui.home
p469
g359
sVcom.tencent.mm
p470
g269
ssg15
(dp471
Vcom.miui.home
p472
g360
sVcom.tencent.reading
p473
g398
ssg17
(dp474
Vcom.miui.home
p475
g361
ssg19
(dp476
g294
g351
sg35
g215
sVcom.tencent.reading
p477
g400
sVcom.u17.comic.phone
p478
g413
sVcom.tencent.mm
p479
g259
sVcom.xfplay.play
p480
g119
sg108
g300
sg139
g150
sVcom.miui.home
p481
g362
sVcom.sina.weibo
p482
g204
ssg21
(dp483
g198
g285
sVcom.UCMobile
p484
g140
sVcom.tencent.mobileqq
p485
g333
sg473
g401
sg15
g126
sg153
g239
sg81
g450
sg83
g452
sVcom.miui.home
p486
g363
sg289
g272
ssg23
(dp487
g319
g296
sVcom.miui.home
p488
g384
sVcom.tencent.mobileqq
p489
g334
ssg25
(dp490
Vcn.kidstone.cartoon
p491
g192
sg137
g301
sg69
g412
sVcom.tencent.mm
p492
g274
sg173
g228
sg149
g142
sg338
g246
sg408
g364
sg249
g207
ssg27
(dp493
Vcom.miui.home
p494
g365
sVcom.tencent.mobileqq
p495
g335
ssg29
(dp496
Vcom.miui.home
p497
g366
sVcom.tencent.mm
p498
g276
sg37
g220
ssg31
(dp499
g214
g130
sg225
g104
sg143
g367
sg133
g316
sg112
g241
ssg33
(dp500
g344
g253
sg211
g280
sg203
g146
sg63
g355
sVcom.tencent.mtt
p501
g250
sg209
g368
sg256
g324
ssg35
(dp502
sg37
(dp503
g497
g369
sg498
g283
ssg39
(dp504
Vcom.android.fileexplorer
p505
g298
sVcom.tencent.mm
p506
g282
sg135
g107
sg299
g147
sg206
g174
sg469
g371
sg249
g202
ssg41
(dp507
Vcom.android.settings
p508
g419
sVcom.miui.home
p509
g372
sg289
g270
sg198
g286
sg271
g154
ssg43
(dp510
g71
g420
sg135
g113
sVcom.miui.home
p511
g373
sVcom.tencent.mobileqq
p512
g339
sg106
g230
ssg45
(dp513
g330
g444
sVcom.miui.home
p514
g374
sVcom.tencent.mobileqq
p515
g345
ssg47
(dp516
g31
g196
sg198
g290
sg67
g397
sVcom.tencent.mobileqq
p517
g343
sg39
g234
sg15
g122
sg63
g357
sVcom.tencent.android.qqdownloader
p518
g172
sg125
g152
sg277
g378
sg33
g212
ssg49
(dp519
Vcom.android.settings
p520
g417
sVcom.tencent.mm
p521
g261
sVcom.miui.home
p522
g376
sg279
g199
sVcom.tencent.mobileqq
p523
g318
ssg51
(dp524
g101
g347
sg23
g162
sg489
g320
sVcom.xfplay.play
p525
g109
sg484
g138
sg139
g151
sg141
g170
sg65
g379
sVcom.tencent.mm
p526
g262
ssg53
(dp527
Vcom.android.fileexplorer
p528
g302
sVcom.xfplay.play
p529
g111
sVcom.miui.home
p530
g380
sVcom.sina.weibo
p531
g208
ssg55
(dp532
Vcom.android.packageinstaller
p533
g229
sg96
g381
sg11
g95
sg227
g176
ssg57
(dp534
g434
g93
sVcom.sina.weibo
p535
g201
sg344
g257
sg11
g99
sg35
g218
sg214
g134
sVcom.u17.comic.phone
p536
g411
sg71
g423
sg268
g117
sg321
g405
sg141
g180
sg77
g439
sg51
g305
sg449
g159
sg330
g443
sg55
g314
sg81
g446
sg83
g456
sg43
g243
sg65
g375
sg342
g267
ssg59
(dp537
Vcn.kidstone.cartoon
p538
g187
sg108
g295
sVcom.android.settings
p539
g416
sg525
g102
sg477
g395
sg399
g129
sg75
g428
sVcom.miui.home
p540
g382
sg526
g260
ssg61
(dp541
Vcom.miui.home
p542
g383
ssg63
(dp543
Vcom.tencent.mm
p544
g275
sVcom.sina.weibo
p545
g205
ssg65
(dp546
g11
g97
sg13
g115
sg15
g124
sg214
g144
sg21
g157
sg25
g178
sg69
g409
sg29
g184
sg31
g194
sg33
g210
sg35
g217
sg37
g222
sg39
g232
sg153
g237
sg43
g248
sg45
g255
sg47
g278
sg49
g288
sg51
g304
sg110
g309
sg55
g313
sg57
g341
sg101
g350
sg23
g166
sg291
g403
sg8
g91
sg71
g422
sg73
g426
sg75
g432
sg77
g437
sg79
g442
sg81
g448
sg83
g454
ssg67
(dp547
g520
g418
sg342
g264
sVcom.miui.home
p548
g385
sVcom.tencent.mobileqq
p549
g322
sg49
g292
ssg69
(dp550
Vcom.UCMobile
p551
g132
sVcom.miui.home
p552
g391
ssg71
(dp553
g511
g387
ssg73
(dp554
Vcom.miui.home
p555
g388
ssg75
(dp556
Vcom.tencent.mobileqq
p557
g328
sg188
g105
sVcom.miui.home
p558
g389
sg538
g190
ssg77
(dp559
g55
g311
sg312
g390
sg98
g329
ssg79
(dp560
g69
g407
sg408
g370
sVcom.tencent.mobileqq
p561
g331
sg25
g175
ssg81
(dp562
g332
g155
sg453
g392
sg455
g336
ssg83
(dp563
Vcom.miui.home
p564
g393
sg485
g337
sssS'adj'
p565
g88
sb.