ccopy_reg
_reconstructor
p1
(cnetworkx.classes.digraph
DiGraph
p2
c__builtin__
object
p3
NtRp4
(dp5
S'node'
p6
(dp7
Vcom.android.browser
p8
(dp9
S'weight'
p10
F0.00052003503393912849
ssVcom.chaozh.iReaderFree15
p11
(dp12
g10
F0.00016422158966498797
ssVorg.cocos2dx.GoldenFishGame
p13
(dp14
g10
F0.028547186336763741
ssVcom.autonavi.minimap
p15
(dp16
g10
F2.7370264944164661e-05
ssVcom.qiyi.video
p17
(dp18
g10
F0.020062404204072695
ssVcom.android.deskclock
p19
(dp20
g10
F0.0019706590759798557
ssVcom.xiaomi.hm.health
p21
(dp22
g10
F0.019077074666082768
ssVcom.hunantv.imgo.activity
p23
(dp24
g10
F0.17555287935187214
ssVcom.huawei.android.internal.app
p25
(dp26
g10
F0.0022717319903656666
ssVorg.cocos2dx.FishingJoy2
p27
(dp28
g10
F0.013876724326691483
ssVcom.android.contacts
p29
(dp30
g10
F0.026001751696956427
ssVcom.eg.android.AlipayGphone
p31
(dp32
g10
F0.0012864024523757389
ssVcom.qihoo.appstore
p33
(dp34
g10
F0.0033665425881322531
ssVcom.android.packageinstaller
p35
(dp36
g10
F0.00065688635865995186
ssVcom.adobe.reader
p37
(dp38
g10
F0.027917670243047952
ssVcom.android.gallery3d
p39
(dp40
g10
F0.0087584847821326906
ssVcom.dajie.official
p41
(dp42
g10
F0.00095795927304576306
ssVcom.taobao.taobao
p43
(dp44
g10
F0.032160061309393473
ssVcom.huawei.hidisk
p45
(dp46
g10
F0.0018611780162031968
ssVcom.nowcoder.app.florida
p47
(dp48
g10
F0.027780818918327128
ssVcom.tencent.mtt
p49
(dp50
g10
F0.089336544777753449
ssVcom.tencent.mm
p51
(dp52
g10
F0.30807970221151743
ssVcom.android.settings
p53
(dp54
g10
F0.0063225312021020367
ssVcom.baidu.searchbox_huawei
p55
(dp56
g10
F0.002490694109918984
ssVcom.tencent.androidqqmail
p57
(dp58
g10
F0.00046529450405079919
ssVcom.android.calculator
p59
(dp60
g10
F0.0048719071600613097
ssVorg.cocos2dx.FishingJoy2.Classic.qihu
p61
(dp62
g10
F0.0060488285526603897
ssVcn.wps.moffice_i18n
p63
(dp64
g10
F0.015902123932559666
ssVcom.tencent.qqlive
p65
(dp66
g10
F0.08315086490037224
ssVorg.cocos2d.fishingjoy3.qihu
p67
(dp68
g10
F0.05914714254433983
ssVcom.android.calendar
p69
(dp70
g10
F0.00030107291438581126
ssVcom.tencent.mobileqq
p71
(dp72
g10
F0.015902123932559666
ssVcom.qihoo360.mobilesafe
p73
(dp74
g10
F0.0026275454346398074
ssVcom.letv.android.client
p75
(dp76
g10
F0.0045982045106196627
ssVcom.android.video
p77
(dp78
g10
F0.00060214582877162251
ssVcom.huawei.appmarket
p79
(dp80
g10
F0.0070067878257061532
ssVcom.android.camera
p81
(dp82
g10
F0.00032844317932997593
sssS'node_dict_factory'
p83
c__builtin__
dict
p84
sS'edge_attr_dict_factory'
p85
g84
sS'succ'
p86
(dp87
g8
(dp88
Vcom.tencent.mtt
p89
(dp90
g10
F1.7
ssVcom.tencent.mm
p91
(dp92
g10
F0.40000000000000002
ssVcom.android.contacts
p93
(dp94
g10
F0.90000000000000002
sssg11
(dp95
Vcom.tencent.mm
p96
(dp97
g10
F1.7
ssVcom.taobao.taobao
p98
(dp99
g10
F1.3
sssg13
(dp100
Vcom.android.deskclock
p101
(dp102
g10
F0.90000000000000002
ssVcom.xiaomi.hm.health
p103
(dp104
g10
F0.69999999999999996
ssg67
(dp105
g10
I1
ssVcom.tencent.qqlive
p106
(dp107
g10
I1
sssg15
(dp108
Vcom.android.settings
p109
(dp110
g10
F0.69999999999999996
ssVcom.tencent.mtt
p111
(dp112
g10
F0.90000000000000002
ssVcom.android.contacts
p113
(dp114
g10
I1
ssg8
(dp115
g10
F0.40000000000000002
sssg17
(dp116
Vcom.tencent.mobileqq
p117
(dp118
g10
F0.90000000000000002
ssVcom.tencent.mm
p119
(dp120
g10
I1
ssVcom.hunantv.imgo.activity
p121
(dp122
g10
F0.40000000000000002
ssVcom.tencent.qqlive
p123
(dp124
g10
F0.69999999999999996
sssg19
(dp125
g103
(dp126
g10
I1
ssg49
(dp127
g10
F2.7000000000000002
ssVcom.tencent.mm
p128
(dp129
g10
F1.3
sssg21
(dp130
g51
(dp131
g10
F8.8000000000000007
ssVcom.qihoo360.mobilesafe
p132
(dp133
g10
F0.90000000000000002
ssVcom.qiyi.video
p134
(dp135
g10
I1
ssg75
(dp136
g10
I1
ssg43
(dp137
g10
F1.7
ssg19
(dp138
g10
F0.90000000000000002
ssVcn.wps.moffice_i18n
p139
(dp140
g10
F0.90000000000000002
ssg123
(dp141
g10
F0.40000000000000002
ssVcom.huawei.android.internal.app
p142
(dp143
g10
I1
ssg49
(dp144
g10
F0.69999999999999996
ssVcom.tencent.mobileqq
p145
(dp146
g10
F5.9000000000000004
ssVcom.android.contacts
p147
(dp148
g10
F1.5
sssg23
(dp149
g69
(dp150
g10
I1
ssVcom.tencent.mm
p151
(dp152
g10
F11.800000000000001
ssVcn.wps.moffice_i18n
p153
(dp154
g10
F0.90000000000000002
ssVcom.android.deskclock
p155
(dp156
g10
F1.7
ssVcom.xiaomi.hm.health
p157
(dp158
g10
I1
ssVcom.android.settings
p159
(dp160
g10
I1
ssVcom.huawei.android.internal.app
p161
(dp162
g10
I1
ssVcom.tencent.mobileqq
p163
(dp164
g10
F3.6999999999999997
sssg25
(dp165
g13
(dp166
g10
F0.90000000000000002
ssg17
(dp167
g10
F0.90000000000000002
ssg19
(dp168
g10
F0.40000000000000002
ssg21
(dp169
g10
F7.1000000000000014
ssg43
(dp170
g10
F0.69999999999999996
ssVcom.android.contacts
p171
(dp172
g10
F3.7999999999999998
ssVcom.qihoo.appstore
p173
(dp174
g10
F1.6000000000000001
ssg35
(dp175
g10
I3
ssg39
(dp176
g10
F0.69999999999999996
ssg132
(dp177
g10
F0.40000000000000002
ssVcom.huawei.hidisk
p178
(dp179
g10
F0.40000000000000002
ssVcom.nowcoder.app.florida
p180
(dp181
g10
F0.40000000000000002
ssVcom.tencent.mobileqq
p182
(dp183
g10
F2.2999999999999998
ssVcom.android.settings
p184
(dp185
g10
F0.69999999999999996
ssg55
(dp186
g10
F0.90000000000000002
ssg59
(dp187
g10
F0.90000000000000002
ssg61
(dp188
g10
F0.90000000000000002
ssg63
(dp189
g10
F31.5
ssVcom.tencent.qqlive
p190
(dp191
g10
F2.0999999999999996
ssg51
(dp192
g10
F9.7000000000000028
ssg79
(dp193
g10
F0.69999999999999996
ssVcom.android.camera
p194
(dp195
g10
F0.90000000000000002
ssg23
(dp196
g10
F0.90000000000000002
sssg27
(dp197
Vcom.tencent.mobileqq
p198
(dp199
g10
F0.69999999999999996
ssVcom.tencent.mm
p200
(dp201
g10
F4
ssg11
(dp202
g10
F0.40000000000000002
sssg29
(dp203
g8
(dp204
g10
F0.69999999999999996
ssVcom.android.calculator
p205
(dp206
g10
I1
ssg15
(dp207
g10
I1
ssVcom.dajie.official
p208
(dp209
g10
F0.69999999999999996
ssg139
(dp210
g10
F0.69999999999999996
ssVcom.taobao.taobao
p211
(dp212
g10
F0.40000000000000002
ssVcom.android.deskclock
p213
(dp214
g10
F0.40000000000000002
ssVcom.xiaomi.hm.health
p215
(dp216
g10
F2.1000000000000001
ssVcom.nowcoder.app.florida
p217
(dp218
g10
F2.6999999999999997
ssVcom.hunantv.imgo.activity
p219
(dp220
g10
F0.40000000000000002
ssg109
(dp221
g10
F2.2999999999999998
ssVcom.huawei.android.internal.app
p222
(dp223
g10
F4
ssVcom.tencent.mtt
p224
(dp225
g10
F6.4000000000000004
ssVcom.tencent.mm
p226
(dp227
g10
F15.300000000000002
ssg31
(dp228
g10
F1.7
ssVcom.tencent.mobileqq
p229
(dp230
g10
F2.8999999999999999
sssg31
(dp231
Vcom.tencent.mobileqq
p232
(dp233
g10
I1
ssg211
(dp234
g10
F1.7
sssg33
(dp235
g35
(dp236
g10
F3.5
ssVcom.qihoo360.mobilesafe
p237
(dp238
g10
F1.3
ssg61
(dp239
g10
F0.69999999999999996
ssg190
(dp240
g10
I1
ssVcom.huawei.android.internal.app
p241
(dp242
g10
F2.3999999999999999
ssVcom.tencent.mm
p243
(dp244
g10
I1
sssg35
(dp245
g13
(dp246
g10
I1
ssg237
(dp247
g10
I1
ssg61
(dp248
g10
I1
ssg106
(dp249
g10
F0.90000000000000002
ssVcom.huawei.android.internal.app
p250
(dp251
g10
F0.69999999999999996
ssg243
(dp252
g10
F0.69999999999999996
ssg173
(dp253
g10
F2.2000000000000002
sssg37
(dp254
Vcom.tencent.mtt
p255
(dp256
g10
I1
ssVcom.tencent.mm
p257
(dp258
g10
F6.6000000000000005
sssg39
(dp259
g241
(dp260
g10
F0.40000000000000002
ssVcom.huawei.hidisk
p261
(dp262
g10
I1
ssg77
(dp263
g10
I1
ssVcom.tencent.mm
p264
(dp265
g10
F0.90000000000000002
ssVcom.qihoo.appstore
p266
(dp267
g10
F0.69999999999999996
sssg41
(dp268
g213
(dp269
g10
I1
ssVcom.tencent.mtt
p270
(dp271
g10
F2.2999999999999998
ssVcom.android.contacts
p272
(dp273
g10
F0.69999999999999996
sssg43
(dp274
Vcom.android.settings
p275
(dp276
g10
I1
ssVcom.xiaomi.hm.health
p277
(dp278
g10
I1
ssVcom.tencent.mm
p279
(dp280
g10
F13.899999999999999
ssVcom.android.contacts
p281
(dp282
g10
F1.7
ssg31
(dp283
g10
F1.7000000000000002
ssVcom.tencent.mobileqq
p284
(dp285
g10
F2
sssg45
(dp286
g35
(dp287
g10
F0.40000000000000002
ssVcom.android.gallery3d
p288
(dp289
g10
I1
ssVcn.wps.moffice_i18n
p290
(dp291
g10
F0.90000000000000002
ssg21
(dp292
g10
F0.69999999999999996
ssVcom.huawei.android.internal.app
p293
(dp294
g10
F1.7
ssg51
(dp295
g10
F2.1000000000000001
ssg266
(dp296
g10
F1.3
sssg47
(dp297
Vcom.android.settings
p298
(dp299
g10
I1
ssVcom.adobe.reader
p300
(dp301
g10
F1.7
ssg41
(dp302
g10
I1
ssg270
(dp303
g10
F4.2000000000000002
ssVcom.tencent.mm
p304
(dp305
g10
F4.7999999999999998
ssg272
(dp306
g10
F2
ssVcom.tencent.mobileqq
p307
(dp308
g10
F0.69999999999999996
sssg49
(dp309
g8
(dp310
g10
F0.90000000000000002
ssg13
(dp311
g10
F0.69999999999999996
ssg307
(dp312
g10
I1
ssVcom.android.packageinstaller
p313
(dp314
g10
F0.90000000000000002
ssg208
(dp315
g10
F2.2999999999999998
ssg213
(dp316
g10
F1.6000000000000001
ssg217
(dp317
g10
F0.90000000000000002
ssg106
(dp318
g10
F0.40000000000000002
ssg15
(dp319
g10
F1.6000000000000001
ssVcom.huawei.android.internal.app
p320
(dp321
g10
I1
ssg128
(dp322
g10
F9.2000000000000011
ssg272
(dp323
g10
F8.4000000000000004
ssg109
(dp324
g10
I1
sssg51
(dp325
g11
(dp326
g10
F1.6000000000000001
ssVcn.wps.moffice_i18n
p327
(dp328
g10
F0.90000000000000002
ssg19
(dp329
g10
I1
ssVcom.xiaomi.hm.health
p330
(dp331
g10
I1
ssVcom.hunantv.imgo.activity
p332
(dp333
g10
F16.599999999999998
ssg241
(dp334
g10
F1.8999999999999999
ssg29
(dp335
g10
F17.099999999999998
ssg266
(dp336
g10
F2.3999999999999999
ssg35
(dp337
g10
F1.6000000000000001
ssVcom.adobe.reader
p338
(dp339
g10
F4
ssg288
(dp340
g10
F0.69999999999999996
ssVcom.taobao.taobao
p341
(dp342
g10
F12.599999999999998
ssg178
(dp343
g10
F1.3
ssg180
(dp344
g10
F7.0999999999999996
ssg49
(dp345
g10
F6.0000000000000009
ssg145
(dp346
g10
F16.300000000000001
ssg57
(dp347
g10
I1
ssg61
(dp348
g10
F0.40000000000000002
ssVcom.tencent.qqlive
p349
(dp350
g10
F7.0000000000000009
ssg69
(dp351
g10
F0.40000000000000002
ssg298
(dp352
g10
F2
ssg237
(dp353
g10
F0.69999999999999996
ssVorg.cocos2dx.FishingJoy2
p354
(dp355
g10
I1
ssg79
(dp356
g10
I1
ssg81
(dp357
g10
F2.6000000000000001
sssg53
(dp358
g8
(dp359
g10
I1
ssVcom.tencent.mm
p360
(dp361
g10
F2.3999999999999999
ssVcom.android.gallery3d
p362
(dp363
g10
I1
ssg75
(dp364
g10
F0.90000000000000002
ssVcom.taobao.taobao
p365
(dp366
g10
I1
ssVcom.xiaomi.hm.health
p367
(dp368
g10
I1
ssg77
(dp369
g10
F0.90000000000000002
ssVcom.tencent.mtt
p370
(dp371
g10
F3.3999999999999999
ssg307
(dp372
g10
F1.3
ssg93
(dp373
g10
F4.2999999999999998
ssg31
(dp374
g10
F0.69999999999999996
sssg55
(dp375
sg57
(dp376
Vcom.xiaomi.hm.health
p377
(dp378
g10
F1.8999999999999999
ssVcom.tencent.mm
p379
(dp380
g10
F0.40000000000000002
ssVcom.tencent.mobileqq
p381
(dp382
g10
F0.69999999999999996
sssg59
(dp383
sg61
(dp384
Vcom.android.packageinstaller
p385
(dp386
g10
F0.40000000000000002
ssg243
(dp387
g10
F0.90000000000000002
ssg173
(dp388
g10
F1.7
sssg63
(dp389
g55
(dp390
g10
I1
ssg178
(dp391
g10
F0.69999999999999996
ssg59
(dp392
g10
I1
ssg182
(dp393
g10
F2.7999999999999998
ssg132
(dp394
g10
F0.69999999999999996
ssg39
(dp395
g10
F1.3
ssg17
(dp396
g10
I1
ssg19
(dp397
g10
F0.69999999999999996
ssg21
(dp398
g10
F6.7000000000000002
ssg180
(dp399
g10
F0.69999999999999996
ssg43
(dp400
g10
F1.3
ssg190
(dp401
g10
F2.2000000000000002
ssg79
(dp402
g10
F0.90000000000000002
ssVcom.huawei.android.internal.app
p403
(dp404
g10
F4.7000000000000002
ssg81
(dp405
g10
F1.3999999999999999
ssg49
(dp406
g10
F0.40000000000000002
ssVcom.qihoo.appstore
p407
(dp408
g10
I1
ssg51
(dp409
g10
F11.6
ssg171
(dp410
g10
F2
ssg298
(dp411
g10
F1.7000000000000002
ssg23
(dp412
g10
I1
sssg65
(dp413
g69
(dp414
g10
F0.90000000000000002
ssVcom.tencent.mobileqq
p415
(dp416
g10
F1.7
ssVcom.tencent.mm
p417
(dp418
g10
F6.1000000000000005
ssg332
(dp419
g10
F3.4000000000000004
ssg155
(dp420
g10
F0.40000000000000002
sssg67
(dp421
g101
(dp422
g10
I1
ssg103
(dp423
g10
F0.90000000000000002
sssg69
(dp424
g155
(dp425
g10
F0.90000000000000002
ssVcom.hunantv.imgo.activity
p426
(dp427
g10
I1
sssg71
(dp428
g11
(dp429
g10
I1
ssg69
(dp430
g10
F0.69999999999999996
ssg298
(dp431
g10
F2.5999999999999996
ssg37
(dp432
g10
F2.2999999999999998
ssg219
(dp433
g10
F4.2000000000000002
ssg63
(dp434
g10
F1.8
ssg98
(dp435
g10
F1.6000000000000001
ssg180
(dp436
g10
I1
ssg73
(dp437
g10
I2
ssVcom.tencent.qqlive
p438
(dp439
g10
I2
ssg15
(dp440
g10
F0.40000000000000002
ssg25
(dp441
g10
F2.7000000000000002
ssg370
(dp442
g10
F2.6000000000000001
ssVcom.tencent.mm
p443
(dp444
g10
F10.200000000000001
ssVcom.android.contacts
p445
(dp446
g10
F3.5999999999999996
ssVcom.eg.android.AlipayGphone
p447
(dp448
g10
I1
ssg33
(dp449
g10
F0.90000000000000002
sssg73
(dp450
g250
(dp451
g10
F0.90000000000000002
ssVcom.android.packageinstaller
p452
(dp453
g10
F0.69999999999999996
ssg33
(dp454
g10
I2
sssg75
(dp455
sg77
(dp456
sg79
(dp457
g178
(dp458
g10
F1.7
ssg264
(dp459
g10
F0.40000000000000002
ssg288
(dp460
g10
F0.90000000000000002
sssg81
(dp461
g39
(dp462
g10
I1
ssVcom.tencent.mm
p463
(dp464
g10
F2.5999999999999996
ssssS'edge'
p465
g87
sS'graph'
p466
(dp467
sS'adjlist_dict_factory'
p468
g84
sS'adj'
p469
g87
sS'pred'
p470
(dp471
g8
(dp472
g15
g115
sg111
g310
sg113
g204
sg109
g359
ssg11
(dp473
g198
g429
sVcom.tencent.mm
p474
g326
sg354
g202
ssg13
(dp475
g320
g166
sVcom.tencent.mtt
p476
g311
sg313
g246
ssg15
(dp477
Vcom.tencent.mtt
p478
g319
sg307
g440
sg445
g207
ssg17
(dp479
Vcom.huawei.android.internal.app
p480
g167
sVcom.xiaomi.hm.health
p481
g135
sVcn.wps.moffice_i18n
p482
g396
ssg19
(dp483
g67
g422
sVorg.cocos2dx.GoldenFishGame
p484
g102
sg69
g425
sg208
g269
sg290
g397
sg21
g138
sg121
g156
sg123
g420
sg293
g168
sg224
g316
sg51
g329
sg272
g214
ssg21
(dp485
g67
g423
sVcom.tencent.androidqqmail
p486
g378
sVcom.android.settings
p487
g368
sg484
g104
sg290
g398
sg101
g126
sg45
g292
sVcom.taobao.taobao
p488
g278
sg293
g169
sVcom.tencent.mm
p489
g331
sVcom.android.contacts
p490
g216
sVcom.hunantv.imgo.activity
p491
g158
ssg23
(dp492
g69
g427
sVcom.tencent.mm
p493
g333
sVcn.wps.moffice_i18n
p494
g412
sg134
g122
sg349
g419
sVcom.huawei.android.internal.app
p495
g196
sg229
g433
sVcom.android.contacts
p496
g220
ssg25
(dp497
Vcom.hunantv.imgo.activity
p498
g162
sg215
g143
sVcom.tencent.mobileqq
p499
g441
sg385
g251
sg288
g260
sg63
g404
sg45
g294
sg237
g451
sg476
g321
sg264
g334
sVcom.android.contacts
p500
g223
sg266
g242
ssg27
(dp501
g200
g355
ssg29
(dp502
g8
g94
sg307
g446
sg41
g273
sVcn.wps.moffice_i18n
p503
g410
sg377
g148
sg47
g306
sVcom.taobao.taobao
p504
g282
sg15
g114
sVcom.huawei.android.internal.app
p505
g172
sg270
g323
sVcom.tencent.mm
p506
g335
sg109
g373
ssg31
(dp507
g275
g374
sg232
g448
sg281
g228
sg504
g283
ssg33
(dp508
g71
g449
sg35
g253
sg288
g267
sg73
g454
sg61
g388
sg178
g296
sVcn.wps.moffice_i18n
p509
g408
sg241
g174
sg264
g336
ssg35
(dp510
g237
g453
sg61
g386
sg261
g287
sg241
g175
sg476
g314
sg264
g337
sg266
g236
ssg37
(dp511
g257
g339
sVcom.nowcoder.app.florida
p512
g301
sVcom.tencent.mobileqq
p513
g432
ssg39
(dp514
g53
g363
sVcn.wps.moffice_i18n
p515
g395
sg178
g289
sg79
g460
sVcom.huawei.android.internal.app
p516
g176
sg194
g462
sVcom.tencent.mm
p517
g340
ssg41
(dp518
g47
g302
sVcom.tencent.mtt
p519
g315
sg272
g209
ssg43
(dp520
g198
g435
sVcn.wps.moffice_i18n
p521
g400
sVcom.xiaomi.hm.health
p522
g137
sg11
g99
sg275
g366
sVcom.huawei.android.internal.app
p523
g170
sg279
g342
sg281
g212
sg31
g234
ssg45
(dp524
Vcom.huawei.android.internal.app
p525
g179
sg288
g262
sg517
g343
sVcn.wps.moffice_i18n
p526
g391
sg79
g458
ssg47
(dp527
Vcom.tencent.mm
p528
g344
sVcn.wps.moffice_i18n
p529
g399
sVcom.huawei.android.internal.app
p530
g181
sVcom.tencent.mtt
p531
g317
sVcom.tencent.mobileqq
p532
g436
sVcom.android.contacts
p533
g218
ssg49
(dp534
g8
g90
sg532
g442
sg300
g256
sg41
g271
sg290
g406
sg19
g127
sg21
g144
sg47
g303
sg298
g371
sg15
g112
sg51
g345
sg272
g225
ssg51
(dp535
g8
g92
sg11
g97
sg290
g409
sg19
g129
sg21
g131
sg332
g152
sg293
g192
sg29
g227
sg173
g244
sg35
g252
sg37
g258
sg288
g265
sg43
g280
sg45
g295
sg217
g305
sg49
g322
sg145
g444
sg486
g380
sg61
g387
sg134
g120
sg65
g418
sg184
g361
sg27
g201
sg79
g459
sg81
g464
ssg53
(dp536
g528
g352
sg529
g411
sg504
g276
sg180
g299
sVcom.hunantv.imgo.activity
p537
g160
sg15
g110
sVcom.huawei.android.internal.app
p538
g185
sg111
g324
sg532
g431
sg445
g221
ssg55
(dp539
Vcom.huawei.android.internal.app
p540
g186
sVcn.wps.moffice_i18n
p541
g390
ssg57
(dp542
Vcom.tencent.mm
p543
g347
ssg59
(dp544
Vcom.huawei.android.internal.app
p545
g187
sVcom.android.contacts
p546
g206
sVcn.wps.moffice_i18n
p547
g392
ssg61
(dp548
g241
g188
sg35
g248
sg264
g348
sg266
g239
ssg63
(dp549
g215
g140
sVcom.tencent.mm
p550
g328
sg45
g291
sg498
g154
sg25
g189
sg499
g434
sVcom.android.contacts
p551
g210
ssg65
(dp552
g13
g107
sg415
g439
sg313
g249
sg509
g401
sg481
g141
sg134
g124
sVcom.huawei.android.internal.app
p553
g191
sg476
g318
sg417
g350
sg407
g240
ssg67
(dp554
g484
g105
ssg69
(dp555
g117
g430
sg119
g351
sg121
g150
sg123
g414
ssg71
(dp556
Vcom.taobao.taobao
p557
g285
sg486
g382
sg298
g372
sg134
g118
sg139
g393
sg354
g199
sg330
g146
sg180
g308
sVcom.hunantv.imgo.activity
p558
g164
sVcom.tencent.qqlive
p559
g416
sg142
g183
sg370
g312
sg489
g346
sVcom.android.contacts
p560
g230
sg31
g233
ssg73
(dp561
g71
g437
sg385
g247
sg139
g394
sVcom.xiaomi.hm.health
p562
g133
sg142
g177
sg243
g353
sg173
g238
ssg75
(dp563
g487
g364
sg367
g136
ssg77
(dp564
g53
g369
sg362
g263
ssg79
(dp565
g525
g193
sg517
g356
sg526
g402
ssg81
(dp566
g516
g195
sVcom.tencent.mm
p567
g357
sVcn.wps.moffice_i18n
p568
g405
sssb.