ccopy_reg
_reconstructor
p1
(cnetworkx.classes.digraph
DiGraph
p2
c__builtin__
object
p3
NtRp4
(dp5
S'node'
p6
(dp7
Vcom.android.soundrecorder
p8
(dp9
S'weight'
p10
F7.5295534974775989e-05
ssVcom.qiyi.video
p11
(dp12
g10
F0.00041719303823061068
ssVcom.lenovo.magicplus
p13
(dp14
g10
F9.4816599597866076e-06
ssVcom.android.deskclock
p15
(dp16
g10
F9.4816599597866076e-06
ssVcom.sohu.inputmethod.sogou
p17
(dp18
g10
F1.6732341105505778e-06
ssVcn.etouch.ecalendar
p19
(dp20
g10
F0.057212336197352387
ssVcom.dou_pai.DouPai
p21
(dp22
g10
F0.001548857041666318
ssVcom.lenovo.leos.appstore
p23
(dp24
g10
F0.00020525005089420419
ssVcom.android.gallery3d
p25
(dp26
g10
F0.065604163006467056
ssVcom.jingdong.app.mall
p27
(dp28
g10
F0.00030620184223075571
ssVcom.taobao.taobao
p29
(dp30
g10
F0.10237013611759489
ssVcom.android.video
p31
(dp32
g10
F0.0012326157947722589
ssVcom.babytree.apps.lama
p33
(dp34
g10
F0.20120305532548585
ssVcom.android.phone
p35
(dp36
g10
F0.043113665581853221
ssVcom.tencent.mm
p37
(dp38
g10
F0.034831714479331373
ssVcom.lenovo.safecenter
p39
(dp40
g10
F0.00034803269499452018
ssVcom.lenovo.browser
p41
(dp42
g10
F0.00020357681678365361
ssVcom.lenovo.FileBrowser
p43
(dp44
g10
F0.00037368895135629567
ssVcom.lenovo.ideafriend
p45
(dp46
g10
F0.084806755403848993
ssVcom.lenovo.calendar
p47
(dp48
g10
F0.0041920091916327141
ssVcom.baidu.searchbox_lenovo
p49
(dp50
g10
F0.025929551266498787
ssVcom.happyelements.AndroidAnimal
p51
(dp52
g10
F0.00077470739318491748
ssVcom.android.email
p53
(dp54
g10
F1.8963319919573215e-05
ssVcom.tencent.mobileqq
p55
(dp56
g10
F0.2350709869571401
ssVcom.lenovo.music
p57
(dp58
g10
F0.0014886206136864972
ssVcom.qzone
p59
(dp60
g10
F0.033767537585021205
ssVcom.baidu.tieba
p61
(dp62
g10
F0.094320206811736071
ssVcn.j.hers
p63
(dp64
g10
F0.00038763256894421716
ssVcom.android.settings
p65
(dp66
g10
F0.010176609860368613
sssS'node_dict_factory'
p67
c__builtin__
dict
p68
sS'edge_attr_dict_factory'
p69
g68
sS'succ'
p70
(dp71
g8
(dp72
Vcom.tencent.mobileqq
p73
(dp74
g10
F0.90000000000000002
ssg57
(dp75
g10
I1
ssVcom.taobao.taobao
p76
(dp77
g10
I1
ssVcom.qzone
p78
(dp79
g10
F0.69999999999999996
ssVcom.babytree.apps.lama
p80
(dp81
g10
F0.90000000000000002
ssVcom.tencent.mm
p82
(dp83
g10
F0.40000000000000002
sssg11
(dp84
Vcom.lenovo.ideafriend
p85
(dp86
g10
F0.40000000000000002
ssVcom.qzone
p87
(dp88
g10
F17.299999999999997
ssVcom.tencent.mobileqq
p89
(dp90
g10
F1.7
ssVcom.lenovo.safecenter
p91
(dp92
g10
F0.90000000000000002
sssg13
(dp93
sg15
(dp94
Vcom.android.settings
p95
(dp96
g10
I1
sssg17
(dp97
sg19
(dp98
Vcom.baidu.searchbox_lenovo
p99
(dp100
g10
F0.40000000000000002
ssVcom.android.gallery3d
p101
(dp102
g10
F10.800000000000001
ssVcom.tencent.mm
p103
(dp104
g10
F7.0000000000000009
ssVcom.lenovo.ideafriend
p105
(dp106
g10
F11.100000000000001
ssVcom.lenovo.music
p107
(dp108
g10
I1
ssVcom.taobao.taobao
p109
(dp110
g10
F8.7000000000000011
ssVcom.android.video
p111
(dp112
g10
F2
ssVcom.qzone
p113
(dp114
g10
F6.8000000000000007
ssVcom.baidu.tieba
p115
(dp116
g10
F8.4000000000000004
ssVcom.lenovo.calendar
p117
(dp118
g10
I1
ssVcom.babytree.apps.lama
p119
(dp120
g10
F8
ssVcom.android.phone
p121
(dp122
g10
F3.7000000000000002
ssVcom.tencent.mobileqq
p123
(dp124
g10
F18.800000000000001
ssVcom.lenovo.safecenter
p125
(dp126
g10
I1
ssVcom.lenovo.browser
p127
(dp128
g10
F0.90000000000000002
sssg21
(dp129
Vcom.tencent.mobileqq
p130
(dp131
g10
F3
ssVcom.android.video
p132
(dp133
g10
F2.2000000000000002
ssVcom.qzone
p134
(dp135
g10
F0.69999999999999996
ssVcom.android.gallery3d
p136
(dp137
g10
F5.8000000000000007
ssVcom.baidu.tieba
p138
(dp139
g10
I1
sssg23
(dp140
Vcom.lenovo.ideafriend
p141
(dp142
g10
F1.3
ssVcom.tencent.mobileqq
p143
(dp144
g10
F2.1000000000000001
ssg21
(dp145
g10
F1.7
ssVcom.android.gallery3d
p146
(dp147
g10
F1.8999999999999999
ssVcom.lenovo.safecenter
p148
(dp149
g10
I1
sssg25
(dp150
Vcom.dou_pai.DouPai
p151
(dp152
g10
F5
ssVcom.lenovo.leos.appstore
p153
(dp154
g10
I1
ssVcom.tencent.mm
p155
(dp156
g10
F4.2999999999999998
ssVcom.android.phone
p157
(dp158
g10
F4.6000000000000005
ssg105
(dp159
g10
F18.600000000000001
ssVcom.taobao.taobao
p160
(dp161
g10
F7.5000000000000009
ssg31
(dp162
g10
F130.00000000000014
ssVcom.qzone
p163
(dp164
g10
F15.1
ssVcom.baidu.tieba
p165
(dp166
g10
F4.7000000000000002
ssVcom.lenovo.calendar
p167
(dp168
g10
I1
ssVcom.babytree.apps.lama
p169
(dp170
g10
F16
ssVcom.baidu.searchbox_lenovo
p171
(dp172
g10
F3.2999999999999998
ssVcom.sohu.inputmethod.sogou
p173
(dp174
g10
F0.90000000000000002
ssVcn.etouch.ecalendar
p175
(dp176
g10
F4.2999999999999998
ssVcom.tencent.mobileqq
p177
(dp178
g10
F29.299999999999994
ssVcom.lenovo.browser
p179
(dp180
g10
F3.3999999999999999
ssVcom.android.settings
p181
(dp182
g10
F0.90000000000000002
sssg27
(dp183
Vcom.tencent.mobileqq
p184
(dp185
g10
I1
sssg29
(dp186
Vcom.lenovo.ideafriend
p187
(dp188
g10
F11.900000000000002
ssVcom.dou_pai.DouPai
p189
(dp190
g10
F0.69999999999999996
ssg103
(dp191
g10
F11.6
ssg49
(dp192
g10
I2
ssg25
(dp193
g10
F8.2000000000000011
ssVcom.jingdong.app.mall
p194
(dp195
g10
I1
ssVcom.qzone
p196
(dp197
g10
F19.299999999999997
ssVcom.baidu.tieba
p198
(dp199
g10
F13.700000000000001
ssVcom.babytree.apps.lama
p200
(dp201
g10
F23.499999999999993
ssVcom.android.phone
p202
(dp203
g10
F4.8000000000000007
ssg17
(dp204
g10
I1
ssVcn.etouch.ecalendar
p205
(dp206
g10
F13.600000000000001
ssVcom.tencent.mobileqq
p207
(dp208
g10
F44.899999999999999
ssVcom.lenovo.safecenter
p209
(dp210
g10
F2.6000000000000001
ssVcom.lenovo.browser
p211
(dp212
g10
F1.7
sssg31
(dp213
Vcom.lenovo.ideafriend
p214
(dp215
g10
F1.3
ssVcom.tencent.mobileqq
p216
(dp217
g10
F0.90000000000000002
ssVcom.dou_pai.DouPai
p218
(dp219
g10
F1.6000000000000001
ssVcom.android.gallery3d
p220
(dp221
g10
F124.50000000000014
ssVcom.qzone
p222
(dp223
g10
F0.90000000000000002
sssg33
(dp224
Vcom.lenovo.ideafriend
p225
(dp226
g10
F27.699999999999996
ssVcom.tencent.mm
p227
(dp228
g10
F8.1999999999999993
ssVcom.baidu.searchbox_lenovo
p229
(dp230
g10
F1.3999999999999999
ssVcom.android.gallery3d
p231
(dp232
g10
F19.300000000000001
ssg194
(dp233
g10
F0.69999999999999996
ssVcom.taobao.taobao
p234
(dp235
g10
F22.599999999999991
ssg8
(dp236
g10
I1
ssg31
(dp237
g10
F2
ssVcom.qzone
p238
(dp239
g10
F23.999999999999993
ssVcom.baidu.tieba
p240
(dp241
g10
F25.199999999999992
ssg121
(dp242
g10
F8.1000000000000014
ssVcn.etouch.ecalendar
p243
(dp244
g10
F10.700000000000001
ssg177
(dp245
g10
F77.90000000000002
ssVcom.lenovo.safecenter
p246
(dp247
g10
F2.8999999999999999
ssVcom.android.settings
p248
(dp249
g10
F1.8999999999999999
sssg35
(dp250
g45
(dp251
g10
F120.60000000000004
ssg53
(dp252
g10
F0.40000000000000002
ssVcom.android.settings
p253
(dp254
g10
F9.2000000000000011
ssVcom.tencent.mm
p255
(dp256
g10
F1.8
ssVcom.android.gallery3d
p257
(dp258
g10
F11.000000000000002
ssg234
(dp259
g10
F5.7999999999999998
ssVcom.android.deskclock
p260
(dp261
g10
F2.7000000000000002
ssVcom.android.video
p262
(dp263
g10
F1.3999999999999999
ssVcom.qzone
p264
(dp265
g10
F12.600000000000001
ssVcom.baidu.tieba
p266
(dp267
g10
F3.7999999999999998
ssg167
(dp268
g10
F1.7
ssg33
(dp269
g10
F9.4000000000000004
ssVcn.etouch.ecalendar
p270
(dp271
g10
F4.5999999999999996
ssVcom.tencent.mobileqq
p272
(dp273
g10
F27.699999999999992
ssg39
(dp274
g10
F3.1999999999999997
ssVcom.lenovo.browser
p275
(dp276
g10
F0.69999999999999996
sssg37
(dp277
Vcom.lenovo.ideafriend
p278
(dp279
g10
F2.5999999999999996
ssVcom.android.gallery3d
p280
(dp281
g10
F3.4999999999999996
ssg57
(dp282
g10
F0.69999999999999996
ssVcom.taobao.taobao
p283
(dp284
g10
F6.5000000000000009
ssVcom.android.soundrecorder
p285
(dp286
g10
F0.90000000000000002
ssVcom.qzone
p287
(dp288
g10
F9.5000000000000018
ssVcom.baidu.tieba
p289
(dp290
g10
F7
ssVcn.j.hers
p291
(dp292
g10
F2.7000000000000002
ssVcom.babytree.apps.lama
p293
(dp294
g10
F11.5
ssg121
(dp295
g10
F1.8999999999999999
ssVcn.etouch.ecalendar
p296
(dp297
g10
F7.5
ssVcom.tencent.mobileqq
p298
(dp299
g10
F8.9000000000000004
ssg127
(dp300
g10
F0.40000000000000002
sssg39
(dp301
Vcom.lenovo.leos.appstore
p302
(dp303
g10
I1
ssVcom.android.settings
p304
(dp305
g10
I1
ssVcom.tencent.mm
p306
(dp307
g10
F0.69999999999999996
ssg85
(dp308
g10
F1.6000000000000001
ssg13
(dp309
g10
F0.90000000000000002
ssVcom.taobao.taobao
p310
(dp311
g10
F1.8999999999999999
ssVcom.qzone
p312
(dp313
g10
F1.8999999999999999
ssg63
(dp314
g10
F1.3
ssVcom.babytree.apps.lama
p315
(dp316
g10
I1
ssVcn.etouch.ecalendar
p317
(dp318
g10
I1
ssVcom.tencent.mobileqq
p319
(dp320
g10
F4.9000000000000004
sssg41
(dp321
Vcom.android.gallery3d
p322
(dp323
g10
F1.7
ssVcom.lenovo.ideafriend
p324
(dp325
g10
F3.5999999999999996
ssVcom.taobao.taobao
p326
(dp327
g10
I1
ssVcom.android.video
p328
(dp329
g10
F1.3
ssVcom.qzone
p330
(dp331
g10
F1.7
ssVcom.qiyi.video
p332
(dp333
g10
F1.3
ssVcom.babytree.apps.lama
p334
(dp335
g10
I1
ssVcom.android.phone
p336
(dp337
g10
F2
ssVcom.tencent.mm
p338
(dp339
g10
I1
sssg43
(dp340
Vcom.lenovo.ideafriend
p341
(dp342
g10
I1
ssVcom.android.phone
p343
(dp344
g10
I1
sssg45
(dp345
Vcom.baidu.searchbox_lenovo
p346
(dp347
g10
F3.7000000000000002
ssg53
(dp348
g10
F0.69999999999999996
ssg253
(dp349
g10
F4.6000000000000005
ssg37
(dp350
g10
F1.8999999999999999
ssVcom.android.gallery3d
p351
(dp352
g10
F6.4000000000000004
ssg234
(dp353
g10
F6
ssg262
(dp354
g10
F1.3
ssg264
(dp355
g10
F15.700000000000001
ssVcom.baidu.tieba
p356
(dp357
g10
F5
ssg33
(dp358
g10
F21.499999999999993
ssVcom.android.phone
p359
(dp360
g10
F37.499999999999993
ssg270
(dp361
g10
F1.3
ssVcom.tencent.mobileqq
p362
(dp363
g10
F28.699999999999996
ssg39
(dp364
g10
F1.6000000000000001
ssg275
(dp365
g10
F1.8999999999999999
sssg47
(dp366
Vcom.lenovo.ideafriend
p367
(dp368
g10
F1.6000000000000001
ssVcom.baidu.searchbox_lenovo
p369
(dp370
g10
I1
ssVcom.android.gallery3d
p371
(dp372
g10
I1
ssVcom.android.phone
p373
(dp374
g10
F1.7
ssVcn.etouch.ecalendar
p375
(dp376
g10
I1
ssg179
(dp377
g10
F0.90000000000000002
sssg49
(dp378
Vcom.lenovo.ideafriend
p379
(dp380
g10
F3.7000000000000002
ssg189
(dp381
g10
F0.90000000000000002
ssVcom.tencent.mm
p382
(dp383
g10
F2.8999999999999999
ssVcom.android.gallery3d
p384
(dp385
g10
F1.8999999999999999
ssVcom.taobao.taobao
p386
(dp387
g10
F4.4000000000000004
ssVcom.qzone
p388
(dp389
g10
F1.8999999999999999
ssVcom.baidu.tieba
p390
(dp391
g10
F1.8999999999999999
ssVcom.babytree.apps.lama
p392
(dp393
g10
F7.1999999999999993
ssVcom.android.phone
p394
(dp395
g10
F0.90000000000000002
ssVcom.tencent.mobileqq
p396
(dp397
g10
F4.7999999999999998
ssVcom.lenovo.safecenter
p398
(dp399
g10
I1
sssg51
(dp400
Vcom.baidu.tieba
p401
(dp402
g10
F0.90000000000000002
ssVcom.tencent.mobileqq
p403
(dp404
g10
F1.7
ssVcom.taobao.taobao
p405
(dp406
g10
F0.40000000000000002
sssg53
(dp407
Vcom.android.settings
p408
(dp409
g10
F1.7
ssVcom.tencent.mobileqq
p410
(dp411
g10
F1.3
sssg55
(dp412
Vcom.lenovo.ideafriend
p413
(dp414
g10
F64.600000000000023
ssg53
(dp415
g10
F0.90000000000000002
ssg218
(dp416
g10
I1
ssg65
(dp417
g10
F9
ssVcom.baidu.searchbox_lenovo
p418
(dp419
g10
F3.2999999999999998
ssVcom.android.gallery3d
p420
(dp421
g10
F34.09999999999998
ssVcom.taobao.taobao
p422
(dp423
g10
F50.600000000000001
ssg285
(dp424
g10
F0.40000000000000002
ssg31
(dp425
g10
F7.4000000000000021
ssg59
(dp426
g10
F70.100000000000009
ssVcom.baidu.tieba
p427
(dp428
g10
F40.199999999999982
ssVcom.babytree.apps.lama
p429
(dp430
g10
F68
ssVcom.android.phone
p431
(dp432
g10
F22.899999999999995
ssg17
(dp433
g10
F1.8999999999999999
ssg243
(dp434
g10
F19.799999999999997
ssg155
(dp435
g10
F16.100000000000001
ssg91
(dp436
g10
F4.7999999999999998
ssg211
(dp437
g10
F5.7000000000000002
sssg57
(dp438
Vcom.baidu.tieba
p439
(dp440
g10
F0.40000000000000002
ssVcom.qzone
p441
(dp442
g10
I1
ssVcom.tencent.mobileqq
p443
(dp444
g10
F1.7
ssg80
(dp445
g10
F1.8999999999999999
sssg59
(dp446
g413
(dp447
g10
F8.5
ssVcom.dou_pai.DouPai
p448
(dp449
g10
F0.40000000000000002
ssg227
(dp450
g10
F9.8000000000000007
ssVcom.android.phone
p451
(dp452
g10
F0.40000000000000002
ssVcom.android.gallery3d
p453
(dp454
g10
F12.299999999999999
ssg57
(dp455
g10
F0.40000000000000002
ssVcom.taobao.taobao
p456
(dp457
g10
F20.899999999999999
ssg8
(dp458
g10
F1.6000000000000001
ssVcom.android.video
p459
(dp460
g10
F2.2000000000000002
ssVcom.baidu.tieba
p461
(dp462
g10
F34.899999999999991
ssg332
(dp463
g10
F19.699999999999996
ssVcom.babytree.apps.lama
p464
(dp465
g10
F22.300000000000001
ssg99
(dp466
g10
F2.5
ssg63
(dp467
g10
F1.7
ssg205
(dp468
g10
F6.1000000000000005
ssVcom.tencent.mobileqq
p469
(dp470
g10
F36.399999999999984
ssg41
(dp471
g10
I1
sssg61
(dp472
Vcom.lenovo.ideafriend
p473
(dp474
g10
F8.9000000000000004
ssg418
(dp475
g10
I4
ssg65
(dp476
g10
I1
ssg227
(dp477
g10
F8.5
ssg420
(dp478
g10
F5.5000000000000009
ssg194
(dp479
g10
F0.90000000000000002
ssVcom.taobao.taobao
p480
(dp481
g10
F19.800000000000001
ssg57
(dp482
g10
F0.90000000000000002
ssg15
(dp483
g10
I1
ssVcom.android.video
p484
(dp485
g10
F0.40000000000000002
ssVcom.qzone
p486
(dp487
g10
F5.8999999999999995
ssVcom.babytree.apps.lama
p488
(dp489
g10
F15.699999999999999
ssVcom.android.phone
p490
(dp491
g10
F4.4000000000000004
ssg285
(dp492
g10
I1
ssg205
(dp493
g10
F15.899999999999999
ssg123
(dp494
g10
F39.599999999999994
ssVcom.lenovo.safecenter
p495
(dp496
g10
F1.8
sssg63
(dp497
Vcom.baidu.tieba
p498
(dp499
g10
F0.69999999999999996
ssVcom.qzone
p500
(dp501
g10
F1.7
ssg306
(dp502
g10
F2.7000000000000002
ssVcom.taobao.taobao
p503
(dp504
g10
F1.3
sssg65
(dp505
g53
(dp506
g10
I1
ssVcom.android.gallery3d
p507
(dp508
g10
F1.7
ssVcom.android.phone
p509
(dp510
g10
F2.7000000000000002
ssVcom.lenovo.ideafriend
p511
(dp512
g10
I1
ssg13
(dp513
g10
F1.7
ssVcom.taobao.taobao
p514
(dp515
g10
F1.8
ssg260
(dp516
g10
F1.3
ssVcom.qzone
p517
(dp518
g10
F1.8999999999999999
ssg198
(dp519
g10
F0.40000000000000002
ssg47
(dp520
g10
F2.7999999999999998
ssg369
(dp521
g10
F1.6000000000000001
ssg205
(dp522
g10
F0.69999999999999996
ssg410
(dp523
g10
F4.4000000000000004
ssg39
(dp524
g10
I3
ssg179
(dp525
g10
F0.40000000000000002
ssssS'edge'
p526
g71
sS'graph'
p527
(dp528
sS'adjlist_dict_factory'
p529
g68
sS'adj'
p530
g71
sS'pred'
p531
(dp532
g8
(dp533
g82
g286
sVcom.baidu.tieba
p534
g492
sVcom.qzone
p535
g458
sg73
g424
sVcom.babytree.apps.lama
p536
g236
ssg11
(dp537
Vcom.qzone
p538
g463
sg41
g333
ssg13
(dp539
Vcom.android.settings
p540
g513
sVcom.lenovo.safecenter
p541
g309
ssg15
(dp542
Vcom.android.settings
p543
g516
sVcom.baidu.tieba
p544
g483
sg509
g261
ssg17
(dp545
Vcom.android.gallery3d
p546
g174
sVcom.tencent.mobileqq
p547
g433
sVcom.taobao.taobao
p548
g204
ssg19
(dp549
Vcom.lenovo.ideafriend
p550
g361
sg65
g522
sVcom.tencent.mm
p551
g297
sVcom.android.gallery3d
p552
g176
sg514
g206
sg517
g468
sVcom.baidu.tieba
p553
g493
sVcom.lenovo.calendar
p554
g376
sVcom.babytree.apps.lama
p555
g244
sVcom.android.phone
p556
g271
sVcom.tencent.mobileqq
p557
g434
sg125
g318
ssg21
(dp558
Vcom.lenovo.leos.appstore
p559
g145
sg136
g152
sVcom.taobao.taobao
p560
g190
sg132
g219
sg134
g449
sVcom.baidu.searchbox_lenovo
p561
g381
sg216
g416
ssg23
(dp562
g146
g154
sg148
g303
ssg25
(dp563
g21
g137
sg23
g147
sg227
g281
sVcom.baidu.searchbox_lenovo
p564
g385
sVcom.lenovo.ideafriend
p565
g352
sg29
g193
sg31
g221
sVcom.qzone
p566
g454
sg427
g478
sg167
g372
sVcom.babytree.apps.lama
p567
g232
sVcom.android.phone
p568
g258
sVcn.etouch.ecalendar
p569
g102
sVcom.tencent.mobileqq
p570
g421
sVcom.lenovo.browser
p571
g323
sVcom.android.settings
p572
g508
ssg27
(dp573
Vcom.baidu.tieba
p574
g479
sVcom.taobao.taobao
p575
g195
sVcom.babytree.apps.lama
p576
g233
ssg29
(dp577
Vcom.android.gallery3d
p578
g161
sg382
g284
sg49
g387
sg45
g353
sg291
g504
sg8
g77
sg238
g457
sg61
g481
sg33
g235
sg35
g259
sg51
g406
sVcn.etouch.ecalendar
p579
g110
sg362
g423
sg39
g311
sg211
g327
sg65
g515
ssg31
(dp580
Vcom.dou_pai.DouPai
p581
g133
sVcom.lenovo.ideafriend
p582
g354
sVcom.android.gallery3d
p583
g162
sg134
g460
sg439
g485
sVcom.babytree.apps.lama
p584
g237
sVcom.android.phone
p585
g263
sVcn.etouch.ecalendar
p586
g112
sVcom.tencent.mobileqq
p587
g425
sg571
g329
ssg33
(dp588
g45
g358
sg551
g294
sg49
g393
sg231
g170
sg57
g445
sg234
g201
sg285
g81
sVcom.qzone
p589
g465
sg115
g489
sg35
g269
sVcn.etouch.ecalendar
p590
g120
sg177
g430
sVcom.lenovo.safecenter
p591
g316
sVcom.lenovo.browser
p592
g335
ssg35
(dp593
Vcom.android.gallery3d
p594
g158
sVcom.tencent.mobileqq
p595
g432
sVcom.lenovo.ideafriend
p596
g360
sVcom.taobao.taobao
p597
g203
sg43
g344
sVcom.qzone
p598
g452
sVcom.baidu.tieba
p599
g491
sVcom.lenovo.calendar
p600
g374
sVcom.babytree.apps.lama
p601
g242
sVcom.baidu.searchbox_lenovo
p602
g395
sg579
g122
sg103
g295
sg592
g337
sg543
g510
ssg37
(dp603
Vcom.android.gallery3d
p604
g156
sVcom.android.phone
p605
g256
sVcom.lenovo.ideafriend
p606
g350
sg109
g191
sg8
g83
sVcom.qzone
p607
g450
sVcom.baidu.tieba
p608
g477
sg63
g502
sVcom.babytree.apps.lama
p609
g228
sVcom.baidu.searchbox_lenovo
p610
g383
sg579
g104
sVcom.tencent.mobileqq
p611
g435
sVcom.lenovo.safecenter
p612
g307
sg127
g339
ssg39
(dp613
Vcom.lenovo.leos.appstore
p614
g149
sg253
g524
sVcom.baidu.searchbox_lenovo
p615
g399
sVcom.lenovo.ideafriend
p616
g364
sg11
g92
sVcom.baidu.tieba
p617
g496
sVcom.taobao.taobao
p618
g210
sVcom.babytree.apps.lama
p619
g247
sVcom.android.phone
p620
g274
sVcn.etouch.ecalendar
p621
g126
sg89
g436
ssg41
(dp622
Vcom.lenovo.ideafriend
p623
g365
sg572
g525
sVcom.tencent.mm
p624
g300
sg507
g180
sVcom.taobao.taobao
p625
g212
sg538
g471
sg167
g377
sVcom.android.phone
p626
g276
sVcn.etouch.ecalendar
p627
g128
sVcom.tencent.mobileqq
p628
g437
ssg43
(dp629
sg45
(dp630
Vcom.baidu.searchbox_lenovo
p631
g380
sg614
g142
sVcom.android.settings
p632
g512
sVcom.tencent.mm
p633
g279
sg101
g159
sVcom.taobao.taobao
p634
g188
sVcom.lenovo.FileBrowser
p635
g342
sVcom.android.video
p636
g215
sg113
g447
sVcom.baidu.tieba
p637
g474
sg11
g86
sVcom.babytree.apps.lama
p638
g226
sg35
g251
sg569
g106
sVcom.tencent.mobileqq
p639
g414
sg91
g308
sg179
g325
sg600
g368
ssg47
(dp640
Vcom.android.settings
p641
g520
sVcn.etouch.ecalendar
p642
g118
sg507
g168
sVcom.android.phone
p643
g268
ssg49
(dp644
g379
g347
sVcom.android.gallery3d
p645
g172
sVcom.taobao.taobao
p646
g192
sVcom.qzone
p647
g466
sVcom.baidu.tieba
p648
g475
sg47
g370
sVcom.babytree.apps.lama
p649
g230
sg641
g521
sVcn.etouch.ecalendar
p650
g100
sVcom.tencent.mobileqq
p651
g419
ssg51
(dp652
sg53
(dp653
Vcom.tencent.mobileqq
p654
g415
sVcom.android.settings
p655
g506
sVcom.lenovo.ideafriend
p656
g348
sVcom.android.phone
p657
g252
ssg55
(dp658
g53
g411
sg21
g131
sg614
g144
sVcom.android.gallery3d
p659
g178
sg99
g397
sVcom.lenovo.ideafriend
p660
g363
sg27
g185
sVcom.taobao.taobao
p661
g208
sg107
g444
sg8
g74
sg132
g217
sVcom.qzone
p662
g470
sg115
g494
sg11
g90
sVcom.babytree.apps.lama
p663
g245
sVcom.android.phone
p664
g273
sg51
g404
sg19
g124
sg155
g299
sg91
g320
sg655
g523
ssg57
(dp665
g534
g482
sg78
g455
sg82
g282
sVcn.etouch.ecalendar
p666
g108
sg285
g75
ssg59
(dp667
Vcom.lenovo.ideafriend
p668
g355
sg229
g389
sVcom.dou_pai.DouPai
p669
g135
sg65
g518
sg227
g288
sVcom.android.gallery3d
p670
g164
sg107
g442
sVcom.taobao.taobao
p671
g197
sg8
g79
sVcom.android.video
p672
g223
sVcom.baidu.tieba
p673
g487
sg332
g88
sVcom.babytree.apps.lama
p674
g239
sVcom.android.phone
p675
g265
sg291
g501
sVcn.etouch.ecalendar
p676
g114
sg55
g426
sVcom.lenovo.safecenter
p677
g313
sg41
g331
ssg61
(dp678
Vcom.baidu.searchbox_lenovo
p679
g391
sVcom.android.gallery3d
p680
g166
sVcom.dou_pai.DouPai
p681
g139
sg65
g519
sVcom.tencent.mm
p682
g290
sg660
g357
sg107
g440
sg514
g199
sg662
g462
sVcn.j.hers
p683
g499
sVcom.babytree.apps.lama
p684
g241
sVcom.android.phone
p685
g267
sg51
g402
sg19
g116
sg123
g428
ssg63
(dp686
Vcom.qzone
p687
g467
sg306
g292
sg612
g314
ssg65
(dp688
Vcom.android.gallery3d
p689
g182
sg616
g349
sVcom.android.deskclock
p690
g96
sg553
g476
sVcom.babytree.apps.lama
p691
g249
sg620
g254
sg53
g409
sVcom.tencent.mobileqq
p692
g417
sg541
g305
sssb.