ccopy_reg
_reconstructor
p1
(cnetworkx.classes.digraph
DiGraph
p2
c__builtin__
object
p3
NtRp4
(dp5
S'node'
p6
(dp7
Vcom.android.browser
p8
(dp9
S'weight'
p10
F0.00060882079631531061
ssVcom.adobe.air
p11
(dp12
g10
F8.3590956015832133e-06
ssVcom.huawei.lcagent
p13
(dp14
g10
F0.010066673075306627
ssVcom.chaozh.iReaderFree15
p15
(dp16
g10
F0.0020201147703826096
ssVair.tv.douyu.android
p17
(dp18
g10
F0.017029335317225357
ssVcom.wonder
p19
(dp20
g10
F0.0014377644434723125
ssVcom.android.thememanager
p21
(dp22
g10
F0.0010857536398056417
ssVcom.evernote
p23
(dp24
g10
F0.0022866770412330968
ssVcom.android.deskclock
p25
(dp26
g10
F0.015640796658962366
ssVcom.UCMobile
p27
(dp28
g10
F0.28388417451376768
ssVcom.huawei.android.pushagent
p29
(dp30
g10
F5.3869727210202926e-05
ssVcom.taobao.taobao
p31
(dp32
g10
F0.0025569544656842873
ssVcom.android.notepad
p33
(dp34
g10
F0.0041358947459833387
ssVcom.huawei.android.internal.app
p35
(dp36
g10
F1.9040162203606206e-05
ssVcom.android.mediacenter
p37
(dp38
g10
F0.00291082284615131
ssVcom.sina.weibo
p39
(dp40
g10
F0.0012905514820444304
ssVcom.android.contacts
p41
(dp42
g10
F0.0395807820676966
ssVcom.eg.android.AlipayGphone
p43
(dp44
g10
F0.0083070834511733624
ssVcom.android.wifi
p45
(dp46
g10
F2.1362133204045989e-05
ssVcom.huawei.android.totemweather
p47
(dp48
g10
F0.0015863705875004586
ssVcn.wps.moffice_i18n
p49
(dp50
g10
F5.8978063411170442e-05
ssVcom.android.packageinstaller
p51
(dp52
g10
F0.0014196530696688823
ssVcom.sankuai.meituan
p53
(dp54
g10
F0.00022708876384301062
ssVcom.android.gallery3d
p55
(dp56
g10
F0.0071465623451535589
ssVcom.jingdong.app.mall
p57
(dp58
g10
F0.0028290894669358298
ssVcom.android.musicfx
p59
(dp60
g10
F3.0650017205805113e-05
ssVcom.huawei.hidisk
p61
(dp62
g10
F0.00013420992382541936
ssVcom.android.video
p63
(dp64
g10
F9.287884001759125e-07
ssVcom.android.phone
p65
(dp66
g10
F0.0013402416614538418
ssVcom.vmall.client
p67
(dp68
g10
F0.00062553898751847707
ssVcom.huawei.fans
p69
(dp70
g10
F0.00017646979603342338
ssVcom.tencent.mobileqq
p71
(dp72
g10
F0.13223346210984502
ssVcom.android.settings
p73
(dp74
g10
F0.0038879082431363698
ssVim.yixin
p75
(dp76
g10
F0.00042538508728056794
ssVcom.netease.cloudmusic
p77
(dp78
g10
F0.032120289243283584
ssVcom.huawei.android.hwouc
p79
(dp80
g10
F0.00015789402802990514
ssVcom.android.calculator
p81
(dp82
g10
F0.0055527614504516931
ssVcom.baidu.lbs.waimai
p83
(dp84
g10
F0.001741942644529924
ssVcom.huawei.android.dsdscardmanager
p85
(dp86
g10
F5.6191698210642709e-05
ssVcom.qiyi.video
p87
(dp88
g10
F0.0018306419367467236
ssVcom.kingsoft
p89
(dp90
g10
F0.0061248951049600554
ssVcom.baidu.BaiduMap
p91
(dp92
g10
F0.003153701012797311
ssVcom.android.email
p93
(dp94
g10
F0.003451842089253779
ssVcom.huawei.gamebox
p95
(dp96
g10
F1.6718191203166427e-05
ssVcom.rrh.jdb
p97
(dp98
g10
F0.0006348268715202362
ssVcom.huawei.vassistant
p99
(dp100
g10
F6.1764428611698176e-05
ssVcom.machipopo.story17
p101
(dp102
g10
F0.0017349767315286047
ssVcom.android.calendar
p103
(dp104
g10
F0.0021441080218060939
ssVcom.tencent.mm
p105
(dp106
g10
F0.32500953169095681
ssVcom.baidu.input_huawei
p107
(dp108
g10
F6.4550793812225924e-05
ssVcom.duowan.mobile
p109
(dp110
g10
F0.00010495308921987812
ssVcom.huawei.hwid
p111
(dp112
g10
F2.5541681004837596e-05
ssVcom.android.keyguard
p113
(dp114
g10
F3.2507594006156938e-06
ssVcom.dotamax.app
p115
(dp116
g10
F0.06474305301106234
ssVcom.huawei.appmarket
p117
(dp118
g10
F0.0023456551046442671
ssVcom.iyuba.toelflistening
p119
(dp120
g10
F0.00079597165895075705
ssVcom.android.camera
p121
(dp122
g10
F0.0015575781470950052
ssVcn.coupon.kfc
p123
(dp124
g10
F0.0014999932662840988
sssS'node_dict_factory'
p125
c__builtin__
dict
p126
sS'edge_attr_dict_factory'
p127
g126
sS'succ'
p128
(dp129
g8
(dp130
Vcom.machipopo.story17
p131
(dp132
g10
F2.1000000000000001
ssVcom.android.email
p133
(dp134
g10
F12.1
ssVcom.huawei.hwid
p135
(dp136
g10
F1.3999999999999999
ssVcom.tencent.mobileqq
p137
(dp138
g10
F0.69999999999999996
ssVcom.android.thememanager
p139
(dp140
g10
I1
ssVcom.UCMobile
p141
(dp142
g10
F7.5000000000000009
ssVcom.dotamax.app
p143
(dp144
g10
F1.6000000000000001
ssVcom.android.notepad
p145
(dp146
g10
F0.40000000000000002
ssVcom.huawei.appmarket
p147
(dp148
g10
F1.3
ssVcom.huawei.fans
p149
(dp150
g10
F1.3
ssVcom.tencent.mm
p151
(dp152
g10
F9.9000000000000021
ssVcom.android.contacts
p153
(dp154
g10
F0.90000000000000002
sssg11
(dp155
Vcom.UCMobile
p156
(dp157
g10
F3
ssVcom.android.settings
p158
(dp159
g10
F2
sssg13
(dp160
Vcom.tencent.mobileqq
p161
(dp162
g10
F0.90000000000000002
ssVcom.android.deskclock
p163
(dp164
g10
I2
ssVcom.huawei.hwid
p165
(dp166
g10
F0.69999999999999996
ssVcom.huawei.appmarket
p167
(dp168
g10
F0.90000000000000002
ssVcom.tencent.mm
p169
(dp170
g10
I1
ssVcom.android.contacts
p171
(dp172
g10
I1
sssg15
(dp173
Vcom.huawei.hidisk
p174
(dp175
g10
I1
ssVcom.android.settings
p176
(dp177
g10
F0.40000000000000002
ssVcom.UCMobile
p178
(dp179
g10
F1.7
ssVcom.dotamax.app
p180
(dp181
g10
F0.90000000000000002
ssVair.tv.douyu.android
p182
(dp183
g10
F0.69999999999999996
ssVcom.tencent.mm
p184
(dp185
g10
F1.8999999999999999
sssg17
(dp186
Vcom.UCMobile
p187
(dp188
g10
F2.5999999999999996
ssVcom.android.settings
p189
(dp190
g10
I2
ssVcom.android.deskclock
p191
(dp192
g10
I1
ssVcom.huawei.hidisk
p193
(dp194
g10
F0.90000000000000002
ssVcom.huawei.appmarket
p195
(dp196
g10
F1.7
ssVcom.android.email
p197
(dp198
g10
F0.40000000000000002
ssVcom.tencent.mm
p199
(dp200
g10
F5.6000000000000005
ssVcom.android.contacts
p201
(dp202
g10
F1.8999999999999999
ssVcom.tencent.mobileqq
p203
(dp204
g10
F6.5
sssg19
(dp205
Vcom.android.camera
p206
(dp207
g10
F1.3
ssVcom.tencent.mm
p208
(dp209
g10
F2.7000000000000002
ssVcom.android.gallery3d
p210
(dp211
g10
F0.69999999999999996
ssVcom.android.thememanager
p212
(dp213
g10
I1
ssVcom.huawei.appmarket
p214
(dp215
g10
I1
sssg21
(dp216
Vcom.android.browser
p217
(dp218
g10
F0.69999999999999996
ssVcom.huawei.hwid
p219
(dp220
g10
F2.7999999999999998
ssVcom.android.calendar
p221
(dp222
g10
F0.90000000000000002
ssg210
(dp223
g10
F2.7000000000000002
ssg51
(dp224
g10
F0.90000000000000002
ssVcom.huawei.android.dsdscardmanager
p225
(dp226
g10
I1
ssVcom.android.deskclock
p227
(dp228
g10
F1.7
ssVcom.UCMobile
p229
(dp230
g10
F1.3999999999999999
ssVcom.android.notepad
p231
(dp232
g10
F0.40000000000000002
ssVcom.huawei.android.totemweather
p233
(dp234
g10
F2.2999999999999998
ssg206
(dp235
g10
F5.1000000000000005
ssg149
(dp236
g10
F1.7
ssg105
(dp237
g10
F4.2000000000000002
ssVcom.eg.android.AlipayGphone
p238
(dp239
g10
F0.40000000000000002
sssg23
(dp240
Vcom.huawei.hwid
p241
(dp242
g10
F0.69999999999999996
ssVcom.android.deskclock
p243
(dp244
g10
F2.6000000000000001
ssVcom.UCMobile
p245
(dp246
g10
F3.7999999999999998
ssVcom.huawei.appmarket
p247
(dp248
g10
F1.3
ssVcom.tencent.mm
p249
(dp250
g10
I3
ssVcom.eg.android.AlipayGphone
p251
(dp252
g10
I1
sssg25
(dp253
Vcom.android.browser
p254
(dp255
g10
F0.40000000000000002
ssVcom.kingsoft
p256
(dp257
g10
I1
ssVcom.qiyi.video
p258
(dp259
g10
I1
ssVcom.evernote
p260
(dp261
g10
F0.69999999999999996
ssVcom.UCMobile
p262
(dp263
g10
F31.899999999999981
ssg231
(dp264
g10
I1
ssVcom.huawei.android.internal.app
p265
(dp266
g10
F1.3
ssVcom.android.contacts
p267
(dp268
g10
F9.0999999999999996
ssg238
(dp269
g10
F0.69999999999999996
ssVcom.android.gallery3d
p270
(dp271
g10
F0.90000000000000002
ssVcom.jingdong.app.mall
p272
(dp273
g10
F0.90000000000000002
ssVcom.taobao.taobao
p274
(dp275
g10
I1
ssVcom.tencent.mm
p276
(dp277
g10
F73.100000000000009
ssVcom.netease.cloudmusic
p278
(dp279
g10
F2.7000000000000002
ssVcom.huawei.lcagent
p280
(dp281
g10
F2.7000000000000002
ssVair.tv.douyu.android
p282
(dp283
g10
F1.8999999999999999
ssVcom.android.email
p284
(dp285
g10
F2.8999999999999999
ssVcom.tencent.mobileqq
p286
(dp287
g10
F5.1000000000000005
ssg103
(dp288
g10
I1
ssg73
(dp289
g10
F4.4000000000000004
ssVcom.baidu.BaiduMap
p290
(dp291
g10
I1
ssVcom.dotamax.app
p292
(dp293
g10
F10.5
ssVcom.android.camera
p294
(dp295
g10
F0.90000000000000002
sssg27
(dp296
g8
(dp297
g10
F11.600000000000001
ssg11
(dp298
g10
F1.1000000000000001
ssg15
(dp299
g10
F2.6000000000000001
ssVcom.baidu.input_huawei
p300
(dp301
g10
F0.69999999999999996
ssVim.yixin
p302
(dp303
g10
F1.8999999999999999
ssVcn.wps.moffice_i18n
p304
(dp305
g10
F0.90000000000000002
ssg23
(dp306
g10
I4
ssg25
(dp307
g10
F26.79999999999999
ssVcom.machipopo.story17
p308
(dp309
g10
F2.2999999999999998
ssVcom.huawei.android.pushagent
p310
(dp311
g10
I1
ssg31
(dp312
g10
F4.9000000000000004
ssVcom.android.notepad
p313
(dp314
g10
I5
ssVcom.android.mediacenter
p315
(dp316
g10
I2
ssVcom.sina.weibo
p317
(dp318
g10
F1.3999999999999999
ssVcom.android.contacts
p319
(dp320
g10
F35.599999999999987
ssVcom.eg.android.AlipayGphone
p321
(dp322
g10
F12.700000000000001
ssVcom.huawei.android.totemweather
p323
(dp324
g10
I2
ssg51
(dp325
g10
F4.7000000000000002
ssVcom.android.gallery3d
p326
(dp327
g10
F17.100000000000001
ssg57
(dp328
g10
F4.6999999999999993
ssg59
(dp329
g10
F0.69999999999999996
ssVcom.huawei.hidisk
p330
(dp331
g10
F1.3999999999999999
ssVcom.android.phone
p332
(dp333
g10
F0.90000000000000002
ssVcom.vmall.client
p334
(dp335
g10
F2.8999999999999999
ssVcom.tencent.mm
p336
(dp337
g10
F205.90000000000018
ssg77
(dp338
g10
F10.100000000000001
ssg79
(dp339
g10
F1.3999999999999999
ssVcom.android.calculator
p340
(dp341
g10
I1
ssVcom.baidu.lbs.waimai
p342
(dp343
g10
F0.90000000000000002
ssVcom.kingsoft
p344
(dp345
g10
F4.5999999999999996
ssg17
(dp346
g10
F4.2000000000000002
ssVcom.android.email
p347
(dp348
g10
F13.699999999999999
ssg71
(dp349
g10
F76.100000000000023
ssVcom.rrh.jdb
p350
(dp351
g10
I2
ssVcom.huawei.vassistant
p352
(dp353
g10
I1
ssg103
(dp354
g10
F4.2999999999999998
ssg73
(dp355
g10
F49.600000000000001
ssVcom.baidu.BaiduMap
p356
(dp357
g10
I4
ssVcom.huawei.hwid
p358
(dp359
g10
F4
ssVcom.dotamax.app
p360
(dp361
g10
F64.5
ssVcom.huawei.appmarket
p362
(dp363
g10
F12.299999999999999
ssVcom.android.camera
p364
(dp365
g10
F17.899999999999999
sssg29
(dp366
g67
(dp367
g10
F1.7
ssVcom.huawei.hwid
p368
(dp369
g10
F0.90000000000000002
ssVcom.tencent.mm
p370
(dp371
g10
F0.40000000000000002
sssg31
(dp372
Vcom.android.browser
p373
(dp374
g10
I1
ssVcom.baidu.lbs.waimai
p375
(dp376
g10
I1
ssVcom.huawei.vassistant
p377
(dp378
g10
I1
ssVcom.android.settings
p379
(dp380
g10
F0.40000000000000002
ssVcom.tencent.mm
p381
(dp382
g10
F5.7000000000000002
ssg272
(dp383
g10
I1
ssVcom.UCMobile
p384
(dp385
g10
F2.2999999999999998
ssVcom.dotamax.app
p386
(dp387
g10
I1
ssVcom.android.camera
p388
(dp389
g10
I1
ssVcom.tencent.mobileqq
p390
(dp391
g10
F0.90000000000000002
ssVcom.android.contacts
p392
(dp393
g10
I1
sssg33
(dp394
g254
(dp395
g10
F0.69999999999999996
ssg139
(dp396
g10
F0.40000000000000002
ssVcom.evernote
p397
(dp398
g10
I1
ssVcom.UCMobile
p399
(dp400
g10
F1.8999999999999999
ssVcom.tencent.mm
p401
(dp402
g10
F8.9000000000000004
ssVcom.android.contacts
p403
(dp404
g10
F4.9000000000000004
sssg35
(dp405
Vcom.huawei.hidisk
p406
(dp407
g10
F0.90000000000000002
ssVcom.android.gallery3d
p408
(dp409
g10
F2.2000000000000002
ssVcom.tencent.mm
p410
(dp411
g10
F6.7000000000000011
ssg49
(dp412
g10
I1
ssVcom.eg.android.AlipayGphone
p413
(dp414
g10
F0.40000000000000002
sssg37
(dp415
g373
(dp416
g10
F0.69999999999999996
ssVcom.netease.cloudmusic
p417
(dp418
g10
F5
ssVcom.UCMobile
p419
(dp420
g10
F5.9000000000000012
ssg73
(dp421
g10
F3.1000000000000001
ssVcom.android.musicfx
p422
(dp423
g10
F2.7000000000000002
ssVcom.taobao.taobao
p424
(dp425
g10
F0.90000000000000002
ssg25
(dp426
g10
F1.3999999999999999
ssg111
(dp427
g10
F5.9000000000000004
ssVcom.dotamax.app
p428
(dp429
g10
F0.40000000000000002
ssVcom.iyuba.toelflistening
p430
(dp431
g10
I1
ssVcom.android.email
p432
(dp433
g10
F0.90000000000000002
ssVcom.tencent.mm
p434
(dp435
g10
F10.700000000000001
ssVcom.android.contacts
p436
(dp437
g10
F3.4000000000000004
ssVcom.tencent.mobileqq
p438
(dp439
g10
F3.7000000000000002
sssg39
(dp440
Vcom.android.deskclock
p441
(dp442
g10
I1
ssVcom.android.settings
p443
(dp444
g10
I1
ssVcom.tencent.mm
p445
(dp446
g10
F0.90000000000000002
ssVcom.dotamax.app
p447
(dp448
g10
F0.40000000000000002
ssVcom.UCMobile
p449
(dp450
g10
F1.6000000000000001
sssg41
(dp451
g254
(dp452
g10
F3.6999999999999997
ssVcom.kingsoft
p453
(dp454
g10
I1
ssVcom.tencent.mm
p455
(dp456
g10
F122.00000000000006
ssVcom.android.thememanager
p457
(dp458
g10
F3.5
ssVcom.evernote
p459
(dp460
g10
F4
ssVcom.android.deskclock
p461
(dp462
g10
F2.7999999999999998
ssVcom.UCMobile
p463
(dp464
g10
F19.899999999999999
ssVcom.android.notepad
p465
(dp466
g10
I2
ssVcom.android.mediacenter
p467
(dp468
g10
I2
ssVcom.eg.android.AlipayGphone
p469
(dp470
g10
F5.2000000000000002
ssVcom.android.gallery3d
p471
(dp472
g10
F3.5
ssVcom.taobao.taobao
p473
(dp474
g10
F2.2999999999999998
ssg65
(dp475
g10
F16.899999999999999
ssg149
(dp476
g10
F1.1000000000000001
ssVcom.tencent.mobileqq
p477
(dp478
g10
F29.199999999999989
ssVcom.netease.cloudmusic
p479
(dp480
g10
F8
ssVcom.android.calculator
p481
(dp482
g10
I2
ssVcom.baidu.lbs.waimai
p483
(dp484
g10
F4.5999999999999996
ssVcom.huawei.android.dsdscardmanager
p485
(dp486
g10
F2.7000000000000002
ssVcom.huawei.lcagent
p487
(dp488
g10
I1
ssVair.tv.douyu.android
p489
(dp490
g10
I1
ssVcom.android.email
p491
(dp492
g10
F6.2999999999999998
ssg103
(dp493
g10
F4.5999999999999996
ssg47
(dp494
g10
F2.5999999999999996
ssVcom.baidu.BaiduMap
p495
(dp496
g10
F3.7000000000000002
ssVcom.huawei.hwid
p497
(dp498
g10
F1.3
ssVcom.dotamax.app
p499
(dp500
g10
F7.4000000000000004
ssVcom.android.settings
p501
(dp502
g10
F15.000000000000002
ssVcom.android.camera
p503
(dp504
g10
F8.1000000000000014
sssg43
(dp505
Vcom.huawei.vassistant
p506
(dp507
g10
I1
ssVcom.netease.cloudmusic
p508
(dp509
g10
I1
ssg241
(dp510
g10
F1.3
ssg71
(dp511
g10
F10.4
ssVcom.android.packageinstaller
p512
(dp513
g10
F1.7
ssg408
(dp514
g10
F1.6000000000000001
ssVcom.baidu.BaiduMap
p515
(dp516
g10
F0.90000000000000002
ssVcom.evernote
p517
(dp518
g10
I1
ssVcom.UCMobile
p519
(dp520
g10
F11.6
ssg63
(dp521
g10
F1.8999999999999999
ssVcom.dotamax.app
p522
(dp523
g10
F1.8999999999999999
ssg247
(dp524
g10
F6.4000000000000004
ssg265
(dp525
g10
I2
ssg491
(dp526
g10
F0.90000000000000002
ssVcom.tencent.mm
p527
(dp528
g10
F28.199999999999989
ssVcom.android.contacts
p529
(dp530
g10
F4.9000000000000004
ssVcom.android.settings
p531
(dp532
g10
F4.0999999999999996
sssg45
(dp533
Vcom.UCMobile
p534
(dp535
g10
I1
ssVcom.android.settings
p536
(dp537
g10
F0.90000000000000002
sssg47
(dp538
Vcom.huawei.gamebox
p539
(dp540
g10
F3
ssVcom.huawei.hwid
p541
(dp542
g10
F2.2999999999999998
ssg221
(dp543
g10
I1
ssVcom.tencent.mm
p544
(dp545
g10
F9.5
ssg260
(dp546
g10
F0.40000000000000002
ssVcom.android.deskclock
p547
(dp548
g10
F3.8999999999999999
ssVcom.UCMobile
p549
(dp550
g10
F1.3999999999999999
ssVcom.dotamax.app
p551
(dp552
g10
I1
ssg231
(dp553
g10
F0.69999999999999996
ssVcom.huawei.appmarket
p554
(dp555
g10
F1.3
ssVcom.tencent.mobileqq
p556
(dp557
g10
F1.6000000000000001
ssVcom.android.contacts
p558
(dp559
g10
F0.40000000000000002
sssg49
(dp560
Vcom.tencent.mobileqq
p561
(dp562
g10
I2
ssVcom.android.contacts
p563
(dp564
g10
F1.6000000000000001
sssg51
(dp565
g217
(dp566
g10
I1
ssVcom.baidu.lbs.waimai
p567
(dp568
g10
F0.90000000000000002
ssVcom.tencent.mm
p569
(dp570
g10
I2
ssVcom.android.contacts
p571
(dp572
g10
F0.69999999999999996
ssVcom.UCMobile
p573
(dp574
g10
F0.90000000000000002
sssg53
(dp575
sg55
(dp576
Vcom.netease.cloudmusic
p577
(dp578
g10
F0.69999999999999996
ssVcom.wonder
p579
(dp580
g10
F1.7
ssVcom.tencent.mobileqq
p581
(dp582
g10
F18
ssVcom.baidu.input_huawei
p583
(dp584
g10
F1.3
ssVcom.evernote
p585
(dp586
g10
I1
ssVcom.UCMobile
p587
(dp588
g10
I1
ssVcom.dotamax.app
p589
(dp590
g10
F2.7000000000000002
ssVcom.huawei.android.totemweather
p591
(dp592
g10
F0.69999999999999996
ssVcom.android.camera
p593
(dp594
g10
F64.600000000000023
ssVcom.android.mediacenter
p595
(dp596
g10
F0.90000000000000002
ssVcom.tencent.mm
p597
(dp598
g10
F36.499999999999986
ssVcom.android.contacts
p599
(dp600
g10
F5.8000000000000007
ssg413
(dp601
g10
F0.90000000000000002
sssg57
(dp602
Vcom.UCMobile
p603
(dp604
g10
I1
ssVcom.tencent.mm
p605
(dp606
g10
F6.4000000000000004
ssVcom.android.contacts
p607
(dp608
g10
F0.90000000000000002
sssg59
(dp609
g111
(dp610
g10
F0.40000000000000002
ssg37
(dp611
g10
F3
ssVcom.netease.cloudmusic
p612
(dp613
g10
F4.2999999999999998
ssg419
(dp614
g10
F0.40000000000000002
sssg61
(dp615
Vcom.android.calendar
p616
(dp617
g10
I1
ssg85
(dp618
g10
F1.7
ssg55
(dp619
g10
F1.3
ssg21
(dp620
g10
F0.90000000000000002
ssVcom.taobao.taobao
p621
(dp622
g10
F0.90000000000000002
ssVcom.dotamax.app
p623
(dp624
g10
F3.6000000000000001
ssVcom.tencent.mobileqq
p625
(dp626
g10
I1
ssg182
(dp627
g10
F0.90000000000000002
ssg35
(dp628
g10
F2.3999999999999999
ssg121
(dp629
g10
F1.7
ssg105
(dp630
g10
F1.7000000000000002
ssg176
(dp631
g10
F0.69999999999999996
sssg63
(dp632
g531
(dp633
g10
F5
sssg65
(dp634
Vcom.huawei.hwid
p635
(dp636
g10
F0.90000000000000002
ssg87
(dp637
g10
F0.40000000000000002
ssVcom.UCMobile
p638
(dp639
g10
F0.90000000000000002
ssVcom.huawei.appmarket
p640
(dp641
g10
F1.7
ssVcom.tencent.mm
p642
(dp643
g10
I1
ssVcom.android.contacts
p644
(dp645
g10
F23.899999999999999
sssg67
(dp646
g368
(dp647
g10
I1
ssg370
(dp648
g10
F2.6000000000000001
ssVcom.dotamax.app
p649
(dp650
g10
I1
sssg69
(dp651
Vcom.huawei.android.totemweather
p652
(dp653
g10
F3
ssg135
(dp654
g10
F1.3999999999999999
ssVcom.tencent.mm
p655
(dp656
g10
F1.6000000000000001
ssg95
(dp657
g10
F1.1000000000000001
ssVcom.huawei.appmarket
p658
(dp659
g10
I1
sssg71
(dp660
g8
(dp661
g10
F2.2000000000000002
ssg302
(dp662
g10
F1.6000000000000001
ssVcom.qiyi.video
p663
(dp664
g10
F0.40000000000000002
ssg591
(dp665
g10
F3.2999999999999998
ssVcom.android.deskclock
p666
(dp667
g10
F2.7000000000000002
ssVcom.UCMobile
p668
(dp669
g10
F64.299999999999997
ssVcom.duowan.mobile
p670
(dp671
g10
I1
ssVcom.android.notepad
p672
(dp673
g10
F3.6000000000000001
ssVcom.huawei.android.internal.app
p674
(dp675
g10
I1
ssVcom.android.mediacenter
p676
(dp677
g10
F1.8999999999999999
ssVcom.android.contacts
p678
(dp679
g10
F43.599999999999994
ssVcom.eg.android.AlipayGphone
p680
(dp681
g10
F10.4
ssVcom.huawei.hwid
p682
(dp683
g10
F1.3
ssVcom.android.packageinstaller
p684
(dp685
g10
F0.90000000000000002
ssVcom.android.gallery3d
p686
(dp687
g10
F16.5
ssg621
(dp688
g10
F5.4999999999999991
ssVcom.huawei.hidisk
p689
(dp690
g10
I1
ssg49
(dp691
g10
F3.5999999999999996
ssVcom.android.phone
p692
(dp693
g10
F0.69999999999999996
ssg151
(dp694
g10
F208.80000000000013
ssVcom.netease.cloudmusic
p695
(dp696
g10
F1.7
ssVcom.huawei.android.hwouc
p697
(dp698
g10
F0.90000000000000002
ssg342
(dp699
g10
F1.3999999999999999
ssVcom.evernote
p700
(dp701
g10
F2.2999999999999998
ssVcom.android.thememanager
p702
(dp703
g10
F1.8999999999999999
ssg487
(dp704
g10
F2.5
ssVair.tv.douyu.android
p705
(dp706
g10
I1
ssg93
(dp707
g10
I3
ssVcom.huawei.vassistant
p708
(dp709
g10
I2
ssVcom.android.calendar
p710
(dp711
g10
I3
ssVcom.android.settings
p712
(dp713
g10
F24.5
ssg107
(dp714
g10
F7.8000000000000007
ssVcom.android.keyguard
p715
(dp716
g10
I1
ssVcom.dotamax.app
p717
(dp718
g10
F30.199999999999996
ssVcom.huawei.appmarket
p719
(dp720
g10
F3.4000000000000004
ssVcom.android.camera
p721
(dp722
g10
F23.29999999999999
sssg73
(dp723
g217
(dp724
g10
F1.3999999999999999
ssg11
(dp725
g10
F2
ssVcom.android.thememanager
p726
(dp727
g10
I1
ssg700
(dp728
g10
F0.40000000000000002
ssVcom.android.deskclock
p729
(dp730
g10
F0.69999999999999996
ssVcom.UCMobile
p731
(dp732
g10
F29.899999999999991
ssVcom.android.contacts
p733
(dp734
g10
F3.2999999999999998
ssVcom.eg.android.AlipayGphone
p735
(dp736
g10
F3.7000000000000002
ssg51
(dp737
g10
F0.69999999999999996
ssg326
(dp738
g10
F1.6000000000000001
ssg31
(dp739
g10
F3.2999999999999998
ssg330
(dp740
g10
I2
ssg692
(dp741
g10
F0.90000000000000002
ssVcom.tencent.mobileqq
p742
(dp743
g10
F12.4
ssVcom.netease.cloudmusic
p744
(dp745
g10
F0.69999999999999996
ssVcom.huawei.android.hwouc
p746
(dp747
g10
F3.7000000000000002
ssVcom.huawei.android.dsdscardmanager
p748
(dp749
g10
I1
ssg663
(dp750
g10
F1.3
ssVcom.tencent.mm
p751
(dp752
g10
F35.099999999999994
ssVcom.baidu.BaiduMap
p753
(dp754
g10
F4.7000000000000002
ssVcom.huawei.hwid
p755
(dp756
g10
F0.90000000000000002
ssg360
(dp757
g10
F9.4000000000000021
ssg362
(dp758
g10
F3.7000000000000002
ssVcom.android.camera
p759
(dp760
g10
F1.7
sssg75
(dp761
Vcom.UCMobile
p762
(dp763
g10
F1.8999999999999999
ssg347
(dp764
g10
F1.6000000000000001
ssVcom.tencent.mobileqq
p765
(dp766
g10
F1.1000000000000001
ssVcom.android.contacts
p767
(dp768
g10
I1
sssg77
(dp769
Vcom.android.thememanager
p770
(dp771
g10
I1
ssVcom.android.notepad
p772
(dp773
g10
F0.40000000000000002
ssg419
(dp774
g10
F5.7999999999999998
ssVcom.android.settings
p775
(dp776
g10
F1.8999999999999999
ssVcom.android.packageinstaller
p777
(dp778
g10
F0.90000000000000002
ssVcom.android.gallery3d
p779
(dp780
g10
F2.5
ssg59
(dp781
g10
F2.7000000000000002
ssg25
(dp782
g10
F4.5999999999999996
ssg111
(dp783
g10
F2.5
ssVcom.dotamax.app
p784
(dp785
g10
F1.8999999999999999
ssg13
(dp786
g10
F0.90000000000000002
ssVcom.huawei.appmarket
p787
(dp788
g10
F1.7
ssVcom.android.camera
p789
(dp790
g10
F4
ssg37
(dp791
g10
F6.6000000000000014
ssVcom.android.email
p792
(dp793
g10
I1
ssVcom.tencent.mm
p794
(dp795
g10
F19.099999999999998
ssVcom.android.contacts
p796
(dp797
g10
F6.2999999999999998
ssVcom.eg.android.AlipayGphone
p798
(dp799
g10
F0.69999999999999996
sssg79
(dp800
Vcom.android.settings
p801
(dp802
g10
F4.7000000000000002
ssVcom.tencent.mm
p803
(dp804
g10
I1
ssVcom.huawei.android.dsdscardmanager
p805
(dp806
g10
I1
ssVcom.android.contacts
p807
(dp808
g10
F0.90000000000000002
sssg81
(dp809
Vcom.android.camera
p810
(dp811
g10
I1
ssVcom.tencent.mm
p812
(dp813
g10
I4
ssVcom.android.contacts
p814
(dp815
g10
F2.8999999999999999
ssVcom.android.thememanager
p816
(dp817
g10
F0.90000000000000002
ssVcom.tencent.mobileqq
p818
(dp819
g10
F0.90000000000000002
sssg83
(dp820
Vcom.tencent.mm
p821
(dp822
g10
F3.7999999999999998
ssg684
(dp823
g10
I1
ssVcom.dotamax.app
p824
(dp825
g10
F0.69999999999999996
ssVcom.android.settings
p826
(dp827
g10
I1
ssVcom.tencent.mobileqq
p828
(dp829
g10
I1
ssVcom.android.contacts
p830
(dp831
g10
F6.7000000000000002
sssg85
(dp832
Vcom.netease.cloudmusic
p833
(dp834
g10
F2.3999999999999999
ssVcom.android.settings
p835
(dp836
g10
I2
ssg51
(dp837
g10
F0.40000000000000002
ssg21
(dp838
g10
F2.8999999999999999
ssVcom.android.deskclock
p839
(dp840
g10
F0.90000000000000002
ssg229
(dp841
g10
F2
ssg105
(dp842
g10
F2.7999999999999998
ssVcom.android.contacts
p843
(dp844
g10
F3.7000000000000002
ssVcom.eg.android.AlipayGphone
p845
(dp846
g10
I1
sssg87
(dp847
g729
(dp848
g10
I1
ssVcom.UCMobile
p849
(dp850
g10
F0.40000000000000002
ssVcom.tencent.mm
p851
(dp852
g10
F1.7
ssg522
(dp853
g10
F0.69999999999999996
ssVcom.eg.android.AlipayGphone
p854
(dp855
g10
F1.8999999999999999
sssg89
(dp856
Vcom.baidu.input_huawei
p857
(dp858
g10
I1
ssVcom.tencent.mobileqq
p859
(dp860
g10
F0.90000000000000002
ssVcom.android.deskclock
p861
(dp862
g10
I2
ssVcom.UCMobile
p863
(dp864
g10
I1
ssg33
(dp865
g10
I1
ssVcom.tencent.mm
p866
(dp867
g10
F2.7999999999999998
ssVcom.android.contacts
p868
(dp869
g10
I1
sssg91
(dp870
Vcom.android.settings
p871
(dp872
g10
I6
ssVcom.android.deskclock
p873
(dp874
g10
I1
ssVcom.UCMobile
p875
(dp876
g10
F1.7
ssVcom.tencent.mm
p877
(dp878
g10
F3.7000000000000002
ssVcom.android.contacts
p879
(dp880
g10
F1.7
ssVcom.eg.android.AlipayGphone
p881
(dp882
g10
F0.90000000000000002
sssg93
(dp883
Vcom.android.browser
p884
(dp885
g10
F12.5
ssVcom.android.calculator
p886
(dp887
g10
I1
ssVcom.android.settings
p888
(dp889
g10
F0.90000000000000002
ssVcom.tencent.mm
p890
(dp891
g10
F17.300000000000001
ssg270
(dp892
g10
F0.40000000000000002
ssVcom.baidu.BaiduMap
p893
(dp894
g10
F1.7
ssVcom.android.deskclock
p895
(dp896
g10
F0.90000000000000002
ssVcom.UCMobile
p897
(dp898
g10
F4.6000000000000005
ssVcom.dotamax.app
p899
(dp900
g10
F1.6000000000000001
ssg145
(dp901
g10
F0.69999999999999996
ssg810
(dp902
g10
F0.90000000000000002
ssg765
(dp903
g10
F3.1999999999999997
ssVcom.android.contacts
p904
(dp905
g10
F6
ssVcom.eg.android.AlipayGphone
p906
(dp907
g10
I1
sssg95
(dp908
Vcom.huawei.hwid
p909
(dp910
g10
F2.3999999999999999
ssg640
(dp911
g10
F0.69999999999999996
ssVcom.tencent.mm
p912
(dp913
g10
F1.7
ssVcom.android.phone
p914
(dp915
g10
F1.3
sssg97
(dp916
Vcom.UCMobile
p917
(dp918
g10
I1
ssVcom.android.packageinstaller
p919
(dp920
g10
F0.69999999999999996
ssVcom.dotamax.app
p921
(dp922
g10
F0.90000000000000002
ssVcom.huawei.appmarket
p923
(dp924
g10
I1
sssg99
(dp925
Vcom.UCMobile
p926
(dp927
g10
I1
ssVcom.android.gallery3d
p928
(dp929
g10
F0.69999999999999996
ssVcom.tencent.mm
p930
(dp931
g10
F6.7000000000000011
ssVcom.android.contacts
p932
(dp933
g10
F0.40000000000000002
ssVcom.android.settings
p934
(dp935
g10
I2
sssg101
(dp936
g300
(dp937
g10
F2.2999999999999998
ssVcom.android.browser
p938
(dp939
g10
I1
ssVcom.dotamax.app
p940
(dp941
g10
F2.2999999999999998
ssVcom.UCMobile
p942
(dp943
g10
F1.7
sssg103
(dp944
Vcom.netease.cloudmusic
p945
(dp946
g10
I1
ssVcom.tencent.mm
p947
(dp948
g10
F6.6000000000000005
ssVcom.taobao.taobao
p949
(dp950
g10
I1
ssg227
(dp951
g10
I1
ssVcom.UCMobile
p952
(dp953
g10
F1.7
ssg672
(dp954
g10
F1.8999999999999999
ssVcom.android.mediacenter
p955
(dp956
g10
F1.7
ssVcom.tencent.mobileqq
p957
(dp958
g10
F0.90000000000000002
ssVcom.android.contacts
p959
(dp960
g10
F9.0999999999999996
sssg105
(dp961
g8
(dp962
g10
F7.2000000000000011
ssVcom.android.calendar
p963
(dp964
g10
F8.4000000000000004
ssg15
(dp965
g10
F2.7000000000000002
ssg579
(dp966
g10
F7
ssg457
(dp967
g10
I2
ssg23
(dp968
g10
F5.2999999999999998
ssg461
(dp969
g10
F30.899999999999991
ssg27
(dp970
g10
F295.99999999999994
ssg29
(dp971
g10
I1
ssg31
(dp972
g10
F9.9000000000000004
ssVcom.android.notepad
p973
(dp974
g10
F10.6
ssg35
(dp975
g10
F7.7000000000000011
ssVcom.android.mediacenter
p976
(dp977
g10
F12.699999999999999
ssg317
(dp978
g10
F1.8999999999999999
ssVcom.android.contacts
p979
(dp980
g10
F110.10000000000005
ssg43
(dp981
g10
F40.700000000000003
ssVcom.android.packageinstaller
p982
(dp983
g10
F3.2000000000000002
ssVcom.android.gallery3d
p984
(dp985
g10
F41.699999999999996
ssg57
(dp986
g10
F10.4
ssg59
(dp987
g10
F0.90000000000000002
ssg330
(dp988
g10
F7.5000000000000009
ssg914
(dp989
g10
I1
ssg67
(dp990
g10
F3.7999999999999998
ssg69
(dp991
g10
F0.40000000000000002
ssg71
(dp992
g10
F245.60000000000014
ssVcom.baidu.BaiduMap
p993
(dp994
g10
F5.4000000000000004
ssg83
(dp995
g10
F3
ssg77
(dp996
g10
F13.700000000000003
ssg79
(dp997
g10
F3.5999999999999996
ssg117
(dp998
g10
F14.9
ssg663
(dp999
g10
F2.3999999999999999
ssVcom.kingsoft
p1000
(dp1001
g10
F3.4000000000000004
ssVair.tv.douyu.android
p1002
(dp1003
g10
F5
ssVcom.android.email
p1004
(dp1005
g10
F11.200000000000001
ssg95
(dp1006
g10
F3
ssg99
(dp1007
g10
I5
ssg107
(dp1008
g10
F3.1999999999999997
ssVcom.android.settings
p1009
(dp1010
g10
F45.999999999999986
ssg109
(dp1011
g10
F0.90000000000000002
ssg13
(dp1012
g10
I2
ssVcom.huawei.hwid
p1013
(dp1014
g10
F9.3000000000000007
ssVcom.android.keyguard
p1015
(dp1016
g10
I1
ssg717
(dp1017
g10
F84.30000000000004
ssg323
(dp1018
g10
F11.200000000000001
ssVcom.android.camera
p1019
(dp1020
g10
F15.900000000000002
sssg107
(dp1021
g695
(dp1022
g10
F0.90000000000000002
ssVcom.tencent.mobileqq
p1023
(dp1024
g10
F4.7000000000000002
ssVcom.machipopo.story17
p1025
(dp1026
g10
F1.8999999999999999
ssg940
(dp1027
g10
F0.69999999999999996
ssVcom.kingsoft
p1028
(dp1029
g10
I1
ssVcom.tencent.mm
p1030
(dp1031
g10
F1.3
ssVcom.android.contacts
p1032
(dp1033
g10
F0.90000000000000002
sssg109
(dp1034
Vcom.huawei.hwid
p1035
(dp1036
g10
F0.90000000000000002
ssVcom.tencent.mm
p1037
(dp1038
g10
F0.69999999999999996
ssVcom.huawei.appmarket
p1039
(dp1040
g10
I1
sssg111
(dp1041
Vcom.android.gallery3d
p1042
(dp1043
g10
F0.90000000000000002
ssVcom.huawei.gamebox
p1044
(dp1045
g10
F2.3999999999999999
ssg417
(dp1046
g10
F0.90000000000000002
ssVcom.UCMobile
p1047
(dp1048
g10
F4.7000000000000002
ssg652
(dp1049
g10
F1.6000000000000001
ssg982
(dp1050
g10
F0.69999999999999996
ssg914
(dp1051
g10
F0.69999999999999996
ssg87
(dp1052
g10
F0.90000000000000002
ssg422
(dp1053
g10
F0.69999999999999996
ssVair.tv.douyu.android
p1054
(dp1055
g10
F1.6000000000000001
ssg119
(dp1056
g10
F0.90000000000000002
ssVcom.android.thememanager
p1057
(dp1058
g10
I1
ssg772
(dp1059
g10
F0.90000000000000002
ssVcom.huawei.appmarket
p1060
(dp1061
g10
F16.5
ssVcom.vmall.client
p1062
(dp1063
g10
I1
ssVcom.android.mediacenter
p1064
(dp1065
g10
F2.3999999999999999
ssg69
(dp1066
g10
F1.8999999999999999
ssg370
(dp1067
g10
F6.0000000000000009
ssVcom.eg.android.AlipayGphone
p1068
(dp1069
g10
F2.3999999999999999
ssVcom.tencent.mobileqq
p1070
(dp1071
g10
F0.80000000000000004
sssg113
(dp1072
Vcom.android.deskclock
p1073
(dp1074
g10
I1
ssVcom.tencent.mm
p1075
(dp1076
g10
I1
sssg115
(dp1077
Vcom.rrh.jdb
p1078
(dp1079
g10
F0.90000000000000002
ssVcom.UCMobile
p1080
(dp1081
g10
F22.699999999999992
ssg317
(dp1082
g10
F0.69999999999999996
ssVcom.android.contacts
p1083
(dp1084
g10
F4.5
ssVcom.eg.android.AlipayGphone
p1085
(dp1086
g10
F2.3999999999999999
ssg777
(dp1087
g10
I2
ssg326
(dp1088
g10
F3.6000000000000001
ssg621
(dp1089
g10
I1
ssg174
(dp1090
g10
F0.40000000000000002
ssg692
(dp1091
g10
F0.40000000000000002
ssg597
(dp1092
g10
F57.199999999999989
ssVcom.netease.cloudmusic
p1093
(dp1094
g10
I1
ssVcom.huawei.android.dsdscardmanager
p1095
(dp1096
g10
I1
ssVcom.chaozh.iReaderFree15
p1097
(dp1098
g10
F0.69999999999999996
ssg1054
(dp1099
g10
F3.3999999999999999
ssVcom.android.email
p1100
(dp1101
g10
F1.8999999999999999
ssg742
(dp1102
g10
F15.300000000000002
ssVcom.android.deskclock
p1103
(dp1104
g10
F11.4
ssVcom.android.calendar
p1105
(dp1106
g10
I1
ssVcom.android.settings
p1107
(dp1108
g10
F7.6000000000000005
ssVcom.baidu.BaiduMap
p1109
(dp1110
g10
I1
ssVcom.huawei.hwid
p1111
(dp1112
g10
F1.8
ssVcom.huawei.appmarket
p1113
(dp1114
g10
F5.4000000000000004
ssVcom.android.camera
p1115
(dp1116
g10
I2
sssg117
(dp1117
g11
(dp1118
g10
F1.8999999999999999
ssg87
(dp1119
g10
F1.7
ssg156
(dp1120
g10
F6.5
ssg109
(dp1121
g10
F1.7
ssg772
(dp1122
g10
F1.7
ssg39
(dp1123
g10
F4.5999999999999996
ssg830
(dp1124
g10
F2.2999999999999998
ssg1068
(dp1125
g10
F5.4000000000000004
ssg982
(dp1126
g10
F1.3
ssg1042
(dp1127
g10
F1.7
ssg69
(dp1128
g10
F1.7
ssVcom.tencent.mm
p1129
(dp1130
g10
F17.400000000000002
ssg83
(dp1131
g10
F2.5999999999999996
ssg17
(dp1132
g10
F5.1000000000000005
ssVcom.tencent.mobileqq
p1133
(dp1134
g10
F2.2999999999999998
ssg95
(dp1135
g10
F0.69999999999999996
ssg19
(dp1136
g10
I1
ssg158
(dp1137
g10
F0.40000000000000002
ssg1013
(dp1138
g10
F24.5
ssg115
(dp1139
g10
F2.3999999999999999
ssg591
(dp1140
g10
F0.40000000000000002
ssg119
(dp1141
g10
F1.7
sssg119
(dp1142
Vcom.android.mediacenter
p1143
(dp1144
g10
I1
ssVcom.tencent.mm
p1145
(dp1146
g10
F0.90000000000000002
ssVcom.huawei.appmarket
p1147
(dp1148
g10
I1
sssg121
(dp1149
g577
(dp1150
g10
F0.90000000000000002
ssg579
(dp1151
g10
F1.1000000000000001
ssVcom.tencent.mobileqq
p1152
(dp1153
g10
F15
ssg83
(dp1154
g10
F1.1000000000000001
ssg55
(dp1155
g10
F65.800000000000011
ssVcom.android.thememanager
p1156
(dp1157
g10
I1
ssVcom.UCMobile
p1158
(dp1159
g10
F1.8999999999999999
ssVcom.dotamax.app
p1160
(dp1161
g10
I1
ssVcom.huawei.appmarket
p1162
(dp1163
g10
F0.90000000000000002
ssg595
(dp1164
g10
I1
ssVcom.tencent.mm
p1165
(dp1166
g10
F16.5
ssg599
(dp1167
g10
F4.2999999999999998
sssg123
(dp1168
Vcom.huawei.appmarket
p1169
(dp1170
g10
I1
ssssS'edge'
p1171
g129
sS'graph'
p1172
(dp1173
sS'adjlist_dict_factory'
p1174
g126
sS'adj'
p1175
g129
sS'pred'
p1176
(dp1177
g8
(dp1178
g101
g939
sg835
g724
sg51
g566
sg726
g218
sg227
g255
sg519
g297
sg424
g374
sg231
g395
sg676
g416
sVcom.android.email
p1179
g885
sVcom.tencent.mm
p1180
g962
sg558
g452
sg71
g661
ssg11
(dp1181
Vcom.android.settings
p1182
g725
sg362
g1118
sVcom.UCMobile
p1183
g298
ssg13
(dp1184
Vcom.android.deskclock
p1185
g281
sVcom.tencent.mobileqq
p1186
g704
sg794
g1012
sVcom.android.contacts
p1187
g488
sVcom.netease.cloudmusic
p1188
g786
ssg15
(dp1189
Vcom.UCMobile
p1190
g299
sVcom.tencent.mm
p1191
g965
sVcom.dotamax.app
p1192
g1098
ssg17
(dp1193
Vcom.UCMobile
p1194
g346
sg203
g706
sg174
g627
sVcom.android.deskclock
p1195
g283
sVcom.huawei.hwid
p1196
g1055
sg551
g1099
sg1097
g183
sVcom.huawei.appmarket
p1197
g1132
sg199
g1003
sVcom.android.contacts
p1198
g490
ssg19
(dp1199
Vcom.android.camera
p1200
g1151
sVcom.tencent.mm
p1201
g966
sVcom.android.gallery3d
p1202
g580
sVcom.huawei.appmarket
p1203
g1136
ssg21
(dp1204
g254
g140
sVcom.netease.cloudmusic
p1205
g771
sg219
g1058
sVcom.wonder
p1206
g213
sg835
g727
sg85
g838
sg61
g620
sg231
g396
sVcom.android.calculator
p1207
g817
sVcom.android.camera
p1208
g1157
sVcom.tencent.mm
p1209
g967
sVcom.android.contacts
p1210
g458
sVcom.tencent.mobileqq
p1211
g703
ssg23
(dp1212
Vcom.android.settings
p1213
g728
sVcom.android.gallery3d
p1214
g586
sVcom.android.deskclock
p1215
g261
sVcom.UCMobile
p1216
g306
sVcom.android.notepad
p1217
g398
sVcom.huawei.android.totemweather
p1218
g546
sVcom.tencent.mm
p1219
g968
sVcom.android.contacts
p1220
g460
sVcom.eg.android.AlipayGphone
p1221
g518
sVcom.tencent.mobileqq
p1222
g701
ssg25
(dp1223
g280
g164
sVcom.netease.cloudmusic
p1224
g782
sg221
g951
sg323
g548
sg317
g442
sg663
g848
sVcom.huawei.android.dsdscardmanager
p1225
g840
sVcom.baidu.BaiduMap
p1226
g874
sg457
g228
sVcom.evernote
p1227
g244
sVair.tv.douyu.android
p1228
g192
sg419
g307
sVcom.android.keyguard
p1229
g1074
sVcom.dotamax.app
p1230
g1104
sg89
g862
sVcom.android.settings
p1231
g730
sVcom.android.mediacenter
p1232
g426
sg1004
g896
sg455
g969
sg41
g462
sVcom.tencent.mobileqq
p1233
g667
ssg27
(dp1234
g8
g142
sg11
g157
sg45
g535
sg302
g763
sg726
g230
sg260
g246
sg25
g263
sg101
g943
sVcom.android.musicfx
p1235
g614
sVcom.android.notepad
p1236
g400
sg1232
g420
sg317
g450
sg41
g464
sVcom.eg.android.AlipayGphone
p1237
g520
sg51
g574
sg270
g588
sVcom.jingdong.app.mall
p1238
g604
sg31
g385
sVcom.android.phone
p1239
g639
sg71
g669
sVcom.android.settings
p1240
g732
sVcom.netease.cloudmusic
p1241
g774
sVcom.tencent.mm
p1242
g970
sVcom.huawei.android.dsdscardmanager
p1243
g841
sg87
g850
sg15
g179
sVair.tv.douyu.android
p1244
g188
sg1004
g898
sg97
g918
sVcom.kingsoft
p1245
g864
sVcom.huawei.vassistant
p1246
g927
sVcom.android.calendar
p1247
g953
sg323
g550
sVcom.baidu.BaiduMap
p1248
g876
sg358
g1048
sg717
g1081
sg362
g1120
sVcom.android.camera
p1249
g1159
ssg29
(dp1250
Vcom.UCMobile
p1251
g311
sVcom.tencent.mm
p1252
g971
ssg31
(dp1253
g689
g622
sVcom.android.calendar
p1254
g950
sVcom.tencent.mobileqq
p1255
g688
sVcom.android.deskclock
p1256
g275
sVcom.UCMobile
p1257
g312
sg623
g1089
sg501
g739
sg676
g425
sVcom.tencent.mm
p1258
g972
sVcom.android.contacts
p1259
g474
ssg33
(dp1260
g884
g146
sVcom.netease.cloudmusic
p1261
g773
sVcom.huawei.hwid
p1262
g1059
sVcom.android.calendar
p1263
g954
sVcom.tencent.mobileqq
p1264
g673
sg787
g1122
sg457
g232
sg227
g264
sVcom.UCMobile
p1265
g314
sVcom.kingsoft
p1266
g865
sg233
g553
sg133
g901
sVcom.tencent.mm
p1267
g974
sVcom.android.contacts
p1268
g466
ssg35
(dp1269
g839
g266
sVcom.huawei.hidisk
p1270
g628
sVcom.tencent.mm
p1271
g975
sg238
g525
sVcom.tencent.mobileqq
p1272
g675
ssg37
(dp1273
g77
g791
sg419
g316
sVcom.android.calendar
p1274
g956
sVcom.tencent.mobileqq
p1275
g677
sVcom.android.gallery3d
p1276
g596
sg59
g611
sg111
g1065
sVcom.iyuba.toelflistening
p1277
g1144
sVcom.android.camera
p1278
g1164
sVcom.tencent.mm
p1279
g977
sVcom.android.contacts
p1280
g468
ssg39
(dp1281
Vcom.UCMobile
p1282
g318
sVcom.tencent.mm
p1283
g978
sVcom.dotamax.app
p1284
g1082
sVcom.huawei.appmarket
p1285
g1123
ssg41
(dp1286
Vcom.android.browser
p1287
g154
sVcom.kingsoft
p1288
g869
sg75
g768
sg304
g564
sVcom.android.deskclock
p1289
g268
sVcom.UCMobile
p1290
g320
sg1162
g1124
sVcom.android.notepad
p1291
g404
sg955
g437
sVcom.eg.android.AlipayGphone
p1292
g530
sg684
g572
sVcom.android.gallery3d
p1293
g600
sg1238
g608
sVcom.taobao.taobao
p1294
g393
sVcom.android.phone
p1295
g645
sVcom.tencent.mm
p1296
g980
sVcom.netease.cloudmusic
p1297
g797
sVcom.huawei.android.hwouc
p1298
g808
sg81
g815
sg83
g831
sVcom.huawei.android.dsdscardmanager
p1299
g844
sg487
g172
sVair.tv.douyu.android
p1300
g202
sg491
g905
sVcom.tencent.mobileqq
p1301
g679
sg1246
g933
sVcom.android.calendar
p1302
g960
sg1107
g734
sg893
g880
sg583
g1033
sVcom.dotamax.app
p1303
g1084
sg233
g559
sVcom.android.camera
p1304
g1167
ssg43
(dp1305
Vcom.android.thememanager
p1306
g239
sg408
g601
sVcom.netease.cloudmusic
p1307
g799
sg241
g1069
sVcom.tencent.mm
p1308
g981
sVcom.huawei.android.dsdscardmanager
p1309
g846
sVcom.baidu.BaiduMap
p1310
g882
sg87
g855
sg517
g252
sg839
g269
sVcom.UCMobile
p1311
g322
sVcom.dotamax.app
p1312
g1086
sg247
g1125
sg265
g414
sVcom.android.email
p1313
g907
sVcom.tencent.mobileqq
p1314
g681
sVcom.android.contacts
p1315
g470
sVcom.android.settings
p1316
g736
ssg45
(dp1317
sg47
(dp1318
g135
g1049
sg1070
g665
sg1042
g592
sg457
g234
sVcom.UCMobile
p1319
g324
sVcom.huawei.appmarket
p1320
g1140
sg149
g653
sVcom.tencent.mm
p1321
g1018
sVcom.android.contacts
p1322
g494
ssg49
(dp1323
g674
g412
sVcom.UCMobile
p1324
g305
sg1272
g691
ssg51
(dp1325
Vcom.netease.cloudmusic
p1326
g778
sVcom.huawei.hwid
p1327
g1050
sg835
g737
sg342
g823
sg1243
g837
sg726
g224
sVcom.rrh.jdb
p1328
g920
sg229
g325
sg784
g1087
sVcom.huawei.appmarket
p1329
g1126
sVcom.tencent.mm
p1330
g983
sVcom.eg.android.AlipayGphone
p1331
g513
sVcom.tencent.mobileqq
p1332
g685
ssg53
(dp1333
sg55
(dp1334
g682
g1043
sg1246
g929
sg1205
g780
sVcom.huawei.hidisk
p1335
g619
sg1206
g211
sg1240
g738
sg212
g223
sg895
g271
sVcom.UCMobile
p1336
g327
sg360
g1088
sg719
g1127
sg265
g409
sg121
g1155
sg1004
g892
sVcom.tencent.mm
p1337
g985
sVcom.android.contacts
p1338
g472
sg238
g514
sVcom.tencent.mobileqq
p1339
g687
ssg57
(dp1340
g1256
g273
sVcom.UCMobile
p1341
g328
sVcom.tencent.mm
p1342
g986
sg274
g383
ssg59
(dp1343
Vcom.UCMobile
p1344
g329
sg37
g423
sVcom.tencent.mm
p1345
g987
sg77
g781
sg111
g1053
ssg61
(dp1346
g1255
g690
sVcom.UCMobile
p1347
g331
sg1192
g1090
sg1097
g175
sVair.tv.douyu.android
p1348
g194
sg35
g407
sVcom.tencent.mm
p1349
g988
sVcom.android.settings
p1350
g740
ssg63
(dp1351
Vcom.eg.android.AlipayGphone
p1352
g521
ssg65
(dp1353
g539
g915
sVcom.UCMobile
p1354
g333
sVcom.tencent.mobileqq
p1355
g693
sg541
g1051
sVcom.dotamax.app
p1356
g1091
sVcom.android.settings
p1357
g741
sg912
g989
sVcom.android.contacts
p1358
g475
ssg67
(dp1359
g368
g1063
sg29
g367
sg1252
g990
sVcom.UCMobile
p1360
g335
ssg69
(dp1361
g254
g150
sg139
g236
sVcom.huawei.hwid
p1362
g1066
sVcom.huawei.appmarket
p1363
g1128
sVcom.tencent.mm
p1364
g991
sg558
g476
ssg71
(dp1365
g884
g138
sg1245
g860
sg302
g766
sVcn.wps.moffice_i18n
p1366
g562
sVcom.android.deskclock
p1367
g287
sg519
g349
sg676
g439
sVcom.android.contacts
p1368
g478
sg1237
g511
sg270
g582
sg31
g391
sVcom.huawei.hidisk
p1369
g626
sg1180
g992
sVcom.android.settings
p1370
g743
sVcom.android.calculator
p1371
g819
sVcom.baidu.lbs.waimai
p1372
g829
sg487
g162
sg1054
g204
sg347
g903
sg963
g958
sg47
g557
sg107
g1024
sg682
g1071
sVcom.dotamax.app
p1373
g1102
sVcom.huawei.appmarket
p1374
g1134
sVcom.android.camera
p1375
g1153
ssg73
(dp1376
g11
g159
sg45
g537
sg25
g289
sg419
g355
sg315
g421
sVcom.sina.weibo
p1377
g444
sg733
g502
sg1352
g532
sg31
g380
sg174
g631
sg63
g633
sVcom.tencent.mobileqq
p1378
g713
sVcom.netease.cloudmusic
p1379
g776
sVcom.huawei.android.hwouc
p1380
g802
sVcom.baidu.lbs.waimai
p1381
g827
sg1243
g836
sg1097
g177
sg1348
g190
sVcom.android.email
p1382
g889
sVcom.huawei.vassistant
p1383
g935
sVcom.tencent.mm
p1384
g1010
sg91
g872
sg1373
g1108
sg362
g1137
ssg75
(dp1385
Vcom.UCMobile
p1386
g303
sVcom.tencent.mobileqq
p1387
g662
ssg77
(dp1388
g111
g1046
sVcom.android.calendar
p1389
g946
sg485
g834
sg1276
g578
sVcom.baidu.input_huawei
p1390
g1022
sg59
g613
sVcom.android.deskclock
p1391
g279
sg1344
g338
sVcom.dotamax.app
p1392
g1094
sVcom.android.settings
p1393
g745
sg1278
g1150
sg37
g418
sg1345
g996
sg796
g480
sVcom.eg.android.AlipayGphone
p1394
g509
sVcom.tencent.mobileqq
p1395
g696
ssg79
(dp1396
Vcom.UCMobile
p1397
g339
sVcom.tencent.mm
p1398
g997
sVcom.tencent.mobileqq
p1399
g698
sVcom.android.settings
p1400
g747
ssg81
(dp1401
Vcom.UCMobile
p1402
g341
sVcom.android.email
p1403
g887
sVcom.android.contacts
p1404
g482
ssg83
(dp1405
g1332
g699
sg684
g568
sVcom.taobao.taobao
p1406
g376
sVcom.UCMobile
p1407
g343
sg1162
g1131
sVcom.android.camera
p1408
g1154
sVcom.tencent.mm
p1409
g995
sg830
g484
ssg85
(dp1410
Vcom.huawei.android.hwouc
p1411
g806
sVcom.android.settings
p1412
g749
sg21
g226
sg61
g618
sVcom.dotamax.app
p1413
g1096
sg843
g486
ssg87
(dp1414
g1231
g750
sg914
g637
sg729
g259
sg635
g1052
sg640
g1119
sVcom.tencent.mm
p1415
g999
sVcom.tencent.mobileqq
p1416
g664
ssg89
(dp1417
Vcom.android.deskclock
p1418
g257
sVcom.UCMobile
p1419
g345
sVcom.tencent.mm
p1420
g1001
sg857
g1029
sg868
g454
ssg91
(dp1421
g888
g754
sg873
g291
sg875
g357
sVcom.dotamax.app
p1422
g1110
sg1382
g894
sg877
g994
sVcom.android.contacts
p1423
g496
sVcom.eg.android.AlipayGphone
p1424
g516
ssg93
(dp1425
g884
g134
sVcom.netease.cloudmusic
p1426
g793
sVcom.tencent.mobileqq
p1427
g707
sg302
g764
sVcom.android.deskclock
p1428
g285
sg1386
g348
sVcom.dotamax.app
p1429
g1101
sg1244
g198
sVcom.android.mediacenter
p1430
g433
sVcom.tencent.mm
p1431
g1005
sg529
g492
sg1292
g526
ssg95
(dp1432
g652
g540
sg909
g1045
sg69
g657
sg655
g1006
sg658
g1135
ssg97
(dp1433
g917
g351
sVcom.dotamax.app
p1434
g1079
ssg99
(dp1435
Vcom.tencent.mobileqq
p1436
g709
sVcom.tencent.mm
p1437
g1007
sVcom.taobao.taobao
p1438
g378
sVcom.eg.android.AlipayGphone
p1439
g507
sVcom.UCMobile
p1440
g353
ssg101
(dp1441
g300
g1026
sg938
g132
sg942
g309
ssg103
(dp1442
Vcom.huawei.hidisk
p1443
g617
sVcom.tencent.mobileqq
p1444
g711
sg457
g222
sVcom.android.deskclock
p1445
g288
sg1290
g354
sVcom.dotamax.app
p1446
g1106
sg233
g543
sVcom.tencent.mm
p1447
g964
sg319
g493
ssg105
(dp1448
g8
g152
sg963
g948
sg15
g185
sVcom.wonder
p1449
g209
sg21
g237
sg260
g250
sg461
g277
sVcom.UCMobile
p1450
g337
sg29
g371
sg973
g402
sg35
g411
sVcom.android.mediacenter
p1451
g435
sg1377
g446
sg41
g456
sVcom.eg.android.AlipayGphone
p1452
g528
sg684
g570
sg326
g598
sg57
g606
sg31
g382
sg61
g630
sVcom.android.phone
p1453
g643
sg67
g648
sg69
g656
sg71
g694
sVcom.baidu.BaiduMap
p1454
g878
sVcom.baidu.lbs.waimai
p1455
g822
sg1188
g795
sg1298
g804
sg1207
g813
sVcom.huawei.appmarket
p1456
g1130
sg85
g842
sg663
g852
sg1000
g867
sg17
g200
sg284
g891
sg539
g913
sVcom.huawei.vassistant
p1457
g931
sg107
g1031
sg1009
g752
sg109
g1038
sVcom.huawei.lcagent
p1458
g170
sg368
g1067
sg113
g1076
sg589
g1092
sg47
g545
sg119
g1146
sVcom.android.camera
p1459
g1166
ssg107
(dp1460
g131
g937
sVcom.tencent.mobileqq
p1461
g714
sVcom.android.gallery3d
p1462
g584
sg942
g301
sVcom.kingsoft
p1463
g858
sVcom.tencent.mm
p1464
g1008
ssg109
(dp1465
Vcom.tencent.mobileqq
p1466
g671
sg1129
g1011
sg1456
g1121
ssg111
(dp1467
g254
g136
sVcom.android.thememanager
p1468
g220
sg517
g242
sVcom.UCMobile
p1469
g359
sg109
g1036
sg37
g427
sg1280
g498
sg1221
g510
sg59
g610
sg914
g636
sg67
g647
sg149
g654
sVcom.tencent.mm
p1470
g1014
sg612
g783
sg117
g1138
sg1458
g166
sVcom.tencent.mobileqq
p1471
g683
sg95
g910
sVcom.android.settings
p1472
g756
sg29
g369
sVcom.dotamax.app
p1473
g1112
sg652
g542
ssg113
(dp1474
Vcom.tencent.mobileqq
p1475
g716
sVcom.tencent.mm
p1476
g1016
ssg115
(dp1477
Vcom.android.browser
p1478
g144
sg87
g853
sVcom.huawei.android.totemweather
p1479
g552
sg547
g293
sVcom.machipopo.story17
p1480
g941
sVcom.android.mediacenter
p1481
g429
sg317
g448
sVcom.android.contacts
p1482
g500
sg854
g523
sg326
g590
sg621
g387
sg689
g624
sVcom.vmall.client
p1483
g650
sVcom.tencent.mm
p1484
g1017
sg1326
g785
sg1381
g825
sg1097
g181
sg1100
g900
sVcom.tencent.mobileqq
p1485
g718
sg1328
g922
sg1336
g361
sg300
g1027
sg1240
g757
sVcom.huawei.appmarket
p1486
g1139
sVcom.android.camera
p1487
g1161
ssg117
(dp1488
Vcom.android.browser
p1489
g148
sg517
g248
sg1328
g924
sVcom.UCMobile
p1490
g363
sg109
g1040
sg1221
g524
sg914
g641
sg69
g659
sg123
g1170
sg1261
g788
sg1470
g998
sg1458
g168
sg17
g196
sg1471
g720
sVcom.huawei.gamebox
p1491
g911
sg19
g215
sg1182
g758
sVcom.huawei.hwid
p1492
g1061
sVcom.dotamax.app
p1493
g1114
sg1479
g555
sg119
g1148
sg1408
g1163
ssg119
(dp1494
Vcom.huawei.hwid
p1495
g1056
sg1143
g431
sVcom.huawei.appmarket
p1496
g1141
ssg121
(dp1497
g1205
g790
sVcom.UCMobile
p1498
g365
sg1206
g207
sVcom.tencent.mobileqq
p1499
g722
sg55
g594
sg212
g235
sVcom.taobao.taobao
p1500
g389
sVcom.android.deskclock
p1501
g295
sg1335
g629
sVcom.dotamax.app
p1502
g1116
sVcom.android.settings
p1503
g760
sg886
g811
sg1403
g902
sg1337
g1020
sg1338
g504
ssg123
(dp1504
ssb.