ccopy_reg
_reconstructor
p1
(cnetworkx.classes.digraph
DiGraph
p2
c__builtin__
object
p3
NtRp4
(dp5
S'node'
p6
(dp7
Vcom.android.browser
p8
(dp9
S'weight'
p10
F0.00056871777337541725
ssVcom.youku.phone
p11
(dp12
g10
F0.0043899513926712727
ssVcom.qiyi.video
p13
(dp14
g10
F0.023918791912867627
ssVcom.huanxiao.store
p15
(dp16
g10
F0.00037799972852746769
ssVcom.android.deskclock
p17
(dp18
g10
F0.00066321770550728423
ssVcom.UCMobile
p19
(dp20
g10
F0.11021612993568849
ssVcom.hunantv.imgo.activity
p21
(dp22
g10
F0.013068481523545087
ssVcom.sina.weibo
p23
(dp24
g10
F0.033946093802350814
ssVcom.eg.android.AlipayGphone
p25
(dp26
g10
F0.0040944243321861615
ssVcom.miui.weather2
p27
(dp28
g10
F0.0016236806520838953
ssVcom.android.packageinstaller
p29
(dp30
g10
F0.00011168173797402454
ssVcom.android.soundrecorder
p31
(dp32
g10
F0.00010309083505294574
ssVme.ele
p33
(dp34
g10
F0.0010120083641030841
ssVcom.xiaomi.market
p35
(dp36
g10
F0.00016322715550049741
ssVcom.android.incallui
p37
(dp38
g10
F0.0038744972174065439
ssVcom.nowcoder.app.florida
p39
(dp40
g10
F0.018449823113308856
ssVcom.android.phone
p41
(dp42
g10
F1.7181805842157622e-06
ssVcom.miui.gallery
p43
(dp44
g10
F0.00010137265446872997
ssVcom.tencent.mobileqq
p45
(dp46
g10
F0.030875705098357249
ssVcom.miui.antispam
p47
(dp48
g10
F2.9209069931667957e-05
ssVcom.android.calculator2
p49
(dp50
g10
F0.0083366121946148782
ssVcom.baidu.lbs.waimai
p51
(dp52
g10
F0.0010876083098085776
ssVcom.tencent.mm
p53
(dp54
g10
F0.064091572152416357
ssVcom.dianping.v1
p55
(dp56
g10
F0.00027490889347452194
ssVcom.android.fileexplorer
p57
(dp58
g10
F0.00021477257302697028
ssVcom.miui.yellowpage
p59
(dp60
g10
F0.00014948171082677131
ssVcom.happyelements.AndroidAnimal
p61
(dp62
g10
F0.0027628343794189455
ssVcom.android.email
p63
(dp64
g10
F0.0022387893012331384
ssVcom.duokan.reader
p65
(dp66
g10
F0.24699704988393689
ssVcom.miui.home
p67
(dp68
g10
F0.41493202018518549
ssVcom.miui.notes
p69
(dp70
g10
F0.0080874760099035933
ssVcom.miui.networkassistant
p71
(dp72
g10
F3.4363611684315242e-05
ssVcom.android.settings
p73
(dp74
g10
F0.0001408908079056925
ssVcom.android.mms
p75
(dp76
g10
F0.0026116344880079585
ssVcom.android.calendar
p77
(dp78
g10
F3.7799972852746768e-05
ssVcom.miui.barcodescanner
p79
(dp80
g10
F4.4672695189609819e-05
ssVcom.android.quicksearchbox
p81
(dp82
g10
F1.3745444673726097e-05
ssVcom.android.camera
p83
(dp84
g10
F0.00013573626615304523
ssVcom.xiaomi.account
p85
(dp86
g10
F4.2954514605394053e-05
ssVcom.yidian.xiaomi
p87
(dp88
g10
F0.00017525441959000774
sssS'graph'
p89
(dp90
sS'succ'
p91
(dp92
g8
(dp93
Vcom.miui.home
p94
(dp95
g10
F7.7000000000000011
ssVcom.android.settings
p96
(dp97
g10
F0.90000000000000002
ssg29
(dp98
g10
F1.7
ssVcom.android.mms
p99
(dp100
g10
I1
ssVcom.xiaomi.market
p101
(dp102
g10
F0.90000000000000002
ssVcom.miui.barcodescanner
p103
(dp104
g10
F0.90000000000000002
ssVcom.android.email
p105
(dp106
g10
I1
ssVcom.tencent.mobileqq
p107
(dp108
g10
F3.7000000000000002
sssg11
(dp109
Vcom.miui.home
p110
(dp111
g10
I1
ssVcom.tencent.mobileqq
p112
(dp113
g10
I1
ssVcom.duokan.reader
p114
(dp115
g10
I1
sssg13
(dp116
Vcom.tencent.mm
p117
(dp118
g10
F3.8999999999999999
ssVcom.miui.home
p119
(dp120
g10
F6.2999999999999998
ssVcom.sina.weibo
p121
(dp122
g10
I1
ssg25
(dp123
g10
F0.90000000000000002
ssVcom.tencent.mobileqq
p124
(dp125
g10
F0.69999999999999996
sssg15
(dp126
Vcom.tencent.mm
p127
(dp128
g10
F0.90000000000000002
ssVcom.miui.home
p129
(dp130
g10
F5.2999999999999998
ssVcom.android.mms
p131
(dp132
g10
F1.3
ssVcom.xiaomi.market
p133
(dp134
g10
I1
sssg17
(dp135
Vcom.android.quicksearchbox
p136
(dp137
g10
F0.90000000000000002
ssVcom.miui.home
p138
(dp139
g10
I5
ssVcom.duokan.reader
p140
(dp141
g10
I4
sssg19
(dp142
g77
(dp143
g10
F0.40000000000000002
ssVcom.android.email
p144
(dp145
g10
F0.90000000000000002
ssVcom.miui.weather2
p146
(dp147
g10
F0.90000000000000002
ssVcom.android.incallui
p148
(dp149
g10
F3.8999999999999999
ssg71
(dp150
g10
F0.69999999999999996
ssVcom.tencent.mm
p151
(dp152
g10
F17.399999999999999
ssVcom.android.mms
p153
(dp154
g10
F6
ssVcom.android.calculator2
p155
(dp156
g10
F1.8999999999999999
ssVcom.android.deskclock
p157
(dp158
g10
F0.90000000000000002
ssVcom.android.fileexplorer
p159
(dp160
g10
F2.7000000000000002
ssVme.ele
p161
(dp162
g10
F1.8
ssVcom.miui.home
p163
(dp164
g10
F64.400000000000006
ssVcom.sina.weibo
p165
(dp166
g10
F4
ssVcom.duokan.reader
p167
(dp168
g10
F3.8999999999999999
ssVcom.tencent.mobileqq
p169
(dp170
g10
F30.499999999999996
sssg21
(dp171
Vcom.miui.home
p172
(dp173
g10
I2
ssVcom.tencent.mm
p174
(dp175
g10
F0.69999999999999996
ssVcom.qiyi.video
p176
(dp177
g10
F0.90000000000000002
sssg23
(dp178
Vcom.android.browser
p179
(dp180
g10
F1.3999999999999999
ssVcom.miui.weather2
p181
(dp182
g10
F2.2000000000000002
ssVcom.android.calendar
p183
(dp184
g10
F0.40000000000000002
ssVcom.tencent.mobileqq
p185
(dp186
g10
F5.7999999999999998
ssg29
(dp187
g10
F0.40000000000000002
ssVcom.baidu.lbs.waimai
p188
(dp189
g10
F1.3
ssVcom.android.mms
p190
(dp191
g10
F0.69999999999999996
ssVcom.UCMobile
p192
(dp193
g10
F1.3999999999999999
ssVcom.hunantv.imgo.activity
p194
(dp195
g10
F0.40000000000000002
ssg79
(dp196
g10
F0.90000000000000002
ssVcom.miui.home
p197
(dp198
g10
F44.600000000000001
ssVcom.tencent.mm
p199
(dp200
g10
F12.100000000000003
ssVcom.duokan.reader
p201
(dp202
g10
F0.90000000000000002
ssVcom.eg.android.AlipayGphone
p203
(dp204
g10
F0.90000000000000002
sssg25
(dp205
Vcom.miui.weather2
p206
(dp207
g10
F0.40000000000000002
ssVcom.android.incallui
p208
(dp209
g10
F0.90000000000000002
ssVcom.tencent.mobileqq
p210
(dp211
g10
F1.3
ssVcom.baidu.lbs.waimai
p212
(dp213
g10
F2.7000000000000002
ssVcom.android.mms
p214
(dp215
g10
F1.8999999999999999
ssVcom.UCMobile
p216
(dp217
g10
F0.69999999999999996
ssVme.ele
p218
(dp219
g10
I2
ssVcom.happyelements.AndroidAnimal
p220
(dp221
g10
F1.3
ssVcom.miui.home
p222
(dp223
g10
F18.299999999999997
ssVcom.tencent.mm
p224
(dp225
g10
F2.7000000000000002
ssVcom.duokan.reader
p226
(dp227
g10
F1.8
sssg27
(dp228
g183
(dp229
g10
F0.90000000000000002
ssVcom.tencent.mobileqq
p230
(dp231
g10
F2.2000000000000002
ssVcom.android.mms
p232
(dp233
g10
F0.90000000000000002
ssVcom.qiyi.video
p234
(dp235
g10
F0.90000000000000002
ssVcom.android.fileexplorer
p236
(dp237
g10
F0.40000000000000002
ssVcom.miui.home
p238
(dp239
g10
F14.699999999999999
ssVcom.tencent.mm
p240
(dp241
g10
F1.3
ssVcom.duokan.reader
p242
(dp243
g10
I1
sssg29
(dp244
Vcom.miui.home
p245
(dp246
g10
F0.90000000000000002
ssVcom.xiaomi.market
p247
(dp248
g10
I1
sssg31
(dp249
Vcom.miui.home
p250
(dp251
g10
F2.7000000000000002
sssg33
(dp252
Vcom.android.incallui
p253
(dp254
g10
F1.6000000000000001
ssVcom.miui.home
p255
(dp256
g10
F7.4000000000000004
ssVcom.tencent.mm
p257
(dp258
g10
I1
ssVcom.eg.android.AlipayGphone
p259
(dp260
g10
I1
ssVcom.UCMobile
p261
(dp262
g10
F1.8
sssg35
(dp263
g245
(dp264
g10
F2.3999999999999999
ssVcom.android.settings
p265
(dp266
g10
I1
ssVcom.android.packageinstaller
p267
(dp268
g10
F1.8999999999999999
ssg51
(dp269
g10
F1.7
ssVcom.android.email
p270
(dp271
g10
I1
ssVcom.eg.android.AlipayGphone
p272
(dp273
g10
F1.3
sssg37
(dp274
Vcom.miui.notes
p275
(dp276
g10
I1
ssVcom.sina.weibo
p277
(dp278
g10
F0.90000000000000002
ssVcom.android.mms
p279
(dp280
g10
F0.40000000000000002
ssg59
(dp281
g10
F3.8999999999999999
ssVcom.miui.home
p282
(dp283
g10
F16.300000000000001
ssVcom.tencent.mm
p284
(dp285
g10
F7.4000000000000004
ssVcom.duokan.reader
p286
(dp287
g10
F5.9000000000000004
ssVcom.eg.android.AlipayGphone
p288
(dp289
g10
I1
ssVcom.tencent.mobileqq
p290
(dp291
g10
F1.8
sssg39
(dp292
Vcom.miui.notes
p293
(dp294
g10
F0.90000000000000002
ssVcom.tencent.mm
p295
(dp296
g10
F2.7000000000000002
ssVcom.android.mms
p297
(dp298
g10
I1
ssVcom.android.deskclock
p299
(dp300
g10
F0.90000000000000002
ssVcom.miui.home
p301
(dp302
g10
F11.5
ssVcom.tencent.mobileqq
p303
(dp304
g10
F8.6999999999999993
sssg41
(dp305
Vcom.android.incallui
p306
(dp307
g10
I1
ssVcom.miui.home
p308
(dp309
g10
F0.90000000000000002
sssg43
(dp310
Vcom.tencent.mm
p311
(dp312
g10
F0.90000000000000002
ssVcom.miui.home
p313
(dp314
g10
F3.4000000000000004
ssVcom.android.mms
p315
(dp316
g10
F0.90000000000000002
ssVcom.eg.android.AlipayGphone
p317
(dp318
g10
F0.40000000000000002
sssg45
(dp319
Vcom.android.incallui
p320
(dp321
g10
F0.90000000000000002
ssVcom.android.browser
p322
(dp323
g10
I1
ssVcom.android.email
p324
(dp325
g10
I1
ssVcom.miui.weather2
p326
(dp327
g10
F0.69999999999999996
ssVcom.youku.phone
p328
(dp329
g10
I1
ssVcom.UCMobile
p330
(dp331
g10
F12
ssg71
(dp332
g10
F3.1000000000000001
ssVcom.sina.weibo
p333
(dp334
g10
F6.2999999999999998
ssg188
(dp335
g10
F0.69999999999999996
ssVcom.android.mms
p336
(dp337
g10
F11.300000000000001
ssVcom.miui.yellowpage
p338
(dp339
g10
I1
ssVcom.android.deskclock
p340
(dp341
g10
F0.90000000000000002
ssg57
(dp342
g10
F1.7
ssVcom.nowcoder.app.florida
p343
(dp344
g10
I2
ssVcom.android.settings
p345
(dp346
g10
F0.90000000000000002
ssg136
(dp347
g10
F0.40000000000000002
ssVcom.miui.notes
p348
(dp349
g10
F1.8999999999999999
ssg67
(dp350
g10
F122.60000000000008
ssVcom.tencent.mm
p351
(dp352
g10
F24.299999999999994
ssg65
(dp353
g10
F41.70000000000001
ssVcom.yidian.xiaomi
p354
(dp355
g10
F0.90000000000000002
sssg47
(dp356
sg49
(dp357
Vcom.tencent.mobileqq
p358
(dp359
g10
I1
ssVcom.miui.home
p360
(dp361
g10
F8.6999999999999993
ssVcom.miui.notes
p362
(dp363
g10
F0.90000000000000002
ssVcom.duokan.reader
p364
(dp365
g10
I1
sssg51
(dp366
Vcom.android.incallui
p367
(dp368
g10
F0.90000000000000002
ssVcom.tencent.mm
p369
(dp370
g10
F1.3
ssg216
(dp371
g10
F1.3
ssVcom.miui.home
p372
(dp373
g10
F4.0999999999999996
ssg290
(dp374
g10
F0.40000000000000002
ssVcom.duokan.reader
p375
(dp376
g10
F1.7
ssg272
(dp377
g10
F4.7000000000000002
sssg53
(dp378
Vcom.android.browser
p379
(dp380
g10
I1
ssg63
(dp381
g10
F5.2000000000000002
ssVcom.miui.weather2
p382
(dp383
g10
F0.90000000000000002
ssVcom.android.incallui
p384
(dp385
g10
F4.8000000000000007
ssg77
(dp386
g10
F0.90000000000000002
ssVcom.tencent.mobileqq
p387
(dp388
g10
F35.199999999999996
ssg29
(dp389
g10
F0.90000000000000002
ssg190
(dp390
g10
F12.5
ssVme.ele
p391
(dp392
g10
F1.8999999999999999
ssg47
(dp393
g10
I1
ssVcom.android.deskclock
p394
(dp395
g10
I2
ssVcom.UCMobile
p396
(dp397
g10
F14.300000000000001
ssVcom.nowcoder.app.florida
p398
(dp399
g10
I1
ssg194
(dp400
g10
F0.90000000000000002
ssg85
(dp401
g10
F0.69999999999999996
ssVcom.happyelements.AndroidAnimal
p402
(dp403
g10
F3.5999999999999996
ssVcom.miui.notes
p404
(dp405
g10
F3.1999999999999997
ssVcom.miui.home
p406
(dp407
g10
F148.30000000000007
ssVcom.sina.weibo
p408
(dp409
g10
F7.9000000000000012
ssVcom.duokan.reader
p410
(dp411
g10
F20.300000000000001
ssVcom.eg.android.AlipayGphone
p412
(dp413
g10
F3.6000000000000001
sssg55
(dp414
Vcom.miui.home
p415
(dp416
g10
I2
sssg57
(dp417
Vcom.android.deskclock
p418
(dp419
g10
F0.69999999999999996
ssg67
(dp420
g10
F6.7000000000000011
ssVcom.sina.weibo
p421
(dp422
g10
F0.90000000000000002
ssg65
(dp423
g10
I4
sssg59
(dp424
Vcom.miui.home
p425
(dp426
g10
F1.7
ssg279
(dp427
g10
F0.90000000000000002
sssg61
(dp428
Vcom.miui.notes
p429
(dp430
g10
I1
ssVcom.UCMobile
p431
(dp432
g10
I1
ssVcom.tencent.mobileqq
p433
(dp434
g10
F1.8
ssg234
(dp435
g10
F0.40000000000000002
ssVcom.dianping.v1
p436
(dp437
g10
F1.3
ssg159
(dp438
g10
F0.69999999999999996
ssg206
(dp439
g10
F0.90000000000000002
ssVcom.miui.home
p440
(dp441
g10
F13.5
ssVcom.tencent.mm
p442
(dp443
g10
F0.90000000000000002
sssg63
(dp444
Vcom.android.browser
p445
(dp446
g10
I1
ssVcom.tencent.mobileqq
p447
(dp448
g10
I5
ssVcom.android.mms
p449
(dp450
g10
F2.2000000000000002
ssVcom.xiaomi.market
p451
(dp452
g10
I1
ssVcom.UCMobile
p453
(dp454
g10
I1
ssVcom.miui.home
p455
(dp456
g10
F15.6
ssVcom.tencent.mm
p457
(dp458
g10
F2.0999999999999996
ssVcom.duokan.reader
p459
(dp460
g10
I1
sssg65
(dp461
Vcom.youku.phone
p462
(dp463
g10
I1
ssg418
(dp464
g10
F8.6999999999999993
ssVcom.sina.weibo
p465
(dp466
g10
F2.7999999999999998
ssVcom.eg.android.AlipayGphone
p467
(dp468
g10
F1.7
ssVcom.miui.weather2
p469
(dp470
g10
F4
ssg367
(dp471
g10
F6.8000000000000007
ssg33
(dp472
g10
F1.3
ssg41
(dp473
g10
F0.90000000000000002
ssg67
(dp474
g10
F121.60000000000009
ssg53
(dp475
g10
F23.999999999999996
ssVcom.miui.antispam
p476
(dp477
g10
I1
ssVcom.android.calculator2
p478
(dp479
g10
I1
ssVcom.baidu.lbs.waimai
p480
(dp481
g10
F0.90000000000000002
ssVcom.xiaomi.market
p482
(dp483
g10
F1.3
ssVcom.android.fileexplorer
p484
(dp485
g10
F2.8999999999999999
ssVcom.android.email
p486
(dp487
g10
F2.7000000000000002
ssVcom.tencent.mobileqq
p488
(dp489
g10
F71.300000000000011
ssVcom.android.settings
p490
(dp491
g10
F2.7999999999999998
ssg75
(dp492
g10
F6.8000000000000007
ssVcom.miui.barcodescanner
p493
(dp494
g10
F0.90000000000000002
ssg59
(dp495
g10
F0.40000000000000002
ssg85
(dp496
g10
I1
ssg87
(dp497
g10
F1.3
sssg67
(dp498
g8
(dp499
g10
F4.5999999999999996
ssg13
(dp500
g10
F3.7000000000000002
ssVcom.huanxiao.store
p501
(dp502
g10
I1
ssg17
(dp503
g10
F15.300000000000001
ssVcom.UCMobile
p504
(dp505
g10
F22
ssg194
(dp506
g10
F1.7
ssg23
(dp507
g10
F34.799999999999997
ssg25
(dp508
g10
F16.199999999999999
ssg27
(dp509
g10
F23.5
ssg29
(dp510
g10
F2.7000000000000002
ssg31
(dp511
g10
F2.7000000000000002
ssg33
(dp512
g10
F7.1000000000000005
ssg35
(dp513
g10
F6
ssg37
(dp514
g10
F21.699999999999999
ssg398
(dp515
g10
F1.8999999999999999
ssg41
(dp516
g10
F1.7
ssg43
(dp517
g10
F2.8999999999999999
ssg185
(dp518
g10
F119.60000000000011
ssg49
(dp519
g10
I3
ssg51
(dp520
g10
F3.2999999999999998
ssg53
(dp521
g10
F146.80000000000007
ssg55
(dp522
g10
F4.7000000000000002
ssg159
(dp523
g10
F7.4000000000000004
ssg59
(dp524
g10
F3.6000000000000001
ssVcom.happyelements.AndroidAnimal
p525
(dp526
g10
I6
ssVcom.android.email
p527
(dp528
g10
F12.600000000000001
ssVcom.duokan.reader
p529
(dp530
g10
F48.000000000000007
ssVcom.miui.notes
p531
(dp532
g10
F11.4
ssg71
(dp533
g10
F4.0999999999999996
ssg73
(dp534
g10
F7.9000000000000004
ssg190
(dp535
g10
F44.900000000000006
ssg77
(dp536
g10
F3.3999999999999999
ssg79
(dp537
g10
F4.0999999999999996
ssg81
(dp538
g10
F2.7000000000000002
ssg83
(dp539
g10
I1
ssg85
(dp540
g10
F1.3
ssg87
(dp541
g10
F3.3999999999999999
sssg69
(dp542
g445
(dp543
g10
F0.69999999999999996
ssVcom.miui.home
p544
(dp545
g10
F15.099999999999998
ssVcom.tencent.mobileqq
p546
(dp547
g10
F1.8999999999999999
ssVcom.android.mms
p548
(dp549
g10
I1
ssg527
(dp550
g10
F1.3
ssVcom.tencent.mm
p551
(dp552
g10
F3.1999999999999997
ssVcom.duokan.reader
p553
(dp554
g10
F0.40000000000000002
sssg71
(dp555
Vcom.android.mms
p556
(dp557
g10
F1.7000000000000002
ssVcom.miui.home
p558
(dp559
g10
F5.7999999999999998
ssVcom.tencent.mobileqq
p560
(dp561
g10
I1
ssVcom.miui.weather2
p562
(dp563
g10
F0.90000000000000002
sssg73
(dp564
Vcom.sina.weibo
p565
(dp566
g10
F0.90000000000000002
ssg267
(dp567
g10
I1
ssVcom.miui.home
p568
(dp569
g10
F3.4000000000000004
ssVcom.tencent.mm
p570
(dp571
g10
F0.90000000000000002
ssg247
(dp572
g10
F0.90000000000000002
sssg75
(dp573
g562
(dp574
g10
F0.69999999999999996
ssg236
(dp575
g10
F1.3
ssVcom.miui.networkassistant
p576
(dp577
g10
I1
ssVcom.tencent.mm
p578
(dp579
g10
F9.1999999999999993
ssVcom.sina.weibo
p580
(dp581
g10
I1
ssVcom.UCMobile
p582
(dp583
g10
I1
ssg404
(dp584
g10
F1.3999999999999999
ssVcom.miui.home
p585
(dp586
g10
F36.79999999999999
ssg387
(dp587
g10
F8.2000000000000011
ssVcom.duokan.reader
p588
(dp589
g10
F5.1000000000000005
ssVcom.eg.android.AlipayGphone
p590
(dp591
g10
F2.7999999999999998
sssg77
(dp592
Vcom.miui.home
p593
(dp594
g10
I1
sssg79
(dp595
g179
(dp596
g10
F2.3999999999999999
ssg94
(dp597
g10
F1.8
ssg96
(dp598
g10
F0.69999999999999996
sssg81
(dp599
sg83
(dp600
Vcom.miui.home
p601
(dp602
g10
I3
ssg43
(dp603
g10
I1
sssg85
(dp604
sg87
(dp605
Vcom.miui.home
p606
(dp607
g10
F2.7000000000000002
ssVcom.tencent.mobileqq
p608
(dp609
g10
F1.3
ssssS'edge'
p610
g92
sS'pred'
p611
(dp612
g8
(dp613
Vcom.miui.home
p614
g499
sg69
g543
sVcom.sina.weibo
p615
g180
sg79
g596
sg527
g446
sVcom.tencent.mm
p616
g380
sVcom.tencent.mobileqq
p617
g323
ssg11
(dp618
g112
g329
sVcom.duokan.reader
p619
g463
ssg13
(dp620
g220
g435
sVcom.miui.home
p621
g500
sg206
g235
sVcom.hunantv.imgo.activity
p622
g177
ssg15
(dp623
Vcom.miui.home
p624
g502
ssg17
(dp625
Vcom.UCMobile
p626
g158
sVcom.tencent.mobileqq
p627
g341
sVcom.android.fileexplorer
p628
g419
sVcom.nowcoder.app.florida
p629
g300
sVcom.miui.home
p630
g503
sVcom.tencent.mm
p631
g395
sg529
g464
ssg19
(dp632
Vcom.android.email
p633
g454
sg212
g371
sVcom.sina.weibo
p634
g193
sVcom.tencent.mm
p635
g397
sg153
g583
sg161
g262
sVcom.happyelements.AndroidAnimal
p636
g432
sVcom.miui.home
p637
g505
sg169
g331
sVcom.eg.android.AlipayGphone
p638
g217
ssg21
(dp639
g117
g400
sVcom.miui.home
p640
g506
sg121
g195
ssg23
(dp641
Vcom.UCMobile
p642
g166
sg159
g422
sg185
g334
sVcom.android.mms
p643
g581
sVcom.qiyi.video
p644
g122
sg37
g278
sVcom.android.settings
p645
g566
sVcom.miui.home
p646
g507
sVcom.tencent.mm
p647
g409
sVcom.duokan.reader
p648
g466
ssg25
(dp649
Vcom.miui.gallery
p650
g318
sg224
g413
sg51
g377
sg214
g591
sVcom.qiyi.video
p651
g123
sg35
g273
sVcom.android.incallui
p652
g289
sVme.ele
p653
g260
sVcom.miui.home
p654
g508
sVcom.sina.weibo
p655
g204
sg226
g468
ssg27
(dp656
g576
g563
sVcom.tencent.mobileqq
p657
g327
sVcom.tencent.mm
p658
g383
sg556
g574
sVcom.UCMobile
p659
g147
sg220
g439
sVcom.miui.home
p660
g509
sVcom.sina.weibo
p661
g182
sVcom.duokan.reader
p662
g470
sVcom.eg.android.AlipayGphone
p663
g207
ssg29
(dp664
g379
g98
sg265
g567
sVcom.sina.weibo
p665
g187
sVcom.xiaomi.market
p666
g268
sVcom.miui.home
p667
g510
sg616
g389
ssg31
(dp668
Vcom.miui.home
p669
g511
ssg33
(dp670
Vcom.UCMobile
p671
g162
sVcom.miui.home
p672
g512
sg257
g392
sVcom.duokan.reader
p673
g472
sVcom.eg.android.AlipayGphone
p674
g219
ssg35
(dp675
Vcom.android.browser
p676
g102
sg270
g452
sg265
g572
sg267
g248
sg15
g134
sVcom.miui.home
p677
g513
sVcom.duokan.reader
p678
g483
ssg37
(dp679
Vcom.tencent.mobileqq
p680
g321
sVcom.baidu.lbs.waimai
p681
g368
sVcom.UCMobile
p682
g149
sVme.ele
p683
g254
sg41
g307
sVcom.miui.home
p684
g514
sVcom.tencent.mm
p685
g385
sg375
g471
sVcom.eg.android.AlipayGphone
p686
g209
ssg39
(dp687
Vcom.tencent.mobileqq
p688
g344
sg301
g515
sg295
g399
ssg41
(dp689
Vcom.miui.home
p690
g516
sVcom.duokan.reader
p691
g473
ssg43
(dp692
g83
g603
sVcom.miui.home
p693
g517
ssg45
(dp694
Vcom.android.browser
p695
g108
sVcom.android.email
p696
g448
sg181
g231
sg11
g113
sg367
g291
sg71
g561
sVcom.sina.weibo
p697
g186
sg681
g374
sg190
g587
sVcom.qiyi.video
p698
g125
sg354
g609
sVcom.UCMobile
p699
g170
sVcom.nowcoder.app.florida
p700
g304
sg61
g434
sg348
g547
sVcom.miui.home
p701
g518
sVcom.tencent.mm
p702
g388
sVcom.duokan.reader
p703
g489
sVcom.eg.android.AlipayGphone
p704
g211
sVcom.android.calculator2
p705
g359
ssg47
(dp706
Vcom.tencent.mm
p707
g393
sVcom.duokan.reader
p708
g477
ssg49
(dp709
Vcom.UCMobile
p710
g156
sVcom.miui.home
p711
g519
sVcom.duokan.reader
p712
g479
ssg51
(dp713
Vcom.sina.weibo
p714
g189
sg35
g269
sg677
g520
sVcom.tencent.mobileqq
p715
g335
sVcom.duokan.reader
p716
g481
sg272
g213
ssg53
(dp717
Vcom.miui.gallery
p718
g312
sVcom.android.email
p719
g458
sg181
g241
sg384
g285
sg490
g571
sVcom.baidu.lbs.waimai
p720
g370
sg190
g579
sg33
g258
sg644
g118
sg501
g128
sg642
g152
sg39
g296
sg622
g175
sVcom.happyelements.AndroidAnimal
p721
g443
sVcom.miui.notes
p722
g552
sVcom.miui.home
p723
g521
sg165
g200
sVcom.duokan.reader
p724
g475
sVcom.eg.android.AlipayGphone
p725
g225
sg387
g352
ssg55
(dp726
Vcom.happyelements.AndroidAnimal
p727
g437
sVcom.miui.home
p728
g522
ssg57
(dp729
g562
g237
sg232
g575
sg431
g160
sg636
g438
sVcom.miui.home
p730
g523
sg45
g342
sg65
g485
ssg59
(dp731
Vcom.android.incallui
p732
g281
sVcom.miui.home
p733
g524
sVcom.tencent.mobileqq
p734
g339
sVcom.duokan.reader
p735
g495
ssg61
(dp736
Vcom.miui.home
p737
g526
sVcom.tencent.mm
p738
g403
sg412
g221
ssg63
(dp739
g445
g106
sg69
g550
sVcom.tencent.mobileqq
p740
g325
sg482
g271
sg453
g145
sg544
g528
sVcom.tencent.mm
p741
g381
sVcom.duokan.reader
p742
g487
ssg65
(dp743
Vcom.android.email
p744
g460
sVcom.miui.weather2
p745
g243
sg462
g115
sVcom.UCMobile
p746
g168
sg45
g353
sVcom.sina.weibo
p747
g202
sg681
g376
sg232
g589
sVcom.android.deskclock
p748
g141
sg57
g423
sg367
g287
sVcom.miui.notes
p749
g554
sVcom.miui.home
p750
g530
sVcom.tencent.mm
p751
g411
sVcom.eg.android.AlipayGphone
p752
g227
sVcom.android.calculator2
p753
g365
ssg67
(dp754
g179
g95
sVcom.youku.phone
p755
g111
sg13
g120
sg15
g130
sg418
g139
sg19
g164
sg21
g173
sVcom.sina.weibo
p756
g198
sg203
g223
sg745
g239
sg267
g246
sg31
g251
sg683
g256
sg666
g264
sg37
g283
sg39
g302
sg41
g309
sg650
g314
sVcom.tencent.mm
p757
g407
sVcom.android.calculator2
p758
g361
sg212
g373
sg436
g416
sg57
g420
sVcom.android.camera
p759
g602
sg61
g441
sVcom.android.email
p760
g456
sg65
g474
sg45
g350
sg69
g545
sg71
g559
sg490
g569
sVcom.android.mms
p761
g586
sg183
g594
sg79
g597
sg59
g426
sg87
g607
ssg69
(dp762
Vcom.tencent.mobileqq
p763
g349
sg449
g584
sVcom.android.incallui
p764
g276
sVcom.nowcoder.app.florida
p765
g294
sVcom.happyelements.AndroidAnimal
p766
g430
sVcom.miui.home
p767
g532
sVcom.tencent.mm
p768
g405
sVcom.android.calculator2
p769
g363
ssg71
(dp770
Vcom.UCMobile
p771
g150
sVcom.miui.home
p772
g533
sVcom.tencent.mobileqq
p773
g332
sg556
g577
ssg73
(dp774
Vcom.android.browser
p775
g97
sg666
g266
sg103
g598
sVcom.miui.home
p776
g534
sVcom.tencent.mobileqq
p777
g346
sVcom.duokan.reader
p778
g491
ssg75
(dp779
Vcom.android.browser
p780
g100
sg719
g450
sg562
g233
sg732
g280
sg71
g557
sVcom.sina.weibo
p781
g191
sVcom.huanxiao.store
p782
g132
sg330
g154
sVcom.nowcoder.app.florida
p783
g298
sg650
g316
sVcom.miui.notes
p784
g549
sg59
g427
sVcom.miui.home
p785
g535
sg702
g390
sVcom.duokan.reader
p786
g492
sVcom.eg.android.AlipayGphone
p787
g215
sVcom.tencent.mobileqq
p788
g337
ssg77
(dp789
Vcom.UCMobile
p790
g143
sVcom.sina.weibo
p791
g184
sVcom.miui.home
p792
g536
sVcom.tencent.mm
p793
g386
sVcom.miui.weather2
p794
g229
ssg79
(dp795
g179
g104
sVcom.miui.home
p796
g537
sg615
g196
sVcom.duokan.reader
p797
g494
ssg81
(dp798
g340
g137
sVcom.miui.home
p799
g538
sg627
g347
ssg83
(dp800
g693
g539
ssg85
(dp801
Vcom.miui.home
p802
g540
sVcom.tencent.mm
p803
g401
sg553
g496
ssg87
(dp804
Vcom.miui.home
p805
g541
sVcom.tencent.mobileqq
p806
g355
sVcom.duokan.reader
p807
g497
sssS'adj'
p808
g92
sb.