ccopy_reg
_reconstructor
p1
(cnetworkx.classes.digraph
DiGraph
p2
c__builtin__
object
p3
NtRp4
(dp5
S'node'
p6
(dp7
Vcom.android.browser
p8
(dp9
S'weight'
p10
F4.6247380797375992e-05
ssVcom.huawei.android.FMRadio
p11
(dp12
g10
F0.0013843086194445333
ssVcom.android.notepad
p13
(dp14
g10
F0.00089648768930298086
ssVcom.taobao.taobao
p15
(dp16
g10
F0.0030327609330586952
ssVcom.handsgo.jiakao.android
p17
(dp18
g10
F0.0026916864996780472
ssVcom.android.soundrecorder
p19
(dp20
g10
F0.0011290586523513236
ssVcom.dongqiudi.news
p21
(dp22
g10
F0.087782864989665491
ssVcom.huawei.android.totemweather
p23
(dp24
g10
F0.0017765219835145876
ssVcom.android.deskclock
p25
(dp26
g10
F0.01600870873755323
ssVcom.UCMobile
p27
(dp28
g10
F0.10513052433857352
ssVcom.facebook.katana
p29
(dp30
g10
F0.0001138397065781563
ssVcom.zhihu.android
p31
(dp32
g10
F0.001230891827376315
ssVcom.snda.wifilocating
p33
(dp34
g10
F0.00039843897302354703
ssVcom.huawei.motionservice
p35
(dp36
g10
F2.2679004044867073e-05
ssVcom.android.launcher
p37
(dp38
g10
F0.13144795213040339
ssVcom.huawei.android.internal.app
p39
(dp40
g10
F3.824302642859938e-05
ssVcom.android.mediacenter
p41
(dp42
g10
F8.2711661810691686e-05
ssVcom.sina.weibo
p43
(dp44
g10
F0.0033151367677349813
ssVcom.android.contacts
p45
(dp46
g10
F0.030666015645844674
ssVcom.eg.android.AlipayGphone
p47
(dp48
g10
F0.00071194285246729773
ssVcom.youdao.dict
p49
(dp50
g10
F0.00032328697922781103
ssVorg.hbrchina
p51
(dp52
g10
F0.00014363369228415814
ssVcom.aquila.bible
p53
(dp54
g10
F0.011279024678313892
ssVcom.mojang.minecraftpe
p55
(dp56
g10
F7.1149816611347681e-05
ssVcn.wps.moffice_i18n
p57
(dp58
g10
F1.8232140506657844e-05
ssVcom.huawei.hwid
p59
(dp60
g10
F3.4240849244211071e-05
ssVcom.android.packageinstaller
p61
(dp62
g10
F0.0020984749036809356
ssVcom.android.gallery3d
p63
(dp64
g10
F0.0054340672436916796
ssVcom.lofter.android
p65
(dp66
g10
F0.0013104906847102602
ssVcom.baidu.searchbox
p67
(dp68
g10
F1.3340590614627691e-06
ssVcom.soco.veggies3.HUAWEI
p69
(dp70
g10
F7.2928562026631374e-05
ssVcom.huawei.hidisk
p71
(dp72
g10
F0.00049004436191065718
ssVcom.android.video
p73
(dp74
g10
F3.2462103828927378e-05
ssVcom.android.hwmirror
p75
(dp76
g10
F2.2679004044867073e-05
ssVcom.sirma.mobile.bible.android
p77
(dp78
g10
F0.00086313621276641161
ssVcom.android.phone
p79
(dp80
g10
F0.0012735817173431235
ssVcom.sdu.didi.psnger
p81
(dp82
g10
F0.0001525274193605766
ssVcom.tencent.mobileqq
p83
(dp84
g10
F0.21094986783921565
ssVcom.android.settings
p85
(dp86
g10
F0.017489958982130724
ssVcom.netease.mobimail
p87
(dp88
g10
F0.00025569465344703075
ssVcom.netease.cloudmusic
p89
(dp90
g10
F0.0032208632607249456
ssVcom.huawei.android.hwouc
p91
(dp92
g10
F5.3362362458510766e-06
ssVcom.android.calculator
p93
(dp94
g10
F0.00052072772032430088
ssVcom.zms.android
p95
(dp96
g10
F0.0020757958996360688
ssVcom.kugou.android
p97
(dp98
g10
F0.0001969960547426689
ssVcom.example.chinesechess.huawei
p99
(dp100
g10
F0.009949412480389332
ssVcom.android.fileexplorer
p101
(dp102
g10
F2.5347122167792612e-05
ssVcom.netease.newsreader.activity
p103
(dp104
g10
F0.048833231944844666
ssVcom.android.thememanager
p105
(dp106
g10
F0.00018232140506657844
ssVcom.huawei.lcagent
p107
(dp108
g10
F0.0015764131242951721
ssVcom.baidu.BaiduMap
p109
(dp110
g10
F0.0058934282471886932
ssVcom.android.email
p111
(dp112
g10
F6.8926384842243072e-05
ssVcom.huawei.health
p113
(dp114
g10
F0.0076459371675969504
ssVcom.rrh.jdb
p115
(dp116
g10
F0.00022812409951013352
ssVcom.MobileTicket
p117
(dp118
g10
F0.00068037012134601225
ssVcom.huawei.vassistant
p119
(dp120
g10
F3.7353653720957534e-05
ssVcom.qw.android
p121
(dp122
g10
F8.9381957118005528e-05
ssVcom.android.calendar
p123
(dp124
g10
F0.0029625004891549894
ssVcom.tencent.mm
p125
(dp126
g10
F0.26422106959519309
ssVorg.wikipedia
p127
(dp128
g10
F6.6702953073138455e-06
ssVcom.huawei.android.karaokeeffect
p129
(dp130
g10
F6.2256089534929223e-06
ssVcom.liulishuo.engzo
p131
(dp132
g10
F0.00043668199945214639
ssVcom.iflytek.cmcc
p133
(dp134
g10
F4.1355830905345843e-05
ssVcom.baidu.input_huawei
p135
(dp136
g10
F0.00018676826860478766
ssVcom.android.keyguard
p137
(dp138
g10
F0.00048915498920301529
ssVcom.baidu.tieba
p139
(dp140
g10
F0.0020633446817290828
ssVcom.huawei.appmarket
p141
(dp142
g10
F0.0028753419638060883
ssVcom.android.camera
p143
(dp144
g10
F0.005253969270394206
ssVcom.huawei.android.airsharing
p145
(dp146
g10
F3.1128044767464611e-06
sssS'node_dict_factory'
p147
c__builtin__
dict
p148
sS'edge_attr_dict_factory'
p149
g148
sS'succ'
p150
(dp151
g8
(dp152
g31
(dp153
g10
F0.40000000000000002
ssg121
(dp154
g10
F1.8
ssVcom.android.settings
p155
(dp156
g10
F1.7
ssVcom.android.packageinstaller
p157
(dp158
g10
I1
ssVcom.android.gallery3d
p159
(dp160
g10
F0.40000000000000002
ssVcom.android.thememanager
p161
(dp162
g10
F0.69999999999999996
ssVcom.UCMobile
p163
(dp164
g10
F0.90000000000000002
ssVcom.lofter.android
p165
(dp166
g10
I1
ssVcom.android.launcher
p167
(dp168
g10
F6.6000000000000005
ssVcom.zms.android
p169
(dp170
g10
F2.7000000000000002
ssVcom.tencent.mm
p171
(dp172
g10
F1.3
ssVcom.android.contacts
p173
(dp174
g10
F1.3999999999999999
sssg11
(dp175
Vcom.example.chinesechess.huawei
p176
(dp177
g10
F0.90000000000000002
ssVcom.android.notepad
p178
(dp179
g10
F0.40000000000000002
ssVcom.android.soundrecorder
p180
(dp181
g10
F0.40000000000000002
ssVcom.android.keyguard
p182
(dp183
g10
I1
ssVcom.android.launcher
p184
(dp185
g10
F15.499999999999998
ssVcom.android.camera
p186
(dp187
g10
F1.8999999999999999
ssg41
(dp188
g10
F0.69999999999999996
ssVcom.android.contacts
p189
(dp190
g10
F1.8
sssg13
(dp191
Vcom.android.browser
p192
(dp193
g10
F0.90000000000000002
ssVcom.aquila.bible
p194
(dp195
g10
F0.40000000000000002
ssVcom.tencent.mobileqq
p196
(dp197
g10
I1
ssVcom.android.gallery3d
p198
(dp199
g10
F1.3
ssg101
(dp200
g10
F1.7
ssVcom.android.launcher
p201
(dp202
g10
F14.999999999999998
ssVcom.android.camera
p203
(dp204
g10
I1
ssVcom.tencent.mm
p205
(dp206
g10
F4.5
ssVcom.huawei.health
p207
(dp208
g10
F0.90000000000000002
sssg15
(dp209
Vcom.android.launcher
p210
(dp211
g10
F19.699999999999996
ssVcom.android.fileexplorer
p212
(dp213
g10
F2.7000000000000002
ssVcom.tencent.mobileqq
p214
(dp215
g10
F1.7
ssVcom.liulishuo.engzo
p216
(dp217
g10
F0.69999999999999996
ssVcom.android.deskclock
p218
(dp219
g10
I1
ssVcom.UCMobile
p220
(dp221
g10
F1.3
ssVcom.huawei.lcagent
p222
(dp223
g10
I1
ssVcom.android.camera
p224
(dp225
g10
I2
ssVcom.tencent.mm
p226
(dp227
g10
F4.5
ssVcom.android.contacts
p228
(dp229
g10
F2.8999999999999999
sssg17
(dp230
Vcom.tencent.mm
p231
(dp232
g10
F7.4000000000000012
ssVcom.tencent.mobileqq
p233
(dp234
g10
F6.5
ssVcom.android.launcher
p235
(dp236
g10
F17.300000000000001
ssVcom.android.settings
p237
(dp238
g10
F0.90000000000000002
sssg19
(dp239
Vcom.android.mediacenter
p240
(dp241
g10
F0.40000000000000002
ssVcom.aquila.bible
p242
(dp243
g10
F0.69999999999999996
ssVcom.tencent.mobileqq
p244
(dp245
g10
I3
ssg73
(dp246
g10
I1
ssVcom.android.launcher
p247
(dp248
g10
F5.8999999999999995
sssg21
(dp249
Vcom.android.deskclock
p250
(dp251
g10
I2
ssVcom.UCMobile
p252
(dp253
g10
F14.300000000000002
ssVcom.android.launcher
p254
(dp255
g10
F274.89999999999981
ssg43
(dp256
g10
F1.6000000000000001
ssVcom.android.contacts
p257
(dp258
g10
F4
ssg77
(dp259
g10
F0.69999999999999996
ssVcom.zhihu.android
p260
(dp261
g10
F0.90000000000000002
ssVcom.aquila.bible
p262
(dp263
g10
F3.5
ssVcom.android.packageinstaller
p264
(dp265
g10
I1
ssVcom.android.gallery3d
p266
(dp267
g10
F1.8
ssVcom.taobao.taobao
p268
(dp269
g10
F0.90000000000000002
ssVcom.android.phone
p270
(dp271
g10
F5.5
ssVcom.tencent.mobileqq
p272
(dp273
g10
F91.900000000000063
ssVcom.android.settings
p274
(dp275
g10
I1
ssVcom.netease.cloudmusic
p276
(dp277
g10
F0.40000000000000002
ssVcom.netease.newsreader.activity
p278
(dp279
g10
F5.1000000000000005
ssVcom.huawei.lcagent
p280
(dp281
g10
I1
ssVcom.huawei.health
p282
(dp283
g10
F1.3
ssVcom.huawei.vassistant
p284
(dp285
g10
I1
ssVcom.tencent.mm
p286
(dp287
g10
F75.400000000000006
ssVcom.huawei.appmarket
p288
(dp289
g10
F0.90000000000000002
ssVcom.android.camera
p290
(dp291
g10
F1.8999999999999999
sssg23
(dp292
Vcom.tencent.mobileqq
p293
(dp294
g10
F4
ssVcom.android.contacts
p295
(dp296
g10
F1.7
ssVcom.UCMobile
p297
(dp298
g10
F1.3
ssVcom.android.launcher
p299
(dp300
g10
F9.9000000000000004
ssVcom.android.phone
p301
(dp302
g10
F0.90000000000000002
ssVcom.tencent.mm
p303
(dp304
g10
F2.6000000000000001
ssVcom.huawei.health
p305
(dp306
g10
F0.40000000000000002
sssg25
(dp307
Vcom.example.chinesechess.huawei
p308
(dp309
g10
I1
ssVcom.android.calendar
p310
(dp311
g10
I1
ssVcom.tencent.mm
p312
(dp313
g10
F6.0000000000000009
ssVcom.huawei.android.totemweather
p314
(dp315
g10
F1.3
ssVcom.UCMobile
p316
(dp317
g10
I3
ssVcom.android.launcher
p318
(dp319
g10
F14.199999999999999
ssVcom.huawei.appmarket
p320
(dp321
g10
I1
ssVcom.tencent.mobileqq
p322
(dp323
g10
I3
ssVcom.android.contacts
p324
(dp325
g10
F2.7999999999999998
sssg27
(dp326
Vcom.android.browser
p327
(dp328
g10
F0.40000000000000002
ssVcom.android.calendar
p329
(dp330
g10
F0.69999999999999996
ssg37
(dp331
g10
F573.09999999999843
ssVcom.dongqiudi.news
p332
(dp333
g10
F24.399999999999991
ssVcom.android.deskclock
p334
(dp335
g10
F4.5999999999999996
ssVcom.snda.wifilocating
p336
(dp337
g10
F0.90000000000000002
ssVcom.android.notepad
p338
(dp339
g10
F0.90000000000000002
ssVcom.huawei.android.internal.app
p340
(dp341
g10
F1.6000000000000001
ssg57
(dp342
g10
F0.69999999999999996
ssVcom.sina.weibo
p343
(dp344
g10
F0.40000000000000002
ssVcom.android.contacts
p345
(dp346
g10
F4.9000000000000004
ssVcom.youdao.dict
p347
(dp348
g10
F0.90000000000000002
ssg31
(dp349
g10
F2.2000000000000002
ssg99
(dp350
g10
F2.5
ssg145
(dp351
g10
I1
ssVcom.android.gallery3d
p352
(dp353
g10
F9.5000000000000018
ssg95
(dp354
g10
F0.69999999999999996
ssg272
(dp355
g10
F103.70000000000009
ssVcom.android.settings
p356
(dp357
g10
F6.0000000000000009
ssVcom.netease.cloudmusic
p358
(dp359
g10
F2.7000000000000002
ssVcom.android.calculator
p360
(dp361
g10
F0.90000000000000002
ssVcom.android.phone
p362
(dp363
g10
I2
ssVcom.aquila.bible
p364
(dp365
g10
F13.700000000000005
ssVcom.netease.newsreader.activity
p366
(dp367
g10
F11.500000000000002
ssVcom.android.thememanager
p368
(dp369
g10
F0.40000000000000002
ssVcom.huawei.lcagent
p370
(dp371
g10
I2
ssg282
(dp372
g10
F5.0000000000000009
ssVcom.MobileTicket
p373
(dp374
g10
F0.40000000000000002
ssVcom.baidu.input_huawei
p375
(dp376
g10
F1.3
ssVcom.tencent.mm
p377
(dp378
g10
F145.60000000000034
ssVcom.baidu.BaiduMap
p379
(dp380
g10
F1.8
ssVcom.huawei.hwid
p381
(dp382
g10
F1.8
ssVcom.lofter.android
p383
(dp384
g10
F0.90000000000000002
ssVcom.baidu.tieba
p385
(dp386
g10
F12.000000000000004
ssVcom.huawei.appmarket
p387
(dp388
g10
F3.5999999999999996
ssVcom.android.camera
p389
(dp390
g10
F4.4000000000000004
ssVcom.android.packageinstaller
p391
(dp392
g10
F0.90000000000000002
sssg29
(dp393
Vcom.android.launcher
p394
(dp395
g10
I1
sssg31
(dp396
g127
(dp397
g10
F0.90000000000000002
ssVcom.tencent.mobileqq
p398
(dp399
g10
I3
ssVcom.android.keyguard
p400
(dp401
g10
I1
ssVcom.tencent.mm
p402
(dp403
g10
I1
ssVcom.android.launcher
p404
(dp405
g10
F8.3000000000000007
sssg33
(dp406
g11
(dp407
g10
I1
ssg184
(dp408
g10
F16.5
ssVcom.android.deskclock
p409
(dp410
g10
F0.90000000000000002
ssVcom.UCMobile
p411
(dp412
g10
F0.40000000000000002
ssVcom.huawei.lcagent
p413
(dp414
g10
F0.90000000000000002
ssVcom.tencent.mm
p415
(dp416
g10
F2.2000000000000002
sssg35
(dp417
Vcom.android.settings
p418
(dp419
g10
F0.90000000000000002
ssVcom.android.contacts
p420
(dp421
g10
F0.40000000000000002
ssVcom.android.launcher
p422
(dp423
g10
F1.7
sssg37
(dp424
g8
(dp425
g10
F8.6000000000000014
ssg11
(dp426
g10
F8.8000000000000007
ssVcom.baidu.input_huawei
p427
(dp428
g10
F7
ssg17
(dp429
g10
F12.100000000000001
ssg19
(dp430
g10
F3.8999999999999999
ssg21
(dp431
g10
F173.89999999999995
ssg23
(dp432
g10
F7.1000000000000005
ssg25
(dp433
g10
F15.9
ssVcom.UCMobile
p434
(dp435
g10
F378.99999999999875
ssg29
(dp436
g10
F0.90000000000000002
ssg31
(dp437
g10
F11.800000000000001
ssg33
(dp438
g10
F15.1
ssVcom.taobao.taobao
p439
(dp440
g10
F13.199999999999999
ssg13
(dp441
g10
F14.299999999999997
ssVcom.huawei.android.internal.app
p442
(dp443
g10
F15.800000000000004
ssg41
(dp444
g10
F13.500000000000002
ssg43
(dp445
g10
F29.899999999999995
ssg45
(dp446
g10
F238.69999999999979
ssg47
(dp447
g10
F15.099999999999998
ssg347
(dp448
g10
F2.7000000000000002
ssg51
(dp449
g10
F4.0999999999999996
ssg53
(dp450
g10
F120.2000000000001
ssg55
(dp451
g10
F5.7000000000000002
ssVcom.huawei.hidisk
p452
(dp453
g10
F10.5
ssg145
(dp454
g10
F2.2000000000000002
ssg63
(dp455
g10
F55.999999999999993
ssg65
(dp456
g10
F5.4000000000000004
ssg67
(dp457
g10
I1
ssg69
(dp458
g10
F1.7
ssg127
(dp459
g10
F5.4000000000000004
ssg73
(dp460
g10
F2
ssg77
(dp461
g10
F15.899999999999997
ssVcom.android.phone
p462
(dp463
g10
F13.100000000000001
ssg377
(dp464
g10
F1178.5000000000082
ssVcom.netease.mobimail
p465
(dp466
g10
I1
ssVcom.netease.cloudmusic
p467
(dp468
g10
F26.399999999999995
ssg91
(dp469
g10
I1
ssg360
(dp470
g10
F1.7
ssg95
(dp471
g10
F10.199999999999999
ssg99
(dp472
g10
F38.699999999999996
ssg101
(dp473
g10
F4.2999999999999998
ssVcom.netease.newsreader.activity
p474
(dp475
g10
F81.600000000000051
ssg105
(dp476
g10
F18.299999999999997
ssVcom.huawei.lcagent
p477
(dp478
g10
F5.5999999999999996
ssg109
(dp479
g10
F14.000000000000002
ssg113
(dp480
g10
F53.299999999999997
ssVcom.rrh.jdb
p481
(dp482
g10
F2.7000000000000002
ssg272
(dp483
g10
F631.49999999999818
ssg117
(dp484
g10
F3.1000000000000001
ssVcom.huawei.vassistant
p485
(dp486
g10
F4.9000000000000004
ssVcom.qw.android
p487
(dp488
g10
F6.7000000000000002
ssg123
(dp489
g10
F11.6
ssg85
(dp490
g10
F128.00000000000017
ssg129
(dp491
g10
F1.6000000000000001
ssVcom.liulishuo.engzo
p492
(dp493
g10
F10.199999999999999
ssg133
(dp494
g10
F3.3999999999999999
ssg59
(dp495
g10
F26.499999999999982
ssg137
(dp496
g10
I2
ssVcom.baidu.tieba
p497
(dp498
g10
F73.500000000000028
ssg141
(dp499
g10
F71.000000000000057
ssVcom.android.camera
p500
(dp501
g10
F51
ssg391
(dp502
g10
F2.8999999999999999
sssg39
(dp503
Vorg.hbrchina
p504
(dp505
g10
I1
ssVcom.aquila.bible
p506
(dp507
g10
F0.69999999999999996
ssVcom.huawei.hidisk
p508
(dp509
g10
F1.8999999999999999
ssg377
(dp510
g10
F9.6999999999999993
ssVcom.android.gallery3d
p511
(dp512
g10
F0.69999999999999996
ssg57
(dp513
g10
I1
ssg27
(dp514
g10
I4
ssg37
(dp515
g10
F9.9000000000000021
ssVcom.tencent.mobileqq
p516
(dp517
g10
F4.7999999999999998
ssVcom.huawei.health
p518
(dp519
g10
I1
ssVcom.eg.android.AlipayGphone
p520
(dp521
g10
F0.40000000000000002
sssg41
(dp522
Vcom.netease.cloudmusic
p523
(dp524
g10
F0.90000000000000002
ssVcom.tencent.mobileqq
p525
(dp526
g10
F1.3999999999999999
ssg180
(dp527
g10
I1
ssVcom.huawei.hidisk
p528
(dp529
g10
F6.4000000000000004
ssg73
(dp530
g10
F0.90000000000000002
ssVcom.android.launcher
p531
(dp532
g10
F8.6000000000000014
ssVcom.huawei.android.internal.app
p533
(dp534
g10
F1.3
ssVcom.tencent.mm
p535
(dp536
g10
F4.0999999999999996
sssg43
(dp537
g51
(dp538
g10
F0.40000000000000002
ssVcom.example.chinesechess.huawei
p539
(dp540
g10
F0.69999999999999996
ssVcom.UCMobile
p541
(dp542
g10
F2
ssVcom.baidu.input_huawei
p543
(dp544
g10
F0.69999999999999996
ssVcom.tencent.mobileqq
p545
(dp546
g10
F1.3999999999999999
ssg133
(dp547
g10
F0.90000000000000002
ssVcom.android.gallery3d
p548
(dp549
g10
F2.2000000000000002
ssVcom.huawei.hwid
p550
(dp551
g10
F0.40000000000000002
ssVcom.netease.newsreader.activity
p552
(dp553
g10
F1.8
ssVcom.baidu.tieba
p554
(dp555
g10
F2.7000000000000002
ssVcom.android.launcher
p556
(dp557
g10
F34.999999999999993
ssVcom.huawei.appmarket
p558
(dp559
g10
F0.90000000000000002
ssg442
(dp560
g10
I1
ssVcom.tencent.mm
p561
(dp562
g10
F10.900000000000002
ssVcom.android.contacts
p563
(dp564
g10
F0.40000000000000002
sssg45
(dp565
g8
(dp566
g10
F2.3999999999999999
ssVcom.android.notepad
p567
(dp568
g10
F1.8
ssVcom.android.thememanager
p569
(dp570
g10
F2.7000000000000002
ssg481
(dp571
g10
F1.3
ssg434
(dp572
g10
F8
ssVcom.snda.wifilocating
p573
(dp574
g10
F0.90000000000000002
ssVcom.android.launcher
p575
(dp576
g10
F353.49999999999926
ssVcom.huawei.android.internal.app
p577
(dp578
g10
F0.69999999999999996
ssVcom.android.mediacenter
p579
(dp580
g10
F0.69999999999999996
ssVcom.eg.android.AlipayGphone
p581
(dp582
g10
F3.3999999999999999
ssVcom.zhihu.android
p583
(dp584
g10
F0.69999999999999996
ssVcom.example.chinesechess.huawei
p585
(dp586
g10
F1.3
ssVcom.taobao.taobao
p587
(dp588
g10
F0.90000000000000002
ssVcom.huawei.hidisk
p589
(dp590
g10
F1.7
ssVcom.android.phone
p591
(dp592
g10
F18.699999999999999
ssVcom.tencent.mm
p593
(dp594
g10
F57.99999999999995
ssg360
(dp595
g10
F0.40000000000000002
ssVcom.netease.newsreader.activity
p596
(dp597
g10
F0.40000000000000002
ssVcom.dongqiudi.news
p598
(dp599
g10
F3.3999999999999999
ssVcom.huawei.health
p600
(dp601
g10
F3.8999999999999999
ssVcom.tencent.mobileqq
p602
(dp603
g10
F43.09999999999998
ssVcom.MobileTicket
p604
(dp605
g10
F0.90000000000000002
ssVcom.huawei.vassistant
p606
(dp607
g10
I1
ssVcom.qw.android
p608
(dp609
g10
F0.90000000000000002
ssVcom.baidu.input_huawei
p610
(dp611
g10
F0.69999999999999996
ssVcom.android.settings
p612
(dp613
g10
F7.3000000000000016
ssVcom.baidu.BaiduMap
p614
(dp615
g10
F0.40000000000000002
ssVcom.huawei.hwid
p616
(dp617
g10
F1.6000000000000001
ssVcom.baidu.tieba
p618
(dp619
g10
F0.40000000000000002
ssVcom.huawei.appmarket
p620
(dp621
g10
F0.90000000000000002
sssg47
(dp622
Vcom.android.browser
p623
(dp624
g10
F0.69999999999999996
ssVcom.mojang.minecraftpe
p625
(dp626
g10
F0.69999999999999996
ssVorg.wikipedia
p627
(dp628
g10
F0.90000000000000002
ssVcom.tencent.mm
p629
(dp630
g10
F6.1000000000000005
ssVcom.android.launcher
p631
(dp632
g10
F17.599999999999998
ssVcom.huawei.android.internal.app
p633
(dp634
g10
I1
ssVcom.tencent.mobileqq
p635
(dp636
g10
F3.7000000000000002
ssVcom.android.contacts
p637
(dp638
g10
F2.7000000000000002
sssg49
(dp639
Vcom.android.settings
p640
(dp641
g10
F1.8
ssVcom.tencent.mm
p642
(dp643
g10
F2.2000000000000002
ssVcom.android.launcher
p644
(dp645
g10
F6.1000000000000005
sssg51
(dp646
Vcom.huawei.android.internal.app
p647
(dp648
g10
I1
ssVcom.tencent.mm
p649
(dp650
g10
F2.7000000000000002
ssVcom.android.launcher
p651
(dp652
g10
F4.4000000000000004
ssVcom.huawei.appmarket
p653
(dp654
g10
F1.3
sssg53
(dp655
Vcom.android.notepad
p656
(dp657
g10
F0.80000000000000004
ssVcom.netease.cloudmusic
p658
(dp659
g10
F0.90000000000000002
ssVcom.tencent.mm
p660
(dp661
g10
F36.099999999999973
ssVcom.android.settings
p662
(dp663
g10
F0.40000000000000002
ssg19
(dp664
g10
I1
ssVcom.dongqiudi.news
p665
(dp666
g10
F1.3
ssVcom.huawei.health
p667
(dp668
g10
F0.90000000000000002
ssVcom.UCMobile
p669
(dp670
g10
F9.3000000000000025
ssVcom.netease.newsreader.activity
p671
(dp672
g10
F0.69999999999999996
ssg247
(dp673
g10
F139.40000000000012
ssg141
(dp674
g10
F0.69999999999999996
ssVcom.huawei.android.internal.app
p675
(dp676
g10
F0.40000000000000002
ssVcom.tencent.mobileqq
p677
(dp678
g10
F26.099999999999991
ssVcom.android.phone
p679
(dp680
g10
I2
ssVcom.sirma.mobile.bible.android
p681
(dp682
g10
F2.6000000000000001
ssg347
(dp683
g10
F0.40000000000000002
sssg55
(dp684
Vcom.huawei.hwid
p685
(dp686
g10
F0.69999999999999996
ssVcom.android.launcher
p687
(dp688
g10
I2
ssVcom.huawei.appmarket
p689
(dp690
g10
F1.3
sssg57
(dp691
sg59
(dp692
g117
(dp693
g10
F0.90000000000000002
ssVcom.example.chinesechess.huawei
p694
(dp695
g10
I4
ssVcom.android.settings
p696
(dp697
g10
F1.3999999999999999
ssg105
(dp698
g10
F0.80000000000000004
ssVcom.huawei.hidisk
p699
(dp700
g10
I1
ssVcom.android.launcher
p701
(dp702
g10
F16.700000000000003
ssVcom.huawei.appmarket
p703
(dp704
g10
F12.100000000000001
ssVcom.tencent.mm
p705
(dp706
g10
F3.2000000000000002
ssVcom.huawei.health
p707
(dp708
g10
F0.69999999999999996
sssg61
(dp709
g327
(dp710
g10
F1.3
ssVcom.android.settings
p711
(dp712
g10
F0.90000000000000002
ssg121
(dp713
g10
F1.3999999999999999
ssVcom.android.launcher
p714
(dp715
g10
F1.7
ssg95
(dp716
g10
F1.7
sssg63
(dp717
Vcom.huawei.lcagent
p718
(dp719
g10
F1.7
ssVcom.android.launcher
p720
(dp721
g10
F90.300000000000054
ssVcom.netease.cloudmusic
p722
(dp723
g10
F0.90000000000000002
ssVcom.android.fileexplorer
p724
(dp725
g10
F1.8
ssVcom.android.settings
p726
(dp727
g10
F6.5000000000000009
ssVcom.sina.weibo
p728
(dp729
g10
F0.90000000000000002
ssVcom.zms.android
p730
(dp731
g10
F0.40000000000000002
ssVcom.netease.newsreader.activity
p732
(dp733
g10
F0.40000000000000002
ssVcom.android.thememanager
p734
(dp735
g10
F2.6999999999999997
ssVcom.android.contacts
p736
(dp737
g10
F4.7999999999999998
ssVcom.UCMobile
p738
(dp739
g10
F11.800000000000001
ssVcom.lofter.android
p740
(dp741
g10
F2.3999999999999999
ssVcom.baidu.tieba
p742
(dp743
g10
F1.7000000000000002
ssVcom.android.notepad
p744
(dp745
g10
I1
ssVcom.android.phone
p746
(dp747
g10
F0.90000000000000002
ssg442
(dp748
g10
F4.7000000000000002
ssVcom.android.camera
p749
(dp750
g10
F13
ssVcom.tencent.mm
p751
(dp752
g10
F18.100000000000001
ssVcom.huawei.health
p753
(dp754
g10
F0.90000000000000002
ssVcom.tencent.mobileqq
p755
(dp756
g10
F9.5000000000000018
sssg65
(dp757
Vcom.android.browser
p758
(dp759
g10
I1
ssVcom.aquila.bible
p760
(dp761
g10
F1.8
ssVcom.UCMobile
p762
(dp763
g10
I1
ssVcom.tencent.mobileqq
p764
(dp765
g10
F3.8999999999999999
ssVcom.android.gallery3d
p766
(dp767
g10
F2.7000000000000002
ssVcom.dongqiudi.news
p768
(dp769
g10
F0.40000000000000002
ssVcom.android.fileexplorer
p770
(dp771
g10
F3.7999999999999998
ssVcom.android.launcher
p772
(dp773
g10
F13.300000000000001
ssVcom.tencent.mm
p774
(dp775
g10
F1.3999999999999999
sssg67
(dp776
Vcom.android.launcher
p777
(dp778
g10
I1
sssg69
(dp779
Vcom.aquila.bible
p780
(dp781
g10
F0.40000000000000002
ssVcom.tencent.mm
p782
(dp783
g10
F0.90000000000000002
ssVcom.android.launcher
p784
(dp785
g10
F1.7
sssg71
(dp786
g525
(dp787
g10
F2.2000000000000002
ssg616
(dp788
g10
I1
ssVcom.android.launcher
p789
(dp790
g10
F13.200000000000001
ssVcom.android.settings
p791
(dp792
g10
F0.40000000000000002
ssg533
(dp793
g10
F2.7000000000000002
ssVcom.android.mediacenter
p794
(dp795
g10
F4.4000000000000004
ssVcom.tencent.mm
p796
(dp797
g10
F1.3
sssg73
(dp798
g240
(dp799
g10
F0.69999999999999996
ssg531
(dp800
g10
F2.2999999999999998
sssg75
(dp801
Vcom.android.launcher
p802
(dp803
g10
I1
sssg77
(dp804
Vcom.tencent.mm
p805
(dp806
g10
F1.3
ssVcom.aquila.bible
p807
(dp808
g10
F0.40000000000000002
ssVcom.tencent.mobileqq
p809
(dp810
g10
F2.7000000000000002
ssVcom.android.launcher
p811
(dp812
g10
F18.100000000000001
ssVcom.handsgo.jiakao.android
p813
(dp814
g10
F0.40000000000000002
sssg79
(dp815
Vcom.huawei.lcagent
p816
(dp817
g10
I1
ssVcom.android.settings
p818
(dp819
g10
F1.6000000000000001
ssVcom.tencent.mm
p820
(dp821
g10
F3.5
ssVcom.android.gallery3d
p822
(dp823
g10
F0.90000000000000002
ssVcom.baidu.BaiduMap
p824
(dp825
g10
I1
ssVcom.dongqiudi.news
p826
(dp827
g10
I1
ssVcom.android.contacts
p828
(dp829
g10
F37.599999999999994
ssVcom.UCMobile
p830
(dp831
g10
I1
ssVcom.android.launcher
p832
(dp833
g10
F40.199999999999974
ssVcom.huawei.appmarket
p834
(dp835
g10
F0.90000000000000002
ssVcom.android.camera
p836
(dp837
g10
I1
ssVcom.tencent.mobileqq
p838
(dp839
g10
F2.3999999999999999
ssVcom.huawei.health
p840
(dp841
g10
F0.40000000000000002
ssVcom.eg.android.AlipayGphone
p842
(dp843
g10
F0.69999999999999996
sssg81
(dp844
Vcom.android.contacts
p845
(dp846
g10
F0.90000000000000002
ssVcom.android.launcher
p847
(dp848
g10
I1
sssg83
(dp849
g465
(dp850
g10
F0.90000000000000002
ssVcom.handsgo.jiakao.android
p851
(dp852
g10
F1.3
ssVcom.android.soundrecorder
p853
(dp854
g10
I2
ssVcom.dongqiudi.news
p855
(dp856
g10
F77.200000000000017
ssVcom.baidu.BaiduMap
p857
(dp858
g10
F1.8999999999999999
ssVcom.android.deskclock
p859
(dp860
g10
F4.1999999999999993
ssg27
(dp861
g10
F99.800000000000097
ssg37
(dp862
g10
F1085.0000000000039
ssg39
(dp863
g10
F5.9000000000000004
ssVcom.android.mediacenter
p864
(dp865
g10
F2.7000000000000002
ssVcom.sina.weibo
p866
(dp867
g10
F2.6000000000000001
ssVcom.android.contacts
p868
(dp869
g10
F46.699999999999996
ssVcom.eg.android.AlipayGphone
p870
(dp871
g10
F2.5
ssVcom.zhihu.android
p872
(dp873
g10
F1.3999999999999999
ssVcom.aquila.bible
p874
(dp875
g10
F31.299999999999979
ssVcom.mojang.minecraftpe
p876
(dp877
g10
F0.90000000000000002
ssVcom.huawei.android.airsharing
p878
(dp879
g10
F0.69999999999999996
ssVcom.android.gallery3d
p880
(dp881
g10
F8.4000000000000004
ssg439
(dp882
g10
F3.8999999999999999
ssg69
(dp883
g10
F0.90000000000000002
ssg452
(dp884
g10
F5.2000000000000002
ssVcom.android.video
p885
(dp886
g10
F0.69999999999999996
ssVcom.sirma.mobile.bible.android
p887
(dp888
g10
F2.6000000000000001
ssVcom.android.phone
p889
(dp890
g10
F3.6000000000000001
ssg125
(dp891
g10
F397.39999999999822
ssVcom.netease.cloudmusic
p892
(dp893
g10
F3
ssVcom.zms.android
p894
(dp895
g10
F2.6999999999999997
ssVcom.android.notepad
p896
(dp897
g10
I1
ssVorg.hbrchina
p898
(dp899
g10
F0.90000000000000002
ssg57
(dp900
g10
F0.90000000000000002
ssVcom.huawei.appmarket
p901
(dp902
g10
F6
ssVcom.example.chinesechess.huawei
p903
(dp904
g10
F3.1999999999999997
ssVcom.android.fileexplorer
p905
(dp906
g10
F0.69999999999999996
ssVcom.netease.newsreader.activity
p907
(dp908
g10
F23.899999999999991
ssVcom.android.thememanager
p909
(dp910
g10
F1.3999999999999999
ssVcom.huawei.health
p911
(dp912
g10
F4
ssVcom.android.calendar
p913
(dp914
g10
F7.4000000000000004
ssg23
(dp915
g10
F3.2999999999999998
ssVcom.baidu.input_huawei
p916
(dp917
g10
F3.6999999999999997
ssg492
(dp918
g10
F3.1000000000000001
ssVcom.huawei.hwid
p919
(dp920
g10
F1.3999999999999999
ssVcom.lofter.android
p921
(dp922
g10
F1.8
ssg618
(dp923
g10
F0.90000000000000002
ssVcom.android.settings
p924
(dp925
g10
F10.400000000000002
ssg500
(dp926
g10
F1.8
ssVcom.android.packageinstaller
p927
(dp928
g10
F1.7
sssg85
(dp929
Vcom.android.browser
p930
(dp931
g10
I2
ssVcom.youdao.dict
p932
(dp933
g10
F0.90000000000000002
ssg105
(dp934
g10
F22.199999999999989
ssVcom.UCMobile
p935
(dp936
g10
F1.2000000000000002
ssg29
(dp937
g10
F0.69999999999999996
ssVcom.snda.wifilocating
p938
(dp939
g10
F6.2000000000000011
ssg35
(dp940
g10
F3
ssVcom.android.launcher
p941
(dp942
g10
F164.90000000000001
ssVcom.huawei.android.internal.app
p943
(dp944
g10
F1.3999999999999999
ssVcom.android.contacts
p945
(dp946
g10
F8.5000000000000018
ssVcom.aquila.bible
p947
(dp948
g10
F2.6000000000000001
ssg157
(dp949
g10
F0.90000000000000002
ssVcom.android.gallery3d
p950
(dp951
g10
F6.0000000000000009
ssVcom.huawei.hidisk
p952
(dp953
g10
F0.90000000000000002
ssVcom.android.phone
p954
(dp955
g10
F0.90000000000000002
ssg838
(dp956
g10
F9.4000000000000004
ssVcom.netease.cloudmusic
p957
(dp958
g10
F1.8
ssg91
(dp959
g10
F1.3
ssVorg.wikipedia
p960
(dp961
g10
F1.3
ssVcom.dongqiudi.news
p962
(dp963
g10
F2.7000000000000002
ssg477
(dp964
g10
F3.1000000000000001
ssg753
(dp965
g10
F3.3999999999999999
ssg121
(dp966
g10
F1.6000000000000001
ssg129
(dp967
g10
F1.3999999999999999
ssVcom.tencent.mm
p968
(dp969
g10
F30.699999999999974
ssVcom.baidu.BaiduMap
p970
(dp971
g10
F2.2999999999999998
ssVcom.baidu.tieba
p972
(dp973
g10
F1.6000000000000001
ssVcom.huawei.appmarket
p974
(dp975
g10
F0.90000000000000002
sssg87
(dp976
Vcom.android.contacts
p977
(dp978
g10
F0.90000000000000002
ssVcom.android.launcher
p979
(dp980
g10
F3.7000000000000002
sssg89
(dp981
g53
(dp982
g10
F1.6000000000000001
ssVcom.huawei.android.FMRadio
p983
(dp984
g10
F0.69999999999999996
ssg894
(dp985
g10
F2.2000000000000002
ssVcom.tencent.mobileqq
p986
(dp987
g10
F6.6000000000000014
ssVcom.huawei.appmarket
p988
(dp989
g10
F0.80000000000000004
ssg19
(dp990
g10
F0.69999999999999996
ssVcom.dongqiudi.news
p991
(dp992
g10
F0.40000000000000002
ssVcom.UCMobile
p993
(dp994
g10
F2.2000000000000002
ssVcom.netease.newsreader.activity
p995
(dp996
g10
F0.90000000000000002
ssVcom.android.launcher
p997
(dp998
g10
F39.699999999999996
ssVcom.android.settings
p999
(dp1000
g10
F1.8999999999999999
ssVcom.android.camera
p1001
(dp1002
g10
I1
ssVcom.android.mediacenter
p1003
(dp1004
g10
F0.69999999999999996
ssVcom.tencent.mm
p1005
(dp1006
g10
F7.2000000000000011
ssVcom.eg.android.AlipayGphone
p1007
(dp1008
g10
F0.40000000000000002
sssg91
(dp1009
Vcom.android.settings
p1010
(dp1011
g10
I1
ssVcom.android.gallery3d
p1012
(dp1013
g10
F0.69999999999999996
ssVcom.android.launcher
p1014
(dp1015
g10
F1.3
sssg93
(dp1016
g485
(dp1017
g10
F0.90000000000000002
ssVcom.tencent.mobileqq
p1018
(dp1019
g10
I2
ssg434
(dp1020
g10
F0.69999999999999996
ssVcom.android.launcher
p1021
(dp1022
g10
F7.1000000000000005
ssVcom.tencent.mm
p1023
(dp1024
g10
F1.7
ssVcom.android.contacts
p1025
(dp1026
g10
I1
sssg95
(dp1027
g327
(dp1028
g10
F2.7000000000000002
ssg171
(dp1029
g10
F5.2000000000000011
ssVcom.huawei.appmarket
p1030
(dp1031
g10
F1.3
ssVcom.huawei.hwid
p1032
(dp1033
g10
F0.69999999999999996
ssVcom.android.launcher
p1034
(dp1035
g10
F14.999999999999998
ssVcom.android.settings
p1036
(dp1037
g10
F1.7
ssVcom.android.mediacenter
p1038
(dp1039
g10
F0.90000000000000002
ssVcom.tencent.mobileqq
p1040
(dp1041
g10
F3
sssg97
(dp1042
sg99
(dp1043
Vcom.huawei.android.FMRadio
p1044
(dp1045
g10
F0.90000000000000002
ssVcom.huawei.lcagent
p1046
(dp1047
g10
F0.90000000000000002
ssg381
(dp1048
g10
I5
ssVcom.tencent.mobileqq
p1049
(dp1050
g10
F3.2999999999999998
ssVcom.android.contacts
p1051
(dp1052
g10
F2.2000000000000002
ssVcom.android.deskclock
p1053
(dp1054
g10
F2.8999999999999999
ssVcom.UCMobile
p1055
(dp1056
g10
F0.90000000000000002
ssVcom.netease.newsreader.activity
p1057
(dp1058
g10
F0.69999999999999996
ssVcom.android.launcher
p1059
(dp1060
g10
F63.900000000000006
ssVcom.tencent.mm
p1061
(dp1062
g10
F5.7000000000000011
ssVcom.huawei.health
p1063
(dp1064
g10
F0.40000000000000002
ssVcom.eg.android.AlipayGphone
p1065
(dp1066
g10
F0.40000000000000002
sssg101
(dp1067
g744
(dp1068
g10
F0.90000000000000002
ssVcom.tencent.mobileqq
p1069
(dp1070
g10
F0.69999999999999996
ssg198
(dp1071
g10
F4.7999999999999998
ssVcom.taobao.taobao
p1072
(dp1073
g10
I1
ssVcom.liulishuo.engzo
p1074
(dp1075
g10
F2.7000000000000002
ssg740
(dp1076
g10
F1.8
ssVcom.android.launcher
p1077
(dp1078
g10
F2
ssg143
(dp1079
g10
F0.90000000000000002
ssg751
(dp1080
g10
F0.40000000000000002
sssg103
(dp1081
Vcom.zhihu.android
p1082
(dp1083
g10
F0.90000000000000002
ssVcom.aquila.bible
p1084
(dp1085
g10
F1.7000000000000002
ssg119
(dp1086
g10
I1
ssVcom.netease.cloudmusic
p1087
(dp1088
g10
F0.90000000000000002
ssVcom.UCMobile
p1089
(dp1090
g10
F3.3999999999999999
ssVcom.tencent.mm
p1091
(dp1092
g10
F30.599999999999991
ssVcom.sina.weibo
p1093
(dp1094
g10
F0.69999999999999996
ssVcom.android.phone
p1095
(dp1096
g10
I1
ssVcom.android.gallery3d
p1097
(dp1098
g10
F0.90000000000000002
ssVcom.baidu.BaiduMap
p1099
(dp1100
g10
F0.69999999999999996
ssVcom.dongqiudi.news
p1101
(dp1102
g10
F6.9000000000000012
ssg59
(dp1103
g10
F2.7999999999999998
ssVcom.snda.wifilocating
p1104
(dp1105
g10
F0.69999999999999996
ssVcom.android.launcher
p1106
(dp1107
g10
F139.20000000000016
ssVcom.huawei.appmarket
p1108
(dp1109
g10
F6.4000000000000012
ssg675
(dp1110
g10
F1.7
ssVcom.tencent.mobileqq
p1111
(dp1112
g10
F38.099999999999987
ssVcom.android.contacts
p1113
(dp1114
g10
F5.2000000000000002
ssVcom.android.settings
p1115
(dp1116
g10
F2.4000000000000004
sssg105
(dp1117
g91
(dp1118
g10
F0.69999999999999996
ssVcom.android.settings
p1119
(dp1120
g10
F15.699999999999998
ssg950
(dp1121
g10
F3.8999999999999999
ssVcom.android.contacts
p1122
(dp1123
g10
F0.90000000000000002
ssVcom.android.launcher
p1124
(dp1125
g10
F11.800000000000002
ssVcom.huawei.appmarket
p1126
(dp1127
g10
F0.40000000000000002
ssg753
(dp1128
g10
F0.40000000000000002
sssg107
(dp1129
Vcom.tencent.mm
p1130
(dp1131
g10
F5.8000000000000007
ssg822
(dp1132
g10
F1.7
ssVcom.taobao.taobao
p1133
(dp1134
g10
I1
ssVcom.UCMobile
p1135
(dp1136
g10
F2.3999999999999999
ssVcom.android.launcher
p1137
(dp1138
g10
F9.1000000000000014
ssg746
(dp1139
g10
I1
ssVcom.tencent.mobileqq
p1140
(dp1141
g10
F1.7
ssVcom.android.settings
p1142
(dp1143
g10
I2
sssg109
(dp1144
Vcom.aquila.bible
p1145
(dp1146
g10
F0.40000000000000002
ssVcom.tencent.mobileqq
p1147
(dp1148
g10
F4.5
ssVcom.dongqiudi.news
p1149
(dp1150
g10
F0.90000000000000002
ssVcom.UCMobile
p1151
(dp1152
g10
F1.3
ssVcom.android.launcher
p1153
(dp1154
g10
F50.400000000000006
ssVcom.android.phone
p1155
(dp1156
g10
I1
ssVcom.tencent.mm
p1157
(dp1158
g10
F8.4000000000000021
ssVcom.android.contacts
p1159
(dp1160
g10
F0.90000000000000002
ssVcom.android.settings
p1161
(dp1162
g10
F2.6000000000000001
sssg111
(dp1163
Vcom.huawei.hwid
p1164
(dp1165
g10
F0.69999999999999996
ssVcom.android.contacts
p1166
(dp1167
g10
F0.90000000000000002
ssVcom.android.launcher
p1168
(dp1169
g10
F2.7000000000000002
ssVcom.huawei.appmarket
p1170
(dp1171
g10
F1.3
sssg113
(dp1172
Vcom.android.browser
p1173
(dp1174
g10
F1.7
ssVcom.aquila.bible
p1175
(dp1176
g10
F2
ssVcom.huawei.lcagent
p1177
(dp1178
g10
F0.69999999999999996
ssVcom.android.launcher
p1179
(dp1180
g10
F75.600000000000023
ssg123
(dp1181
g10
F0.90000000000000002
ssVcom.tencent.mobileqq
p1182
(dp1183
g10
F8.2000000000000011
ssg927
(dp1184
g10
F0.69999999999999996
ssVcom.android.settings
p1185
(dp1186
g10
F4.5
ssVcom.android.gallery3d
p1187
(dp1188
g10
F0.69999999999999996
ssVcom.dongqiudi.news
p1189
(dp1190
g10
F0.40000000000000002
ssVcom.UCMobile
p1191
(dp1192
g10
F5.2000000000000002
ssVcom.android.phone
p1193
(dp1194
g10
F0.69999999999999996
ssg439
(dp1195
g10
F0.90000000000000002
ssVcom.android.notepad
p1196
(dp1197
g10
F0.90000000000000002
ssg901
(dp1198
g10
F2.2000000000000002
ssg943
(dp1199
g10
I1
ssVcom.android.camera
p1200
(dp1201
g10
F2.2000000000000002
ssg205
(dp1202
g10
F14.900000000000002
ssVcom.android.contacts
p1203
(dp1204
g10
F5.9000000000000004
ssg55
(dp1205
g10
F0.40000000000000002
sssg115
(dp1206
Vcom.android.contacts
p1207
(dp1208
g10
F0.90000000000000002
ssVcom.android.launcher
p1209
(dp1210
g10
I2
ssVcom.android.phone
p1211
(dp1212
g10
F1.7
sssg117
(dp1213
Vcom.baidu.input_huawei
p1214
(dp1215
g10
F0.90000000000000002
ssVcom.tencent.mm
p1216
(dp1217
g10
I2
ssVcom.android.launcher
p1218
(dp1219
g10
F2.7000000000000002
ssVcom.eg.android.AlipayGphone
p1220
(dp1221
g10
F1.3999999999999999
ssVcom.android.contacts
p1222
(dp1223
g10
F0.90000000000000002
sssg119
(dp1224
Vcom.aquila.bible
p1225
(dp1226
g10
F1.7
ssVcom.tencent.mm
p1227
(dp1228
g10
I1
ssVcom.dongqiudi.news
p1229
(dp1230
g10
F2.8999999999999999
ssVcom.netease.newsreader.activity
p1231
(dp1232
g10
I1
ssVcom.android.launcher
p1233
(dp1234
g10
F4.1000000000000005
ssVcom.tencent.mobileqq
p1235
(dp1236
g10
I1
ssVcom.android.contacts
p1237
(dp1238
g10
I1
sssg121
(dp1239
g711
(dp1240
g10
I1
ssVcom.android.contacts
p1241
(dp1242
g10
F0.90000000000000002
ssVcom.android.launcher
p1243
(dp1244
g10
F7
ssVcom.android.browser
p1245
(dp1246
g10
F0.90000000000000002
sssg123
(dp1247
g17
(dp1248
g10
F0.40000000000000002
ssVcom.tencent.mm
p1249
(dp1250
g10
F4.9000000000000004
ssVcom.dongqiudi.news
p1251
(dp1252
g10
F1.3
ssVcom.UCMobile
p1253
(dp1254
g10
F0.40000000000000002
ssVcom.android.launcher
p1255
(dp1256
g10
F30.499999999999993
ssVcom.android.settings
p1257
(dp1258
g10
F0.90000000000000002
ssVcom.tencent.mobileqq
p1259
(dp1260
g10
F10.4
ssVcom.android.contacts
p1261
(dp1262
g10
F3.1999999999999997
sssg125
(dp1263
g8
(dp1264
g10
F3.1999999999999997
ssg11
(dp1265
g10
F3.3999999999999999
ssVcom.android.calendar
p1266
(dp1267
g10
F4.4000000000000004
ssg37
(dp1268
g10
F1816.3000000000268
ssg17
(dp1269
g10
F4.9000000000000004
ssVcom.android.thememanager
p1270
(dp1271
g10
F1.7999999999999998
ssg23
(dp1272
g10
F2
ssVcom.android.deskclock
p1273
(dp1274
g10
F3.6999999999999997
ssg27
(dp1275
g10
F163.20000000000047
ssg33
(dp1276
g10
F2.8999999999999999
ssg13
(dp1277
g10
F4
ssg39
(dp1278
g10
F11.300000000000001
ssg41
(dp1279
g10
F8.8000000000000007
ssg43
(dp1280
g10
F9.0000000000000018
ssg45
(dp1281
g10
F73.5
ssVcom.eg.android.AlipayGphone
p1282
(dp1283
g10
F6.9000000000000012
ssg347
(dp1284
g10
F0.69999999999999996
ssVorg.hbrchina
p1285
(dp1286
g10
F2.7000000000000002
ssVcom.aquila.bible
p1287
(dp1288
g10
F39.699999999999967
ssg952
(dp1289
g10
F1.3
ssg878
(dp1290
g10
I1
ssg63
(dp1291
g10
F9.7000000000000011
ssVcom.lofter.android
p1292
(dp1293
g10
F0.90000000000000002
ssVcom.taobao.taobao
p1294
(dp1295
g10
F1.7
ssg127
(dp1296
g10
F0.40000000000000002
ssg885
(dp1297
g10
F1.3999999999999999
ssVcom.sirma.mobile.bible.android
p1298
(dp1299
g10
F3.1000000000000001
ssg462
(dp1300
g10
F11.700000000000001
ssVcom.tencent.mobileqq
p1301
(dp1302
g10
F422.49999999999801
ssg358
(dp1303
g10
F9.5000000000000036
ssVcom.zhihu.android
p1304
(dp1305
g10
F3.5999999999999996
ssVcom.android.calculator
p1306
(dp1307
g10
I1
ssg95
(dp1308
g10
F2.6999999999999997
ssg539
(dp1309
g10
F9.6000000000000014
ssg474
(dp1310
g10
F27.099999999999987
ssVcom.dongqiudi.news
p1311
(dp1312
g10
F63.699999999999974
ssg107
(dp1313
g10
F4.4000000000000004
ssVcom.iflytek.cmcc
p1314
(dp1315
g10
F1.8999999999999999
ssg207
(dp1316
g10
F13.400000000000002
ssg373
(dp1317
g10
F0.90000000000000002
ssVcom.huawei.vassistant
p1318
(dp1319
g10
I3
ssg121
(dp1320
g10
F0.40000000000000002
ssg135
(dp1321
g10
F17.399999999999999
ssVcom.android.settings
p1322
(dp1323
g10
F27.999999999999993
ssg109
(dp1324
g10
F6.5000000000000009
ssg492
(dp1325
g10
F0.40000000000000002
ssVcom.huawei.hwid
p1326
(dp1327
g10
F4.9000000000000004
ssg137
(dp1328
g10
F1.8999999999999999
ssVcom.baidu.tieba
p1329
(dp1330
g10
F33.899999999999984
ssVcom.huawei.appmarket
p1331
(dp1332
g10
F18.299999999999997
ssg500
(dp1333
g10
F19.100000000000001
ssg391
(dp1334
g10
F3.0999999999999996
sssg127
(dp1335
Vcom.tencent.mobileqq
p1336
(dp1337
g10
F0.90000000000000002
ssVcom.android.launcher
p1338
(dp1339
g10
F4.9000000000000004
sssg129
(dp1340
Vcom.android.settings
p1341
(dp1342
g10
F1.7
ssVcom.android.thememanager
p1343
(dp1344
g10
F1.3
sssg131
(dp1345
g876
(dp1346
g10
F0.40000000000000002
ssVcom.tencent.mobileqq
p1347
(dp1348
g10
F2.6999999999999997
ssVcom.taobao.taobao
p1349
(dp1350
g10
F1.7000000000000002
ssg905
(dp1351
g10
F4.4000000000000004
ssVcom.android.launcher
p1352
(dp1353
g10
F13.199999999999998
ssg143
(dp1354
g10
F1.7
ssVcom.tencent.mm
p1355
(dp1356
g10
F2.6000000000000001
sssg133
(dp1357
sg135
(dp1358
Vcom.UCMobile
p1359
(dp1360
g10
F2.6999999999999997
ssVcom.tencent.mm
p1361
(dp1362
g10
F10.799999999999999
ssVcom.tencent.mobileqq
p1363
(dp1364
g10
F4.6000000000000005
ssVcom.android.contacts
p1365
(dp1366
g10
I1
ssVcom.android.launcher
p1367
(dp1368
g10
F6.6000000000000014
sssg137
(dp1369
Vcom.UCMobile
p1370
(dp1371
g10
F0.90000000000000002
ssVcom.android.launcher
p1372
(dp1373
g10
F3.7000000000000002
sssg139
(dp1374
g85
(dp1375
g10
F3.5
ssVcom.sina.weibo
p1376
(dp1377
g10
F2.7000000000000002
ssg352
(dp1378
g10
F2.2000000000000002
ssVcom.UCMobile
p1379
(dp1380
g10
F12.400000000000004
ssVcom.netease.newsreader.activity
p1381
(dp1382
g10
F0.40000000000000002
ssVcom.android.launcher
p1383
(dp1384
g10
F82.400000000000048
ssg133
(dp1385
g10
F0.40000000000000002
ssVcom.tencent.mm
p1386
(dp1387
g10
F35.699999999999982
sssg141
(dp1388
Vcom.handsgo.jiakao.android
p1389
(dp1390
g10
I1
ssg105
(dp1391
g10
F2.0999999999999996
ssVcom.android.deskclock
p1392
(dp1393
g10
I1
ssVcom.UCMobile
p1394
(dp1395
g10
F0.40000000000000002
ssg29
(dp1396
g10
I1
ssVcom.android.launcher
p1397
(dp1398
g10
F51.599999999999994
ssVcom.android.contacts
p1399
(dp1400
g10
F0.40000000000000002
ssg77
(dp1401
g10
I1
ssg51
(dp1402
g10
F1.3
ssg55
(dp1403
g10
F0.90000000000000002
ssVcom.android.gallery3d
p1404
(dp1405
g10
F0.90000000000000002
ssVcom.tencent.mm
p1406
(dp1407
g10
F15.000000000000004
ssg97
(dp1408
g10
I1
ssg474
(dp1409
g10
F0.69999999999999996
ssg855
(dp1410
g10
F0.40000000000000002
ssg707
(dp1411
g10
F2.2000000000000002
ssg1347
(dp1412
g10
F4.2000000000000002
ssg117
(dp1413
g10
F1.7
ssg696
(dp1414
g10
F6.4000000000000004
ssg131
(dp1415
g10
F1.8999999999999999
ssg59
(dp1416
g10
I19
ssg65
(dp1417
g10
F0.90000000000000002
sssg143
(dp1418
Vcom.huawei.android.FMRadio
p1419
(dp1420
g10
I1
ssVcom.netease.cloudmusic
p1421
(dp1422
g10
I2
ssVcom.tencent.mobileqq
p1423
(dp1424
g10
F3.1000000000000001
ssVcom.android.phone
p1425
(dp1426
g10
I2
ssVcom.android.gallery3d
p1427
(dp1428
g10
F14.800000000000001
ssVcom.taobao.taobao
p1429
(dp1430
g10
F0.90000000000000002
ssVcom.liulishuo.engzo
p1431
(dp1432
g10
F3
ssg218
(dp1433
g10
F0.69999999999999996
ssVcom.android.fileexplorer
p1434
(dp1435
g10
F0.90000000000000002
ssVcom.android.thememanager
p1436
(dp1437
g10
F0.40000000000000002
ssVcom.android.launcher
p1438
(dp1439
g10
F67.40000000000002
ssVcom.android.settings
p1440
(dp1441
g10
F0.90000000000000002
ssVcom.tencent.mm
p1442
(dp1443
g10
F12.200000000000001
sssg145
(dp1444
Vcom.huawei.android.internal.app
p1445
(dp1446
g10
F0.90000000000000002
ssVcom.UCMobile
p1447
(dp1448
g10
I1
ssVcom.tencent.mm
p1449
(dp1450
g10
F1.7
ssVcom.android.launcher
p1451
(dp1452
g10
F0.40000000000000002
ssssS'edge'
p1453
g151
sS'graph'
p1454
(dp1455
sS'adjlist_dict_factory'
p1456
g148
sS'adj'
p1457
g151
sS'pred'
p1458
(dp1459
g8
(dp1460
Vcom.android.launcher
p1461
g425
sVcom.qw.android
p1462
g1246
sVcom.android.settings
p1463
g931
sg391
g710
sVcom.huawei.health
p1464
g1174
sVcom.UCMobile
p1465
g328
sVcom.lofter.android
p1466
g759
sg567
g193
sg95
g1028
sVcom.tencent.mm
p1467
g1264
sg45
g566
sVcom.eg.android.AlipayGphone
p1468
g624
ssg11
(dp1469
Vcom.example.chinesechess.huawei
p1470
g1045
sVcom.netease.cloudmusic
p1471
g984
sg33
g407
sVcom.android.launcher
p1472
g426
sVcom.android.camera
p1473
g1420
sVcom.tencent.mm
p1474
g1265
ssg13
(dp1475
g194
g657
sg1044
g179
sVcom.UCMobile
p1476
g339
sVcom.tencent.mobileqq
p1477
g897
sg198
g745
sVcom.android.contacts
p1478
g568
sg101
g1068
sVcom.android.launcher
p1479
g441
sVcom.tencent.mm
p1480
g1277
sg207
g1197
ssg15
(dp1481
Vcom.android.launcher
p1482
g440
sVcom.tencent.mobileqq
p1483
g882
sVcom.dongqiudi.news
p1484
g269
sVcom.android.contacts
p1485
g588
sg212
g1073
sg222
g1134
sVcom.android.camera
p1486
g1430
sg216
g1350
sVcom.tencent.mm
p1487
g1295
sVcom.huawei.health
p1488
g1195
ssg17
(dp1489
Vcom.android.calendar
p1490
g1248
sg1249
g1269
sg1255
g429
sVcom.huawei.appmarket
p1491
g1390
sVcom.tencent.mobileqq
p1492
g852
sVcom.sirma.mobile.bible.android
p1493
g814
ssg19
(dp1494
g53
g664
sg983
g181
sg467
g990
sVcom.android.launcher
p1495
g430
sg41
g527
sg244
g854
ssg21
(dp1496
Vcom.baidu.BaiduMap
p1497
g1150
sVcom.aquila.bible
p1498
g666
sg284
g1230
sVcom.netease.cloudmusic
p1499
g992
sVcom.android.calendar
p1500
g1252
sVcom.tencent.mobileqq
p1501
g856
sVcom.android.phone
p1502
g827
sVcom.lofter.android
p1503
g769
sVcom.android.contacts
p1504
g599
sg252
g333
sg474
g1102
sVcom.android.launcher
p1505
g431
sVcom.huawei.appmarket
p1506
g1410
sVcom.tencent.mm
p1507
g1312
sVcom.huawei.health
p1508
g1190
sVcom.android.settings
p1509
g963
ssg23
(dp1510
Vcom.android.deskclock
p1511
g315
sVcom.tencent.mobileqq
p1512
g915
sVcom.tencent.mm
p1513
g1272
sVcom.android.launcher
p1514
g432
ssg25
(dp1515
Vcom.example.chinesechess.huawei
p1516
g1054
sg312
g1274
sVcom.dongqiudi.news
p1517
g251
sVcom.UCMobile
p1518
g335
sVcom.snda.wifilocating
p1519
g410
sg1429
g219
sVcom.android.launcher
p1520
g433
sVcom.huawei.appmarket
p1521
g1393
sg1486
g1433
sVcom.tencent.mobileqq
p1522
g860
ssg27
(dp1523
Vcom.android.browser
p1524
g164
sVcom.dongqiudi.news
p1525
g253
sVcom.android.deskclock
p1526
g317
sVcom.huawei.appmarket
p1527
g1395
sVcom.snda.wifilocating
p1528
g412
sg575
g435
sg39
g514
sg728
g542
sg1025
g572
sg1287
g670
sg145
g1448
sVcom.android.gallery3d
p1529
g739
sg137
g1371
sVcom.taobao.taobao
p1530
g221
sVcom.android.phone
p1531
g831
sg83
g861
sVcom.netease.cloudmusic
p1532
g994
sVcom.android.calculator
p1533
g1020
sg125
g1275
sVcom.example.chinesechess.huawei
p1534
g1056
sVcom.netease.newsreader.activity
p1535
g1090
sg370
g1136
sg282
g1192
sVcom.android.calendar
p1536
g1254
sg23
g298
sVcom.baidu.BaiduMap
p1537
g1152
sg916
g1360
sg383
g763
sg139
g1380
sg1509
g936
ssg29
(dp1538
Vcom.android.settings
p1539
g937
sVcom.android.launcher
p1540
g436
sg974
g1396
ssg31
(dp1541
g1524
g153
sVcom.tencent.mm
p1542
g1305
sVcom.dongqiudi.news
p1543
g261
sg163
g349
sVcom.netease.newsreader.activity
p1544
g1083
sVcom.android.launcher
p1545
g437
sVcom.tencent.mobileqq
p1546
g873
sVcom.android.contacts
p1547
g584
ssg33
(dp1548
Vcom.android.settings
p1549
g939
sVcom.UCMobile
p1550
g337
sVcom.netease.newsreader.activity
p1551
g1105
sg1472
g438
sg1474
g1276
sVcom.android.contacts
p1552
g574
ssg35
(dp1553
g612
g940
ssg37
(dp1554
g192
g168
sg11
g185
sg49
g645
sg15
g211
sg17
g236
sg19
g248
sg21
g255
sg23
g300
sVcom.android.deskclock
p1555
g319
sg27
g331
sg29
g395
sg1304
g405
sg33
g408
sg35
g423
sg13
g202
sg39
g515
sg41
g532
sg43
g557
sg1025
g576
sg47
g632
sg51
g652
sg53
g673
sVcom.mojang.minecraftpe
p1556
g688
sg61
g715
sg63
g721
sVcom.lofter.android
p1557
g773
sg67
g778
sg69
g785
sg71
g790
sg73
g800
sg75
g803
sg1298
g812
sg462
g833
sg81
g848
sg83
g862
sVcom.android.settings
p1558
g942
sg87
g980
sg467
g998
sg91
g1015
sg93
g1022
sVcom.zms.android
p1559
g1035
sg99
g1060
sg101
g1078
sg103
g1107
sg105
g1125
sVcom.huawei.lcagent
p1560
g1138
sg109
g1154
sg111
g1169
sg113
g1180
sVcom.rrh.jdb
p1561
g1210
sVcom.MobileTicket
p1562
g1219
sVcom.huawei.vassistant
p1563
g1234
sg121
g1244
sg1490
g1256
sg125
g1268
sg127
g1339
sVcom.baidu.input_huawei
p1564
g1368
sVcom.liulishuo.engzo
p1565
g1353
sg59
g702
sg137
g1373
sg139
g1384
sg141
g1398
sg143
g1439
sg878
g1452
ssg39
(dp1566
Vorg.hbrchina
p1567
g648
sVcom.aquila.bible
p1568
g676
sVcom.UCMobile
p1569
g341
sg728
g560
sg878
g1446
sg548
g748
sVcom.android.contacts
p1570
g578
sVcom.huawei.hidisk
p1571
g793
sg671
g1110
sVcom.android.launcher
p1572
g443
sVcom.android.settings
p1573
g944
sVcom.android.mediacenter
p1574
g534
sg125
g1278
sVcom.huawei.health
p1575
g1199
sg870
g634
sg83
g863
ssg41
(dp1576
g983
g188
sg523
g1004
sVcom.tencent.mobileqq
p1577
g865
sg180
g241
sg528
g795
sg73
g799
sVcom.android.launcher
p1578
g444
sg1559
g1039
sg1005
g1279
sVcom.android.contacts
p1579
g580
ssg43
(dp1580
Vcom.tencent.mobileqq
p1581
g867
sg548
g729
sg1101
g256
sVcom.UCMobile
p1582
g344
sVcom.netease.newsreader.activity
p1583
g1094
sVcom.baidu.tieba
p1584
g1377
sVcom.android.launcher
p1585
g445
sVcom.tencent.mm
p1586
g1280
ssg45
(dp1587
g8
g174
sVcom.huawei.android.FMRadio
p1588
g190
sg1461
g446
sVcom.android.thememanager
p1589
g1123
sg81
g846
sg1555
g325
sg1089
g346
sg35
g421
sg87
g978
sVcom.sina.weibo
p1590
g564
sg581
g638
sVcom.huawei.android.totemweather
p1591
g296
sg585
g1052
sVcom.android.gallery3d
p1592
g737
sVcom.taobao.taobao
p1593
g229
sg79
g829
sg1467
g1281
sg1533
g1026
sVcom.netease.newsreader.activity
p1594
g1114
sg21
g258
sg111
g1167
sg113
g1204
sg1561
g1208
sg602
g869
sg604
g1223
sg606
g1238
sVcom.qw.android
p1595
g1242
sg123
g1262
sg726
g946
sVcom.baidu.BaiduMap
p1596
g1160
sVcom.baidu.input_huawei
p1597
g1366
sVcom.huawei.appmarket
p1598
g1400
ssg47
(dp1599
g373
g1221
sg585
g1066
sg658
g1008
sVcom.tencent.mm
p1600
g1283
sVcom.android.launcher
p1601
g447
sVcom.android.phone
p1602
g843
sg633
g521
sVcom.tencent.mobileqq
p1603
g871
sg1222
g582
ssg49
(dp1604
Vcom.UCMobile
p1605
g348
sVcom.aquila.bible
p1606
g683
sVcom.tencent.mm
p1607
g1284
sVcom.android.launcher
p1608
g448
sVcom.android.settings
p1609
g933
ssg51
(dp1610
Vcom.tencent.mobileqq
p1611
g899
sg343
g538
sVcom.android.launcher
p1612
g449
sg558
g1402
sg647
g505
sg649
g1286
ssg53
(dp1613
g1495
g450
sg467
g982
sVcom.android.settings
p1614
g948
sg19
g243
sg824
g1146
sVcom.dongqiudi.news
p1615
g263
sg69
g781
sg1563
g1226
sVcom.UCMobile
p1616
g365
sg1557
g761
sg1196
g195
sVcom.netease.newsreader.activity
p1617
g1085
sg675
g507
sVcom.tencent.mm
p1618
g1288
sVcom.huawei.health
p1619
g1176
sg887
g808
sVcom.tencent.mobileqq
p1620
g875
ssg55
(dp1621
Vcom.liulishuo.engzo
p1622
g1346
sVcom.android.launcher
p1623
g451
sg901
g1403
sg1069
g877
sg911
g1205
sg47
g626
ssg57
(dp1624
g340
g513
sg1569
g342
sVcom.tencent.mobileqq
p1625
g900
ssg59
(dp1626
g99
g1048
sg876
g686
sg589
g788
sg43
g551
sg730
g1033
sVcom.UCMobile
p1627
g382
sg103
g1103
sg1106
g495
sg1108
g1416
sVcom.android.email
p1628
g1165
sVcom.tencent.mm
p1629
g1327
sVcom.android.contacts
p1630
g617
sVcom.tencent.mobileqq
p1631
g920
ssg61
(dp1632
Vcom.android.browser
p1633
g158
sVcom.android.settings
p1634
g949
sVcom.dongqiudi.news
p1635
g265
sg1465
g392
sVcom.android.launcher
p1636
g502
sVcom.tencent.mm
p1637
g1334
sVcom.huawei.health
p1638
g1184
sVcom.tencent.mobileqq
p1639
g928
ssg63
(dp1640
g930
g160
sg718
g1132
sVcom.android.launcher
p1641
g455
sg101
g1071
sVcom.android.settings
p1642
g951
sVcom.sina.weibo
p1643
g549
sg91
g1013
sVcom.netease.newsreader.activity
p1644
g1098
sVcom.android.thememanager
p1645
g1121
sVcom.UCMobile
p1646
g353
sVcom.lofter.android
p1647
g767
sVcom.huawei.appmarket
p1648
g1405
sVcom.baidu.tieba
p1649
g1378
sVcom.dongqiudi.news
p1650
g267
sg656
g199
sg746
g823
sg442
g512
sg389
g1428
sg377
g1291
sVcom.huawei.health
p1651
g1188
sVcom.tencent.mobileqq
p1652
g881
ssg65
(dp1653
g758
g166
sVcom.UCMobile
p1654
g384
sVcom.tencent.mobileqq
p1655
g922
sg766
g741
sg770
g1076
sVcom.android.launcher
p1656
g456
sVcom.huawei.appmarket
p1657
g1417
sg774
g1293
ssg67
(dp1658
Vcom.android.launcher
p1659
g457
ssg69
(dp1660
Vcom.tencent.mobileqq
p1661
g883
sVcom.android.launcher
p1662
g458
ssg71
(dp1663
g796
g1289
sg616
g700
sVcom.android.launcher
p1664
g453
sg791
g953
sg533
g509
sg864
g529
sVcom.tencent.mobileqq
p1665
g884
sg1630
g590
ssg73
(dp1666
Vcom.tencent.mm
p1667
g1297
sg41
g530
sg180
g246
sg1578
g460
sVcom.tencent.mobileqq
p1668
g886
ssg75
(dp1669
sg77
(dp1670
g807
g682
sVcom.tencent.mm
p1671
g1299
sVcom.dongqiudi.news
p1672
g259
sVcom.android.launcher
p1673
g461
sg288
g1401
sg809
g888
ssg79
(dp1674
g1591
g302
sVcom.aquila.bible
p1675
g680
sg718
g1139
sVcom.tencent.mm
p1676
g1300
sVcom.android.gallery3d
p1677
g747
sVcom.baidu.BaiduMap
p1678
g1156
sVcom.dongqiudi.news
p1679
g271
sVcom.huawei.health
p1680
g1194
sg115
g1212
sVcom.UCMobile
p1681
g363
sVcom.netease.newsreader.activity
p1682
g1096
sVcom.android.launcher
p1683
g463
sVcom.android.settings
p1684
g955
sVcom.android.camera
p1685
g1426
sVcom.tencent.mobileqq
p1686
g890
sVcom.android.contacts
p1687
g592
ssg81
(dp1688
sg83
(dp1689
Vcom.android.notepad
p1690
g197
sg1389
g234
sVcom.android.soundrecorder
p1691
g245
sg1189
g273
sVcom.android.deskclock
p1692
g323
sVcom.UCMobile
p1693
g355
sVcom.android.launcher
p1694
g483
sg633
g517
sg864
g526
sVcom.sina.weibo
p1695
g546
sVcom.android.contacts
p1696
g603
sg1282
g636
sVcom.zhihu.android
p1697
g399
sg1287
g678
sVcom.android.gallery3d
p1698
g756
sg1294
g215
sg528
g787
sg1298
g810
sVcom.android.phone
p1699
g839
sVcom.tencent.mm
p1700
g1302
sg894
g1041
sg89
g987
sVcom.android.calculator
p1701
g1019
sVcom.huawei.appmarket
p1702
g1412
sVcom.example.chinesechess.huawei
p1703
g1050
sg1434
g1070
sVcom.netease.newsreader.activity
p1704
g1112
sVcom.huawei.lcagent
p1705
g1141
sVcom.huawei.health
p1706
g1183
sVcom.huawei.vassistant
p1707
g1236
sg1500
g1260
sg23
g294
sg960
g1337
sg109
g1148
sg131
g1348
sg1564
g1364
sg65
g765
sg818
g956
sg500
g1424
ssg85
(dp1708
g930
g156
sg49
g641
sVcom.handsgo.jiakao.android
p1709
g238
sg105
g1120
sVcom.UCMobile
p1710
g357
sg35
g419
sVcom.android.launcher
p1711
g490
sg945
g613
sVcom.aquila.bible
p1712
g663
sg59
g697
sg157
g712
sg950
g727
sg508
g792
sg1699
g819
sVcom.tencent.mobileqq
p1713
g925
sVcom.netease.cloudmusic
p1714
g1000
sg91
g1011
sVcom.zms.android
p1715
g1037
sg366
g1116
sVcom.dongqiudi.news
p1716
g275
sVcom.huawei.lcagent
p1717
g1143
sg753
g1186
sg121
g1240
sVcom.android.calendar
p1718
g1258
sVcom.tencent.mm
p1719
g1323
sg1099
g1162
sg129
g1342
sVcom.baidu.tieba
p1720
g1375
sg1108
g1414
sVcom.android.camera
p1721
g1441
ssg87
(dp1722
Vcom.tencent.mobileqq
p1723
g850
sVcom.android.launcher
p1724
g466
ssg89
(dp1725
Vcom.aquila.bible
p1726
g659
sVcom.tencent.mm
p1727
g1303
sVcom.android.gallery3d
p1728
g723
sVcom.dongqiudi.news
p1729
g277
sVcom.UCMobile
p1730
g359
sVcom.netease.newsreader.activity
p1731
g1088
sg1495
g468
sVcom.android.settings
p1732
g958
sVcom.android.camera
p1733
g1422
sVcom.android.mediacenter
p1734
g524
sVcom.tencent.mobileqq
p1735
g893
ssg91
(dp1736
Vcom.android.settings
p1737
g959
sVcom.android.launcher
p1738
g469
sVcom.android.thememanager
p1739
g1118
ssg93
(dp1740
g434
g361
sVcom.tencent.mm
p1741
g1307
sg1025
g595
sg575
g470
ssg95
(dp1742
g327
g170
sVcom.netease.cloudmusic
p1743
g985
sVcom.tencent.mm
p1744
g1308
sg391
g716
sg1728
g731
sg1465
g354
sg1636
g471
sVcom.tencent.mobileqq
p1745
g895
ssg97
(dp1746
Vcom.huawei.appmarket
p1747
g1408
ssg99
(dp1748
Vcom.huawei.android.FMRadio
p1749
g177
sg381
g695
sg561
g1309
sg43
g540
sVcom.android.deskclock
p1750
g309
sg1627
g350
sVcom.android.launcher
p1751
g472
sVcom.tencent.mobileqq
p1752
g904
sVcom.android.contacts
p1753
g586
ssg101
(dp1754
Vcom.android.launcher
p1755
g473
sg766
g725
sg1349
g213
sg492
g1351
sg1647
g771
sg656
g200
sg143
g1435
sVcom.tencent.mobileqq
p1756
g906
ssg103
(dp1757
g1703
g1058
sg119
g1232
sVcom.netease.cloudmusic
p1758
g996
sg755
g908
sg1590
g553
sVcom.android.gallery3d
p1759
g733
sg1568
g672
sVcom.dongqiudi.news
p1760
g279
sVcom.UCMobile
p1761
g367
sg618
g1382
sVcom.android.launcher
p1762
g475
sVcom.huawei.appmarket
p1763
g1409
sVcom.tencent.mm
p1764
g1310
sVcom.android.contacts
p1765
g597
ssg105
(dp1766
g930
g162
sg1710
g369
sg129
g1344
sg696
g934
sg1012
g735
sg59
g698
sg701
g476
sg703
g1391
sg1721
g1437
sg1719
g1271
sVcom.android.contacts
p1767
g570
sVcom.tencent.mobileqq
p1768
g910
ssg107
(dp1769
Vcom.example.chinesechess.huawei
p1770
g1047
sVcom.android.settings
p1771
g964
sg1677
g719
sVcom.taobao.taobao
p1772
g223
sVcom.UCMobile
p1773
g371
sVcom.snda.wifilocating
p1774
g414
sVcom.dongqiudi.news
p1775
g281
sVcom.android.launcher
p1776
g478
sg746
g817
sVcom.tencent.mm
p1777
g1313
sVcom.huawei.health
p1778
g1178
ssg109
(dp1779
g1161
g971
sVcom.UCMobile
p1780
g380
sVcom.netease.newsreader.activity
p1781
g1100
sVcom.android.launcher
p1782
g479
sg1155
g825
sVcom.tencent.mm
p1783
g1324
sVcom.android.contacts
p1784
g615
sVcom.tencent.mobileqq
p1785
g858
ssg111
(dp1786
sg113
(dp1787
Vcom.huawei.android.totemweather
p1788
g306
sg1534
g1064
sVcom.android.launcher
p1789
g480
sg685
g708
sg1182
g912
sg689
g1411
sg950
g754
sVcom.aquila.bible
p1790
g668
sVcom.dongqiudi.news
p1791
g283
sVcom.android.contacts
p1792
g601
sVcom.UCMobile
p1793
g372
sg1645
g1128
sg13
g208
sVcom.android.settings
p1794
g965
sg943
g519
sg1480
g1316
sg889
g841
ssg115
(dp1795
Vcom.android.contacts
p1796
g571
sVcom.android.launcher
p1797
g482
ssg117
(dp1798
Vcom.huawei.hwid
p1799
g693
sVcom.UCMobile
p1800
g374
sVcom.android.launcher
p1801
g484
sVcom.huawei.appmarket
p1802
g1413
sVcom.tencent.mm
p1803
g1317
sVcom.android.contacts
p1804
g605
ssg119
(dp1805
Vcom.android.calculator
p1806
g1017
sVcom.dongqiudi.news
p1807
g285
sVcom.netease.newsreader.activity
p1808
g1086
sVcom.android.launcher
p1809
g486
sg1227
g1319
sVcom.android.contacts
p1810
g607
ssg121
(dp1811
g1633
g154
sg1634
g966
sg157
g713
sg1243
g488
sVcom.tencent.mm
p1812
g1320
sg1241
g609
ssg123
(dp1813
g1259
g914
sVcom.android.deskclock
p1814
g311
sVcom.UCMobile
p1815
g330
sVcom.android.launcher
p1816
g489
sVcom.tencent.mm
p1817
g1267
sVcom.huawei.health
p1818
g1181
ssg125
(dp1819
g327
g172
sg37
g464
sVcom.handsgo.jiakao.android
p1820
g232
sVcom.dongqiudi.news
p1821
g287
sVcom.huawei.android.totemweather
p1822
g304
sVcom.android.deskclock
p1823
g313
sg27
g378
sVcom.snda.wifilocating
p1824
g416
sg1196
g206
sg39
g510
sVcom.android.mediacenter
p1825
g536
sg43
g562
sg1113
g594
sg1282
g630
sg347
g643
sg51
g650
sg194
g661
sg878
g1450
sg198
g752
sVcom.taobao.taobao
p1826
g227
sg69
g783
sVcom.huawei.hidisk
p1827
g797
sVcom.sirma.mobile.bible.android
p1828
g806
sg169
g1029
sg83
g891
sg1471
g1006
sg1304
g403
sg1306
g1024
sg1155
g821
sg539
g1062
sg101
g1080
sVcom.netease.newsreader.activity
p1829
g1092
sg1560
g1131
sg207
g1202
sVcom.baidu.input_huawei
p1830
g1362
sg117
g1217
sg1563
g1228
sg1490
g1250
sg1771
g969
sg109
g1158
sg1565
g1356
sg1326
g706
sVcom.lofter.android
p1831
g775
sg1329
g1387
sVcom.huawei.appmarket
p1832
g1407
sVcom.android.camera
p1833
g1443
ssg127
(dp1834
g872
g397
sVcom.tencent.mm
p1835
g1296
sVcom.eg.android.AlipayGphone
p1836
g628
sVcom.android.launcher
p1837
g459
sVcom.android.settings
p1838
g961
ssg129
(dp1839
g1119
g967
sg1124
g491
ssg131
(dp1840
g1355
g1325
sVcom.taobao.taobao
p1841
g217
sVcom.android.fileexplorer
p1842
g1075
sVcom.android.launcher
p1843
g493
sg1702
g1415
sg143
g1432
sg1756
g918
ssg133
(dp1844
Vcom.sina.weibo
p1845
g547
sVcom.tencent.mm
p1846
g1315
sVcom.baidu.tieba
p1847
g1385
sVcom.android.launcher
p1848
g494
ssg135
(dp1849
Vcom.MobileTicket
p1850
g1215
sVcom.sina.weibo
p1851
g544
sVcom.tencent.mm
p1852
g1321
sVcom.UCMobile
p1853
g376
sVcom.android.launcher
p1854
g428
sVcom.tencent.mobileqq
p1855
g917
sVcom.android.contacts
p1856
g611
ssg137
(dp1857
Vcom.zhihu.android
p1858
g401
sVcom.huawei.android.FMRadio
p1859
g183
sVcom.tencent.mm
p1860
g1328
sVcom.android.launcher
p1861
g496
ssg139
(dp1862
Vcom.android.settings
p1863
g973
sg1376
g555
sg352
g743
sg1379
g386
sg1383
g498
sVcom.tencent.mm
p1864
g1330
sVcom.android.contacts
p1865
g619
sVcom.tencent.mobileqq
p1866
g923
ssg141
(dp1867
g51
g654
sg242
g674
sg876
g690
sg1758
g989
sVcom.UCMobile
p1868
g388
sg1406
g1332
sg343
g559
sg730
g1031
sVcom.android.thememanager
p1869
g1127
sVcom.android.contacts
p1870
g621
sg1392
g321
sg59
g704
sg103
g1109
sg1672
g289
sVcom.android.launcher
p1871
g499
sg889
g835
sg1628
g1171
sg1182
g902
sg1706
g1198
sg1539
g975
ssg143
(dp1872
Vcom.huawei.android.FMRadio
p1873
g187
sVcom.android.notepad
p1874
g204
sVcom.netease.cloudmusic
p1875
g1002
sg1842
g1079
sVcom.tencent.mobileqq
p1876
g926
sVcom.android.gallery3d
p1877
g750
sVcom.dongqiudi.news
p1878
g291
sVcom.liulishuo.engzo
p1879
g1354
sVcom.UCMobile
p1880
g390
sg1841
g225
sVcom.android.launcher
p1881
g501
sVcom.android.phone
p1882
g837
sVcom.tencent.mm
p1883
g1333
sg1651
g1201
ssg145
(dp1884
Vcom.UCMobile
p1885
g351
sVcom.tencent.mm
p1886
g1290
sVcom.tencent.mobileqq
p1887
g879
sVcom.android.launcher
p1888
g454
sssb.