ccopy_reg
_reconstructor
p1
(cnetworkx.classes.digraph
DiGraph
p2
c__builtin__
object
p3
NtRp4
(dp5
S'node'
p6
(dp7
Vcom.google.android.gm
p8
(dp9
S'weight'
p10
F5.2492253455696275e-07
ssVcom.eg.android.AlipayGphone
p11
(dp12
g10
F0.0062722993654211476
ssVcom.android.rk
p13
(dp14
g10
F0.00013962939419215209
ssVcom.android.vending
p15
(dp16
g10
F5.2492253455696275e-07
ssVcom.tencent.mobileqq
p17
(dp18
g10
F0.0033957238760489923
ssVcom.android.packageinstaller
p19
(dp20
g10
F5.7741478801265903e-06
ssVcom.android.gallery3d
p21
(dp22
g10
F0.00098842913257076088
ssVcom.qihoo.cleandroid_cn
p23
(dp24
g10
F1.9947056313164585e-05
ssVcom.qihoo360.mobilesafe
p25
(dp26
g10
F4.199380276455702e-05
ssVcom.iflytek.inputmethod
p27
(dp28
g10
F5.2492253455696275e-07
ssVcom.chaozh.iReaderFree
p29
(dp30
g10
F3.9369190091772207e-05
ssVcom.android.launcher
p31
(dp32
g10
F0.7698603128643291
ssVcom.android.settings
p33
(dp34
g10
F0.0062329301753293754
ssVcom.android.quicksearchbox
p35
(dp36
g10
F6.2990704146835531e-06
ssVcom.android.music
p37
(dp38
g10
F0.00013018078857012676
ssVcom.tencent.mm
p39
(dp40
g10
F0.10207538622487787
ssVcom.android.contacts
p41
(dp42
g10
F6.2990704146835531e-06
ssVcom.google.android.gsf.login
p43
(dp44
g10
F3.6744577418987393e-06
ssVcom.qihoo.expressbrowser
p45
(dp46
g10
F0.11078017661543597
sssS'graph'
p47
(dp48
sS'succ'
p49
(dp50
g8
(dp51
g29
(dp52
g10
F0.69999999999999996
ssVcom.android.launcher
p53
(dp54
g10
F1.3
ssVcom.google.android.gsf.login
p55
(dp56
g10
I1
sssg11
(dp57
Vcom.tencent.mm
p58
(dp59
g10
F0.90000000000000002
ssVcom.qihoo.expressbrowser
p60
(dp61
g10
F2.6000000000000001
ssVcom.android.launcher
p62
(dp63
g10
F2.8999999999999999
sssg13
(dp64
Vcom.qihoo.expressbrowser
p65
(dp66
g10
F0.90000000000000002
ssVcom.android.settings
p67
(dp68
g10
F1.7
ssg19
(dp69
g10
F1.3
ssg21
(dp70
g10
F4
ssVcom.android.launcher
p71
(dp72
g10
F7.1000000000000005
ssVcom.tencent.mobileqq
p73
(dp74
g10
F0.90000000000000002
sssg15
(dp75
Vcom.android.launcher
p76
(dp77
g10
F0.90000000000000002
ssg43
(dp78
g10
I1
sssg17
(dp79
g13
(dp80
g10
F0.90000000000000002
ssVcom.android.settings
p81
(dp82
g10
F0.69999999999999996
ssg31
(dp83
g10
F14.4
ssg35
(dp84
g10
F0.90000000000000002
ssg39
(dp85
g10
F2.7999999999999998
ssVcom.qihoo.expressbrowser
p86
(dp87
g10
F1.8999999999999999
sssg19
(dp88
sg21
(dp89
g8
(dp90
g10
F1.3
ssVcom.android.rk
p91
(dp92
g10
F4
ssVcom.qihoo360.mobilesafe
p93
(dp94
g10
F1.7
ssVcom.android.launcher
p95
(dp96
g10
F11.9
ssg55
(dp97
g10
F0.69999999999999996
ssVcom.qihoo.expressbrowser
p98
(dp99
g10
F0.90000000000000002
sssg23
(dp100
Vcom.android.launcher
p101
(dp102
g10
I1
sssg25
(dp103
g8
(dp104
g10
F0.69999999999999996
ssVcom.qihoo.expressbrowser
p105
(dp106
g10
F2.7000000000000002
ssg37
(dp107
g10
F0.40000000000000002
ssVcom.android.gallery3d
p108
(dp109
g10
I1
ssVcom.android.launcher
p110
(dp111
g10
F5.5999999999999996
ssVcom.tencent.mm
p112
(dp113
g10
I1
ssg55
(dp114
g10
F0.40000000000000002
sssg27
(dp115
sg29
(dp116
Vcom.android.gallery3d
p117
(dp118
g10
F0.90000000000000002
ssVcom.android.launcher
p119
(dp120
g10
F1.7
sssg31
(dp121
g8
(dp122
g10
I1
ssg13
(dp123
g10
F9.5
ssg15
(dp124
g10
F1.7
ssg73
(dp125
g10
F15.199999999999999
ssg19
(dp126
g10
F0.69999999999999996
ssg21
(dp127
g10
F13.899999999999999
ssg25
(dp128
g10
F4.2999999999999998
ssg29
(dp129
g10
F1.3999999999999999
ssg81
(dp130
g10
F5
ssg35
(dp131
g10
I1
ssg37
(dp132
g10
F1.7
ssg39
(dp133
g10
F74.500000000000014
ssg41
(dp134
g10
F0.90000000000000002
ssg43
(dp135
g10
F2.2000000000000002
ssg45
(dp136
g10
F125.70000000000007
sssg33
(dp137
Vcom.android.rk
p138
(dp139
g10
F1.7000000000000002
ssg19
(dp140
g10
I1
ssg21
(dp141
g10
F0.69999999999999996
ssVcom.android.launcher
p142
(dp143
g10
F4.5999999999999996
ssVcom.tencent.mm
p144
(dp145
g10
I1
ssVcom.qihoo.expressbrowser
p146
(dp147
g10
F0.90000000000000002
sssg35
(dp148
sg37
(dp149
Vcom.android.settings
p150
(dp151
g10
F0.40000000000000002
ssVcom.qihoo.expressbrowser
p152
(dp153
g10
F1.8999999999999999
ssVcom.android.launcher
p154
(dp155
g10
F1.7
sssg39
(dp156
g45
(dp157
g10
F13.300000000000002
ssg33
(dp158
g10
I1
ssg25
(dp159
g10
F1.8
ssVcom.android.launcher
p160
(dp161
g10
F74.200000000000017
ssVcom.tencent.mobileqq
p162
(dp163
g10
F10.6
ssg41
(dp164
g10
F0.69999999999999996
sssg41
(dp165
Vcom.qihoo.expressbrowser
p166
(dp167
g10
I1
sssg43
(dp168
g117
(dp169
g10
F0.40000000000000002
ssg29
(dp170
g10
F0.90000000000000002
ssg76
(dp171
g10
F2.7000000000000002
sssg45
(dp172
g138
(dp173
g10
F1.3
ssg15
(dp174
g10
F0.90000000000000002
ssVcom.tencent.mm
p175
(dp176
g10
F11.500000000000004
ssg37
(dp177
g10
F2.8999999999999999
ssVcom.android.gallery3d
p178
(dp179
g10
F2.2000000000000002
ssg27
(dp180
g10
I1
ssVcom.android.launcher
p181
(dp182
g10
F123.40000000000006
ssg81
(dp183
g10
F2.2000000000000002
ssVcom.tencent.mobileqq
p184
(dp185
g10
F1.3999999999999999
ssg41
(dp186
g10
I3
ssg43
(dp187
g10
F0.69999999999999996
ssssS'edge'
p188
g50
sS'pred'
p189
(dp190
g8
(dp191
Vcom.android.gallery3d
p192
g90
sVcom.android.launcher
p193
g122
sg93
g104
ssg11
(dp194
sg13
(dp195
g81
g139
sg21
g92
sg17
g80
sg86
g173
sg31
g123
ssg15
(dp196
Vcom.qihoo.expressbrowser
p197
g174
sVcom.android.launcher
p198
g124
ssg17
(dp199
Vcom.tencent.mm
p200
g163
sg13
g74
sg31
g125
sVcom.qihoo.expressbrowser
p201
g185
ssg19
(dp202
g67
g140
sVcom.android.rk
p203
g69
sVcom.android.launcher
p204
g126
ssg21
(dp205
g138
g70
sg81
g141
sg93
g109
sg29
g118
sVcom.android.launcher
p206
g127
sg55
g169
sVcom.qihoo.expressbrowser
p207
g179
ssg23
(dp208
sg25
(dp209
Vcom.android.gallery3d
p210
g94
sVcom.tencent.mm
p211
g159
sVcom.android.launcher
p212
g128
ssg27
(dp213
Vcom.qihoo.expressbrowser
p214
g180
ssg29
(dp215
g8
g52
sg55
g170
sg193
g129
ssg31
(dp216
g8
g54
sg11
g63
sg13
g72
sg15
g77
sg33
g143
sVcom.qihoo.expressbrowser
p217
g182
sg21
g96
sg23
g102
sg25
g111
sg29
g120
sVcom.tencent.mm
p218
g161
sg37
g155
sg43
g171
sg17
g83
ssg33
(dp219
Vcom.qihoo.expressbrowser
p220
g183
sVcom.tencent.mm
p221
g158
sg37
g151
sg206
g130
sVcom.tencent.mobileqq
p222
g82
sg203
g68
ssg35
(dp223
Vcom.tencent.mobileqq
p224
g84
sVcom.android.launcher
p225
g131
ssg37
(dp226
Vcom.android.launcher
p227
g132
sVcom.qihoo360.mobilesafe
p228
g107
sVcom.qihoo.expressbrowser
p229
g177
ssg39
(dp230
Vcom.qihoo.expressbrowser
p231
g176
sg33
g145
sVcom.qihoo360.mobilesafe
p232
g113
sVcom.android.launcher
p233
g133
sVcom.tencent.mobileqq
p234
g85
sg11
g59
ssg41
(dp235
Vcom.tencent.mm
p236
g164
sVcom.qihoo.expressbrowser
p237
g186
sVcom.android.launcher
p238
g134
ssg43
(dp239
g8
g56
sg197
g187
sg15
g78
sg108
g97
sg93
g114
sg198
g135
ssg45
(dp240
Vcom.android.rk
p241
g66
sVcom.tencent.mm
p242
g157
sg37
g153
sVcom.android.gallery3d
p243
g99
sg25
g106
sVcom.android.launcher
p244
g136
sVcom.android.settings
p245
g147
sg222
g87
sVcom.android.contacts
p246
g167
sg11
g61
sssS'adj'
p247
g50
sb.