ccopy_reg
_reconstructor
p1
(cnetworkx.classes.digraph
DiGraph
p2
c__builtin__
object
p3
NtRp4
(dp5
S'node'
p6
(dp7
Vcom.google.android.gm
p8
(dp9
S'weight'
p10
F2.2808866262493555e-06
ssVcom.eg.android.AlipayGphone
p11
(dp12
g10
F0.02725431429705355
ssVcom.android.rk
p13
(dp14
g10
F0.00060671584258232864
ssVcom.android.vending
p15
(dp16
g10
F2.2808866262493555e-06
ssVcom.tencent.mobileqq
p17
(dp18
g10
F0.014755055585207082
ssVcom.android.packageinstaller
p19
(dp20
g10
F2.5089752888742913e-05
ssVcom.android.gallery3d
p21
(dp22
g10
F0.0042949095172275364
ssVcom.qihoo.cleandroid_cn
p23
(dp24
g10
F8.6673691797475508e-05
ssVcom.qihoo360.mobilesafe
p25
(dp26
g10
F0.00018247093009994845
ssVcom.iflytek.inputmethod
p27
(dp28
g10
F2.2808866262493555e-06
ssVcom.chaozh.iReaderFree
p29
(dp30
g10
F0.00017106649696870167
ssVcom.android.settings
p31
(dp32
g10
F0.02708324780008485
ssVcom.android.quicksearchbox
p33
(dp34
g10
F2.7370639514992266e-05
ssVcom.android.music
p35
(dp36
g10
F0.00056565988330984024
ssVcom.tencent.mm
p37
(dp38
g10
F0.44353665156719718
ssVcom.android.contacts
p39
(dp40
g10
F2.7370639514992266e-05
ssVcom.google.android.gsf.login
p41
(dp42
g10
F1.5966206383745491e-05
ssVcom.qihoo.expressbrowser
p43
(dp44
g10
F0.48136059449029028
sssS'node_dict_factory'
p45
c__builtin__
dict
p46
sS'edge_attr_dict_factory'
p47
g46
sS'succ'
p48
(dp49
g8
(dp50
Vcom.android.gallery3d
p51
(dp52
g10
F0.69999999999999996
ssg29
(dp53
g10
F0.90000000000000002
ssVcom.google.android.gsf.login
p54
(dp55
g10
I1
sssg11
(dp56
Vcom.qihoo.expressbrowser
p57
(dp58
g10
I2
sssg13
(dp59
Vcom.qihoo.expressbrowser
p60
(dp61
g10
I1
ssVcom.tencent.mobileqq
p62
(dp63
g10
I2
ssg19
(dp64
g10
F1.6000000000000001
ssg21
(dp65
g10
F4.4000000000000004
ssVcom.android.settings
p66
(dp67
g10
F2.2999999999999998
ssg37
(dp68
g10
F0.90000000000000002
sssg15
(dp69
g41
(dp70
g10
I1
sssg17
(dp71
g13
(dp72
g10
F1.7
ssVcom.android.settings
p73
(dp74
g10
F0.90000000000000002
ssg21
(dp75
g10
F0.40000000000000002
ssg33
(dp76
g10
I1
ssg37
(dp77
g10
I4
ssVcom.qihoo.expressbrowser
p78
(dp79
g10
I1
sssg19
(dp80
sg21
(dp81
g8
(dp82
g10
F2.1000000000000001
ssVcom.android.rk
p83
(dp84
g10
F5.7000000000000011
ssg66
(dp85
g10
F0.69999999999999996
ssg19
(dp86
g10
F0.40000000000000002
ssVcom.qihoo360.mobilesafe
p87
(dp88
g10
F3
ssg29
(dp89
g10
F0.69999999999999996
ssg54
(dp90
g10
F1.3
ssVcom.qihoo.expressbrowser
p91
(dp92
g10
I1
sssg23
(dp93
sg25
(dp94
g8
(dp95
g10
F0.90000000000000002
ssVcom.qihoo.expressbrowser
p96
(dp97
g10
F3.7000000000000002
ssVcom.android.settings
p98
(dp99
g10
F0.40000000000000002
ssg35
(dp100
g10
F0.90000000000000002
ssVcom.android.gallery3d
p101
(dp102
g10
I1
ssg54
(dp103
g10
F0.69999999999999996
ssVcom.tencent.mm
p104
(dp105
g10
I2
ssg29
(dp106
g10
F0.40000000000000002
sssg27
(dp107
sg29
(dp108
g51
(dp109
g10
I1
sssg31
(dp110
g21
(dp111
g10
F1.3
ssg19
(dp112
g10
I1
ssVcom.tencent.mm
p113
(dp114
g10
I1
ssVcom.android.rk
p115
(dp116
g10
F2.6000000000000001
ssVcom.qihoo.expressbrowser
p117
(dp118
g10
F1.7
sssg33
(dp119
sg35
(dp120
g98
(dp121
g10
F0.90000000000000002
ssVcom.qihoo.expressbrowser
p122
(dp123
g10
I2
sssg37
(dp124
g43
(dp125
g10
F30.999999999999996
ssg31
(dp126
g10
F2.8999999999999999
ssg23
(dp127
g10
I1
ssg25
(dp128
g10
I3
ssVcom.tencent.mobileqq
p129
(dp130
g10
F17.199999999999999
ssg39
(dp131
g10
F0.90000000000000002
sssg39
(dp132
Vcom.qihoo.expressbrowser
p133
(dp134
g10
I1
sssg41
(dp135
g51
(dp136
g10
F0.90000000000000002
ssg29
(dp137
g10
I1
sssg43
(dp138
g115
(dp139
g10
F2.7000000000000002
ssg15
(dp140
g10
I1
ssVcom.tencent.mm
p141
(dp142
g10
F24.699999999999999
ssg35
(dp143
g10
I3
ssg21
(dp144
g10
F4.6999999999999993
ssg27
(dp145
g10
I1
ssg11
(dp146
g10
I2
ssg73
(dp147
g10
F3.3999999999999999
ssVcom.tencent.mobileqq
p148
(dp149
g10
F2.7999999999999998
ssg39
(dp150
g10
F3.8999999999999999
ssg41
(dp151
g10
F0.90000000000000002
ssssS'edge'
p152
g49
sS'graph'
p153
(dp154
sS'adjlist_dict_factory'
p155
g46
sS'adj'
p156
g49
sS'pred'
p157
(dp158
g8
(dp159
Vcom.android.gallery3d
p160
g82
sg87
g95
ssg11
(dp161
Vcom.qihoo.expressbrowser
p162
g146
ssg13
(dp163
g73
g116
sg21
g84
sg17
g72
sVcom.qihoo.expressbrowser
p164
g139
ssg15
(dp165
Vcom.qihoo.expressbrowser
p166
g140
ssg17
(dp167
Vcom.tencent.mm
p168
g130
sg13
g63
sVcom.qihoo.expressbrowser
p169
g149
ssg19
(dp170
g66
g112
sVcom.android.gallery3d
p171
g86
sVcom.android.rk
p172
g64
ssg21
(dp173
g8
g52
sg78
g144
sg73
g111
sg87
g102
sg29
g109
sVcom.tencent.mobileqq
p174
g75
sg54
g136
sg115
g65
ssg23
(dp175
Vcom.tencent.mm
p176
g127
ssg25
(dp177
Vcom.android.gallery3d
p178
g88
sVcom.tencent.mm
p179
g128
ssg27
(dp180
Vcom.qihoo.expressbrowser
p181
g145
ssg29
(dp182
g8
g53
sg101
g89
sg54
g137
sg87
g106
ssg31
(dp183
g164
g147
sVcom.tencent.mm
p184
g126
sg35
g121
sg171
g85
sVcom.qihoo360.mobilesafe
p185
g99
sg174
g74
sVcom.android.rk
p186
g67
ssg33
(dp187
Vcom.tencent.mobileqq
p188
g76
ssg35
(dp189
Vcom.qihoo.expressbrowser
p190
g143
sg185
g100
ssg37
(dp191
g31
g114
sVcom.tencent.mobileqq
p192
g77
sVcom.android.rk
p193
g68
sVcom.qihoo360.mobilesafe
p194
g105
sVcom.qihoo.expressbrowser
p195
g142
ssg39
(dp196
Vcom.tencent.mm
p197
g131
sVcom.qihoo.expressbrowser
p198
g150
ssg41
(dp199
g8
g55
sg87
g103
sVcom.android.gallery3d
p200
g90
sg166
g151
sg15
g70
ssg43
(dp201
Vcom.android.rk
p202
g61
sVcom.tencent.mm
p203
g125
sg35
g123
sVcom.android.gallery3d
p204
g92
sg25
g97
sVcom.android.settings
p205
g118
sg174
g79
sVcom.android.contacts
p206
g134
sVcom.eg.android.AlipayGphone
p207
g58
sssb.