ccopy_reg
_reconstructor
p1
(cnetworkx.classes.digraph
DiGraph
p2
c__builtin__
object
p3
NtRp4
(dp5
S'node'
p6
(dp7
Vcom.sankuai.meituan
p8
(dp9
S'weight'
p10
F0.00037860861334595362
ssVcom.autonavi.minimap
p11
(dp12
g10
F0.0037545354156807067
ssVcom.android.deskclock
p13
(dp14
g10
F0.0028395646000946521
ssVcom.UCMobile
p15
(dp16
g10
F0.040416469474680548
ssVcom.smile.gifmaker
p17
(dp18
g10
F0.10055213756112952
ssVcom.netease.mobimail
p19
(dp20
g10
F0.0099700268181101125
ssVcom.sina.weibo
p21
(dp22
g10
F0.11374033759268024
ssVcom.android.contacts
p23
(dp24
g10
F0.0077614765735920495
ssVcom.eg.android.AlipayGphone
p25
(dp26
g10
F0.01012778040700426
ssVcom.qihoo.appstore
p27
(dp28
g10
F0.00031550717778829469
ssVcn.wps.moffice_eng
p29
(dp30
g10
F0.0053320713046221798
ssVcom.android.packageinstaller
p31
(dp32
g10
F0.0008834200978072251
ssVcom.moji.mjweather
p33
(dp34
g10
F0.00028395646000946523
ssVcom.android.gallery3d
p35
(dp36
g10
F0.0025871588578640164
ssVcom.dajie.official
p37
(dp38
g10
F0.0055213756112951571
ssVcom.qihoo360.mobilesafe
p39
(dp40
g10
F0.0029657674712099701
ssVcom.huawei.hidisk
p41
(dp42
g10
F0.0045117526423726143
ssVcom.nowcoder.app.florida
p43
(dp44
g10
F0.00075721722669190724
ssVcom.android.systemui
p45
(dp46
g10
F0.00022085502445180627
ssVcom.android.htmlviewer
p47
(dp48
g10
F0.00082031866224956617
ssVcom.alibaba.android.rimet
p49
(dp50
g10
F0.0055213756112951571
ssVcom.tencent.mobileqq
p51
(dp52
g10
F0.11913551033286007
ssVcom.duomi.android
p53
(dp54
g10
F0.0020192459378450861
ssVcom.android.calculator2
p55
(dp56
g10
F0.0016406373244991323
ssVcom.tencent.androidqqmail
p57
(dp58
g10
F0.00091497081558605461
ssVcom.android.phone
p59
(dp60
g10
F0.029783877583215018
ssVcom.huawei.android.launcher
p61
(dp62
g10
F0.074554346111374029
ssVcom.chaozh.iReaderFree15
p63
(dp64
g10
F0.0061523899668717462
ssVcom.stormreader.ebook.daomubiji
p65
(dp66
g10
F0.092948414576431618
ssVcom.sohu.newsclient
p67
(dp68
g10
F0.087837198296261243
ssVcom.baidu.input_huawei
p69
(dp70
g10
F0.00015775358889414735
ssVcom.tencent.mm
p71
(dp72
g10
F0.2266603565231109
ssVcom.android.mms
p73
(dp74
g10
F0.026250197191986117
ssVcom.abcxyzebook.reader.renxingderuodian
p75
(dp76
g10
F0.011642214860388073
ssVcom.snda.youni
p77
(dp78
g10
F0.0010411736867013725
sssS'graph'
p79
(dp80
sS'succ'
p81
(dp82
g8
(dp83
Vcom.huawei.android.launcher
p84
(dp85
g10
F1.7
ssVcom.android.contacts
p86
(dp87
g10
F1.3
sssg11
(dp88
Vcom.tencent.mm
p89
(dp90
g10
F0.90000000000000002
ssVcom.huawei.android.launcher
p91
(dp92
g10
F1.7
ssVcom.smile.gifmaker
p93
(dp94
g10
I1
ssVcom.tencent.mobileqq
p95
(dp96
g10
F0.40000000000000002
sssg13
(dp97
Vcom.sohu.newsclient
p98
(dp99
g10
I1
sssg15
(dp100
Vcom.abcxyzebook.reader.renxingderuodian
p101
(dp102
g10
F0.90000000000000002
ssVcom.huawei.android.launcher
p103
(dp104
g10
I1
ssVcom.tencent.mm
p105
(dp106
g10
I1
sssg17
(dp107
Vcom.autonavi.minimap
p108
(dp109
g10
I1
ssVcom.huawei.android.launcher
p110
(dp111
g10
I1
sssg19
(dp112
g65
(dp113
g10
F0.80000000000000004
ssg29
(dp114
g10
I1
ssVcom.tencent.androidqqmail
p115
(dp116
g10
F0.40000000000000002
ssVcom.tencent.mm
p117
(dp118
g10
F1.3
ssVcom.sina.weibo
p119
(dp120
g10
F0.90000000000000002
ssVcom.huawei.android.launcher
p121
(dp122
g10
F10.5
ssVcom.chaozh.iReaderFree15
p123
(dp124
g10
F0.90000000000000002
ssVcom.tencent.mobileqq
p125
(dp126
g10
F1.3
ssVcom.sohu.newsclient
p127
(dp128
g10
F0.90000000000000002
sssg21
(dp129
Vcom.tencent.mobileqq
p130
(dp131
g10
F1.3
ssVcom.tencent.mm
p132
(dp133
g10
F0.40000000000000002
ssVcom.huawei.android.launcher
p134
(dp135
g10
F8.0999999999999996
ssVcom.sohu.newsclient
p136
(dp137
g10
F0.90000000000000002
ssg115
(dp138
g10
F0.90000000000000002
sssg23
(dp139
Vcom.android.mms
p140
(dp141
g10
F0.69999999999999996
ssVcom.qihoo360.mobilesafe
p142
(dp143
g10
F1.3
ssVcom.huawei.android.launcher
p144
(dp145
g10
F15.999999999999998
ssVcom.netease.mobimail
p146
(dp147
g10
F1.3
ssg59
(dp148
g10
I1
ssVcom.alibaba.android.rimet
p149
(dp150
g10
F2.6000000000000001
ssVcom.tencent.mobileqq
p151
(dp152
g10
F0.90000000000000002
sssg25
(dp153
g21
(dp154
g10
F0.90000000000000002
ssVcom.huawei.android.launcher
p155
(dp156
g10
F2.7000000000000002
ssVcom.android.contacts
p157
(dp158
g10
F0.90000000000000002
sssg27
(dp159
g33
(dp160
g10
F0.90000000000000002
ssVcom.huawei.android.launcher
p161
(dp162
g10
F1.7
sssg29
(dp163
g117
(dp164
g10
F0.69999999999999996
ssVcom.huawei.android.launcher
p165
(dp166
g10
F0.90000000000000002
ssVcom.netease.mobimail
p167
(dp168
g10
I1
sssg31
(dp169
Vcom.tencent.mobileqq
p170
(dp171
g10
F0.90000000000000002
ssVcom.tencent.mm
p172
(dp173
g10
F1.3
ssVcom.huawei.android.launcher
p174
(dp175
g10
F2.7000000000000002
sssg33
(dp176
Vcom.huawei.android.launcher
p177
(dp178
g10
I1
sssg35
(dp179
Vcom.tencent.mm
p180
(dp181
g10
F0.90000000000000002
ssVcom.huawei.android.launcher
p182
(dp183
g10
F2.7000000000000002
ssVcom.android.mms
p184
(dp185
g10
F1.7000000000000002
ssVcom.qihoo360.mobilesafe
p186
(dp187
g10
F2.0999999999999996
ssVcom.tencent.mobileqq
p188
(dp189
g10
F0.69999999999999996
sssg37
(dp190
Vcom.android.deskclock
p191
(dp192
g10
F0.90000000000000002
ssVcom.tencent.mm
p193
(dp194
g10
F2.2000000000000002
ssg57
(dp195
g10
F0.69999999999999996
ssVcom.huawei.android.launcher
p196
(dp197
g10
F3.3999999999999999
ssVcom.tencent.mobileqq
p198
(dp199
g10
F0.69999999999999996
sssg39
(dp200
Vcom.stormreader.ebook.daomubiji
p201
(dp202
g10
I1
ssVcom.tencent.mobileqq
p203
(dp204
g10
F11.600000000000001
ssg31
(dp205
g10
F0.90000000000000002
ssg35
(dp206
g10
I2
ssVcom.android.mms
p207
(dp208
g10
F6.7000000000000002
ssVcom.duomi.android
p209
(dp210
g10
F0.69999999999999996
ssg41
(dp211
g10
F6.7999999999999998
ssg61
(dp212
g10
F17.100000000000001
ssg63
(dp213
g10
F0.90000000000000002
ssVcom.android.phone
p214
(dp215
g10
I1
ssVcom.snda.youni
p216
(dp217
g10
I1
ssg71
(dp218
g10
F5.3000000000000007
ssVcom.android.contacts
p219
(dp220
g10
F1.8999999999999999
ssg25
(dp221
g10
F1.3999999999999999
sssg41
(dp222
Vcom.tencent.mobileqq
p223
(dp224
g10
F3.4000000000000004
ssVcom.huawei.android.launcher
p225
(dp226
g10
I1
ssg63
(dp227
g10
F1.7
ssVcom.qihoo360.mobilesafe
p228
(dp229
g10
F3.8999999999999999
sssg43
(dp230
g69
(dp231
g10
F0.90000000000000002
ssVcom.tencent.mobileqq
p232
(dp233
g10
F0.40000000000000002
ssVcom.huawei.android.launcher
p234
(dp235
g10
F4.4000000000000004
ssVcom.stormreader.ebook.daomubiji
p236
(dp237
g10
F0.90000000000000002
ssVcom.dajie.official
p238
(dp239
g10
F0.40000000000000002
sssg45
(dp240
Vcom.android.deskclock
p241
(dp242
g10
F0.90000000000000002
ssVcom.huawei.android.launcher
p243
(dp244
g10
I3
sssg47
(dp245
sg49
(dp246
Vcom.huawei.android.launcher
p247
(dp248
g10
F3.7000000000000002
ssVcom.android.contacts
p249
(dp250
g10
F3.5
ssg59
(dp251
g10
F0.69999999999999996
sssg51
(dp252
Vcom.android.gallery3d
p253
(dp254
g10
F1.3
ssg65
(dp255
g10
F0.90000000000000002
ssg127
(dp256
g10
F0.40000000000000002
ssg15
(dp257
g10
F0.90000000000000002
ssg71
(dp258
g10
F12.500000000000002
ssg31
(dp259
g10
I1
ssg57
(dp260
g10
F0.40000000000000002
ssVcom.android.mms
p261
(dp262
g10
F0.40000000000000002
ssVcom.dajie.official
p263
(dp264
g10
I1
ssg39
(dp265
g10
F8.2999999999999989
ssVcom.android.deskclock
p266
(dp267
g10
F0.90000000000000002
ssg41
(dp268
g10
F0.69999999999999996
ssg61
(dp269
g10
F36.099999999999994
ssVcom.netease.mobimail
p270
(dp271
g10
F0.90000000000000002
ssg45
(dp272
g10
F2
ssg21
(dp273
g10
F0.40000000000000002
ssVcom.android.contacts
p274
(dp275
g10
F0.90000000000000002
ssg25
(dp276
g10
F0.90000000000000002
sssg53
(dp277
Vcom.stormreader.ebook.daomubiji
p278
(dp279
g10
F1.8
ssVcom.huawei.android.launcher
p280
(dp281
g10
F2.7000000000000002
ssVcom.chaozh.iReaderFree15
p282
(dp283
g10
F0.40000000000000002
sssg55
(dp284
Vcom.huawei.android.launcher
p285
(dp286
g10
I1
sssg57
(dp287
Vcom.huawei.android.launcher
p288
(dp289
g10
F1.7
ssg77
(dp290
g10
F1.3
ssVcom.tencent.mm
p291
(dp292
g10
F1.8999999999999999
ssVcom.stormreader.ebook.daomubiji
p293
(dp294
g10
F0.40000000000000002
ssVcom.qihoo360.mobilesafe
p295
(dp296
g10
F0.69999999999999996
sssg59
(dp297
g201
(dp298
g10
F0.90000000000000002
ssVcom.qihoo360.mobilesafe
p299
(dp300
g10
I3
ssg209
(dp301
g10
F0.40000000000000002
ssVcom.huawei.android.launcher
p302
(dp303
g10
F5.6000000000000005
ssVcom.smile.gifmaker
p304
(dp305
g10
I1
ssg149
(dp306
g10
F0.69999999999999996
ssVcom.android.contacts
p307
(dp308
g10
F6.3000000000000007
sssg61
(dp309
g8
(dp310
g10
I1
ssg108
(dp311
g10
F0.90000000000000002
ssg13
(dp312
g10
F13.699999999999999
ssg15
(dp313
g10
F1.7
ssg17
(dp314
g10
F4.7000000000000002
ssg19
(dp315
g10
F12.5
ssg21
(dp316
g10
F8.5
ssg23
(dp317
g10
F19.999999999999996
ssg25
(dp318
g10
F3.7999999999999998
ssg27
(dp319
g10
I2
ssg29
(dp320
g10
F1.3
ssg31
(dp321
g10
F1.7
ssg33
(dp322
g10
F1.7
ssg35
(dp323
g10
F3.2999999999999998
ssg37
(dp324
g10
F3.3999999999999999
ssVcom.qihoo360.mobilesafe
p325
(dp326
g10
F22.699999999999999
ssg41
(dp327
g10
F5.2999999999999998
ssg43
(dp328
g10
I1
ssg45
(dp329
g10
F4.7000000000000002
ssg49
(dp330
g10
F3.7000000000000002
ssg223
(dp331
g10
F36
ssg53
(dp332
g10
I2
ssg55
(dp333
g10
F2.7000000000000002
ssg57
(dp334
g10
F2.6000000000000001
ssg59
(dp335
g10
F1.3
ssg63
(dp336
g10
F3.7999999999999998
ssg65
(dp337
g10
F14.399999999999999
ssVcom.sohu.newsclient
p338
(dp339
g10
F7.1000000000000005
ssg69
(dp340
g10
F1.7
ssg71
(dp341
g10
F45.399999999999999
ssg261
(dp342
g10
F10.199999999999999
ssg75
(dp343
g10
F5.4000000000000004
ssg77
(dp344
g10
F0.40000000000000002
sssg63
(dp345
Vcom.stormreader.ebook.daomubiji
p346
(dp347
g10
F0.90000000000000002
ssVcom.qihoo360.mobilesafe
p348
(dp349
g10
F1.3999999999999999
ssVcom.huawei.hidisk
p350
(dp351
g10
F0.90000000000000002
ssVcom.huawei.android.launcher
p352
(dp353
g10
F3.4000000000000004
ssVcom.tencent.mobileqq
p354
(dp355
g10
F0.69999999999999996
ssg55
(dp356
g10
F0.90000000000000002
sssg65
(dp357
g238
(dp358
g10
F0.90000000000000002
ssg191
(dp359
g10
F1.3
ssg243
(dp360
g10
F10.699999999999999
ssg282
(dp361
g10
F0.90000000000000002
ssg45
(dp362
g10
I1
ssVcom.tencent.mobileqq
p363
(dp364
g10
F1.3
ssg209
(dp365
g10
F0.90000000000000002
ssg55
(dp366
g10
F0.40000000000000002
sssg67
(dp367
g13
(dp368
g10
F1.8999999999999999
ssVcom.tencent.mobileqq
p369
(dp370
g10
F0.90000000000000002
ssVcom.tencent.mm
p371
(dp372
g10
F0.40000000000000002
ssVcom.huawei.android.launcher
p373
(dp374
g10
F3.7000000000000002
sssg69
(dp375
g232
(dp376
g10
F0.90000000000000002
ssVcom.huawei.android.launcher
p377
(dp378
g10
F1.7
sssg71
(dp379
g293
(dp380
g10
F0.90000000000000002
ssg123
(dp381
g10
F0.40000000000000002
ssg57
(dp382
g10
I1
ssg73
(dp383
g10
F5.1000000000000005
ssg31
(dp384
g10
F0.40000000000000002
ssg35
(dp385
g10
F0.69999999999999996
ssg37
(dp386
g10
F0.90000000000000002
ssVcom.qihoo360.mobilesafe
p387
(dp388
g10
F7.0000000000000009
ssg241
(dp389
g10
F1.2000000000000002
ssg15
(dp390
g10
F0.40000000000000002
ssVcom.huawei.android.launcher
p391
(dp392
g10
F38.900000000000006
ssVcom.netease.mobimail
p393
(dp394
g10
F3.1000000000000001
ssVcom.android.systemui
p395
(dp396
g10
F1.3
ssg75
(dp397
g10
F2.2000000000000002
ssg77
(dp398
g10
F2.3999999999999999
ssVcom.tencent.mobileqq
p399
(dp400
g10
F11.600000000000003
ssg29
(dp401
g10
F0.69999999999999996
sssg73
(dp402
Vcom.qihoo360.mobilesafe
p403
(dp404
g10
F6.3000000000000007
ssVcom.huawei.android.launcher
p405
(dp406
g10
F12.199999999999999
ssVcom.netease.mobimail
p407
(dp408
g10
F0.40000000000000002
ssVcom.abcxyzebook.reader.renxingderuodian
p409
(dp410
g10
F0.40000000000000002
ssVcom.tencent.mm
p411
(dp412
g10
F5.6000000000000005
ssVcom.android.contacts
p413
(dp414
g10
F1.3
ssVcom.eg.android.AlipayGphone
p415
(dp416
g10
F0.90000000000000002
sssg75
(dp417
Vcom.android.mms
p418
(dp419
g10
F1.3
ssVcom.tencent.mm
p420
(dp421
g10
F1.3
ssVcom.huawei.android.launcher
p422
(dp423
g10
F3.7000000000000002
ssVcom.qihoo360.mobilesafe
p424
(dp425
g10
F0.69999999999999996
sssg77
(dp426
Vcom.huawei.android.launcher
p427
(dp428
g10
F1.7000000000000002
ssVcom.tencent.mm
p429
(dp430
g10
F1.7
ssg295
(dp431
g10
I1
ssVcom.tencent.mobileqq
p432
(dp433
g10
F0.69999999999999996
ssssS'edge'
p434
g82
sS'pred'
p435
(dp436
g8
(dp437
Vcom.huawei.android.launcher
p438
g310
ssg11
(dp439
Vcom.huawei.android.launcher
p440
g311
sVcom.smile.gifmaker
p441
g109
ssg13
(dp442
g236
g359
sg67
g368
sg432
g267
sg238
g192
sg373
g312
sg395
g242
sVcom.tencent.mm
p443
g389
ssg15
(dp444
Vcom.huawei.android.launcher
p445
g313
sVcom.tencent.mm
p446
g390
sVcom.tencent.mobileqq
p447
g257
ssg17
(dp448
g108
g94
sVcom.huawei.android.launcher
p449
g314
sVcom.android.phone
p450
g305
ssg19
(dp451
g29
g168
sg151
g271
sVcom.android.mms
p452
g408
sVcom.huawei.android.launcher
p453
g315
sVcom.tencent.mm
p454
g394
sg23
g147
ssg21
(dp455
Vcom.huawei.android.launcher
p456
g316
sVcom.tencent.mobileqq
p457
g273
sVcom.netease.mobimail
p458
g120
sg25
g154
ssg23
(dp459
g8
g87
sVcom.android.mms
p460
g414
sg299
g220
sVcom.huawei.android.launcher
p461
g317
sg59
g308
sg49
g250
sVcom.tencent.mobileqq
p462
g275
sg415
g158
ssg25
(dp463
g457
g276
sVcom.huawei.android.launcher
p464
g318
sg140
g416
sVcom.qihoo360.mobilesafe
p465
g221
ssg27
(dp466
Vcom.huawei.android.launcher
p467
g319
ssg29
(dp468
Vcom.tencent.mm
p469
g401
sVcom.huawei.android.launcher
p470
g320
sVcom.netease.mobimail
p471
g114
ssg31
(dp472
Vcom.huawei.android.launcher
p473
g321
sVcom.tencent.mm
p474
g384
sVcom.qihoo360.mobilesafe
p475
g205
sVcom.tencent.mobileqq
p476
g259
ssg33
(dp477
Vcom.huawei.android.launcher
p478
g322
sVcom.qihoo.appstore
p479
g160
ssg35
(dp480
Vcom.huawei.android.launcher
p481
g323
sVcom.tencent.mm
p482
g385
sVcom.qihoo360.mobilesafe
p483
g206
sVcom.tencent.mobileqq
p484
g254
ssg37
(dp485
Vcom.tencent.mm
p486
g386
sVcom.nowcoder.app.florida
p487
g239
sVcom.huawei.android.launcher
p488
g324
sg236
g358
sVcom.tencent.mobileqq
p489
g264
ssg39
(dp490
g57
g296
sg51
g265
sg35
g187
sg73
g404
sg41
g229
sg61
g326
sg63
g349
sVcom.android.phone
p491
g300
sg75
g425
sg77
g431
sg71
g388
sVcom.android.contacts
p492
g143
ssg41
(dp493
g61
g327
sg203
g268
sg63
g351
sg39
g211
ssg43
(dp494
Vcom.huawei.android.launcher
p495
g328
ssg45
(dp496
g125
g272
sg443
g396
sVcom.huawei.android.launcher
p497
g329
sg65
g362
ssg47
(dp498
sg49
(dp499
Vcom.huawei.android.launcher
p500
g330
sg249
g150
sg59
g306
ssg51
(dp501
Vcom.stormreader.ebook.daomubiji
p502
g364
sg393
g126
sg69
g376
sVcom.sina.weibo
p503
g131
sg31
g171
sg35
g189
sg37
g199
sg39
g204
sg41
g224
sg43
g233
sg61
g331
sg63
g355
sg11
g96
sg216
g433
sg71
g400
sg274
g152
sg127
g370
ssg53
(dp504
g201
g365
sVcom.huawei.android.launcher
p505
g332
sVcom.qihoo360.mobilesafe
p506
g210
sVcom.android.phone
p507
g301
ssg55
(dp508
Vcom.huawei.android.launcher
p509
g333
sVcom.stormreader.ebook.daomubiji
p510
g366
sg282
g356
ssg57
(dp511
Vcom.tencent.mm
p512
g382
sg263
g195
sVcom.huawei.android.launcher
p513
g334
sg458
g116
sg119
g138
sg489
g260
ssg59
(dp514
g49
g251
sg500
g335
sg249
g148
sVcom.qihoo360.mobilesafe
p515
g215
ssg61
(dp516
g8
g85
sg11
g92
sVcom.UCMobile
p517
g104
sg17
g111
sg19
g122
sg21
g135
sg23
g145
sg25
g156
sg479
g162
sg29
g166
sg31
g175
sg33
g178
sg35
g183
sg37
g197
sg39
g212
sg41
g226
sg43
g235
sg59
g303
sg49
g248
sg71
g392
sg53
g281
sg55
g286
sg115
g289
sg45
g244
sg123
g353
sg65
g360
sg67
g374
sg69
g378
sg51
g269
sg261
g406
sg75
g423
sg77
g428
ssg63
(dp518
g510
g361
sVcom.qihoo360.mobilesafe
p519
g213
sVcom.huawei.hidisk
p520
g227
sVcom.huawei.android.launcher
p521
g336
sg407
g124
sg411
g381
sg209
g283
ssg65
(dp522
g393
g113
sg115
g294
sg132
g380
sg506
g202
sg487
g237
sg497
g337
sg123
g347
sg507
g298
sg125
g255
sg53
g279
ssg67
(dp523
Vcom.android.deskclock
p524
g99
sg151
g256
sVcom.sina.weibo
p525
g137
sVcom.huawei.android.launcher
p526
g339
sg270
g128
ssg69
(dp527
g43
g231
sg495
g340
ssg71
(dp528
g119
g133
sg127
g372
sg57
g292
sg261
g412
sg31
g173
sg35
g181
sg37
g194
sVcom.qihoo360.mobilesafe
p529
g218
sg15
g106
sVcom.huawei.android.launcher
p530
g341
sg471
g118
sg11
g90
sg409
g421
sg77
g430
sVcom.tencent.mobileqq
p531
g258
sg29
g164
ssg73
(dp532
Vcom.tencent.mm
p533
g383
sg253
g185
sg403
g208
sVcom.huawei.android.launcher
p534
g342
sg75
g419
sVcom.tencent.mobileqq
p535
g262
sVcom.android.contacts
p536
g141
ssg75
(dp537
Vcom.huawei.android.launcher
p538
g343
sVcom.tencent.mm
p539
g397
sVcom.android.mms
p540
g410
sg517
g102
ssg77
(dp541
g512
g398
sg513
g344
sg295
g217
sg57
g290
sssS'adj'
p542
g82
sb.