ccopy_reg
_reconstructor
p1
(cnetworkx.classes.digraph
DiGraph
p2
c__builtin__
object
p3
NtRp4
(dp5
S'node'
p6
(dp7
Vcom.android.calendar
p8
(dp9
S'weight'
p10
F0.00021188959001948351
ssVcom.ksider.mobile.android.WebView
p11
(dp12
g10
F0.00014987312464792736
ssVcom.tencent.android.qqdownloader
p13
(dp14
g10
F0.0015038992852602366
ssVcom.xfplay.play
p15
(dp16
g10
F0.0049871574236293069
ssVcom.android.thememanager
p17
(dp18
g10
F0.00020155351245755749
ssVcom.android.deskclock
p19
(dp20
g10
F0.0001292009695240753
ssVcom.UCMobile
p21
(dp22
g10
F0.0076228572019204433
ssVcom.tencent.pb
p23
(dp24
g10
F0.0010801201052212696
ssVcom.android.launcher
p25
(dp26
g10
F0.76437877589833436
ssVcom.storm.smart
p27
(dp28
g10
F0.00023772978392429858
ssVcom.xingjiabi.shengsheng
p29
(dp30
g10
F9.3024698057334222e-05
ssVcn.kidstone.cartoon
p31
(dp32
g10
F0.0064342082822989501
ssVcom.sina.weibo
p33
(dp34
g10
F0.0085944484927414893
ssVcom.tencent.news
p35
(dp36
g10
F0.00016537724099081639
ssVca.jasonrtbond.moonsun
p37
(dp38
g10
F5.1680387809630121e-06
ssVcom.android.packageinstaller
p39
(dp40
g10
F0.00052713995565822729
ssVcom.android.phone
p41
(dp42
g10
F0.00015504116342889037
ssVcom.tencent.mtt
p43
(dp44
g10
F0.00095608717447815729
ssVcom.ikm
p45
(dp46
g10
F0.0047494276397050082
ssVcom.tencent.mm
p47
(dp48
g10
F0.064409267327142028
ssVcom.tencent.map
p49
(dp50
g10
F0.00085789443763986
ssVcom.android.fileexplorer
p51
(dp52
g10
F0.0010542799113164546
ssVcom.android.quicksearchbox
p53
(dp54
g10
F1.5504116342889037e-05
ssVcom.mishi.android.mainapp
p55
(dp56
g10
F0.0005529801495630423
ssVcom.tencent.mobileqq
p57
(dp58
g10
F0.030470756652557923
ssVcom.xunlei.downloadprovider
p59
(dp60
g10
F0.002842421329529657
ssVcom.xiaomi.smarthome
p61
(dp62
g10
F2.5840193904815063e-05
ssVcom.sohu.inputmethod.sogou
p63
(dp64
g10
F4.1344310247704096e-05
ssVcom.miui.gallery
p65
(dp66
g10
F0.0011731448032786039
ssVcom.tencent.reading
p67
(dp68
g10
F0.036414001250665386
ssVcom.u17.comic.phone
p69
(dp70
g10
F0.045587270086874729
ssVcom.android.settings
p71
(dp72
g10
F0.012584174431644935
ssVcom.miui.video
p73
(dp74
g10
F8.2688620495408193e-05
ssVcom.xiaomi.hm.health
p75
(dp76
g10
F9.819273683829723e-05
ssVcmb.pb
p77
(dp78
g10
F0.0007390295456777108
ssVcom.tencent.rtxlite
p79
(dp80
g10
F0.00029457821051489169
ssVcom.ct.client
p81
(dp82
g10
F0.00056848426590593135
ssVcom.android.camera
p83
(dp84
g10
F5.1680387809630121e-06
sssS'node_dict_factory'
p85
c__builtin__
dict
p86
sS'edge_attr_dict_factory'
p87
g86
sS'succ'
p88
(dp89
g8
(dp90
Vcom.tencent.mobileqq
p91
(dp92
g10
F0.90000000000000002
ssVcom.android.launcher
p93
(dp94
g10
F2.7000000000000002
sssg11
(dp95
g55
(dp96
g10
F0.90000000000000002
ssVcom.tencent.mobileqq
p97
(dp98
g10
F0.40000000000000002
ssVcom.android.launcher
p99
(dp100
g10
F1.7
sssg13
(dp101
g11
(dp102
g10
F1.3
ssVcom.android.fileexplorer
p103
(dp104
g10
F0.90000000000000002
ssVcom.tencent.mm
p105
(dp106
g10
F1.7
ssVcom.android.packageinstaller
p107
(dp108
g10
F5.4000000000000004
ssg79
(dp109
g10
F0.90000000000000002
ssVcom.android.launcher
p110
(dp111
g10
F4.1000000000000005
ssg55
(dp112
g10
F0.40000000000000002
ssVcom.tencent.mobileqq
p113
(dp114
g10
F0.40000000000000002
sssg15
(dp115
Vcom.xunlei.downloadprovider
p116
(dp117
g10
F2.7000000000000002
ssg75
(dp118
g10
F0.40000000000000002
ssVcom.android.packageinstaller
p119
(dp120
g10
F1.7
ssVcom.android.fileexplorer
p121
(dp122
g10
F2.5
ssVcom.android.launcher
p123
(dp124
g10
F17.199999999999999
ssVcom.android.quicksearchbox
p125
(dp126
g10
F0.40000000000000002
ssVcom.tencent.mtt
p127
(dp128
g10
F1.7
ssVcn.kidstone.cartoon
p129
(dp130
g10
F2.2000000000000002
ssVcom.tencent.mobileqq
p131
(dp132
g10
F3.8999999999999999
ssVcom.UCMobile
p133
(dp134
g10
I1
sssg17
(dp135
Vcom.tencent.mm
p136
(dp137
g10
F0.69999999999999996
ssVcom.tencent.pb
p138
(dp139
g10
I1
ssVcom.android.launcher
p140
(dp141
g10
F1.3
sssg19
(dp142
sg21
(dp143
g59
(dp144
g10
F0.90000000000000002
ssVcom.tencent.android.qqdownloader
p145
(dp146
g10
F0.40000000000000002
ssVcom.u17.comic.phone
p147
(dp148
g10
F0.90000000000000002
ssVcom.tencent.mobileqq
p149
(dp150
g10
F0.90000000000000002
ssVcom.xfplay.play
p151
(dp152
g10
F1.3
ssVcom.android.fileexplorer
p153
(dp154
g10
F1.3
ssVcom.tencent.pb
p155
(dp156
g10
I1
ssVcom.android.launcher
p157
(dp158
g10
F10.799999999999999
ssg31
(dp159
g10
F0.40000000000000002
ssVcom.sina.weibo
p160
(dp161
g10
I1
ssg119
(dp162
g10
F0.69999999999999996
sssg23
(dp163
g153
(dp164
g10
F0.69999999999999996
ssg136
(dp165
g10
F0.90000000000000002
ssVcom.UCMobile
p166
(dp167
g10
I1
ssVcom.android.launcher
p168
(dp169
g10
F8.6000000000000014
ssVcom.android.phone
p170
(dp171
g10
I1
ssg81
(dp172
g10
F2.2999999999999998
ssVcom.tencent.mobileqq
p173
(dp174
g10
F2.1000000000000001
sssg25
(dp175
g151
(dp176
g10
F11.199999999999999
ssg17
(dp177
g10
F0.90000000000000002
ssg19
(dp178
g10
I3
ssg21
(dp179
g10
F9.6999999999999993
ssg23
(dp180
g10
F8
ssg13
(dp181
g10
F6.8000000000000007
ssg27
(dp182
g10
I1
ssg29
(dp183
g10
F1.7
ssg31
(dp184
g10
F6.1000000000000005
ssVcom.sina.weibo
p185
(dp186
g10
F5.9000000000000004
ssg37
(dp187
g10
I1
ssg79
(dp188
g10
F3.3999999999999999
ssg119
(dp189
g10
F4.2999999999999998
ssg41
(dp190
g10
F1.8999999999999999
ssg43
(dp191
g10
F2.1000000000000001
ssVcom.ikm
p192
(dp193
g10
F2.3999999999999999
ssg57
(dp194
g10
F51.000000000000007
ssg35
(dp195
g10
F4.2999999999999998
ssVcom.tencent.mm
p196
(dp197
g10
F38.600000000000009
ssg51
(dp198
g10
F13.499999999999998
ssg53
(dp199
g10
F2.7000000000000002
ssg55
(dp200
g10
I1
ssg59
(dp201
g10
F9.5
ssg61
(dp202
g10
I2
ssg65
(dp203
g10
F1.3
ssVcom.tencent.reading
p204
(dp205
g10
F9.5
ssg8
(dp206
g10
F2.7000000000000002
ssg71
(dp207
g10
I3
ssg73
(dp208
g10
I1
ssg75
(dp209
g10
F2.7000000000000002
ssg77
(dp210
g10
F1.7
ssg147
(dp211
g10
I2
ssg81
(dp212
g10
F2.3999999999999999
ssg83
(dp213
g10
F0.90000000000000002
sssg27
(dp214
sg29
(dp215
Vcom.android.launcher
p216
(dp217
g10
I1
sssg31
(dp218
Vcom.xunlei.downloadprovider
p219
(dp220
g10
F0.40000000000000002
ssVcom.android.launcher
p221
(dp222
g10
F6.1000000000000005
ssVcom.xfplay.play
p223
(dp224
g10
F0.90000000000000002
ssg75
(dp225
g10
F0.90000000000000002
ssVcom.tencent.android.qqdownloader
p226
(dp227
g10
F0.90000000000000002
ssVcom.tencent.mm
p228
(dp229
g10
F2.2999999999999998
sssg33
(dp230
Vcom.tencent.news
p231
(dp232
g10
F0.40000000000000002
ssVcom.android.launcher
p233
(dp234
g10
F9.5000000000000018
ssg107
(dp235
g10
F0.69999999999999996
ssVcom.UCMobile
p236
(dp237
g10
F0.69999999999999996
ssg63
(dp238
g10
F1.3
ssVcom.tencent.android.qqdownloader
p239
(dp240
g10
F1.3
ssg53
(dp241
g10
F0.90000000000000002
ssVcom.tencent.mm
p242
(dp243
g10
F13.1
ssVcom.tencent.mobileqq
p244
(dp245
g10
F0.90000000000000002
sssg35
(dp246
Vcom.tencent.pb
p247
(dp248
g10
F0.69999999999999996
ssg170
(dp249
g10
F0.40000000000000002
ssVcom.tencent.mm
p250
(dp251
g10
I1
ssVcom.android.launcher
p252
(dp253
g10
F3.6000000000000001
ssg204
(dp254
g10
F0.90000000000000002
sssg37
(dp255
g29
(dp256
g10
F0.90000000000000002
ssVcom.android.launcher
p257
(dp258
g10
F1.7
sssg39
(dp259
g11
(dp260
g10
F1.7
ssVcom.android.launcher
p261
(dp262
g10
F3
ssVcom.xfplay.play
p263
(dp264
g10
F1.7
ssVcom.tencent.android.qqdownloader
p265
(dp266
g10
F3.7000000000000002
ssg55
(dp267
g10
F0.69999999999999996
ssg127
(dp268
g10
F0.90000000000000002
ssVcom.tencent.mm
p269
(dp270
g10
F1.8999999999999999
sssg41
(dp271
Vcom.tencent.pb
p272
(dp273
g10
I1
ssVcom.android.launcher
p274
(dp275
g10
F0.90000000000000002
sssg43
(dp276
Vcom.android.launcher
p277
(dp278
g10
F4.7000000000000002
ssVcom.tencent.mobileqq
p279
(dp280
g10
F1.8999999999999999
ssVcom.xfplay.play
p281
(dp282
g10
I1
ssg239
(dp283
g10
F0.40000000000000002
ssg129
(dp284
g10
F0.69999999999999996
ssVcom.sina.weibo
p285
(dp286
g10
F1.3
sssg45
(dp287
Vcom.sina.weibo
p288
(dp289
g10
F1.7
ssVcom.tencent.mobileqq
p290
(dp291
g10
F1.8999999999999999
ssVcom.android.launcher
p292
(dp293
g10
I2
sssg47
(dp294
g116
(dp295
g10
F0.90000000000000002
ssg231
(dp296
g10
F0.90000000000000002
ssg121
(dp297
g10
F0.40000000000000002
ssVcom.tencent.reading
p298
(dp299
g10
F0.90000000000000002
ssg8
(dp300
g10
F1.3
ssVcom.tencent.mobileqq
p301
(dp302
g10
F8.9000000000000004
ssVcom.xfplay.play
p303
(dp304
g10
I2
ssVcom.tencent.android.qqdownloader
p305
(dp306
g10
F5.2999999999999998
ssg236
(dp307
g10
F2.2999999999999998
ssg247
(dp308
g10
F1.3
ssVcom.android.launcher
p309
(dp310
g10
F37.899999999999991
ssg170
(dp311
g10
F0.69999999999999996
ssg63
(dp312
g10
F1.7
ssg29
(dp313
g10
F0.40000000000000002
ssg185
(dp314
g10
F14.399999999999999
ssVcom.android.packageinstaller
p315
(dp316
g10
F1.8
ssg37
(dp317
g10
F0.90000000000000002
sssg49
(dp318
Vcom.UCMobile
p319
(dp320
g10
F0.90000000000000002
ssg149
(dp321
g10
F0.40000000000000002
ssVcom.android.launcher
p322
(dp323
g10
F1.7
sssg51
(dp324
Vcom.xunlei.downloadprovider
p325
(dp326
g10
F0.90000000000000002
ssVcom.android.launcher
p327
(dp328
g10
F13.799999999999999
ssVcom.android.packageinstaller
p329
(dp330
g10
I1
ssVcom.UCMobile
p331
(dp332
g10
F0.40000000000000002
ssg145
(dp333
g10
F0.90000000000000002
ssg125
(dp334
g10
F0.90000000000000002
ssg65
(dp335
g10
I2
ssg57
(dp336
g10
F3.1000000000000001
ssVcom.xfplay.play
p337
(dp338
g10
F0.69999999999999996
sssg53
(dp339
Vcom.android.launcher
p340
(dp341
g10
I1
sssg55
(dp342
g77
(dp343
g10
F0.40000000000000002
ssg97
(dp344
g10
F0.90000000000000002
ssVcom.android.launcher
p345
(dp346
g10
F1.7
sssg57
(dp347
g27
(dp348
g10
F0.90000000000000002
ssg192
(dp349
g10
F1.3999999999999999
ssVcom.tencent.news
p350
(dp351
g10
I1
ssVcom.android.fileexplorer
p352
(dp353
g10
F2.1000000000000001
ssVcom.tencent.reading
p354
(dp355
g10
F3.1999999999999997
ssg8
(dp356
g10
F1.6000000000000001
ssg288
(dp357
g10
F2.6000000000000001
ssVcom.xfplay.play
p358
(dp359
g10
F2.7000000000000002
ssVcom.xiaomi.hm.health
p360
(dp361
g10
F0.90000000000000002
ssg77
(dp362
g10
F0.90000000000000002
ssVcom.tencent.rtxlite
p363
(dp364
g10
F1.3
ssVcom.tencent.pb
p365
(dp366
g10
F2.2999999999999998
ssg65
(dp367
g10
F0.69999999999999996
ssVcom.android.launcher
p368
(dp369
g10
F51.600000000000001
ssg81
(dp370
g10
F0.40000000000000002
ssg83
(dp371
g10
I1
ssVcom.tencent.mtt
p372
(dp373
g10
I1
ssg31
(dp374
g10
F1.3
ssVcom.tencent.mm
p375
(dp376
g10
F13.800000000000001
sssg59
(dp377
g121
(dp378
g10
F0.90000000000000002
ssg151
(dp379
g10
F1.3
ssVcom.android.launcher
p380
(dp381
g10
F5.8000000000000007
ssg331
(dp382
g10
F0.90000000000000002
sssg61
(dp383
sg63
(dp384
Vcom.sina.weibo
p385
(dp386
g10
F1.3
ssVcom.tencent.mm
p387
(dp388
g10
F1.7
sssg65
(dp389
Vcom.android.fileexplorer
p390
(dp391
g10
F2.6000000000000001
ssg337
(dp392
g10
F0.90000000000000002
ssVcom.android.launcher
p393
(dp394
g10
F3.2999999999999998
sssg67
(dp395
g59
(dp396
g10
F0.40000000000000002
ssVcom.tencent.mm
p397
(dp398
g10
F2.3999999999999999
ssg17
(dp399
g10
I1
ssVcom.UCMobile
p400
(dp401
g10
F0.90000000000000002
ssg138
(dp402
g10
F0.90000000000000002
ssVcom.android.launcher
p403
(dp404
g10
F9
ssVcom.tencent.mobileqq
p405
(dp406
g10
F2.2999999999999998
sssg69
(dp407
g79
(dp408
g10
F0.40000000000000002
ssVcom.tencent.mobileqq
p409
(dp410
g10
I1
ssg13
(dp411
g10
F1.8999999999999999
ssVcom.android.launcher
p412
(dp413
g10
F5.7000000000000002
ssg21
(dp414
g10
F0.90000000000000002
sssg71
(dp415
Vcom.xunlei.downloadprovider
p416
(dp417
g10
F0.90000000000000002
ssg35
(dp418
g10
F0.90000000000000002
ssg204
(dp419
g10
F0.40000000000000002
ssVcom.android.launcher
p420
(dp421
g10
F5.4000000000000004
ssg41
(dp422
g10
F0.90000000000000002
ssg43
(dp423
g10
F0.90000000000000002
ssg279
(dp424
g10
F0.40000000000000002
sssg73
(dp425
Vcom.android.launcher
p426
(dp427
g10
I1
sssg75
(dp428
g219
(dp429
g10
F0.90000000000000002
ssVcom.xfplay.play
p430
(dp431
g10
F0.40000000000000002
ssVcom.android.launcher
p432
(dp433
g10
F1.7
sssg77
(dp434
Vcom.android.calendar
p435
(dp436
g10
F0.40000000000000002
ssVcom.tencent.mobileqq
p437
(dp438
g10
F0.90000000000000002
ssVcom.android.launcher
p439
(dp440
g10
F1.7
sssg79
(dp441
g192
(dp442
g10
F1.3
ssg290
(dp443
g10
F0.69999999999999996
ssVcom.android.launcher
p444
(dp445
g10
I2
sssg81
(dp446
g173
(dp447
g10
F1.3
ssVcom.tencent.pb
p448
(dp449
g10
I1
ssVcom.android.launcher
p450
(dp451
g10
F1.7
sssg83
(dp452
g365
(dp453
g10
F0.69999999999999996
ssVcom.tencent.mobileqq
p454
(dp455
g10
I1
ssVcom.android.launcher
p456
(dp457
g10
F1.3
ssssS'edge'
p458
g89
sS'graph'
p459
(dp460
sS'adjlist_dict_factory'
p461
g86
sS'adj'
p462
g89
sS'pred'
p463
(dp464
g8
(dp465
g77
g436
sVcom.tencent.mobileqq
p466
g356
sVcom.tencent.mm
p467
g300
sVcom.android.launcher
p468
g206
ssg11
(dp469
g107
g260
sg239
g102
ssg13
(dp470
g153
g333
sg69
g411
sVcom.tencent.mm
p471
g306
sg107
g266
sg166
g146
sg412
g181
sg372
g283
sVcn.kidstone.cartoon
p472
g227
sg285
g240
ssg15
(dp473
g325
g379
sVcom.miui.gallery
p474
g392
sVcom.android.fileexplorer
p475
g338
sg75
g431
sVcom.tencent.mobileqq
p476
g359
sg119
g264
sg331
g152
sVcom.android.launcher
p477
g176
sg127
g282
sg129
g224
sVcom.tencent.mm
p478
g304
ssg17
(dp479
Vcom.android.launcher
p480
g177
sVcom.tencent.reading
p481
g399
ssg19
(dp482
Vcom.android.launcher
p483
g178
ssg21
(dp484
g325
g382
sg49
g320
sVcom.tencent.reading
p485
g401
sVcom.u17.comic.phone
p486
g414
sVcom.tencent.mm
p487
g307
sVcom.xfplay.play
p488
g134
sg121
g332
sg155
g167
sVcom.android.launcher
p489
g179
sVcom.sina.weibo
p490
g237
ssg23
(dp491
g231
g248
sg481
g402
sg250
g308
sg17
g139
sVcom.UCMobile
p492
g156
sVcom.android.launcher
p493
g180
sg170
g273
sg81
g449
sg83
g453
sVcom.tencent.mobileqq
p494
g366
ssg25
(dp495
g11
g100
sg15
g124
sg17
g141
sg319
g158
sg23
g169
sg13
g111
sg69
g413
sg29
g217
sg31
g222
sg33
g234
sg49
g323
sg37
g258
sg39
g262
sg170
g275
sg43
g278
sg45
g293
sg47
g310
sg35
g253
sg51
g328
sg125
g341
sg55
g346
sg57
g369
sg116
g381
sg65
g394
sg204
g404
sg8
g94
sg71
g421
sg73
g427
sg75
g433
sg77
g440
sg79
g445
sg81
g451
sg83
g457
ssg27
(dp496
Vcom.tencent.mobileqq
p497
g348
sVcom.android.launcher
p498
g182
ssg29
(dp499
Vcom.tencent.mm
p500
g313
sg37
g256
sVcom.android.launcher
p501
g183
ssg31
(dp502
g319
g159
sg263
g130
sg149
g374
sg127
g284
sg157
g184
ssg33
(dp503
g242
g314
sg236
g161
sg63
g386
sg233
g186
sVcom.tencent.mtt
p504
g286
sg192
g289
sg290
g357
ssg35
(dp505
Vcom.android.settings
p506
g418
sVcom.tencent.mm
p507
g296
sg185
g232
sVcom.android.launcher
p508
g195
sVcom.tencent.mobileqq
p509
g351
ssg37
(dp510
g500
g317
sg501
g187
ssg39
(dp511
g477
g189
sVcom.android.fileexplorer
p512
g330
sVcom.tencent.mm
p513
g316
sg151
g120
sg331
g162
sg239
g108
sg285
g235
ssg41
(dp514
Vcom.android.settings
p515
g422
sg247
g171
sg250
g311
sg231
g249
sVcom.android.launcher
p516
g190
ssg43
(dp517
g71
g423
sg151
g128
sVcom.tencent.mobileqq
p518
g373
sg119
g268
sVcom.android.launcher
p519
g191
ssg45
(dp520
g363
g442
sVcom.tencent.mobileqq
p521
g349
sVcom.android.launcher
p522
g193
ssg47
(dp523
g231
g251
sg67
g398
sVcom.tencent.mobileqq
p524
g376
sg39
g270
sVcom.tencent.android.qqdownloader
p525
g106
sg17
g137
sg63
g388
sg309
g197
sg138
g165
sg31
g229
sg33
g243
ssg49
(dp526
sg51
(dp527
g116
g378
sg145
g104
sVcom.tencent.mobileqq
p528
g353
sVcom.xfplay.play
p529
g122
sg492
g154
sg155
g164
sg25
g198
sg65
g391
sVcom.tencent.mm
p530
g297
ssg53
(dp531
Vcom.android.fileexplorer
p532
g334
sVcom.xfplay.play
p533
g126
sVcom.sina.weibo
p534
g241
sVcom.android.launcher
p535
g199
ssg55
(dp536
Vcom.android.packageinstaller
p537
g267
sg11
g96
sg99
g200
sg265
g112
ssg57
(dp538
g435
g92
sVcom.sina.weibo
p539
g245
sg192
g291
sg11
g98
sg49
g321
sg319
g150
sVcom.u17.comic.phone
p540
g410
sg71
g424
sg303
g132
sg354
g406
sg145
g114
sg77
g438
sg51
g336
sg448
g174
sg25
g194
sg55
g344
sg81
g447
sg83
g455
sg43
g280
sg363
g443
sg375
g302
ssg59
(dp541
g121
g326
sVcom.android.settings
p542
g417
sg529
g117
sg485
g396
sg400
g144
sVcom.android.launcher
p543
g201
sg75
g429
sVcn.kidstone.cartoon
p544
g220
sg530
g295
ssg61
(dp545
Vcom.android.launcher
p546
g202
ssg63
(dp547
Vcom.tencent.mm
p548
g312
sVcom.sina.weibo
p549
g238
ssg65
(dp550
g352
g335
sg528
g367
sVcom.android.launcher
p551
g203
ssg67
(dp552
g506
g419
sg375
g299
sVcom.tencent.mobileqq
p553
g355
sg35
g254
sVcom.android.launcher
p554
g205
ssg69
(dp555
Vcom.UCMobile
p556
g148
sVcom.android.launcher
p557
g211
ssg71
(dp558
g519
g207
ssg73
(dp559
Vcom.android.launcher
p560
g208
ssg75
(dp561
g223
g118
sg544
g225
sVcom.tencent.mobileqq
p562
g361
sVcom.android.launcher
p563
g209
ssg77
(dp564
g55
g343
sg97
g362
sg345
g210
ssg79
(dp565
g69
g408
sVcom.tencent.mobileqq
p566
g364
sg13
g109
sg412
g188
ssg81
(dp567
g365
g172
sg454
g370
sg456
g212
ssg83
(dp568
g494
g371
sVcom.android.launcher
p569
g213
sssb.