ccopy_reg
_reconstructor
p1
(cnetworkx.classes.digraph
DiGraph
p2
c__builtin__
object
p3
NtRp4
(dp5
S'node'
p6
(dp7
Vcom.android.browser
p8
(dp9
S'weight'
p10
F0.0027546660670114682
ssVcom.youku.phone
p11
(dp12
g10
F0.057060939959523271
ssVcom.android.thememanager
p13
(dp14
g10
F0.00030568360692601753
ssVcom.tencent.qqmusic
p15
(dp16
g10
F0.23775860130425006
ssVcom.hunantv.imgo.activity
p17
(dp18
g10
F0.0034011693276366091
ssVcom.sina.weibo
p19
(dp20
g10
F0.045912272318416908
ssVcom.miui.weather2
p21
(dp22
g10
F0.00012297616370586913
ssVcom.android.bluetooth
p23
(dp24
g10
F3.8649651450416014e-05
ssVcom.android.phone
p25
(dp26
g10
F2.1081628063863277e-05
ssVcom.miui.gallery
p27
(dp28
g10
F0.0096940353046997968
ssVcom.tencent.mm
p29
(dp30
g10
F0.024264953901506632
ssVcom.android.calculator
p31
(dp32
g10
F0.00080461547110411509
ssVcom.snda.wifilocating
p33
(dp34
g10
F0.00010189453564200584
ssVcom.xiaomi.market
p35
(dp36
g10
F0.00017216662918821676
ssVcom.android.fileexplorer
p37
(dp38
g10
F0.0015740948954351248
ssVcom.qiyi.video
p39
(dp40
g10
F0.22460015178772205
ssVcom.happyelements.AndroidAnimal
p41
(dp42
g10
F0.076965510456487515
ssVcom.tencent.mobileqq
p43
(dp44
g10
F0.02346736563975714
ssVcom.miui.notes
p45
(dp46
g10
F0.00021784348999325388
ssVcom.android.calendar
p47
(dp48
g10
F0.00062893523723858778
ssVcom.android.settings
p49
(dp50
g10
F0.27849884753766585
ssVcom.miui.video
p51
(dp52
g10
F4.9190465482347649e-05
ssVcom.le123.ysdq
p53
(dp54
g10
F0.0024033055992804136
ssVcom.qzone
p55
(dp56
g10
F0.0070412637733303354
ssVcom.miui.barcodescanner
p57
(dp58
g10
F3.1622442095794919e-05
ssVcom.android.camera
p59
(dp60
g10
F0.0021081628063863277
sssS'node_dict_factory'
p61
c__builtin__
dict
p62
sS'edge_attr_dict_factory'
p63
g62
sS'succ'
p64
(dp65
g8
(dp66
Vcom.xiaomi.market
p67
(dp68
g10
F0.40000000000000002
ssg21
(dp69
g10
F1.3999999999999999
ssVcom.youku.phone
p70
(dp71
g10
F4.5999999999999996
ssVcom.android.calendar
p72
(dp73
g10
F1.8
ssVcom.sina.weibo
p74
(dp75
g10
F2.7000000000000002
ssVcom.snda.wifilocating
p76
(dp77
g10
F0.69999999999999996
ssg53
(dp78
g10
F1.3999999999999999
ssVcom.android.fileexplorer
p79
(dp80
g10
I15
ssVcom.qzone
p81
(dp82
g10
F1.8999999999999999
ssVcom.tencent.qqmusic
p83
(dp84
g10
F4.5999999999999996
ssVcom.hunantv.imgo.activity
p85
(dp86
g10
F0.69999999999999996
ssVcom.android.settings
p87
(dp88
g10
F0.69999999999999996
ssVcom.happyelements.AndroidAnimal
p89
(dp90
g10
F4.9000000000000004
ssVcom.android.camera
p91
(dp92
g10
F2.7000000000000002
ssVcom.miui.gallery
p93
(dp94
g10
F4.2000000000000002
ssVcom.tencent.mm
p95
(dp96
g10
F3.6999999999999997
ssVcom.tencent.mobileqq
p97
(dp98
g10
F2.7999999999999998
sssg11
(dp99
g8
(dp100
g10
F11.300000000000002
ssVcom.miui.weather2
p101
(dp102
g10
F1.6000000000000001
ssg47
(dp103
g10
I1
ssVcom.tencent.mobileqq
p104
(dp105
g10
F3.8999999999999999
ssVcom.tencent.mm
p106
(dp107
g10
I1
ssVcom.qiyi.video
p108
(dp109
g10
F0.90000000000000002
ssVcom.android.fileexplorer
p110
(dp111
g10
F17.800000000000001
ssVcom.qzone
p112
(dp113
g10
I1
ssg15
(dp114
g10
F6.7000000000000002
ssVcom.android.thememanager
p115
(dp116
g10
F0.40000000000000002
ssVcom.happyelements.AndroidAnimal
p117
(dp118
g10
F5.5
ssVcom.android.camera
p119
(dp120
g10
I1
ssg93
(dp121
g10
F4
ssVcom.sina.weibo
p122
(dp123
g10
F2.3999999999999999
sssg13
(dp124
Vcom.android.browser
p125
(dp126
g10
F0.69999999999999996
ssVcom.youku.phone
p127
(dp128
g10
F0.40000000000000002
ssVcom.tencent.mobileqq
p129
(dp130
g10
F0.69999999999999996
ssVcom.sina.weibo
p131
(dp132
g10
F0.69999999999999996
ssVcom.qiyi.video
p133
(dp134
g10
I1
ssVcom.android.fileexplorer
p135
(dp136
g10
F2.8999999999999999
ssVcom.qzone
p137
(dp138
g10
F1.6000000000000001
ssVcom.tencent.qqmusic
p139
(dp140
g10
F0.40000000000000002
ssVcom.hunantv.imgo.activity
p141
(dp142
g10
F0.40000000000000002
ssVcom.android.camera
p143
(dp144
g10
F0.90000000000000002
ssVcom.miui.gallery
p145
(dp146
g10
I1
ssVcom.tencent.mm
p147
(dp148
g10
F1.8999999999999999
sssg15
(dp149
g8
(dp150
g10
F10.9
ssg35
(dp151
g10
F0.90000000000000002
ssVcom.miui.weather2
p152
(dp153
g10
F2.3999999999999999
ssg70
(dp154
g10
F4.6999999999999993
ssVcom.android.calendar
p155
(dp156
g10
F2.2999999999999998
ssVcom.tencent.mobileqq
p157
(dp158
g10
F4.9000000000000004
ssVcom.sina.weibo
p159
(dp160
g10
F3.9999999999999996
ssVcom.miui.notes
p161
(dp162
g10
F0.69999999999999996
ssVcom.qiyi.video
p163
(dp164
g10
I1
ssVcom.le123.ysdq
p165
(dp166
g10
I3
ssg110
(dp167
g10
F16.900000000000002
ssg55
(dp168
g10
F3.8999999999999999
ssVcom.hunantv.imgo.activity
p169
(dp170
g10
I1
ssg25
(dp171
g10
F0.69999999999999996
ssg41
(dp172
g10
F21.900000000000002
ssVcom.android.camera
p173
(dp174
g10
I2
ssVcom.miui.gallery
p175
(dp176
g10
F5.7999999999999998
ssg29
(dp177
g10
F4.4000000000000004
sssg17
(dp178
Vcom.android.browser
p179
(dp180
g10
F1.8
ssVcom.miui.weather2
p181
(dp182
g10
F0.69999999999999996
ssVcom.android.calculator
p183
(dp184
g10
F1.1000000000000001
ssVcom.android.settings
p185
(dp186
g10
F0.90000000000000002
ssVcom.sina.weibo
p187
(dp188
g10
F1.7
ssVcom.xiaomi.market
p189
(dp190
g10
F0.90000000000000002
ssVcom.android.fileexplorer
p191
(dp192
g10
F2.3999999999999999
ssVcom.tencent.qqmusic
p193
(dp194
g10
I2
ssVcom.android.camera
p195
(dp196
g10
I2
ssVcom.happyelements.AndroidAnimal
p197
(dp198
g10
I1
ssg33
(dp199
g10
I1
ssVcom.miui.gallery
p200
(dp201
g10
F4
ssVcom.tencent.mm
p202
(dp203
g10
F0.90000000000000002
ssVcom.tencent.mobileqq
p204
(dp205
g10
F0.40000000000000002
sssg19
(dp206
Vcom.android.browser
p207
(dp208
g10
F6.0000000000000009
ssg152
(dp209
g10
F3.7000000000000002
ssVcom.youku.phone
p210
(dp211
g10
F5.2999999999999998
ssg47
(dp212
g10
F4.4000000000000004
ssg204
(dp213
g10
F7.6000000000000014
ssVcom.miui.notes
p214
(dp215
g10
F2.2999999999999998
ssg35
(dp216
g10
F0.69999999999999996
ssVcom.android.fileexplorer
p217
(dp218
g10
F13.000000000000002
ssVcom.qzone
p219
(dp220
g10
F4.9000000000000004
ssVcom.tencent.qqmusic
p221
(dp222
g10
F14.1
ssg141
(dp223
g10
F1.8999999999999999
ssVcom.happyelements.AndroidAnimal
p224
(dp225
g10
F13.800000000000002
ssg173
(dp226
g10
F3.2000000000000002
ssVcom.miui.gallery
p227
(dp228
g10
F8
ssVcom.tencent.mm
p229
(dp230
g10
F14.5
sssg21
(dp231
Vcom.android.browser
p232
(dp233
g10
F2.6000000000000001
ssVcom.youku.phone
p234
(dp235
g10
I1
ssVcom.android.calendar
p236
(dp237
g10
F3.2999999999999998
ssVcom.tencent.mobileqq
p238
(dp239
g10
F1.8999999999999999
ssVcom.android.thememanager
p240
(dp241
g10
F0.40000000000000002
ssVcom.android.fileexplorer
p242
(dp243
g10
F5.9000000000000004
ssg221
(dp244
g10
F1.3999999999999999
ssg85
(dp245
g10
F0.90000000000000002
ssVcom.android.settings
p246
(dp247
g10
F0.69999999999999996
ssVcom.happyelements.AndroidAnimal
p248
(dp249
g10
F3.8999999999999995
ssVcom.sina.weibo
p250
(dp251
g10
F1.8999999999999999
sssg23
(dp252
Vcom.android.camera
p253
(dp254
g10
F0.90000000000000002
ssVcom.tencent.qqmusic
p255
(dp256
g10
F0.40000000000000002
ssVcom.miui.gallery
p257
(dp258
g10
I1
ssVcom.tencent.mm
p259
(dp260
g10
F0.69999999999999996
sssg25
(dp261
g155
(dp262
g10
I1
ssVcom.android.fileexplorer
p263
(dp264
g10
F0.90000000000000002
ssVcom.android.browser
p265
(dp266
g10
F0.69999999999999996
sssg27
(dp267
g183
(dp268
g10
F1.8999999999999999
ssVcom.android.browser
p269
(dp270
g10
F11.100000000000003
ssg11
(dp271
g10
I1
ssg155
(dp272
g10
F3.8999999999999999
ssg129
(dp273
g10
F4.9000000000000004
ssg131
(dp274
g10
F2.6000000000000001
ssg25
(dp275
g10
I1
ssg13
(dp276
g10
I3
ssg67
(dp277
g10
F0.90000000000000002
ssg110
(dp278
g10
F19
ssg137
(dp279
g10
F1.1000000000000001
ssg15
(dp280
g10
F4.0999999999999996
ssg141
(dp281
g10
F1.8
ssg51
(dp282
g10
F4
ssg185
(dp283
g10
I4
ssg89
(dp284
g10
F4.6999999999999993
ssg143
(dp285
g10
F7.9000000000000004
ssg57
(dp286
g10
F0.69999999999999996
ssg147
(dp287
g10
F8.1000000000000014
ssg23
(dp288
g10
F1.7
sssg29
(dp289
Vcom.android.browser
p290
(dp291
g10
F13.1
ssg35
(dp292
g10
F0.40000000000000002
ssg21
(dp293
g10
F3.5
ssg127
(dp294
g10
F4.5999999999999996
ssg47
(dp295
g10
F2.3999999999999999
ssg250
(dp296
g10
F14.1
ssg214
(dp297
g10
I1
ssVcom.android.thememanager
p298
(dp299
g10
F0.90000000000000002
ssg53
(dp300
g10
I1
ssVcom.android.fileexplorer
p301
(dp302
g10
F18.999999999999993
ssVcom.qzone
p303
(dp304
g10
F3.8999999999999999
ssVcom.tencent.qqmusic
p305
(dp306
g10
F10.199999999999999
ssg117
(dp307
g10
F11.4
ssg143
(dp308
g10
F3.5999999999999996
ssg227
(dp309
g10
F6.2000000000000002
ssg129
(dp310
g10
F9.5
sssg31
(dp311
Vcom.tencent.mobileqq
p312
(dp313
g10
I1
ssg57
(dp314
g10
F1.8999999999999999
sssg33
(dp315
sg35
(dp316
Vcom.miui.weather2
p317
(dp318
g10
I2
ssg234
(dp319
g10
F0.90000000000000002
ssVcom.android.calendar
p320
(dp321
g10
F0.69999999999999996
ssg246
(dp322
g10
F0.40000000000000002
ssVcom.android.fileexplorer
p323
(dp324
g10
F1.3
ssVcom.happyelements.AndroidAnimal
p325
(dp326
g10
F0.69999999999999996
sssg37
(dp327
g8
(dp328
g10
F66
ssg21
(dp329
g10
F1.6000000000000001
ssg11
(dp330
g10
F8.0999999999999996
ssg72
(dp331
g10
F4.4000000000000004
ssg43
(dp332
g10
F9.2000000000000011
ssg74
(dp333
g10
F4.5
ssVcom.android.thememanager
p334
(dp335
g10
F1.7
ssg53
(dp336
g10
F2.6000000000000001
ssg81
(dp337
g10
F1.7
ssg15
(dp338
g10
F5.2000000000000002
ssg85
(dp339
g10
F0.40000000000000002
ssg59
(dp340
g10
F4.9000000000000004
ssg117
(dp341
g10
F5.2999999999999998
ssg45
(dp342
g10
I1
ssg133
(dp343
g10
F0.40000000000000002
ssg27
(dp344
g10
F4.7000000000000002
ssg147
(dp345
g10
F7.4000000000000004
ssg76
(dp346
g10
F1.3
ssVcom.android.settings
p347
(dp348
g10
F2.2999999999999998
sssg39
(dp349
Vcom.android.browser
p350
(dp351
g10
F2
ssVcom.tencent.mm
p352
(dp353
g10
I1
ssg115
(dp354
g10
F0.90000000000000002
ssVcom.android.fileexplorer
p355
(dp356
g10
F3.5999999999999996
ssVcom.tencent.qqmusic
p357
(dp358
g10
F0.90000000000000002
ssVcom.happyelements.AndroidAnimal
p359
(dp360
g10
F1.8999999999999999
ssVcom.miui.gallery
p361
(dp362
g10
F1.8999999999999999
ssg157
(dp363
g10
I1
sssg41
(dp364
Vcom.android.browser
p365
(dp366
g10
F12.900000000000002
ssg45
(dp367
g10
F0.90000000000000002
ssVcom.youku.phone
p368
(dp369
g10
F3.6000000000000001
ssg72
(dp370
g10
F0.40000000000000002
ssg104
(dp371
g10
F1.8999999999999999
ssg250
(dp372
g10
F3.2999999999999998
ssg101
(dp373
g10
F2.7000000000000002
ssVcom.android.thememanager
p374
(dp375
g10
F4.0999999999999996
ssVcom.le123.ysdq
p376
(dp377
g10
I1
ssg301
(dp378
g10
F23.899999999999995
ssg55
(dp379
g10
F2.8999999999999999
ssVcom.tencent.qqmusic
p380
(dp381
g10
F5.7999999999999998
ssVcom.hunantv.imgo.activity
p382
(dp383
g10
I1
ssg347
(dp384
g10
F0.69999999999999996
ssg59
(dp385
g10
F3.2999999999999998
ssVcom.miui.gallery
p386
(dp387
g10
F3.8999999999999999
ssg29
(dp388
g10
F1.1000000000000001
sssg43
(dp389
g183
(dp390
g10
F0.40000000000000002
ssg365
(dp391
g10
F8.7000000000000011
ssg45
(dp392
g10
F0.69999999999999996
ssg11
(dp393
g10
F6.6000000000000005
ssg47
(dp394
g10
F1.3
ssVcom.sina.weibo
p395
(dp396
g10
F17.700000000000003
ssVcom.miui.weather2
p397
(dp398
g10
I1
ssg298
(dp399
g10
I1
ssg110
(dp400
g10
F17.199999999999999
ssVcom.qzone
p401
(dp402
g10
F2.6000000000000001
ssg15
(dp403
g10
F9.1000000000000014
ssg108
(dp404
g10
F1.7
ssg347
(dp405
g10
F0.90000000000000002
ssg117
(dp406
g10
F9.9000000000000004
ssg59
(dp407
g10
F7.4000000000000012
ssg27
(dp408
g10
F10.000000000000002
ssg95
(dp409
g10
F18.699999999999999
ssVcom.hunantv.imgo.activity
p410
(dp411
g10
F2.5999999999999996
sssg45
(dp412
g59
(dp413
g10
I1
ssVcom.tencent.qqmusic
p414
(dp415
g10
F0.40000000000000002
ssVcom.miui.weather2
p416
(dp417
g10
I1
ssVcom.android.browser
p418
(dp419
g10
F0.69999999999999996
ssVcom.android.fileexplorer
p420
(dp421
g10
F0.90000000000000002
sssg47
(dp422
g232
(dp423
g10
F1.6000000000000001
ssg161
(dp424
g10
F0.90000000000000002
ssVcom.youku.phone
p425
(dp426
g10
I1
ssVcom.sina.weibo
p427
(dp428
g10
F2.6000000000000001
ssVcom.tencent.mm
p429
(dp430
g10
F0.40000000000000002
ssg240
(dp431
g10
F0.90000000000000002
ssVcom.android.fileexplorer
p432
(dp433
g10
F4.6000000000000005
ssg76
(dp434
g10
I1
ssg85
(dp435
g10
F1.3999999999999999
ssg246
(dp436
g10
I1
ssVcom.happyelements.AndroidAnimal
p437
(dp438
g10
F1.7
ssVcom.android.camera
p439
(dp440
g10
I2
ssg133
(dp441
g10
F0.69999999999999996
ssVcom.miui.gallery
p442
(dp443
g10
F0.90000000000000002
ssVcom.tencent.mobileqq
p444
(dp445
g10
F1.7
sssg49
(dp446
Vcom.android.browser
p447
(dp448
g10
F1.1000000000000001
ssVcom.miui.weather2
p449
(dp450
g10
F0.90000000000000002
ssg23
(dp451
g10
F0.90000000000000002
ssg51
(dp452
g10
F1.1000000000000001
ssg67
(dp453
g10
I1
ssVcom.android.fileexplorer
p454
(dp455
g10
F1.6000000000000001
ssVcom.tencent.qqmusic
p456
(dp457
g10
F1.3
ssg240
(dp458
g10
I1
ssVcom.happyelements.AndroidAnimal
p459
(dp460
g10
I1
ssg253
(dp461
g10
F0.40000000000000002
ssg133
(dp462
g10
F0.90000000000000002
ssVcom.miui.gallery
p463
(dp464
g10
F9.5999999999999996
ssVcom.sina.weibo
p465
(dp466
g10
I1
sssg51
(dp467
Vcom.android.fileexplorer
p468
(dp469
g10
F0.69999999999999996
ssVcom.miui.gallery
p470
(dp471
g10
F4
ssVcom.android.browser
p472
(dp473
g10
F0.40000000000000002
sssg53
(dp474
Vcom.android.browser
p475
(dp476
g10
F2.2000000000000002
ssg21
(dp477
g10
I1
ssVcom.youku.phone
p478
(dp479
g10
I1
ssg155
(dp480
g10
F0.69999999999999996
ssVcom.android.fileexplorer
p481
(dp482
g10
F3.1000000000000001
ssg221
(dp483
g10
F3.3999999999999999
ssg25
(dp484
g10
F1.3
ssg248
(dp485
g10
F5
ssVcom.miui.gallery
p486
(dp487
g10
F1.7
ssg250
(dp488
g10
F0.69999999999999996
sssg55
(dp489
Vcom.android.browser
p490
(dp491
g10
F2.6999999999999997
ssg152
(dp492
g10
F0.90000000000000002
ssg478
(dp493
g10
F1.8999999999999999
ssg236
(dp494
g10
F1.7
ssg29
(dp495
g10
F3.8999999999999999
ssg108
(dp496
g10
I1
ssVcom.le123.ysdq
p497
(dp498
g10
I1
ssVcom.android.fileexplorer
p499
(dp500
g10
F5.9000000000000004
ssVcom.tencent.qqmusic
p501
(dp502
g10
F4.7999999999999998
ssg115
(dp503
g10
F0.69999999999999996
ssg224
(dp504
g10
F4.9000000000000004
ssg386
(dp505
g10
F1.8
ssVcom.sina.weibo
p506
(dp507
g10
I2
ssVcom.tencent.mobileqq
p508
(dp509
g10
F1.6000000000000001
sssg57
(dp510
sg59
(dp511
g183
(dp512
g10
F1.6000000000000001
ssVcom.android.browser
p513
(dp514
g10
F3.7999999999999998
ssg317
(dp515
g10
F2.5
ssg234
(dp516
g10
F0.69999999999999996
ssg320
(dp517
g10
F0.40000000000000002
ssVcom.tencent.mobileqq
p518
(dp519
g10
F0.90000000000000002
ssVcom.tencent.mm
p520
(dp521
g10
F4
ssVcom.android.thememanager
p522
(dp523
g10
F0.90000000000000002
ssg35
(dp524
g10
F2.7000000000000002
ssVcom.android.fileexplorer
p525
(dp526
g10
F6.8000000000000007
ssg81
(dp527
g10
F0.80000000000000004
ssg255
(dp528
g10
F0.90000000000000002
ssg141
(dp529
g10
F0.90000000000000002
ssg57
(dp530
g10
F0.40000000000000002
ssVcom.android.settings
p531
(dp532
g10
F2.7999999999999998
ssVcom.happyelements.AndroidAnimal
p533
(dp534
g10
F2.7999999999999998
ssVcom.miui.gallery
p535
(dp536
g10
F10.699999999999999
ssg131
(dp537
g10
F2.2999999999999998
ssssS'edge'
p538
g65
sS'graph'
p539
(dp540
sS'adjlist_dict_factory'
p541
g62
sS'adj'
p542
g65
sS'pred'
p543
(dp544
g8
(dp545
g240
g126
sg152
g233
sg11
g100
sg236
g423
sg104
g391
sVcom.tencent.mm
p546
g291
sg39
g351
sVcom.le123.ysdq
p547
g476
sg110
g328
sg214
g419
sVcom.qzone
p548
g491
sg15
g150
sVcom.hunantv.imgo.activity
p549
g180
sVcom.miui.video
p550
g473
sg25
g266
sg117
g366
sVcom.android.camera
p551
g514
sg227
g270
sg250
g208
sg531
g448
ssg11
(dp552
g207
g71
sg35
g319
sg317
g235
sg47
g426
sg43
g393
sVcom.sina.weibo
p553
g211
sg13
g128
sg497
g479
sg37
g330
sg81
g493
sg83
g154
sVcom.happyelements.AndroidAnimal
p554
g369
sVcom.android.camera
p555
g516
sg27
g271
sg147
g294
ssg13
(dp556
g181
g241
sVcom.youku.phone
p557
g116
sg320
g431
sVcom.tencent.mm
p558
g299
sg108
g354
sVcom.android.fileexplorer
p559
g335
sg112
g503
sg246
g458
sVcom.happyelements.AndroidAnimal
p560
g375
sVcom.android.camera
p561
g523
sVcom.miui.gallery
p562
g276
sVcom.tencent.mobileqq
p563
g399
ssg15
(dp564
g207
g84
sg522
g140
sg21
g244
sg11
g114
sg250
g222
sVcom.tencent.mm
p565
g306
sg163
g358
sg53
g483
sg253
g528
sg37
g338
sVcom.qzone
p566
g502
sVcom.hunantv.imgo.activity
p567
g194
sg49
g457
sg41
g381
sg214
g415
sg27
g280
sg43
g403
sg23
g256
ssg17
(dp568
Vcom.android.browser
p569
g86
sVcom.miui.weather2
p570
g245
sg72
g435
sVcom.tencent.mobileqq
p571
g411
sg298
g142
sVcom.android.fileexplorer
p572
g339
sVcom.tencent.qqmusic
p573
g170
sVcom.happyelements.AndroidAnimal
p574
g383
sg143
g529
sg145
g281
sg131
g223
ssg19
(dp575
Vcom.android.browser
p576
g75
sg21
g251
sVcom.youku.phone
p577
g123
sVcom.android.calendar
p578
g428
sVcom.tencent.mobileqq
p579
g396
sg298
g132
sg53
g488
sVcom.android.fileexplorer
p580
g333
sg401
g507
sVcom.tencent.qqmusic
p581
g160
sVcom.hunantv.imgo.activity
p582
g188
sg49
g466
sg248
g372
sg143
g537
sg145
g274
sg95
g296
ssg21
(dp583
g365
g69
sg214
g417
sVcom.youku.phone
p584
g102
sVcom.sina.weibo
p585
g209
sg53
g477
sg79
g329
sVcom.qzone
p586
g492
sVcom.tencent.qqmusic
p587
g153
sVcom.hunantv.imgo.activity
p588
g182
sVcom.android.settings
p589
g450
sVcom.happyelements.AndroidAnimal
p590
g373
sg555
g515
sg35
g318
sg95
g293
sVcom.tencent.mobileqq
p591
g398
ssg23
(dp592
Vcom.android.settings
p593
g451
sVcom.miui.gallery
p594
g288
ssg25
(dp595
g486
g275
sVcom.tencent.qqmusic
p596
g171
sVcom.le123.ysdq
p597
g484
ssg27
(dp598
Vcom.android.browser
p599
g94
sVcom.youku.phone
p600
g121
sg578
g443
sVcom.tencent.mm
p601
g309
sg23
g258
sg298
g146
sg597
g487
sg37
g344
sVcom.qzone
p602
g505
sVcom.tencent.qqmusic
p603
g176
sg17
g201
sg51
g471
sg185
g464
sVcom.happyelements.AndroidAnimal
p604
g387
sVcom.android.camera
p605
g536
sg108
g362
sVcom.sina.weibo
p606
g228
sg43
g408
ssg29
(dp607
g365
g96
sVcom.youku.phone
p608
g107
sg578
g430
sg395
g230
sg13
g148
sg135
g345
sg55
g495
sVcom.tencent.qqmusic
p609
g177
sg582
g203
sg23
g260
sg41
g388
sg605
g521
sVcom.qiyi.video
p610
g353
sg562
g287
sg104
g409
ssg31
(dp611
Vcom.android.camera
p612
g512
sVcom.miui.gallery
p613
g268
sVcom.tencent.mobileqq
p614
g390
sg410
g184
ssg33
(dp615
Vcom.android.calendar
p616
g434
sVcom.android.fileexplorer
p617
g346
sVcom.hunantv.imgo.activity
p618
g199
sVcom.android.browser
p619
g77
ssg35
(dp620
Vcom.android.browser
p621
g68
sVcom.tencent.mm
p622
g292
sVcom.tencent.qqmusic
p623
g151
sg588
g190
sg87
g453
sg555
g524
sVcom.miui.gallery
p624
g277
sVcom.sina.weibo
p625
g216
ssg37
(dp626
g365
g80
sg35
g324
sg21
g243
sg11
g111
sg47
g433
sg43
g400
sg147
g302
sg13
g136
sg547
g482
sg531
g455
sg214
g421
sg548
g500
sg15
g167
sg39
g356
sg550
g469
sg25
g264
sg117
g378
sg551
g526
sg27
g278
sg19
g218
sg549
g192
ssg39
(dp627
g557
g109
sg320
g441
sg246
g462
sg240
g134
sVcom.android.fileexplorer
p628
g343
sg112
g496
sVcom.tencent.qqmusic
p629
g164
sVcom.tencent.mobileqq
p630
g404
ssg41
(dp631
g599
g90
sg21
g249
sg127
g118
sg236
g438
sg129
g406
sg506
g225
sg35
g326
sg53
g485
sg135
g341
sg401
g504
sVcom.tencent.qqmusic
p632
g172
sVcom.qiyi.video
p633
g360
sg589
g460
sg91
g534
sg93
g284
sg147
g307
sVcom.hunantv.imgo.activity
p634
g198
ssg43
(dp635
g31
g313
sVcom.android.browser
p636
g98
sVcom.miui.weather2
p637
g239
sg127
g105
sg47
g445
sg187
g213
sg13
g130
sg37
g332
sg137
g509
sg629
g158
sg163
g363
sg117
g371
sg605
g519
sg562
g273
sg147
g310
sg582
g205
ssg45
(dp638
Vcom.android.calendar
p639
g424
sVcom.tencent.mm
p640
g297
sVcom.android.fileexplorer
p641
g342
sVcom.tencent.qqmusic
p642
g162
sVcom.happyelements.AndroidAnimal
p643
g367
sVcom.sina.weibo
p644
g215
sVcom.tencent.mobileqq
p645
g392
ssg47
(dp646
g569
g73
sg152
g237
sVcom.youku.phone
p647
g103
sg202
g295
sg189
g321
sVcom.le123.ysdq
p648
g480
sg572
g331
sg586
g494
sg596
g156
sg25
g262
sVcom.happyelements.AndroidAnimal
p649
g370
sg195
g517
sg486
g272
sVcom.sina.weibo
p650
g212
sg204
g394
ssg49
(dp651
g621
g88
sg181
g247
sg320
g436
sg189
g322
sVcom.android.fileexplorer
p652
g348
sg17
g186
sVcom.happyelements.AndroidAnimal
p653
g384
sVcom.android.camera
p654
g532
sg200
g283
sVcom.tencent.mobileqq
p655
g405
ssg51
(dp656
Vcom.android.settings
p657
g452
sVcom.miui.gallery
p658
g282
ssg53
(dp659
g365
g78
sVcom.android.fileexplorer
p660
g336
sg81
g498
sVcom.tencent.qqmusic
p661
g166
sVcom.happyelements.AndroidAnimal
p662
g377
sg95
g300
ssg55
(dp663
g513
g82
sg557
g113
sVcom.sina.weibo
p664
g220
sVcom.tencent.mm
p665
g304
sg522
g138
sg525
g337
sg632
g168
sg41
g379
sg551
g527
sVcom.miui.gallery
p666
g279
sVcom.tencent.mobileqq
p667
g402
ssg57
(dp668
g183
g314
sg612
g530
sg613
g286
ssg59
(dp669
g636
g92
sg45
g413
sVcom.youku.phone
p670
g120
sg578
g440
sg645
g407
sVcom.sina.weibo
p671
g226
sg298
g144
sg641
g340
sg603
g174
sg588
g196
sg593
g461
sg643
g385
sg145
g285
sg558
g308
sg23
g254
sssb.