ccopy_reg
_reconstructor
p1
(cnetworkx.classes.digraph
DiGraph
p2
c__builtin__
object
p3
NtRp4
(dp5
S'node'
p6
(dp7
Vim.yixin
p8
(dp9
S'weight'
p10
F0.0020850868467365523
ssVcom.android.mediacenter
p11
(dp12
g10
F0.00066952329941081948
ssVcom.sina.weibo
p13
(dp14
g10
F0.019358787971535694
ssVcom.android.contacts
p15
(dp16
g10
F0.14249368735174842
ssVcom.android.gallery3d
p17
(dp18
g10
F0.0023528961665008801
ssVcom.taobao.taobao
p19
(dp20
g10
F0.022495982860203535
ssVcom.cici.tiexin
p21
(dp22
g10
F0.00063126482515877267
ssVcom.huawei.hidisk
p23
(dp24
g10
F0.002544188537761114
ssVcom.huawei.systemmanager
p25
(dp26
g10
F3.8258474252046826e-05
ssVcom.android.systemui
p27
(dp28
g10
F0.00026780931976432779
ssVcom.tencent.mtt
p29
(dp30
g10
F0.00066952329941081948
ssVcom.tencent.mm
p31
(dp32
g10
F0.035312571734639225
ssVcom.android.calculator2
p33
(dp34
g10
F1.9129237126023413e-05
ssVcom.android.phone
p35
(dp36
g10
F0.024906266738082484
ssVcom.cootek.smartdialer
p37
(dp38
g10
F0.008780319840844748
ssVcom.huawei.android.launcher
p39
(dp40
g10
F0.57408753538908863
ssVcom.chinamobile.cmccwifi
p41
(dp42
g10
F0.0010712372790573112
ssVcom.tencent.mobileqq
p43
(dp44
g10
F0.062112632948198028
ssVcom.android.settings
p45
(dp46
g10
F0.0040362690335909402
ssVcom.android.mms
p47
(dp48
g10
F0.047612671206672279
ssVcom.zhaopin.social
p49
(dp50
g10
F0.048090902134822866
ssVcom.huawei.hwid
p51
(dp52
g10
F1.9129237126023413e-05
ssVcom.yx
p53
(dp54
g10
F0.0002869385568903512
ssVcom.lidroid.lockscreen
p55
(dp56
g10
F5.7387711378070245e-05
sssS'graph'
p57
(dp58
sS'succ'
p59
(dp60
g8
(dp61
sg11
(dp62
g51
(dp63
g10
I1
ssVcom.android.phone
p64
(dp65
g10
F0.69999999999999996
ssVcom.android.gallery3d
p66
(dp67
g10
F0.69999999999999996
ssVcom.taobao.taobao
p68
(dp69
g10
F2.6000000000000001
ssVcom.android.systemui
p70
(dp71
g10
F2.7000000000000002
sssg13
(dp72
Vcom.tencent.mm
p73
(dp74
g10
F1.3
ssVcom.huawei.android.launcher
p75
(dp76
g10
F6.1000000000000005
ssVcom.chinamobile.cmccwifi
p77
(dp78
g10
F1.3
ssVcom.taobao.taobao
p79
(dp80
g10
F0.90000000000000002
ssVcom.android.systemui
p81
(dp82
g10
F0.69999999999999996
sssg15
(dp83
Vcom.huawei.android.launcher
p84
(dp85
g10
F7.7000000000000002
ssVcom.android.phone
p86
(dp87
g10
F13.499999999999998
sssg17
(dp88
Vcom.taobao.taobao
p89
(dp90
g10
I2
ssVcom.huawei.android.launcher
p91
(dp92
g10
F5.7000000000000011
ssg41
(dp93
g10
F0.90000000000000002
ssVcom.android.systemui
p94
(dp95
g10
F1.3
ssVcom.android.mediacenter
p96
(dp97
g10
F0.69999999999999996
ssVcom.tencent.mm
p98
(dp99
g10
F2
sssg19
(dp100
Vcom.android.settings
p101
(dp102
g10
F1.7000000000000002
ssVcom.android.systemui
p103
(dp104
g10
F3.7999999999999998
ssVcom.android.gallery3d
p105
(dp106
g10
F2.7000000000000002
ssg51
(dp107
g10
F0.69999999999999996
ssVcom.huawei.android.launcher
p108
(dp109
g10
F7.7000000000000002
ssVcom.chinamobile.cmccwifi
p110
(dp111
g10
F0.90000000000000002
ssg64
(dp112
g10
I2
ssg11
(dp113
g10
F2.6000000000000001
ssVcom.tencent.mm
p114
(dp115
g10
F1.3
ssVcom.tencent.mobileqq
p116
(dp117
g10
I1
sssg21
(dp118
Vcom.android.settings
p119
(dp120
g10
F0.90000000000000002
ssVcom.huawei.android.launcher
p121
(dp122
g10
I1
sssg23
(dp123
Vcom.android.gallery3d
p124
(dp125
g10
I1
ssg29
(dp126
g10
I1
ssVcom.huawei.android.launcher
p127
(dp128
g10
F1.7
sssg25
(dp129
sg27
(dp130
g66
(dp131
g10
F1.3
ssg96
(dp132
g10
I1
ssVcom.huawei.android.launcher
p133
(dp134
g10
F2.3999999999999999
ssg68
(dp135
g10
F3.4000000000000004
ssg35
(dp136
g10
F1.8
sssg29
(dp137
Vcom.huawei.hidisk
p138
(dp139
g10
I1
ssVcom.tencent.mm
p140
(dp141
g10
F0.90000000000000002
ssg127
(dp142
g10
F2.5999999999999996
sssg31
(dp143
Vcom.android.settings
p144
(dp145
g10
F4.4000000000000004
ssg8
(dp146
g10
F1.3
ssVcom.android.gallery3d
p147
(dp148
g10
F1.3
ssg21
(dp149
g10
F0.40000000000000002
ssVcom.cootek.smartdialer
p150
(dp151
g10
I1
ssg25
(dp152
g10
F0.90000000000000002
ssVcom.huawei.android.launcher
p153
(dp154
g10
F22.299999999999997
ssVcom.lidroid.lockscreen
p155
(dp156
g10
F0.90000000000000002
ssVcom.android.phone
p157
(dp158
g10
F0.40000000000000002
ssVcom.tencent.mtt
p159
(dp160
g10
F0.90000000000000002
ssVcom.android.contacts
p161
(dp162
g10
F0.69999999999999996
ssVcom.yx
p163
(dp164
g10
F0.90000000000000002
ssVcom.chinamobile.cmccwifi
p165
(dp166
g10
F0.90000000000000002
sssg33
(dp167
Vcom.huawei.android.launcher
p168
(dp169
g10
I1
sssg35
(dp170
g45
(dp171
g10
F4.5
ssg105
(dp172
g10
F0.90000000000000002
ssVcom.taobao.taobao
p173
(dp174
g10
F2.0999999999999996
ssVcom.cootek.smartdialer
p175
(dp176
g10
F2.3999999999999999
ssVcom.huawei.android.launcher
p177
(dp178
g10
F14.799999999999997
ssVcom.android.systemui
p179
(dp180
g10
F0.80000000000000004
ssVcom.tencent.mm
p181
(dp182
g10
F0.40000000000000002
ssVcom.android.contacts
p183
(dp184
g10
F9.4000000000000004
sssg37
(dp185
Vcom.android.settings
p186
(dp187
g10
F3.9000000000000004
ssVcom.tencent.mm
p188
(dp189
g10
F0.90000000000000002
ssVcom.huawei.android.launcher
p190
(dp191
g10
F5.7000000000000011
ssg179
(dp192
g10
F0.69999999999999996
ssVcom.android.phone
p193
(dp194
g10
I1
sssg39
(dp195
g8
(dp196
g10
F1.7
ssg11
(dp197
g10
F2.3999999999999999
ssVcom.sina.weibo
p198
(dp199
g10
I1
ssg15
(dp200
g10
F11.5
ssg17
(dp201
g10
F6.1000000000000005
ssg19
(dp202
g10
F5.4000000000000004
ssg21
(dp203
g10
F1.7
ssg23
(dp204
g10
F1.7
ssg25
(dp205
g10
F1.7
ssg179
(dp206
g10
F4.9000000000000004
ssg29
(dp207
g10
F1.8999999999999999
ssg140
(dp208
g10
F18.599999999999998
ssg33
(dp209
g10
I1
ssg35
(dp210
g10
F13.800000000000002
ssg37
(dp211
g10
F6.4000000000000004
ssg41
(dp212
g10
F5.4000000000000004
ssg43
(dp213
g10
F3.7000000000000002
ssg45
(dp214
g10
F26.799999999999997
ssg47
(dp215
g10
I1
ssg49
(dp216
g10
I1
ssg51
(dp217
g10
F1.3
ssg163
(dp218
g10
F2.7000000000000002
ssg155
(dp219
g10
I2
sssg41
(dp220
Vcom.android.settings
p221
(dp222
g10
F0.90000000000000002
ssVcom.huawei.android.launcher
p223
(dp224
g10
I4
ssg81
(dp225
g10
F1.8999999999999999
sssg43
(dp226
Vcom.android.settings
p227
(dp228
g10
F3.1000000000000001
ssVcom.taobao.taobao
p229
(dp230
g10
F3.5999999999999996
ssg25
(dp231
g10
F0.40000000000000002
ssVcom.huawei.android.launcher
p232
(dp233
g10
F10.1
ssVcom.android.phone
p234
(dp235
g10
F0.69999999999999996
ssVcom.tencent.mm
p236
(dp237
g10
F2.2000000000000002
ssVcom.android.contacts
p238
(dp239
g10
F1.7000000000000002
sssg45
(dp240
Vcom.tencent.mobileqq
p241
(dp242
g10
I2
ssg179
(dp243
g10
F0.90000000000000002
ssVcom.android.gallery3d
p244
(dp245
g10
F0.90000000000000002
ssg173
(dp246
g10
F0.90000000000000002
ssg37
(dp247
g10
F2.5
ssVcom.huawei.android.launcher
p248
(dp249
g10
F18.699999999999996
ssg41
(dp250
g10
F0.40000000000000002
ssg157
(dp251
g10
F1.3
ssg11
(dp252
g10
F0.40000000000000002
ssg188
(dp253
g10
F3.2999999999999998
ssg161
(dp254
g10
F2.3999999999999999
sssg47
(dp255
Vcom.android.settings
p256
(dp257
g10
F1.6000000000000001
ssVcom.huawei.android.launcher
p258
(dp259
g10
F2.7000000000000002
ssVcom.tencent.mobileqq
p260
(dp261
g10
F1.3
sssg49
(dp262
Vcom.android.settings
p263
(dp264
g10
I1
ssVcom.huawei.android.launcher
p265
(dp266
g10
I2
ssVcom.android.contacts
p267
(dp268
g10
F1.3
ssVcom.android.phone
p269
(dp270
g10
F0.69999999999999996
sssg51
(dp271
Vcom.android.mediacenter
p272
(dp273
g10
I1
ssg64
(dp274
g10
F0.40000000000000002
ssg68
(dp275
g10
F0.69999999999999996
ssg70
(dp276
g10
F0.90000000000000002
sssg53
(dp277
Vcom.cootek.smartdialer
p278
(dp279
g10
F0.90000000000000002
ssVcom.android.settings
p280
(dp281
g10
F1.7999999999999998
ssVcom.huawei.android.launcher
p282
(dp283
g10
F3.4000000000000004
ssg21
(dp284
g10
F0.90000000000000002
sssg55
(dp285
Vcom.tencent.mm
p286
(dp287
g10
F0.90000000000000002
ssVcom.huawei.android.launcher
p288
(dp289
g10
F1.7
ssg163
(dp290
g10
F0.40000000000000002
ssssS'edge'
p291
g60
sS'pred'
p292
(dp293
g8
(dp294
Vcom.huawei.android.launcher
p295
g196
sVcom.tencent.mm
p296
g146
ssg11
(dp297
Vcom.android.settings
p298
g252
sg105
g97
sg173
g113
sg51
g273
sVcom.huawei.android.launcher
p299
g197
sg94
g132
ssg13
(dp300
Vcom.huawei.android.launcher
p301
g199
ssg15
(dp302
g144
g254
sVcom.zhaopin.social
p303
g268
sVcom.huawei.android.launcher
p304
g200
sVcom.android.phone
p305
g184
sg188
g162
sVcom.tencent.mobileqq
p306
g239
ssg17
(dp307
Vcom.android.settings
p308
g245
sg94
g131
sVcom.taobao.taobao
p309
g106
sVcom.huawei.hidisk
p310
g125
sVcom.huawei.android.launcher
p311
g201
sVcom.android.phone
p312
g172
sg96
g67
sg181
g148
ssg19
(dp313
g298
g246
sg70
g135
sg105
g90
sg51
g275
sVcom.huawei.android.launcher
p314
g202
sVcom.android.phone
p315
g174
sg11
g69
sVcom.sina.weibo
p316
g80
sVcom.tencent.mobileqq
p317
g230
ssg21
(dp318
Vcom.huawei.android.launcher
p319
g203
sg286
g149
sg163
g284
ssg23
(dp320
g29
g139
sg39
g204
ssg25
(dp321
Vcom.huawei.android.launcher
p322
g205
sg236
g152
sVcom.tencent.mobileqq
p323
g231
ssg27
(dp324
Vcom.android.settings
p325
g243
sg105
g95
sg19
g104
sVcom.cootek.smartdialer
p326
g192
sg51
g276
sVcom.huawei.android.launcher
p327
g206
sg77
g225
sg193
g180
sg11
g71
sg13
g82
ssg29
(dp328
g23
g126
sg31
g160
sg39
g207
ssg31
(dp329
Vcom.android.settings
p330
g253
sVcom.sina.weibo
p331
g74
sg147
g99
sVcom.taobao.taobao
p332
g115
sg175
g189
sg153
g208
sg55
g287
sVcom.android.phone
p333
g182
sg159
g141
sg323
g237
ssg33
(dp334
Vcom.huawei.android.launcher
p335
g209
ssg35
(dp336
g144
g251
sg68
g112
sg303
g270
sVcom.cootek.smartdialer
p337
g194
sg51
g274
sg133
g210
sg27
g136
sg272
g65
sg188
g158
sg15
g87
sVcom.tencent.mobileqq
p338
g235
ssg37
(dp339
Vcom.android.settings
p340
g247
sVcom.tencent.mm
p341
g151
sVcom.huawei.android.launcher
p342
g211
sVcom.yx
p343
g279
sVcom.android.phone
p344
g176
ssg39
(dp345
g41
g224
sg47
g259
sg45
g249
sg13
g76
sg27
g134
sg17
g92
sg33
g169
sg19
g109
sg21
g122
sg37
g191
sg23
g128
sg55
g289
sVcom.android.phone
p346
g178
sg29
g142
sg303
g266
sg31
g154
sg15
g85
sg163
g283
sg43
g233
ssg41
(dp347
g308
g250
sg13
g78
sg244
g93
sg79
g111
sVcom.huawei.android.launcher
p348
g212
sVcom.tencent.mm
p349
g166
ssg43
(dp350
Vcom.android.mms
p351
g261
sVcom.huawei.android.launcher
p352
g213
sVcom.taobao.taobao
p353
g117
sVcom.android.settings
p354
g242
ssg45
(dp355
g116
g228
sg47
g257
sVcom.taobao.taobao
p356
g102
sg21
g120
sg37
g187
sVcom.huawei.android.launcher
p357
g214
sg165
g222
sg346
g171
sg49
g264
sg188
g145
sg53
g281
ssg47
(dp358
Vcom.huawei.android.launcher
p359
g215
ssg49
(dp360
Vcom.huawei.android.launcher
p361
g216
ssg51
(dp362
g11
g63
sg299
g217
sg173
g107
ssg53
(dp363
g286
g164
sg288
g218
sg55
g290
ssg55
(dp364
Vcom.huawei.android.launcher
p365
g219
sVcom.tencent.mm
p366
g156
sssS'adj'
p367
g60
sb.