ccopy_reg
_reconstructor
p1
(cnetworkx.classes.digraph
DiGraph
p2
c__builtin__
object
p3
NtRp4
(dp5
S'node'
p6
(dp7
Vcom.android.browser
p8
(dp9
S'weight'
p10
F0.012206057854601601
ssVcom.suning.mobile.ebuy
p11
(dp12
g10
F0.0037487947894449401
ssVcom.autonavi.minimap
p13
(dp14
g10
F0.00059895312433277969
ssVcom.soufun.app
p15
(dp16
g10
F0.0010776661280208926
ssVcom.sdu.didi.psnger
p17
(dp18
g10
F0.0018125917252322207
ssVcom.android.deskclock
p19
(dp20
g10
F0.00063041782880054304
ssVcom.UCMobile
p21
(dp22
g10
F0.006124379976761068
ssVcom.android.launcher
p23
(dp24
g10
F0.71060450439719247
ssVcom.eg.android.AlipayGphone
p25
(dp26
g10
F0.042872907316218033
ssVcom.wacai365
p27
(dp28
g10
F0.00015957100122937094
ssVcom.miui.weather2
p29
(dp30
g10
F1.5732352233881644e-05
ssVcom.miui.cleanmaster
p31
(dp32
g10
F3.0340965022486025e-05
ssVme.ele
p33
(dp34
g10
F0.00021463423404795669
ssVcom.android.gamecenter
p35
(dp36
g10
F0.0015361518216940148
ssVcom.android.phone
p37
(dp38
g10
F0.0089146250193845051
ssVcn.com.sina.sports
p39
(dp40
g10
F0.0041544647291900313
ssVcom.suning.snmessenger
p41
(dp42
g10
F0.0029981368399997301
ssVcom.miui.gallery
p43
(dp44
g10
F0.0022845622922486701
ssVcom.tencent.mm
p45
(dp46
g10
F0.044649539379201381
ssVcom.miui.antispam
p47
(dp48
g10
F1.1237394452772603e-06
ssVcom.sankuai.meituan.takeoutnew
p49
(dp50
g10
F0.0029352074310642039
ssVqsbk.app
p51
(dp52
g10
F0.0016788667312442268
ssVandroid.zhibo8
p53
(dp54
g10
F0.0058749098199095164
ssVcom.kugou.android
p55
(dp56
g10
F0.0015867200967314915
ssVcom.yipiao
p57
(dp58
g10
F0.00028318234020986959
ssVcom.xiaomi.market
p59
(dp60
g10
F4.0454620029981367e-05
ssVcom.android.fileexplorer
p61
(dp62
g10
F0.0018620362608244203
ssVcom.tencent.qqlive
p63
(dp64
g10
F0.018930514695140725
ssVcom.miui.yellowpage
p65
(dp66
g10
F7.8661761169408219e-06
ssVcom.funcity.taxi.passenger
p67
(dp68
g10
F0.0012226285164616592
ssVcom.duokan.reader
p69
(dp70
g10
F0.0027183257181256923
ssVcom.tencent.mobileqq
p71
(dp72
g10
F0.0044803491683204364
ssVcom.miui.player
p73
(dp74
g10
F0.00039892750307342741
ssVcom.android.settings
p75
(dp76
g10
F0.00011462142341828054
ssVcom.android.mms
p77
(dp78
g10
F0.0027183257181256923
ssVcom.miui.video
p79
(dp80
g10
F7.8661761169408219e-06
ssVcmb.pb
p81
(dp82
g10
F6.7424366716635611e-05
ssVcom.cnvcs.xiangqi
p83
(dp84
g10
F0.10905217072748644
ssVcom.android.quicksearchbox
p85
(dp86
g10
F1.3484873343327122e-05
ssVcom.android.camera
p87
(dp88
g10
F0.0013709621232382576
sssS'node_dict_factory'
p89
c__builtin__
dict
p90
sS'edge_attr_dict_factory'
p91
g90
sS'succ'
p92
(dp93
g8
(dp94
Vqsbk.app
p95
(dp96
g10
F1.3
ssVcom.tencent.qqlive
p97
(dp98
g10
F0.90000000000000002
ssVcom.android.launcher
p99
(dp100
g10
F27.299999999999997
ssg13
(dp101
g10
F1.8999999999999999
ssVandroid.zhibo8
p102
(dp103
g10
F0.40000000000000002
ssg57
(dp104
g10
F0.90000000000000002
ssVcom.cnvcs.xiangqi
p105
(dp106
g10
F4.4000000000000004
ssVcom.android.phone
p107
(dp108
g10
I1
ssVcn.com.sina.sports
p109
(dp110
g10
F0.90000000000000002
ssVcom.android.camera
p111
(dp112
g10
F0.90000000000000002
ssVcom.sankuai.meituan.takeoutnew
p113
(dp114
g10
F0.40000000000000002
ssVcom.tencent.mm
p115
(dp116
g10
F3.3999999999999999
ssVcom.android.settings
p117
(dp118
g10
F1.3
sssg11
(dp119
Vcom.android.camera
p120
(dp121
g10
F0.69999999999999996
ssVcom.tencent.mm
p122
(dp123
g10
F1.3
ssVcom.android.launcher
p124
(dp125
g10
I1
ssVcom.tencent.mobileqq
p126
(dp127
g10
I1
sssg13
(dp128
Vcom.android.browser
p129
(dp130
g10
I1
ssg115
(dp131
g10
F0.69999999999999996
ssg83
(dp132
g10
F0.90000000000000002
ssg99
(dp133
g10
F2.2999999999999998
sssg15
(dp134
Vcom.tencent.qqlive
p135
(dp136
g10
F0.90000000000000002
ssVcom.android.launcher
p137
(dp138
g10
I1
sssg17
(dp139
Vcom.android.settings
p140
(dp141
g10
I1
ssVcom.android.mms
p142
(dp143
g10
I1
ssVcom.android.launcher
p144
(dp145
g10
F3.7000000000000002
ssg67
(dp146
g10
F1.3
sssg19
(dp147
Vcom.tencent.mm
p148
(dp149
g10
F0.90000000000000002
ssVcom.android.launcher
p150
(dp151
g10
I1
sssg21
(dp152
Vcom.tencent.qqlive
p153
(dp154
g10
F0.69999999999999996
ssVandroid.zhibo8
p155
(dp156
g10
F5.7000000000000002
ssVcom.android.launcher
p157
(dp158
g10
F3.5999999999999996
sssg23
(dp159
g8
(dp160
g10
F49.40000000000002
ssg11
(dp161
g10
I2
ssg13
(dp162
g10
F6.5999999999999996
ssg15
(dp163
g10
I1
ssg17
(dp164
g10
F9.8000000000000007
ssVcom.android.deskclock
p165
(dp166
g10
I8
ssg21
(dp167
g10
F5.4000000000000012
ssg25
(dp168
g10
F13.399999999999999
ssg27
(dp169
g10
I1
ssg29
(dp170
g10
F2.7000000000000002
ssg33
(dp171
g10
F3.1000000000000001
ssg37
(dp172
g10
F65.199999999999989
ssg39
(dp173
g10
F7.2000000000000002
ssg41
(dp174
g10
I3
ssg43
(dp175
g10
F13.600000000000001
ssVcom.tencent.mm
p176
(dp177
g10
F92.70000000000006
ssg47
(dp178
g10
F0.90000000000000002
ssg49
(dp179
g10
F10.299999999999999
ssg51
(dp180
g10
F8.8000000000000007
ssg53
(dp181
g10
F16.899999999999999
ssg57
(dp182
g10
F1.7
ssg59
(dp183
g10
I2
ssg61
(dp184
g10
I1
ssg63
(dp185
g10
F15.599999999999998
ssg65
(dp186
g10
F0.90000000000000002
ssg67
(dp187
g10
F2.7000000000000002
ssg69
(dp188
g10
I2
ssg71
(dp189
g10
F3.2999999999999998
ssg73
(dp190
g10
I1
ssg75
(dp191
g10
F27.499999999999996
ssg77
(dp192
g10
F18.5
ssg79
(dp193
g10
I1
ssg81
(dp194
g10
F1.7
ssg83
(dp195
g10
F54.600000000000016
ssg85
(dp196
g10
F6.1000000000000005
ssg87
(dp197
g10
F20.899999999999999
sssg25
(dp198
Vcom.android.settings
p199
(dp200
g10
F0.90000000000000002
ssVcom.android.mms
p201
(dp202
g10
F5.2999999999999998
ssg81
(dp203
g10
F0.90000000000000002
ssVcom.android.launcher
p204
(dp205
g10
F5.7999999999999998
ssg45
(dp206
g10
F2.8999999999999999
ssVcom.sankuai.meituan.takeoutnew
p207
(dp208
g10
F3.0999999999999996
sssg27
(dp209
sg29
(dp210
Vcom.android.launcher
p211
(dp212
g10
F1.3999999999999999
ssVcom.android.phone
p213
(dp214
g10
F1.6000000000000001
sssg31
(dp215
Vcom.android.fileexplorer
p216
(dp217
g10
F1.7
ssVcom.miui.gallery
p218
(dp219
g10
F1.3
sssg33
(dp220
g75
(dp221
g10
F1.3
ssg77
(dp222
g10
F0.69999999999999996
ssVcom.android.launcher
p223
(dp224
g10
F3.1000000000000001
ssg71
(dp225
g10
I1
ssg25
(dp226
g10
F0.69999999999999996
ssg49
(dp227
g10
F1.3
sssg35
(dp228
Vcom.tencent.mm
p229
(dp230
g10
F0.90000000000000002
ssVcom.android.launcher
p231
(dp232
g10
I1
sssg37
(dp233
Vcom.android.browser
p234
(dp235
g10
F1.8999999999999999
ssVcom.cnvcs.xiangqi
p236
(dp237
g10
F1.3
ssVcom.miui.weather2
p238
(dp239
g10
F0.40000000000000002
ssVcom.tencent.qqlive
p240
(dp241
g10
F1.7
ssVcom.android.settings
p242
(dp243
g10
F2.7999999999999998
ssVcom.android.mms
p244
(dp245
g10
F1.3
ssg57
(dp246
g10
F0.40000000000000002
ssVcn.com.sina.sports
p247
(dp248
g10
F0.69999999999999996
ssVcom.tencent.mobileqq
p249
(dp250
g10
F1.6000000000000001
ssVcom.android.launcher
p251
(dp252
g10
F26.099999999999991
ssg65
(dp253
g10
I1
ssg85
(dp254
g10
F1.7000000000000002
ssVcom.android.camera
p255
(dp256
g10
F0.90000000000000002
ssg43
(dp257
g10
F0.69999999999999996
ssVcom.tencent.mm
p258
(dp259
g10
F4.4000000000000004
ssg47
(dp260
g10
I1
ssVcom.sankuai.meituan.takeoutnew
p261
(dp262
g10
F2.8999999999999999
sssg39
(dp263
Vcom.android.browser
p264
(dp265
g10
F0.90000000000000002
ssVcom.tencent.qqlive
p266
(dp267
g10
F0.40000000000000002
ssVcom.android.launcher
p268
(dp269
g10
F4.7000000000000002
ssVcom.UCMobile
p270
(dp271
g10
F0.69999999999999996
ssVcom.cnvcs.xiangqi
p272
(dp273
g10
F0.90000000000000002
ssVandroid.zhibo8
p274
(dp275
g10
F2.2000000000000002
sssg41
(dp276
Vcom.android.quicksearchbox
p277
(dp278
g10
F0.90000000000000002
ssVcom.android.launcher
p279
(dp280
g10
I1
sssg43
(dp281
Vcom.miui.cleanmaster
p282
(dp283
g10
F1.3
ssVcom.android.camera
p284
(dp285
g10
F4.5999999999999996
ssVcom.tencent.mm
p286
(dp287
g10
F3.1999999999999997
ssVcom.android.launcher
p288
(dp289
g10
F6.2999999999999998
ssVcom.android.fileexplorer
p290
(dp291
g10
F2.7000000000000002
sssg45
(dp292
g8
(dp293
g10
F8.4000000000000021
ssg95
(dp294
g10
F0.40000000000000002
ssg238
(dp295
g10
F0.90000000000000002
ssVcom.cnvcs.xiangqi
p296
(dp297
g10
F7.8000000000000007
ssg61
(dp298
g10
F0.90000000000000002
ssVcom.android.settings
p299
(dp300
g10
F11.9
ssVcom.android.mms
p301
(dp302
g10
F3.2999999999999998
ssVandroid.zhibo8
p303
(dp304
g10
F2.7999999999999998
ssg39
(dp305
g10
F0.90000000000000002
ssVcom.tencent.qqlive
p306
(dp307
g10
F1.3
ssVcom.android.launcher
p308
(dp309
g10
F60.500000000000021
ssVcom.android.phone
p310
(dp311
g10
F11.500000000000002
ssg13
(dp312
g10
F0.69999999999999996
ssg120
(dp313
g10
F3.6999999999999997
ssVcom.miui.gallery
p314
(dp315
g10
F0.40000000000000002
ssVcom.eg.android.AlipayGphone
p316
(dp317
g10
F4.2000000000000002
ssVcom.sankuai.meituan.takeoutnew
p318
(dp319
g10
F6.7000000000000011
sssg47
(dp320
g247
(dp321
g10
F0.90000000000000002
ssg264
(dp322
g10
F0.40000000000000002
ssVcom.android.launcher
p323
(dp324
g10
F1.7
sssg49
(dp325
g199
(dp326
g10
F6.2000000000000011
ssg301
(dp327
g10
F1.3999999999999999
ssg308
(dp328
g10
F7.2000000000000002
ssVcom.android.phone
p329
(dp330
g10
F3.2999999999999998
ssg45
(dp331
g10
F7.4000000000000004
ssg25
(dp332
g10
I2
sssg51
(dp333
Vcom.android.browser
p334
(dp335
g10
F1.3
ssVcom.android.phone
p336
(dp337
g10
F0.69999999999999996
ssVcom.tencent.qqlive
p338
(dp339
g10
F1.8
ssVcom.android.launcher
p340
(dp341
g10
F6.4000000000000004
ssg113
(dp342
g10
F1.3
sssg53
(dp343
Vcom.android.browser
p344
(dp345
g10
F0.90000000000000002
ssg266
(dp346
g10
F2.6000000000000001
ssg157
(dp347
g10
F9.8000000000000007
ssg21
(dp348
g10
F5.7000000000000002
ssVcom.cnvcs.xiangqi
p349
(dp350
g10
F1.3
ssVcom.tencent.mm
p351
(dp352
g10
F0.90000000000000002
sssg55
(dp353
Vcom.android.settings
p354
(dp355
g10
F0.40000000000000002
ssVcom.cnvcs.xiangqi
p356
(dp357
g10
F0.90000000000000002
ssVcom.android.launcher
p358
(dp359
g10
F1.7
sssg57
(dp360
Vqsbk.app
p361
(dp362
g10
F0.90000000000000002
ssVcom.tencent.qqlive
p363
(dp364
g10
F0.40000000000000002
ssVcom.android.launcher
p365
(dp366
g10
F1.7
sssg59
(dp367
sg61
(dp368
g218
(dp369
g10
F3.3999999999999999
ssg31
(dp370
g10
F2.7000000000000002
ssVcom.android.launcher
p371
(dp372
g10
I1
sssg63
(dp373
g244
(dp374
g10
F1.7
ssVcom.cnvcs.xiangqi
p375
(dp376
g10
F0.90000000000000002
ssVcom.android.launcher
p377
(dp378
g10
I4
ssVcom.android.phone
p379
(dp380
g10
I1
sssg65
(dp381
Vcom.android.launcher
p382
(dp383
g10
I1
ssVcom.android.phone
p384
(dp385
g10
F0.90000000000000002
sssg67
(dp386
Vcom.android.phone
p387
(dp388
g10
I1
sssg69
(dp389
Vcom.android.launcher
p390
(dp391
g10
I1
sssg71
(dp392
g223
(dp393
g10
F3.7999999999999998
ssVcom.suning.mobile.ebuy
p394
(dp395
g10
I1
ssg75
(dp396
g10
F0.69999999999999996
ssg77
(dp397
g10
F2.2999999999999998
ssVme.ele
p398
(dp399
g10
I1
ssVcom.tencent.qqlive
p400
(dp401
g10
F0.69999999999999996
ssVcom.tencent.mm
p402
(dp403
g10
F0.90000000000000002
sssg73
(dp404
sg75
(dp405
g8
(dp406
g10
F2.7000000000000002
ssg63
(dp407
g10
F0.40000000000000002
ssVcom.cnvcs.xiangqi
p408
(dp409
g10
F1.6000000000000001
ssg13
(dp410
g10
F0.40000000000000002
ssg77
(dp411
g10
I4
ssg303
(dp412
g10
F0.90000000000000002
ssVcom.sdu.didi.psnger
p413
(dp414
g10
I1
ssVme.ele
p415
(dp416
g10
F0.69999999999999996
ssVcom.android.launcher
p417
(dp418
g10
F15.700000000000005
ssVcom.android.phone
p419
(dp420
g10
F4.9000000000000004
ssg39
(dp421
g10
F0.69999999999999996
ssg45
(dp422
g10
F18.799999999999997
ssg316
(dp423
g10
F0.40000000000000002
ssg318
(dp424
g10
F4.2000000000000002
sssg77
(dp425
g400
(dp426
g10
F2.2999999999999998
ssg417
(dp427
g10
F10.800000000000001
ssVcom.tencent.mm
p428
(dp429
g10
F3.6000000000000001
ssg415
(dp430
g10
F0.90000000000000002
ssVcom.cnvcs.xiangqi
p431
(dp432
g10
F1.3
ssVcom.tencent.mobileqq
p433
(dp434
g10
I1
ssVcom.eg.android.AlipayGphone
p435
(dp436
g10
F1.3999999999999999
ssg49
(dp437
g10
F0.40000000000000002
sssg79
(dp438
Vcom.android.browser
p439
(dp440
g10
F0.90000000000000002
ssVcom.android.launcher
p441
(dp442
g10
I1
sssg81
(dp443
Vcom.eg.android.AlipayGphone
p444
(dp445
g10
F1.3
ssVcom.android.launcher
p446
(dp447
g10
F1.7
sssg83
(dp448
Vcom.android.browser
p449
(dp450
g10
F4
ssg51
(dp451
g10
F2.6000000000000001
ssVcom.android.launcher
p452
(dp453
g10
F35.499999999999993
ssVcom.android.settings
p454
(dp455
g10
F4.4000000000000004
ssVcom.android.mms
p456
(dp457
g10
F0.90000000000000002
ssVcom.sdu.didi.psnger
p458
(dp459
g10
F1.3
ssg19
(dp460
g10
I1
ssVcom.android.quicksearchbox
p461
(dp462
g10
F0.90000000000000002
ssg63
(dp463
g10
F1.3
ssVcom.android.phone
p464
(dp465
g10
F1.8999999999999999
ssVcn.com.sina.sports
p466
(dp467
g10
F1.3
ssg255
(dp468
g10
F0.40000000000000002
ssVcom.tencent.mm
p469
(dp470
g10
F8.0999999999999996
sssg85
(dp471
Vcom.android.browser
p472
(dp473
g10
F0.90000000000000002
ssVcom.android.launcher
p474
(dp475
g10
F1.7
sssg87
(dp476
Vcom.android.settings
p477
(dp478
g10
F0.90000000000000002
ssg43
(dp479
g10
F11.799999999999999
ssVcom.tencent.mm
p480
(dp481
g10
F5.1000000000000005
ssVandroid.zhibo8
p482
(dp483
g10
F0.69999999999999996
ssVcom.android.launcher
p484
(dp485
g10
F11.9
ssssS'edge'
p486
g93
sS'graph'
p487
(dp488
sS'adjlist_dict_factory'
p489
g90
sS'adj'
p490
g93
sS'pred'
p491
(dp492
g8
(dp493
Vqsbk.app
p494
g335
sVcom.android.launcher
p495
g160
sVcom.android.settings
p496
g406
sg79
g440
sg247
g265
sVcom.android.quicksearchbox
p497
g473
sVcom.cnvcs.xiangqi
p498
g450
sg107
g235
sg13
g130
sVcom.tencent.mm
p499
g293
sg47
g322
sVandroid.zhibo8
p500
g345
ssg11
(dp501
g126
g395
sVcom.android.launcher
p502
g161
ssg13
(dp503
g496
g410
sVcom.tencent.mm
p504
g312
sg495
g162
sg8
g101
ssg15
(dp505
Vcom.android.launcher
p506
g163
ssg17
(dp507
g140
g414
sVcom.cnvcs.xiangqi
p508
g459
sVcom.android.launcher
p509
g164
ssg19
(dp510
Vcom.android.launcher
p511
g166
sVcom.cnvcs.xiangqi
p512
g460
ssg21
(dp513
g109
g271
sg53
g348
sVcom.android.launcher
p514
g167
ssg23
(dp515
g8
g100
sVcom.suning.mobile.ebuy
p516
g125
sg13
g133
sg15
g138
sVcom.sdu.didi.psnger
p517
g145
sVcom.android.deskclock
p518
g151
sg21
g158
sg316
g205
sg238
g212
sg33
g224
sg35
g232
sg37
g252
sg39
g269
sVcom.suning.snmessenger
p519
g280
sVcom.miui.gallery
p520
g289
sVcom.tencent.mm
p521
g309
sg47
g324
sVcom.sankuai.meituan.takeoutnew
p522
g328
sg51
g341
sg53
g347
sg55
g359
sg57
g366
sg61
g372
sg97
g378
sg65
g383
sVcom.duokan.reader
p523
g391
sg71
g393
sg75
g418
sg77
g427
sg79
g442
sg81
g447
sg105
g453
sg497
g475
sg87
g485
ssg25
(dp524
Vcom.android.settings
p525
g423
sg456
g436
sg81
g445
sg415
g226
sg417
g168
sVcom.tencent.mm
p526
g317
sg49
g332
ssg27
(dp527
Vcom.android.launcher
p528
g169
ssg29
(dp529
Vcom.tencent.mm
p530
g295
sVcom.android.launcher
p531
g170
sVcom.android.phone
p532
g239
ssg31
(dp533
Vcom.android.fileexplorer
p534
g370
sg218
g283
ssg33
(dp535
g75
g416
sg71
g399
sg77
g430
sg23
g171
ssg35
(dp536
sg37
(dp537
Vcom.android.browser
p538
g108
sg95
g337
sg238
g214
sVcom.cnvcs.xiangqi
p539
g465
sVcom.android.settings
p540
g420
sVcom.funcity.taxi.passenger
p541
g388
sg306
g380
sVcom.android.launcher
p542
g172
sg65
g385
sVcom.tencent.mm
p543
g311
sVcom.sankuai.meituan.takeoutnew
p544
g330
ssg39
(dp545
Vcom.android.browser
p546
g110
sVcom.android.launcher
p547
g173
sVcom.android.settings
p548
g421
sVcom.cnvcs.xiangqi
p549
g467
sVcom.android.phone
p550
g248
sVcom.tencent.mm
p551
g305
sg47
g321
ssg41
(dp552
Vcom.android.launcher
p553
g174
ssg43
(dp554
Vcom.tencent.mm
p555
g315
sg534
g369
sVcom.android.launcher
p556
g175
sg464
g257
sg255
g479
sg31
g219
ssg45
(dp557
g8
g116
sg105
g470
sg516
g123
sg199
g422
sVcom.android.mms
p558
g429
sVandroid.zhibo8
p559
g352
sg518
g149
sg35
g230
sVcom.android.launcher
p560
g177
sg310
g259
sg13
g131
sg87
g481
sg520
g287
sVcom.tencent.mobileqq
p561
g403
sg25
g206
sg49
g331
ssg47
(dp562
Vcom.android.launcher
p563
g178
sg550
g260
ssg49
(dp564
Vcom.android.browser
p565
g114
sg95
g342
sg199
g424
sg77
g437
sg415
g227
sg417
g179
sg329
g262
sg45
g319
sg25
g208
ssg51
(dp566
g57
g362
sg565
g96
sVcom.tencent.mm
p567
g294
sVcom.android.launcher
p568
g180
sVcom.cnvcs.xiangqi
p569
g451
ssg53
(dp570
g546
g103
sVcom.android.settings
p571
g412
sg21
g156
sg514
g181
sg39
g275
sVcom.android.camera
p572
g483
sVcom.tencent.mm
p573
g304
ssg55
(dp574
sg57
(dp575
Vcom.android.browser
p576
g104
sVcom.android.launcher
p577
g182
sVcom.android.phone
p578
g246
ssg59
(dp579
Vcom.android.launcher
p580
g183
ssg61
(dp581
g31
g217
sg218
g291
sVcom.tencent.mm
p582
g298
sVcom.android.launcher
p583
g184
ssg63
(dp584
Vcom.android.browser
p585
g98
sg51
g339
sVcom.android.launcher
p586
g185
sVcom.android.settings
p587
g407
sVcom.tencent.mm
p588
g307
sVcom.android.mms
p589
g426
sg57
g364
sVcom.UCMobile
p590
g154
sg408
g463
sg379
g241
sg39
g267
sg433
g401
sg15
g136
sg274
g346
ssg65
(dp591
Vcom.android.launcher
p592
g186
sVcom.android.phone
p593
g253
ssg67
(dp594
Vcom.android.launcher
p595
g187
sg458
g146
ssg69
(dp596
Vcom.android.launcher
p597
g188
ssg71
(dp598
g33
g225
sg589
g434
sVcom.suning.mobile.ebuy
p599
g127
sg23
g189
sVcom.android.phone
p600
g250
ssg73
(dp601
Vcom.android.launcher
p602
g190
ssg75
(dp603
Vcom.android.browser
p604
g118
sg105
g455
sg71
g396
sg55
g355
sVcom.sdu.didi.psnger
p605
g141
sg33
g221
sg223
g191
sg37
g243
sg87
g478
sVcom.tencent.mm
p606
g300
sg25
g200
sg49
g326
ssg77
(dp607
Vcom.cnvcs.xiangqi
p608
g457
sg306
g374
sg75
g411
sVcom.sdu.didi.psnger
p609
g143
sg398
g222
sg223
g192
sg379
g245
sVcom.sankuai.meituan.takeoutnew
p610
g327
sg606
g302
sVcom.eg.android.AlipayGphone
p611
g202
sg71
g397
ssg79
(dp612
Vcom.android.launcher
p613
g193
ssg81
(dp614
Vcom.eg.android.AlipayGphone
p615
g203
sVcom.android.launcher
p616
g194
ssg83
(dp617
Vcom.android.browser
p618
g106
sVcom.tencent.qqlive
p619
g376
sVcom.autonavi.minimap
p620
g132
sVcom.android.phone
p621
g237
sg55
g357
sVcom.android.mms
p622
g432
sVcom.android.launcher
p623
g195
sg587
g409
sg466
g273
sg469
g297
sVandroid.zhibo8
p624
g350
ssg85
(dp625
g519
g278
sVcom.cnvcs.xiangqi
p626
g462
sVcom.android.launcher
p627
g196
sVcom.android.phone
p628
g254
ssg87
(dp629
Vcom.android.browser
p630
g112
sVcom.android.launcher
p631
g197
sg516
g121
sg539
g468
sg464
g256
sVcom.miui.gallery
p632
g285
sg122
g313
sssb.