ccopy_reg
_reconstructor
p1
(cnetworkx.classes.digraph
DiGraph
p2
c__builtin__
object
p3
NtRp4
(dp5
S'node'
p6
(dp7
Vcom.android.browser
p8
(dp9
S'weight'
p10
F0.00047781220517646142
ssVcom.youku.phone
p11
(dp12
g10
F0.009897538535798129
ssVcom.android.thememanager
p13
(dp14
g10
F5.3022527870347119e-05
ssVcom.tencent.qqmusic
p15
(dp16
g10
F0.041240556504949989
ssVcom.hunantv.imgo.activity
p17
(dp18
g10
F0.00058995180435052891
ssVcom.sina.weibo
p19
(dp20
g10
F0.0079637399043888026
ssVcom.miui.weather2
p21
(dp22
g10
F2.1330902016806314e-05
ssVcom.android.bluetooth
p23
(dp24
g10
F6.7039977767105557e-06
ssVcom.android.phone
p25
(dp26
g10
F3.6567260600239394e-06
ssVcom.miui.gallery
p27
(dp28
g10
F0.0016814845332676748
ssVcom.tencent.mm
p29
(dp30
g10
F0.0042088916950875545
ssVcom.android.calculator2
p31
(dp32
g10
F0.00013956504462424703
ssVcom.android.systemui
p33
(dp34
g10
F1.0970178180071819e-05
ssVcom.snda.wifilocating
p35
(dp36
g10
F1.7674175956782375e-05
ssVcom.xiaomi.market
p37
(dp38
g10
F2.9863262823528839e-05
ssVcom.android.fileexplorer
p39
(dp40
g10
F0.00027303554581512078
ssVcom.qiyi.video
p41
(dp42
g10
F0.038958149989151709
ssVcom.happyelements.AndroidAnimal
p43
(dp44
g10
F0.013350097390804064
ssVcom.tencent.mobileqq
p45
(dp46
g10
F0.0040705455591499816
ssVcom.miui.home
p47
(dp48
g10
F0.826533448073271
ssVcom.miui.notes
p49
(dp50
g10
F3.7786169286914043e-05
ssVcom.android.calendar
p51
(dp52
g10
F0.00010909232745738086
ssVcom.android.settings
p53
(dp54
g10
F0.048307179615946251
ssVcom.miui.video
p55
(dp56
g10
F8.5323608067225243e-06
ssVcom.le123.ysdq
p57
(dp58
g10
F0.00041686677084272911
ssVcom.qzone
p59
(dp60
g10
F0.0012213465040479957
ssVcom.miui.barcodescanner
p61
(dp62
g10
F5.4850890900359094e-06
ssVcom.android.camera
p63
(dp64
g10
F0.00036567260600239393
sssS'graph'
p65
(dp66
sS'succ'
p67
(dp68
g8
(dp69
Vcom.miui.gallery
p70
(dp71
g10
F2
ssVcom.miui.weather2
p72
(dp73
g10
F0.90000000000000002
ssVcom.youku.phone
p74
(dp75
g10
F2.2999999999999998
ssVcom.android.calendar
p76
(dp77
g10
F1.1000000000000001
ssVcom.sina.weibo
p78
(dp79
g10
F1.7999999999999998
ssg57
(dp80
g10
F0.40000000000000002
ssVcom.android.fileexplorer
p81
(dp82
g10
I15
ssVcom.qzone
p83
(dp84
g10
F1.6000000000000001
ssVcom.tencent.qqmusic
p85
(dp86
g10
F3.3999999999999999
ssVcom.happyelements.AndroidAnimal
p87
(dp88
g10
F2.6000000000000001
ssVcom.android.camera
p89
(dp90
g10
F1.8
ssVcom.miui.home
p91
(dp92
g10
F49.199999999999996
ssVcom.tencent.mm
p93
(dp94
g10
F3.2000000000000002
ssVcom.tencent.mobileqq
p95
(dp96
g10
F2.2999999999999998
sssg11
(dp97
Vcom.android.browser
p98
(dp99
g10
F5.3000000000000007
ssVcom.miui.gallery
p100
(dp101
g10
F1.8
ssVcom.miui.weather2
p102
(dp103
g10
F0.40000000000000002
ssg51
(dp104
g10
F0.90000000000000002
ssVcom.sina.weibo
p105
(dp106
g10
F0.90000000000000002
ssVcom.qiyi.video
p107
(dp108
g10
F0.40000000000000002
ssVcom.android.fileexplorer
p109
(dp110
g10
F10.900000000000002
ssVcom.qzone
p111
(dp112
g10
F0.90000000000000002
ssg15
(dp113
g10
F5.0999999999999996
ssVcom.happyelements.AndroidAnimal
p114
(dp115
g10
F3.1000000000000001
ssVcom.android.camera
p116
(dp117
g10
F0.90000000000000002
ssVcom.miui.home
p118
(dp119
g10
F37.100000000000001
ssVcom.tencent.mobileqq
p120
(dp121
g10
F2.2999999999999998
sssg13
(dp122
Vcom.miui.gallery
p123
(dp124
g10
F0.90000000000000002
ssVcom.qiyi.video
p125
(dp126
g10
F0.40000000000000002
ssVcom.android.fileexplorer
p127
(dp128
g10
F1.8999999999999999
ssVcom.qzone
p129
(dp130
g10
F0.40000000000000002
ssg33
(dp131
g10
F0.90000000000000002
ssVcom.android.camera
p132
(dp133
g10
F0.40000000000000002
ssVcom.miui.home
p134
(dp135
g10
F8.5
ssVcom.tencent.mm
p136
(dp137
g10
F1.3
sssg15
(dp138
Vcom.android.browser
p139
(dp140
g10
F4.2999999999999998
ssVcom.miui.gallery
p141
(dp142
g10
F5.1000000000000005
ssVcom.miui.weather2
p143
(dp144
g10
F0.40000000000000002
ssVcom.youku.phone
p145
(dp146
g10
F3.1999999999999997
ssVcom.android.calendar
p147
(dp148
g10
F1.3
ssVcom.sina.weibo
p149
(dp150
g10
F1.3999999999999999
ssg37
(dp151
g10
F0.40000000000000002
ssVcom.le123.ysdq
p152
(dp153
g10
I3
ssg109
(dp154
g10
F10.800000000000002
ssg59
(dp155
g10
F2
ssVcom.hunantv.imgo.activity
p156
(dp157
g10
F1.8999999999999999
ssg43
(dp158
g10
F15.400000000000004
ssVcom.android.camera
p159
(dp160
g10
F1.8
ssVcom.miui.home
p161
(dp162
g10
F73.000000000000028
ssg29
(dp163
g10
F2.2999999999999998
ssVcom.tencent.mobileqq
p164
(dp165
g10
F3.6999999999999997
sssg17
(dp166
Vcom.android.browser
p167
(dp168
g10
F1.3999999999999999
ssVcom.miui.gallery
p169
(dp170
g10
F1.6000000000000001
ssVcom.sina.weibo
p171
(dp172
g10
I1
ssVcom.xiaomi.market
p173
(dp174
g10
F0.40000000000000002
ssVcom.android.fileexplorer
p175
(dp176
g10
F1.8
ssg35
(dp177
g10
F0.90000000000000002
ssVcom.android.camera
p178
(dp179
g10
F1.8
ssVcom.happyelements.AndroidAnimal
p180
(dp181
g10
F0.90000000000000002
ssVcom.tencent.qqmusic
p182
(dp183
g10
I1
ssVcom.miui.home
p184
(dp185
g10
F13.899999999999999
ssVcom.tencent.mm
p186
(dp187
g10
F0.69999999999999996
sssg19
(dp188
Vcom.android.browser
p189
(dp190
g10
F1.3999999999999999
ssVcom.miui.gallery
p191
(dp192
g10
F3.1000000000000001
ssVcom.miui.weather2
p193
(dp194
g10
F1.3
ssVcom.youku.phone
p195
(dp196
g10
F2.6000000000000001
ssVcom.android.calendar
p197
(dp198
g10
F2.3999999999999999
ssVcom.tencent.mobileqq
p199
(dp200
g10
F2.6000000000000001
ssVcom.miui.notes
p201
(dp202
g10
F1.3
ssVcom.android.fileexplorer
p203
(dp204
g10
F3.5
ssVcom.qzone
p205
(dp206
g10
F3.1000000000000001
ssVcom.tencent.qqmusic
p207
(dp208
g10
F10.000000000000002
ssVcom.hunantv.imgo.activity
p209
(dp210
g10
F1.3
ssVcom.happyelements.AndroidAnimal
p211
(dp212
g10
F6.4000000000000012
ssg159
(dp213
g10
F0.80000000000000004
ssVcom.miui.home
p214
(dp215
g10
F79.500000000000057
ssVcom.tencent.mm
p216
(dp217
g10
F6.7000000000000011
sssg21
(dp218
Vcom.android.browser
p219
(dp220
g10
F1.3999999999999999
ssVcom.youku.phone
p221
(dp222
g10
F0.90000000000000002
ssg197
(dp223
g10
F2.2000000000000002
ssVcom.tencent.mobileqq
p224
(dp225
g10
F1.3
ssVcom.android.fileexplorer
p226
(dp227
g10
F3.1000000000000001
ssVcom.hunantv.imgo.activity
p228
(dp229
g10
F0.40000000000000002
ssVcom.happyelements.AndroidAnimal
p230
(dp231
g10
F1.7000000000000002
ssVcom.miui.home
p232
(dp233
g10
F14.299999999999999
ssVcom.sina.weibo
p234
(dp235
g10
F1.3
sssg23
(dp236
Vcom.miui.home
p237
(dp238
g10
F1.3
ssVcom.miui.gallery
p239
(dp240
g10
I1
ssVcom.android.camera
p241
(dp242
g10
F0.69999999999999996
sssg25
(dp243
Vcom.android.calendar
p244
(dp245
g10
F0.90000000000000002
ssVcom.android.fileexplorer
p246
(dp247
g10
F0.40000000000000002
ssVcom.miui.home
p248
(dp249
g10
F1.7
sssg27
(dp250
Vcom.android.browser
p251
(dp252
g10
F4.9000000000000004
ssg11
(dp253
g10
F0.90000000000000002
ssg244
(dp254
g10
F2.2000000000000002
ssVcom.android.settings
p255
(dp256
g10
F3.8999999999999999
ssVcom.tencent.mm
p257
(dp258
g10
F3.3999999999999999
ssg23
(dp259
g10
F1.7
ssVcom.android.calculator2
p260
(dp261
g10
F1.3
ssg13
(dp262
g10
F2.7000000000000002
ssVcom.xiaomi.market
p263
(dp264
g10
F0.69999999999999996
ssg127
(dp265
g10
F10.000000000000002
ssg15
(dp266
g10
F1.3999999999999999
ssg55
(dp267
g10
F3.3999999999999999
ssg25
(dp268
g10
F0.90000000000000002
ssVcom.happyelements.AndroidAnimal
p269
(dp270
g10
F2.2000000000000002
ssg132
(dp271
g10
F5.7000000000000002
ssVcom.miui.home
p272
(dp273
g10
F67.600000000000037
ssVcom.sina.weibo
p274
(dp275
g10
F1.3
ssVcom.tencent.mobileqq
p276
(dp277
g10
F2.6000000000000001
sssg29
(dp278
Vcom.android.browser
p279
(dp280
g10
F3.5
ssVcom.miui.gallery
p281
(dp282
g10
F2.1000000000000001
ssg21
(dp283
g10
F1.7000000000000002
ssVcom.youku.phone
p284
(dp285
g10
F2.2000000000000002
ssVcom.android.calendar
p286
(dp287
g10
F0.40000000000000002
ssVcom.tencent.mobileqq
p288
(dp289
g10
F4.8000000000000007
ssg201
(dp290
g10
F0.90000000000000002
ssVcom.android.thememanager
p291
(dp292
g10
F0.40000000000000002
ssg57
(dp293
g10
F0.90000000000000002
ssVcom.android.fileexplorer
p294
(dp295
g10
F8.5000000000000018
ssVcom.qzone
p296
(dp297
g10
F3.1000000000000001
ssVcom.tencent.qqmusic
p298
(dp299
g10
F4.9000000000000004
ssVcom.happyelements.AndroidAnimal
p300
(dp301
g10
F5.8000000000000007
ssVcom.android.camera
p302
(dp303
g10
F0.90000000000000002
ssVcom.miui.home
p304
(dp305
g10
F77.900000000000048
ssVcom.sina.weibo
p306
(dp307
g10
F9.3000000000000025
sssg31
(dp308
Vcom.miui.home
p309
(dp310
g10
F4.4000000000000004
ssg61
(dp311
g10
F1.3
ssVcom.android.systemui
p312
(dp313
g10
F0.40000000000000002
sssg33
(dp314
Vcom.android.fileexplorer
p315
(dp316
g10
F0.40000000000000002
ssVcom.miui.home
p317
(dp318
g10
F2.7000000000000002
ssg125
(dp319
g10
F0.90000000000000002
sssg35
(dp320
Vcom.miui.home
p321
(dp322
g10
I2
sssg37
(dp323
Vcom.android.fileexplorer
p324
(dp325
g10
F0.40000000000000002
ssVcom.miui.home
p326
(dp327
g10
F4.4000000000000004
ssVcom.miui.weather2
p328
(dp329
g10
F1.8
ssg221
(dp330
g10
F0.40000000000000002
sssg39
(dp331
g8
(dp332
g10
F65.400000000000006
ssg27
(dp333
g10
F1.7000000000000002
ssg49
(dp334
g10
F0.90000000000000002
ssg145
(dp335
g10
F3.7000000000000002
ssVcom.android.calendar
p336
(dp337
g10
F3.1000000000000001
ssg45
(dp338
g10
F7.6000000000000014
ssg78
(dp339
g10
F2.6000000000000001
ssg72
(dp340
g10
F0.69999999999999996
ssVcom.android.thememanager
p341
(dp342
g10
I1
ssg57
(dp343
g10
F1.1000000000000001
ssg83
(dp344
g10
F1.3
ssg85
(dp345
g10
F3.4000000000000004
ssVcom.android.settings
p346
(dp347
g10
F1.3999999999999999
ssg269
(dp348
g10
F1.8
ssg63
(dp349
g10
F2.6000000000000001
ssg47
(dp350
g10
F66.40000000000002
ssg136
(dp351
g10
F5.9000000000000004
ssVcom.snda.wifilocating
p352
(dp353
g10
F0.40000000000000002
sssg41
(dp354
Vcom.android.browser
p355
(dp356
g10
F0.69999999999999996
ssVcom.miui.gallery
p357
(dp358
g10
F1.3
ssVcom.tencent.mm
p359
(dp360
g10
F0.90000000000000002
ssVcom.android.thememanager
p361
(dp362
g10
F0.40000000000000002
ssVcom.android.fileexplorer
p363
(dp364
g10
F2.2000000000000002
ssVcom.tencent.qqmusic
p365
(dp366
g10
F0.40000000000000002
ssVcom.happyelements.AndroidAnimal
p367
(dp368
g10
F1.3
ssVcom.miui.home
p369
(dp370
g10
F9.5
ssVcom.tencent.mobileqq
p371
(dp372
g10
F0.90000000000000002
sssg43
(dp373
Vcom.android.browser
p374
(dp375
g10
F6.3000000000000007
ssVcom.miui.gallery
p376
(dp377
g10
F3.1000000000000001
ssg49
(dp378
g10
F0.40000000000000002
ssVcom.youku.phone
p379
(dp380
g10
F1.3
ssVcom.tencent.mobileqq
p381
(dp382
g10
F1.6000000000000001
ssg143
(dp383
g10
F1.8
ssVcom.android.thememanager
p384
(dp385
g10
F1.7000000000000002
ssVcom.le123.ysdq
p386
(dp387
g10
F0.90000000000000002
ssVcom.android.fileexplorer
p388
(dp389
g10
F14.300000000000004
ssg59
(dp390
g10
F2.2000000000000002
ssVcom.tencent.qqmusic
p391
(dp392
g10
F4.5
ssVcom.hunantv.imgo.activity
p393
(dp394
g10
F0.90000000000000002
ssVcom.android.camera
p395
(dp396
g10
F0.90000000000000002
ssVcom.miui.home
p397
(dp398
g10
F70.800000000000026
ssg234
(dp399
g10
F2.2000000000000002
sssg45
(dp400
Vcom.android.browser
p401
(dp402
g10
F4.2000000000000002
ssg27
(dp403
g10
F3.3999999999999999
ssg102
(dp404
g10
F0.90000000000000002
ssg11
(dp405
g10
F3.5
ssg51
(dp406
g10
F0.40000000000000002
ssg306
(dp407
g10
F10.400000000000002
ssg291
(dp408
g10
F0.90000000000000002
ssVcom.android.fileexplorer
p409
(dp410
g10
F8.6000000000000014
ssVcom.qzone
p411
(dp412
g10
F1.7000000000000002
ssg365
(dp413
g10
F3.5999999999999996
ssVcom.hunantv.imgo.activity
p414
(dp415
g10
F1.3
ssg346
(dp416
g10
F0.69999999999999996
ssg114
(dp417
g10
F3.8999999999999999
ssVcom.android.camera
p418
(dp419
g10
F1.7000000000000002
ssVcom.miui.home
p420
(dp421
g10
F78.100000000000065
ssg93
(dp422
g10
F10.600000000000003
sssg47
(dp423
g8
(dp424
g10
F70.599999999999966
ssg11
(dp425
g10
F30.499999999999993
ssg13
(dp426
g10
F10.9
ssg15
(dp427
g10
F47.100000000000009
ssg156
(dp428
g10
F8.8000000000000007
ssg234
(dp429
g10
F58.800000000000026
ssg21
(dp430
g10
F16.699999999999996
ssg23
(dp431
g10
F0.40000000000000002
ssg25
(dp432
g10
F1.7
ssg27
(dp433
g10
F65.400000000000034
ssg29
(dp434
g10
F49.400000000000013
ssg260
(dp435
g10
F3.0999999999999996
ssg33
(dp436
g10
F3.0999999999999996
ssg35
(dp437
g10
F2.7000000000000002
ssg37
(dp438
g10
F4.7000000000000002
ssg109
(dp439
g10
F117.20000000000013
ssg107
(dp440
g10
F3.3999999999999999
ssg43
(dp441
g10
F78.600000000000051
ssg45
(dp442
g10
F49.700000000000017
ssg49
(dp443
g10
F5.0999999999999996
ssg51
(dp444
g10
F18.299999999999997
ssg53
(dp445
g10
F11.6
ssg55
(dp446
g10
F1.7000000000000002
ssg57
(dp447
g10
F4.4000000000000004
ssg59
(dp448
g10
F20.299999999999997
ssg61
(dp449
g10
F1.7
ssg63
(dp450
g10
F30.799999999999994
sssg49
(dp451
g63
(dp452
g10
F0.90000000000000002
ssVcom.miui.home
p453
(dp454
g10
F3.7000000000000002
ssVcom.miui.weather2
p455
(dp456
g10
F0.90000000000000002
ssg226
(dp457
g10
F0.40000000000000002
sssg51
(dp458
Vcom.android.browser
p459
(dp460
g10
F0.69999999999999996
ssVcom.miui.gallery
p461
(dp462
g10
F0.40000000000000002
ssVcom.miui.notes
p463
(dp464
g10
F0.40000000000000002
ssVcom.youku.phone
p465
(dp466
g10
F0.90000000000000002
ssVcom.android.settings
p467
(dp468
g10
F0.90000000000000002
ssVcom.tencent.mm
p469
(dp470
g10
I1
ssVcom.android.thememanager
p471
(dp472
g10
F0.69999999999999996
ssVcom.android.fileexplorer
p473
(dp474
g10
F2.6000000000000001
ssg352
(dp475
g10
F0.90000000000000002
ssg228
(dp476
g10
F0.90000000000000002
ssVcom.happyelements.AndroidAnimal
p477
(dp478
g10
F0.90000000000000002
ssVcom.android.camera
p479
(dp480
g10
F1.8
ssVcom.miui.home
p481
(dp482
g10
F18.599999999999994
ssVcom.sina.weibo
p483
(dp484
g10
F2
ssVcom.tencent.mobileqq
p485
(dp486
g10
F0.90000000000000002
sssg53
(dp487
Vcom.android.browser
p488
(dp489
g10
F0.40000000000000002
ssVcom.miui.gallery
p490
(dp491
g10
F6.1000000000000005
ssVcom.miui.weather2
p492
(dp493
g10
F0.40000000000000002
ssg23
(dp494
g10
F0.90000000000000002
ssg471
(dp495
g10
I1
ssg263
(dp496
g10
I1
ssVcom.android.fileexplorer
p497
(dp498
g10
F0.69999999999999996
ssVcom.tencent.qqmusic
p499
(dp500
g10
F0.40000000000000002
ssg33
(dp501
g10
F0.69999999999999996
ssVcom.happyelements.AndroidAnimal
p502
(dp503
g10
F0.90000000000000002
ssVcom.miui.home
p504
(dp505
g10
F13.300000000000001
ssVcom.sina.weibo
p506
(dp507
g10
F0.90000000000000002
sssg55
(dp508
Vcom.miui.home
p509
(dp510
g10
F1.7000000000000002
ssVcom.miui.gallery
p511
(dp512
g10
F3.4000000000000004
sssg57
(dp513
Vcom.android.browser
p514
(dp515
g10
F1.3999999999999999
ssVcom.miui.gallery
p516
(dp517
g10
F1.3
ssg21
(dp518
g10
F0.90000000000000002
ssVcom.youku.phone
p519
(dp520
g10
F0.90000000000000002
ssVcom.android.fileexplorer
p521
(dp522
g10
F2.2000000000000002
ssVcom.tencent.qqmusic
p523
(dp524
g10
I3
ssg25
(dp525
g10
F0.40000000000000002
ssg230
(dp526
g10
F2.1000000000000001
ssVcom.miui.home
p527
(dp528
g10
F10.199999999999999
sssg59
(dp529
Vcom.android.browser
p530
(dp531
g10
F0.69999999999999996
ssg376
(dp532
g10
F0.80000000000000004
ssg193
(dp533
g10
F0.40000000000000002
ssg519
(dp534
g10
F1.3
ssVcom.android.calendar
p535
(dp536
g10
F0.90000000000000002
ssg29
(dp537
g10
F3.1000000000000001
ssg107
(dp538
g10
F0.90000000000000002
ssVcom.le123.ysdq
p539
(dp540
g10
F0.90000000000000002
ssVcom.android.fileexplorer
p541
(dp542
g10
F2.1000000000000001
ssVcom.tencent.qqmusic
p543
(dp544
g10
F3.8999999999999999
ssg211
(dp545
g10
F2.6000000000000001
ssVcom.miui.home
p546
(dp547
g10
F29.499999999999993
ssVcom.sina.weibo
p548
(dp549
g10
F1.8
ssVcom.tencent.mobileqq
p550
(dp551
g10
F0.40000000000000002
sssg61
(dp552
Vcom.miui.home
p553
(dp554
g10
F1.7
ssg312
(dp555
g10
F0.90000000000000002
sssg63
(dp556
Vcom.android.browser
p557
(dp558
g10
F2.5
ssVcom.miui.gallery
p559
(dp560
g10
F9.6000000000000014
ssg328
(dp561
g10
F0.80000000000000004
ssg276
(dp562
g10
F0.40000000000000002
ssVcom.tencent.mm
p563
(dp564
g10
F1.3
ssVcom.android.thememanager
p565
(dp566
g10
F0.40000000000000002
ssg37
(dp567
g10
F1.8
ssVcom.android.fileexplorer
p568
(dp569
g10
F3.8000000000000003
ssVcom.tencent.qqmusic
p570
(dp571
g10
F0.40000000000000002
ssg209
(dp572
g10
F0.40000000000000002
ssVcom.android.settings
p573
(dp574
g10
F2
ssg502
(dp575
g10
F0.40000000000000002
ssVcom.miui.home
p576
(dp577
g10
F30.599999999999994
ssg274
(dp578
g10
F1.3
ssg260
(dp579
g10
F0.69999999999999996
ssssS'edge'
p580
g68
sS'pred'
p581
(dp582
g8
(dp583
g191
g252
sg455
g220
sVcom.youku.phone
p584
g99
sg244
g460
sg306
g190
sVcom.tencent.mm
p585
g280
sg125
g356
sVcom.le123.ysdq
p586
g515
sg109
g332
sVcom.qzone
p587
g531
sg207
g140
sg156
g168
sg573
g489
sVcom.happyelements.AndroidAnimal
p588
g375
sg395
g558
sg161
g424
sg381
g402
ssg11
(dp589
Vcom.android.browser
p590
g75
sg27
g253
sg328
g222
sg51
g466
sg45
g405
sVcom.sina.weibo
p591
g196
sg37
g330
sg539
g520
sVcom.android.fileexplorer
p592
g335
sg83
g534
sg85
g146
sVcom.happyelements.AndroidAnimal
p593
g380
sg420
g425
sg136
g285
ssg13
(dp594
Vcom.miui.gallery
p595
g262
sVcom.android.calendar
p596
g472
sVcom.tencent.mm
p597
g292
sg107
g362
sVcom.android.fileexplorer
p598
g342
sg467
g495
sVcom.happyelements.AndroidAnimal
p599
g385
sVcom.android.camera
p600
g566
sVcom.miui.home
p601
g426
sVcom.tencent.mobileqq
p602
g408
ssg15
(dp603
g139
g86
sg27
g266
sg11
g113
sg53
g500
sg257
g299
sVcom.qiyi.video
p604
g366
sVcom.le123.ysdq
p605
g524
sVcom.android.fileexplorer
p606
g345
sVcom.qzone
p607
g544
sVcom.hunantv.imgo.activity
p608
g183
sg43
g392
sg241
g571
sg272
g427
sg234
g208
sg371
g413
ssg17
(dp609
g72
g229
sg76
g476
sVcom.tencent.mobileqq
p610
g415
sVcom.tencent.qqmusic
p611
g157
sVcom.happyelements.AndroidAnimal
p612
g394
sg132
g572
sVcom.miui.home
p613
g428
sg274
g210
ssg19
(dp614
g374
g79
sg123
g275
sg21
g235
sVcom.youku.phone
p615
g106
sVcom.android.calendar
p616
g484
sVcom.tencent.mm
p617
g307
sVcom.android.fileexplorer
p618
g339
sg411
g549
sVcom.tencent.qqmusic
p619
g150
sVcom.hunantv.imgo.activity
p620
g172
sg53
g507
sg230
g399
sg132
g578
sg232
g429
sVcom.tencent.mobileqq
p621
g407
ssg21
(dp622
Vcom.android.browser
p623
g73
sg201
g456
sVcom.youku.phone
p624
g103
sg93
g283
sg37
g329
sg57
g518
sVcom.android.fileexplorer
p625
g340
sVcom.qzone
p626
g533
sVcom.tencent.qqmusic
p627
g144
sVcom.android.settings
p628
g493
sVcom.happyelements.AndroidAnimal
p629
g383
sVcom.android.camera
p630
g561
sg91
g430
sVcom.sina.weibo
p631
g194
sVcom.tencent.mobileqq
p632
g404
ssg23
(dp633
Vcom.android.settings
p634
g494
sVcom.miui.home
p635
g431
sVcom.miui.gallery
p636
g259
ssg25
(dp637
Vcom.miui.home
p638
g432
sg516
g268
sVcom.le123.ysdq
p639
g525
ssg27
(dp640
Vcom.android.browser
p641
g71
sVcom.youku.phone
p642
g101
sg336
g462
sg45
g403
sVcom.tencent.mm
p643
g282
sg291
g124
sVcom.le123.ysdq
p644
g517
sg39
g333
sVcom.qzone
p645
g532
sVcom.tencent.qqmusic
p646
g142
sVcom.hunantv.imgo.activity
p647
g170
sg55
g512
sg255
g491
sVcom.happyelements.AndroidAnimal
p648
g377
sVcom.android.camera
p649
g560
sg107
g358
sg47
g433
sVcom.sina.weibo
p650
g192
sg23
g240
ssg29
(dp651
g401
g94
sg559
g258
sVcom.android.calendar
p652
g470
sg591
g217
sg13
g137
sg127
g351
sg59
g537
sg391
g163
sg620
g187
sg418
g564
sVcom.qiyi.video
p653
g360
sVcom.miui.home
p654
g434
sg381
g422
ssg31
(dp655
Vcom.android.camera
p656
g579
sVcom.miui.home
p657
g435
sVcom.miui.gallery
p658
g261
ssg33
(dp659
g467
g501
sVcom.miui.home
p660
g436
sg61
g555
sg471
g131
sVcom.android.calculator2
p661
g313
ssg35
(dp662
Vcom.android.calendar
p663
g475
sVcom.android.fileexplorer
p664
g353
sVcom.miui.home
p665
g437
sVcom.hunantv.imgo.activity
p666
g177
ssg37
(dp667
Vcom.miui.gallery
p668
g264
sVcom.android.settings
p669
g496
sVcom.tencent.qqmusic
p670
g151
sVcom.hunantv.imgo.activity
p671
g174
sg630
g567
sVcom.miui.home
p672
g438
ssg39
(dp673
g401
g82
sg11
g110
sg13
g128
sg15
g154
sg156
g176
sg19
g204
sg455
g227
sg33
g316
sg595
g265
sg381
g410
sg25
g247
sg173
g325
sg41
g364
sg114
g389
sg118
g439
sg201
g457
sg51
g474
sg617
g295
sg586
g522
sg587
g542
sg573
g498
sg395
g569
ssg41
(dp674
Vcom.miui.home
p675
g440
sg33
g319
sVcom.youku.phone
p676
g108
sg471
g126
sg111
g538
ssg43
(dp677
Vcom.android.browser
p678
g88
sg70
g270
sg21
g231
sg284
g115
sg197
g478
sg548
g212
sVcom.tencent.mm
p679
g301
sVcom.qiyi.video
p680
g368
sg57
g526
sVcom.android.fileexplorer
p681
g348
sg411
g545
sVcom.tencent.qqmusic
p682
g158
sVcom.hunantv.imgo.activity
p683
g181
sg628
g503
sVcom.android.camera
p684
g575
sVcom.miui.home
p685
g441
sg288
g417
ssg45
(dp686
Vcom.android.browser
p687
g96
sg559
g277
sVcom.miui.weather2
p688
g225
sg584
g121
sg286
g486
sVcom.sina.weibo
p689
g200
sg604
g372
sg39
g338
sVcom.qzone
p690
g551
sVcom.tencent.qqmusic
p691
g165
sg114
g382
sg649
g562
sg47
g442
sg136
g289
ssg47
(dp692
g401
g92
sg11
g119
sg13
g135
sg15
g162
sg17
g185
sg19
g215
sg21
g233
sg23
g238
sg25
g249
sg27
g273
sg29
g305
sg31
g310
sg33
g318
sg35
g322
sg37
g327
sg39
g350
sg41
g370
sg43
g398
sg45
g421
sg49
g454
sg51
g482
sg53
g505
sg55
g510
sg57
g528
sg59
g547
sg61
g554
sg132
g577
ssg49
(dp693
g616
g464
sVcom.sina.weibo
p694
g202
sVcom.android.fileexplorer
p695
g334
sVcom.happyelements.AndroidAnimal
p696
g378
sVcom.miui.home
p697
g443
sVcom.tencent.mm
p698
g290
ssg51
(dp699
g623
g77
sVcom.miui.home
p700
g444
sg193
g223
sVcom.youku.phone
p701
g104
sg199
g406
sg469
g287
sVcom.android.fileexplorer
p702
g337
sVcom.qzone
p703
g536
sVcom.tencent.qqmusic
p704
g148
sg25
g245
sg516
g254
sg631
g198
ssg53
(dp705
Vcom.miui.gallery
p706
g256
sg596
g468
sVcom.android.fileexplorer
p707
g347
sVcom.android.camera
p708
g574
sVcom.miui.home
p709
g445
sVcom.tencent.mobileqq
p710
g416
ssg55
(dp711
Vcom.miui.home
p712
g446
sVcom.miui.gallery
p713
g267
ssg57
(dp714
g401
g80
sg81
g343
sg83
g540
sg523
g153
sVcom.happyelements.AndroidAnimal
p715
g387
sg91
g447
sg93
g293
ssg59
(dp716
g557
g84
sg676
g112
sVcom.sina.weibo
p717
g206
sVcom.tencent.mm
p718
g297
sg565
g130
sg568
g344
sg391
g155
sg43
g390
sg397
g448
sVcom.tencent.mobileqq
p719
g412
ssg61
(dp720
Vcom.miui.home
p721
g449
sg260
g311
ssg63
(dp722
Vcom.android.browser
p723
g90
sg123
g271
sg49
g452
sVcom.youku.phone
p724
g117
sg336
g480
sVcom.sina.weibo
p725
g213
sVcom.tencent.mm
p726
g303
sg291
g133
sg695
g349
sg646
g160
sg671
g179
sg23
g242
sVcom.happyelements.AndroidAnimal
p727
g396
sVcom.miui.home
p728
g450
sg95
g419
sssS'adj'
p729
g68
sb.