ccopy_reg
_reconstructor
p1
(cnetworkx.classes.digraph
DiGraph
p2
c__builtin__
object
p3
NtRp4
(dp5
S'node'
p6
(dp7
Vcom.meizu.media.reader
p8
(dp9
S'weight'
p10
F2.4461155684772581e-05
ssVcom.youku.phone
p11
(dp12
g10
F0.0024990315379177864
ssVim.yixin
p13
(dp14
g10
F0.00029952435532374592
ssVcom.baidu.netdisk
p15
(dp16
g10
F0.00097944464190864917
ssVcom.sdu.didi.psnger
p17
(dp18
g10
F9.4849379185852872e-06
ssVcom.meizu.customizecenter
p19
(dp20
g10
F0.00013478595989568565
ssVcom.adsafe
p21
(dp22
g10
F4.9421518628418071e-05
ssVvStudio.Android.Camera360
p23
(dp24
g10
F0.00026058618913165894
ssVcom.meizu.mzsnssyncservice
p25
(dp26
g10
F5.2416762181655532e-05
ssVcom.sankuai.movie
p27
(dp28
g10
F0.00034694904491667231
ssVcom.plantronics.headsetservice
p29
(dp30
g10
F8.1869990455157206e-05
ssVcom.meizu.blockservice
p31
(dp32
g10
F2.0467497613789302e-05
ssVcom.eg.android.AlipayGphone
p33
(dp34
g10
F0.0039177785676345967
ssVcom.soft.blued
p35
(dp36
g10
F0.044148891560202401
ssVcom.android.launcher3
p37
(dp38
g10
F0.71910206591932013
ssVcom.sparklykey.qinsmoon.wdj
p39
(dp40
g10
F0.00026507905446151509
ssVcom.android.dialer
p41
(dp42
g10
F0.004861280286904396
ssVcom.android.packageinstaller
p43
(dp44
g10
F5.0419933146163889e-05
ssVcom.sankuai.meituan
p45
(dp46
g10
F0.0024910442217758199
ssVcom.taobao.taobao
p47
(dp48
g10
F0.0012110768100256793
ssVcom.orangex.orange
p49
(dp50
g10
F4.0934995227578603e-05
ssVcom.myzaker.ZAKER_Phone
p51
(dp52
g10
F0.0081615394753132026
ssVcom.android.phone
p53
(dp54
g10
F9.9841451774581963e-06
ssVcom.meizu.media.gallery
p55
(dp56
g10
F0.0047734198093427639
ssVme.topit.TopAndroid2
p57
(dp58
g10
F0.00024560997136547161
ssVcn.ibuka.manga.ui
p59
(dp60
g10
F0.00029553069725276259
ssVcom.android.alarmclock
p61
(dp62
g10
F0.00015625187202722077
ssVcom.tencent.mm
p63
(dp64
g10
F0.044707005275622311
ssVtv.danmaku.bili
p65
(dp66
g10
F0.00079873161419665567
ssVcom.youdao.dict
p67
(dp68
g10
F5.2915969440528441e-05
ssVcom.heqee.book.mcnxsr
p69
(dp70
g10
F0.0014237391023055389
ssVqsbk.app
p71
(dp72
g10
F0.00022064960842182614
ssVcom.youloft.calendar
p73
(dp74
g10
F2.6957191979137129e-05
ssVus.pinguo.idcamera
p75
(dp76
g10
F7.1386638018826109e-05
ssVcom.meizu.mstore
p77
(dp78
g10
F0.0018455692360531475
ssVcom.meitu.meipaimv
p79
(dp80
g10
F1.8470668578297662e-05
ssVcom.meizu.flyme.gamecenter
p81
(dp82
g10
F7.288425979544483e-05
ssVcom.meizu.media.camera
p83
(dp84
g10
F0.013900426123316174
ssVcom.meizu.filemanager
p85
(dp86
g10
F7.288425979544483e-05
ssVcom.yipiao
p87
(dp88
g10
F0.0001068303533988027
ssVcom.lovebizhi.wallpaper
p89
(dp90
g10
F8.2369197714030122e-05
ssVcom.tencent.tmgp.gb
p91
(dp92
g10
F0.0034295538684568903
ssVcom.happyelements.AndroidAnimal
p93
(dp94
g10
F0.00056859706785624428
ssVcom.jzyd.BanTang
p95
(dp96
g10
F0.00067093455592519085
ssVcom.android.vpndialogs
p97
(dp98
g10
F1.2979388730695656e-05
ssVcom.meizu.flyme.calculator
p99
(dp100
g10
F0.00015125979943849167
ssVcom.tencent.mobileqq
p101
(dp102
g10
F0.057051402373031627
ssVcom.meizu.media.video
p103
(dp104
g10
F2.296353390815385e-05
ssVcom.skycall.oem
p105
(dp106
g10
F0.0021381046897526726
ssVcom.UCMobile
p107
(dp108
g10
F0.0056255666002388207
ssVcom.dianxinos.optimizer.duplay
p109
(dp110
g10
F0.00012030894938837126
ssVcom.android.settings
p111
(dp112
g10
F0.00045178256927998336
ssVcom.tuan800.tao800
p113
(dp114
g10
F0.00024560997136547161
ssVcom.android.mms
p115
(dp116
g10
F0.00022264643745731778
ssVcom.liulishuo.engzo
p117
(dp118
g10
F0.0065011761323019047
ssVcom.ting.mp3.android
p119
(dp120
g10
F0.042684217462669281
ssVcom.android.calendar
p121
(dp122
g10
F4.9920725887290981e-06
ssVcom.baidu.tieba
p123
(dp124
g10
F0.0091968953302156171
ssVcom.meizu.media.music
p125
(dp126
g10
F0.012059848959851755
ssVcom.nerser.ccser
p127
(dp128
g10
F0.00023063375359928435
ssVcom.meizu.flyme.weather
p129
(dp130
g10
F0.00072035607455360885
sssS'graph'
p131
(dp132
sS'succ'
p133
(dp134
g8
(dp135
Vcom.android.launcher3
p136
(dp137
g10
I1
ssVcom.taobao.taobao
p138
(dp139
g10
I1
sssg11
(dp140
Vcom.android.launcher3
p141
(dp142
g10
F15.799999999999997
ssVcom.youloft.calendar
p143
(dp144
g10
F0.90000000000000002
ssVcom.meizu.mstore
p145
(dp146
g10
F1.8
ssVcom.android.settings
p147
(dp148
g10
F0.40000000000000002
ssVcom.sankuai.meituan
p149
(dp150
g10
F0.90000000000000002
ssVcom.liulishuo.engzo
p151
(dp152
g10
F0.40000000000000002
ssVcom.ting.mp3.android
p153
(dp154
g10
F0.40000000000000002
ssVcom.UCMobile
p155
(dp156
g10
F1.6000000000000001
ssVcom.baidu.tieba
p157
(dp158
g10
F0.90000000000000002
ssVcom.jzyd.BanTang
p159
(dp160
g10
F0.40000000000000002
ssg29
(dp161
g10
F1.7
ssVcn.ibuka.manga.ui
p162
(dp163
g10
F0.90000000000000002
ssVcom.tencent.mm
p164
(dp165
g10
F4.1999999999999993
ssVcom.eg.android.AlipayGphone
p166
(dp167
g10
F15.999999999999996
ssVcom.soft.blued
p168
(dp169
g10
F2.7000000000000002
sssg13
(dp170
Vcom.android.launcher3
p171
(dp172
g10
F17.999999999999996
ssVcom.dianxinos.optimizer.duplay
p173
(dp174
g10
F1.3
ssVcom.tencent.mm
p175
(dp176
g10
F0.40000000000000002
ssVcom.android.dialer
p177
(dp178
g10
F1.3
ssVcom.tencent.mobileqq
p179
(dp180
g10
F1.3
sssg15
(dp181
Vcom.android.launcher3
p182
(dp183
g10
F8.8000000000000007
ssVcom.android.dialer
p184
(dp185
g10
F0.40000000000000002
ssVcom.UCMobile
p186
(dp187
g10
F0.90000000000000002
ssVcom.baidu.tieba
p188
(dp189
g10
F0.90000000000000002
ssVcom.sankuai.movie
p190
(dp191
g10
F0.40000000000000002
ssVcom.soft.blued
p192
(dp193
g10
F0.90000000000000002
ssVcom.tencent.mm
p194
(dp195
g10
F1.8
ssVcom.eg.android.AlipayGphone
p196
(dp197
g10
F0.90000000000000002
ssVcom.android.alarmclock
p198
(dp199
g10
F0.69999999999999996
sssg17
(dp200
Vcom.android.launcher3
p201
(dp202
g10
F3.4000000000000004
ssVcom.tencent.mobileqq
p203
(dp204
g10
F1.3
sssg19
(dp205
Vcom.android.launcher3
p206
(dp207
g10
F5.1000000000000005
ssVcom.UCMobile
p208
(dp209
g10
F1.3
ssVcom.soft.blued
p210
(dp211
g10
F1.3
ssg111
(dp212
g10
F0.40000000000000002
sssg21
(dp213
Vcom.android.launcher3
p214
(dp215
g10
F3.4000000000000004
ssg75
(dp216
g10
F0.90000000000000002
ssg97
(dp217
g10
F1.7
ssVcom.tencent.mm
p218
(dp219
g10
F1.7000000000000002
ssVcom.android.settings
p220
(dp221
g10
F0.40000000000000002
sssg23
(dp222
Vcom.android.launcher3
p223
(dp224
g10
F7.8000000000000007
ssVcom.meizu.mstore
p225
(dp226
g10
F0.90000000000000002
ssVcom.meizu.media.camera
p227
(dp228
g10
F1.3
ssVcom.meizu.media.gallery
p229
(dp230
g10
F0.90000000000000002
ssVcom.tencent.mm
p231
(dp232
g10
F2.5
ssVcom.soft.blued
p233
(dp234
g10
F2.2000000000000002
sssg25
(dp235
Vcom.android.launcher3
p236
(dp237
g10
F6.5000000000000009
ssVcom.android.dialer
p238
(dp239
g10
F1.1000000000000001
ssVcom.android.mms
p240
(dp241
g10
F2.6000000000000001
sssg27
(dp242
Vcom.ting.mp3.android
p243
(dp244
g10
I1
ssVcom.android.launcher3
p245
(dp246
g10
F4.4000000000000004
ssVcom.tencent.mm
p247
(dp248
g10
F0.40000000000000002
ssVcom.tencent.mobileqq
p249
(dp250
g10
F4.3000000000000007
sssg29
(dp251
Vcom.android.launcher3
p252
(dp253
g10
I1
ssVcom.tencent.mm
p254
(dp255
g10
F0.90000000000000002
ssVcom.youku.phone
p256
(dp257
g10
I1
sssg31
(dp258
Vcom.android.launcher3
p259
(dp260
g10
F0.69999999999999996
ssVcom.tencent.mobileqq
p261
(dp262
g10
F0.40000000000000002
ssVcom.android.dialer
p263
(dp264
g10
I1
ssVcom.tencent.mm
p265
(dp266
g10
I1
ssVcom.soft.blued
p267
(dp268
g10
F0.90000000000000002
sssg33
(dp269
Vcom.youku.phone
p270
(dp271
g10
F15.599999999999998
ssVcom.baidu.netdisk
p272
(dp273
g10
I1
ssVcom.UCMobile
p274
(dp275
g10
F1.3
ssVcom.sankuai.movie
p276
(dp277
g10
F0.90000000000000002
ssVcom.soft.blued
p278
(dp279
g10
F12.700000000000003
ssVcom.android.launcher3
p280
(dp281
g10
F73.600000000000023
ssVcom.android.dialer
p282
(dp283
g10
F1.6000000000000001
ssVcom.sankuai.meituan
p284
(dp285
g10
I3
ssVcom.taobao.taobao
p286
(dp287
g10
F1.3999999999999999
ssg49
(dp288
g10
F0.40000000000000002
ssVcom.myzaker.ZAKER_Phone
p289
(dp290
g10
F0.40000000000000002
ssVcom.meizu.media.gallery
p291
(dp292
g10
F2.2999999999999998
ssVcn.ibuka.manga.ui
p293
(dp294
g10
F0.40000000000000002
ssVcom.tencent.mm
p295
(dp296
g10
F12.5
ssVcom.meizu.mstore
p297
(dp298
g10
F2.2000000000000002
ssVcom.meizu.flyme.calculator
p299
(dp300
g10
F1.3
ssVcom.tencent.mobileqq
p301
(dp302
g10
F17.399999999999999
ssg105
(dp303
g10
F0.90000000000000002
ssg113
(dp304
g10
F0.69999999999999996
ssVcom.android.settings
p305
(dp306
g10
F0.40000000000000002
ssVcom.android.mms
p307
(dp308
g10
F0.40000000000000002
ssVcom.liulishuo.engzo
p309
(dp310
g10
F3.1999999999999997
ssVcom.ting.mp3.android
p311
(dp312
g10
F0.90000000000000002
ssg123
(dp313
g10
F2.6000000000000001
ssg129
(dp314
g10
F0.40000000000000002
sssg35
(dp315
Vcom.youku.phone
p316
(dp317
g10
F1.8
ssVim.yixin
p318
(dp319
g10
I1
ssVcom.UCMobile
p320
(dp321
g10
F19.899999999999995
ssVvStudio.Android.Camera360
p322
(dp323
g10
F1.3
ssg27
(dp324
g10
F2
ssg33
(dp325
g10
F15.500000000000005
ssg67
(dp326
g10
F0.40000000000000002
ssVcom.android.launcher3
p327
(dp328
g10
F282.59999999999962
ssg41
(dp329
g10
F19.199999999999996
ssVcom.android.packageinstaller
p330
(dp331
g10
F0.69999999999999996
ssg45
(dp332
g10
F21.099999999999994
ssVcom.taobao.taobao
p333
(dp334
g10
F4
ssVcom.myzaker.ZAKER_Phone
p335
(dp336
g10
F16.799999999999997
ssVcom.android.phone
p337
(dp338
g10
F2.7999999999999998
ssg55
(dp339
g10
F8.2000000000000011
ssg59
(dp340
g10
F2.2000000000000002
ssVcom.tencent.mm
p341
(dp342
g10
F123.90000000000019
ssVcom.heqee.book.mcnxsr
p343
(dp344
g10
F7.1000000000000005
ssVus.pinguo.idcamera
p345
(dp346
g10
F1.3
ssVcom.meizu.mstore
p347
(dp348
g10
F4.2999999999999998
ssg81
(dp349
g10
F0.90000000000000002
ssVcom.meizu.filemanager
p350
(dp351
g10
F2.2000000000000002
ssVcom.yipiao
p352
(dp353
g10
F0.90000000000000002
ssVcom.tencent.tmgp.gb
p354
(dp355
g10
F3.8999999999999999
ssVcom.jzyd.BanTang
p356
(dp357
g10
F2.2999999999999998
ssVcom.android.alarmclock
p358
(dp359
g10
F11.899999999999999
ssg103
(dp360
g10
F0.69999999999999996
ssVcom.skycall.oem
p361
(dp362
g10
F4.8000000000000007
ssVcom.tuan800.tao800
p363
(dp364
g10
F0.90000000000000002
ssg109
(dp365
g10
F0.40000000000000002
ssVcom.tencent.mobileqq
p366
(dp367
g10
F98.300000000000068
ssg115
(dp368
g10
F3.7000000000000002
ssVcom.liulishuo.engzo
p369
(dp370
g10
F16.299999999999997
ssVcom.ting.mp3.android
p371
(dp372
g10
F9
ssVcom.baidu.tieba
p373
(dp374
g10
F19.099999999999998
ssg147
(dp375
g10
F6.2000000000000011
ssVcom.meizu.media.music
p376
(dp377
g10
F0.90000000000000002
ssVcom.meizu.flyme.weather
p378
(dp379
g10
F1.3999999999999999
sssg37
(dp380
g8
(dp381
g10
F3
ssg11
(dp382
g10
F11.9
ssg13
(dp383
g10
F17.299999999999997
ssg15
(dp384
g10
F3.6000000000000001
ssg17
(dp385
g10
F3.3999999999999999
ssg19
(dp386
g10
F3.7000000000000002
ssg21
(dp387
g10
F2.7000000000000002
ssg23
(dp388
g10
F7.1000000000000005
ssg25
(dp389
g10
F6.7999999999999998
ssg27
(dp390
g10
F7.8000000000000007
ssg29
(dp391
g10
F2.2999999999999998
ssVcom.meizu.blockservice
p392
(dp393
g10
I2
ssg33
(dp394
g10
F91.000000000000057
ssg35
(dp395
g10
F259.89999999999992
ssg39
(dp396
g10
I1
ssg41
(dp397
g10
F97.700000000000088
ssg43
(dp398
g10
F5.2000000000000002
ssg45
(dp399
g10
F20.199999999999996
ssg47
(dp400
g10
F22.699999999999992
ssg49
(dp401
g10
F1.7
ssVcom.myzaker.ZAKER_Phone
p402
(dp403
g10
F28.999999999999993
ssg53
(dp404
g10
F14.100000000000003
ssg55
(dp405
g10
F31.599999999999994
ssg59
(dp406
g10
F7.1000000000000005
ssg61
(dp407
g10
F19.999999999999996
ssg63
(dp408
g10
F283.59999999999957
ssg67
(dp409
g10
F5.1000000000000005
ssg71
(dp410
g10
F2.7000000000000002
ssg73
(dp411
g10
F3.3999999999999999
ssg75
(dp412
g10
F4.7000000000000002
ssVcom.meizu.mstore
p413
(dp414
g10
F30.399999999999995
ssg79
(dp415
g10
F1.7
ssg81
(dp416
g10
F2.3999999999999999
ssg83
(dp417
g10
F18.199999999999999
ssVcom.meizu.filemanager
p418
(dp419
g10
F14.199999999999998
ssg87
(dp420
g10
F7.4000000000000004
ssg89
(dp421
g10
F3.7000000000000002
ssg91
(dp422
g10
F11.5
ssg93
(dp423
g10
F2.7000000000000002
ssg95
(dp424
g10
F9.1999999999999993
ssg97
(dp425
g10
F1.8
ssg99
(dp426
g10
F10.199999999999999
ssVcom.tencent.mobileqq
p427
(dp428
g10
F225.10000000000011
ssg103
(dp429
g10
F5.8000000000000007
ssg105
(dp430
g10
F35.899999999999991
ssg107
(dp431
g10
F61.200000000000003
ssg109
(dp432
g10
F12.899999999999999
ssg111
(dp433
g10
F33.899999999999991
ssg113
(dp434
g10
F5.3000000000000007
ssg115
(dp435
g10
F20.699999999999992
ssVcom.liulishuo.engzo
p436
(dp437
g10
F30.499999999999993
ssg119
(dp438
g10
F29.199999999999999
ssg121
(dp439
g10
F1.3
ssg123
(dp440
g10
F40.299999999999997
ssg125
(dp441
g10
F4.7000000000000002
ssg127
(dp442
g10
F2.7000000000000002
ssg129
(dp443
g10
F17.300000000000001
sssg39
(dp444
Vcom.android.launcher3
p445
(dp446
g10
F1.7
ssVim.yixin
p447
(dp448
g10
F1.3
sssg41
(dp449
Vim.yixin
p450
(dp451
g10
F0.69999999999999996
ssVcom.UCMobile
p452
(dp453
g10
I1
ssg392
(dp454
g10
F1.8
ssVcom.eg.android.AlipayGphone
p455
(dp456
g10
F0.90000000000000002
ssVcom.soft.blued
p457
(dp458
g10
F15.300000000000002
ssVcom.android.launcher3
p459
(dp460
g10
F95.400000000000077
ssVcom.sankuai.meituan
p461
(dp462
g10
F1.7
ssg25
(dp463
g10
F1.7000000000000002
ssVcom.myzaker.ZAKER_Phone
p464
(dp465
g10
F1.3
ssg53
(dp466
g10
F19.999999999999996
ssVcom.tencent.mobileqq
p467
(dp468
g10
F8.8000000000000007
ssVcom.meizu.mstore
p469
(dp470
g10
I1
ssVcom.tencent.mm
p471
(dp472
g10
F12.700000000000001
ssVcom.meizu.media.camera
p473
(dp474
g10
I2
ssVcom.tencent.tmgp.gb
p475
(dp476
g10
I1
ssVcom.meizu.flyme.calculator
p477
(dp478
g10
F0.40000000000000002
ssVcom.skycall.oem
p479
(dp480
g10
F13.000000000000002
ssVcom.android.settings
p481
(dp482
g10
F2.2000000000000002
ssVcom.android.mms
p483
(dp484
g10
F5.7000000000000002
ssVcom.liulishuo.engzo
p485
(dp486
g10
F1.7000000000000002
ssVcom.baidu.tieba
p487
(dp488
g10
F0.40000000000000002
ssVcom.meizu.media.music
p489
(dp490
g10
F0.40000000000000002
sssg43
(dp491
Vcom.android.launcher3
p492
(dp493
g10
F6.4000000000000004
ssVqsbk.app
p494
(dp495
g10
F0.69999999999999996
ssVcom.meizu.mstore
p496
(dp497
g10
F0.40000000000000002
ssVcom.liulishuo.engzo
p498
(dp499
g10
F1.3
ssVcom.UCMobile
p500
(dp501
g10
F2.7000000000000002
ssg91
(dp502
g10
F1.3
ssVcom.tencent.mobileqq
p503
(dp504
g10
F3.2999999999999998
ssVcom.eg.android.AlipayGphone
p505
(dp506
g10
F0.90000000000000002
sssg45
(dp507
Vcom.android.launcher3
p508
(dp509
g10
F16.999999999999996
ssVcom.android.dialer
p510
(dp511
g10
I1
ssVcom.tencent.mobileqq
p512
(dp513
g10
F3.4000000000000004
ssVcom.happyelements.AndroidAnimal
p514
(dp515
g10
F0.40000000000000002
ssVcom.ting.mp3.android
p516
(dp517
g10
F5.5999999999999996
ssVcom.UCMobile
p518
(dp519
g10
F3.2999999999999998
ssVcom.meizu.media.gallery
p520
(dp521
g10
F3.6999999999999997
ssVcom.tencent.mm
p522
(dp523
g10
F6.7000000000000002
ssVcom.eg.android.AlipayGphone
p524
(dp525
g10
I3
ssVcom.soft.blued
p526
(dp527
g10
F19.799999999999994
sssg47
(dp528
Vcom.android.launcher3
p529
(dp530
g10
F13.899999999999999
ssVcom.android.dialer
p531
(dp532
g10
F1.3
ssVcom.meizu.media.reader
p533
(dp534
g10
F1.7
ssVcom.tencent.mobileqq
p535
(dp536
g10
F4.5000000000000009
ssVcom.meizu.filemanager
p537
(dp538
g10
F0.40000000000000002
ssVcom.baidu.tieba
p539
(dp540
g10
F0.90000000000000002
ssg27
(dp541
g10
F0.90000000000000002
ssg291
(dp542
g10
F1.3
ssVcom.tencent.mm
p543
(dp544
g10
F1.1000000000000001
ssVcom.eg.android.AlipayGphone
p545
(dp546
g10
I1
ssVcom.soft.blued
p547
(dp548
g10
F4.7999999999999998
sssg49
(dp549
Vcom.android.launcher3
p550
(dp551
g10
F1.7
ssVcom.tencent.mobileqq
p552
(dp553
g10
F0.90000000000000002
ssVcom.soft.blued
p554
(dp555
g10
F0.40000000000000002
sssg51
(dp556
Vcom.android.launcher3
p557
(dp558
g10
F37.599999999999994
ssg371
(dp559
g10
F1.3
ssVcom.skycall.oem
p560
(dp561
g10
F1.3
ssVcom.sankuai.meituan
p562
(dp563
g10
F0.40000000000000002
ssg73
(dp564
g10
F0.40000000000000002
ssVcom.youdao.dict
p565
(dp566
g10
F0.69999999999999996
ssVcom.lovebizhi.wallpaper
p567
(dp568
g10
F0.90000000000000002
ssVcom.tencent.mm
p569
(dp570
g10
F10.900000000000002
ssVcom.meizu.flyme.gamecenter
p571
(dp572
g10
F1.3
ssVcom.youku.phone
p573
(dp574
g10
F0.90000000000000002
ssg19
(dp575
g10
F0.90000000000000002
ssg208
(dp576
g10
F0.80000000000000004
ssVcom.android.dialer
p577
(dp578
g10
F0.69999999999999996
ssVcom.baidu.tieba
p579
(dp580
g10
F0.90000000000000002
ssVcom.dianxinos.optimizer.duplay
p581
(dp582
g10
F0.40000000000000002
ssVcom.android.phone
p583
(dp584
g10
F0.40000000000000002
ssVcom.soft.blued
p585
(dp586
g10
F19.999999999999989
ssVcom.tencent.mobileqq
p587
(dp588
g10
F2.7000000000000002
ssVcom.meizu.flyme.weather
p589
(dp590
g10
F1.3
ssVcom.eg.android.AlipayGphone
p591
(dp592
g10
F1.3
ssg61
(dp593
g10
F5.6999999999999993
sssg53
(dp594
Vcom.android.launcher3
p595
(dp596
g10
F6.0000000000000009
ssVcom.android.dialer
p597
(dp598
g10
F10.500000000000002
ssVcom.tencent.mm
p599
(dp600
g10
F0.40000000000000002
ssVcom.android.mms
p601
(dp602
g10
F0.90000000000000002
ssg392
(dp603
g10
F0.69999999999999996
ssVcom.tencent.mobileqq
p604
(dp605
g10
F0.69999999999999996
ssVcom.soft.blued
p606
(dp607
g10
F0.69999999999999996
sssg55
(dp608
Vcom.android.launcher3
p609
(dp610
g10
F30.699999999999989
ssVcom.android.alarmclock
p611
(dp612
g10
F0.40000000000000002
ssg11
(dp613
g10
F0.40000000000000002
ssVcom.dianxinos.optimizer.duplay
p614
(dp615
g10
F0.90000000000000002
ssVcom.tencent.mobileqq
p616
(dp617
g10
F4.7999999999999998
ssVcom.meizu.media.camera
p618
(dp619
g10
I1
ssVcom.skycall.oem
p620
(dp621
g10
F0.69999999999999996
ssVcom.taobao.taobao
p622
(dp623
g10
F0.40000000000000002
ssg311
(dp624
g10
F0.40000000000000002
ssVcom.UCMobile
p625
(dp626
g10
F2.2999999999999998
ssVvStudio.Android.Camera360
p627
(dp628
g10
F1.8
ssg289
(dp629
g10
F0.90000000000000002
ssg123
(dp630
g10
F0.40000000000000002
ssg276
(dp631
g10
F0.40000000000000002
ssg95
(dp632
g10
F0.90000000000000002
ssVcom.meizu.flyme.weather
p633
(dp634
g10
I2
ssVcom.tencent.mm
p635
(dp636
g10
F8.1000000000000014
ssg33
(dp637
g10
F3.6000000000000001
ssVcom.soft.blued
p638
(dp639
g10
F4.0999999999999996
sssg57
(dp640
Vcom.android.launcher3
p641
(dp642
g10
F2.7000000000000002
ssg89
(dp643
g10
F0.90000000000000002
ssVcom.tencent.mm
p644
(dp645
g10
F0.40000000000000002
ssVcom.soft.blued
p646
(dp647
g10
F0.90000000000000002
sssg59
(dp648
Vcom.android.launcher3
p649
(dp650
g10
F8.8000000000000007
ssg361
(dp651
g10
F0.90000000000000002
ssg297
(dp652
g10
F0.40000000000000002
ssVcom.myzaker.ZAKER_Phone
p653
(dp654
g10
F1.3
ssVcom.baidu.tieba
p655
(dp656
g10
F1.3
ssVcom.tencent.mm
p657
(dp658
g10
F0.69999999999999996
ssg166
(dp659
g10
F1.8
ssVcom.meizu.flyme.weather
p660
(dp661
g10
F0.40000000000000002
sssg61
(dp662
Vcom.android.launcher3
p663
(dp664
g10
F8.6000000000000014
ssg69
(dp665
g10
I1
ssVcom.meizu.mstore
p666
(dp667
g10
F0.69999999999999996
ssVcom.UCMobile
p668
(dp669
g10
I1
ssVcom.myzaker.ZAKER_Phone
p670
(dp671
g10
F1.7
ssVcom.meizu.media.gallery
p672
(dp673
g10
I2
ssVcom.soft.blued
p674
(dp675
g10
F6.1000000000000005
ssVcom.tencent.mobileqq
p676
(dp677
g10
F2.2999999999999998
ssVcom.eg.android.AlipayGphone
p678
(dp679
g10
F0.69999999999999996
ssVcom.meizu.flyme.weather
p680
(dp681
g10
I1
sssg63
(dp682
g8
(dp683
g10
F0.90000000000000002
ssg11
(dp684
g10
F3.9000000000000004
ssg15
(dp685
g10
F2.2000000000000002
ssg17
(dp686
g10
F1.3
ssVcom.UCMobile
p687
(dp688
g10
F16.600000000000001
ssg322
(dp689
g10
F2.1000000000000001
ssg190
(dp690
g10
F0.90000000000000002
ssVcom.liulishuo.engzo
p691
(dp692
g10
F8.1999999999999993
ssVcom.eg.android.AlipayGphone
p693
(dp694
g10
F14.700000000000003
ssVcom.soft.blued
p695
(dp696
g10
F146.20000000000027
ssVcom.android.launcher3
p697
(dp698
g10
F306.19999999999936
ssg41
(dp699
g10
F13.100000000000003
ssVcom.sankuai.meituan
p700
(dp701
g10
F4
ssVcom.taobao.taobao
p702
(dp703
g10
F3.2000000000000002
ssg402
(dp704
g10
F9.5999999999999996
ssg53
(dp705
g10
F2.5
ssg229
(dp706
g10
F7.700000000000002
ssg162
(dp707
g10
F2.4000000000000004
ssg261
(dp708
g10
F95.800000000000068
ssg565
(dp709
g10
F2.7000000000000002
ssg71
(dp710
g10
F0.90000000000000002
ssVcom.meizu.mstore
p711
(dp712
g10
F10.899999999999999
ssg79
(dp713
g10
F0.40000000000000002
ssg81
(dp714
g10
F0.69999999999999996
ssg83
(dp715
g10
F1.8
ssVcom.meizu.filemanager
p716
(dp717
g10
I1
ssg567
(dp718
g10
F0.40000000000000002
ssVcom.tencent.tmgp.gb
p719
(dp720
g10
I1
ssVcom.jzyd.BanTang
p721
(dp722
g10
F1.7000000000000002
ssg97
(dp723
g10
F1.7
ssg99
(dp724
g10
F1.7000000000000002
ssVcom.android.alarmclock
p725
(dp726
g10
F2
ssVcom.meizu.media.video
p727
(dp728
g10
F1.8
ssVcom.skycall.oem
p729
(dp730
g10
F4.0999999999999996
ssg21
(dp731
g10
F1.7000000000000002
ssVcom.android.settings
p732
(dp733
g10
F5.5999999999999996
ssVcom.android.mms
p734
(dp735
g10
F2.7000000000000002
ssg31
(dp736
g10
I1
ssg119
(dp737
g10
F3.6000000000000001
ssg373
(dp738
g10
F4.7000000000000002
ssVcom.nerser.ccser
p739
(dp740
g10
F1.3
ssVcom.meizu.flyme.weather
p741
(dp742
g10
F3.7000000000000002
sssg65
(dp743
Vcom.android.launcher3
p744
(dp745
g10
F1.7
ssVcom.tencent.mobileqq
p746
(dp747
g10
F0.40000000000000002
ssVcom.soft.blued
p748
(dp749
g10
F0.90000000000000002
sssg67
(dp750
Vcom.android.launcher3
p751
(dp752
g10
F3.4000000000000004
ssVcom.ting.mp3.android
p753
(dp754
g10
F1.3
ssVcom.tencent.mm
p755
(dp756
g10
I1
ssVcom.meizu.mstore
p757
(dp758
g10
F0.40000000000000002
sssg69
(dp759
Vcom.android.launcher3
p760
(dp761
g10
F3.3999999999999999
ssVcom.tencent.mobileqq
p762
(dp763
g10
I1
ssg666
(dp764
g10
F1.6000000000000001
ssVcom.eg.android.AlipayGphone
p765
(dp766
g10
F0.40000000000000002
ssVcom.soft.blued
p767
(dp768
g10
F11.199999999999999
sssg71
(dp769
Vcom.android.launcher3
p770
(dp771
g10
F3.4000000000000004
ssg687
(dp772
g10
F0.90000000000000002
ssVcom.tencent.mm
p773
(dp774
g10
F0.40000000000000002
ssVcom.youku.phone
p775
(dp776
g10
F0.90000000000000002
ssg145
(dp777
g10
F0.40000000000000002
sssg73
(dp778
Vcom.android.launcher3
p779
(dp780
g10
F1.7
ssg159
(dp781
g10
F0.90000000000000002
sssg75
(dp782
Vcom.android.launcher3
p783
(dp784
g10
F4.0999999999999996
ssg220
(dp785
g10
F1.8
ssVcom.tencent.mm
p786
(dp787
g10
F0.40000000000000002
sssg77
(dp788
Vcom.android.launcher3
p789
(dp790
g10
F32.099999999999994
ssVcom.android.dialer
p791
(dp792
g10
I1
ssVcom.youku.phone
p793
(dp794
g10
F1.6000000000000001
ssVcom.tuan800.tao800
p795
(dp796
g10
F2.6999999999999997
ssg552
(dp797
g10
F1.5
ssg49
(dp798
g10
F0.90000000000000002
ssg119
(dp799
g10
F1.3999999999999999
ssg21
(dp800
g10
F0.69999999999999996
ssVcom.myzaker.ZAKER_Phone
p801
(dp802
g10
F0.40000000000000002
ssVcom.baidu.tieba
p803
(dp804
g10
F0.40000000000000002
ssVcom.meizu.media.gallery
p805
(dp806
g10
F0.90000000000000002
ssg29
(dp807
g10
F1.7
ssg97
(dp808
g10
F0.40000000000000002
ssVcom.tencent.mm
p809
(dp810
g10
F15.799999999999999
ssVcom.eg.android.AlipayGphone
p811
(dp812
g10
F2.7000000000000002
ssVcom.soft.blued
p813
(dp814
g10
F6.4000000000000004
sssg79
(dp815
sg81
(dp816
Vcom.android.launcher3
p817
(dp818
g10
I1
sssg83
(dp819
Vcom.android.launcher3
p820
(dp821
g10
F8.4000000000000004
ssVcom.meizu.media.gallery
p822
(dp823
g10
F1.7
ssVcom.skycall.oem
p824
(dp825
g10
F0.90000000000000002
ssVcom.tencent.mm
p826
(dp827
g10
F1.8
ssg99
(dp828
g10
F0.40000000000000002
sssg85
(dp829
g37
(dp830
g10
F12.6
ssVcom.android.alarmclock
p831
(dp832
g10
F0.69999999999999996
ssg109
(dp833
g10
F1.3
ssVcom.android.settings
p834
(dp835
g10
F1.8
ssVcom.taobao.taobao
p836
(dp837
g10
F0.40000000000000002
ssg107
(dp838
g10
I1
ssg35
(dp839
g10
F2.2000000000000002
ssVcom.tencent.mm
p840
(dp841
g10
F0.90000000000000002
ssVcom.tencent.mobileqq
p842
(dp843
g10
F6.2000000000000002
sssg87
(dp844
Vcom.android.launcher3
p845
(dp846
g10
F9.4000000000000004
ssVcom.tencent.mobileqq
p847
(dp848
g10
F3.6000000000000001
ssVcom.liulishuo.engzo
p849
(dp850
g10
F0.40000000000000002
ssVcom.tencent.mm
p851
(dp852
g10
F2.2000000000000002
ssVcom.soft.blued
p853
(dp854
g10
F1.3
sssg89
(dp855
Vcom.android.launcher3
p856
(dp857
g10
F3.4000000000000004
ssVcom.meizu.media.gallery
p858
(dp859
g10
F0.90000000000000002
ssg581
(dp860
g10
F1.3
ssg95
(dp861
g10
F0.40000000000000002
sssg91
(dp862
Vcom.android.launcher3
p863
(dp864
g10
F11.5
ssVcom.tencent.mm
p865
(dp866
g10
F2.7000000000000002
ssVcom.tencent.mobileqq
p867
(dp868
g10
F9.8000000000000007
ssVcom.soft.blued
p869
(dp870
g10
F3
sssg93
(dp871
Vcom.android.launcher3
p872
(dp873
g10
F4.4000000000000004
ssg732
(dp874
g10
F0.40000000000000002
ssVcom.android.dialer
p875
(dp876
g10
F0.90000000000000002
ssVcom.tencent.mm
p877
(dp878
g10
F1.3
ssVcom.ting.mp3.android
p879
(dp880
g10
F0.90000000000000002
sssg95
(dp881
Vcom.android.launcher3
p882
(dp883
g10
F5.8000000000000007
ssVcom.meizu.mstore
p884
(dp885
g10
F0.90000000000000002
ssVcom.tencent.mm
p886
(dp887
g10
F3
ssVcom.myzaker.ZAKER_Phone
p888
(dp889
g10
F0.69999999999999996
ssVcom.baidu.tieba
p890
(dp891
g10
F0.40000000000000002
ssVcom.tencent.mobileqq
p892
(dp893
g10
F7.5000000000000009
ssVcom.soft.blued
p894
(dp895
g10
F6
sssg97
(dp896
g214
(dp897
g10
F1.8
ssVcom.adsafe
p898
(dp899
g10
I1
ssg218
(dp900
g10
F1.7
sssg99
(dp901
Vcom.android.launcher3
p902
(dp903
g10
F10.199999999999999
ssVcom.android.settings
p904
(dp905
g10
F0.90000000000000002
ssVcom.tencent.mm
p906
(dp907
g10
F4
ssVcom.soft.blued
p908
(dp909
g10
F0.80000000000000004
sssg101
(dp910
Vcom.youku.phone
p911
(dp912
g10
F1.1000000000000001
ssg107
(dp913
g10
F26.499999999999986
ssg25
(dp914
g10
F0.40000000000000002
ssVcom.sankuai.movie
p915
(dp916
g10
F2.7000000000000002
ssVcom.eg.android.AlipayGphone
p917
(dp918
g10
F19.300000000000001
ssg35
(dp919
g10
F92.500000000000114
ssg37
(dp920
g10
F249.79999999999984
ssVcom.android.dialer
p921
(dp922
g10
F12.700000000000001
ssg43
(dp923
g10
F7.5
ssVcom.sankuai.meituan
p924
(dp925
g10
F1.3
ssg47
(dp926
g10
F7.7000000000000002
ssg335
(dp927
g10
F5.7999999999999998
ssVcom.meizu.media.gallery
p928
(dp929
g10
F5.2999999999999998
ssVcn.ibuka.manga.ui
p930
(dp931
g10
F1.1000000000000001
ssVcom.tencent.mm
p932
(dp933
g10
F101.50000000000006
ssVcom.heqee.book.mcnxsr
p934
(dp935
g10
F1.7
ssg494
(dp936
g10
F1.3
ssVcom.meizu.mstore
p937
(dp938
g10
F2.2000000000000002
ssg571
(dp939
g10
F0.69999999999999996
ssg85
(dp940
g10
F6.8000000000000007
ssVcom.yipiao
p941
(dp942
g10
F1.8
ssVcom.tencent.tmgp.gb
p943
(dp944
g10
F9.2000000000000011
ssVcom.happyelements.AndroidAnimal
p945
(dp946
g10
I1
ssg721
(dp947
g10
F7.8000000000000007
ssg358
(dp948
g10
F3.6000000000000001
ssVcom.meizu.media.video
p949
(dp950
g10
F0.90000000000000002
ssVcom.skycall.oem
p951
(dp952
g10
F12.6
ssg113
(dp953
g10
F1.7000000000000002
ssVcom.android.settings
p954
(dp955
g10
F0.69999999999999996
ssVcom.android.mms
p956
(dp957
g10
I1
ssg436
(dp958
g10
F12.199999999999999
ssVcom.ting.mp3.android
p959
(dp960
g10
F3.8999999999999999
ssVcom.baidu.tieba
p961
(dp962
g10
F14.499999999999998
ssVcom.meizu.media.music
p963
(dp964
g10
F0.90000000000000002
ssg378
(dp965
g10
F1.8999999999999999
sssg103
(dp966
Vcom.android.launcher3
p967
(dp968
g10
F3.8999999999999999
ssVcom.tencent.mobileqq
p969
(dp970
g10
F0.69999999999999996
ssVcom.UCMobile
p971
(dp972
g10
F1.7
ssVcom.soft.blued
p973
(dp974
g10
F1.8
ssVcom.tencent.mm
p975
(dp976
g10
F2.3999999999999999
ssVcom.eg.android.AlipayGphone
p977
(dp978
g10
F0.40000000000000002
ssVcom.android.alarmclock
p979
(dp980
g10
F0.40000000000000002
sssg105
(dp981
Vcom.android.launcher3
p982
(dp983
g10
F32.29999999999999
ssVcom.android.dialer
p984
(dp985
g10
F7.5000000000000009
ssVcom.tencent.mm
p986
(dp987
g10
F4
ssg483
(dp988
g10
F2.6999999999999997
ssVcom.yipiao
p989
(dp990
g10
F0.90000000000000002
ssVcom.UCMobile
p991
(dp992
g10
I1
ssVcom.baidu.tieba
p993
(dp994
g10
F0.90000000000000002
ssVcom.meizu.mzsnssyncservice
p995
(dp996
g10
F1.3
ssVcom.android.settings
p997
(dp998
g10
F0.69999999999999996
ssg489
(dp999
g10
F0.90000000000000002
ssVcom.android.alarmclock
p1000
(dp1001
g10
F1.3
ssVcom.tencent.mobileqq
p1002
(dp1003
g10
F7
ssVcom.eg.android.AlipayGphone
p1004
(dp1005
g10
F2
ssVcom.soft.blued
p1006
(dp1007
g10
F7.8000000000000007
sssg107
(dp1008
Vcom.baidu.netdisk
p1009
(dp1010
g10
F0.69999999999999996
ssVcom.meizu.customizecenter
p1011
(dp1012
g10
F0.69999999999999996
ssVcom.soft.blued
p1013
(dp1014
g10
F15.700000000000001
ssVcom.android.launcher3
p1015
(dp1016
g10
F59.399999999999999
ssVcom.android.dialer
p1017
(dp1018
g10
F3
ssg43
(dp1019
g10
F5.3000000000000007
ssVcom.sankuai.meituan
p1020
(dp1021
g10
F2.3999999999999999
ssg622
(dp1022
g10
F0.90000000000000002
ssVcom.myzaker.ZAKER_Phone
p1023
(dp1024
g10
F2.2999999999999998
ssVcom.tencent.mobileqq
p1025
(dp1026
g10
F32.09999999999998
ssVcom.meizu.media.gallery
p1027
(dp1028
g10
F2.2999999999999998
ssg59
(dp1029
g10
F0.90000000000000002
ssg773
(dp1030
g10
F14.9
ssVcom.meizu.mstore
p1031
(dp1032
g10
F1.3
ssVcom.meizu.filemanager
p1033
(dp1034
g10
I1
ssg91
(dp1035
g10
F0.69999999999999996
ssg979
(dp1036
g10
F3.2999999999999998
ssg103
(dp1037
g10
F1.3
ssVcom.skycall.oem
p1038
(dp1039
g10
I1
ssg121
(dp1040
g10
I1
ssg111
(dp1041
g10
F3.5999999999999996
ssVcom.android.mms
p1042
(dp1043
g10
F0.90000000000000002
ssVcom.liulishuo.engzo
p1044
(dp1045
g10
F4.3000000000000007
ssg614
(dp1046
g10
F0.40000000000000002
ssg655
(dp1047
g10
F1.3
sssg109
(dp1048
Vcom.android.launcher3
p1049
(dp1050
g10
F11.5
ssVcom.android.settings
p1051
(dp1052
g10
F16.999999999999996
ssVcom.tencent.mm
p1053
(dp1054
g10
F1.8
ssVcom.myzaker.ZAKER_Phone
p1055
(dp1056
g10
F0.40000000000000002
ssVcom.baidu.tieba
p1057
(dp1058
g10
F1.3
ssVcom.tencent.mobileqq
p1059
(dp1060
g10
F0.40000000000000002
ssVcom.eg.android.AlipayGphone
p1061
(dp1062
g10
F1.3
ssVcom.soft.blued
p1063
(dp1064
g10
F0.40000000000000002
sssg111
(dp1065
Vcom.android.launcher3
p1066
(dp1067
g10
F32.399999999999984
ssg121
(dp1068
g10
F0.69999999999999996
ssg71
(dp1069
g10
F0.40000000000000002
ssg143
(dp1070
g10
F0.40000000000000002
ssVus.pinguo.idcamera
p1071
(dp1072
g10
I1
ssg1038
(dp1073
g10
F0.69999999999999996
ssVcom.dianxinos.optimizer.duplay
p1074
(dp1075
g10
F16.299999999999997
ssVcom.meizu.media.camera
p1076
(dp1077
g10
F1.3
ssg149
(dp1078
g10
F0.40000000000000002
ssg115
(dp1079
g10
F1.3
ssVcom.meizu.filemanager
p1080
(dp1081
g10
F1.7000000000000002
ssVcom.youku.phone
p1082
(dp1083
g10
F1.8
ssg1011
(dp1084
g10
F1.7000000000000002
ssVcom.UCMobile
p1085
(dp1086
g10
F4.5999999999999996
ssVcom.eg.android.AlipayGphone
p1087
(dp1088
g10
F1.6000000000000001
ssVcom.meizu.media.gallery
p1089
(dp1090
g10
F0.69999999999999996
ssg786
(dp1091
g10
F2.6000000000000001
ssVcom.meizu.flyme.calculator
p1092
(dp1093
g10
F2.7000000000000002
ssVcom.soft.blued
p1094
(dp1095
g10
F4
sssg113
(dp1096
Vcom.android.launcher3
p1097
(dp1098
g10
F4.9000000000000004
ssVcom.meizu.mstore
p1099
(dp1100
g10
I1
ssVcom.taobao.taobao
p1101
(dp1102
g10
F0.69999999999999996
ssVcom.ting.mp3.android
p1103
(dp1104
g10
F2.7000000000000002
ssVcom.tencent.mobileqq
p1105
(dp1106
g10
F1.3999999999999999
ssVcom.soft.blued
p1107
(dp1108
g10
F0.69999999999999996
sssg115
(dp1109
Vcom.android.launcher3
p1110
(dp1111
g10
F22.699999999999992
ssVcom.skycall.oem
p1112
(dp1113
g10
F1.3999999999999999
ssg238
(dp1114
g10
F6.7000000000000002
ssVcom.meizu.mstore
p1115
(dp1116
g10
F1.3
ssVcom.android.settings
p1117
(dp1118
g10
F1.6000000000000001
ssg450
(dp1119
g10
F1.7000000000000002
ssVcom.taobao.taobao
p1120
(dp1121
g10
F1.3
ssVcom.ting.mp3.android
p1122
(dp1123
g10
I1
ssVcom.baidu.tieba
p1124
(dp1125
g10
F1.3
ssVcom.tencent.mobileqq
p1126
(dp1127
g10
I1
ssVcom.android.phone
p1128
(dp1129
g10
F1.6000000000000001
ssVcom.meizu.media.gallery
p1130
(dp1131
g10
F0.69999999999999996
ssVcom.tencent.mm
p1132
(dp1133
g10
F2.7999999999999998
ssg1087
(dp1134
g10
F0.40000000000000002
ssVcom.soft.blued
p1135
(dp1136
g10
F1.7
sssg117
(dp1137
Vcom.android.launcher3
p1138
(dp1139
g10
F22.299999999999997
ssg8
(dp1140
g10
F0.40000000000000002
ssVcom.tencent.mobileqq
p1141
(dp1142
g10
F13.199999999999999
ssVcom.android.packageinstaller
p1143
(dp1144
g10
F0.90000000000000002
ssVcom.UCMobile
p1145
(dp1146
g10
F1.3
ssVvStudio.Android.Camera360
p1147
(dp1148
g10
F0.40000000000000002
ssVcom.baidu.tieba
p1149
(dp1150
g10
F0.90000000000000002
ssVcom.android.alarmclock
p1151
(dp1152
g10
F0.90000000000000002
ssVcom.tencent.mm
p1153
(dp1154
g10
F13.700000000000001
ssVcom.eg.android.AlipayGphone
p1155
(dp1156
g10
F3.5999999999999996
ssVcom.soft.blued
p1157
(dp1158
g10
F15.999999999999998
sssg119
(dp1159
Vcom.android.launcher3
p1160
(dp1161
g10
F27.699999999999996
ssg413
(dp1162
g10
F2.2000000000000002
ssVcom.tuan800.tao800
p1163
(dp1164
g10
I1
ssg512
(dp1165
g10
F2.7000000000000002
ssg67
(dp1166
g10
F1.3
ssg562
(dp1167
g10
F4.5
ssVcom.android.mms
p1168
(dp1169
g10
I1
ssg15
(dp1170
g10
F0.40000000000000002
ssVcom.taobao.taobao
p1171
(dp1172
g10
F1.3
ssVcom.liulishuo.engzo
p1173
(dp1174
g10
F0.90000000000000002
ssVcom.meizu.filemanager
p1175
(dp1176
g10
F0.40000000000000002
ssVcom.android.settings
p1177
(dp1178
g10
F1.3
ssg514
(dp1179
g10
F0.90000000000000002
ssVcom.tencent.mm
p1180
(dp1181
g10
F3.5
ssVcom.soft.blued
p1182
(dp1183
g10
F9.3000000000000025
sssg121
(dp1184
Vcom.android.launcher3
p1185
(dp1186
g10
F0.40000000000000002
ssVcom.UCMobile
p1187
(dp1188
g10
F1.7
ssVcom.android.dialer
p1189
(dp1190
g10
F0.90000000000000002
sssg123
(dp1191
Vcom.android.launcher3
p1192
(dp1193
g10
F38.799999999999997
ssg949
(dp1194
g10
F0.40000000000000002
ssVcom.android.alarmclock
p1195
(dp1196
g10
F1.8999999999999999
ssVcom.meizu.mstore
p1197
(dp1198
g10
F1.7000000000000002
ssVcom.tencent.mobileqq
p1199
(dp1200
g10
F17.899999999999999
ssg13
(dp1201
g10
F1.3
ssg307
(dp1202
g10
F0.90000000000000002
ssVcom.meizu.filemanager
p1203
(dp1204
g10
F0.90000000000000002
ssg1147
(dp1205
g10
F0.90000000000000002
ssVcom.UCMobile
p1206
(dp1207
g10
F1.8999999999999999
ssVcom.tencent.tmgp.gb
p1208
(dp1209
g10
F1.6000000000000001
ssVcom.myzaker.ZAKER_Phone
p1210
(dp1211
g10
F0.90000000000000002
ssg834
(dp1212
g10
F0.40000000000000002
ssg129
(dp1213
g10
F1.8
ssg63
(dp1214
g10
F3.5
ssVcom.soft.blued
p1215
(dp1216
g10
F21.099999999999998
sssg125
(dp1217
Vcom.android.launcher3
p1218
(dp1219
g10
F5.4000000000000004
ssVcom.skycall.oem
p1220
(dp1221
g10
F0.40000000000000002
ssVcom.android.dialer
p1222
(dp1223
g10
F0.90000000000000002
ssVcom.tencent.mm
p1224
(dp1225
g10
F0.90000000000000002
sssg127
(dp1226
Vcom.android.launcher3
p1227
(dp1228
g10
I2
ssVcom.tencent.mm
p1229
(dp1230
g10
F0.90000000000000002
sssg129
(dp1231
Vcom.android.launcher3
p1232
(dp1233
g10
F20.800000000000001
ssVcom.meizu.mstore
p1234
(dp1235
g10
F1.3
ssg79
(dp1236
g10
F0.90000000000000002
ssg1199
(dp1237
g10
F0.90000000000000002
ssg73
(dp1238
g10
F0.90000000000000002
ssVcom.meizu.media.camera
p1239
(dp1240
g10
F0.90000000000000002
ssg47
(dp1241
g10
F0.40000000000000002
ssg402
(dp1242
g10
F0.40000000000000002
ssVcom.android.alarmclock
p1243
(dp1244
g10
F6.9000000000000004
ssg63
(dp1245
g10
F2.7000000000000002
ssVcom.soft.blued
p1246
(dp1247
g10
F1.1000000000000001
ssssS'edge'
p1248
g134
sS'pred'
p1249
(dp1250
g8
(dp1251
g1138
g381
sVcom.tencent.mm
p1252
g683
sg1171
g534
sVcom.liulishuo.engzo
p1253
g1140
ssg11
(dp1254
Vcom.android.launcher3
p1255
g382
sg494
g776
sg884
g794
sVcom.tencent.mobileqq
p1256
g912
sVcom.myzaker.ZAKER_Phone
p1257
g574
sVcom.android.settings
p1258
g1083
sg229
g613
sg29
g257
sg635
g684
sVcom.eg.android.AlipayGphone
p1259
g271
sVcom.soft.blued
p1260
g317
ssg13
(dp1261
Vcom.android.launcher3
p1262
g383
sVcom.sparklykey.qinsmoon.wdj
p1263
g448
sVcom.android.dialer
p1264
g451
sVcom.android.mms
p1265
g1119
sVcom.baidu.tieba
p1266
g1201
sVcom.soft.blued
p1267
g319
ssg15
(dp1268
Vcom.ting.mp3.android
p1269
g1170
sVcom.android.launcher3
p1270
g384
sVcom.tencent.mm
p1271
g685
sg196
g273
sVcom.UCMobile
p1272
g1010
ssg17
(dp1273
Vcom.android.launcher3
p1274
g385
sVcom.tencent.mm
p1275
g686
ssg19
(dp1276
g557
g386
sg111
g1084
sg51
g575
sg1085
g1012
ssg21
(dp1277
Vcom.android.launcher3
p1278
g387
sg97
g899
sVcom.tencent.mm
p1279
g731
sVcom.meizu.mstore
p1280
g800
ssg23
(dp1281
Vcom.android.launcher3
p1282
g388
sVcom.liulishuo.engzo
p1283
g1148
sg1149
g1205
sVcom.meizu.media.gallery
p1284
g628
sg231
g689
sg233
g323
ssg25
(dp1285
Vcom.android.launcher3
p1286
g389
sVcom.skycall.oem
p1287
g996
sVcom.android.dialer
p1288
g463
sVcom.tencent.mobileqq
p1289
g914
ssg27
(dp1290
Vcom.android.launcher3
p1291
g390
sg194
g690
sg15
g191
sg333
g541
sVcom.meizu.media.gallery
p1292
g631
sVcom.tencent.mobileqq
p1293
g916
sVcom.eg.android.AlipayGphone
p1294
g277
sVcom.soft.blued
p1295
g324
ssg29
(dp1296
Vcom.android.launcher3
p1297
g391
sVcom.youku.phone
p1298
g161
sVcom.meizu.mstore
p1299
g807
ssg31
(dp1300
Vcom.android.launcher3
p1301
g393
sVcom.android.dialer
p1302
g454
sVcom.tencent.mm
p1303
g736
sVcom.android.phone
p1304
g603
ssg33
(dp1305
g911
g167
sVcom.baidu.netdisk
p1306
g197
sVcom.soft.blued
p1307
g325
sVcom.android.launcher3
p1308
g394
sVcom.android.dialer
p1309
g456
sVcom.android.packageinstaller
p1310
g506
sVcom.sankuai.meituan
p1311
g525
sVcom.taobao.taobao
p1312
g546
sVcom.myzaker.ZAKER_Phone
p1313
g592
sg55
g637
sg162
g659
sVcom.tencent.mobileqq
p1314
g918
sg69
g766
sg145
g812
sVcom.tencent.mm
p1315
g694
sVcom.android.alarmclock
p1316
g679
sg949
g978
sg105
g1005
sVcom.dianxinos.optimizer.duplay
p1317
g1062
sg1117
g1088
sg115
g1134
sVcom.liulishuo.engzo
p1318
g1156
ssg35
(dp1319
Vcom.youku.phone
p1320
g169
sg1009
g193
sg1011
g211
sVcom.UCMobile
p1321
g1014
sg23
g234
sg436
g1158
sVcom.eg.android.AlipayGphone
p1322
g279
sVcom.android.launcher3
p1323
g395
sg41
g458
sg45
g527
sg702
g548
sg49
g555
sVcom.myzaker.ZAKER_Phone
p1324
g586
sVcom.android.phone
p1325
g607
sVcom.meizu.media.gallery
p1326
g639
sVme.topit.TopAndroid2
p1327
g647
sVcom.tencent.mobileqq
p1328
g919
sg65
g749
sVcom.heqee.book.mcnxsr
p1329
g768
sg1234
g814
sVcom.meizu.filemanager
p1330
g839
sg941
g854
sVcom.tencent.tmgp.gb
p1331
g870
sg95
g895
sVcom.meizu.flyme.calculator
p1332
g909
sg358
g675
sg103
g974
sVcom.skycall.oem
p1333
g1007
sg1163
g1108
sVcom.dianxinos.optimizer.duplay
p1334
g1064
sg341
g696
sVcom.android.mms
p1335
g1136
sg31
g268
sVcom.ting.mp3.android
p1336
g1183
sg373
g1216
sVcom.android.settings
p1337
g1095
sVcom.meizu.flyme.weather
p1338
g1247
ssg37
(dp1339
g8
g137
sg11
g142
sg13
g172
sg15
g183
sg17
g202
sg19
g207
sg21
g215
sg322
g224
sg25
g237
sg915
g246
sVcom.plantronics.headsetservice
p1340
g253
sg31
g260
sg33
g281
sVcom.soft.blued
p1341
g328
sg69
g761
sg1263
g446
sg41
g460
sVcom.android.packageinstaller
p1342
g493
sVcom.sankuai.meituan
p1343
g509
sg47
g530
sg49
g551
sg51
g558
sVcom.android.phone
p1344
g596
sg55
g610
sg57
g642
sg59
g650
sg831
g664
sg63
g698
sg65
g745
sg67
g752
sg71
g771
sg143
g780
sg75
g784
sg77
g790
sg571
g818
sVcom.meizu.media.camera
p1345
g821
sg85
g830
sg87
g846
sVcom.lovebizhi.wallpaper
p1346
g857
sVcom.tencent.tmgp.gb
p1347
g864
sg93
g873
sg95
g883
sg97
g897
sg99
g903
sg101
g920
sg949
g968
sg105
g983
sg107
g1016
sg109
g1050
sg111
g1067
sg113
g1098
sg115
g1111
sg1253
g1139
sg371
g1161
sg121
g1186
sg123
g1193
sVcom.meizu.media.music
p1348
g1219
sg127
g1228
sg129
g1233
ssg39
(dp1349
Vcom.android.launcher3
p1350
g396
ssg41
(dp1351
Vcom.android.launcher3
p1352
g397
sg951
g985
sVcom.sankuai.meituan
p1353
g511
sVcom.meizu.mstore
p1354
g792
sg121
g1190
sVcom.tencent.mobileqq
p1355
g922
sVim.yixin
p1356
g178
sg240
g1114
sg1009
g185
sVcom.meizu.mzsnssyncservice
p1357
g239
sVcom.meizu.blockservice
p1358
g264
sg274
g1018
sVcom.myzaker.ZAKER_Phone
p1359
g578
sg1120
g532
sg1344
g598
sg93
g876
sg963
g1223
sg341
g699
sVcom.eg.android.AlipayGphone
p1360
g283
sg695
g329
ssg43
(dp1361
Vcom.android.launcher3
p1362
g398
sVcom.UCMobile
p1363
g1019
sg151
g1144
sVcom.tencent.mobileqq
p1364
g923
sVcom.soft.blued
p1365
g331
ssg45
(dp1366
Vcom.android.launcher3
p1367
g399
sg510
g462
sg1082
g150
sg512
g925
sg959
g1167
sVcom.UCMobile
p1368
g1021
sVcom.myzaker.ZAKER_Phone
p1369
g563
sg1258
g1078
sVcom.tencent.mm
p1370
g701
sg524
g285
sVcom.soft.blued
p1371
g332
ssg47
(dp1372
g1232
g400
sg533
g139
sg113
g1102
sg1199
g926
sg734
g1121
sVcom.meizu.filemanager
p1373
g837
sVcom.ting.mp3.android
p1374
g1172
sg625
g1022
sVcom.meizu.media.gallery
p1375
g623
sg1295
g334
sVcom.tencent.mm
p1376
g703
sg545
g287
sg129
g1241
ssg49
(dp1377
Vcom.android.launcher3
p1378
g401
sg297
g798
sg166
g288
ssg51
(dp1379
Vcom.android.launcher3
p1380
g403
sVcom.android.dialer
p1381
g465
sg225
g802
sg173
g1056
sg63
g704
sg660
g1242
sVcom.UCMobile
p1382
g1024
sVcom.baidu.tieba
p1383
g1211
sVcom.meizu.media.gallery
p1384
g629
sVcom.jzyd.BanTang
p1385
g889
sVcn.ibuka.manga.ui
p1386
g654
sg554
g336
sg552
g927
sVcom.eg.android.AlipayGphone
p1387
g290
sVcom.android.alarmclock
p1388
g671
ssg53
(dp1389
Vcom.android.launcher3
p1390
g404
sVcom.android.dialer
p1391
g466
sVcom.android.mms
p1392
g1129
sg1359
g584
sVcom.tencent.mm
p1393
g705
sVcom.soft.blued
p1394
g338
ssg55
(dp1395
Vcom.android.launcher3
p1396
g405
sVcom.meizu.mstore
p1397
g806
sVcom.tencent.mobileqq
p1398
g929
sg1343
g521
sg227
g823
sg956
g1131
sg1312
g542
sg1346
g859
sVcom.UCMobile
p1399
g1028
sg322
g230
sg954
g1090
sVcom.android.alarmclock
p1400
g673
sVcom.tencent.mm
p1401
g706
sg545
g292
sg1307
g339
ssg57
(dp1402
sg59
(dp1403
Vcom.android.launcher3
p1404
g406
sg911
g163
sVcom.tencent.mobileqq
p1405
g931
sg320
g1029
sVcom.tencent.mm
p1406
g707
sVcom.eg.android.AlipayGphone
p1407
g294
sg210
g340
ssg61
(dp1408
Vcom.android.launcher3
p1409
g407
sg103
g980
sVcom.skycall.oem
p1410
g1001
sVcom.baidu.netdisk
p1411
g199
sVcom.tencent.mobileqq
p1412
g948
sg716
g832
sVcom.liulishuo.engzo
p1413
g1152
sg971
g1036
sVcom.myzaker.ZAKER_Phone
p1414
g593
sVcom.baidu.tieba
p1415
g1196
sg1384
g612
sVcom.meizu.flyme.weather
p1416
g1244
sVcom.tencent.mm
p1417
g726
sVcom.soft.blued
p1418
g359
ssg63
(dp1419
g11
g165
sVim.yixin
p1420
g176
sg15
g195
sg687
g1030
sg23
g232
sg276
g248
sg1340
g255
sg31
g266
sVcom.eg.android.AlipayGphone
p1421
g296
sVcom.soft.blued
p1422
g342
sVcom.android.launcher3
p1423
g408
sg41
g472
sg1343
g523
sVcom.taobao.taobao
p1424
g544
sVcom.myzaker.ZAKER_Phone
p1425
g570
sVcom.android.phone
p1426
g600
sg229
g636
sg1327
g645
sg1386
g658
sVcom.tencent.mobileqq
p1427
g933
sg565
g756
sg71
g774
sg1071
g787
sg77
g810
sg1345
g827
sg1373
g841
sg87
g852
sVcom.tencent.tmgp.gb
p1428
g866
sg93
g878
sg721
g887
sg97
g900
sg99
g907
sg727
g976
sg951
g987
sg21
g219
sg614
g1054
sVcom.android.settings
p1429
g1091
sVcom.android.mms
p1430
g1133
sg117
g1154
sg119
g1181
sg655
g1214
sg1348
g1225
sg127
g1230
sg660
g1245
ssg65
(dp1431
sg67
(dp1432
Vcom.android.launcher3
p1433
g409
sg371
g1166
sg464
g566
sg599
g709
sVcom.soft.blued
p1434
g326
ssg69
(dp1435
g767
g344
sg762
g935
sVcom.android.alarmclock
p1436
g665
ssg71
(dp1437
Vcom.android.launcher3
p1438
g410
sg1429
g1069
sg330
g495
sg786
g710
sVcom.tencent.mobileqq
p1439
g936
ssg73
(dp1440
Vcom.android.launcher3
p1441
g411
sVcom.android.settings
p1442
g1070
sVcom.myzaker.ZAKER_Phone
p1443
g564
sVcom.youku.phone
p1444
g144
sg589
g1238
ssg75
(dp1445
Vcom.android.launcher3
p1446
g412
sVcom.adsafe
p1447
g216
sVcom.soft.blued
p1448
g346
sg220
g1072
ssg77
(dp1449
g789
g414
sg69
g764
sg494
g777
sg791
g470
sg775
g146
sg795
g1100
sVcom.tencent.mobileqq
p1450
g938
sVcom.youdao.dict
p1451
g758
sVcom.android.mms
p1452
g1116
sg119
g1162
sVcom.UCMobile
p1453
g1032
sg1147
g226
sg1436
g667
sVcom.baidu.tieba
p1454
g1198
sVcom.jzyd.BanTang
p1455
g885
sg162
g652
sVcom.soft.blued
p1456
g348
sg809
g712
sg1310
g497
sg166
g298
sVcom.meizu.flyme.weather
p1457
g1235
ssg79
(dp1458
Vcom.android.launcher3
p1459
g415
sVcom.tencent.mm
p1460
g713
sVcom.meizu.flyme.weather
p1461
g1236
ssg81
(dp1462
Vcom.android.launcher3
p1463
g416
sg587
g939
sg335
g572
sVcom.tencent.mm
p1464
g714
sVcom.soft.blued
p1465
g349
ssg83
(dp1466
Vcom.android.launcher3
p1467
g417
sVcom.android.dialer
p1468
g474
sVcom.android.settings
p1469
g1077
sVvStudio.Android.Camera360
p1470
g228
sg822
g619
sVcom.tencent.mm
p1471
g715
sVcom.meizu.flyme.weather
p1472
g1240
ssg85
(dp1473
g37
g419
sVcom.android.settings
p1474
g1081
sVcom.tencent.mm
p1475
g717
sg836
g538
sg1122
g1176
sVcom.UCMobile
p1476
g1034
sVcom.baidu.tieba
p1477
g1204
sg101
g940
sg1341
g351
ssg87
(dp1478
Vcom.android.launcher3
p1479
g420
sVcom.skycall.oem
p1480
g990
sVcom.tencent.mobileqq
p1481
g942
sVcom.soft.blued
p1482
g353
ssg89
(dp1483
g641
g421
sg175
g718
sg1055
g568
sg57
g643
ssg91
(dp1484
g492
g422
sVcom.android.dialer
p1485
g476
sVcom.tencent.mm
p1486
g720
sg1342
g502
sVcom.UCMobile
p1487
g1035
sg961
g1209
sg867
g944
sg869
g355
ssg93
(dp1488
Vcom.android.launcher3
p1489
g423
sg153
g1179
sg149
g515
sVcom.tencent.mobileqq
p1490
g946
ssg95
(dp1491
g856
g424
sg1444
g160
sVcom.tencent.mobileqq
p1492
g947
sg143
g781
sg1346
g861
sg858
g632
sVcom.tencent.mm
p1493
g722
sVcom.soft.blued
p1494
g357
ssg97
(dp1495
g1278
g425
sg21
g217
sVcom.tencent.mm
p1496
g723
sg1280
g808
ssg99
(dp1497
Vcom.android.launcher3
p1498
g426
sVcom.android.dialer
p1499
g478
sg732
g1093
sg473
g828
sVcom.tencent.mm
p1500
g724
sVcom.eg.android.AlipayGphone
p1501
g300
ssg101
(dp1502
Vim.yixin
p1503
g180
sg17
g204
sg107
g1026
sg915
g250
sg31
g262
sg1421
g302
sg1341
g367
sg37
g428
sVcom.android.dialer
p1504
g468
sg43
g504
sVcom.sankuai.meituan
p1505
g513
sg702
g536
sg49
g553
sg335
g588
sVcom.android.phone
p1506
g605
sg928
g617
sg265
g708
sg65
g747
sg1329
g763
sg297
g797
sg85
g843
sg87
g848
sVcom.tencent.tmgp.gb
p1507
g868
sg721
g893
sg358
g677
sVcom.meizu.media.video
p1508
g970
sg479
g1003
sg113
g1106
sg614
g1060
sg956
g1127
sVcom.liulishuo.engzo
p1509
g1142
sVcom.ting.mp3.android
p1510
g1165
sg123
g1200
sg129
g1237
ssg103
(dp1511
Vcom.android.launcher3
p1512
g429
sVcom.tencent.mobileqq
p1513
g950
sVcom.UCMobile
p1514
g1037
sVcom.baidu.tieba
p1515
g1194
sVcom.tencent.mm
p1516
g728
sVcom.soft.blued
p1517
g360
ssg105
(dp1518
Vcom.android.launcher3
p1519
g430
sg984
g480
sVcom.tencent.mm
p1520
g730
sg240
g1113
sVcom.UCMobile
p1521
g1039
sVcom.myzaker.ZAKER_Phone
p1522
g561
sVcom.meizu.media.camera
p1523
g825
sVcom.android.settings
p1524
g1073
sg805
g621
sg963
g1221
sVcn.ibuka.manga.ui
p1525
g651
sVcom.tencent.mobileqq
p1526
g952
sVcom.eg.android.AlipayGphone
p1527
g303
sVcom.soft.blued
p1528
g362
ssg107
(dp1529
g11
g156
sVcom.baidu.netdisk
p1530
g187
sg19
g209
sVcom.eg.android.AlipayGphone
p1531
g275
sg210
g321
sg327
g431
sg1189
g453
sg43
g501
sVcom.sankuai.meituan
p1532
g519
sg51
g576
sg366
g913
sg1326
g626
sg786
g688
sg71
g772
sg350
g838
sg979
g669
sg103
g972
sg1038
g992
sg121
g1188
sg111
g1086
sVcom.liulishuo.engzo
p1533
g1146
sVcom.baidu.tieba
p1534
g1207
ssg109
(dp1535
Vcom.android.launcher3
p1536
g432
sg1051
g1075
sg447
g174
sg1080
g833
sg567
g860
sVcom.UCMobile
p1537
g1046
sg1055
g582
sg1089
g615
sVcom.soft.blued
p1538
g365
ssg111
(dp1539
g206
g433
sVcom.ting.mp3.android
p1540
g1178
sg1038
g998
sVcom.android.dialer
p1541
g482
sg75
g785
sVcom.youku.phone
p1542
g148
sg208
g1041
sg109
g1052
sVcom.tencent.mobileqq
p1543
g955
sg115
g1118
sg1203
g835
sg19
g212
sg1447
g221
sg1477
g1212
sVcom.eg.android.AlipayGphone
p1544
g306
sVcom.happyelements.AndroidAnimal
p1545
g874
sVcom.tencent.mm
p1546
g733
sg1092
g905
sVcom.soft.blued
p1547
g375
ssg113
(dp1548
Vcom.android.launcher3
p1549
g434
sg937
g796
sg1103
g1164
sVcom.tencent.mobileqq
p1550
g953
sVcom.eg.android.AlipayGphone
p1551
g304
sVcom.soft.blued
p1552
g364
ssg115
(dp1553
Vcom.android.launcher3
p1554
g435
sVcom.skycall.oem
p1555
g988
sVcom.android.dialer
p1556
g484
sg1337
g1079
sg25
g241
sg1540
g1169
sVcom.UCMobile
p1557
g1043
sVcom.baidu.tieba
p1558
g1202
sVcom.tencent.mobileqq
p1559
g957
sg1128
g602
sg1132
g735
sVcom.eg.android.AlipayGphone
p1560
g308
sg1094
g368
ssg117
(dp1561
Vcom.android.launcher3
p1562
g437
sg531
g486
sg573
g152
sVcom.tencent.mobileqq
p1563
g958
sg1143
g499
sg989
g850
sVcom.ting.mp3.android
p1564
g1174
sVcom.UCMobile
p1565
g1045
sVcom.tencent.mm
p1566
g692
sg1155
g310
sVcom.soft.blued
p1567
g370
ssg119
(dp1568
g789
g438
sg67
g754
sg795
g1104
sVcom.tencent.mobileqq
p1569
g960
sg562
g517
sg1082
g154
sg1168
g1123
sVcom.meizu.media.gallery
p1570
g624
sVcom.myzaker.ZAKER_Phone
p1571
g559
sg190
g244
sVcom.happyelements.AndroidAnimal
p1572
g880
sg1434
g372
sg809
g737
sVcom.eg.android.AlipayGphone
p1573
g312
sg711
g799
ssg121
(dp1574
Vcom.android.launcher3
p1575
g439
sg997
g1068
sVcom.UCMobile
p1576
g1040
ssg123
(dp1577
g609
g440
sVcom.meizu.mstore
p1578
g804
sVcom.android.dialer
p1579
g488
sg316
g158
sg581
g1058
sVcom.tencent.mobileqq
p1580
g962
sg307
g1125
sg361
g994
sVcom.taobao.taobao
p1581
g540
sg1283
g1150
sg320
g1047
sVcom.myzaker.ZAKER_Phone
p1582
g580
sg1411
g189
sg55
g630
sg95
g891
sg59
g656
sg543
g738
sg33
g313
sVcom.soft.blued
p1583
g374
ssg125
(dp1584
Vcom.android.launcher3
p1585
g441
sg1220
g999
sg1222
g490
sVcom.tencent.mobileqq
p1586
g964
sVcom.soft.blued
p1587
g377
ssg127
(dp1588
Vcom.android.launcher3
p1589
g442
sVcom.tencent.mm
p1590
g740
ssg129
(dp1591
g280
g443
sg746
g965
sg1443
g590
sg123
g1213
sVcom.meizu.media.gallery
p1592
g634
sg59
g661
sVcom.android.alarmclock
p1593
g681
sVcom.tencent.mm
p1594
g742
sg33
g314
sg748
g379
sssS'adj'
p1595
g134
sb.