ccopy_reg
_reconstructor
p1
(cnetworkx.classes.digraph
DiGraph
p2
c__builtin__
object
p3
NtRp4
(dp5
S'node'
p6
(dp7
Vcom.android.browser
p8
(dp9
S'weight'
p10
F0.010694306516889818
ssVcom.qqgame.happymj
p11
(dp12
g10
F0.00099307839330894715
ssVcom.qiyi.video
p13
(dp14
g10
F0.0061031903267178009
ssVcom.sina.weibog3
p15
(dp16
g10
F0.00197867127109044
ssVcom.snda.wifilocating
p17
(dp18
g10
F2.2456546582363127e-05
ssVcom.android.launcher
p19
(dp20
g10
F0.50557920423979597
ssVcom.tencent.qqmusic
p21
(dp22
g10
F3.7427577637271877e-06
ssVcom.eg.android.AlipayGphone
p23
(dp24
g10
F0.001319945904674455
ssVcom.oppo.preventmode
p25
(dp26
g10
F0.0013037272876983037
ssVcom.chinamworld.main
p27
(dp28
g10
F0.0010791618218746724
ssVcom.android.bluetooth
p29
(dp30
g10
F1.247585921242396e-05
ssVcom.oppo.camera
p31
(dp32
g10
F0.0002183275362174193
ssVcom.android.gallery3d
p33
(dp34
g10
F0.00020585167700499534
ssVme.ele
p35
(dp36
g10
F0.023847604884548398
ssVcom.android.phone
p37
(dp38
g10
F0.015099532404796718
ssVcom.tencent.mobileqq
p39
(dp40
g10
F0.24111718824075415
ssVcom.tudou.android
p41
(dp42
g10
F0.024613622640191232
ssVcom.baidu.lbs.waimai
p43
(dp44
g10
F0.031124773563155295
ssVcom.oppo.weather
p45
(dp46
g10
F6.7369639747089381e-05
ssVcom.android.fileexplorer
p47
(dp48
g10
F3.4932405794787086e-05
ssVcom.android.calendar
p49
(dp50
g10
F0.00016218616976151147
ssVcom.tencent.mm
p51
(dp52
g10
F0.096565645476003936
ssVcom.oppo.market
p53
(dp54
g10
F0.00027571648859456949
ssVcom.android.mms
p55
(dp56
g10
F0.03562232080923413
ssVcom.baidu.BaiduMap
p57
(dp58
g10
F0.0013461452090205452
ssVcom.taobao.movie.android
p59
(dp60
g10
F0.00015844341199778428
ssVcom.android.settings
p61
(dp62
g10
F0.00039423715111259713
ssVcom.oppo.alarmclock
p63
(dp64
g10
F4.865585092845344e-05
ssVcom.oppo.speechassist
p65
(dp66
g10
F7.4855155274543754e-06
sssS'node_dict_factory'
p67
c__builtin__
dict
p68
sS'edge_attr_dict_factory'
p69
g68
sS'succ'
p70
(dp71
g8
(dp72
Vcom.tudou.android
p73
(dp74
g10
F1.3
ssVcom.tencent.mobileqq
p75
(dp76
g10
F3.1999999999999997
ssVcom.sina.weibog3
p77
(dp78
g10
F0.90000000000000002
ssVcom.android.launcher
p79
(dp80
g10
F18.5
ssVcom.android.settings
p81
(dp82
g10
F0.69999999999999996
ssVcom.tencent.mm
p83
(dp84
g10
F3
sssg11
(dp85
Vcom.tencent.mobileqq
p86
(dp87
g10
F2.2999999999999998
ssVcom.android.launcher
p88
(dp89
g10
F1.7
sssg13
(dp90
Vcom.tudou.android
p91
(dp92
g10
F1.8
ssVcom.tencent.mobileqq
p93
(dp94
g10
F1.8999999999999999
ssVcom.android.launcher
p95
(dp96
g10
F6.7000000000000002
sssg15
(dp97
Vcom.tudou.android
p98
(dp99
g10
F3.5
ssVcom.tencent.mobileqq
p100
(dp101
g10
F1.3
ssg49
(dp102
g10
F0.40000000000000002
ssVcom.android.launcher
p103
(dp104
g10
F11.5
ssVcom.android.phone
p105
(dp106
g10
F0.90000000000000002
ssVcom.tencent.mm
p107
(dp108
g10
F0.90000000000000002
ssg65
(dp109
g10
I1
sssg17
(dp110
Vcom.android.launcher
p111
(dp112
g10
I1
sssg19
(dp113
g8
(dp114
g10
F14.200000000000001
ssg11
(dp115
g10
F1.7
ssg13
(dp116
g10
F10.800000000000001
ssg15
(dp117
g10
F14.4
ssg17
(dp118
g10
F2.2999999999999998
ssg21
(dp119
g10
F1.7
ssVcom.eg.android.AlipayGphone
p120
(dp121
g10
F14.800000000000001
ssVcom.oppo.preventmode
p122
(dp123
g10
F13.9
ssVcom.chinamworld.main
p124
(dp125
g10
F2.7000000000000002
ssVcom.oppo.camera
p126
(dp127
g10
I2
ssg35
(dp128
g10
F4.0999999999999996
ssVcom.android.phone
p129
(dp130
g10
F43.099999999999994
ssg39
(dp131
g10
F78.400000000000006
ssg41
(dp132
g10
F23.299999999999997
ssVcom.baidu.lbs.waimai
p133
(dp134
g10
F16.199999999999999
ssg45
(dp135
g10
F2.7000000000000002
ssg47
(dp136
g10
I1
ssg49
(dp137
g10
F1.7
ssg51
(dp138
g10
F55.800000000000018
ssVcom.oppo.market
p139
(dp140
g10
I1
ssg55
(dp141
g10
F25.699999999999992
ssg57
(dp142
g10
I1
ssVcom.taobao.movie.android
p143
(dp144
g10
I1
ssg81
(dp145
g10
F9.6999999999999993
ssg63
(dp146
g10
I2
ssg65
(dp147
g10
F0.90000000000000002
sssg21
(dp148
Vcom.android.launcher
p149
(dp150
g10
I1
sssg23
(dp151
Vcom.android.settings
p152
(dp153
g10
I1
ssVcom.baidu.lbs.waimai
p154
(dp155
g10
F10.100000000000001
ssVcom.android.mms
p156
(dp157
g10
F8.1000000000000014
ssVme.ele
p158
(dp159
g10
I2
ssVcom.android.launcher
p160
(dp161
g10
F6.5
ssVcom.tencent.mobileqq
p162
(dp163
g10
F0.90000000000000002
sssg25
(dp164
Vcom.oppo.camera
p165
(dp166
g10
F0.90000000000000002
ssVcom.tencent.mobileqq
p167
(dp168
g10
F6.8000000000000007
ssVcom.baidu.lbs.waimai
p169
(dp170
g10
F0.69999999999999996
ssg21
(dp171
g10
F0.90000000000000002
ssVcom.android.launcher
p172
(dp173
g10
F11.699999999999999
ssVcom.android.phone
p174
(dp175
g10
F0.90000000000000002
ssVcom.tencent.mm
p176
(dp177
g10
F3.5
sssg27
(dp178
Vcom.android.settings
p179
(dp180
g10
F1.7
ssVcom.tencent.mobileqq
p181
(dp182
g10
F0.90000000000000002
ssVcom.android.mms
p183
(dp184
g10
I1
ssVcom.android.launcher
p185
(dp186
g10
F4
ssVcom.android.phone
p187
(dp188
g10
F2.6000000000000001
sssg29
(dp189
g61
(dp190
g10
F1.7
ssVcom.oppo.market
p191
(dp192
g10
F1.3
sssg31
(dp193
Vcom.tencent.mm
p194
(dp195
g10
F3.7000000000000002
sssg33
(dp196
Vcom.android.launcher
p197
(dp198
g10
I1
ssVcom.android.phone
p199
(dp200
g10
F2
sssg35
(dp201
Vcom.tudou.android
p202
(dp203
g10
F0.40000000000000002
ssVcom.tencent.mm
p204
(dp205
g10
I1
ssVcom.android.mms
p206
(dp207
g10
F3.3999999999999999
ssVcom.android.launcher
p208
(dp209
g10
F1.7
ssVcom.android.phone
p210
(dp211
g10
I2
ssVcom.tencent.mobileqq
p212
(dp213
g10
F0.90000000000000002
ssVcom.eg.android.AlipayGphone
p214
(dp215
g10
I2
sssg37
(dp216
Vcom.chinamworld.main
p217
(dp218
g10
F1.3999999999999999
ssVcom.tencent.mm
p219
(dp220
g10
F3.6000000000000001
ssVcom.android.mms
p221
(dp222
g10
F10.800000000000001
ssg45
(dp223
g10
F0.90000000000000002
ssVcom.android.launcher
p224
(dp225
g10
F30.699999999999992
ssVcom.tencent.mobileqq
p226
(dp227
g10
F12.400000000000002
sssg39
(dp228
Vcom.oppo.preventmode
p229
(dp230
g10
I17
ssg8
(dp231
g10
F4.4000000000000004
ssg31
(dp232
g10
I2
ssVcom.tudou.android
p233
(dp234
g10
F5.1999999999999993
ssVcom.qqgame.happymj
p235
(dp236
g10
I1
ssg139
(dp237
g10
F0.90000000000000002
ssg133
(dp238
g10
F10.300000000000001
ssVcom.android.mms
p239
(dp240
g10
F17.799999999999997
ssg13
(dp241
g10
F3.6000000000000001
ssg15
(dp242
g10
F3.2999999999999998
ssg17
(dp243
g10
F0.69999999999999996
ssVcom.android.launcher
p244
(dp245
g10
F100.80000000000008
ssg129
(dp246
g10
F15.700000000000001
ssg65
(dp247
g10
F0.40000000000000002
ssg176
(dp248
g10
F28.899999999999988
ssg120
(dp249
g10
F6.6000000000000005
ssVcom.android.settings
p250
(dp251
g10
I1
sssg41
(dp252
Vcom.android.browser
p253
(dp254
g10
F1.3
ssg49
(dp255
g10
F0.90000000000000002
ssg81
(dp256
g10
I1
ssVcom.tencent.mm
p257
(dp258
g10
F0.90000000000000002
ssVcom.android.mms
p259
(dp260
g10
I4
ssg13
(dp261
g10
F1.8
ssg77
(dp262
g10
F0.40000000000000002
ssVcom.android.launcher
p263
(dp264
g10
F29.099999999999994
ssVcom.android.phone
p265
(dp266
g10
F2.9999999999999996
ssVcom.tencent.mobileqq
p267
(dp268
g10
F9.8000000000000007
sssg43
(dp269
Vcom.tencent.mm
p270
(dp271
g10
F3.1000000000000001
ssg156
(dp272
g10
F10.9
ssVcom.oppo.weather
p273
(dp274
g10
F0.90000000000000002
ssg35
(dp275
g10
F1.3
ssg160
(dp276
g10
F15.400000000000002
ssg37
(dp277
g10
F9.9000000000000004
ssVcom.tencent.mobileqq
p278
(dp279
g10
F8.1999999999999993
ssg23
(dp280
g10
F12.4
sssg45
(dp281
sg47
(dp282
Vcom.sina.weibog3
p283
(dp284
g10
F0.40000000000000002
ssVcom.tencent.mm
p285
(dp286
g10
F0.90000000000000002
ssVcom.android.launcher
p287
(dp288
g10
F1.7
sssg49
(dp289
sg51
(dp290
Vcom.oppo.preventmode
p291
(dp292
g10
I3
ssVcom.android.browser
p293
(dp294
g10
F0.90000000000000002
ssVcom.oppo.camera
p295
(dp296
g10
F6.4000000000000004
ssVcom.tudou.android
p297
(dp298
g10
F0.90000000000000002
ssVcom.android.settings
p299
(dp300
g10
I1
ssg169
(dp301
g10
F3.5999999999999996
ssVcom.android.mms
p302
(dp303
g10
I2
ssg57
(dp304
g10
F0.90000000000000002
ssVcom.qiyi.video
p305
(dp306
g10
F0.40000000000000002
ssVcom.sina.weibog3
p307
(dp308
g10
F3.6000000000000001
ssVcom.android.launcher
p309
(dp310
g10
F57.000000000000014
ssVcom.android.phone
p311
(dp312
g10
F6.7000000000000002
ssVcom.tencent.mobileqq
p313
(dp314
g10
F20.499999999999996
ssVcom.eg.android.AlipayGphone
p315
(dp316
g10
F0.69999999999999996
ssg65
(dp317
g10
F0.69999999999999996
sssg53
(dp318
g29
(dp319
g10
I1
ssg17
(dp320
g10
F2.0999999999999996
ssVcom.tencent.mobileqq
p321
(dp322
g10
F1.7
ssVcom.android.launcher
p323
(dp324
g10
F2.2000000000000002
ssg61
(dp325
g10
F2.2999999999999998
sssg55
(dp326
g253
(dp327
g10
F0.69999999999999996
ssVcom.chinamworld.main
p328
(dp329
g10
F3.5
ssVcom.tudou.android
p330
(dp331
g10
I4
ssg51
(dp332
g10
F3.2999999999999998
ssVcom.baidu.lbs.waimai
p333
(dp334
g10
I1
ssg11
(dp335
g10
F1.3
ssVcom.baidu.BaiduMap
p336
(dp337
g10
I1
ssVme.ele
p338
(dp339
g10
F1.3
ssVcom.android.launcher
p340
(dp341
g10
F26.699999999999996
ssg187
(dp342
g10
F6.2000000000000002
ssVcom.tencent.mobileqq
p343
(dp344
g10
F11.1
ssVcom.eg.android.AlipayGphone
p345
(dp346
g10
F1.7
ssg179
(dp347
g10
F0.69999999999999996
sssg57
(dp348
Vcom.android.mms
p349
(dp350
g10
I1
ssVcom.tencent.mobileqq
p351
(dp352
g10
F0.90000000000000002
ssVcom.android.launcher
p353
(dp354
g10
I1
ssVcom.android.phone
p355
(dp356
g10
I2
sssg59
(dp357
Vcom.android.launcher
p358
(dp359
g10
F2.7000000000000002
sssg61
(dp360
Vcom.tudou.android
p361
(dp362
g10
F0.90000000000000002
ssg191
(dp363
g10
F3.1000000000000001
ssVcom.android.mms
p364
(dp365
g10
F0.69999999999999996
ssg323
(dp366
g10
F11.499999999999998
ssg321
(dp367
g10
F2.6000000000000001
ssVcom.eg.android.AlipayGphone
p368
(dp369
g10
F2.2000000000000002
sssg63
(dp370
sg65
(dp371
ssS'edge'
p372
g71
sS'graph'
p373
(dp374
sS'adjlist_dict_factory'
p375
g68
sS'adj'
p376
g71
sS'pred'
p377
(dp378
g8
(dp379
Vcom.tudou.android
p380
g254
sg259
g327
sVcom.tencent.mm
p381
g294
sVcom.tencent.mobileqq
p382
g231
sVcom.android.launcher
p383
g114
ssg11
(dp384
g86
g236
sVcom.android.mms
p385
g335
sVcom.android.launcher
p386
g115
ssg13
(dp387
g98
g261
sVcom.tencent.mm
p388
g306
sg100
g241
sVcom.android.launcher
p389
g116
ssg15
(dp390
g253
g78
sg330
g262
sVcom.tencent.mobileqq
p391
g242
sg47
g284
sVcom.android.launcher
p392
g117
sVcom.tencent.mm
p393
g308
ssg17
(dp394
Vcom.oppo.market
p395
g320
sg321
g243
sg323
g118
ssg19
(dp396
g8
g80
sg55
g341
sg13
g96
sg15
g104
sg17
g112
sg21
g150
sg23
g161
sVcom.oppo.preventmode
p397
g173
sg124
g186
sg33
g198
sVme.ele
p398
g209
sVcom.android.phone
p399
g225
sg382
g245
sg41
g264
sg43
g276
sg47
g288
sg51
g310
sg191
g324
sg59
g359
sVcom.baidu.BaiduMap
p400
g354
sVcom.android.settings
p401
g366
sg11
g89
ssg21
(dp402
Vcom.oppo.preventmode
p403
g171
sVcom.android.launcher
p404
g119
ssg23
(dp405
Vcom.android.settings
p406
g369
sVcom.tencent.mm
p407
g316
sg43
g280
sVcom.android.mms
p408
g346
sg35
g215
sVcom.android.launcher
p409
g121
sVcom.tencent.mobileqq
p410
g249
ssg25
(dp411
Vcom.tencent.mm
p412
g292
sVcom.tencent.mobileqq
p413
g230
sVcom.android.launcher
p414
g123
ssg27
(dp415
g183
g329
sVcom.android.launcher
p416
g125
sg187
g218
ssg29
(dp417
g53
g319
ssg31
(dp418
Vcom.oppo.preventmode
p419
g166
sVcom.tencent.mm
p420
g296
sVcom.tencent.mobileqq
p421
g232
sVcom.android.launcher
p422
g127
ssg33
(dp423
sg35
(dp424
Vcom.baidu.lbs.waimai
p425
g275
sg408
g339
sg214
g159
sVcom.android.launcher
p426
g128
ssg37
(dp427
Vcom.oppo.preventmode
p428
g175
sg33
g200
sg27
g188
sVcom.tudou.android
p429
g266
sVcom.tencent.mobileqq
p430
g246
sVcom.baidu.lbs.waimai
p431
g277
sg183
g342
sVcom.baidu.BaiduMap
p432
g356
sVcom.sina.weibog3
p433
g106
sVme.ele
p434
g211
sVcom.android.launcher
p435
g130
sVcom.tencent.mm
p436
g312
ssg39
(dp437
g25
g168
sVcom.android.browser
p438
g76
sVcom.chinamworld.main
p439
g182
sg41
g268
sg61
g367
sg191
g322
sVcom.baidu.lbs.waimai
p440
g279
sVcom.android.mms
p441
g344
sg400
g352
sVcom.qiyi.video
p442
g94
sVcom.sina.weibog3
p443
g101
sg398
g213
sVcom.android.launcher
p444
g131
sVcom.android.phone
p445
g227
sg11
g87
sg83
g314
sVcom.eg.android.AlipayGphone
p446
g163
ssg41
(dp447
g253
g74
sg267
g234
sg259
g331
sVcom.qiyi.video
p448
g92
sVcom.sina.weibog3
p449
g99
sg398
g203
sVcom.android.launcher
p450
g132
sg81
g362
sVcom.tencent.mm
p451
g298
ssg43
(dp452
g397
g170
sg410
g238
sVcom.android.mms
p453
g334
sg409
g134
sg176
g301
sg23
g155
ssg45
(dp454
Vcom.baidu.lbs.waimai
p455
g274
sVcom.android.launcher
p456
g135
sVcom.android.phone
p457
g223
ssg47
(dp458
Vcom.android.launcher
p459
g136
ssg49
(dp460
g77
g102
sg73
g255
sVcom.android.launcher
p461
g137
ssg51
(dp462
g397
g177
sg438
g84
sVcom.oppo.camera
p463
g195
sVcom.tudou.android
p464
g258
sVcom.baidu.lbs.waimai
p465
g271
sg55
g332
sVcom.sina.weibog3
p466
g108
sg47
g286
sVme.ele
p467
g205
sg19
g138
sVcom.android.phone
p468
g220
sVcom.tencent.mobileqq
p469
g248
ssg53
(dp470
g29
g192
sg321
g237
sg323
g140
sg61
g363
ssg55
(dp471
g27
g184
sg380
g260
sVcom.tencent.mm
p472
g303
sg133
g272
sVcom.baidu.BaiduMap
p473
g350
sg35
g207
sg19
g141
sVcom.android.phone
p474
g222
sVcom.tencent.mobileqq
p475
g240
sg120
g157
sg152
g365
ssg57
(dp476
g349
g337
sVcom.tencent.mm
p477
g304
sVcom.android.launcher
p478
g142
ssg59
(dp479
g358
g144
ssg61
(dp480
Vcom.android.browser
p481
g82
sVcom.chinamworld.main
p482
g180
sVcom.tudou.android
p483
g256
sg29
g190
sg53
g325
sVcom.tencent.mm
p484
g300
sVcom.android.mms
p485
g347
sVcom.android.launcher
p486
g145
sg181
g251
sg368
g153
ssg63
(dp487
Vcom.android.launcher
p488
g146
ssg65
(dp489
Vcom.sina.weibog3
p490
g109
sVcom.tencent.mm
p491
g317
sVcom.tencent.mobileqq
p492
g247
sVcom.android.launcher
p493
g147
sssb.