ccopy_reg
_reconstructor
p1
(cnetworkx.classes.digraph
DiGraph
p2
c__builtin__
object
p3
NtRp4
(dp5
S'node'
p6
(dp7
Vcom.android.browser
p8
(dp9
S'weight'
p10
F0.062058934304437714
ssVcom.tencent.mobileqqi
p11
(dp12
g10
F0.055271982548196444
ssVcom.youdao.dict
p13
(dp14
g10
F0.041266922728392205
ssVcom.ss.android.article.news
p15
(dp16
g10
F0.035393671402492562
ssVcom.autonavi.minimap
p17
(dp18
g10
F0.00022811176724578229
ssVcom.android.updater
p19
(dp20
g10
F2.5067227169866184e-06
ssVcom.android.thememanager
p21
(dp22
g10
F1.2533613584933092e-06
ssVcom.android.deskclock
p23
(dp24
g10
F6.3294748603912116e-05
ssVcom.sohu.inputmethod.sogou
p25
(dp26
g10
F3.1334033962332733e-06
ssVcom.android.launcher
p27
(dp28
g10
F0.74017255025822382
ssVcom.eg.android.AlipayGphone
p29
(dp30
g10
F0.0020260586360044343
ssVcom.miui.weather2
p31
(dp32
g10
F4.7627731622745754e-05
ssVcom.android.packageinstaller
p33
(dp34
g10
F9.400210188699819e-06
ssVcom.sankuai.meituan
p35
(dp36
g10
F0.0010966911886816455
ssVcom.android.phone
p37
(dp38
g10
F0.0077113057581300855
ssVcom.android.htmlviewer
p39
(dp40
g10
F3.0707353283086077e-05
ssVcom.qiyi.video
p41
(dp42
g10
F0.0022316098987973372
ssVcom.miui.player
p43
(dp44
g10
F2.5067227169866184e-06
ssVcom.tencent.mm
p45
(dp46
g10
F0.032683904145430022
ssVcom.miui.antispam
p47
(dp48
g10
F7.5201681509598555e-06
ssVcom.android.calendar
p49
(dp50
g10
F1.0026890867946473e-05
ssVcom.android.calculator
p51
(dp52
g10
F0.00012220273245309765
ssVcom.achievo.vipshop
p53
(dp54
g10
F0.00087045946347360332
ssVcom.xiaomi.market
p55
(dp56
g10
F8.7108614415284987e-05
ssVcom.android.fileexplorer
p57
(dp58
g10
F3.0707353283086077e-05
ssVcom.Qunar
p59
(dp60
g10
F0.0010384098855117066
ssVcom.chaozh.iReaderFree
p61
(dp62
g10
F1.1280252226439782e-05
ssVcom.miui.gallery
p63
(dp64
g10
F0.0010910510625684257
ssVcom.miui.notes
p65
(dp66
g10
F0.002131967670797119
ssVcom.miui.networkassistant
p67
(dp68
g10
F2.7573949886852804e-05
ssVcom.android.settings
p69
(dp70
g10
F0.0042382414337451251
ssVcom.android.mms
p71
(dp72
g10
F0.0077558000863565974
ssVcmb.pb
p73
(dp74
g10
F8.898865645302495e-05
ssVcom.miui.securitycenter
p75
(dp76
g10
F8.0841807622818442e-05
ssVcom.miui.barcodescanner
p77
(dp78
g10
F5.6401261132198912e-06
ssVcom.android.quicksearchbox
p79
(dp80
g10
F1.8800420377399639e-06
ssVcom.android.camera
p81
(dp82
g10
F0.00014789664030221049
ssVcom.xtuone.android.syllabus
p83
(dp84
g10
F0.0019502302738155892
sssS'node_dict_factory'
p85
c__builtin__
dict
p86
sS'edge_attr_dict_factory'
p87
g86
sS'succ'
p88
(dp89
g8
(dp90
Vcom.tencent.mobileqqi
p91
(dp92
g10
F53.899999999999977
ssVcom.autonavi.minimap
p93
(dp94
g10
F1.3
ssVcom.android.mms
p95
(dp96
g10
F2.6000000000000001
ssg73
(dp97
g10
F0.90000000000000002
ssVcom.miui.securitycenter
p98
(dp99
g10
F0.40000000000000002
ssVcom.Qunar
p100
(dp101
g10
F1.3
ssVcom.android.launcher
p102
(dp103
g10
F132.10000000000016
ssVcom.android.phone
p104
(dp105
g10
F3.3999999999999999
ssVcom.miui.notes
p106
(dp107
g10
F1.8
ssVcom.tencent.mm
p108
(dp109
g10
F45.499999999999972
ssVcom.eg.android.AlipayGphone
p110
(dp111
g10
F0.40000000000000002
ssVcom.xtuone.android.syllabus
p112
(dp113
g10
F1.3
sssg11
(dp114
g8
(dp115
g10
F49.899999999999963
ssVcom.youdao.dict
p116
(dp117
g10
F0.90000000000000002
ssVcom.ss.android.article.news
p118
(dp119
g10
F11.700000000000003
ssg23
(dp120
g10
F0.90000000000000002
ssg25
(dp121
g10
F1.8
ssVcom.android.launcher
p122
(dp123
g10
F241.89999999999966
ssVcom.miui.weather2
p124
(dp125
g10
F0.90000000000000002
ssg35
(dp126
g10
F4.8000000000000007
ssVcom.android.phone
p127
(dp128
g10
F4
ssVcom.miui.gallery
p129
(dp130
g10
F0.90000000000000002
ssg45
(dp131
g10
F75.299999999999997
ssVcom.achievo.vipshop
p132
(dp133
g10
F1.8
ssg57
(dp134
g10
F1.3
ssg59
(dp135
g10
F6.6000000000000014
ssg61
(dp136
g10
F0.40000000000000002
ssVcom.miui.notes
p137
(dp138
g10
F2.2000000000000002
ssVcom.miui.networkassistant
p139
(dp140
g10
F0.90000000000000002
ssVcom.android.mms
p141
(dp142
g10
F16.000000000000004
ssVcmb.pb
p143
(dp144
g10
F0.90000000000000002
ssg77
(dp145
g10
F2.2999999999999998
ssVcom.android.camera
p146
(dp147
g10
I2
ssVcom.xtuone.android.syllabus
p148
(dp149
g10
F3.1000000000000001
sssg13
(dp150
Vcom.android.browser
p151
(dp152
g10
F0.40000000000000002
ssVcom.miui.notes
p153
(dp154
g10
F0.90000000000000002
ssg77
(dp155
g10
F0.40000000000000002
ssVcom.ss.android.article.news
p156
(dp157
g10
F0.90000000000000002
ssg124
(dp158
g10
F0.40000000000000002
ssVcom.android.mms
p159
(dp160
g10
F3
ssg55
(dp161
g10
F0.90000000000000002
ssVcom.android.deskclock
p162
(dp163
g10
F0.40000000000000002
ssVcom.xtuone.android.syllabus
p164
(dp165
g10
F0.90000000000000002
ssVcom.android.launcher
p166
(dp167
g10
F25.199999999999996
ssVcom.android.camera
p168
(dp169
g10
F0.69999999999999996
ssVcom.tencent.mm
p170
(dp171
g10
F10.100000000000001
ssVcom.tencent.mobileqqi
p172
(dp173
g10
F1.8
sssg15
(dp174
g151
(dp175
g10
F0.90000000000000002
ssVcom.tencent.mobileqqi
p176
(dp177
g10
F7.1000000000000014
ssVcom.xtuone.android.syllabus
p178
(dp179
g10
F3.1000000000000001
ssVcom.android.launcher
p180
(dp181
g10
F35.399999999999991
ssVcom.tencent.mm
p182
(dp183
g10
F9.8000000000000007
ssVcom.Qunar
p184
(dp185
g10
F2.2000000000000002
sssg17
(dp186
Vcom.android.browser
p187
(dp188
g10
F0.90000000000000002
ssVcom.sankuai.meituan
p189
(dp190
g10
F1.8
ssVcom.tencent.mm
p191
(dp192
g10
F0.40000000000000002
ssVcom.android.launcher
p193
(dp194
g10
F4.4000000000000004
sssg19
(dp195
g25
(dp196
g10
F0.40000000000000002
ssVcom.tencent.mm
p197
(dp198
g10
F0.40000000000000002
ssVcom.tencent.mobileqqi
p199
(dp200
g10
F0.90000000000000002
ssVcom.android.launcher
p201
(dp202
g10
F3.4000000000000004
ssVcom.android.browser
p203
(dp204
g10
F0.90000000000000002
sssg21
(dp205
Vcom.tencent.mm
p206
(dp207
g10
F0.90000000000000002
ssVcom.android.launcher
p208
(dp209
g10
I2
sssg23
(dp210
Vcom.android.browser
p211
(dp212
g10
F0.40000000000000002
ssVcom.tencent.mobileqqi
p213
(dp214
g10
F0.40000000000000002
ssVcom.ss.android.article.news
p215
(dp216
g10
F0.90000000000000002
ssVcom.android.calendar
p217
(dp218
g10
F0.90000000000000002
ssVcom.xtuone.android.syllabus
p219
(dp220
g10
F2.2000000000000002
ssVcom.android.launcher
p221
(dp222
g10
F8.0999999999999996
ssVcom.tencent.mm
p223
(dp224
g10
F1.8
sssg25
(dp225
Vcom.tencent.mm
p226
(dp227
g10
F1.7
ssVcom.tencent.mobileqqi
p228
(dp229
g10
I2
ssVcom.android.launcher
p230
(dp231
g10
F1.3
sssg27
(dp232
g8
(dp233
g10
F159.80000000000007
ssg11
(dp234
g10
F444.89999999999873
ssg13
(dp235
g10
F59.5
ssg15
(dp236
g10
F103.10000000000007
ssg17
(dp237
g10
F6.4000000000000004
ssg19
(dp238
g10
F2.7000000000000002
ssg21
(dp239
g10
I2
ssg23
(dp240
g10
F14.899999999999999
ssg25
(dp241
g10
F4.2999999999999998
ssg29
(dp242
g10
F66.700000000000031
ssg31
(dp243
g10
F7.4000000000000004
ssg33
(dp244
g10
F1.3
ssg35
(dp245
g10
F23.999999999999996
ssg37
(dp246
g10
F76.800000000000011
ssg39
(dp247
g10
F2.6000000000000001
ssg43
(dp248
g10
I2
ssg45
(dp249
g10
F699.90000000000055
ssg47
(dp250
g10
F1.3
ssg49
(dp251
g10
F5.0999999999999996
ssg51
(dp252
g10
F8.1000000000000014
ssg53
(dp253
g10
F17.999999999999996
ssg55
(dp254
g10
F3.7000000000000002
ssg57
(dp255
g10
F9.5
ssg59
(dp256
g10
F27.799999999999994
ssg61
(dp257
g10
F1.7
ssg63
(dp258
g10
F11.800000000000001
ssg65
(dp259
g10
F17.599999999999998
ssg67
(dp260
g10
F4.4000000000000004
ssg69
(dp261
g10
F11.799999999999999
ssg71
(dp262
g10
F180.09999999999988
ssg73
(dp263
g10
F7.8000000000000007
ssg75
(dp264
g10
F11.1
ssg77
(dp265
g10
F2.3999999999999999
ssg79
(dp266
g10
I1
ssg81
(dp267
g10
F13.800000000000002
ssg83
(dp268
g10
F45
sssg29
(dp269
g11
(dp270
g10
F3.6000000000000001
ssVcom.android.calculator
p271
(dp272
g10
F0.90000000000000002
ssVcom.sankuai.meituan
p273
(dp274
g10
I1
ssVcom.android.mms
p275
(dp276
g10
F21.699999999999996
ssg53
(dp277
g10
F3.0999999999999996
ssVcmb.pb
p278
(dp279
g10
F1.7000000000000002
ssVcom.android.launcher
p280
(dp281
g10
F50.600000000000016
ssVcom.android.phone
p282
(dp283
g10
F1.6000000000000001
ssg45
(dp284
g10
F7.4000000000000012
sssg31
(dp285
Vcom.tencent.mm
p286
(dp287
g10
F2.7000000000000002
ssVcom.ss.android.article.news
p288
(dp289
g10
F0.40000000000000002
ssVcom.android.launcher
p290
(dp291
g10
F3.7000000000000002
sssg33
(dp292
Vcom.miui.securitycenter
p293
(dp294
g10
F0.90000000000000002
ssVcom.achievo.vipshop
p295
(dp296
g10
F0.40000000000000002
ssVcom.android.launcher
p297
(dp298
g10
F1.7
sssg35
(dp299
Vcom.tencent.mobileqqi
p300
(dp301
g10
F4.4000000000000004
ssVcom.autonavi.minimap
p302
(dp303
g10
F1.8
ssg141
(dp304
g10
F1.8
ssVcom.android.launcher
p305
(dp306
g10
F14.499999999999998
ssVcom.android.phone
p307
(dp308
g10
F2.5999999999999996
ssVcom.eg.android.AlipayGphone
p309
(dp310
g10
I2
sssg37
(dp311
Vcom.android.browser
p312
(dp313
g10
F1.3999999999999999
ssVcom.miui.notes
p314
(dp315
g10
F0.90000000000000002
ssVcom.youdao.dict
p316
(dp317
g10
I2
ssVcom.ss.android.article.news
p318
(dp319
g10
I1
ssVcom.android.calculator
p320
(dp321
g10
I1
ssVcom.sankuai.meituan
p322
(dp323
g10
I1
ssVcom.android.mms
p324
(dp325
g10
F8.5
ssVcom.android.launcher
p326
(dp327
g10
F23.299999999999997
ssVcom.tencent.mobileqqi
p328
(dp329
g10
F4.2999999999999998
ssVcom.tencent.mm
p330
(dp331
g10
F4.2999999999999998
ssVcom.eg.android.AlipayGphone
p332
(dp333
g10
F3.7999999999999998
sssg39
(dp334
Vcom.android.fileexplorer
p335
(dp336
g10
I1
sssg41
(dp337
g203
(dp338
g10
F0.40000000000000002
ssVcom.android.updater
p339
(dp340
g10
F0.90000000000000002
ssVcom.android.launcher
p341
(dp342
g10
F1.7
sssg43
(dp343
Vcom.tencent.mm
p344
(dp345
g10
F0.90000000000000002
ssg19
(dp346
g10
F0.90000000000000002
ssg199
(dp347
g10
F0.80000000000000004
ssVcom.android.launcher
p348
(dp349
g10
F3.4000000000000004
sssg45
(dp350
g8
(dp351
g10
F37.099999999999973
ssVcom.tencent.mobileqqi
p352
(dp353
g10
F76.900000000000006
ssVcom.youdao.dict
p354
(dp355
g10
F3.8999999999999999
ssVcom.ss.android.article.news
p356
(dp357
g10
F20.300000000000001
ssVcom.android.deskclock
p358
(dp359
g10
F3.6000000000000001
ssVcom.sohu.inputmethod.sogou
p360
(dp361
g10
I1
ssVcom.android.launcher
p362
(dp363
g10
F287.79999999999944
ssVcom.eg.android.AlipayGphone
p364
(dp365
g10
F6.6000000000000014
ssVcom.miui.weather2
p366
(dp367
g10
F0.40000000000000002
ssVcom.android.phone
p368
(dp369
g10
F1.8999999999999999
ssVcom.android.htmlviewer
p370
(dp371
g10
F0.69999999999999996
ssVcom.miui.gallery
p372
(dp373
g10
F2.9000000000000004
ssg47
(dp374
g10
F0.69999999999999996
ssVcom.android.calculator
p375
(dp376
g10
F1.3
ssVcom.achievo.vipshop
p377
(dp378
g10
F2.2000000000000002
ssg57
(dp379
g10
F1.3
ssg178
(dp380
g10
F4.9000000000000004
ssVcom.miui.notes
p381
(dp382
g10
F0.90000000000000002
ssg49
(dp383
g10
F1.3
ssVcom.android.settings
p384
(dp385
g10
F0.69999999999999996
ssVcom.android.mms
p386
(dp387
g10
F13.400000000000004
ssg98
(dp388
g10
F2.7000000000000002
ssVcom.android.camera
p389
(dp390
g10
F8.7000000000000011
sssg47
(dp391
Vcom.tencent.mm
p392
(dp393
g10
F0.90000000000000002
ssVcom.android.launcher
p394
(dp395
g10
I1
sssg49
(dp396
g211
(dp397
g10
F0.90000000000000002
ssg366
(dp398
g10
F0.90000000000000002
ssVcom.xtuone.android.syllabus
p399
(dp400
g10
F1.3
ssVcom.android.launcher
p401
(dp402
g10
F5.1000000000000005
ssVcom.android.phone
p403
(dp404
g10
F0.40000000000000002
ssg286
(dp405
g10
F0.40000000000000002
sssg51
(dp406
Vcom.tencent.mm
p407
(dp408
g10
F0.40000000000000002
ssVcom.android.mms
p409
(dp410
g10
F0.80000000000000004
ssVcom.eg.android.AlipayGphone
p411
(dp412
g10
F4.5
ssVcom.android.launcher
p413
(dp414
g10
F7.1000000000000005
ssVcom.android.phone
p415
(dp416
g10
I1
sssg53
(dp417
Vcom.tencent.mobileqqi
p418
(dp419
g10
F0.90000000000000002
ssg384
(dp420
g10
I1
ssg33
(dp421
g10
I1
ssVcom.android.mms
p422
(dp423
g10
F1.3
ssg293
(dp424
g10
F0.69999999999999996
ssVcom.Qunar
p425
(dp426
g10
F0.90000000000000002
ssg297
(dp427
g10
F14.199999999999998
ssg372
(dp428
g10
F0.40000000000000002
ssVcom.tencent.mm
p429
(dp430
g10
F4.4000000000000004
ssVcom.eg.android.AlipayGphone
p431
(dp432
g10
F3.1000000000000001
sssg55
(dp433
Vcom.android.mms
p434
(dp435
g10
F0.69999999999999996
ssg83
(dp436
g10
I1
ssVcom.android.launcher
p437
(dp438
g10
F3.2999999999999998
ssVcom.android.phone
p439
(dp440
g10
F0.90000000000000002
sssg57
(dp441
g39
(dp442
g10
I2
ssg61
(dp443
g10
F0.90000000000000002
ssVcom.android.launcher
p444
(dp445
g10
F2.7000000000000002
sssg59
(dp446
Vcom.android.browser
p447
(dp448
g10
F1.3
ssVcom.tencent.mobileqqi
p449
(dp450
g10
F3.5
ssVcom.ss.android.article.news
p451
(dp452
g10
F1.3
ssg35
(dp453
g10
F1.3
ssVcom.android.mms
p454
(dp455
g10
F5.0000000000000009
ssVcom.android.launcher
p456
(dp457
g10
F20.699999999999996
ssVcom.tencent.mm
p458
(dp459
g10
F0.90000000000000002
sssg61
(dp460
Vcom.android.fileexplorer
p461
(dp462
g10
F1.3
ssVcom.android.launcher
p463
(dp464
g10
I1
ssg39
(dp465
g10
F0.69999999999999996
sssg63
(dp466
Vcom.android.browser
p467
(dp468
g10
F0.90000000000000002
ssVcom.tencent.mm
p469
(dp470
g10
F2
ssVcom.android.launcher
p471
(dp472
g10
F7.7000000000000011
ssVcom.android.camera
p473
(dp474
g10
F6.1000000000000005
sssg65
(dp475
Vcom.android.browser
p476
(dp477
g10
F0.90000000000000002
ssVcom.tencent.mobileqqi
p478
(dp479
g10
F1.8
ssVcom.android.calendar
p480
(dp481
g10
F0.90000000000000002
ssVcom.android.mms
p482
(dp483
g10
F0.40000000000000002
ssVcom.achievo.vipshop
p484
(dp485
g10
F0.40000000000000002
ssg399
(dp486
g10
F0.40000000000000002
ssVcom.android.launcher
p487
(dp488
g10
F10.800000000000001
ssVcom.android.phone
p489
(dp490
g10
F0.90000000000000002
ssVcom.tencent.mm
p491
(dp492
g10
F1.8
sssg67
(dp493
Vcom.android.browser
p494
(dp495
g10
F0.90000000000000002
ssVcom.tencent.mm
p496
(dp497
g10
F0.40000000000000002
ssVcom.android.mms
p498
(dp499
g10
F0.90000000000000002
ssVcom.android.launcher
p500
(dp501
g10
F3.4000000000000004
sssg69
(dp502
Vcom.tencent.mobileqqi
p503
(dp504
g10
F0.90000000000000002
ssVcom.ss.android.article.news
p505
(dp506
g10
F1.7000000000000002
ssVcom.achievo.vipshop
p507
(dp508
g10
I1
ssg75
(dp509
g10
F6.7000000000000002
ssVcom.android.launcher
p510
(dp511
g10
F13.199999999999998
ssVcom.tencent.mm
p512
(dp513
g10
F1.1000000000000001
sssg71
(dp514
Vcom.android.browser
p515
(dp516
g10
F2.6000000000000001
ssVcom.tencent.mobileqqi
p517
(dp518
g10
F21.099999999999994
ssVcom.ss.android.article.news
p519
(dp520
g10
F2.2000000000000002
ssVcom.miui.networkassistant
p521
(dp522
g10
F0.90000000000000002
ssg137
(dp523
g10
F1.3
ssg33
(dp524
g10
F0.69999999999999996
ssg53
(dp525
g10
F1.8
ssVcmb.pb
p526
(dp527
g10
F1.8
ssVcom.Qunar
p528
(dp529
g10
F5.7000000000000002
ssVcom.android.launcher
p530
(dp531
g10
F105.70000000000006
ssg282
(dp532
g10
F2
ssVcom.android.camera
p533
(dp534
g10
F0.69999999999999996
ssVcom.tencent.mm
p535
(dp536
g10
F15.800000000000004
ssVcom.eg.android.AlipayGphone
p537
(dp538
g10
F9.4000000000000021
ssVcom.xtuone.android.syllabus
p539
(dp540
g10
F0.90000000000000002
sssg73
(dp541
Vcom.android.mms
p542
(dp543
g10
F0.90000000000000002
ssVcom.sankuai.meituan
p544
(dp545
g10
F0.90000000000000002
ssVcom.tencent.mobileqqi
p546
(dp547
g10
F0.40000000000000002
ssg110
(dp548
g10
F0.90000000000000002
ssVcom.android.launcher
p549
(dp550
g10
F3.7000000000000002
sssg75
(dp551
Vcom.tencent.mobileqqi
p552
(dp553
g10
F2.7000000000000002
ssVcom.android.settings
p554
(dp555
g10
F5
ssg295
(dp556
g10
F1.3
ssg510
(dp557
g10
F7.9000000000000004
ssVcom.tencent.mm
p558
(dp559
g10
F1.1000000000000001
ssg47
(dp560
g10
I1
ssg431
(dp561
g10
F0.69999999999999996
sssg77
(dp562
Vcom.tencent.mobileqqi
p563
(dp564
g10
F2.2999999999999998
ssVcom.android.launcher
p565
(dp566
g10
F1.7
sssg79
(dp567
Vcom.ss.android.article.news
p568
(dp569
g10
F0.90000000000000002
ssVcom.android.launcher
p570
(dp571
g10
I1
sssg81
(dp572
Vcom.tencent.mm
p573
(dp574
g10
F10.5
ssVcom.miui.gallery
p575
(dp576
g10
F5
ssVcom.tencent.mobileqqi
p577
(dp578
g10
F3.2999999999999998
ssVcom.android.mms
p579
(dp580
g10
F0.69999999999999996
ssVcom.android.launcher
p581
(dp582
g10
F9.7000000000000011
sssg83
(dp583
g143
(dp584
g10
F0.40000000000000002
ssVcom.tencent.mobileqqi
p585
(dp586
g10
F0.90000000000000002
ssVcom.ss.android.article.news
p587
(dp588
g10
F1.8
ssg434
(dp589
g10
F0.90000000000000002
ssg162
(dp590
g10
F2.2000000000000002
ssVcom.android.launcher
p591
(dp592
g10
F16.5
ssVcom.tencent.mm
p593
(dp594
g10
F3.1000000000000001
ssssS'edge'
p595
g89
sS'graph'
p596
(dp597
sS'adjlist_dict_factory'
p598
g86
sS'adj'
p599
g89
sS'pred'
p600
(dp601
g8
(dp602
g352
g115
sVcom.youdao.dict
p603
g152
sg156
g175
sg139
g495
sg93
g188
sg339
g204
sg95
g516
sg41
g338
sVcom.android.deskclock
p604
g212
sg217
g397
sVcom.Qunar
p605
g448
sVcom.android.launcher
p606
g233
sVcom.android.phone
p607
g313
sg314
g477
sg63
g468
sVcom.tencent.mm
p608
g351
ssg11
(dp609
g8
g92
sVcom.youdao.dict
p610
g173
sVcom.ss.android.article.news
p611
g177
sg19
g200
sVcom.android.deskclock
p612
g214
sg25
g229
sg27
g234
sg29
g270
sVcom.sankuai.meituan
p613
g301
sg127
g329
sg43
g347
sg45
g353
sg132
g419
sVcom.Qunar
p614
g450
sg137
g479
sVcom.android.settings
p615
g504
sVcom.android.mms
p616
g518
sg73
g547
sVcom.miui.securitycenter
p617
g553
sg77
g564
sVcom.android.camera
p618
g578
sVcom.xtuone.android.syllabus
p619
g586
ssg13
(dp620
Vcom.tencent.mobileqqi
p621
g117
sVcom.tencent.mm
p622
g355
sVcom.android.launcher
p623
g235
sVcom.android.phone
p624
g317
ssg15
(dp625
Vcom.tencent.mobileqqi
p626
g119
sg603
g157
sVcom.android.settings
p627
g506
sVcom.android.mms
p628
g520
sg358
g216
sVcom.Qunar
p629
g452
sVcom.android.launcher
p630
g236
sVcom.android.phone
p631
g319
sVcom.android.quicksearchbox
p632
g569
sVcom.miui.weather2
p633
g289
sVcom.tencent.mm
p634
g357
sVcom.xtuone.android.syllabus
p635
g588
ssg17
(dp636
Vcom.android.browser
p637
g94
sVcom.sankuai.meituan
p638
g303
sVcom.android.launcher
p639
g237
ssg19
(dp640
g43
g346
sg41
g340
sVcom.android.launcher
p641
g238
ssg21
(dp642
Vcom.android.launcher
p643
g239
ssg23
(dp644
Vcom.tencent.mm
p645
g359
sVcom.tencent.mobileqqi
p646
g120
sVcom.youdao.dict
p647
g163
sVcom.android.launcher
p648
g240
sg164
g590
ssg25
(dp649
Vcom.tencent.mm
p650
g361
sg19
g196
sg199
g121
sg201
g241
ssg27
(dp651
g8
g103
sg11
g123
sg13
g167
sVcom.ss.android.article.news
p652
g181
sg302
g194
sg19
g202
sg21
g209
sg23
g222
sVcom.sohu.inputmethod.sogou
p653
g231
sg29
g281
sg366
g291
sg33
g298
sg35
g306
sg607
g327
sg43
g349
sg45
g363
sg47
g395
sg49
g402
sVcom.android.calculator
p654
g414
sg53
g427
sg55
g438
sg57
g445
sg83
g592
sg41
g342
sg61
g464
sg63
g472
sg65
g488
sg67
g501
sg69
g511
sg71
g531
sg73
g550
sg75
g557
sg77
g566
sg632
g571
sg473
g582
sg614
g457
ssg29
(dp655
Vcom.android.browser
p656
g111
sg654
g412
sVcom.sankuai.meituan
p657
g310
sg275
g538
sg295
g432
sg73
g548
sg293
g561
sg27
g242
sVcom.android.phone
p658
g333
sVcom.tencent.mm
p659
g365
ssg31
(dp660
g49
g398
sg172
g125
sVcom.tencent.mm
p661
g367
sg610
g158
sVcom.android.launcher
p662
g243
ssg33
(dp663
Vcom.android.mms
p664
g524
sg53
g421
sVcom.android.launcher
p665
g244
ssg35
(dp666
g449
g126
sg302
g190
sg143
g545
sVcom.Qunar
p667
g453
sVcom.android.launcher
p668
g245
sg307
g323
sg309
g274
ssg37
(dp669
g476
g105
sg65
g490
sg51
g416
sVcom.sankuai.meituan
p670
g308
sVcom.android.mms
p671
g532
sVcom.xiaomi.market
p672
g440
sg217
g404
sVcom.android.launcher
p673
g246
sVcom.tencent.mobileqqi
p674
g128
sVcom.tencent.mm
p675
g369
sVcom.eg.android.AlipayGphone
p676
g283
ssg39
(dp677
g461
g442
sVcom.tencent.mm
p678
g371
sg61
g465
sg444
g247
ssg41
(dp679
sg43
(dp680
g641
g248
ssg45
(dp681
Vcom.android.browser
p682
g109
sg11
g131
sg13
g171
sg652
g183
sg93
g192
sg339
g198
sVcom.android.thememanager
p683
g207
sg23
g224
sg360
g227
sg280
g249
sg29
g284
sg366
g287
sVcom.android.phone
p684
g331
sVcom.miui.player
p685
g345
sg47
g393
sg139
g497
sg375
g408
sVcom.achievo.vipshop
p686
g430
sVcom.xtuone.android.syllabus
p687
g594
sg63
g470
sVcom.miui.notes
p688
g492
sg49
g405
sg384
g513
sVcom.android.mms
p689
g536
sVcom.miui.securitycenter
p690
g559
sg618
g574
sVcom.Qunar
p691
g459
ssg47
(dp692
Vcom.miui.securitycenter
p693
g560
sVcom.tencent.mm
p694
g374
sVcom.android.launcher
p695
g250
ssg49
(dp696
g604
g218
sVcom.miui.notes
p697
g481
sg661
g383
sVcom.android.launcher
p698
g251
ssg51
(dp699
Vcom.tencent.mm
p700
g376
sVcom.eg.android.AlipayGphone
p701
g272
sVcom.android.launcher
p702
g252
sg415
g321
ssg53
(dp703
Vcom.tencent.mobileqqi
p704
g133
sg384
g508
sg33
g296
sg664
g525
sg293
g556
sg665
g253
sg137
g485
sVcom.tencent.mm
p705
g378
sVcom.eg.android.AlipayGphone
p706
g277
ssg55
(dp707
Vcom.youdao.dict
p708
g161
sVcom.android.launcher
p709
g254
ssg57
(dp710
Vcom.tencent.mobileqqi
p711
g134
sVcom.tencent.mm
p712
g379
sg61
g462
sVcom.android.launcher
p713
g255
sg39
g336
ssg59
(dp714
Vcom.android.browser
p715
g101
sVcom.tencent.mobileqqi
p716
g135
sg451
g185
sVcom.android.mms
p717
g529
sg484
g426
sVcom.android.launcher
p718
g256
ssg61
(dp719
g57
g443
sg711
g136
sVcom.android.launcher
p720
g257
ssg63
(dp721
g473
g576
sVcom.tencent.mobileqqi
p722
g130
sg512
g373
sg507
g428
sVcom.android.launcher
p723
g258
ssg65
(dp724
Vcom.android.browser
p725
g107
sVcom.tencent.mobileqqi
p726
g138
sVcom.youdao.dict
p727
g154
sVcom.android.mms
p728
g523
sVcom.android.launcher
p729
g259
sg489
g315
sVcom.tencent.mm
p730
g382
ssg67
(dp731
Vcom.tencent.mobileqqi
p732
g140
sg498
g522
sVcom.android.launcher
p733
g260
ssg69
(dp734
g75
g555
sVcom.tencent.mm
p735
g385
sVcom.achievo.vipshop
p736
g420
sVcom.android.launcher
p737
g261
ssg71
(dp738
Vcom.android.browser
p739
g96
sVcom.tencent.mobileqqi
p740
g142
sVcom.youdao.dict
p741
g160
sg654
g410
sVcom.sankuai.meituan
p742
g304
sVcom.achievo.vipshop
p743
g423
sVcom.xiaomi.market
p744
g435
sg278
g543
sg67
g499
sg146
g580
sg528
g455
sVcom.android.launcher
p745
g262
sVcom.android.phone
p746
g325
sg314
g483
sg659
g387
sVcom.eg.android.AlipayGphone
p747
g276
sg83
g589
ssg73
(dp748
g656
g97
sg585
g144
sVcom.android.mms
p749
g527
sg619
g584
sVcom.android.launcher
p750
g263
sVcom.eg.android.AlipayGphone
p751
g279
ssg75
(dp752
Vcom.android.browser
p753
g99
sg69
g509
sg33
g294
sg53
g424
sg737
g264
sVcom.tencent.mm
p754
g388
ssg77
(dp755
Vcom.tencent.mobileqqi
p756
g145
sVcom.youdao.dict
p757
g155
sVcom.android.launcher
p758
g265
ssg79
(dp759
Vcom.android.launcher
p760
g266
ssg81
(dp761
Vcom.tencent.mobileqqi
p762
g147
sVcom.youdao.dict
p763
g169
sVcom.android.mms
p764
g534
sVcom.android.launcher
p765
g267
sVcom.miui.gallery
p766
g474
sVcom.tencent.mm
p767
g390
ssg83
(dp768
Vcom.android.browser
p769
g113
sVcom.tencent.mobileqqi
p770
g149
sg647
g165
sVcom.ss.android.article.news
p771
g179
sg480
g400
sg434
g540
sg744
g436
sg162
g220
sVcom.android.launcher
p772
g268
sg697
g486
sVcom.tencent.mm
p773
g380
sssb.