ccopy_reg
_reconstructor
p1
(cnetworkx.classes.digraph
DiGraph
p2
c__builtin__
object
p3
NtRp4
(dp5
S'node'
p6
(dp7
Vcom.android.browser
p8
(dp9
S'weight'
p10
F0.021524400181854055
ssVcom.miui.fmradio
p11
(dp12
g10
F0.00034526536109181057
ssVcom.gamedashi.dtcq.daota
p13
(dp14
g10
F0.00057901644406701148
ssVcom.xiaomi.smarthome
p15
(dp16
g10
F2.1445053483963389e-06
ssVcom.xiaomi.hm.health
p17
(dp18
g10
F6.4335160451890171e-06
ssVcom.xiaomi.payment
p19
(dp20
g10
F7.0768676497079178e-05
ssVcom.sina.weibo
p21
(dp22
g10
F0.013051459550340119
ssVcom.eg.android.AlipayGphone
p23
(dp24
g10
F0.0011280098132564742
ssVcom.zhihu.android
p25
(dp26
g10
F0.00031953129691105451
ssVcom.miui.weather2
p27
(dp28
g10
F0.00012438131020698766
ssVcn.wps.moffice_eng
p29
(dp30
g10
F0.00018657196531048149
ssVcom.miui.cleanmaster
p31
(dp32
g10
F8.5780213935853555e-06
ssVcom.android.packageinstaller
p33
(dp34
g10
F0.0043190337716702267
ssVcom.taobao.taobao
p35
(dp36
g10
F0.00010936977276821329
ssVcom.android.incallui
p37
(dp38
g10
F0.009054101580929343
ssVme.ele
p39
(dp40
g10
F0.015706357171654785
ssVcom.android.phone
p41
(dp42
g10
F2.1445053483963389e-06
ssVcom.miui.player
p43
(dp44
g10
F0.045051768359110289
ssVcom.tencent.mm
p45
(dp46
g10
F0.084752995873971712
ssVcom.miui.antispam
p47
(dp48
g10
F2.1445053483963388e-05
ssVcom.android.calculator2
p49
(dp50
g10
F9.0069224632646232e-05
ssVcom.mipay.wallet
p51
(dp52
g10
F7.0768676497079178e-05
ssVcom.nuomi
p53
(dp54
g10
F0.00021230602949123755
ssVcom.android.fileexplorer
p55
(dp56
g10
F0.00095644938538476713
ssVcom.xiaomi.gamecenter.sdk.service
p57
(dp58
g10
F8.5780213935853555e-06
ssVcom.happyelements.AndroidAnimal
p59
(dp60
g10
F0.0033861739451178192
ssVcom.miui.home
p61
(dp62
g10
F0.56536237851377202
ssVcom.duokan.reader
p63
(dp64
g10
F0.013808469938324026
ssVcom.tencent.mobileqq
p65
(dp66
g10
F0.095732863257760967
ssVcom.android.deskclock
p67
(dp68
g10
F0.00036027689853058493
ssVcom.miui.gallery
p69
(dp70
g10
F0.011175017370493322
ssVcom.zhihu.daily.android
p71
(dp72
g10
F0.034335675133173781
ssVcom.xiaomi.vip
p73
(dp74
g10
F0.00012652581555538399
ssVcom.android.calendar
p75
(dp76
g10
F0.00074843236659032227
ssVcom.android.settings
p77
(dp78
g10
F0.0037593178757387821
ssVcom.android.mms
p79
(dp80
g10
F0.00010293625672302427
ssVcom.baidu.BaiduMap
p81
(dp82
g10
F0.0066887121816481812
ssVcom.xiaomi.account
p83
(dp84
g10
F1.9300548135567051e-05
ssVcom.wacai365
p85
(dp86
g10
F0.018569271811763897
ssVcom.miui.securitycenter
p87
(dp88
g10
F0.00014153735299415836
ssVcom.lofter.android
p89
(dp90
g10
F0.00018442745996208516
ssVcom.duokan.phone.remotecontroller
p91
(dp92
g10
F0.00016941592252331077
ssVcom.xiaomi.mitv.phone.tvassistant
p93
(dp94
g10
F0.00034312085574341421
ssVcom.miui.barcodescanner
p95
(dp96
g10
F1.2867032090378034e-05
ssVcom.xiaomi.jr
p97
(dp98
g10
F7.9346697890664538e-05
ssVcom.android.camera
p99
(dp100
g10
F1.7156042787170711e-05
ssVsh.lilith.dgame.mi
p101
(dp102
g10
F0.047108348988222373
ssVcom.xxAssistant
p103
(dp104
g10
F6.6479665800286511e-05
sssS'graph'
p105
(dp106
sS'succ'
p107
(dp108
g8
(dp109
Vcom.miui.weather2
p110
(dp111
g10
I1
ssg71
(dp112
g10
F0.40000000000000002
ssVcom.tencent.mobileqq
p113
(dp114
g10
I2
ssg79
(dp115
g10
F1.3
ssg59
(dp116
g10
F0.40000000000000002
ssVcom.android.camera
p117
(dp118
g10
I1
ssVcom.miui.home
p119
(dp120
g10
F16.5
ssVcom.tencent.mm
p121
(dp122
g10
F4.5
ssVcom.duokan.reader
p123
(dp124
g10
F2.7000000000000002
ssVcom.eg.android.AlipayGphone
p125
(dp126
g10
F0.69999999999999996
sssg11
(dp127
Vcom.miui.home
p128
(dp129
g10
I3
sssg13
(dp130
sg15
(dp131
Vcom.miui.home
p132
(dp133
g10
I1
sssg17
(dp134
Vcom.sina.weibo
p135
(dp136
g10
I1
sssg19
(dp137
Vcom.miui.home
p138
(dp139
g10
F0.90000000000000002
ssVcom.xiaomi.account
p140
(dp141
g10
I1
ssVcom.duokan.reader
p142
(dp143
g10
F1.7
sssg21
(dp144
g17
(dp145
g10
F2.7000000000000002
ssVcom.miui.home
p146
(dp147
g10
F2.7000000000000002
ssVcom.tencent.mm
p148
(dp149
g10
F0.90000000000000002
sssg23
(dp150
g73
(dp151
g10
F0.69999999999999996
ssVme.ele
p152
(dp153
g10
I1
ssVcom.miui.home
p154
(dp155
g10
I4
ssVcom.tencent.mm
p156
(dp157
g10
F0.90000000000000002
ssg83
(dp158
g10
F1.3
sssg25
(dp159
Vcom.miui.home
p160
(dp161
g10
F0.90000000000000002
ssVcom.zhihu.daily.android
p162
(dp163
g10
F5.4000000000000004
sssg27
(dp164
Vcom.android.browser
p165
(dp166
g10
I1
ssVcom.zhihu.daily.android
p167
(dp168
g10
F0.90000000000000002
ssVcom.tencent.mobileqq
p169
(dp170
g10
F0.40000000000000002
ssVcom.miui.home
p171
(dp172
g10
F7.8000000000000007
ssg121
(dp173
g10
F1.7000000000000002
ssVsh.lilith.dgame.mi
p174
(dp175
g10
F0.90000000000000002
ssVcom.eg.android.AlipayGphone
p176
(dp177
g10
F1.3
sssg29
(dp178
Vcom.android.fileexplorer
p179
(dp180
g10
F3.7000000000000002
ssVcom.miui.home
p181
(dp182
g10
F1.3
ssVcom.tencent.mobileqq
p183
(dp184
g10
F0.69999999999999996
sssg31
(dp185
Vcom.android.browser
p186
(dp187
g10
F0.69999999999999996
ssVcom.miui.home
p188
(dp189
g10
I1
ssg63
(dp190
g10
F1.3
sssg33
(dp191
Vcom.miui.home
p192
(dp193
g10
F1.7
ssVcom.android.mms
p194
(dp195
g10
F0.90000000000000002
ssVsh.lilith.dgame.mi
p196
(dp197
g10
F0.40000000000000002
sssg35
(dp198
Vcom.lofter.android
p199
(dp200
g10
I1
ssVcom.miui.home
p201
(dp202
g10
F1.3
ssg97
(dp203
g10
F0.69999999999999996
sssg37
(dp204
Vcom.android.browser
p205
(dp206
g10
F0.40000000000000002
ssVcom.zhihu.daily.android
p207
(dp208
g10
F0.90000000000000002
ssVcom.tencent.mobileqq
p209
(dp210
g10
I3
ssVcom.wacai365
p211
(dp212
g10
F0.69999999999999996
ssVcom.android.settings
p213
(dp214
g10
F0.69999999999999996
ssVcom.miui.home
p215
(dp216
g10
F5
ssVcom.tencent.mm
p217
(dp218
g10
F2.2999999999999998
ssVsh.lilith.dgame.mi
p219
(dp220
g10
I1
sssg39
(dp221
Vcom.miui.home
p222
(dp223
g10
I1
ssg23
(dp224
g10
I1
sssg41
(dp225
sg43
(dp226
Vcom.android.browser
p227
(dp228
g10
F0.40000000000000002
ssVcom.miui.home
p229
(dp230
g10
F10.4
ssVcom.tencent.mm
p231
(dp232
g10
F2.7000000000000002
ssVsh.lilith.dgame.mi
p233
(dp234
g10
F2.2000000000000002
sssg45
(dp235
g165
(dp236
g10
F4.3999999999999995
ssVcom.miui.fmradio
p237
(dp238
g10
F0.90000000000000002
ssVcom.sina.weibo
p239
(dp240
g10
F0.90000000000000002
ssVcom.eg.android.AlipayGphone
p241
(dp242
g10
F1.3
ssg27
(dp243
g10
F3.8999999999999999
ssg29
(dp244
g10
F0.69999999999999996
ssg39
(dp245
g10
F0.90000000000000002
ssVcom.miui.player
p246
(dp247
g10
F0.90000000000000002
ssVcom.tencent.mobileqq
p248
(dp249
g10
F16.200000000000003
ssg49
(dp250
g10
F1.8
ssVcom.android.fileexplorer
p251
(dp252
g10
F1.3
ssg59
(dp253
g10
F5.7000000000000002
ssVcom.duokan.reader
p254
(dp255
g10
I1
ssVcom.miui.home
p256
(dp257
g10
F103.00000000000009
ssVcom.zhihu.daily.android
p258
(dp259
g10
F1.3999999999999999
ssVcom.android.calendar
p260
(dp261
g10
F1.3
ssg77
(dp262
g10
F0.69999999999999996
ssVcom.android.mms
p263
(dp264
g10
F0.90000000000000002
ssg85
(dp265
g10
F4
ssg95
(dp266
g10
F0.69999999999999996
ssVcom.android.camera
p267
(dp268
g10
F0.90000000000000002
ssg101
(dp269
g10
F13.900000000000002
ssg103
(dp270
g10
F1.2000000000000002
sssg47
(dp271
Vcom.tencent.mm
p272
(dp273
g10
F1.3
ssVcom.android.mms
p274
(dp275
g10
I1
ssVcom.miui.securitycenter
p276
(dp277
g10
I1
ssVcom.miui.home
p278
(dp279
g10
F2.3999999999999999
ssg31
(dp280
g10
F0.90000000000000002
ssg63
(dp281
g10
F0.40000000000000002
sssg49
(dp282
Vcom.miui.home
p283
(dp284
g10
I1
ssVcom.tencent.mm
p285
(dp286
g10
F0.90000000000000002
sssg51
(dp287
Vcom.miui.home
p288
(dp289
g10
F1.7
ssVcom.miui.weather2
p290
(dp291
g10
F0.90000000000000002
ssg176
(dp292
g10
F0.40000000000000002
sssg53
(dp293
Vsh.lilith.dgame.mi
p294
(dp295
g10
I1
sssg55
(dp296
g91
(dp297
g10
F0.90000000000000002
ssg181
(dp298
g10
F6.1000000000000005
ssg183
(dp299
g10
F1.3
ssg29
(dp300
g10
F5
ssg93
(dp301
g10
F0.40000000000000002
sssg57
(dp302
Vcom.miui.home
p303
(dp304
g10
F0.90000000000000002
ssVcom.tencent.mm
p305
(dp306
g10
F0.69999999999999996
ssVsh.lilith.dgame.mi
p307
(dp308
g10
I1
sssg59
(dp309
Vcom.miui.home
p310
(dp311
g10
F6.8000000000000007
ssVcom.tencent.mm
p312
(dp313
g10
F4.4000000000000004
sssg61
(dp314
g8
(dp315
g10
F14.800000000000001
ssg237
(dp316
g10
I1
ssg13
(dp317
g10
F3.3999999999999999
ssg15
(dp318
g10
I1
ssg17
(dp319
g10
F1.3
ssg19
(dp320
g10
F1.7000000000000002
ssg21
(dp321
g10
F6.7000000000000002
ssg241
(dp322
g10
F10.5
ssg27
(dp323
g10
F8.5
ssg29
(dp324
g10
F3.7000000000000002
ssg31
(dp325
g10
F0.40000000000000002
ssg35
(dp326
g10
F2.7000000000000002
ssVcom.android.incallui
p327
(dp328
g10
I2
ssg39
(dp329
g10
F1.7
ssg41
(dp330
g10
F1.7
ssVcom.miui.player
p331
(dp332
g10
I4
ssg248
(dp333
g10
F40.000000000000007
ssg47
(dp334
g10
F2.6000000000000001
ssg49
(dp335
g10
F2.7000000000000002
ssg51
(dp336
g10
F1.7
ssg45
(dp337
g10
F119.20000000000009
ssg53
(dp338
g10
I1
ssg251
(dp339
g10
F6.1000000000000005
ssg57
(dp340
g10
F1.3
ssg59
(dp341
g10
F7.5
ssg63
(dp342
g10
F3.4000000000000004
ssg67
(dp343
g10
I4
ssg69
(dp344
g10
I2
ssg71
(dp345
g10
F11.5
ssg73
(dp346
g10
F1.3
ssg75
(dp347
g10
F5.4000000000000004
ssg77
(dp348
g10
F3.2999999999999998
ssg79
(dp349
g10
F6.4000000000000004
ssVcom.baidu.BaiduMap
p350
(dp351
g10
I2
ssg83
(dp352
g10
F2.3999999999999999
ssg85
(dp353
g10
F14.299999999999999
ssg87
(dp354
g10
F4.0999999999999996
ssg89
(dp355
g10
F4
ssg91
(dp356
g10
I1
ssg93
(dp357
g10
F1.7
ssg95
(dp358
g10
F1.3
ssg97
(dp359
g10
F1.3999999999999999
ssg99
(dp360
g10
F3.1000000000000001
ssg101
(dp361
g10
F52.799999999999997
ssg103
(dp362
g10
F10.4
sssg63
(dp363
g186
(dp364
g10
F2.7000000000000002
ssVcom.xiaomi.payment
p365
(dp366
g10
F2.7000000000000002
ssVcom.miui.home
p367
(dp368
g10
F4.0999999999999996
ssVcom.tencent.mm
p369
(dp370
g10
F2.2999999999999998
ssg83
(dp371
g10
F0.40000000000000002
ssg125
(dp372
g10
F1.3
sssg65
(dp373
Vcom.android.browser
p374
(dp375
g10
F3.7000000000000002
ssVcom.miui.gallery
p376
(dp377
g10
I1
ssVcom.miui.weather2
p378
(dp379
g10
F0.90000000000000002
ssVcn.wps.moffice_eng
p380
(dp381
g10
F0.40000000000000002
ssg258
(dp382
g10
F2.2999999999999998
ssg87
(dp383
g10
F1.3
ssg213
(dp384
g10
F0.90000000000000002
ssg79
(dp385
g10
F0.69999999999999996
ssg55
(dp386
g10
F1.8999999999999999
ssg41
(dp387
g10
F0.90000000000000002
ssg119
(dp388
g10
F38.499999999999993
ssVcom.tencent.mm
p389
(dp390
g10
F13.100000000000001
ssVsh.lilith.dgame.mi
p391
(dp392
g10
F3.7999999999999998
sssg67
(dp393
Vcom.android.mms
p394
(dp395
g10
F0.90000000000000002
ssVcom.miui.home
p396
(dp397
g10
F7.1000000000000005
ssVcom.tencent.mm
p398
(dp399
g10
F2.6000000000000001
ssVsh.lilith.dgame.mi
p400
(dp401
g10
F0.40000000000000002
sssg69
(dp402
Vcom.miui.home
p403
(dp404
g10
F4.4000000000000004
ssVcom.tencent.mobileqq
p405
(dp406
g10
F1.8999999999999999
ssg391
(dp407
g10
F1.3
sssg71
(dp408
g25
(dp409
g10
F5.4000000000000004
ssVcom.android.browser
p410
(dp411
g10
I1
ssg45
(dp412
g10
F4.5
ssg57
(dp413
g10
F0.69999999999999996
ssVcom.miui.home
p414
(dp415
g10
F8.8000000000000007
ssVcom.tencent.mobileqq
p416
(dp417
g10
F2.7000000000000002
ssVsh.lilith.dgame.mi
p418
(dp419
g10
F2.2000000000000002
ssVcom.xxAssistant
p420
(dp421
g10
F0.40000000000000002
sssg73
(dp422
g19
(dp423
g10
F0.90000000000000002
ssg138
(dp424
g10
F0.40000000000000002
ssVcom.xiaomi.account
p425
(dp426
g10
F1.7
sssg75
(dp427
Vcom.tencent.mobileqq
p428
(dp429
g10
F0.40000000000000002
ssVcom.miui.home
p430
(dp431
g10
F4.4000000000000004
ssVcom.tencent.mm
p432
(dp433
g10
F2.2000000000000002
sssg77
(dp434
Vcom.wacai365
p435
(dp436
g10
F0.90000000000000002
ssVcom.android.browser
p437
(dp438
g10
F0.90000000000000002
ssVcom.miui.home
p439
(dp440
g10
F5.5999999999999996
ssVsh.lilith.dgame.mi
p441
(dp442
g10
F0.40000000000000002
ssVcom.miui.player
p443
(dp444
g10
F1.7
sssg79
(dp445
g71
(dp446
g10
F0.90000000000000002
ssg47
(dp447
g10
F2.7000000000000002
ssVcom.miui.home
p448
(dp449
g10
F7.8000000000000007
ssg45
(dp450
g10
F2.3999999999999999
ssg196
(dp451
g10
F0.90000000000000002
ssg241
(dp452
g10
F0.90000000000000002
sssg81
(dp453
Vcom.wacai365
p454
(dp455
g10
F0.40000000000000002
ssVcom.miui.home
p456
(dp457
g10
F4.4000000000000004
ssVcom.tencent.mm
p458
(dp459
g10
F0.90000000000000002
ssVcom.miui.gallery
p460
(dp461
g10
F0.90000000000000002
ssVsh.lilith.dgame.mi
p462
(dp463
g10
F1.3
sssg83
(dp464
g73
(dp465
g10
I1
ssg19
(dp466
g10
F2.3999999999999999
ssg138
(dp467
g10
F1.7
ssg142
(dp468
g10
F1.7000000000000002
sssg85
(dp469
Vcom.android.browser
p470
(dp471
g10
F0.90000000000000002
ssVcom.zhihu.daily.android
p472
(dp473
g10
F1.3
ssg263
(dp474
g10
F0.40000000000000002
ssVcom.miui.home
p475
(dp476
g10
F14.499999999999998
ssVcom.tencent.mm
p477
(dp478
g10
F4.4000000000000004
ssg441
(dp479
g10
F1.3
ssVcom.eg.android.AlipayGphone
p480
(dp481
g10
F0.90000000000000002
sssg87
(dp482
g186
(dp483
g10
F0.40000000000000002
ssg31
(dp484
g10
F1.7
ssg63
(dp485
g10
F0.69999999999999996
ssg251
(dp486
g10
F0.40000000000000002
ssVcom.miui.home
p487
(dp488
g10
F3
ssVcom.tencent.mm
p489
(dp490
g10
F0.90000000000000002
ssVcom.miui.antispam
p491
(dp492
g10
I1
sssg89
(dp493
g51
(dp494
g10
F0.40000000000000002
ssVcom.miui.home
p495
(dp496
g10
F4.7999999999999998
ssVcom.taobao.taobao
p497
(dp498
g10
F1.3
ssg97
(dp499
g10
F0.90000000000000002
sssg91
(dp500
Vcom.miui.securitycenter
p501
(dp502
g10
F0.40000000000000002
ssVcom.miui.home
p503
(dp504
g10
F1.7
ssg93
(dp505
g10
F0.90000000000000002
sssg93
(dp506
g501
(dp507
g10
F1.3
ssVcom.miui.home
p508
(dp509
g10
I1
ssg491
(dp510
g10
F0.69999999999999996
sssg95
(dp511
Vcom.android.browser
p512
(dp513
g10
I1
ssg117
(dp514
g10
F0.90000000000000002
sssg97
(dp515
g51
(dp516
g10
F0.90000000000000002
ssVcom.miui.home
p517
(dp518
g10
F1.7
ssg290
(dp519
g10
F0.40000000000000002
sssg99
(dp520
g512
(dp521
g10
F0.90000000000000002
ssVcom.miui.home
p522
(dp523
g10
I1
ssg95
(dp524
g10
I1
sssg101
(dp525
g248
(dp526
g10
F1.8
ssg57
(dp527
g10
I1
ssg13
(dp528
g10
F1.8
ssg85
(dp529
g10
F2.7999999999999998
ssVcom.eg.android.AlipayGphone
p530
(dp531
g10
F0.40000000000000002
ssg77
(dp532
g10
I1
ssg267
(dp533
g10
F0.40000000000000002
ssVcom.miui.home
p534
(dp535
g10
F51.100000000000009
ssVcom.tencent.mm
p536
(dp537
g10
F16.300000000000004
ssg103
(dp538
g10
F4.5
sssg103
(dp539
Vcom.miui.home
p540
(dp541
g10
I1
ssssS'edge'
p542
g108
sS'pred'
p543
(dp544
g8
(dp545
g246
g228
sVcom.miui.weather2
p546
g166
sVcom.zhihu.daily.android
p547
g411
sg276
g483
sg31
g187
sg113
g375
sg85
g471
sVcom.android.incallui
p548
g206
sg95
g513
sVcom.android.settings
p549
g438
sg267
g521
sg61
g315
sVcom.tencent.mm
p550
g236
sg63
g364
ssg11
(dp551
Vcom.miui.home
p552
g316
sVcom.tencent.mm
p553
g238
ssg13
(dp554
Vcom.miui.home
p555
g317
sVsh.lilith.dgame.mi
p556
g528
ssg15
(dp557
Vcom.miui.home
p558
g318
ssg17
(dp559
Vcom.miui.home
p560
g319
sVcom.sina.weibo
p561
g145
ssg19
(dp562
g73
g423
sVcom.miui.home
p563
g320
sg83
g466
sg142
g366
ssg21
(dp564
g17
g136
sVcom.miui.home
p565
g321
sVcom.tencent.mm
p566
g240
ssg23
(dp567
Vcom.android.browser
p568
g126
sg290
g177
sg51
g292
sg263
g452
sg123
g372
sVcom.wacai365
p569
g481
sVme.ele
p570
g224
sVcom.miui.home
p571
g322
sVcom.tencent.mm
p572
g242
sVsh.lilith.dgame.mi
p573
g531
ssg25
(dp574
Vcom.zhihu.daily.android
p575
g409
ssg27
(dp576
g165
g111
sVcom.tencent.mobileqq
p577
g379
sg51
g291
sg97
g519
sVcom.miui.home
p578
g323
sVcom.tencent.mm
p579
g243
ssg29
(dp580
g251
g300
sg487
g324
sg489
g244
sVcom.tencent.mobileqq
p581
g381
ssg31
(dp582
g501
g484
sg508
g325
sg491
g280
ssg33
(dp583
sg35
(dp584
g89
g498
sVcom.miui.home
p585
g326
ssg37
(dp586
Vcom.miui.home
p587
g328
ssg39
(dp588
Vcom.miui.home
p589
g329
sVcom.tencent.mm
p590
g245
sg23
g153
ssg41
(dp591
Vcom.miui.home
p592
g330
sVcom.tencent.mobileqq
p593
g387
ssg43
(dp594
Vcom.android.settings
p595
g444
sVcom.miui.home
p596
g332
sVcom.tencent.mm
p597
g247
ssg45
(dp598
g165
g122
sg331
g232
sg546
g173
sg71
g412
sg87
g490
sg75
g433
sVcom.sina.weibo
p599
g149
sVcom.duokan.reader
p600
g370
sg79
g450
sVcom.baidu.BaiduMap
p601
g459
sg47
g273
sVcom.wacai365
p602
g478
sg37
g218
sVcom.android.deskclock
p603
g399
sg57
g306
sVcom.happyelements.AndroidAnimal
p604
g313
sg448
g337
sVcom.tencent.mobileqq
p605
g390
sVsh.lilith.dgame.mi
p606
g537
sg241
g157
sg49
g286
ssg47
(dp607
g501
g492
sVcom.miui.home
p608
g334
sVcom.android.mms
p609
g447
sg93
g510
ssg49
(dp610
Vcom.miui.home
p611
g335
sVcom.tencent.mm
p612
g250
ssg51
(dp613
g199
g494
sg201
g336
sg97
g516
ssg53
(dp614
Vcom.miui.home
p615
g338
ssg55
(dp616
g87
g486
sg489
g252
sg487
g339
sg65
g386
sg29
g180
ssg57
(dp617
Vcom.miui.home
p618
g340
sVsh.lilith.dgame.mi
p619
g527
sVcom.zhihu.daily.android
p620
g413
ssg59
(dp621
Vcom.android.browser
p622
g116
sVcom.miui.home
p623
g341
sVcom.tencent.mm
p624
g253
ssg61
(dp625
Vcom.android.browser
p626
g120
sg11
g129
sg15
g133
sg19
g139
sg599
g147
sg241
g155
sVcom.zhihu.android
p627
g161
sg27
g172
sg29
g182
sg31
g189
sg33
g193
sg497
g202
sg37
g216
sVme.ele
p628
g223
sg69
g404
sg113
g388
sg47
g279
sg49
g284
sg51
g289
sVcom.tencent.mm
p629
g257
sg251
g298
sg57
g304
sg59
g311
sg123
g368
sg603
g397
sg43
g230
sg71
g415
sg73
g424
sg75
g431
sg77
g440
sg79
g449
sg81
g457
sg425
g467
sg85
g476
sg87
g488
sg89
g496
sg91
g504
sg93
g509
sg97
g518
sg99
g523
sg101
g535
sg103
g541
ssg63
(dp630
g186
g124
sg369
g255
sg425
g468
sg276
g485
sg19
g143
sg188
g342
sg31
g190
sg491
g281
ssg65
(dp631
g626
g114
sg256
g333
sg110
g170
sg29
g184
sVcom.zhihu.daily.android
p632
g417
sg251
g299
sVcom.android.calendar
p633
g429
sg37
g210
sg69
g406
sg629
g249
sg101
g526
ssg67
(dp634
Vcom.miui.home
p635
g343
ssg69
(dp636
Vcom.miui.home
p637
g344
sVcom.tencent.mobileqq
p638
g377
sg81
g461
ssg71
(dp639
g374
g112
sg378
g168
sg25
g163
sg169
g382
sg79
g446
sg454
g473
sg37
g208
sg119
g345
sg121
g259
ssg73
(dp640
g367
g346
sg83
g465
sg125
g151
ssg75
(dp641
Vcom.miui.home
p642
g347
sVcom.tencent.mm
p643
g261
ssg77
(dp644
Vcom.android.incallui
p645
g214
sVcom.miui.home
p646
g348
sVcom.tencent.mm
p647
g262
sVsh.lilith.dgame.mi
p648
g532
sVcom.tencent.mobileqq
p649
g384
ssg79
(dp650
g626
g115
sg572
g264
sg33
g195
sVcom.wacai365
p651
g474
sVcom.android.deskclock
p652
g395
sg119
g349
sg113
g385
sg47
g275
ssg81
(dp653
Vcom.miui.home
p654
g351
ssg83
(dp655
g73
g426
sg19
g141
sg367
g352
sVcom.duokan.reader
p656
g371
sg125
g158
ssg85
(dp657
g77
g436
sg601
g455
sVcom.android.incallui
p658
g212
sVcom.miui.home
p659
g353
sVcom.tencent.mm
p660
g265
sg174
g529
ssg87
(dp661
g91
g502
sVcom.miui.home
p662
g354
sVcom.tencent.mobileqq
p663
g383
sg93
g507
sg491
g277
ssg89
(dp664
Vcom.miui.home
p665
g355
sg497
g200
ssg91
(dp666
Vcom.android.fileexplorer
p667
g297
sVcom.miui.home
p668
g356
ssg93
(dp669
g667
g301
sg668
g357
sg91
g505
ssg95
(dp670
g267
g524
sVcom.miui.home
p671
g358
sVcom.tencent.mm
p672
g266
ssg97
(dp673
g199
g499
sVcom.miui.home
p674
g359
sg497
g203
ssg99
(dp675
g512
g118
sVcom.miui.home
p676
g360
sg672
g268
sVsh.lilith.dgame.mi
p677
g533
sg95
g514
ssg101
(dp678
g53
g295
sg603
g401
sg43
g234
sVcom.miui.weather2
p679
g175
sVcom.zhihu.daily.android
p680
g419
sg77
g442
sg33
g197
sg194
g451
sVcom.baidu.BaiduMap
p681
g463
sg435
g479
sg658
g220
sVcom.miui.gallery
p682
g407
sg57
g308
sVcom.miui.home
p683
g361
sg629
g269
sg638
g392
ssg103
(dp684
Vcom.miui.home
p685
g362
sg398
g270
sg400
g538
sg680
g421
sssS'adj'
p686
g108
sb.