ccopy_reg
_reconstructor
p1
(cnetworkx.classes.digraph
DiGraph
p2
c__builtin__
object
p3
NtRp4
(dp5
S'node'
p6
(dp7
Vcom.sankuai.meituan
p8
(dp9
S'weight'
p10
F0.00040920716112531971
ssVcom.autonavi.minimap
p11
(dp12
g10
F0.0040579710144927538
ssVcom.android.deskclock
p13
(dp14
g10
F0.0030690537084398979
ssVcom.UCMobile
p15
(dp16
g10
F0.043682864450127874
ssVcom.smile.gifmaker
p17
(dp18
g10
F0.10867860187553283
ssVcom.netease.mobimail
p19
(dp20
g10
F0.010775788576300085
ssVcom.sina.weibo
p21
(dp22
g10
F0.12293265132139812
ssVcom.android.contacts
p23
(dp24
g10
F0.008388746803069053
ssVcom.eg.android.AlipayGphone
p25
(dp26
g10
F0.010946291560102302
ssVcom.qihoo.appstore
p27
(dp28
g10
F0.00034100596760443307
ssVcn.wps.moffice_eng
p29
(dp30
g10
F0.0057630008525149188
ssVcom.android.packageinstaller
p31
(dp32
g10
F0.00095481670929241261
ssVcom.moji.mjweather
p33
(dp34
g10
F0.00030690537084398974
ssVcom.android.gallery3d
p35
(dp36
g10
F0.0027962489343563513
ssVcom.dajie.official
p37
(dp38
g10
F0.0059676044330775786
ssVcom.qihoo360.mobilesafe
p39
(dp40
g10
F0.0032054560954816709
ssVcom.huawei.hidisk
p41
(dp42
g10
F0.0048763853367433932
ssVcom.nowcoder.app.florida
p43
(dp44
g10
F0.00081841432225063942
ssVcom.android.phone
p45
(dp46
g10
F0.032190963341858482
ssVcom.android.htmlviewer
p47
(dp48
g10
F0.00088661551577152596
ssVcom.alibaba.android.rimet
p49
(dp50
g10
F0.0059676044330775786
ssVcom.tencent.mobileqq
p51
(dp52
g10
F0.12876385336743393
ssVcom.duomi.android
p53
(dp54
g10
F0.0021824381926683718
ssVcom.tencent.androidqqmail
p55
(dp56
g10
F0.00098891730605285598
ssVcom.android.calculator
p57
(dp58
g10
F0.0017732310315430519
ssVcom.chaozh.iReaderFree15
p59
(dp60
g10
F0.0066496163682864453
ssVcom.stormreader.ebook.daomubiji
p61
(dp62
g10
F0.10046035805626599
ssVcom.sohu.newsclient
p63
(dp64
g10
F0.094936061381074174
ssVcom.baidu.input_huawei
p65
(dp66
g10
F0.00017050298380221653
ssVcom.tencent.mm
p67
(dp68
g10
F0.24497868712702472
ssVcom.android.mms
p69
(dp70
g10
F0.028371696504688831
ssVcom.abcxyzebook.reader.renxingderuodian
p71
(dp72
g10
F0.01258312020460358
ssVcom.snda.youni
p73
(dp74
g10
F0.0011253196930946291
sssS'node_dict_factory'
p75
c__builtin__
dict
p76
sS'edge_attr_dict_factory'
p77
g76
sS'succ'
p78
(dp79
g8
(dp80
Vcom.android.contacts
p81
(dp82
g10
F2.5999999999999996
ssVcom.qihoo360.mobilesafe
p83
(dp84
g10
F0.40000000000000002
sssg11
(dp85
Vcom.tencent.mobileqq
p86
(dp87
g10
F0.90000000000000002
ssVcom.tencent.mm
p88
(dp89
g10
I1
ssVcom.smile.gifmaker
p90
(dp91
g10
I1
sssg13
(dp92
Vcom.sohu.newsclient
p93
(dp94
g10
I1
ssVcom.tencent.mm
p95
(dp96
g10
I1
ssVcom.netease.mobimail
p97
(dp98
g10
F0.40000000000000002
ssVcom.sina.weibo
p99
(dp100
g10
F1.8999999999999999
ssVcom.android.contacts
p101
(dp102
g10
F0.90000000000000002
ssVcom.tencent.mobileqq
p103
(dp104
g10
F2.3999999999999999
sssg15
(dp105
Vcom.tencent.mm
p106
(dp107
g10
I1
sssg17
(dp108
Vcom.autonavi.minimap
p109
(dp110
g10
I1
ssVcom.stormreader.ebook.daomubiji
p111
(dp112
g10
F0.90000000000000002
ssg53
(dp113
g10
I1
ssVcom.android.phone
p114
(dp115
g10
I1
sssg19
(dp116
g61
(dp117
g10
F2.2000000000000002
ssVcom.sohu.newsclient
p118
(dp119
g10
I1
ssVcom.tencent.androidqqmail
p120
(dp121
g10
F0.90000000000000002
ssVcom.tencent.mobileqq
p122
(dp123
g10
F1.8999999999999999
ssVcom.sina.weibo
p124
(dp125
g10
I1
ssg35
(dp126
g10
F0.69999999999999996
ssVcom.qihoo360.mobilesafe
p127
(dp128
g10
F0.90000000000000002
ssVcom.chaozh.iReaderFree15
p129
(dp130
g10
I1
ssVcom.tencent.mm
p131
(dp132
g10
F4.5
ssg29
(dp133
g10
I1
sssg21
(dp134
Vcom.stormreader.ebook.daomubiji
p135
(dp136
g10
F0.69999999999999996
ssVcom.sohu.newsclient
p137
(dp138
g10
I1
ssg120
(dp139
g10
I1
ssVcom.tencent.mobileqq
p140
(dp141
g10
F1.8999999999999999
ssVcom.android.deskclock
p142
(dp143
g10
F0.40000000000000002
ssVcom.tencent.mm
p144
(dp145
g10
F0.90000000000000002
ssg27
(dp146
g10
I1
sssg23
(dp147
g118
(dp148
g10
F0.69999999999999996
ssVcom.android.mms
p149
(dp150
g10
F2
ssg83
(dp151
g10
F2.6000000000000001
ssVcom.netease.mobimail
p152
(dp153
g10
F1.8999999999999999
ssg45
(dp154
g10
I2
ssVcom.alibaba.android.rimet
p155
(dp156
g10
F4
ssVcom.tencent.mobileqq
p157
(dp158
g10
F1.3999999999999999
ssVcom.eg.android.AlipayGphone
p159
(dp160
g10
F1.1000000000000001
sssg25
(dp161
g21
(dp162
g10
I1
ssVcom.android.contacts
p163
(dp164
g10
I1
sssg27
(dp165
g33
(dp166
g10
I1
sssg29
(dp167
Vcom.tencent.mm
p168
(dp169
g10
F0.90000000000000002
ssVcom.netease.mobimail
p170
(dp171
g10
I1
sssg31
(dp172
Vcom.tencent.mm
p173
(dp174
g10
F1.8999999999999999
ssVcom.tencent.mobileqq
p175
(dp176
g10
I1
sssg33
(dp177
sg35
(dp178
Vcom.tencent.mobileqq
p179
(dp180
g10
F1.3
ssVcom.tencent.mm
p181
(dp182
g10
I1
ssVcom.android.mms
p183
(dp184
g10
F2.3999999999999999
ssVcom.qihoo360.mobilesafe
p185
(dp186
g10
F3.3999999999999999
sssg37
(dp187
Vcom.android.deskclock
p188
(dp189
g10
I1
ssVcom.tencent.mobileqq
p190
(dp191
g10
F1.3
ssg73
(dp192
g10
F0.40000000000000002
ssVcom.tencent.mm
p193
(dp194
g10
F3.4000000000000004
ssg55
(dp195
g10
F0.90000000000000002
sssg39
(dp196
Vcom.stormreader.ebook.daomubiji
p197
(dp198
g10
F2.5999999999999996
ssVcom.netease.mobimail
p199
(dp200
g10
F0.69999999999999996
ssg67
(dp201
g10
F7.5000000000000018
ssg31
(dp202
g10
F0.90000000000000002
ssg35
(dp203
g10
I2
ssVcom.android.mms
p204
(dp205
g10
F7.3000000000000007
ssVcom.dajie.official
p206
(dp207
g10
F0.69999999999999996
ssg188
(dp208
g10
F0.80000000000000004
ssg41
(dp209
g10
F7.0999999999999996
ssVcom.nowcoder.app.florida
p210
(dp211
g10
I1
ssVcom.duomi.android
p212
(dp213
g10
F0.90000000000000002
ssg59
(dp214
g10
F1.7000000000000002
ssVcom.android.phone
p215
(dp216
g10
I1
ssVcom.abcxyzebook.reader.renxingderuodian
p217
(dp218
g10
F0.69999999999999996
ssVcom.snda.youni
p219
(dp220
g10
I1
ssg21
(dp221
g10
F0.69999999999999996
ssVcom.android.contacts
p222
(dp223
g10
F2.6000000000000001
ssg25
(dp224
g10
F1.8
ssVcom.tencent.mobileqq
p225
(dp226
g10
F14.499999999999998
sssg41
(dp227
Vcom.tencent.mobileqq
p228
(dp229
g10
F3.7999999999999998
ssg59
(dp230
g10
F1.7
ssVcom.qihoo360.mobilesafe
p231
(dp232
g10
F4.5
sssg43
(dp233
g197
(dp234
g10
I1
ssg65
(dp235
g10
I1
ssVcom.android.gallery3d
p236
(dp237
g10
F1.3
ssg206
(dp238
g10
F0.90000000000000002
ssVcom.qihoo360.mobilesafe
p239
(dp240
g10
F0.69999999999999996
ssg188
(dp241
g10
F0.69999999999999996
ssVcom.tencent.mobileqq
p242
(dp243
g10
F1.8999999999999999
sssg45
(dp244
Vcom.stormreader.ebook.daomubiji
p245
(dp246
g10
F1.3
ssg55
(dp247
g10
F0.40000000000000002
ssVcom.tencent.mobileqq
p248
(dp249
g10
I1
ssVcom.dajie.official
p250
(dp251
g10
F0.90000000000000002
ssVcom.qihoo360.mobilesafe
p252
(dp253
g10
I3
ssg212
(dp254
g10
F0.69999999999999996
ssVcom.smile.gifmaker
p255
(dp256
g10
I1
ssg155
(dp257
g10
F0.90000000000000002
ssVcom.tencent.mm
p258
(dp259
g10
F0.69999999999999996
ssVcom.android.contacts
p260
(dp261
g10
F7.6000000000000005
sssg47
(dp262
sg49
(dp263
Vcom.android.contacts
p264
(dp265
g10
F5
ssg45
(dp266
g10
F0.90000000000000002
sssg51
(dp267
g236
(dp268
g10
F1.7
ssg61
(dp269
g10
I1
ssg118
(dp270
g10
F1.3
ssg15
(dp271
g10
F1.7
ssg67
(dp272
g10
F16.899999999999999
ssg31
(dp273
g10
I1
ssg55
(dp274
g10
F0.69999999999999996
ssVcom.android.mms
p275
(dp276
g10
F2.3999999999999999
ssg250
(dp277
g10
I1
ssg39
(dp278
g10
F11.5
ssVcom.android.deskclock
p279
(dp280
g10
F1.8999999999999999
ssg41
(dp281
g10
F1.3
ssg97
(dp282
g10
F1.7
ssg21
(dp283
g10
F0.90000000000000002
ssg101
(dp284
g10
I1
ssg25
(dp285
g10
I2
sssg53
(dp286
g57
(dp287
g10
F0.69999999999999996
ssg111
(dp288
g10
I2
ssVcom.chaozh.iReaderFree15
p289
(dp290
g10
F0.90000000000000002
sssg55
(dp291
g142
(dp292
g10
F0.69999999999999996
ssg135
(dp293
g10
F0.90000000000000002
ssg73
(dp294
g10
F1.3
ssVcom.tencent.mm
p295
(dp296
g10
I2
ssVcom.qihoo360.mobilesafe
p297
(dp298
g10
F0.69999999999999996
sssg57
(dp299
sg59
(dp300
g57
(dp301
g10
I1
ssVcom.huawei.hidisk
p302
(dp303
g10
F0.90000000000000002
ssVcom.tencent.mobileqq
p304
(dp305
g10
F0.69999999999999996
ssVcom.stormreader.ebook.daomubiji
p306
(dp307
g10
I1
ssVcom.qihoo360.mobilesafe
p308
(dp309
g10
F1.3999999999999999
sssg61
(dp310
g57
(dp311
g10
F2.2999999999999998
ssVcom.tencent.mm
p312
(dp313
g10
F3.7999999999999998
ssg206
(dp314
g10
I1
ssg188
(dp315
g10
F1.8999999999999999
ssg289
(dp316
g10
F1.7
ssVcom.tencent.mobileqq
p317
(dp318
g10
F2.7999999999999998
ssg212
(dp319
g10
I1
sssg63
(dp320
g61
(dp321
g10
F0.40000000000000002
ssVcom.tencent.mm
p322
(dp323
g10
F1.8999999999999999
ssg13
(dp324
g10
I2
ssVcom.netease.mobimail
p325
(dp326
g10
F0.90000000000000002
ssg45
(dp327
g10
F0.69999999999999996
ssg49
(dp328
g10
I1
ssg122
(dp329
g10
F1.7
ssg264
(dp330
g10
F1.3
sssg65
(dp331
g242
(dp332
g10
I1
sssg67
(dp333
g61
(dp334
g10
F2.3999999999999999
ssg129
(dp335
g10
F0.90000000000000002
ssg15
(dp336
g10
F1.3
ssg69
(dp337
g10
F8.8000000000000007
ssg31
(dp338
g10
F0.69999999999999996
ssg55
(dp339
g10
I1
ssg35
(dp340
g10
F0.90000000000000002
ssg37
(dp341
g10
I1
ssVcom.qihoo360.mobilesafe
p342
(dp343
g10
F10.600000000000001
ssg279
(dp344
g10
F3.5
ssVcom.huawei.hidisk
p345
(dp346
g10
F0.90000000000000002
ssg17
(dp347
g10
I1
ssg325
(dp348
g10
F3.7000000000000002
ssg71
(dp349
g10
F2.8999999999999999
ssg73
(dp350
g10
F2.3999999999999999
ssVcom.tencent.mobileqq
p351
(dp352
g10
F15.4
ssg29
(dp353
g10
F0.90000000000000002
sssg69
(dp354
g306
(dp355
g10
F0.40000000000000002
ssg199
(dp356
g10
F1.3
ssVcom.qihoo360.mobilesafe
p357
(dp358
g10
F6.7000000000000002
ssg129
(dp359
g10
F0.69999999999999996
ssg71
(dp360
g10
F2
ssVcom.tencent.mm
p361
(dp362
g10
F8.1000000000000014
ssVcom.android.contacts
p363
(dp364
g10
F1.8999999999999999
ssg159
(dp365
g10
I1
sssg71
(dp366
g109
(dp367
g10
F0.90000000000000002
ssVcom.android.mms
p368
(dp369
g10
F1.7
ssVcom.qihoo360.mobilesafe
p370
(dp371
g10
F0.90000000000000002
ssVcom.UCMobile
p372
(dp373
g10
I1
ssVcom.smile.gifmaker
p374
(dp375
g10
F1.7
ssVcom.tencent.mm
p376
(dp377
g10
F2.2999999999999998
sssg73
(dp378
Vcom.android.deskclock
p379
(dp380
g10
F0.69999999999999996
ssVcom.tencent.mobileqq
p381
(dp382
g10
F1.3
ssVcom.tencent.mm
p383
(dp384
g10
F1.7
ssg297
(dp385
g10
I1
ssssS'edge'
p386
g79
sS'graph'
p387
(dp388
sS'adjlist_dict_factory'
p389
g76
sS'adj'
p390
g79
sS'pred'
p391
(dp392
g8
(dp393
sg11
(dp394
Vcom.abcxyzebook.reader.renxingderuodian
p395
g367
sg374
g110
ssg13
(dp396
g197
g315
sg63
g324
sg120
g292
sVcom.tencent.mm
p397
g344
sg124
g143
sg206
g189
sVcom.qihoo360.mobilesafe
p398
g208
sg210
g241
sg219
g380
sVcom.tencent.mobileqq
p399
g280
ssg15
(dp400
Vcom.abcxyzebook.reader.renxingderuodian
p401
g373
sg190
g271
sg193
g336
ssg17
(dp402
g395
g375
sg109
g91
sVcom.tencent.mm
p403
g347
sg114
g256
ssg19
(dp404
Vcom.sohu.newsclient
p405
g326
sg103
g282
sg275
g356
sVcom.qihoo360.mobilesafe
p406
g200
sVcom.android.deskclock
p407
g98
sg322
g348
sg23
g153
sg29
g171
ssg21
(dp408
Vcom.android.deskclock
p409
g100
sVcom.netease.mobimail
p410
g125
sVcom.tencent.mobileqq
p411
g283
sg25
g162
sVcom.qihoo360.mobilesafe
p412
g221
ssg23
(dp413
Vcom.sohu.newsclient
p414
g330
sg8
g82
sVcom.android.mms
p415
g364
sg252
g223
sg407
g102
sg45
g261
sg49
g265
sg103
g284
sg159
g164
ssg25
(dp416
g149
g365
sg411
g285
sVcom.android.contacts
p417
g160
sg412
g224
ssg27
(dp418
Vcom.sina.weibo
p419
g146
ssg29
(dp420
Vcom.tencent.mm
p421
g353
sVcom.netease.mobimail
p422
g133
ssg31
(dp423
Vcom.tencent.mobileqq
p424
g273
sVcom.tencent.mm
p425
g338
sVcom.qihoo360.mobilesafe
p426
g202
ssg33
(dp427
Vcom.qihoo.appstore
p428
g166
ssg35
(dp429
Vcom.tencent.mobileqq
p430
g268
sVcom.nowcoder.app.florida
p431
g237
sg131
g340
sg127
g203
sg19
g126
ssg37
(dp432
g197
g314
sVcom.tencent.mm
p433
g341
sg398
g207
sg210
g238
sVcom.android.phone
p434
g251
sg248
g277
ssg39
(dp435
g59
g309
sg55
g298
sg51
g278
sg8
g84
sg35
g186
sg69
g358
sg41
g232
sg431
g240
sg19
g128
sVcom.android.phone
p436
g253
sg71
g371
sg73
g385
sg67
g343
sg81
g151
ssg41
(dp437
Vcom.tencent.mm
p438
g346
sg51
g281
sg59
g303
sg39
g209
ssg43
(dp439
g398
g211
ssg45
(dp440
Vcom.smile.gifmaker
p441
g115
sg49
g266
sg414
g327
sVcom.qihoo360.mobilesafe
p442
g216
sg264
g154
ssg47
(dp443
sg49
(dp444
g45
g257
sg414
g328
sg264
g156
ssg51
(dp445
Vcom.stormreader.ebook.daomubiji
p446
g318
sg405
g329
sg325
g123
sg65
g332
sg99
g141
sg31
g176
sg35
g180
sg37
g191
sg39
g226
sg407
g104
sg41
g229
sg43
g243
sg59
g305
sg434
g249
sg11
g87
sg73
g382
sg67
g352
sg101
g158
ssg53
(dp447
g245
g319
sVcom.smile.gifmaker
p448
g113
sVcom.qihoo360.mobilesafe
p449
g213
sVcom.android.phone
p450
g254
ssg55
(dp451
g124
g139
sg250
g195
sg410
g121
sg434
g247
sg258
g339
sg248
g274
ssg57
(dp452
g245
g311
sg212
g287
sg289
g301
ssg59
(dp453
g245
g316
sVcom.android.mms
p454
g359
sVcom.qihoo360.mobilesafe
p455
g214
sVcom.huawei.hidisk
p456
g230
sg199
g130
sg361
g335
sg212
g290
ssg61
(dp457
g405
g321
sg120
g293
sg322
g334
sg124
g136
sg454
g355
sg398
g198
sg210
g234
sg129
g307
sg448
g112
sg325
g117
sg450
g246
sg122
g269
sg53
g288
ssg63
(dp458
Vcom.android.deskclock
p459
g94
sVcom.sina.weibo
p460
g138
sg103
g270
sg101
g148
sg97
g119
ssg65
(dp461
g43
g235
ssg67
(dp462
g124
g145
sg446
g313
sg405
g323
sg55
g296
sg275
g362
sg31
g174
sg35
g182
sg37
g194
sg231
g201
sVcom.android.deskclock
p463
g96
sg15
g107
sg19
g132
sg434
g259
sg71
g377
sg73
g384
sVcom.tencent.mobileqq
p464
g272
sg11
g89
sg29
g169
ssg69
(dp465
Vcom.tencent.mm
p466
g337
sg236
g184
sg357
g205
sg71
g369
sVcom.tencent.mobileqq
p467
g276
sg81
g150
ssg71
(dp468
Vcom.tencent.mm
p469
g349
sVcom.android.mms
p470
g360
sg370
g218
ssg73
(dp471
g258
g350
sg250
g192
sg297
g220
sg55
g294
sssb.