ccopy_reg
_reconstructor
p1
(cnetworkx.classes.digraph
DiGraph
p2
c__builtin__
object
p3
NtRp4
(dp5
S'node'
p6
(dp7
Vcom.android.browser
p8
(dp9
S'weight'
p10
F0.021524400181854055
ssVcom.miui.fmradio
p11
(dp12
g10
F0.00034526536109181057
ssVcom.gamedashi.dtcq.daota
p13
(dp14
g10
F0.00057901644406701148
ssVcom.xiaomi.smarthome
p15
(dp16
g10
F2.1445053483963389e-06
ssVcom.xiaomi.hm.health
p17
(dp18
g10
F6.4335160451890171e-06
ssVcom.android.launcher
p19
(dp20
g10
F0.56536237851377202
ssVcom.xiaomi.payment
p21
(dp22
g10
F7.0768676497079178e-05
ssVcom.sina.weibo
p23
(dp24
g10
F0.013051459550340119
ssVcom.eg.android.AlipayGphone
p25
(dp26
g10
F0.0011280098132564742
ssVcom.zhihu.android
p27
(dp28
g10
F0.00031953129691105451
ssVcom.miui.weather2
p29
(dp30
g10
F0.00012438131020698766
ssVcn.wps.moffice_eng
p31
(dp32
g10
F0.00018657196531048149
ssVcom.miui.cleanmaster
p33
(dp34
g10
F8.5780213935853555e-06
ssVcom.android.packageinstaller
p35
(dp36
g10
F0.0043190337716702267
ssVcom.taobao.taobao
p37
(dp38
g10
F0.00010936977276821329
ssVme.ele
p39
(dp40
g10
F0.015706357171654785
ssVcom.android.phone
p41
(dp42
g10
F0.0090562460862777389
ssVcom.miui.gallery
p43
(dp44
g10
F0.011175017370493322
ssVcom.tencent.mm
p45
(dp46
g10
F0.084752995873971712
ssVcom.miui.antispam
p47
(dp48
g10
F2.1445053483963388e-05
ssVcom.android.calculator
p49
(dp50
g10
F9.0069224632646232e-05
ssVcom.mipay.wallet
p51
(dp52
g10
F7.0768676497079178e-05
ssVcom.nuomi
p53
(dp54
g10
F0.00021230602949123755
ssVcom.android.fileexplorer
p55
(dp56
g10
F0.00095644938538476713
ssVcom.xiaomi.gamecenter.sdk.service
p57
(dp58
g10
F8.5780213935853555e-06
ssVcom.happyelements.AndroidAnimal
p59
(dp60
g10
F0.0033861739451178192
ssVcom.duokan.reader
p61
(dp62
g10
F0.013808469938324026
ssVcom.tencent.mobileqq
p63
(dp64
g10
F0.095732863257760967
ssVcom.android.deskclock
p65
(dp66
g10
F0.00036027689853058493
ssVcom.miui.player
p67
(dp68
g10
F0.045051768359110289
ssVcom.zhihu.daily.android
p69
(dp70
g10
F0.034335675133173781
ssVcom.xiaomi.vip
p71
(dp72
g10
F0.00012652581555538399
ssVcom.android.calendar
p73
(dp74
g10
F0.00074843236659032227
ssVcom.android.settings
p75
(dp76
g10
F0.0037593178757387821
ssVcom.android.mms
p77
(dp78
g10
F0.00010293625672302427
ssVcom.baidu.BaiduMap
p79
(dp80
g10
F0.0066887121816481812
ssVcom.xiaomi.account
p81
(dp82
g10
F1.9300548135567051e-05
ssVcom.wacai365
p83
(dp84
g10
F0.018569271811763897
ssVcom.miui.securitycenter
p85
(dp86
g10
F0.00014153735299415836
ssVcom.lofter.android
p87
(dp88
g10
F0.00018442745996208516
ssVcom.duokan.phone.remotecontroller
p89
(dp90
g10
F0.00016941592252331077
ssVcom.xiaomi.mitv.phone.tvassistant
p91
(dp92
g10
F0.00034312085574341421
ssVcom.miui.barcodescanner
p93
(dp94
g10
F1.2867032090378034e-05
ssVcom.xiaomi.jr
p95
(dp96
g10
F7.9346697890664538e-05
ssVcom.android.camera
p97
(dp98
g10
F1.7156042787170711e-05
ssVsh.lilith.dgame.mi
p99
(dp100
g10
F0.047108348988222373
ssVcom.xxAssistant
p101
(dp102
g10
F6.6479665800286511e-05
sssS'node_dict_factory'
p103
c__builtin__
dict
p104
sS'edge_attr_dict_factory'
p105
g104
sS'succ'
p106
(dp107
g8
(dp108
Vcom.miui.weather2
p109
(dp110
g10
I1
ssg69
(dp111
g10
F0.40000000000000002
ssVcom.tencent.mobileqq
p112
(dp113
g10
I2
ssg77
(dp114
g10
F1.3
ssVcom.android.launcher
p115
(dp116
g10
F16.5
ssg59
(dp117
g10
F0.40000000000000002
ssVcom.android.camera
p118
(dp119
g10
I1
ssVcom.tencent.mm
p120
(dp121
g10
F4.5
ssVcom.duokan.reader
p122
(dp123
g10
F2.7000000000000002
ssVcom.eg.android.AlipayGphone
p124
(dp125
g10
F0.69999999999999996
sssg11
(dp126
Vcom.android.launcher
p127
(dp128
g10
I3
sssg13
(dp129
sg15
(dp130
Vcom.android.launcher
p131
(dp132
g10
I1
sssg17
(dp133
Vcom.sina.weibo
p134
(dp135
g10
I1
sssg19
(dp136
g8
(dp137
g10
F14.800000000000001
ssVcom.miui.fmradio
p138
(dp139
g10
I1
ssg13
(dp140
g10
F3.3999999999999999
ssg15
(dp141
g10
I1
ssg17
(dp142
g10
F1.3
ssg21
(dp143
g10
F1.7000000000000002
ssg23
(dp144
g10
F6.7000000000000002
ssVcom.eg.android.AlipayGphone
p145
(dp146
g10
F10.5
ssg29
(dp147
g10
F8.5
ssg31
(dp148
g10
F3.7000000000000002
ssg33
(dp149
g10
F0.40000000000000002
ssg37
(dp150
g10
F2.7000000000000002
ssg39
(dp151
g10
F1.7
ssVcom.android.phone
p152
(dp153
g10
F3.7000000000000002
ssVcom.miui.player
p154
(dp155
g10
I4
ssVcom.tencent.mobileqq
p156
(dp157
g10
F40.000000000000007
ssg47
(dp158
g10
F2.6000000000000001
ssg49
(dp159
g10
F2.7000000000000002
ssg51
(dp160
g10
F1.7
ssg45
(dp161
g10
F119.20000000000009
ssg53
(dp162
g10
I1
ssVcom.android.fileexplorer
p163
(dp164
g10
F6.1000000000000005
ssg57
(dp165
g10
F1.3
ssg59
(dp166
g10
F7.5
ssg61
(dp167
g10
F3.4000000000000004
ssg65
(dp168
g10
I4
ssg43
(dp169
g10
I2
ssg69
(dp170
g10
F11.5
ssg71
(dp171
g10
F1.3
ssg73
(dp172
g10
F5.4000000000000004
ssg75
(dp173
g10
F3.2999999999999998
ssg77
(dp174
g10
F6.4000000000000004
ssVcom.baidu.BaiduMap
p175
(dp176
g10
I2
ssg81
(dp177
g10
F2.3999999999999999
ssg83
(dp178
g10
F14.299999999999999
ssg85
(dp179
g10
F4.0999999999999996
ssg87
(dp180
g10
F4
ssg89
(dp181
g10
I1
ssg91
(dp182
g10
F1.7
ssg93
(dp183
g10
F1.3
ssg95
(dp184
g10
F1.3999999999999999
ssg97
(dp185
g10
F3.1000000000000001
ssg99
(dp186
g10
F52.799999999999997
ssg101
(dp187
g10
F10.4
sssg21
(dp188
Vcom.xiaomi.account
p189
(dp190
g10
I1
ssVcom.android.launcher
p191
(dp192
g10
F0.90000000000000002
ssVcom.duokan.reader
p193
(dp194
g10
F1.7
sssg23
(dp195
g17
(dp196
g10
F2.7000000000000002
ssVcom.tencent.mm
p197
(dp198
g10
F0.90000000000000002
ssVcom.android.launcher
p199
(dp200
g10
F2.7000000000000002
sssg25
(dp201
g71
(dp202
g10
F0.69999999999999996
ssVme.ele
p203
(dp204
g10
I1
ssVcom.tencent.mm
p205
(dp206
g10
F0.90000000000000002
ssg81
(dp207
g10
F1.3
ssVcom.android.launcher
p208
(dp209
g10
I4
sssg27
(dp210
Vcom.android.launcher
p211
(dp212
g10
F0.90000000000000002
ssVcom.zhihu.daily.android
p213
(dp214
g10
F5.4000000000000004
sssg29
(dp215
Vcom.android.browser
p216
(dp217
g10
I1
ssVcom.zhihu.daily.android
p218
(dp219
g10
F0.90000000000000002
ssVcom.tencent.mobileqq
p220
(dp221
g10
F0.40000000000000002
ssVcom.android.launcher
p222
(dp223
g10
F7.8000000000000007
ssg120
(dp224
g10
F1.7000000000000002
ssVsh.lilith.dgame.mi
p225
(dp226
g10
F0.90000000000000002
ssVcom.eg.android.AlipayGphone
p227
(dp228
g10
F1.3
sssg31
(dp229
Vcom.android.fileexplorer
p230
(dp231
g10
F3.7000000000000002
ssVcom.tencent.mobileqq
p232
(dp233
g10
F0.69999999999999996
ssVcom.android.launcher
p234
(dp235
g10
F1.3
sssg33
(dp236
Vcom.android.browser
p237
(dp238
g10
F0.69999999999999996
ssg61
(dp239
g10
F1.3
ssVcom.android.launcher
p240
(dp241
g10
I1
sssg35
(dp242
Vcom.android.mms
p243
(dp244
g10
F0.90000000000000002
ssVsh.lilith.dgame.mi
p245
(dp246
g10
F0.40000000000000002
ssVcom.android.launcher
p247
(dp248
g10
F1.7
sssg37
(dp249
Vcom.lofter.android
p250
(dp251
g10
I1
ssVcom.android.launcher
p252
(dp253
g10
F1.3
ssg95
(dp254
g10
F0.69999999999999996
sssg39
(dp255
g25
(dp256
g10
I1
ssVcom.android.launcher
p257
(dp258
g10
I1
sssg41
(dp259
Vcom.android.browser
p260
(dp261
g10
F0.40000000000000002
ssVcom.zhihu.daily.android
p262
(dp263
g10
F0.90000000000000002
ssVcom.tencent.mobileqq
p264
(dp265
g10
I3
ssVcom.wacai365
p266
(dp267
g10
F0.69999999999999996
ssVcom.android.launcher
p268
(dp269
g10
F5
ssVcom.android.settings
p270
(dp271
g10
F0.69999999999999996
ssVcom.tencent.mm
p272
(dp273
g10
F2.2999999999999998
ssVsh.lilith.dgame.mi
p274
(dp275
g10
I1
sssg43
(dp276
Vcom.tencent.mobileqq
p277
(dp278
g10
F1.8999999999999999
ssVsh.lilith.dgame.mi
p279
(dp280
g10
F1.3
ssVcom.android.launcher
p281
(dp282
g10
F4.4000000000000004
sssg45
(dp283
g216
(dp284
g10
F4.3999999999999995
ssg138
(dp285
g10
F0.90000000000000002
ssVcom.android.launcher
p286
(dp287
g10
F103.00000000000009
ssVcom.sina.weibo
p288
(dp289
g10
F0.90000000000000002
ssg145
(dp290
g10
F1.3
ssg29
(dp291
g10
F3.8999999999999999
ssg31
(dp292
g10
F0.69999999999999996
ssg39
(dp293
g10
F0.90000000000000002
ssVcom.miui.player
p294
(dp295
g10
F0.90000000000000002
ssg156
(dp296
g10
F16.200000000000003
ssg49
(dp297
g10
F1.8
ssg163
(dp298
g10
F1.3
ssg59
(dp299
g10
F5.7000000000000002
ssVcom.duokan.reader
p300
(dp301
g10
I1
ssVcom.zhihu.daily.android
p302
(dp303
g10
F1.3999999999999999
ssVcom.android.calendar
p304
(dp305
g10
F1.3
ssg75
(dp306
g10
F0.69999999999999996
ssVcom.android.mms
p307
(dp308
g10
F0.90000000000000002
ssg83
(dp309
g10
F4
ssg93
(dp310
g10
F0.69999999999999996
ssVcom.android.camera
p311
(dp312
g10
F0.90000000000000002
ssg99
(dp313
g10
F13.900000000000002
ssg101
(dp314
g10
F1.2000000000000002
sssg47
(dp315
Vcom.tencent.mm
p316
(dp317
g10
F1.3
ssVcom.android.mms
p318
(dp319
g10
I1
ssVcom.miui.securitycenter
p320
(dp321
g10
I1
ssVcom.android.launcher
p322
(dp323
g10
F2.3999999999999999
ssg33
(dp324
g10
F0.90000000000000002
ssg61
(dp325
g10
F0.40000000000000002
sssg49
(dp326
Vcom.tencent.mm
p327
(dp328
g10
F0.90000000000000002
ssVcom.android.launcher
p329
(dp330
g10
I1
sssg51
(dp331
Vcom.miui.weather2
p332
(dp333
g10
F0.90000000000000002
ssg227
(dp334
g10
F0.40000000000000002
ssVcom.android.launcher
p335
(dp336
g10
F1.7
sssg53
(dp337
Vsh.lilith.dgame.mi
p338
(dp339
g10
I1
sssg55
(dp340
g89
(dp341
g10
F0.90000000000000002
ssg232
(dp342
g10
F1.3
ssg31
(dp343
g10
F5
ssg234
(dp344
g10
F6.1000000000000005
ssg91
(dp345
g10
F0.40000000000000002
sssg57
(dp346
Vcom.tencent.mm
p347
(dp348
g10
F0.69999999999999996
ssVsh.lilith.dgame.mi
p349
(dp350
g10
I1
ssVcom.android.launcher
p351
(dp352
g10
F0.90000000000000002
sssg59
(dp353
Vcom.tencent.mm
p354
(dp355
g10
F4.4000000000000004
ssVcom.android.launcher
p356
(dp357
g10
F6.8000000000000007
sssg61
(dp358
g237
(dp359
g10
F2.7000000000000002
ssVcom.android.launcher
p360
(dp361
g10
F4.0999999999999996
ssVcom.xiaomi.payment
p362
(dp363
g10
F2.7000000000000002
ssVcom.tencent.mm
p364
(dp365
g10
F2.2999999999999998
ssg81
(dp366
g10
F0.40000000000000002
ssg124
(dp367
g10
F1.3
sssg63
(dp368
Vcom.android.browser
p369
(dp370
g10
F3.7000000000000002
ssVcom.miui.weather2
p371
(dp372
g10
F0.90000000000000002
ssVcn.wps.moffice_eng
p373
(dp374
g10
F0.40000000000000002
ssg302
(dp375
g10
F2.2999999999999998
ssg85
(dp376
g10
F1.3
ssg270
(dp377
g10
F0.90000000000000002
ssg77
(dp378
g10
F0.69999999999999996
ssg55
(dp379
g10
F1.8999999999999999
ssg115
(dp380
g10
F38.499999999999993
ssVcom.android.phone
p381
(dp382
g10
F0.90000000000000002
ssVcom.miui.gallery
p383
(dp384
g10
I1
ssVcom.tencent.mm
p385
(dp386
g10
F13.100000000000001
ssg279
(dp387
g10
F3.7999999999999998
sssg65
(dp388
Vcom.android.mms
p389
(dp390
g10
F0.90000000000000002
ssVcom.tencent.mm
p391
(dp392
g10
F2.6000000000000001
ssVsh.lilith.dgame.mi
p393
(dp394
g10
F0.40000000000000002
ssVcom.android.launcher
p395
(dp396
g10
F7.1000000000000005
sssg67
(dp397
Vcom.android.browser
p398
(dp399
g10
F0.40000000000000002
ssVcom.tencent.mm
p400
(dp401
g10
F2.7000000000000002
ssVsh.lilith.dgame.mi
p402
(dp403
g10
F2.2000000000000002
ssVcom.android.launcher
p404
(dp405
g10
F10.4
sssg69
(dp406
g27
(dp407
g10
F5.4000000000000004
ssVcom.android.browser
p408
(dp409
g10
I1
ssg45
(dp410
g10
F4.5
ssVcom.android.launcher
p411
(dp412
g10
F8.8000000000000007
ssg57
(dp413
g10
F0.69999999999999996
ssVcom.tencent.mobileqq
p414
(dp415
g10
F2.7000000000000002
ssVsh.lilith.dgame.mi
p416
(dp417
g10
F2.2000000000000002
ssVcom.xxAssistant
p418
(dp419
g10
F0.40000000000000002
sssg71
(dp420
g21
(dp421
g10
F0.90000000000000002
ssVcom.xiaomi.account
p422
(dp423
g10
F1.7
ssg191
(dp424
g10
F0.40000000000000002
sssg73
(dp425
Vcom.tencent.mobileqq
p426
(dp427
g10
F0.40000000000000002
ssVcom.tencent.mm
p428
(dp429
g10
F2.2000000000000002
ssVcom.android.launcher
p430
(dp431
g10
F4.4000000000000004
sssg75
(dp432
Vcom.wacai365
p433
(dp434
g10
F0.90000000000000002
ssVcom.android.browser
p435
(dp436
g10
F0.90000000000000002
ssVcom.miui.player
p437
(dp438
g10
F1.7
ssVsh.lilith.dgame.mi
p439
(dp440
g10
F0.40000000000000002
ssVcom.android.launcher
p441
(dp442
g10
F5.5999999999999996
sssg77
(dp443
g69
(dp444
g10
F0.90000000000000002
ssg245
(dp445
g10
F0.90000000000000002
ssVcom.android.launcher
p446
(dp447
g10
F7.8000000000000007
ssg45
(dp448
g10
F2.3999999999999999
ssg47
(dp449
g10
F2.7000000000000002
ssg145
(dp450
g10
F0.90000000000000002
sssg79
(dp451
Vcom.wacai365
p452
(dp453
g10
F0.40000000000000002
ssVcom.miui.gallery
p454
(dp455
g10
F0.90000000000000002
ssVcom.tencent.mm
p456
(dp457
g10
F0.90000000000000002
ssVsh.lilith.dgame.mi
p458
(dp459
g10
F1.3
ssVcom.android.launcher
p460
(dp461
g10
F4.4000000000000004
sssg81
(dp462
g71
(dp463
g10
I1
ssg21
(dp464
g10
F2.3999999999999999
ssg193
(dp465
g10
F1.7000000000000002
ssg191
(dp466
g10
F1.7
sssg83
(dp467
Vcom.android.browser
p468
(dp469
g10
F0.90000000000000002
ssVcom.zhihu.daily.android
p470
(dp471
g10
F1.3
ssg307
(dp472
g10
F0.40000000000000002
ssVcom.android.launcher
p473
(dp474
g10
F14.499999999999998
ssVcom.tencent.mm
p475
(dp476
g10
F4.4000000000000004
ssg439
(dp477
g10
F1.3
ssVcom.eg.android.AlipayGphone
p478
(dp479
g10
F0.90000000000000002
sssg85
(dp480
g237
(dp481
g10
F0.40000000000000002
ssg33
(dp482
g10
F1.7
ssVcom.miui.antispam
p483
(dp484
g10
I1
ssg163
(dp485
g10
F0.40000000000000002
ssVcom.android.launcher
p486
(dp487
g10
F3
ssVcom.tencent.mm
p488
(dp489
g10
F0.90000000000000002
ssg61
(dp490
g10
F0.69999999999999996
sssg87
(dp491
g51
(dp492
g10
F0.40000000000000002
ssVcom.taobao.taobao
p493
(dp494
g10
F1.3
ssVcom.android.launcher
p495
(dp496
g10
F4.7999999999999998
ssg95
(dp497
g10
F0.90000000000000002
sssg89
(dp498
Vcom.miui.securitycenter
p499
(dp500
g10
F0.40000000000000002
ssg91
(dp501
g10
F0.90000000000000002
ssVcom.android.launcher
p502
(dp503
g10
F1.7
sssg91
(dp504
g499
(dp505
g10
F1.3
ssg483
(dp506
g10
F0.69999999999999996
ssVcom.android.launcher
p507
(dp508
g10
I1
sssg93
(dp509
Vcom.android.browser
p510
(dp511
g10
I1
ssg118
(dp512
g10
F0.90000000000000002
sssg95
(dp513
g51
(dp514
g10
F0.90000000000000002
ssg332
(dp515
g10
F0.40000000000000002
ssVcom.android.launcher
p516
(dp517
g10
F1.7
sssg97
(dp518
g510
(dp519
g10
F0.90000000000000002
ssg93
(dp520
g10
I1
ssVcom.android.launcher
p521
(dp522
g10
I1
sssg99
(dp523
g156
(dp524
g10
F1.8
ssg57
(dp525
g10
I1
ssg13
(dp526
g10
F1.8
ssg83
(dp527
g10
F2.7999999999999998
ssVcom.eg.android.AlipayGphone
p528
(dp529
g10
F0.40000000000000002
ssVcom.android.launcher
p530
(dp531
g10
F51.100000000000009
ssg75
(dp532
g10
I1
ssg311
(dp533
g10
F0.40000000000000002
ssVcom.tencent.mm
p534
(dp535
g10
F16.300000000000004
ssg101
(dp536
g10
F4.5
sssg101
(dp537
Vcom.android.launcher
p538
(dp539
g10
I1
ssssS'edge'
p540
g107
sS'graph'
p541
(dp542
sS'adjlist_dict_factory'
p543
g104
sS'adj'
p544
g107
sS'pred'
p545
(dp546
g8
(dp547
Vcom.miui.weather2
p548
g217
sg93
g511
sVcom.zhihu.daily.android
p549
g409
sg33
g238
sg112
g370
sg83
g469
sg320
g481
sg19
g137
sVcom.android.phone
p550
g261
sg311
g519
sg294
g399
sVcom.tencent.mm
p551
g284
sg61
g359
sVcom.android.settings
p552
g436
ssg11
(dp553
Vcom.tencent.mm
p554
g285
sVcom.android.launcher
p555
g139
ssg13
(dp556
Vsh.lilith.dgame.mi
p557
g526
sVcom.android.launcher
p558
g140
ssg15
(dp559
Vcom.android.launcher
p560
g141
ssg17
(dp561
Vcom.sina.weibo
p562
g196
sVcom.android.launcher
p563
g142
ssg19
(dp564
Vcom.android.browser
p565
g116
sg11
g128
sg15
g132
sg21
g192
sVcom.sina.weibo
p566
g200
sg145
g209
sVcom.zhihu.android
p567
g212
sg29
g223
sg31
g235
sg33
g241
sg35
g248
sg493
g253
sVme.ele
p568
g258
sg41
g269
sg43
g282
sg112
g380
sg47
g323
sg49
g330
sg51
g336
sVcom.tencent.mm
p569
g287
sg163
g344
sg57
g352
sg59
g357
sg122
g361
sVcom.android.deskclock
p570
g396
sg67
g405
sg69
g412
sg71
g424
sg73
g431
sg75
g442
sg77
g447
sg79
g461
sg422
g466
sg83
g474
sg85
g487
sg87
g496
sg89
g503
sg91
g508
sg95
g517
sg97
g522
sg99
g531
sg101
g539
ssg21
(dp571
g71
g421
sg81
g464
sVcom.android.launcher
p572
g143
sg193
g363
ssg23
(dp573
g17
g135
sVcom.tencent.mm
p574
g289
sVcom.android.launcher
p575
g144
ssg25
(dp576
Vcom.android.browser
p577
g125
sg332
g228
sg51
g334
sg307
g450
sg122
g367
sVcom.wacai365
p578
g479
sVme.ele
p579
g256
sVcom.android.launcher
p580
g146
sVcom.tencent.mm
p581
g290
sVsh.lilith.dgame.mi
p582
g529
ssg27
(dp583
Vcom.zhihu.daily.android
p584
g407
ssg29
(dp585
g216
g110
sVcom.tencent.mobileqq
p586
g372
sg51
g333
sVcom.android.launcher
p587
g147
sg95
g515
sVcom.tencent.mm
p588
g291
ssg31
(dp589
g163
g343
sg488
g292
sg486
g148
sVcom.tencent.mobileqq
p590
g374
ssg33
(dp591
g499
g482
sg483
g324
sg507
g149
ssg35
(dp592
sg37
(dp593
g87
g494
sVcom.android.launcher
p594
g150
ssg39
(dp595
Vcom.tencent.mm
p596
g293
sg25
g204
sVcom.android.launcher
p597
g151
ssg41
(dp598
Vcom.tencent.mobileqq
p599
g382
sVcom.android.launcher
p600
g153
ssg43
(dp601
Vcom.tencent.mobileqq
p602
g384
sg79
g455
sVcom.android.launcher
p603
g169
ssg45
(dp604
g216
g121
sg548
g224
sg69
g410
sg85
g489
sg73
g429
sg566
g198
sVcom.duokan.reader
p605
g365
sg57
g348
sg77
g448
sVcom.baidu.BaiduMap
p606
g457
sg47
g317
sVcom.wacai365
p607
g476
sg49
g328
sg446
g161
sg41
g273
sVcom.happyelements.AndroidAnimal
p608
g355
sg154
g401
sVcom.tencent.mobileqq
p609
g386
sVsh.lilith.dgame.mi
p610
g535
sg145
g206
sg570
g392
ssg47
(dp611
g499
g484
sVcom.android.mms
p612
g449
sg91
g506
sVcom.android.launcher
p613
g158
ssg49
(dp614
Vcom.tencent.mm
p615
g297
sVcom.android.launcher
p616
g159
ssg51
(dp617
g250
g492
sg252
g160
sg95
g514
ssg53
(dp618
Vcom.android.launcher
p619
g162
ssg55
(dp620
g85
g485
sg488
g298
sg63
g379
sg31
g231
sg486
g164
ssg57
(dp621
Vcom.zhihu.daily.android
p622
g413
sVcom.android.launcher
p623
g165
sVsh.lilith.dgame.mi
p624
g525
ssg59
(dp625
Vcom.android.browser
p626
g117
sVcom.tencent.mm
p627
g299
sVcom.android.launcher
p628
g166
ssg61
(dp629
g237
g123
sg364
g301
sg483
g325
sg320
g490
sg240
g167
sg21
g194
sg33
g239
sg422
g465
ssg63
(dp630
g565
g113
sg109
g221
sg31
g233
sVcom.zhihu.daily.android
p631
g415
sVcom.android.calendar
p632
g427
sg163
g342
sg286
g157
sg41
g265
sg43
g278
sg569
g296
sg99
g524
ssg65
(dp633
Vcom.android.launcher
p634
g168
ssg67
(dp635
Vcom.android.settings
p636
g438
sVcom.tencent.mm
p637
g295
sVcom.android.launcher
p638
g155
ssg69
(dp639
g369
g111
sg371
g219
sg27
g214
sg220
g375
sg77
g444
sg452
g471
sg115
g170
sg41
g263
sg120
g303
ssg71
(dp640
g124
g202
sg360
g171
sg81
g463
ssg73
(dp641
Vcom.tencent.mm
p642
g305
sVcom.android.launcher
p643
g172
ssg75
(dp644
Vcom.tencent.mobileqq
p645
g377
sVcom.tencent.mm
p646
g306
sVsh.lilith.dgame.mi
p647
g532
sVcom.android.launcher
p648
g173
sVcom.android.phone
p649
g271
ssg77
(dp650
g565
g114
sg581
g308
sg35
g244
sVcom.wacai365
p651
g472
sg115
g174
sg112
g378
sg47
g319
sVcom.android.deskclock
p652
g390
ssg79
(dp653
Vcom.android.launcher
p654
g176
ssg81
(dp655
g71
g423
sg124
g207
sg21
g190
sVcom.duokan.reader
p656
g366
sg360
g177
ssg83
(dp657
g75
g434
sg606
g453
sVcom.android.launcher
p658
g178
sVcom.android.phone
p659
g267
sVcom.tencent.mm
p660
g309
sg225
g527
ssg85
(dp661
g89
g500
sVcom.tencent.mobileqq
p662
g376
sg91
g505
sVcom.android.launcher
p663
g179
sg483
g321
ssg87
(dp664
g493
g251
sVcom.android.launcher
p665
g180
ssg89
(dp666
Vcom.android.fileexplorer
p667
g341
sVcom.android.launcher
p668
g181
ssg91
(dp669
g667
g345
sg89
g501
sg668
g182
ssg93
(dp670
g311
g520
sVcom.tencent.mm
p671
g310
sVcom.android.launcher
p672
g183
ssg95
(dp673
g250
g497
sg493
g254
sVcom.android.launcher
p674
g184
ssg97
(dp675
g93
g512
sg671
g312
sVsh.lilith.dgame.mi
p676
g533
sVcom.android.launcher
p677
g185
sg510
g119
ssg99
(dp678
g53
g339
sg570
g394
sVcom.miui.gallery
p679
g280
sVcom.miui.weather2
p680
g226
sVcom.zhihu.daily.android
p681
g417
sg75
g440
sg35
g246
sg57
g350
sg243
g445
sVcom.baidu.BaiduMap
p682
g459
sg433
g477
sVcom.android.launcher
p683
g186
sg659
g275
sg67
g403
sg569
g313
sg602
g387
ssg101
(dp684
g681
g419
sg391
g314
sg393
g536
sVcom.android.launcher
p685
g187
sssb.