ccopy_reg
_reconstructor
p1
(cnetworkx.classes.digraph
DiGraph
p2
c__builtin__
object
p3
NtRp4
(dp5
S'node'
p6
(dp7
Vcom.sina.weibog3
p8
(dp9
S'weight'
p10
F0.01095650623597008
ssVcom.sec.android.app.launcher
p11
(dp12
g10
F0.61819169023558107
ssVcom.UCMobile
p13
(dp14
g10
F0.011693963386468066
ssVcom.sec.android.app.clockpackage
p15
(dp16
g10
F0.00071314537630574491
ssVcom.sec.android.app.myfiles
p17
(dp18
g10
F0.00057537865588304414
ssVcom.sec.android.app.camera
p19
(dp20
g10
F0.00032415698922988402
ssVcom.android.mms
p21
(dp22
g10
F0.01537314521422725
ssVcom.baidu.BaiduMap
p23
(dp24
g10
F0.0044409507524494109
ssVcom.android.connectionhandler
p25
(dp26
g10
F0.09702829080123504
ssVcom.android.settings
p27
(dp28
g10
F0.004554405698679871
ssVcom.storm.smart
p29
(dp30
g10
F0.0016694084945339028
ssVcom.tencent.qqmusic
p31
(dp32
g10
F0.0032496738170295874
ssVcom.android.phone
p33
(dp34
g10
F0.010980818010162322
ssVcom.qihoo.cleandroid_cn
p35
(dp36
g10
F0.0008590160214591927
ssVcom.sec.android.gallery3d
p37
(dp38
g10
F0.0025608402149160841
ssVcom.infraware.polarisoffice4
p39
(dp40
g10
F0.00041330016126810213
ssVsoft.kinoko.SilentCamera
p41
(dp42
g10
F9.7247096768965209e-05
ssVcom.tencent.mm
p43
(dp44
g10
F0.18292989294715431
ssVcom.android.contacts
p45
(dp46
g10
F0.0032010502686451048
ssVcom.tencent.mobileqq
p47
(dp48
g10
F0.030187119622032951
sssS'graph'
p49
(dp50
sS'succ'
p51
(dp52
g8
(dp53
Vcom.sec.android.app.launcher
p54
(dp55
g10
F9.5
ssVcom.tencent.mobileqq
p56
(dp57
g10
F1.3
ssVcom.android.mms
p58
(dp59
g10
F0.40000000000000002
ssVcom.sec.android.app.clockpackage
p60
(dp61
g10
F0.40000000000000002
ssVcom.tencent.mm
p62
(dp63
g10
F3.6000000000000001
ssVcom.android.contacts
p64
(dp65
g10
F1.3
sssg11
(dp66
Vcom.tencent.mobileqq
p67
(dp68
g10
F21.299999999999994
ssVcom.android.phone
p69
(dp70
g10
F0.90000000000000002
ssg21
(dp71
g10
F21.899999999999995
ssg23
(dp72
g10
F5.4000000000000004
ssg25
(dp73
g10
F10.9
ssg8
(dp74
g10
F6.1000000000000005
ssg13
(dp75
g10
I1
ssg31
(dp76
g10
F5.4000000000000004
ssVcom.storm.smart
p77
(dp78
g10
F1.7
ssg19
(dp79
g10
I2
ssg35
(dp80
g10
I1
ssg37
(dp81
g10
F6.8000000000000007
ssg60
(dp82
g10
F2.7000000000000002
ssg41
(dp83
g10
I1
ssVcom.tencent.mm
p84
(dp85
g10
F153.30000000000004
ssg45
(dp86
g10
F16.799999999999997
ssg27
(dp87
g10
F6.6000000000000005
sssg13
(dp88
Vcom.sec.android.app.launcher
p89
(dp90
g10
I2
sssg15
(dp91
Vcom.tencent.mm
p92
(dp93
g10
F1.7
ssVcom.sec.android.app.launcher
p94
(dp95
g10
I2
ssVcom.sec.android.gallery3d
p96
(dp97
g10
F0.90000000000000002
sssg17
(dp98
g39
(dp99
g10
I1
sssg19
(dp100
g37
(dp101
g10
F0.90000000000000002
ssVcom.sec.android.app.launcher
p102
(dp103
g10
I1
sssg21
(dp104
Vcom.tencent.mm
p105
(dp106
g10
F8.5000000000000018
ssVcom.sec.android.app.launcher
p107
(dp108
g10
F19.199999999999999
ssVcom.android.contacts
p109
(dp110
g10
F2.8999999999999999
ssVcom.tencent.mobileqq
p111
(dp112
g10
F0.40000000000000002
sssg23
(dp113
g27
(dp114
g10
F3.7000000000000002
ssVcom.sec.android.app.launcher
p115
(dp116
g10
I3
sssg25
(dp117
Vcom.sec.android.app.launcher
p118
(dp119
g10
F5.5
ssVcom.tencent.mm
p120
(dp121
g10
F7.4000000000000012
ssVcom.android.contacts
p122
(dp123
g10
I1
sssg27
(dp124
Vcom.tencent.mm
p125
(dp126
g10
F2.6000000000000001
ssVcom.android.connectionhandler
p127
(dp128
g10
I1
ssVcom.sec.android.app.launcher
p129
(dp130
g10
F2.8999999999999999
ssVcom.baidu.BaiduMap
p131
(dp132
g10
I2
ssVcom.tencent.mobileqq
p133
(dp134
g10
I1
sssg29
(dp135
Vcom.sec.android.app.launcher
p136
(dp137
g10
I2
sssg31
(dp138
Vcom.tencent.mm
p139
(dp140
g10
F0.90000000000000002
ssVcom.sec.android.app.launcher
p141
(dp142
g10
F3.7000000000000002
ssVcom.tencent.mobileqq
p143
(dp144
g10
F0.90000000000000002
sssg33
(dp145
Vcom.tencent.mm
p146
(dp147
g10
F7.0000000000000009
ssVcom.sec.android.app.launcher
p148
(dp149
g10
F9.3000000000000007
ssVcom.android.contacts
p150
(dp151
g10
F9.5
ssVcom.android.connectionhandler
p152
(dp153
g10
I1
sssg35
(dp154
sg37
(dp155
Vcom.tencent.mm
p156
(dp157
g10
F2.7999999999999998
ssVcom.sec.android.app.launcher
p158
(dp159
g10
I2
sssg39
(dp160
Vcom.sec.android.app.myfiles
p161
(dp162
g10
I1
sssg41
(dp163
sg43
(dp164
g11
(dp165
g10
F76.000000000000014
ssVcom.android.settings
p166
(dp167
g10
I1
ssVcom.android.mms
p168
(dp169
g10
F6.2000000000000002
ssVcom.android.connectionhandler
p170
(dp171
g10
I5
ssg8
(dp172
g10
F2.7000000000000002
ssVcom.android.phone
p173
(dp174
g10
I1
ssg77
(dp175
g10
F0.90000000000000002
ssVcom.sec.android.gallery3d
p176
(dp177
g10
F4.1000000000000005
ssg60
(dp178
g10
F0.90000000000000002
ssVcom.tencent.mobileqq
p179
(dp180
g10
F9.8000000000000025
ssg45
(dp181
g10
F3.8999999999999999
sssg45
(dp182
g146
(dp183
g10
F2.2000000000000002
ssg148
(dp184
g10
F10.4
ssVcom.android.mms
p185
(dp186
g10
F4
ssg69
(dp187
g10
I1
sssg47
(dp188
Vcom.sec.android.app.launcher
p189
(dp190
g10
F16.699999999999999
ssVcom.android.settings
p191
(dp192
g10
I1
ssg168
(dp193
g10
F0.69999999999999996
ssg8
(dp194
g10
F0.40000000000000002
ssVcom.tencent.qqmusic
p195
(dp196
g10
F1.3
ssVcom.tencent.mm
p197
(dp198
g10
F3.6999999999999997
ssssS'edge'
p199
g52
sS'pred'
p200
(dp201
g8
(dp202
Vcom.sec.android.app.launcher
p203
g74
sVcom.tencent.mm
p204
g172
sVcom.tencent.mobileqq
p205
g194
ssg11
(dp206
g43
g165
sg33
g149
sg21
g108
sg23
g116
sg170
g119
sg8
g55
sg13
g90
sg31
g142
sg19
g103
sg29
g137
sVcom.sec.android.gallery3d
p207
g159
sg15
g95
sg47
g190
sg150
g184
sVcom.android.settings
p208
g130
ssg13
(dp209
Vcom.sec.android.app.launcher
p210
g75
ssg15
(dp211
Vcom.sina.weibog3
p212
g61
sVcom.tencent.mm
p213
g178
sVcom.sec.android.app.launcher
p214
g82
ssg17
(dp215
g39
g162
ssg19
(dp216
Vcom.sec.android.app.launcher
p217
g79
ssg21
(dp218
Vcom.sina.weibog3
p219
g59
sVcom.tencent.mobileqq
p220
g193
sVcom.tencent.mm
p221
g169
sVcom.sec.android.app.launcher
p222
g71
sVcom.android.contacts
p223
g186
ssg23
(dp224
Vcom.android.settings
p225
g132
sVcom.sec.android.app.launcher
p226
g72
ssg25
(dp227
Vcom.tencent.mm
p228
g171
sVcom.android.phone
p229
g153
sVcom.sec.android.app.launcher
p230
g73
sVcom.android.settings
p231
g128
ssg27
(dp232
Vcom.tencent.mobileqq
p233
g192
sVcom.tencent.mm
p234
g167
sVcom.sec.android.app.launcher
p235
g87
sVcom.baidu.BaiduMap
p236
g114
ssg29
(dp237
Vcom.tencent.mm
p238
g175
sVcom.sec.android.app.launcher
p239
g78
ssg31
(dp240
g143
g196
sVcom.sec.android.app.launcher
p241
g76
ssg33
(dp242
Vcom.sec.android.app.launcher
p243
g70
sVcom.tencent.mm
p244
g174
sVcom.android.contacts
p245
g187
ssg35
(dp246
Vcom.sec.android.app.launcher
p247
g80
ssg37
(dp248
Vcom.tencent.mm
p249
g177
sg60
g97
sg217
g81
sg19
g101
ssg39
(dp250
g17
g99
ssg41
(dp251
Vcom.sec.android.app.launcher
p252
g83
ssg43
(dp253
Vcom.sec.android.app.launcher
p254
g85
sg208
g126
sVcom.android.mms
p255
g106
sg170
g121
sg8
g63
sg31
g140
sg33
g147
sg207
g157
sg60
g93
sVcom.tencent.mobileqq
p256
g198
sg150
g183
ssg45
(dp257
Vcom.sec.android.app.launcher
p258
g86
sVcom.android.mms
p259
g110
sg152
g123
sVcom.sina.weibog3
p260
g65
sg33
g151
sVcom.tencent.mm
p261
g181
ssg47
(dp262
g189
g68
sg191
g134
sVcom.android.mms
p263
g112
sVcom.sina.weibog3
p264
g57
sVcom.tencent.qqmusic
p265
g144
sVcom.tencent.mm
p266
g180
sssS'adj'
p267
g52
sb.