ccopy_reg
_reconstructor
p1
(cnetworkx.classes.digraph
DiGraph
p2
c__builtin__
object
p3
NtRp4
(dp5
S'node'
p6
(dp7
Vcom.android.browser
p8
(dp9
S'weight'
p10
F0.00047803552558748052
ssVcom.huawei.camera
p11
(dp12
g10
F0.00030191717405525086
ssVorg.cocos2dx.GoldenFishGame
p13
(dp14
g10
F0.026241634378302219
ssVcom.autonavi.minimap
p15
(dp16
g10
F2.5159764504604236e-05
ssVcom.huawei.systemmanager
p17
(dp18
g10
F0.00095607105117496104
ssVcom.qiyi.video
p19
(dp20
g10
F0.018442107381874906
ssVcom.android.deskclock
p21
(dp22
g10
F0.0018115030443315052
ssVcom.xiaomi.hm.health
p23
(dp24
g10
F0.017536355859709155
ssVcom.hunantv.imgo.activity
p25
(dp26
g10
F0.16137472953253157
ssVcom.huawei.android.internal.app
p27
(dp28
g10
F0.0020882604538821517
ssVcom.android.contacts
p29
(dp30
g10
F0.023901776279374023
ssVcom.eg.android.AlipayGphone
p31
(dp32
g10
F0.0011825089317163992
ssVcom.qihoo.appstore
p33
(dp34
g10
F0.0030946510340663213
ssVcom.android.packageinstaller
p35
(dp36
g10
F0.00060383434811050172
ssVcom.adobe.reader
p37
(dp38
g10
F0.025662959794696322
ssVcom.android.gallery3d
p39
(dp40
g10
F0.0080511246414733551
ssVcom.dajie.official
p41
(dp42
g10
F0.00088059175766114824
ssVcom.taobao.taobao
p43
(dp44
g10
F0.02956272329290998
ssVcom.huawei.hidisk
p45
(dp46
g10
F0.001710863986313088
ssVcom.nowcoder.app.florida
p47
(dp48
g10
F0.0255371609721733
ssVcom.android.systemui
p49
(dp50
g10
F0.00042771599657827201
ssVcom.tencent.mtt
p51
(dp52
g10
F0.082121471343028232
ssVcom.tencent.mm
p53
(dp54
g10
F0.28319830926382528
ssVcom.android.settings
p55
(dp56
g10
F0.0048558345493886178
ssVcom.baidu.searchbox_huawei
p57
(dp58
g10
F0.0022895385699189855
ssVcom.tencent.androidqqmail
p59
(dp60
g10
F0.00042771599657827201
ssVorg.cocos2dx.FishingJoy2.Classic.qihu
p61
(dp62
g10
F0.0055603079555175362
ssVcom.huawei.android.launcher
p63
(dp64
g10
F0.080335128063201325
ssVcn.wps.moffice_i18n
p65
(dp66
g10
F0.014617823177175061
ssVcom.tencent.qqlive
p67
(dp68
g10
F0.076435364564987673
ssVorg.cocos2d.fishingjoy3.qihu
p69
(dp70
g10
F0.054370251094449755
ssVcom.huawei.hwvplayer
p71
(dp72
g10
F0.00055351481910129326
ssVcom.android.calendar
p73
(dp74
g10
F0.00027675740955064663
ssVcom.tencent.mobileqq
p75
(dp76
g10
F0.014617823177175061
ssVcom.qihoo360.mobilesafe
p77
(dp78
g10
F0.0024153373924420069
ssVcom.letv.android.client
p79
(dp80
g10
F0.0042268404367735114
ssVorg.cocos2dx.FishingJoy2
p81
(dp82
g10
F0.012756000603834349
ssVcom.chaozh.iReaderFree15
p83
(dp84
g10
F0.00015095858702762543
ssVcom.huawei.appmarket
p85
(dp86
g10
F0.0064408997131786844
ssVcom.android.calculator2
p87
(dp88
g10
F0.0044784380818195541
sssS'graph'
p89
(dp90
sS'succ'
p91
(dp92
g8
(dp93
Vcom.tencent.mtt
p94
(dp95
g10
F1.3
ssVcom.huawei.android.launcher
p96
(dp97
g10
I1
ssVcom.android.contacts
p98
(dp99
g10
F0.69999999999999996
sssg11
(dp100
Vcom.huawei.android.launcher
p101
(dp102
g10
F2.2999999999999998
ssg39
(dp103
g10
F0.90000000000000002
ssVcom.tencent.mm
p104
(dp105
g10
F1.7
sssg13
(dp106
Vcom.android.deskclock
p107
(dp108
g10
F0.40000000000000002
ssVcom.huawei.android.launcher
p109
(dp110
g10
F3.4000000000000004
ssg69
(dp111
g10
F0.90000000000000002
ssVcom.tencent.qqlive
p112
(dp113
g10
F0.90000000000000002
sssg15
(dp114
Vcom.tencent.mtt
p115
(dp116
g10
F0.69999999999999996
ssVcom.huawei.android.launcher
p117
(dp118
g10
F1.3
ssVcom.android.contacts
p119
(dp120
g10
I1
sssg17
(dp121
Vcom.xiaomi.hm.health
p122
(dp123
g10
F0.69999999999999996
ssVcom.huawei.android.launcher
p124
(dp125
g10
F1.3
ssVcom.android.systemui
p126
(dp127
g10
I1
sssg19
(dp128
Vcom.tencent.mm
p129
(dp130
g10
F0.90000000000000002
ssVcom.huawei.android.launcher
p131
(dp132
g10
F2.7000000000000002
ssVcom.tencent.mobileqq
p133
(dp134
g10
F0.40000000000000002
sssg21
(dp135
Vcom.tencent.mm
p136
(dp137
g10
F0.69999999999999996
ssg51
(dp138
g10
F2.2000000000000002
ssVcom.huawei.android.launcher
p139
(dp140
g10
I4
ssVcom.xiaomi.hm.health
p141
(dp142
g10
F0.90000000000000002
sssg23
(dp143
Vcom.tencent.mobileqq
p144
(dp145
g10
F3.1000000000000001
ssVcom.qihoo360.mobilesafe
p146
(dp147
g10
F0.40000000000000002
ssg79
(dp148
g10
F0.90000000000000002
ssg43
(dp149
g10
F1.3
ssg21
(dp150
g10
F0.40000000000000002
ssVcom.huawei.android.launcher
p151
(dp152
g10
F15.899999999999999
ssVcn.wps.moffice_i18n
p153
(dp154
g10
F0.40000000000000002
ssVcom.huawei.android.internal.app
p155
(dp156
g10
F0.90000000000000002
ssVcom.qiyi.video
p157
(dp158
g10
F0.90000000000000002
ssg53
(dp159
g10
F3.7999999999999998
sssg25
(dp160
g73
(dp161
g10
F0.90000000000000002
ssVcom.android.settings
p162
(dp163
g10
I1
ssVcn.wps.moffice_i18n
p164
(dp165
g10
F0.69999999999999996
ssVcom.android.deskclock
p166
(dp167
g10
F0.90000000000000002
ssVcom.huawei.android.launcher
p168
(dp169
g10
F13.1
ssVcom.android.systemui
p170
(dp171
g10
F0.69999999999999996
ssVcom.huawei.android.internal.app
p172
(dp173
g10
F0.90000000000000002
ssVcom.tencent.mm
p174
(dp175
g10
F10.800000000000001
ssVcom.tencent.mobileqq
p176
(dp177
g10
F3
sssg27
(dp178
g112
(dp179
g10
F0.40000000000000002
ssg57
(dp180
g10
F0.40000000000000002
ssg13
(dp181
g10
F0.90000000000000002
ssVcom.tencent.mobileqq
p182
(dp183
g10
F0.40000000000000002
ssg35
(dp184
g10
I3
ssg87
(dp185
g10
F0.69999999999999996
ssg19
(dp186
g10
F0.69999999999999996
ssg61
(dp187
g10
F0.90000000000000002
ssg23
(dp188
g10
F3.9999999999999996
ssVcom.huawei.android.launcher
p189
(dp190
g10
F34.499999999999979
ssg65
(dp191
g10
F26.199999999999996
ssVcom.huawei.camera
p192
(dp193
g10
F0.69999999999999996
ssVcom.qihoo.appstore
p194
(dp195
g10
F1.3999999999999999
ssVcom.tencent.mm
p196
(dp197
g10
F4.7000000000000002
ssVcom.android.contacts
p198
(dp199
g10
F2.7000000000000002
ssg25
(dp200
g10
F0.69999999999999996
sssg29
(dp201
g15
(dp202
g10
I1
ssVcom.xiaomi.hm.health
p203
(dp204
g10
F1.3
ssVcom.nowcoder.app.florida
p205
(dp206
g10
F0.40000000000000002
ssVcom.huawei.android.launcher
p207
(dp208
g10
F30.999999999999989
ssVcom.tencent.mobileqq
p209
(dp210
g10
F1.1000000000000001
ssVcom.android.settings
p211
(dp212
g10
F1.3999999999999999
ssVcom.huawei.android.internal.app
p213
(dp214
g10
F3.1000000000000001
ssVcom.tencent.mtt
p215
(dp216
g10
F4.5
ssVcom.tencent.mm
p217
(dp218
g10
F8.6000000000000014
ssg31
(dp219
g10
F1.3
ssVcom.android.calculator2
p220
(dp221
g10
F0.90000000000000002
sssg31
(dp222
Vcom.huawei.android.launcher
p223
(dp224
g10
F2.3999999999999999
ssVcom.tencent.mobileqq
p225
(dp226
g10
I1
ssVcom.taobao.taobao
p227
(dp228
g10
F1.3
sssg33
(dp229
g35
(dp230
g10
F3.5
ssVcom.qihoo360.mobilesafe
p231
(dp232
g10
F1.3
ssg61
(dp233
g10
F0.69999999999999996
ssVcom.huawei.android.launcher
p234
(dp235
g10
F2.3999999999999999
ssVcom.tencent.qqlive
p236
(dp237
g10
F0.90000000000000002
ssVcom.huawei.android.internal.app
p238
(dp239
g10
F2.3999999999999999
ssVcom.tencent.mm
p240
(dp241
g10
I1
sssg35
(dp242
g13
(dp243
g10
I1
ssg231
(dp244
g10
I1
ssg61
(dp245
g10
I1
ssg234
(dp246
g10
F2.2999999999999998
ssg112
(dp247
g10
F0.69999999999999996
ssVcom.huawei.android.internal.app
p248
(dp249
g10
F0.69999999999999996
ssg240
(dp250
g10
F0.69999999999999996
ssg194
(dp251
g10
F2.2000000000000002
sssg37
(dp252
Vcom.tencent.mm
p253
(dp254
g10
F3.1000000000000001
ssVcom.tencent.mtt
p255
(dp256
g10
F0.90000000000000002
ssVcom.huawei.android.launcher
p257
(dp258
g10
F8.1999999999999993
ssg49
(dp259
g10
F0.90000000000000002
sssg39
(dp260
Vcom.huawei.hidisk
p261
(dp262
g10
I1
ssg71
(dp263
g10
I1
ssVcom.tencent.mm
p264
(dp265
g10
F0.69999999999999996
ssVcom.huawei.android.launcher
p266
(dp267
g10
F1.3
sssg41
(dp268
Vcom.android.deskclock
p269
(dp270
g10
F0.90000000000000002
ssVcom.tencent.mtt
p271
(dp272
g10
F1.3
ssVcom.huawei.android.launcher
p273
(dp274
g10
F2.7000000000000002
sssg43
(dp275
Vcom.android.settings
p276
(dp277
g10
F0.90000000000000002
ssVcom.huawei.android.launcher
p278
(dp279
g10
F7.5000000000000009
ssVcom.tencent.mm
p280
(dp281
g10
F13.499999999999998
ssVcom.android.contacts
p282
(dp283
g10
F0.90000000000000002
ssg31
(dp284
g10
F0.40000000000000002
ssVcom.tencent.mobileqq
p285
(dp286
g10
F0.69999999999999996
sssg45
(dp287
g266
(dp288
g10
F2.3999999999999999
ssg264
(dp289
g10
F1.3
ssVcom.android.gallery3d
p290
(dp291
g10
I1
ssVcom.qihoo.appstore
p292
(dp293
g10
F0.40000000000000002
sssg47
(dp294
Vcom.android.settings
p295
(dp296
g10
I1
ssVcom.adobe.reader
p297
(dp298
g10
F1.3
ssg41
(dp299
g10
F0.90000000000000002
ssVcom.huawei.android.launcher
p300
(dp301
g10
F6.2999999999999998
ssg271
(dp302
g10
F1.5
ssVcom.tencent.mm
p303
(dp304
g10
F3.7000000000000002
ssVcom.android.contacts
p305
(dp306
g10
F0.69999999999999996
ssVcom.tencent.mobileqq
p307
(dp308
g10
F0.40000000000000002
sssg49
(dp309
Vcom.tencent.mobileqq
p310
(dp311
g10
F0.69999999999999996
ssVcom.adobe.reader
p312
(dp313
g10
I1
ssg79
(dp314
g10
F0.40000000000000002
ssVorg.cocos2dx.FishingJoy2
p315
(dp316
g10
I1
ssg166
(dp317
g10
F0.40000000000000002
ssg122
(dp318
g10
F0.90000000000000002
ssVcom.huawei.android.launcher
p319
(dp320
g10
F8.7000000000000011
ssVcom.hunantv.imgo.activity
p321
(dp322
g10
F0.90000000000000002
ssg253
(dp323
g10
F3.0999999999999996
sssg51
(dp324
g8
(dp325
g10
F0.40000000000000002
ssg13
(dp326
g10
F0.69999999999999996
ssg307
(dp327
g10
I1
ssVcom.android.packageinstaller
p328
(dp329
g10
F0.90000000000000002
ssVcom.dajie.official
p330
(dp331
g10
F1.3
ssg269
(dp332
g10
F0.40000000000000002
ssVcom.nowcoder.app.florida
p333
(dp334
g10
F0.69999999999999996
ssg109
(dp335
g10
F16.999999999999996
ssg15
(dp336
g10
F0.69999999999999996
ssVcom.huawei.android.internal.app
p337
(dp338
g10
I1
ssg136
(dp339
g10
F8.0000000000000018
ssVcom.android.contacts
p340
(dp341
g10
F4.7000000000000002
ssg211
(dp342
g10
F0.90000000000000002
sssg53
(dp343
g11
(dp344
g10
F1.7
ssVcn.wps.moffice_i18n
p345
(dp346
g10
F0.40000000000000002
ssg21
(dp347
g10
F0.90000000000000002
ssVcom.xiaomi.hm.health
p348
(dp349
g10
F0.90000000000000002
ssVcom.hunantv.imgo.activity
p350
(dp351
g10
F12.700000000000001
ssg238
(dp352
g10
F1.6000000000000001
ssg29
(dp353
g10
F10.400000000000002
ssg292
(dp354
g10
F2.2999999999999998
ssg35
(dp355
g10
F1.3
ssVcom.adobe.reader
p356
(dp357
g10
F2.5
ssVcom.taobao.taobao
p358
(dp359
g10
F11.799999999999999
ssVcom.huawei.hidisk
p360
(dp361
g10
F0.40000000000000002
ssVcom.nowcoder.app.florida
p362
(dp363
g10
F5.2999999999999998
ssVcom.android.systemui
p364
(dp365
g10
F2.2000000000000002
ssg51
(dp366
g10
F3.7999999999999998
ssg144
(dp367
g10
F11.500000000000002
ssg59
(dp368
g10
F0.90000000000000002
ssVcom.huawei.android.launcher
p369
(dp370
g10
F64.500000000000014
ssVcom.tencent.qqlive
p371
(dp372
g10
F6.1000000000000005
ssg162
(dp373
g10
F0.69999999999999996
ssg231
(dp374
g10
F0.69999999999999996
ssg315
(dp375
g10
F0.69999999999999996
ssg83
(dp376
g10
F0.40000000000000002
ssg85
(dp377
g10
F0.90000000000000002
sssg55
(dp378
g8
(dp379
g10
F0.90000000000000002
ssg71
(dp380
g10
F0.69999999999999996
ssVcom.tencent.mm
p381
(dp382
g10
F1.7000000000000002
ssVcom.android.gallery3d
p383
(dp384
g10
F0.90000000000000002
ssVcom.taobao.taobao
p385
(dp386
g10
I1
ssVcom.huawei.android.launcher
p387
(dp388
g10
F7.7000000000000011
ssVcom.tencent.mtt
p389
(dp390
g10
F1.7000000000000002
ssg307
(dp391
g10
F0.69999999999999996
ssVcom.android.contacts
p392
(dp393
g10
F2.3999999999999999
sssg57
(dp394
sg59
(dp395
Vcom.xiaomi.hm.health
p396
(dp397
g10
F1.3
ssVcom.huawei.android.launcher
p398
(dp399
g10
F1.7
sssg61
(dp400
Vcom.android.packageinstaller
p401
(dp402
g10
F0.40000000000000002
ssg240
(dp403
g10
F0.90000000000000002
ssg194
(dp404
g10
F1.7
sssg63
(dp405
g8
(dp406
g10
F1.7
ssg11
(dp407
g10
F2.7000000000000002
ssVorg.cocos2dx.GoldenFishGame
p408
(dp409
g10
I1
ssg15
(dp410
g10
F1.3
ssg19
(dp411
g10
F3.5
ssg21
(dp412
g10
F6.7999999999999998
ssg23
(dp413
g10
F25.299999999999994
ssg25
(dp414
g10
F15.399999999999999
ssg27
(dp415
g10
F37.799999999999997
ssg29
(dp416
g10
F32.699999999999989
ssg31
(dp417
g10
F2.3999999999999999
ssg33
(dp418
g10
F4
ssg35
(dp419
g10
F0.69999999999999996
ssg37
(dp420
g10
F7.4000000000000004
ssg39
(dp421
g10
F4.7000000000000002
ssg41
(dp422
g10
F3.7999999999999998
ssg43
(dp423
g10
F9.0999999999999996
ssg45
(dp424
g10
F3.4000000000000004
ssg47
(dp425
g10
F7.4000000000000004
ssg49
(dp426
g10
F8.1000000000000014
ssg51
(dp427
g10
F19.799999999999997
ssg144
(dp428
g10
F24.29999999999999
ssg55
(dp429
g10
F9.4000000000000004
ssg57
(dp430
g10
F1.7
ssg59
(dp431
g10
F3.1000000000000001
ssg61
(dp432
g10
F0.40000000000000002
ssg65
(dp433
g10
F32.899999999999984
ssg67
(dp434
g10
F8.5
ssg69
(dp435
g10
F1.7
ssg71
(dp436
g10
F1.3
ssg73
(dp437
g10
F1.7
ssg53
(dp438
g10
F77.900000000000034
ssg77
(dp439
g10
F2.7000000000000002
ssg79
(dp440
g10
F1.7
ssg315
(dp441
g10
F1.3
ssg83
(dp442
g10
F1.7
ssg85
(dp443
g10
F1.7
ssg87
(dp444
g10
F3.0999999999999996
sssg65
(dp445
g236
(dp446
g10
F0.80000000000000004
ssg57
(dp447
g10
F0.90000000000000002
ssVcom.tencent.mobileqq
p448
(dp449
g10
F1.7000000000000002
ssVcom.android.settings
p450
(dp451
g10
F0.40000000000000002
ssg39
(dp452
g10
F0.40000000000000002
ssg87
(dp453
g10
F0.90000000000000002
ssg19
(dp454
g10
F0.90000000000000002
ssg23
(dp455
g10
F5.4000000000000004
ssg189
(dp456
g10
F36.200000000000003
ssg43
(dp457
g10
F0.40000000000000002
ssg192
(dp458
g10
F0.90000000000000002
ssg85
(dp459
g10
F0.40000000000000002
ssVcom.huawei.android.internal.app
p460
(dp461
g10
F3.6000000000000001
ssVcom.qihoo.appstore
p462
(dp463
g10
F0.90000000000000002
ssg53
(dp464
g10
F7.1000000000000014
ssVcom.android.contacts
p465
(dp466
g10
F0.40000000000000002
ssg25
(dp467
g10
F0.90000000000000002
sssg67
(dp468
g73
(dp469
g10
F0.40000000000000002
ssVcom.huawei.android.launcher
p470
(dp471
g10
F6.7000000000000002
ssVcom.tencent.mm
p472
(dp473
g10
F5.8000000000000007
ssg350
(dp474
g10
F1.6000000000000001
ssVcom.tencent.mobileqq
p475
(dp476
g10
F1.7
sssg69
(dp477
g107
(dp478
g10
F0.90000000000000002
ssg141
(dp479
g10
F0.40000000000000002
ssVcom.huawei.android.launcher
p480
(dp481
g10
F1.7
sssg71
(dp482
sg73
(dp483
Vcom.huawei.android.launcher
p484
(dp485
g10
F1.3
ssg321
(dp486
g10
F0.69999999999999996
ssg170
(dp487
g10
I1
sssg75
(dp488
g83
(dp489
g10
F0.90000000000000002
ssg295
(dp490
g10
F2
ssg37
(dp491
g10
F0.90000000000000002
ssVcom.hunantv.imgo.activity
p492
(dp493
g10
F2.3999999999999999
ssg65
(dp494
g10
F0.69999999999999996
ssg227
(dp495
g10
F0.69999999999999996
ssg362
(dp496
g10
F0.90000000000000002
ssg63
(dp497
g10
F22.999999999999996
ssg77
(dp498
g10
F1.8
ssVcom.tencent.qqlive
p499
(dp500
g10
F1.8999999999999999
ssg49
(dp501
g10
F0.40000000000000002
ssg27
(dp502
g10
F0.90000000000000002
ssVcom.tencent.mtt
p503
(dp504
g10
F1.7
ssVcom.tencent.mm
p505
(dp506
g10
F7.3000000000000007
ssVcom.android.contacts
p507
(dp508
g10
F1.1000000000000001
ssVcom.eg.android.AlipayGphone
p509
(dp510
g10
I1
ssg33
(dp511
g10
F0.69999999999999996
sssg77
(dp512
g248
(dp513
g10
F0.90000000000000002
ssVcom.android.packageinstaller
p514
(dp515
g10
F0.69999999999999996
ssg234
(dp516
g10
F0.40000000000000002
ssg33
(dp517
g10
I2
sssg79
(dp518
sg81
(dp519
Vcom.tencent.mm
p520
(dp521
g10
F1.8
ssVcom.huawei.android.launcher
p522
(dp523
g10
F3.4000000000000004
ssg364
(dp524
g10
F0.80000000000000004
sssg83
(dp525
Vcom.tencent.mm
p526
(dp527
g10
F0.90000000000000002
ssVcom.huawei.android.launcher
p528
(dp529
g10
F1.7
ssVcom.taobao.taobao
p530
(dp531
g10
F0.40000000000000002
sssg85
(dp532
g360
(dp533
g10
F1.3
ssg290
(dp534
g10
F0.69999999999999996
ssVcom.huawei.android.launcher
p535
(dp536
g10
I1
sssg87
(dp537
ssS'edge'
p538
g92
sS'pred'
p539
(dp540
g8
(dp541
g211
g379
sg115
g325
sVcom.huawei.android.launcher
p542
g406
ssg11
(dp543
Vcom.huawei.android.internal.app
p544
g193
sVcom.tencent.mm
p545
g344
sVcom.huawei.android.launcher
p546
g407
sVcn.wps.moffice_i18n
p547
g458
ssg13
(dp548
g337
g181
sVcom.tencent.mtt
p549
g326
sVcom.huawei.android.launcher
p550
g409
sg328
g243
ssg15
(dp551
Vcom.tencent.mtt
p552
g336
sVcom.huawei.android.launcher
p553
g410
sVcom.android.contacts
p554
g202
ssg17
(dp555
sg19
(dp556
Vcom.huawei.android.internal.app
p557
g186
sVcom.xiaomi.hm.health
p558
g158
sVcom.huawei.android.launcher
p559
g411
sVcn.wps.moffice_i18n
p560
g454
ssg21
(dp561
g69
g478
sg408
g108
sg330
g270
sg23
g150
sg151
g412
sg321
g167
sg170
g317
sVcom.tencent.mtt
p562
g332
sg53
g347
ssg23
(dp563
g69
g479
sVcom.tencent.androidqqmail
p564
g397
sVcn.wps.moffice_i18n
p565
g455
sg107
g142
sg17
g123
sVcom.huawei.android.launcher
p566
g413
sg126
g318
sVcom.huawei.android.internal.app
p567
g188
sVcom.tencent.mm
p568
g349
sg198
g204
ssg25
(dp569
g73
g486
sg209
g493
sVcn.wps.moffice_i18n
p570
g467
sVcom.huawei.android.launcher
p571
g414
sVcom.tencent.qqlive
p572
g474
sg170
g322
sVcom.huawei.android.internal.app
p573
g200
sVcom.tencent.mm
p574
g351
ssg27
(dp575
Vcom.tencent.mobileqq
p576
g502
sg401
g249
sVcom.hunantv.imgo.activity
p577
g173
sg65
g461
sg203
g156
sVcom.huawei.android.launcher
p578
g415
sg231
g513
sg549
g338
sg264
g352
sVcom.android.contacts
p579
g214
sg292
g239
ssg29
(dp580
g8
g99
sg15
g120
sVcn.wps.moffice_i18n
p581
g466
sg333
g306
sVcom.huawei.android.launcher
p582
g416
sg385
g283
sg450
g393
sg213
g199
sg271
g341
sVcom.tencent.mm
p583
g353
sVcom.tencent.mobileqq
p584
g508
ssg31
(dp585
g225
g510
sVcom.huawei.android.launcher
p586
g417
sg282
g219
sg385
g284
ssg33
(dp587
g75
g511
sg35
g251
sg77
g517
sg61
g404
sg261
g293
sg63
g418
sVcn.wps.moffice_i18n
p588
g463
sg238
g195
sg264
g354
ssg35
(dp589
g231
g515
sg61
g402
sVcom.huawei.android.launcher
p590
g419
sg238
g184
sg549
g329
sg264
g355
sg292
g230
ssg37
(dp591
Vcom.tencent.mobileqq
p592
g491
sVcom.nowcoder.app.florida
p593
g298
sg253
g357
sVcom.huawei.android.launcher
p594
g420
sg49
g313
ssg39
(dp595
g55
g384
sg547
g452
sg360
g291
sVcom.huawei.android.launcher
p596
g421
sg192
g103
sg85
g534
ssg41
(dp597
g47
g299
sVcom.huawei.android.launcher
p598
g422
sg215
g331
ssg43
(dp599
g276
g386
sVcn.wps.moffice_i18n
p600
g457
sVcom.xiaomi.hm.health
p601
g149
sVcom.huawei.android.launcher
p602
g423
sg83
g531
sg280
g359
sg31
g228
sg225
g495
ssg45
(dp603
Vcom.tencent.mm
p604
g361
sg290
g262
sVcom.huawei.android.launcher
p605
g424
sg85
g533
ssg47
(dp606
Vcom.tencent.mm
p607
g363
sVcom.tencent.mtt
p608
g334
sg598
g425
sVcom.android.contacts
p609
g206
sVcom.tencent.mobileqq
p610
g496
ssg49
(dp611
g73
g487
sg520
g365
sg37
g259
sg81
g524
sg17
g127
sVcom.huawei.android.launcher
p612
g426
sVcom.hunantv.imgo.activity
p613
g171
sg592
g501
ssg51
(dp614
g8
g95
sg295
g390
sg297
g256
sg41
g272
sg21
g138
sg47
g302
sg369
g427
sg15
g116
sg53
g366
sg340
g216
sg307
g504
ssg53
(dp615
g11
g105
sg565
g464
sg21
g137
sg23
g159
sg350
g175
sVcom.huawei.android.internal.app
p616
g197
sg29
g218
sg194
g241
sg35
g250
sg312
g254
sg290
g265
sg43
g281
sg360
g289
sg333
g304
sg49
g323
sg51
g339
sg144
g506
sg61
g403
sVcom.huawei.android.launcher
p617
g438
sg157
g130
sg67
g473
sg450
g382
sg81
g521
sg83
g527
ssg55
(dp618
Vcom.tencent.mm
p619
g373
sg345
g451
sVcom.taobao.taobao
p620
g277
sg362
g296
sVcom.huawei.android.launcher
p621
g429
sVcom.hunantv.imgo.activity
p622
g163
sg115
g342
sg610
g490
sg119
g212
ssg57
(dp623
Vcom.huawei.android.internal.app
p624
g180
sVcom.huawei.android.launcher
p625
g430
sVcn.wps.moffice_i18n
p626
g447
ssg59
(dp627
Vcom.tencent.mm
p628
g368
sVcom.huawei.android.launcher
p629
g431
ssg61
(dp630
g238
g187
sg35
g245
sg590
g432
sg292
g233
ssg63
(dp631
g8
g97
sg11
g102
sg13
g110
sg15
g118
sg17
g125
sg65
g456
sg21
g140
sg23
g152
sg43
g279
sg27
g190
sg29
g208
sg31
g224
sVcom.qihoo.appstore
p632
g235
sg514
g246
sg37
g258
sg290
g267
sg41
g274
sg231
g516
sg360
g288
sg47
g301
sg49
g320
sg549
g335
sg75
g497
sg55
g388
sg69
g481
sg564
g399
sg19
g132
sg371
g471
sg73
g485
sg53
g370
sg81
g523
sg83
g529
sg85
g536
sVcom.hunantv.imgo.activity
p633
g169
ssg65
(dp634
g576
g494
sg203
g154
sg578
g433
sg577
g165
sg27
g191
sVcom.tencent.mm
p635
g346
ssg67
(dp636
g13
g113
sg475
g500
sg328
g247
sg588
g446
sVcom.huawei.android.launcher
p637
g434
sg337
g179
sg472
g372
sg462
g237
ssg69
(dp638
g550
g435
sg408
g111
ssg71
(dp639
g55
g380
sg383
g263
sg621
g436
ssg73
(dp640
Vcom.huawei.android.launcher
p641
g437
sg613
g161
sVcom.tencent.qqlive
p642
g469
ssg75
(dp643
g295
g391
sg157
g134
sg153
g449
sVcom.taobao.taobao
p644
g286
sg348
g145
sg362
g308
sVcom.huawei.android.launcher
p645
g428
sVcom.hunantv.imgo.activity
p646
g177
sVcom.tencent.qqlive
p647
g476
sVcom.android.systemui
p648
g311
sVcom.huawei.android.internal.app
p649
g183
sg389
g327
sg568
g367
sVcom.android.contacts
p650
g210
sg31
g226
ssg77
(dp651
g75
g498
sg401
g244
sVcom.xiaomi.hm.health
p652
g147
sg63
g439
sg240
g374
sg194
g232
ssg79
(dp653
g122
g148
sg124
g440
sg126
g314
ssg81
(dp654
g520
g375
sg522
g441
sg364
g316
ssg83
(dp655
Vcom.huawei.android.launcher
p656
g442
sVcom.tencent.mm
p657
g376
sg310
g489
ssg85
(dp658
g604
g377
sVcom.huawei.android.launcher
p659
g443
sVcn.wps.moffice_i18n
p660
g459
ssg87
(dp661
Vcom.huawei.android.internal.app
p662
g185
sVcom.huawei.android.launcher
p663
g444
sVcom.android.contacts
p664
g221
sVcn.wps.moffice_i18n
p665
g453
sssS'adj'
p666
g92
sb.