ccopy_reg
_reconstructor
p1
(cnetworkx.classes.digraph
DiGraph
p2
c__builtin__
object
p3
NtRp4
(dp5
S'node'
p6
(dp7
Vcom.android.browser
p8
(dp9
S'weight'
p10
F0.00048098830438965114
ssVcom.miui.gallery
p11
(dp12
g10
F0.00022783656523720319
ssVcom.android.calendar
p13
(dp14
g10
F2.5315173915244799e-05
ssVcom.youku.phone
p15
(dp16
g10
F0.0043592729482051541
ssVcom.ea.game.pvz2_row
p17
(dp18
g10
F0.0039390410612120908
ssVcom.android.updater
p19
(dp20
g10
F0.0070047086223482356
ssVcom.miui.weather2
p21
(dp22
g10
F1.26575869576224e-05
ssVcom.qiyi.video
p23
(dp24
g10
F0.012819604070679965
ssVcom.evernote
p25
(dp26
g10
F9.3666143486405748e-05
ssVcom.xiaomi.smarthome
p27
(dp28
g10
F1.26575869576224e-05
ssVcom.UCMobile
p29
(dp30
g10
F0.0092172548225406305
ssVcom.duowan.mobile
p31
(dp32
g10
F0.00095185053921320443
ssVcom.taobao.taobao
p33
(dp34
g10
F0.012384183079337755
ssVcom.tencent.android.qqdownloader
p35
(dp36
g10
F0.00023543111741177662
ssVcn.kidstone.cartoon
p37
(dp38
g10
F0.015490354918738292
ssVcom.sina.weibo
p39
(dp40
g10
F0.0036605741481443976
ssVcom.eg.android.AlipayGphone
p41
(dp42
g10
F0.001503721330565541
ssVcom.anzogame.game
p43
(dp44
g10
F0.020006581945217965
ssVcom.gameloft.android.ANMP.GloftA8HM
p45
(dp46
g10
F0.0085337451268290218
ssVcn.wps.moffice_eng
p47
(dp48
g10
F0.00015442256088299327
ssVcom.ximalaya.ting.android
p49
(dp50
g10
F0.0075768315528327683
ssVcom.alibaba.mobileim
p51
(dp52
g10
F0.0047997569743304137
ssVcom.android.packageinstaller
p53
(dp54
g10
F0.00066832059136246271
ssVcom.sankuai.meituan
p55
(dp56
g10
F0.00057718596526758138
ssVcom.tencent.token
p57
(dp58
g10
F0.015406814844817984
ssVcom.android.incallui
p59
(dp60
g10
F0.025783504632676826
ssVme.ele
p61
(dp62
g10
F0.0018302870740721988
ssVcom.xiaomi.shop
p63
(dp64
g10
F3.2909726089818234e-05
ssVcom.android.phone
p65
(dp66
g10
F1.26575869576224e-05
ssVcom.miui.home
p67
(dp68
g10
F0.29297250772112804
ssVcom.tencent.mm
p69
(dp70
g10
F0.035570350868310466
ssVcom.miui.antispam
p71
(dp72
g10
F4.0504278264391676e-05
ssVtv.danmaku.bili
p73
(dp74
g10
F0.0024327882132550251
ssVcom.android.calculator2
p75
(dp76
g10
F0.0059110931092096605
ssVcom.tencent.news
p77
(dp78
g10
F0.054597235583008455
ssVcom.netease.cloudmusic
p79
(dp80
g10
F0.059488127183433749
ssVcom.baidu.input
p81
(dp82
g10
F5.0630347830489595e-06
ssVcom.cootek.smartdialer
p83
(dp84
g10
F0.00094425598703863091
ssVcom.android.fileexplorer
p85
(dp86
g10
F0.00011644980001012607
ssVcom.example.app_log_dhao
p87
(dp88
g10
F3.5441243481342715e-05
ssVcom.miui.yellowpage
p89
(dp90
g10
F2.0252139132195838e-05
ssVcom.chinamworld.main
p91
(dp92
g10
F8.8603108703356787e-05
ssVcom.android.email
p93
(dp94
g10
F0.045043288947395066
ssVcom.duokan.reader
p95
(dp96
g10
F0.002769480026327781
ssVcom.tencent.mobileqq
p97
(dp98
g10
F0.16419168649688623
ssVcom.miui.player
p99
(dp100
g10
F7.5945521745734392e-06
ssVcom.android.deskclock
p101
(dp102
g10
F0.064267632018631962
ssVcom.sankuai.meituan.takeoutnew
p103
(dp104
g10
F0.0013366411827249254
ssVcom.miui.notes
p105
(dp106
g10
F6.3287934788111994e-05
ssVcom.netease.mail
p107
(dp108
g10
F0.0010657688218318061
ssVcom.tuan800.tao800
p109
(dp110
g10
F0.047969723051997371
ssVcom.sinovatech.unicom.ui
p111
(dp112
g10
F0.0051465748569692674
ssVcom.android.settings
p113
(dp114
g10
F0.023882335071641943
ssVcom.tencent.reading
p115
(dp116
g10
F0.020649587362665183
ssVcom.android.mms
p117
(dp118
g10
F0.0085438711963951187
ssVcom.miui.video
p119
(dp120
g10
F0.00034175484785580476
ssVcom.miui.securitycenter
p121
(dp122
g10
F5.5693382613538553e-05
ssVcom.qzone
p123
(dp124
g10
F4.8098830438965118e-05
ssVde.hs_osnabrueck.asta.sensorlog
p125
(dp126
g10
F4.8098830438965118e-05
ssVcom.android.camera
p127
(dp128
g10
F6.3287934788111994e-05
ssVcom.miui.mipub
p129
(dp130
g10
F7.5945521745734392e-06
ssVcom.xiaoji.emulator
p131
(dp132
g10
F0.0044276239177763153
ssVcom.xiaomi.account
p133
(dp134
g10
F7.5945521745734392e-06
ssVcom.miui.networkassistant
p135
(dp136
g10
F3.7972760872867195e-05
sssS'graph'
p137
(dp138
sS'succ'
p139
(dp140
g8
(dp141
Vcom.miui.home
p142
(dp143
g10
F1.7
ssVcom.tencent.mobileqq
p144
(dp145
g10
F0.90000000000000002
sssg11
(dp146
Vcom.android.packageinstaller
p147
(dp148
g10
I1
ssVcom.miui.video
p149
(dp150
g10
I1
ssVcom.ximalaya.ting.android
p151
(dp152
g10
F1.7
ssVcom.miui.home
p153
(dp154
g10
F2.2999999999999998
ssVcom.tencent.mobileqq
p155
(dp156
g10
F1.7
ssg125
(dp157
g10
F0.69999999999999996
sssg13
(dp158
Vcom.miui.home
p159
(dp160
g10
I1
sssg15
(dp161
Vcn.kidstone.cartoon
p162
(dp163
g10
F0.40000000000000002
ssVcom.tencent.mobileqq
p164
(dp165
g10
F2.2999999999999998
ssg53
(dp166
g10
F1.7
ssg23
(dp167
g10
F0.40000000000000002
ssVcom.UCMobile
p168
(dp169
g10
F0.90000000000000002
ssg31
(dp170
g10
F0.90000000000000002
ssVcom.android.settings
p171
(dp172
g10
F1.3
ssVcom.miui.home
p173
(dp174
g10
F6.2999999999999998
ssVcom.tencent.mm
p175
(dp176
g10
F0.69999999999999996
sssg17
(dp177
Vcom.android.browser
p178
(dp179
g10
I1
ssVcom.miui.home
p180
(dp181
g10
F2.7000000000000002
ssVcom.tencent.mobileqq
p182
(dp183
g10
F0.90000000000000002
ssVcom.android.settings
p184
(dp185
g10
F0.40000000000000002
sssg19
(dp186
Vcom.tencent.reading
p187
(dp188
g10
I1
ssVcom.android.settings
p189
(dp190
g10
F0.90000000000000002
ssVcom.android.mms
p191
(dp192
g10
F0.40000000000000002
ssg75
(dp193
g10
F0.90000000000000002
ssVcom.miui.home
p194
(dp195
g10
F6.1000000000000005
ssVcom.tencent.mobileqq
p196
(dp197
g10
F1.7000000000000002
ssVcom.sankuai.meituan.takeoutnew
p198
(dp199
g10
F0.90000000000000002
sssg21
(dp200
sg23
(dp201
g105
(dp202
g10
F0.40000000000000002
ssVcom.android.settings
p203
(dp204
g10
F1.8999999999999999
ssVcom.taobao.taobao
p205
(dp206
g10
F3.1000000000000001
ssVcom.android.incallui
p207
(dp208
g10
F0.90000000000000002
ssVcom.miui.home
p209
(dp210
g10
F14.199999999999999
ssVcom.tencent.mobileqq
p211
(dp212
g10
F4.5
ssg133
(dp213
g10
I1
sssg25
(dp214
Vcom.miui.home
p215
(dp216
g10
I1
sssg27
(dp217
Vcom.miui.home
p218
(dp219
g10
F0.90000000000000002
ssVcom.taobao.taobao
p220
(dp221
g10
I1
sssg29
(dp222
Vcom.sinovatech.unicom.ui
p223
(dp224
g10
F0.90000000000000002
ssVcom.android.settings
p225
(dp226
g10
F1.8999999999999999
ssg53
(dp227
g10
I1
ssVcom.android.mms
p228
(dp229
g10
F0.80000000000000004
ssg23
(dp230
g10
F1.3
ssVcom.android.deskclock
p231
(dp232
g10
F0.90000000000000002
ssVme.ele
p233
(dp234
g10
F0.90000000000000002
ssVcom.miui.home
p235
(dp236
g10
F9.0999999999999996
ssVcom.tencent.mobileqq
p237
(dp238
g10
F1.8999999999999999
ssg133
(dp239
g10
F0.69999999999999996
sssg31
(dp240
Vcom.miui.home
p241
(dp242
g10
I1
ssVcn.kidstone.cartoon
p243
(dp244
g10
I1
sssg33
(dp245
g105
(dp246
g10
F0.90000000000000002
ssVcom.tuan800.tao800
p247
(dp248
g10
F0.90000000000000002
ssVcom.android.settings
p249
(dp250
g10
F0.90000000000000002
ssVcom.tencent.reading
p251
(dp252
g10
F0.40000000000000002
ssVcom.qiyi.video
p253
(dp254
g10
F0.80000000000000004
ssg27
(dp255
g10
I1
ssVcom.tencent.token
p256
(dp257
g10
F0.90000000000000002
ssVcom.miui.home
p258
(dp259
g10
F16.399999999999999
ssVcom.tencent.mobileqq
p260
(dp261
g10
F6.1000000000000005
sssg35
(dp262
g49
(dp263
g10
F1.7
ssVcom.android.packageinstaller
p264
(dp265
g10
F1.7
ssVcom.miui.home
p266
(dp267
g10
I1
ssVcom.miui.gallery
p268
(dp269
g10
F1.7000000000000002
sssg37
(dp270
Vcom.anzogame.game
p271
(dp272
g10
F0.90000000000000002
ssVcom.miui.home
p273
(dp274
g10
F12.200000000000001
ssg15
(dp275
g10
F0.69999999999999996
ssg115
(dp276
g10
F0.90000000000000002
ssVcom.android.packageinstaller
p277
(dp278
g10
F0.69999999999999996
ssVcom.duowan.mobile
p279
(dp280
g10
I1
ssVcom.xiaoji.emulator
p281
(dp282
g10
F0.90000000000000002
ssVcom.tencent.mobileqq
p283
(dp284
g10
F3.5
ssVcom.tencent.news
p285
(dp286
g10
F0.90000000000000002
sssg39
(dp287
g127
(dp288
g10
F0.69999999999999996
ssVcom.miui.home
p289
(dp290
g10
I1
ssVcom.tencent.mobileqq
p291
(dp292
g10
F0.90000000000000002
sssg41
(dp293
Vcom.sinovatech.unicom.ui
p294
(dp295
g10
I1
ssg91
(dp296
g10
F0.90000000000000002
ssVme.ele
p297
(dp298
g10
I1
ssVcom.miui.home
p299
(dp300
g10
F10.699999999999999
ssVcom.tencent.mobileqq
p301
(dp302
g10
F5.7000000000000002
sssg43
(dp303
g21
(dp304
g10
F0.40000000000000002
ssVcom.tencent.news
p305
(dp306
g10
F0.40000000000000002
ssVcom.tuan800.tao800
p307
(dp308
g10
F0.90000000000000002
ssVcom.tencent.reading
p309
(dp310
g10
F0.90000000000000002
ssg117
(dp311
g10
F1.7
ssVcom.tencent.token
p312
(dp313
g10
F0.90000000000000002
ssg101
(dp314
g10
I1
ssg59
(dp315
g10
F0.69999999999999996
ssVcom.miui.home
p316
(dp317
g10
F13.5
ssVcom.tencent.mobileqq
p318
(dp319
g10
F8.3000000000000007
sssg45
(dp320
Vcom.android.settings
p321
(dp322
g10
F0.69999999999999996
ssVcom.miui.home
p323
(dp324
g10
I4
ssVcom.tencent.mobileqq
p325
(dp326
g10
F0.90000000000000002
ssg131
(dp327
g10
F0.90000000000000002
sssg47
(dp328
Vcom.tencent.mm
p329
(dp330
g10
F0.90000000000000002
ssVme.ele
p331
(dp332
g10
F0.69999999999999996
ssVcom.miui.home
p333
(dp334
g10
F1.3999999999999999
ssVcom.tencent.mobileqq
p335
(dp336
g10
F0.90000000000000002
ssVcom.netease.mail
p337
(dp338
g10
I1
sssg49
(dp339
Vcom.miui.home
p340
(dp341
g10
F4.0999999999999996
ssVcom.youku.phone
p342
(dp343
g10
F0.90000000000000002
ssVcom.android.settings
p344
(dp345
g10
F1.3999999999999999
ssg147
(dp346
g10
F0.90000000000000002
ssVcom.android.incallui
p347
(dp348
g10
I1
ssg61
(dp349
g10
F1.3
ssg268
(dp350
g10
F2.7000000000000002
ssVcom.tencent.mobileqq
p351
(dp352
g10
F0.40000000000000002
sssg51
(dp353
Vcom.miui.home
p354
(dp355
g10
I1
sssg53
(dp356
g268
(dp357
g10
F2.3999999999999999
ssg23
(dp358
g10
F1.7
ssg49
(dp359
g10
F1.8
ssVcom.tencent.android.qqdownloader
p360
(dp361
g10
I1
ssg209
(dp362
g10
F3.0999999999999996
ssVcom.tencent.mobileqq
p363
(dp364
g10
F1.3
ssg133
(dp365
g10
F0.90000000000000002
sssg55
(dp366
Vcom.android.settings
p367
(dp368
g10
I1
ssVcom.miui.home
p369
(dp370
g10
F1.7
sssg57
(dp371
Vcom.android.email
p372
(dp373
g10
F0.90000000000000002
ssVcom.miui.home
p374
(dp375
g10
F8.2000000000000011
ssVcom.tencent.mobileqq
p376
(dp377
g10
F1.7
ssVcom.tencent.news
p378
(dp379
g10
I1
sssg59
(dp380
g99
(dp381
g10
F0.90000000000000002
ssVcom.netease.cloudmusic
p382
(dp383
g10
I4
ssVcom.tencent.reading
p384
(dp385
g10
I1
ssVcom.android.settings
p386
(dp387
g10
F0.69999999999999996
ssVcom.android.mms
p388
(dp389
g10
F0.90000000000000002
ssVcom.qiyi.video
p390
(dp391
g10
I1
ssVcom.cootek.smartdialer
p392
(dp393
g10
F8.8000000000000007
ssVcom.ximalaya.ting.android
p394
(dp395
g10
I1
ssg61
(dp396
g10
F0.69999999999999996
ssg89
(dp397
g10
F0.90000000000000002
ssVcom.miui.home
p398
(dp399
g10
F10.700000000000003
ssVcom.tencent.mobileqq
p400
(dp401
g10
F3
ssg95
(dp402
g10
F0.40000000000000002
sssg61
(dp403
Vcom.android.settings
p404
(dp405
g10
F1.8
ssVcom.miui.home
p406
(dp407
g10
F11.199999999999999
ssVcom.android.mms
p408
(dp409
g10
F2.7999999999999998
ssVcom.eg.android.AlipayGphone
p410
(dp411
g10
I1
ssVcom.UCMobile
p412
(dp413
g10
F1.3
sssg63
(dp414
Vcom.miui.home
p415
(dp416
g10
I1
sssg65
(dp417
Vcom.android.incallui
p418
(dp419
g10
I1
ssVcom.tencent.news
p420
(dp421
g10
I1
sssg67
(dp422
Vcom.android.browser
p423
(dp424
g10
F2.2999999999999998
ssg13
(dp425
g10
I1
ssg15
(dp426
g10
F1.8999999999999999
ssg17
(dp427
g10
F2.7000000000000002
ssg103
(dp428
g10
F6.8000000000000007
ssg21
(dp429
g10
F1.7
ssg23
(dp430
g10
F7.7000000000000002
ssg25
(dp431
g10
I1
ssg231
(dp432
g10
F4.3000000000000007
ssg29
(dp433
g10
F8.4000000000000004
ssg31
(dp434
g10
F1.8999999999999999
ssg33
(dp435
g10
F14.300000000000001
ssg35
(dp436
g10
F3.4000000000000004
ssg37
(dp437
g10
F9.8000000000000007
ssVcom.eg.android.AlipayGphone
p438
(dp439
g10
F11.5
ssg43
(dp440
g10
F14.799999999999999
ssg91
(dp441
g10
F1.7
ssg47
(dp442
g10
F2.6000000000000001
ssg49
(dp443
g10
F0.40000000000000002
ssg53
(dp444
g10
F4.0999999999999996
ssg57
(dp445
g10
F3.7000000000000002
ssVcom.android.incallui
p446
(dp447
g10
F10.000000000000002
ssg61
(dp448
g10
F10.899999999999999
ssg63
(dp449
g10
I1
ssVcom.android.phone
p450
(dp451
g10
F2.2000000000000002
ssg11
(dp452
g10
F4.4000000000000004
ssg175
(dp453
g10
F19.599999999999994
ssg71
(dp454
g10
F4.2999999999999998
ssg125
(dp455
g10
F1.3999999999999999
ssg75
(dp456
g10
I4
ssVcom.gameloft.android.ANMP.GloftA8HM
p457
(dp458
g10
I1
ssg77
(dp459
g10
F13.5
ssVcom.netease.cloudmusic
p460
(dp461
g10
F17.799999999999997
ssg83
(dp462
g10
F13.5
ssg85
(dp463
g10
F2.7000000000000002
ssg87
(dp464
g10
F1.7
ssg127
(dp465
g10
F0.90000000000000002
ssg129
(dp466
g10
F0.90000000000000002
ssg93
(dp467
g10
F4.7000000000000002
ssg95
(dp468
g10
F1.7
ssVcom.tencent.mobileqq
p469
(dp470
g10
F190.40000000000003
ssg105
(dp471
g10
F1.7
ssVcom.netease.mail
p472
(dp473
g10
F1.7
ssVcom.tuan800.tao800
p474
(dp475
g10
F7.7999999999999998
ssVcom.sinovatech.unicom.ui
p476
(dp477
g10
F6.1000000000000005
ssg189
(dp478
g10
F49.800000000000004
ssg115
(dp479
g10
F21.199999999999992
ssg388
(dp480
g10
F24.499999999999993
ssg119
(dp481
g10
F1.8
ssVcom.miui.securitycenter
p482
(dp483
g10
I1
ssg123
(dp484
g10
I1
ssg89
(dp485
g10
F1.7
ssg131
(dp486
g10
I2
ssg133
(dp487
g10
F0.40000000000000002
ssVcom.miui.networkassistant
p488
(dp489
g10
F1.3
sssg69
(dp490
Vcom.android.deskclock
p491
(dp492
g10
I1
ssVcom.anzogame.game
p493
(dp494
g10
F0.40000000000000002
ssVcom.netease.mail
p495
(dp496
g10
F2.2999999999999998
ssg247
(dp497
g10
F0.40000000000000002
ssVcom.android.settings
p498
(dp499
g10
I1
ssVcom.tencent.reading
p500
(dp501
g10
F0.90000000000000002
ssVcom.android.mms
p502
(dp503
g10
F1.6000000000000001
ssg81
(dp504
g10
F0.90000000000000002
ssVcom.taobao.taobao
p505
(dp506
g10
F1.3
ssg83
(dp507
g10
F1.3
ssg331
(dp508
g10
I1
ssVcom.miui.home
p509
(dp510
g10
F34.79999999999999
ssVcom.tencent.mobileqq
p511
(dp512
g10
F14.700000000000003
ssVcn.wps.moffice_eng
p513
(dp514
g10
F0.69999999999999996
ssVcom.sankuai.meituan.takeoutnew
p515
(dp516
g10
F4.0999999999999996
sssg71
(dp517
Vcom.tencent.mobileqq
p518
(dp519
g10
F3.3999999999999999
ssVcom.miui.home
p520
(dp521
g10
F4.1000000000000005
ssVcom.android.mms
p522
(dp523
g10
F3.7000000000000002
ssVcom.tencent.news
p524
(dp525
g10
F1.7
ssVcom.android.settings
p526
(dp527
g10
F1.3
sssg73
(dp528
Vcom.android.settings
p529
(dp530
g10
F0.90000000000000002
ssVcom.miui.home
p531
(dp532
g10
F2.7000000000000002
ssVcom.tencent.mobileqq
p533
(dp534
g10
F1.3
sssg75
(dp535
g476
(dp536
g10
F0.90000000000000002
ssVcom.miui.home
p537
(dp538
g10
F6.4000000000000004
ssg196
(dp539
g10
F1.8
sssg77
(dp540
g8
(dp541
g10
I1
ssg474
(dp542
g10
F1.7000000000000002
ssVcom.android.settings
p543
(dp544
g10
F4.2999999999999998
ssg277
(dp545
g10
I1
ssVcom.android.mms
p546
(dp547
g10
F0.90000000000000002
ssVcom.taobao.taobao
p548
(dp549
g10
F0.40000000000000002
ssVcom.android.deskclock
p550
(dp551
g10
I1
ssg65
(dp552
g10
I1
ssVcom.miui.home
p553
(dp554
g10
F23.399999999999995
ssVcom.tencent.mobileqq
p555
(dp556
g10
F13.5
ssVcom.miui.antispam
p557
(dp558
g10
F1.7
sssg79
(dp559
g178
(dp560
g10
F0.69999999999999996
ssVcom.miui.gallery
p561
(dp562
g10
F1.3
ssg457
(dp563
g10
F0.90000000000000002
ssVcom.tencent.reading
p564
(dp565
g10
F0.40000000000000002
ssVcom.android.settings
p566
(dp567
g10
F5.9000000000000004
ssVcom.tencent.mm
p568
(dp569
g10
F0.69999999999999996
ssg17
(dp570
g10
F0.90000000000000002
ssVcom.taobao.taobao
p571
(dp572
g10
F0.90000000000000002
ssVcom.android.deskclock
p573
(dp574
g10
I1
ssVcom.cootek.smartdialer
p575
(dp576
g10
F0.90000000000000002
ssg149
(dp577
g10
F0.69999999999999996
ssVcom.android.phone
p578
(dp579
g10
F0.69999999999999996
ssVcom.miui.home
p580
(dp581
g10
F33.899999999999991
ssVcom.tencent.mobileqq
p582
(dp583
g10
F20.5
ssVcom.duokan.reader
p584
(dp585
g10
I1
sssg81
(dp586
sg83
(dp587
g99
(dp588
g10
I1
ssVcom.tencent.mm
p589
(dp590
g10
F0.40000000000000002
ssVcom.android.mms
p591
(dp592
g10
I1
ssg418
(dp593
g10
F8.4000000000000004
ssg450
(dp594
g10
F2.7000000000000002
ssVcom.miui.home
p595
(dp596
g10
F8.5
ssVcom.tencent.mobileqq
p597
(dp598
g10
F1.3
sssg85
(dp599
Vcom.miui.home
p600
(dp601
g10
F2.7000000000000002
ssg335
(dp602
g10
F0.40000000000000002
ssg47
(dp603
g10
F0.90000000000000002
sssg87
(dp604
sg89
(dp605
Vcom.android.incallui
p606
(dp607
g10
F0.40000000000000002
ssVcom.miui.home
p608
(dp609
g10
F1.7
ssg95
(dp610
g10
F0.90000000000000002
sssg91
(dp611
Vcom.miui.home
p612
(dp613
g10
I1
ssVcom.eg.android.AlipayGphone
p614
(dp615
g10
F0.90000000000000002
sssg93
(dp616
Vcom.android.deskclock
p617
(dp618
g10
I1
ssVcom.miui.home
p619
(dp620
g10
F4.7000000000000002
ssVcom.tencent.mobileqq
p621
(dp622
g10
F1.3
sssg95
(dp623
g606
(dp624
g10
F0.90000000000000002
ssVcom.miui.home
p625
(dp626
g10
F3.7000000000000002
ssVcom.netease.cloudmusic
p627
(dp628
g10
I3
sssg97
(dp629
g15
(dp630
g10
I1
ssg17
(dp631
g10
F0.40000000000000002
ssg253
(dp632
g10
F2.2000000000000002
ssg231
(dp633
g10
F6.4000000000000004
ssg29
(dp634
g10
F2.7000000000000002
ssVcom.duowan.mobile
p635
(dp636
g10
I1
ssVcom.tencent.token
p637
(dp638
g10
I1
ssg35
(dp639
g10
F1.3
ssg37
(dp640
g10
F4
ssg438
(dp641
g10
F4.2999999999999998
ssg43
(dp642
g10
F12.900000000000002
ssg47
(dp643
g10
F0.40000000000000002
ssg548
(dp644
g10
F5.2000000000000002
ssg59
(dp645
g10
F2.3999999999999999
ssg67
(dp646
g10
F214.69999999999993
ssg175
(dp647
g10
F15.800000000000002
ssg71
(dp648
g10
F2.3999999999999999
ssg125
(dp649
g10
F1.8999999999999999
ssg129
(dp650
g10
I1
ssg77
(dp651
g10
F9.9000000000000021
ssVcom.netease.cloudmusic
p652
(dp653
g10
F19.099999999999998
ssg81
(dp654
g10
I1
ssg85
(dp655
g10
F1.3
ssg87
(dp656
g10
F0.90000000000000002
ssg93
(dp657
g10
F1.8
ssg474
(dp658
g10
F2.5
ssg135
(dp659
g10
F2.7000000000000002
ssVcom.android.settings
p660
(dp661
g10
F11.100000000000001
ssVcom.tencent.reading
p662
(dp663
g10
F13
ssg117
(dp664
g10
F6.7000000000000011
ssg119
(dp665
g10
I1
ssg13
(dp666
g10
F0.90000000000000002
ssg127
(dp667
g10
F4.7000000000000002
sssg99
(dp668
Vcom.cootek.smartdialer
p669
(dp670
g10
I1
ssVcom.miui.home
p671
(dp672
g10
F1.3
ssg597
(dp673
g10
F0.69999999999999996
sssg101
(dp674
Vcom.android.email
p675
(dp676
g10
I1
ssVcom.tencent.news
p677
(dp678
g10
F0.40000000000000002
ssVcom.tuan800.tao800
p679
(dp680
g10
I1
ssVcom.android.settings
p681
(dp682
g10
F0.90000000000000002
ssVcom.tencent.reading
p683
(dp684
g10
F2.2999999999999998
ssVcom.android.incallui
p685
(dp686
g10
I1
ssg482
(dp687
g10
F0.90000000000000002
ssVcom.miui.home
p688
(dp689
g10
F14.999999999999998
ssg621
(dp690
g10
F8
sssg103
(dp691
g191
(dp692
g10
F0.90000000000000002
ssVcom.tencent.mm
p693
(dp694
g10
F7.1000000000000005
ssVcom.miui.home
p695
(dp696
g10
F5
ssVcom.tencent.mobileqq
p697
(dp698
g10
F1.8
sssg105
(dp699
Vcom.miui.home
p700
(dp701
g10
F1.7
ssVcom.taobao.taobao
p702
(dp703
g10
F0.40000000000000002
ssVcom.qiyi.video
p704
(dp705
g10
F0.90000000000000002
sssg107
(dp706
g513
(dp707
g10
I1
ssVcom.tencent.mobileqq
p708
(dp709
g10
F2.3999999999999999
ssVcom.UCMobile
p710
(dp711
g10
I1
ssg331
(dp712
g10
F1.3
ssVcom.miui.home
p713
(dp714
g10
F2.9000000000000004
ssVcom.tencent.mm
p715
(dp716
g10
F2.7000000000000002
sssg109
(dp717
Vcom.android.deskclock
p718
(dp719
g10
I1
ssg29
(dp720
g10
F0.40000000000000002
ssVcom.miui.home
p721
(dp722
g10
F8.1000000000000014
ssVcom.tencent.mobileqq
p723
(dp724
g10
F2.2000000000000002
ssg305
(dp725
g10
F0.90000000000000002
sssg111
(dp726
Vcom.android.settings
p727
(dp728
g10
F0.90000000000000002
ssVcom.android.mms
p729
(dp730
g10
F2.6000000000000001
ssg63
(dp731
g10
F0.90000000000000002
ssVcom.miui.home
p732
(dp733
g10
F11.899999999999999
ssg301
(dp734
g10
F1.3
ssg41
(dp735
g10
I1
ssVcom.android.calculator2
p736
(dp737
g10
F0.90000000000000002
sssg113
(dp738
Vcom.anzogame.game
p739
(dp740
g10
F0.80000000000000004
ssVcn.kidstone.cartoon
p741
(dp742
g10
F0.90000000000000002
ssg91
(dp743
g10
F0.40000000000000002
ssVcom.tencent.news
p744
(dp745
g10
F1.3999999999999999
ssVcom.netease.cloudmusic
p746
(dp747
g10
F0.90000000000000002
ssVcom.tencent.reading
p748
(dp749
g10
I3
ssVcom.sinovatech.unicom.ui
p750
(dp751
g10
F1.3
ssVcom.sankuai.meituan
p752
(dp753
g10
I1
ssVcom.android.mms
p754
(dp755
g10
F1.3999999999999999
ssVcom.qiyi.video
p756
(dp757
g10
F0.90000000000000002
ssVcom.UCMobile
p758
(dp759
g10
I1
ssVme.ele
p760
(dp761
g10
F2.2000000000000002
ssVcom.taobao.taobao
p762
(dp763
g10
F0.90000000000000002
ssVcom.miui.home
p764
(dp765
g10
F56.300000000000004
ssVcom.tencent.mobileqq
p766
(dp767
g10
F15.800000000000002
ssVcom.eg.android.AlipayGphone
p768
(dp769
g10
F1.6000000000000001
ssVcom.android.calculator2
p770
(dp771
g10
F0.90000000000000002
sssg115
(dp772
g21
(dp773
g10
F0.90000000000000002
ssVcom.android.settings
p774
(dp775
g10
F3.6999999999999997
ssVcom.android.mms
p776
(dp777
g10
I1
ssVcom.miui.home
p778
(dp779
g10
F16.5
ssVcom.tencent.mobileqq
p780
(dp781
g10
F6.7999999999999998
ssg438
(dp782
g10
F0.90000000000000002
sssg117
(dp783
g412
(dp784
g10
F0.69999999999999996
ssg524
(dp785
g10
F0.90000000000000002
ssVcom.tencent.reading
p786
(dp787
g10
I1
ssg526
(dp788
g10
F1.6000000000000001
ssg693
(dp789
g10
F1.3999999999999999
ssVcom.cootek.smartdialer
p790
(dp791
g10
F1.7
ssg59
(dp792
g10
F0.90000000000000002
ssVme.ele
p793
(dp794
g10
F3.1999999999999997
ssVcom.miui.home
p795
(dp796
g10
F23.999999999999996
ssVcom.tencent.mobileqq
p797
(dp798
g10
F5.3999999999999995
ssVcom.miui.antispam
p799
(dp800
g10
I3
ssVcom.sankuai.meituan.takeoutnew
p801
(dp802
g10
F2.6000000000000001
sssg119
(dp803
Vcom.miui.gallery
p804
(dp805
g10
I1
sssg121
(dp806
Vcom.miui.home
p807
(dp808
g10
I2
sssg123
(dp809
Vcom.sinovatech.unicom.ui
p810
(dp811
g10
F0.90000000000000002
ssVcom.miui.home
p812
(dp813
g10
I1
sssg125
(dp814
Vcom.miui.home
p815
(dp816
g10
I1
ssVcom.tencent.mobileqq
p817
(dp818
g10
F0.90000000000000002
sssg127
(dp819
Vcom.tencent.mobileqq
p820
(dp821
g10
I1
sssg129
(dp822
sg131
(dp823
g321
(dp824
g10
I1
ssVcom.miui.home
p825
(dp826
g10
I1
sssg133
(dp827
g209
(dp828
g10
F1.3
ssg205
(dp829
g10
F0.69999999999999996
ssVcom.qiyi.video
p830
(dp831
g10
I1
sssg135
(dp832
ssS'edge'
p833
g140
sS'pred'
p834
(dp835
g8
(dp836
Vcom.miui.home
p837
g424
sg17
g179
sVcom.tencent.news
p838
g541
sVcom.netease.cloudmusic
p839
g560
ssg11
(dp840
Vcom.netease.cloudmusic
p841
g562
sg264
g357
sg149
g805
sg49
g350
sVcom.tencent.android.qqdownloader
p842
g269
sVcom.miui.home
p843
g452
ssg13
(dp844
Vcom.miui.home
p845
g425
sVcom.tencent.mobileqq
p846
g666
ssg15
(dp847
Vcom.miui.home
p848
g426
sVcn.kidstone.cartoon
p849
g275
sVcom.tencent.mobileqq
p850
g630
sVcom.ximalaya.ting.android
p851
g343
ssg17
(dp852
Vcom.miui.home
p853
g427
sVcom.tencent.mobileqq
p854
g631
sg839
g570
ssg19
(dp855
sg21
(dp856
g493
g304
sVcom.miui.home
p857
g429
sg309
g773
ssg23
(dp858
g105
g705
sVcom.youku.phone
p859
g167
sg207
g391
sg203
g757
sg53
g358
sg205
g254
sg168
g230
sVcom.miui.home
p860
g430
sg211
g632
sg133
g831
ssg25
(dp861
Vcom.miui.home
p862
g431
ssg27
(dp863
Vcom.taobao.taobao
p864
g255
ssg29
(dp865
Vcom.netease.mail
p866
g711
sg109
g720
sVcom.android.settings
p867
g759
sVcom.android.mms
p868
g784
sg793
g413
sg721
g433
sg723
g634
sg859
g169
ssg31
(dp869
Vcom.miui.home
p870
g434
sVcom.tencent.mobileqq
p871
g636
sVcom.youku.phone
p872
g170
sVcn.kidstone.cartoon
p873
g280
ssg33
(dp874
g105
g703
sVcom.tencent.news
p875
g549
sVcom.netease.cloudmusic
p876
g572
sVcom.tencent.mm
p877
g506
sg23
g206
sg27
g221
sg249
g763
sVcom.miui.home
p878
g435
sVcom.tencent.mobileqq
p879
g644
sg133
g829
ssg35
(dp880
g264
g361
sVcom.miui.home
p881
g436
sVcom.tencent.mobileqq
p882
g639
ssg37
(dp883
Vcom.android.settings
p884
g742
sg279
g244
sVcom.miui.home
p885
g437
sVcom.tencent.mobileqq
p886
g640
sg342
g163
ssg39
(dp887
sg41
(dp888
g91
g615
sVcom.tencent.reading
p889
g782
sVcom.sinovatech.unicom.ui
p890
g735
sVcom.android.settings
p891
g769
sVme.ele
p892
g411
sVcom.miui.home
p893
g439
sVcom.tencent.mobileqq
p894
g641
ssg43
(dp895
g681
g740
sVcom.tencent.mm
p896
g494
sVcom.miui.home
p897
g440
sVcom.tencent.mobileqq
p898
g642
sg741
g272
ssg45
(dp899
Vcom.miui.home
p900
g458
sVcom.netease.cloudmusic
p901
g563
ssg47
(dp902
g85
g603
sVcom.tencent.mm
p903
g514
sVcom.miui.home
p904
g442
sg469
g643
sg472
g707
ssg49
(dp905
g347
g395
sg264
g359
sVcom.miui.home
p906
g443
sg268
g152
sg842
g263
ssg51
(dp907
sg53
(dp908
g268
g148
sg859
g166
sg49
g346
sg168
g227
sg842
g265
sg860
g444
sg162
g278
sg285
g545
ssg55
(dp909
g367
g753
ssg57
(dp910
Vcom.anzogame.game
p911
g313
sVcom.miui.home
p912
g445
sVcom.tencent.mobileqq
p913
g638
sg33
g257
ssg59
(dp914
Vcom.cootek.smartdialer
p915
g593
sVcom.anzogame.game
p916
g315
sg117
g792
sVcom.qiyi.video
p917
g208
sVcom.android.deskclock
p918
g686
sVcom.ximalaya.ting.android
p919
g348
sg450
g419
sg89
g607
sVcom.miui.home
p920
g447
sVcom.tencent.mobileqq
p921
g645
sg95
g624
ssg61
(dp922
g472
g712
sg412
g234
sg404
g761
sg408
g794
sg919
g349
sg347
g396
sg340
g448
sg329
g508
sg410
g298
sg513
g332
ssg63
(dp923
Vcom.sinovatech.unicom.ui
p924
g731
sVcom.miui.home
p925
g449
ssg65
(dp926
g915
g594
sVcom.miui.home
p927
g451
sVcom.tencent.news
p928
g552
sVcom.netease.cloudmusic
p929
g579
ssg67
(dp930
g423
g143
sg13
g160
sg15
g174
sVcom.ea.game.pvz2_row
p931
g181
sg19
g195
sg23
g210
sg25
g216
sg27
g219
sg29
g236
sg635
g242
sg33
g259
sg35
g267
sg37
g274
sg39
g290
sg41
g300
sVcom.anzogame.game
p932
g317
sg45
g324
sg47
g334
sg919
g341
sg51
g355
sg53
g362
sg55
g370
sVcom.tencent.token
p933
g375
sVcom.android.incallui
p934
g399
sg61
g407
sg63
g416
sg11
g154
sg69
g510
sg71
g521
sg73
g532
sg75
g538
sg77
g554
sg79
g581
sg83
g596
sg85
g601
sg91
g613
sg93
g620
sg95
g626
sg97
g646
sg99
g672
sg617
g689
sg103
g696
sg105
g701
sg866
g714
sg109
g722
sg111
g733
sg113
g765
sg115
g779
sVcom.android.mms
p935
g796
sg121
g808
sg123
g813
sVde.hs_osnabrueck.asta.sensorlog
p936
g816
sg89
g609
sVcom.xiaoji.emulator
p937
g826
sg133
g828
ssg69
(dp938
g15
g176
sVcom.netease.cloudmusic
p939
g569
sg191
g789
sg669
g590
sg801
g694
sg173
g453
sg850
g647
sg513
g330
sg495
g716
ssg71
(dp940
g522
g800
sVcom.miui.home
p941
g454
sVcom.tencent.mobileqq
p942
g648
sVcom.tencent.news
p943
g558
ssg73
(dp944
sg75
(dp945
Vcom.sinovatech.unicom.ui
p946
g737
sVcom.android.settings
p947
g771
sg19
g193
sg194
g456
ssg77
(dp948
Vcom.anzogame.game
p949
g306
sg162
g286
sg307
g725
sg529
g745
sg546
g785
sVcom.tencent.token
p950
g379
sVcom.android.deskclock
p951
g678
sg65
g421
sVcom.miui.home
p952
g459
sVcom.tencent.mobileqq
p953
g651
sg557
g525
ssg79
(dp954
Vcom.android.incallui
p955
g383
sVcom.miui.home
p956
g461
sg582
g653
sVcom.duokan.reader
p957
g628
sVcom.android.settings
p958
g747
ssg81
(dp959
Vcom.tencent.mobileqq
p960
g654
sVcom.tencent.mm
p961
g504
ssg83
(dp962
g99
g670
sg929
g576
sg591
g791
sVcom.android.incallui
p963
g393
sVcom.miui.home
p964
g462
sVcom.tencent.mm
p965
g507
ssg85
(dp966
g67
g463
sg97
g655
ssg87
(dp967
Vcom.miui.home
p968
g464
sVcom.tencent.mobileqq
p969
g656
ssg89
(dp970
Vcom.android.incallui
p971
g397
sVcom.miui.home
p972
g485
ssg91
(dp973
g891
g743
sVcom.miui.home
p974
g441
sg768
g296
ssg93
(dp975
g617
g676
sVcom.miui.home
p976
g467
sVcom.tencent.mobileqq
p977
g657
sg933
g373
ssg95
(dp978
g971
g402
sVcom.miui.home
p979
g468
sVcom.netease.cloudmusic
p980
g585
sg89
g610
ssg97
(dp981
g423
g145
sg15
g165
sg931
g183
sg19
g197
sg830
g212
sg617
g690
sVcom.UCMobile
p982
g238
sg950
g377
sg37
g284
sg39
g292
sg41
g302
sVcom.anzogame.game
p983
g319
sVcom.gameloft.android.ANMP.GloftA8HM
p984
g326
sg47
g336
sg851
g352
sg277
g364
sg548
g261
sg207
g401
sg67
g470
sg175
g512
sg71
g519
sg73
g534
sg75
g539
sVcom.tencent.news
p985
g556
sVcom.netease.cloudmusic
p986
g583
sVcom.cootek.smartdialer
p987
g598
sg85
g602
sVcom.android.email
p988
g622
sg99
g673
sg11
g156
sg107
g709
sg109
g724
sg890
g734
sg189
g767
sg115
g781
sg117
g798
sg936
g818
sVcom.android.camera
p989
g821
sg103
g698
ssg99
(dp990
g987
g588
sVcom.android.incallui
p991
g381
ssg101
(dp992
Vcom.anzogame.game
p993
g314
sg988
g618
sVcom.tencent.news
p994
g551
sVcom.netease.cloudmusic
p995
g574
sVcom.tuan800.tao800
p996
g719
sVcom.tencent.mm
p997
g492
sVcom.UCMobile
p998
g232
sVcom.miui.home
p999
g432
sVcom.tencent.mobileqq
p1000
g633
ssg103
(dp1001
g693
g516
sVcom.android.updater
p1002
g199
sVcom.miui.home
p1003
g428
sg191
g802
ssg105
(dp1004
Vcom.miui.home
p1005
g471
sVcom.taobao.taobao
p1006
g246
sg253
g202
ssg107
(dp1007
Vcom.miui.home
p1008
g473
sVcom.tencent.mm
p1009
g496
sg513
g338
ssg109
(dp1010
g949
g308
sVcom.tencent.news
p1011
g542
sVcom.tencent.mobileqq
p1012
g658
sg505
g248
sg718
g680
sVcom.miui.home
p1013
g475
sVcom.tencent.mm
p1014
g497
ssg111
(dp1015
g171
g751
sVcom.UCMobile
p1016
g224
sg123
g811
sVcom.miui.home
p1017
g477
sg41
g295
sg736
g536
ssg113
(dp1018
Vcom.youku.phone
p1019
g172
sg931
g185
sVcom.android.updater
p1020
g190
sVcom.qiyi.video
p1021
g204
sVcom.android.deskclock
p1022
g682
sVcom.UCMobile
p1023
g226
sVcom.gameloft.android.ANMP.GloftA8HM
p1024
g322
sVcom.ximalaya.ting.android
p1025
g345
sg55
g368
sg571
g250
sg207
g387
sg61
g405
sVcom.miui.home
p1026
g478
sVcom.tencent.mobileqq
p1027
g661
sVcom.miui.antispam
p1028
g527
sg73
g530
sVcom.tencent.news
p1029
g544
sVcom.netease.cloudmusic
p1030
g567
sg662
g775
sVcom.sinovatech.unicom.ui
p1031
g728
sVcom.tencent.mm
p1032
g499
sVcom.android.mms
p1033
g788
sg131
g824
ssg115
(dp1034
g493
g310
sVcn.kidstone.cartoon
p1035
g276
sVcom.netease.cloudmusic
p1036
g565
sVcom.android.settings
p1037
g749
sVcom.android.updater
p1038
g188
sVcom.tencent.mm
p1039
g501
sg776
g787
sVcom.taobao.taobao
p1040
g252
sVcom.android.deskclock
p1041
g684
sVcom.android.incallui
p1042
g385
sVcom.miui.home
p1043
g479
sg780
g663
ssg117
(dp1044
Vcom.anzogame.game
p1045
g311
sg943
g547
sg1016
g229
sg111
g730
sVcom.android.settings
p1046
g755
sg1002
g192
sVcom.tencent.reading
p1047
g777
sVcom.tencent.mm
p1048
g503
sVcom.cootek.smartdialer
p1049
g592
sg934
g389
sg760
g409
sg398
g480
sVcom.tencent.mobileqq
p1050
g664
sg71
g523
sg198
g692
ssg119
(dp1051
Vcom.miui.home
p1052
g481
sVcom.tencent.mobileqq
p1053
g665
sg561
g150
sg841
g577
ssg121
(dp1054
Vcom.android.deskclock
p1055
g687
sVcom.miui.home
p1056
g483
ssg123
(dp1057
Vcom.miui.home
p1058
g484
ssg125
(dp1059
g153
g455
sg155
g649
sVcom.miui.gallery
p1060
g157
ssg127
(dp1061
g291
g667
sg289
g465
sg39
g288
ssg129
(dp1062
Vcom.miui.home
p1063
g466
sVcom.tencent.mobileqq
p1064
g650
ssg131
(dp1065
Vcom.miui.home
p1066
g486
sg1024
g327
sVcn.kidstone.cartoon
p1067
g282
ssg133
(dp1068
g168
g239
sg53
g365
sg860
g487
sg23
g213
ssg135
(dp1069
Vcom.miui.home
p1070
g489
sVcom.tencent.mobileqq
p1071
g659
sssS'adj'
p1072
g140
sb.