ccopy_reg
_reconstructor
p1
(cnetworkx.classes.digraph
DiGraph
p2
c__builtin__
object
p3
NtRp4
(dp5
S'node'
p6
(dp7
V\u652f\u4ed8\u5b9d\u94b1\u5305
p8
(dp9
S'weight'
p10
F0.01
ssVUC\u6d4f\u89c8\u5668
p11
(dp12
g10
F0.050000000000000003
ssVGoogle Play services
p13
(dp14
g10
F0
ssVChrome
p15
(dp16
g10
F0
ssV\u6dd8\u5b9d
p17
(dp18
g10
F0.02
ssV\u65fa\u4fe1
p19
(dp20
g10
F0.01
ssVYY
p21
(dp22
g10
F0.029999999999999999
ssV\u817e\u8baf\u65b0\u95fb
p23
(dp24
g10
F0.01
ssVQQ\u5b89\u5168\u4e2d\u5fc3
p25
(dp26
g10
F0.01
ssV\u6298800
p27
(dp28
g10
F0.02
ssV\u767e\u5ea6\u624b\u673a\u8f93\u5165\u6cd5
p29
(dp30
g10
F0
ssV\u6709\u9053\u4e91\u7b14\u8bb0
p31
(dp32
g10
F0
ssVWPS Office
p33
(dp34
g10
F0.01
ssV\u5370\u8c61\u7b14\u8bb0
p35
(dp36
g10
F0.02
ssV\u4e2d\u56fd\u79fb\u52a8\u624b\u673a\u8425\u4e1a\u5385
p37
(dp38
g10
F0
ssV\u8d85\u7ea7\u8bfe\u7a0b\u8868
p39
(dp40
g10
F0
ssV\u7f8e\u56e2\u56e2\u8d2d
p41
(dp42
g10
F0.01
ssV\u667a\u884c\u706b\u8f66\u7968
p43
(dp44
g10
F0
ssV\u4e09\u56fd\u6740
p45
(dp46
g10
F0
ssVFlappy Bird
p47
(dp48
g10
F0
ssV\u5f71\u97f3\u5148\u950b
p49
(dp50
g10
F0
ssV\u817e\u8baf\u89c6\u9891
p51
(dp52
g10
F0
ssV\u6709\u9053\u8bcd\u5178
p53
(dp54
g10
F0.02
ssVGoogle Play
p55
(dp56
g10
F0
ssV\u76f8\u673a
p57
(dp58
g10
F0.01
ssV\u6fc0\u6d41\u5feb\u82472-\u6781\u901f\u72c2\u98d9
p59
(dp60
g10
F0
ssV\u8f66\u8f6e\u8003\u9a7e\u7167
p61
(dp62
g10
F0
ssV\u591a\u7c73\u97f3\u4e50
p63
(dp64
g10
F0.01
ssV\u4f18\u9177\u89c6\u9891
p65
(dp66
g10
F0
ssV\u4e2d\u56fd\u5efa\u8bbe\u94f6\u884c
p67
(dp68
g10
F0
ssV\u9ad8\u5fb7\u5730\u56fe
p69
(dp70
g10
F0
ssV\u9a7e\u8003\u5b9d\u5178
p71
(dp72
g10
F0
ssVQQ
p73
(dp74
g10
F0.29999999999999999
ssV58\u540c\u57ce
p75
(dp76
g10
F0
ssV\u767e\u5ea6\u8d34\u5427
p77
(dp78
g10
F0
ssVQQ\u7a7a\u95f4
p79
(dp80
g10
F0
ssV\u5fae\u4fe1
p81
(dp82
g10
F0.040000000000000001
ssVQQ\u97f3\u4e50
p83
(dp84
g10
F0
ssV\u6ed1\u96ea\u5927\u5192\u9669
p85
(dp86
g10
F0
ssV\u6b63\u5e38\u7684\u5927\u5192\u9669
p87
(dp88
g10
F0
ssV\u5c0f\u6069\u7231
p89
(dp90
g10
F0
ssV\u5531\u5427
p91
(dp92
g10
F0
ssVGmail
p93
(dp94
g10
F0
sssS'graph'
p95
(dp96
sS'succ'
p97
(dp98
g8
(dp99
g8
(dp100
S'weights'
p101
(lp102
I0
aI0
aI0
aI0
aI0
aI0
aF0.045308804642237271
asg10
F0.19162311195210988
ssVUC\u6d4f\u89c8\u5668
p103
(dp104
g101
(lp105
I0
aI0
aI0
aI0
aI0
aI0
aF0.17748853356941999
asg10
F0.3792641013138176
ssV\u7f8e\u56e2\u56e2\u8d2d
p106
(dp107
g101
(lp108
I0
aI0
aI0
aI0
aI0
aI0
aF0.110142941425626
asg10
F0.2987685791376784
ssV\u65fa\u4fe1
p109
(dp110
g101
(lp111
I0
aI0
aI0
aI0
aI0
aI0
aF0.080618395328357295
asg10
F0.255607540364029
ssVYY
p112
(dp113
g101
(lp114
I0
aI0
aI0
aI0
aI0
aI0
aF0.17063570757446683
asg10
F0.37187034386652512
ssV\u817e\u8baf\u65b0\u95fb
p115
(dp116
g101
(lp117
I0
aI0
aI0
aI0
aI0
aI0
aF0.12504211380759536
asg10
F0.31833525598711804
ssVQQ\u5b89\u5168\u4e2d\u5fc3
p118
(dp119
g101
(lp120
I0
aI0
aI0
aI0
aI0
aI0
aF0.087496052252166751
asg10
F0.26628752169477971
ssV\u6298800
p121
(dp122
g101
(lp123
I0
aI0
aI0
aI0
aI0
aI0
aF0.11576461592212972
asg10
F0.30629824197326844
ssV\u6dd8\u5b9d
p124
(dp125
S'weights'
p126
(lp127
I0
aF0
aI0
aF0.25
aI0
aI0
aF0.097602752786226293
asS'weight'
p128
F0.48583744603167678
ssVWPS Office
p129
(dp130
g101
(lp131
I0
aI0
aI0
aI0
aI0
aI0
aF0.055799143139084822
asg10
F0.21265243081680871
ssV\u5370\u8c61\u7b14\u8bb0
p132
(dp133
g101
(lp134
I0
aI0
aI0
aI0
aI0
aI0
aF0.19564378176281602
asg10
F0.39818932330695395
ssV\u4e2d\u56fd\u79fb\u52a8\u624b\u673a\u8425\u4e1a\u5385
p135
(dp136
g126
(lp137
F0
aF0
aF0.5625
aI0
aI0
aI0
aI0
asg128
F0.48518797980776446
ssV\u8d85\u7ea7\u8bfe\u7a0b\u8868
p138
(dp139
g101
(lp140
I0
aI0
aI0
aI0
aI0
aI0
aF0.0087894225776427581
asg10
F0.084398894687004122
ssV\u4e09\u56fd\u6740
p141
(dp142
g101
(lp143
I0
aI0
aI0
aI0
aI0
aI0
aF0.1314613880320874
asg10
F0.32640416607478501
ssVFlappy Bird
p144
(dp145
g101
(lp146
I0
aI0
aI0
aI0
aI0
aI0
aF0.072377392717530575
asg10
F0.24219102970500916
ssg53
(dp147
g101
(lp148
I0
aI0
aI0
aI0
aI0
aI0
aF0.063366504539584548
asg10
F0.22661385669052272
ssV\u76f8\u673a
p149
(dp150
g101
(lp151
I0
aI0
aI0
aI0
aI0
aI0
aF0.13206323600319747
asg10
F0.32715047403083836
ssg59
(dp152
g101
(lp153
I0
aI0
aI0
aI0
aI0
aI0
aF0.026140556698521843
asg10
F0.14555060086511942
ssV\u591a\u7c73\u97f3\u4e50
p154
(dp155
g101
(lp156
I0
aI0
aI0
aI0
aI0
aI0
aF0.18366876702643717
asg10
F0.38581067663404711
ssVQQ\u7a7a\u95f4
p157
(dp158
g101
(lp159
I0
aI0
aI0
aI0
aI0
aI0
aF0.049521983464341439
asg10
F0.20033443333772397
ssV\u4e2d\u56fd\u5efa\u8bbe\u94f6\u884c
p160
(dp161
g101
(lp162
I0
aI0
aI0
aI0
aI0
aI0
aF0.079927213751395415
asg10
F0.25450945644230699
ssV\u9ad8\u5fb7\u5730\u56fe
p163
(dp164
g101
(lp165
I0
aI0
aI0
aI0
aI0
aI0
aF0.02604220153712386
asg10
F0.14527652207944469
ssVQQ
p166
(dp167
g101
(lp168
I0
aI0
aI0
aI0
aI0
aI0
aF0.5135359991136581
asg10
F0.64512226836043629
ssV58\u540c\u57ce
p169
(dp170
g101
(lp171
I0
aI0
aI0
aI0
aI0
aI0
aF0.03167938595682572
asg10
F0.16023041740853414
ssg65
(dp172
g101
(lp173
I0
aI0
aI0
aI0
aI0
aI0
aF0.06239396477392712
asg10
F0.22486811441688703
ssV\u5fae\u4fe1
p174
(dp175
g126
(lp176
F0
aF0
aF0.10795454545454546
aI0
aI0
aI0
aF0.165058418238194
asg128
F0.48671984680901059
ssVGmail
p177
(dp178
g101
(lp179
I0
aI0
aI0
aI0
aI0
aI0
aF0.024122097964326787
asg10
F0.13981833463173424
sssg11
(dp180
V\u652f\u4ed8\u5b9d\u94b1\u5305
p181
(dp182
g126
(lp183
I0
aF0
aF0.33333333333333331
aI0
aI0
aI0
aF0.139482928305902
asg128
F0.54245481276495078
ssg13
(dp184
g101
(lp185
I0
aI0
aI0
aI0
aI0
aI0
aF0.034454102954342133
asg10
F0.16710023478005737
ssg15
(dp186
g101
(lp187
I0
aI0
aI0
aI0
aI0
aI0
aF0.051297274754661844
asg10
F0.20389366533131631
ssV\u65fa\u4fe1
p188
(dp189
g101
(lp190
I0
aI0
aI0
aI0
aI0
aI0
aF0.17015486345872208
asg10
F0.37134601687213503
ssVYY
p191
(dp192
g101
(lp193
I0
aI0
aI0
aI0
aI0
aI0
aF0.28265749483397218
asg10
F0.47861558830251655
ssV\u817e\u8baf\u65b0\u95fb
p194
(dp195
g101
(lp196
I0
aI0
aI0
aI0
aI0
aI0
aF0.2184437427103551
asg10
F0.42075219566371858
ssV\u6b63\u5e38\u7684\u5927\u5192\u9669
p197
(dp198
g101
(lp199
I0
aI0
aI0
aI0
aI0
aI0
aF0.13010831853667618
asg10
F0.32472006007970267
ssg27
(dp200
g101
(lp201
I0
aI0
aI0
aI0
aI0
aI0
aF0.29675413973963383
asg10
F0.49040510177442825
ssg17
(dp202
g101
(lp203
I0
aI0
aI0
aI0
aI0
aI0
aF0.29062155694839636
asg10
F0.4853114067362222
ssVWPS Office
p204
(dp205
g101
(lp206
I0
aI0
aI0
aI0
aI0
aI0
aF0.14279129904304333
asg10
F0.34017896763582045
ssV\u5370\u8c61\u7b14\u8bb0
p207
(dp208
g101
(lp209
I0
aI0
aI0
aI0
aI0
aI0
aF0.26261630319415835
asg10
F0.4613360876735022
ssg135
(dp210
g126
(lp211
I0
aF0
aF0.58333333333333337
aI0
aI0
aI0
aF0.074253381927181894
asg128
F0.5476348985198658
ssV\u8d85\u7ea7\u8bfe\u7a0b\u8868
p212
(dp213
g101
(lp214
I0
aI0
aI0
aI0
aI0
aI0
aF0.061814444031550037
asg10
F0.22382138059718984
ssV\u767e\u5ea6\u8d34\u5427
p215
(dp216
g101
(lp217
I0
aI0
aI0
aI0
aI0
aI0
aF0.062766828128605734
asg10
F0.22553901415173644
ssg41
(dp218
g101
(lp219
I0
aI0
aI0
aI0
aI0
aI0
aF0.31040555795533953
asg10
F0.50155819522874912
ssV\u667a\u884c\u706b\u8f66\u7968
p220
(dp221
g101
(lp222
I0
aI0
aI0
aI0
aI0
aI0
aF0.038079857472207344
asg10
F0.1756726868125098
ssV\u4e09\u56fd\u6740
p223
(dp224
g101
(lp225
I0
aI0
aI0
aI0
aI0
aI0
aF0.28421781110376582
asg10
F0.47993478898585606
ssVFlappy Bird
p226
(dp227
g101
(lp228
I0
aI0
aI0
aI0
aI0
aI0
aF0.12836617223352637
asg10
F0.32253873780391024
ssg49
(dp229
g101
(lp230
I0
aI0
aI0
aI0
aI0
aI0
aF0.25977917460470512
asg10
F0.45883733940784499
ssV\u5c0f\u6069\u7231
p231
(dp232
g101
(lp233
I0
aI0
aI0
aI0
aI0
aI0
aF0.030293961132558563
asg10
F0.15668759638842797
ssg53
(dp234
g101
(lp235
I0
aI0
aI0
aI0
aI0
aI0
aF0.27802497834823103
asg10
F0.4746773338014787
ssVQQ\u5b89\u5168\u4e2d\u5fc3
p236
(dp237
g101
(lp238
I0
aI0
aI0
aI0
aI0
aI0
aF0.15623164071693901
asg10
F0.35582878963746001
ssV\u76f8\u673a
p239
(dp240
g101
(lp241
I0
aI0
aI0
aI0
aI0
aI0
aF0.16422735499314967
asg10
F0.36482058522030236
ssg59
(dp242
g101
(lp243
I0
aI0
aI0
aI0
aI0
aI0
aF0.068583296595950929
asg10
F0.23575763421178983
ssg61
(dp244
g101
(lp245
I0
aI0
aI0
aI0
aI0
aI0
aF0.0577855516932392
asg10
F0.21640446566003993
ssV\u591a\u7c73\u97f3\u4e50
p246
(dp247
g101
(lp248
I0
aI0
aI0
aI0
aI0
aI0
aF0.18316262800082431
asg10
F0.38527871750289533
ssg65
(dp249
g101
(lp250
I0
aI0
aI0
aI0
aI0
aI0
aF0.09307265574382953
asg10
F0.27464243420916878
ssg67
(dp251
g101
(lp252
I0
aI0
aI0
aI0
aI0
aI0
aF0.12444173195781136
asg10
F0.31757010306241468
ssg69
(dp253
g101
(lp254
I0
aI0
aI0
aI0
aI0
aI0
aF0.053839282285059901
asg10
F0.20888450120551294
ssVQQ
p255
(dp256
g101
(lp257
I0
aI0
aI0
aI0
aI0
aI0
aF0.89934301535304839
asg10
F0.85372749720250429
ssg75
(dp258
g101
(lp259
I0
aI0
aI0
aI0
aI0
aI0
aF0.11348806440905972
asg10
F0.30327155705277448
ssg55
(dp260
g101
(lp261
I0
aI0
aI0
aI0
aI0
aI0
aF0.058318432852764029
asg10
F0.2173999846199712
ssg79
(dp262
g101
(lp263
I0
aI0
aI0
aI0
aI0
aI0
aF0.07750263029418035
asg10
F0.25061947014681696
ssg174
(dp264
g126
(lp265
I0
aF0
aF0.68181818181818177
aI0
aI0
aI0
aF0.35603139962860908
asg128
F0.74007564878093324
ssg51
(dp266
g101
(lp267
I0
aI0
aI0
aI0
aI0
aI0
aF0.022798192363515601
asg10
F0.13592733225642939
ssg91
(dp268
g101
(lp269
I0
aI0
aI0
aI0
aI0
aI0
aF0.072113418621985878
asg10
F0.24174896792757367
ssVGmail
p270
(dp271
g101
(lp272
I0
aI0
aI0
aI0
aI0
aI0
aF0.091532595435472153
asg10
F0.27236072093113856
sssg13
(dp273
VQQ
p274
(dp275
g101
(lp276
I0
aI0
aI0
aI0
aI0
aI0
aF0.085963565558924954
asg10
F0.26394521723271025
ssg53
(dp277
g101
(lp278
I0
aI0
aI0
aI0
aI0
aI0
aF0.0029747873461648798
asg10
F0.049100345631548518
ssVUC\u6d4f\u89c8\u5668
p279
(dp280
g101
(lp281
I0
aI0
aI0
aI0
aI0
aI0
aF0.020681369752032747
asg10
F0.12946316979382805
ssV\u5fae\u4fe1
p282
(dp283
g101
(lp284
I0
aI0
aI0
aI0
aI0
aI0
aF0.04498338029226847
asg10
F0.19093371833405637
ssV\u76f8\u673a
p285
(dp286
g101
(lp287
I0
aI0
aI0
aI0
aI0
aI0
aF0.020578897623095404
asg10
F0.12914203921384995
ssVQQ\u5b89\u5168\u4e2d\u5fc3
p288
(dp289
g101
(lp290
I0
aI0
aI0
aI0
aI0
aI0
aF0.024563444095933688
asg10
F0.14109161888891791
sssg15
(dp291
VQQ
p292
(dp293
g101
(lp294
I0
aI0
aI0
aI0
aI0
aI0
aF0.12310295457031477
asg10
F0.31585723173132679
ssV\u5370\u8c61\u7b14\u8bb0
p295
(dp296
g101
(lp297
I0
aI0
aI0
aI0
aI0
aI0
aF0.060030784514039599
asg10
F0.22056855398052047
ssg55
(dp298
g101
(lp299
I0
aI0
aI0
aI0
aI0
aI0
aF0.067980736496798574
asg10
F0.23471968799972601
ssVQQ\u5b89\u5168\u4e2d\u5fc3
p300
(dp301
g101
(lp302
I0
aI0
aI0
aI0
aI0
aI0
aF0.034705084283552338
asg10
F0.16770775225997764
ssV\u652f\u4ed8\u5b9d\u94b1\u5305
p303
(dp304
g101
(lp305
I0
aI0
aI0
aI0
aI0
aI0
aF0.033886537489758242
asg10
F0.16571819109030306
ssVUC\u6d4f\u89c8\u5668
p306
(dp307
g101
(lp308
I0
aI0
aI0
aI0
aI0
aI0
aF0.065705242183820137
asg10
F0.23075790993604023
ssV\u65fa\u4fe1
p309
(dp310
g101
(lp311
I0
aI0
aI0
aI0
aI0
aI0
aF0.03367711637037385
asg10
F0.16520532259396678
ssV\u6298800
p312
(dp313
g101
(lp314
I0
aI0
aI0
aI0
aI0
aI0
aF0.055673062276887925
asg10
F0.21241204572425795
ssg17
(dp315
g101
(lp316
I0
aI0
aI0
aI0
aI0
aI0
aF0.062918846190154254
asg10
F0.22581197098354772
ssVWPS Office
p317
(dp318
g101
(lp319
I0
aI0
aI0
aI0
aI0
aI0
aF0.037764596217342676
asg10
F0.17494398271288431
ssg93
(dp320
g101
(lp321
I0
aI0
aI0
aI0
aI0
aI0
aF0.090635944631090898
asg10
F0.27102341873618918
sssg17
(dp322
g181
(dp323
g126
(lp324
I0
aF0
aF0.75
aI0
aI0
aI0
aF0.090192336264183909
asg128
F0.58729822528708298
ssVUC\u6d4f\u89c8\u5668
p325
(dp326
g101
(lp327
I0
aI0
aI0
aI0
aI0
aI0
aF0.30414957799348441
asg10
F0.4964782136528833
ssg13
(dp328
g101
(lp329
I0
aI0
aI0
aI0
aI0
aI0
aF0.024450542161574371
asg10
F0.1407669929287387
ssg15
(dp330
g101
(lp331
I0
aI0
aI0
aI0
aI0
aI0
aF0.034916243390200448
asg10
F0.16821717784578788
ssg188
(dp332
g101
(lp333
I0
aI0
aI0
aI0
aI0
aI0
aF0.17538621463699469
asg10
F0.37701125364833221
ssVYY
p334
(dp335
g101
(lp336
I0
aI0
aI0
aI0
aI0
aI0
aF0.13642348739320975
asg10
F0.33250728140181141
ssg194
(dp337
g101
(lp338
I0
aI0
aI0
aI0
aI0
aI0
aF0.13222507896993488
asg10
F0.32735087345022124
ssg53
(dp339
g101
(lp340
I0
aI0
aI0
aI0
aI0
aI0
aF0.10892047502124197
asg10
F0.29710595039626503
ssV\u6298800
p341
(dp342
g101
(lp343
I0
aI0
aI0
aI0
aI0
aI0
aF0.15817915147363695
asg10
F0.35803971872927981
ssg29
(dp344
g101
(lp345
I0
aI0
aI0
aI0
aI0
aI0
aF0.025635250701308076
asg10
F0.14413696429308465
ssVWPS Office
p346
(dp347
g101
(lp348
I0
aI0
aI0
aI0
aI0
aI0
aF0.073076615370510301
asg10
F0.24335809589193236
ssg207
(dp349
g101
(lp350
I0
aI0
aI0
aI0
aI0
aI0
aF0.20236428443814197
asg10
F0.40497062224626085
ssg135
(dp351
g126
(lp352
I0
aF0
aF1
aI0
aI0
aI0
aF0.024260619474961439
asg128
F0.57752742712630212
ssV\u8d85\u7ea7\u8bfe\u7a0b\u8868
p353
(dp354
g101
(lp355
I0
aI0
aI0
aI0
aI0
aI0
aF0.036372794524919982
asg10
F0.17168996857433108
ssg41
(dp356
g101
(lp357
I0
aI0
aI0
aI0
aI0
aI0
aF0.11495278466260776
asg10
F0.30522235201116682
ssV\u4e09\u56fd\u6740
p358
(dp359
g101
(lp360
I0
aI0
aI0
aI0
aI0
aI0
aF0.083615908980999645
asg10
F0.2603161090166633
ssVFlappy Bird
p361
(dp362
g101
(lp363
I0
aI0
aI0
aI0
aI0
aI0
aF0.13286412051050914
asg10
F0.3281409605620948
ssV\u5c0f\u6069\u7231
p364
(dp365
g101
(lp366
I0
aI0
aI0
aI0
aI0
aI0
aF0.022547027717267281
asg10
F0.13517651195743266
ssg236
(dp367
g101
(lp368
I0
aI0
aI0
aI0
aI0
aI0
aF0.10382948887184636
asg10
F0.29007943747988862
ssV\u76f8\u673a
p369
(dp370
g101
(lp371
I0
aI0
aI0
aI0
aI0
aI0
aF0.16478050921721313
asg10
F0.36543446713050903
ssg59
(dp372
g101
(lp373
I0
aI0
aI0
aI0
aI0
aI0
aF0.086509434022725429
asg10
F0.26478191686663244
ssV\u591a\u7c73\u97f3\u4e50
p374
(dp375
g101
(lp376
I0
aI0
aI0
aI0
aI0
aI0
aF0.048595000668261827
asg10
F0.19845058466596049
ssVQQ\u7a7a\u95f4
p377
(dp378
g101
(lp379
I0
aI0
aI0
aI0
aI0
aI0
aF0.053797169158156001
asg10
F0.20880279041722713
ssV\u4e2d\u56fd\u5efa\u8bbe\u94f6\u884c
p380
(dp381
g101
(lp382
I0
aI0
aI0
aI0
aI0
aI0
aF0.073043513285571932
asg10
F0.2433029717404831
ssVQQ
p383
(dp384
g101
(lp385
I0
aI0
aI0
aI0
aI0
aI0
aF0.54573082798567341
asg10
F0.66503703351937105
ssg169
(dp386
g101
(lp387
I0
aI0
aI0
aI0
aI0
aI0
aF0.043685901900926707
asg10
F0.18815997193929063
ssg55
(dp388
g101
(lp389
I0
aI0
aI0
aI0
aI0
aI0
aF0.018667165304870472
asg10
F0.12299735526975519
ssg65
(dp390
g101
(lp391
I0
aI0
aI0
aI0
aI0
aI0
aF0.07321491863893792
asg10
F0.24358827424792326
ssg174
(dp392
g126
(lp393
I0
aF0
aF0.54545454545454541
aI0
aI0
aI0
aF0.24023617951269891
asg128
F0.65307481858039584
ssg83
(dp394
g101
(lp395
I0
aI0
aI0
aI0
aI0
aI0
aF0.044217247541159917
asg10
F0.18930079548471301
ssg91
(dp396
g101
(lp397
I0
aI0
aI0
aI0
aI0
aI0
aF0.081345837383885927
asg10
F0.25675815933464619
ssg270
(dp398
g101
(lp399
I0
aI0
aI0
aI0
aI0
aI0
aF0.047809592322811421
asg10
F0.1968403401049755
sssg19
(dp400
g181
(dp401
g126
(lp402
F0
aF0
aF0.75
aI0
aI0
aI0
aF0.10517199794586524
asg128
F0.59754423044833038
ssg11
(dp403
g101
(lp404
I0
aI0
aI0
aI0
aI0
aI0
aF0.22499836790882685
asg10
F0.42701808683268544
ssg41
(dp405
g101
(lp406
I0
aI0
aI0
aI0
aI0
aI0
aF0.11115116998917175
asg10
F0.30013290082826699
ssVYY
p407
(dp408
g101
(lp409
I0
aI0
aI0
aI0
aI0
aI0
aF0.10411928404630626
asg10
F0.29048397113885499
ssV\u817e\u8baf\u65b0\u95fb
p410
(dp411
g101
(lp412
I0
aI0
aI0
aI0
aI0
aI0
aF0.1318551790446604
asg10
F0.32689267040523479
ssg77
(dp413
g101
(lp414
I0
aI0
aI0
aI0
aI0
aI0
aF0.011999402899591475
asg10
F0.098613507105402037
ssV\u6298800
p415
(dp416
g101
(lp417
I0
aI0
aI0
aI0
aI0
aI0
aF0.045395229535601732
asg10
F0.1918057819352515
ssV\u6dd8\u5b9d
p418
(dp419
g126
(lp420
I0
aF0
aI0
aF1
aI0
aI0
aF0.18777531189413665
asg128
F0.68268179151084141
ssVWPS Office
p421
(dp422
g101
(lp423
I0
aI0
aI0
aI0
aI0
aI0
aF0.086709829536266533
asg10
F0.26508841763086333
ssg207
(dp424
g101
(lp425
I0
aI0
aI0
aI0
aI0
aI0
aF0.12170364274098001
asg10
F0.31405692581292766
ssg135
(dp426
g126
(lp427
F0
aF0
aF1
aI0
aI0
aI0
aF0.033789815886867469
asg128
F0.58417517423386267
ssg39
(dp428
g101
(lp429
I0
aI0
aI0
aI0
aI0
aI0
aF0.02581687055223238
asg10
F0.14464665174032146
ssV\u4e09\u56fd\u6740
p430
(dp431
g101
(lp432
I0
aI0
aI0
aI0
aI0
aI0
aF0.0093688131835865142
asg10
F0.087136252085224228
ssVFlappy Bird
p433
(dp434
g101
(lp435
I0
aI0
aI0
aI0
aI0
aI0
aF0.11829489380271466
asg10
F0.30962754255489994
ssg89
(dp436
g101
(lp437
I0
aI0
aI0
aI0
aI0
aI0
aF0.026032557756532963
asg10
F0.14524962065504565
ssg53
(dp438
g101
(lp439
I0
aI0
aI0
aI0
aI0
aI0
aF0.074758384982997417
asg10
F0.24614246291925312
ssVQQ\u5b89\u5168\u4e2d\u5fc3
p440
(dp441
g101
(lp442
I0
aI0
aI0
aI0
aI0
aI0
aF0.024443835355365824
asg10
F0.14074768534679555
ssV\u76f8\u673a
p443
(dp444
g101
(lp445
I0
aI0
aI0
aI0
aI0
aI0
aF0.11727031994173727
asg10
F0.30828375594701518
ssg61
(dp446
g101
(lp447
I0
aI0
aI0
aI0
aI0
aI0
aF0.03379302639694734
asg10
F0.16548938053824735
ssg246
(dp448
g101
(lp449
I0
aI0
aI0
aI0
aI0
aI0
aF0.081671512965063642
asg10
F0.2572716234380914
ssVQQ\u7a7a\u95f4
p450
(dp451
g101
(lp452
I0
aI0
aI0
aI0
aI0
aI0
aF0.034136535651701057
asg10
F0.16632836131827694
ssg380
(dp453
g101
(lp454
I0
aI0
aI0
aI0
aI0
aI0
aF0.059449355979948916
asg10
F0.21949779591777621
ssVQQ
p455
(dp456
g101
(lp457
I0
aI0
aI0
aI0
aI0
aI0
aF0.41331938696587844
asg10
F0.57876128846006214
ssg65
(dp458
g101
(lp459
I0
aI0
aI0
aI0
aI0
aI0
aF0.052057740025468389
asg10
F0.2053994335839493
ssg174
(dp460
g126
(lp461
F0
aF0
aF0.54545454545454541
aI0
aI0
aI0
aF0.21172343636321922
asg128
F0.63513719819193581
ssV\u6b63\u5e38\u7684\u5927\u5192\u9669
p462
(dp463
g101
(lp464
I0
aI0
aI0
aI0
aI0
aI0
aF0.053270973722515894
asg10
F0.20777912073383928
ssg91
(dp465
g101
(lp466
I0
aI0
aI0
aI0
aI0
aI0
aF0.080664950680842784
asg10
F0.255681333582093
ssg177
(dp467
g101
(lp468
I0
aI0
aI0
aI0
aI0
aI0
aF0.024219662030554319
asg10
F0.14010080342410289
sssg21
(dp469
V\u652f\u4ed8\u5b9d\u94b1\u5305
p470
(dp471
g101
(lp472
I0
aI0
aI0
aI0
aI0
aI0
aF0.12738511749429487
asg10
F0.32130385224655833
ssg11
(dp473
g101
(lp474
I0
aI0
aI0
aI0
aI0
aI0
aF0.34457528235244322
asg10
F0.52844360530732348
ssg13
(dp475
g101
(lp476
I0
aI0
aI0
aI0
aI0
aI0
aF0.0096287793380859018
asg10
F0.088336909979892159
ssg15
(dp477
g101
(lp478
I0
aI0
aI0
aI0
aI0
aI0
aF0.066679666455574896
asg10
F0.23246270972536143
ssg19
(dp479
g101
(lp480
I0
aI0
aI0
aI0
aI0
aI0
aF0.15635711176463263
asg10
F0.35597164562515871
ssg410
(dp481
g101
(lp482
I0
aI0
aI0
aI0
aI0
aI0
aF0.12746217254087777
asg10
F0.32140101563930823
ssg87
(dp483
g101
(lp484
I0
aI0
aI0
aI0
aI0
aI0
aF0.10942472287997264
asg10
F0.29779288298225171
ssg341
(dp485
g101
(lp486
I0
aI0
aI0
aI0
aI0
aI0
aF0.20614469748497796
asg10
F0.40873579308440749
ssg17
(dp487
g101
(lp488
I0
aI0
aI0
aI0
aI0
aI0
aF0.2235704552850489
asg10
F0.42566093252631687
ssg31
(dp489
g101
(lp490
I0
aI0
aI0
aI0
aI0
aI0
aF0.029136812634502587
asg10
F0.15366593652788685
ssg421
(dp491
g101
(lp492
I0
aI0
aI0
aI0
aI0
aI0
aF0.13485567190106768
asg10
F0.33059112860210299
ssV\u5370\u8c61\u7b14\u8bb0
p493
(dp494
g101
(lp495
I0
aI0
aI0
aI0
aI0
aI0
aF0.21084782673327943
asg10
F0.41337209035319117
ssg37
(dp496
g101
(lp497
I0
aI0
aI0
aI0
aI0
aI0
aF0.073963490046567076
asg10
F0.24483036742561823
ssg212
(dp498
g101
(lp499
I0
aI0
aI0
aI0
aI0
aI0
aF0.026620303634330888
asg10
F0.14688014375691677
ssg77
(dp500
g101
(lp501
I0
aI0
aI0
aI0
aI0
aI0
aF0.029758388039422601
asg10
F0.15529636407464567
ssg41
(dp502
g101
(lp503
I0
aI0
aI0
aI0
aI0
aI0
aF0.16060330216452004
asg10
F0.36077282888917395
ssV\u667a\u884c\u706b\u8f66\u7968
p504
(dp505
g101
(lp506
I0
aI0
aI0
aI0
aI0
aI0
aF0.046396970680545442
asg10
F0.19391053270273625
ssV\u4e09\u56fd\u6740
p507
(dp508
g101
(lp509
I0
aI0
aI0
aI0
aI0
aI0
aF0.09821220178282325
asg10
F0.28212353067441864
ssg47
(dp510
g101
(lp511
I0
aI0
aI0
aI0
aI0
aI0
aF0.14511666412846755
asg10
F0.34293769916870642
ssV\u5c0f\u6069\u7231
p512
(dp513
g126
(lp514
F0
aF0
aF0.41666666666666663
aI0
aI0
aI0
aF0.037325440294986099
asg128
F0.4825514522384472
ssg53
(dp515
g101
(lp516
I0
aI0
aI0
aI0
aI0
aI0
aF0.10071232031759332
asg10
F0.28569187374812427
ssg236
(dp517
g101
(lp518
I0
aI0
aI0
aI0
aI0
aI0
aF0.13590338619596781
asg10
F0.33187285040989578
ssg57
(dp519
g101
(lp520
I0
aI0
aI0
aI0
aI0
aI0
aF0.16583980641677842
asg10
F0.3666071894803361
ssg59
(dp521
g101
(lp522
I0
aI0
aI0
aI0
aI0
aI0
aF0.043477289968295849
asg10
F0.18771017708430807
ssg246
(dp523
g101
(lp524
I0
aI0
aI0
aI0
aI0
aI0
aF0.17088180786501894
asg10
F0.37213841327262809
ssg65
(dp525
g101
(lp526
I0
aI0
aI0
aI0
aI0
aI0
aF0.042889793617497694
asg10
F0.18643762623055224
ssg160
(dp527
g101
(lp528
I0
aI0
aI0
aI0
aI0
aI0
aF0.090775276049626444
asg10
F0.27123165607575439
ssg163
(dp529
g101
(lp530
I0
aI0
aI0
aI0
aI0
aI0
aF0.047438432442143588
asg10
F0.19607478677414938
ssVQQ
p531
(dp532
g101
(lp533
I0
aI0
aI0
aI0
aI0
aI0
aF0.74917861078382186
asg10
F0.77920058758155364
ssV58\u540c\u57ce
p534
(dp535
g101
(lp536
I0
aI0
aI0
aI0
aI0
aI0
aF0.066258305323962624
asg10
F0.23172705829872314
ssg55
(dp537
g101
(lp538
I0
aI0
aI0
aI0
aI0
aI0
aF0.039638613611079544
asg10
F0.17923210882695859
ssg157
(dp539
g101
(lp540
I0
aI0
aI0
aI0
aI0
aI0
aF0.068962436015208448
asg10
F0.23640838901343766
ssg174
(dp541
g126
(lp542
F0
aF0
aF0.63636363636363635
aI0
aI0
aI0
aF0.28261055707620342
asg128
F0.69240282404200459
ssg85
(dp543
g101
(lp544
I0
aI0
aI0
aI0
aI0
aI0
aF0.05315356345277835
asg10
F0.20755001980207957
ssg91
(dp545
g101
(lp546
I0
aI0
aI0
aI0
aI0
aI0
aF0.07089892889160844
asg10
F0.23970463048533422
ssg270
(dp547
g101
(lp548
I0
aI0
aI0
aI0
aI0
aI0
aF0.06210310123832815
asg10
F0.22434336543387007
sssg23
(dp549
V\u652f\u4ed8\u5b9d\u94b1\u5305
p550
(dp551
g101
(lp552
I0
aI0
aI0
aI0
aI0
aI0
aF0.08620917092263683
asg10
F0.26432200548626794
ssg11
(dp553
g101
(lp554
I0
aI0
aI0
aI0
aI0
aI0
aF0.19380908278667452
asg10
F0.39631786498000626
ssg13
(dp555
g101
(lp556
I0
aI0
aI0
aI0
aI0
aI0
aF0.017755102780950594
asg10
F0.11995495216119388
ssV\u65fa\u4fe1
p557
(dp558
g101
(lp559
I0
aI0
aI0
aI0
aI0
aI0
aF0.086293540264285262
asg10
F0.26445131435114572
ssg407
(dp560
g101
(lp561
I0
aI0
aI0
aI0
aI0
aI0
aF0.10696860891595661
asg10
F0.29443183153629326
ssg197
(dp562
g101
(lp563
I0
aI0
aI0
aI0
aI0
aI0
aF0.035615139578961619
asg10
F0.16989238450855365
ssV\u6298800
p564
(dp565
g101
(lp566
I0
aI0
aI0
aI0
aI0
aI0
aF0.04537499681516477
asg10
F0.19176303311214293
ssg17
(dp567
g101
(lp568
I0
aI0
aI0
aI0
aI0
aI0
aF0.094789491643778451
asg10
F0.2771639126990233
ssg421
(dp569
g101
(lp570
I0
aI0
aI0
aI0
aI0
aI0
aF0.077457638947929716
asg10
F0.25054671555631591
ssV\u5370\u8c61\u7b14\u8bb0
p571
(dp572
g101
(lp573
I0
aI0
aI0
aI0
aI0
aI0
aF0.082272153022809089
asg10
F0.25821592191446091
ssg37
(dp574
g101
(lp575
I0
aI0
aI0
aI0
aI0
aI0
aF0.024581484027407174
asg10
F0.1411434197676934
ssg212
(dp576
g101
(lp577
I0
aI0
aI0
aI0
aI0
aI0
aF0.047299388972420343
asg10
F0.1957872253633631
ssg41
(dp578
g101
(lp579
I0
aI0
aI0
aI0
aI0
aI0
aF0.13082637793010887
asg10
F0.32561488166573627
ssg220
(dp580
g101
(lp581
I0
aI0
aI0
aI0
aI0
aI0
aF0.032253042769836003
asg10
F0.16167465123875394
ssV\u4e09\u56fd\u6740
p582
(dp583
g101
(lp584
I0
aI0
aI0
aI0
aI0
aI0
aF0.13329366291550357
asg10
F0.32867096339259277
ssVFlappy Bird
p585
(dp586
g101
(lp587
I0
aI0
aI0
aI0
aI0
aI0
aF0.073934887283456735
asg10
F0.24478302310646879
ssg51
(dp588
g101
(lp589
I0
aI0
aI0
aI0
aI0
aI0
aF0.017123305683829464
asg10
F0.11780138361127268
ssg53
(dp590
g101
(lp591
I0
aI0
aI0
aI0
aI0
aI0
aF0.1789962587549056
asg10
F0.3808715763809547
ssVQQ\u5b89\u5168\u4e2d\u5fc3
p592
(dp593
g101
(lp594
I0
aI0
aI0
aI0
aI0
aI0
aF0.06703171026152302
asg10
F0.23307556015135605
ssV\u76f8\u673a
p595
(dp596
g101
(lp597
I0
aI0
aI0
aI0
aI0
aI0
aF0.065195980778798263
asg10
F0.22986190310177751
ssg59
(dp598
g101
(lp599
I0
aI0
aI0
aI0
aI0
aI0
aF0.021248213721229783
asg10
F0.13122536805058863
ssg61
(dp600
g101
(lp601
I0
aI0
aI0
aI0
aI0
aI0
aF0.024583690623823418
asg10
F0.14114975460847901
ssg246
(dp602
g101
(lp603
I0
aI0
aI0
aI0
aI0
aI0
aF0.063457170136662314
asg10
F0.22677591972861516
ssV\u4e2d\u56fd\u5efa\u8bbe\u94f6\u884c
p604
(dp605
g101
(lp606
I0
aI0
aI0
aI0
aI0
aI0
aF0.037996000091870451
asg10
F0.17547915181221457
ssg71
(dp607
g101
(lp608
I0
aI0
aI0
aI0
aI0
aI0
aF0.024651343636939573
asg10
F0.14134383949269871
ssVQQ
p609
(dp610
g101
(lp611
I0
aI0
aI0
aI0
aI0
aI0
aF0.47311773346489994
asg10
F0.61921461731596039
ssg77
(dp612
g101
(lp613
I0
aI0
aI0
aI0
aI0
aI0
aF0.022282952462744903
asg10
F0.1343825733777376
ssg450
(dp614
g101
(lp615
I0
aI0
aI0
aI0
aI0
aI0
aF0.068865911443306616
asg10
F0.23624288435399773
ssg174
(dp616
g126
(lp617
I0
aF0
aF0.19090909090909092
aF1
aI0
aI0
aF0.23424119221082337
asg128
F0.72963324254947726
ssVQQ\u97f3\u4e50
p618
(dp619
g101
(lp620
I0
aI0
aI0
aI0
aI0
aI0
aF0.025550685404305051
asg10
F0.14389902915105543
ssg364
(dp621
g101
(lp622
I0
aI0
aI0
aI0
aI0
aI0
aF0.024272608874445399
asg10
F0.14025385770083373
ssg91
(dp623
g101
(lp624
I0
aI0
aI0
aI0
aI0
aI0
aF0.045704674925375395
asg10
F0.19245841229231966
sssg53
(dp625
V\u652f\u4ed8\u5b9d\u94b1\u5305
p626
(dp627
g101
(lp628
I0
aI0
aI0
aI0
aI0
aI0
aF0.14193492603311333
asg10
F0.33915734309678647
ssVUC\u6d4f\u89c8\u5668
p629
(dp630
g101
(lp631
I0
aI0
aI0
aI0
aI0
aI0
aF0.28199232526986812
asg10
F0.47805210060825121
ssg106
(dp632
g101
(lp633
I0
aI0
aI0
aI0
aI0
aI0
aF0.11763995001589214
asg10
F0.30876922105431681
ssV\u65fa\u4fe1
p634
(dp635
g101
(lp636
I0
aI0
aI0
aI0
aI0
aI0
aF0.025490777479446215
asg10
F0.14373023228335099
ssVYY
p637
(dp638
g101
(lp639
I0
aI0
aI0
aI0
aI0
aI0
aF0.13838858386024502
asg10
F0.33489350060679551
ssV\u817e\u8baf\u65b0\u95fb
p640
(dp641
g101
(lp642
I0
aI0
aI0
aI0
aI0
aI0
aF0.081730014463142278
asg10
F0.25736374908004589
ssV\u6298800
p643
(dp644
g101
(lp645
I0
aI0
aI0
aI0
aI0
aI0
aF0.079150900108208341
asg10
F0.25327044623652534
ssg17
(dp646
g101
(lp647
I0
aI0
aI0
aI0
aI0
aI0
aF0.13748611969764099
asg10
F0.3337997553196127
ssVWPS Office
p648
(dp649
g101
(lp650
I0
aI0
aI0
aI0
aI0
aI0
aF0.15883346921800512
asg10
F0.35877948110919244
ssg207
(dp651
g101
(lp652
I0
aI0
aI0
aI0
aI0
aI0
aF0.18875047462182251
asg10
F0.391111524170487
ssg212
(dp653
g101
(lp654
I0
aI0
aI0
aI0
aI0
aI0
aF0.039132576180337469
asg10
F0.17808437080637235
ssg13
(dp655
g101
(lp656
I0
aI0
aI0
aI0
aI0
aI0
aF0.019156009740640974
asg10
F0.12459743764799167
ssg220
(dp657
g101
(lp658
I0
aI0
aI0
aI0
aI0
aI0
aF0.024670314284590069
asg10
F0.14139821520024765
ssV\u4e09\u56fd\u6740
p659
(dp660
g101
(lp661
I0
aI0
aI0
aI0
aI0
aI0
aF0.23665104499026862
asg10
F0.43793615376277434
ssg144
(dp662
g101
(lp663
I0
aI0
aI0
aI0
aI0
aI0
aF0.13064329396756488
asg10
F0.32538696228419173
ssg512
(dp664
g126
(lp665
F0
aF0
aF0.32692307692307693
aI0
aI0
aI0
aF0.071921288944350986
asg128
F0.48759882294744405
ssVQQ\u5b89\u5168\u4e2d\u5fc3
p666
(dp667
g101
(lp668
I0
aI0
aI0
aI0
aI0
aI0
aF0.10813943177083771
asg10
F0.29603879523501392
ssV\u76f8\u673a
p669
(dp670
g101
(lp671
I0
aI0
aI0
aI0
aI0
aI0
aF0.14079657745665103
asg10
F0.33779454776829171
ssg59
(dp672
g101
(lp673
I0
aI0
aI0
aI0
aI0
aI0
aF0.048832002353578326
asg10
F0.19893392570636401
ssg154
(dp674
g101
(lp675
I0
aI0
aI0
aI0
aI0
aI0
aF0.094312411199855326
asg10
F0.2764655426597894
ssg65
(dp676
g101
(lp677
I0
aI0
aI0
aI0
aI0
aI0
aF0.061471558016966889
asg10
F0.22319974640298373
ssV\u4e2d\u56fd\u5efa\u8bbe\u94f6\u884c
p678
(dp679
g101
(lp680
I0
aI0
aI0
aI0
aI0
aI0
aF0.0483234145569802
asg10
F0.1978952606961695
ssVQQ
p681
(dp682
g101
(lp683
I0
aI0
aI0
aI0
aI0
aI0
aF0.64369886289279477
asg10
F0.72226730745323908
ssVQQ\u7a7a\u95f4
p684
(dp685
g101
(lp686
I0
aI0
aI0
aI0
aI0
aI0
aF0.026055662632958217
asg10
F0.1453140636164176
ssg174
(dp687
g126
(lp688
F0
aF0
aF0.72727272727272729
aI0
aI0
aI0
aF0.19432368852040333
asg128
F0.65204269739435561
sssg27
(dp689
g181
(dp690
g126
(lp691
F0
aF0
aF0.75
aI0
aI0
aI0
aF0.074536191218378609
asg128
F0.5763948855123493
ssVUC\u6d4f\u89c8\u5668
p692
(dp693
g101
(lp694
I0
aI0
aI0
aI0
aI0
aI0
aF0.24311534756930245
asg10
F0.44387713540146007
ssg106
(dp695
g101
(lp696
I0
aI0
aI0
aI0
aI0
aI0
aF0.14599649867500616
asg10
F0.3439757345907799
ssg188
(dp697
g101
(lp698
I0
aI0
aI0
aI0
aI0
aI0
aF0.090962664810920038
asg10
F0.27151146553053462
ssVYY
p699
(dp700
g101
(lp701
I0
aI0
aI0
aI0
aI0
aI0
aF0.16318442157709814
asg10
F0.36366033522850877
ssg194
(dp702
g101
(lp703
I0
aI0
aI0
aI0
aI0
aI0
aF0.09459818488453707
asg10
F0.27688408152093558
ssg53
(dp704
g101
(lp705
I0
aI0
aI0
aI0
aI0
aI0
aF0.11559867382518281
asg10
F0.30607863255325068
ssg17
(dp706
g101
(lp707
I0
aI0
aI0
aI0
aI0
aI0
aF0.18447778367016207
asg10
F0.38665944452023504
ssVWPS Office
p708
(dp709
g101
(lp710
I0
aI0
aI0
aI0
aI0
aI0
aF0.042347766996628101
asg10
F0.18525581287224543
ssg207
(dp711
g101
(lp712
I0
aI0
aI0
aI0
aI0
aI0
aF0.12540106621441585
asg10
F0.31879184343185984
ssg135
(dp713
g126
(lp714
F0
aF0
aF1
aI0
aI0
aI0
aF0.024331253385529709
asg128
F0.57757698414614633
ssV\u667a\u884c\u706b\u8f66\u7968
p715
(dp716
g101
(lp717
I0
aI0
aI0
aI0
aI0
aI0
aF0.040381937895520137
asg10
F0.1809048310412639
ssg358
(dp718
g101
(lp719
I0
aI0
aI0
aI0
aI0
aI0
aF0.12301987940520495
asg10
F0.31575063672629666
ssg433
(dp720
g101
(lp721
I0
aI0
aI0
aI0
aI0
aI0
aF0.043520050868627223
asg10
F0.18780246300587428
ssg231
(dp722
g101
(lp723
I0
aI0
aI0
aI0
aI0
aI0
aF0.019579789780715603
asg10
F0.12596810580049039
ssg236
(dp724
g101
(lp725
I0
aI0
aI0
aI0
aI0
aI0
aF0.1023657369922665
asg10
F0.28802746048550276
ssg369
(dp726
g101
(lp727
I0
aI0
aI0
aI0
aI0
aI0
aF0.10159158332030374
asg10
F0.28693627168429142
ssg59
(dp728
g101
(lp729
I0
aI0
aI0
aI0
aI0
aI0
aF0.026417025185169026
asg10
F0.14631826462420208
ssV\u591a\u7c73\u97f3\u4e50
p730
(dp731
g101
(lp732
I0
aI0
aI0
aI0
aI0
aI0
aF0.049519784004518771
asg10
F0.2003299844808831
ssg65
(dp733
g101
(lp734
I0
aI0
aI0
aI0
aI0
aI0
aF0.018265656615101898
asg10
F0.1216674010003434
ssg380
(dp735
g101
(lp736
I0
aI0
aI0
aI0
aI0
aI0
aF0.07775801794088108
asg10
F0.25103205276197432
ssVQQ
p737
(dp738
g126
(lp739
I0
aF0
aI0
aF1
aI0
aI0
aF0.40231741205219745
asg128
F0.79995302827780845
ssg169
(dp740
g101
(lp741
I0
aI0
aI0
aI0
aI0
aI0
aF0.048583166908605369
asg10
F0.19842642004533917
ssg55
(dp742
g101
(lp743
I0
aI0
aI0
aI0
aI0
aI0
aF0.042428962608298967
asg10
F0.18543332820335073
ssg450
(dp744
g101
(lp745
I0
aI0
aI0
aI0
aI0
aI0
aF0.020322457759707722
asg10
F0.12833487776792962
ssg174
(dp746
g126
(lp747
F0
aF0
aF0.54545454545454541
aI0
aI0
aI0
aF0.14545969536938166
asg128
F0.5913522011230542
ssg618
(dp748
g101
(lp749
I0
aI0
aI0
aI0
aI0
aI0
aF0.025409283484309434
asg10
F0.14350029564080799
ssg91
(dp750
g101
(lp751
I0
aI0
aI0
aI0
aI0
aI0
aF0.020553403353327327
asg10
F0.12906202029411706
ssg270
(dp752
g101
(lp753
I0
aI0
aI0
aI0
aI0
aI0
aF0.06186982705949523
asg10
F0.22392162521369338
sssg29
(dp754
VQQ
p755
(dp756
g101
(lp757
I0
aI0
aI0
aI0
aI0
aI0
aF0.058325298104322965
asg10
F0.21741278041701537
ssg174
(dp758
g126
(lp759
F0
aF0
aF0.87575757575757573
aI0
aI0
aI0
aI0
asg128
F0.54197016170332246
ssVQQ\u7a7a\u95f4
p760
(dp761
g126
(lp762
F0
aF0
aF0.66666666666666663
aI0
aI0
aI0
aI0
asg128
F0.50624015042269443
ssg512
(dp763
g126
(lp764
F0
aF0
aF0.8666666666666667
aI0
aI0
aI0
aI0
asg128
F0.54055815623366921
ssg17
(dp765
g101
(lp766
I0
aI0
aI0
aI0
aI0
aI0
aF0.041636290351610157
asg10
F0.18369299738158953
sssg31
(dp767
V\u5fae\u4fe1
p768
(dp769
g126
(lp770
I0
aF0
aI0
aF0.5
aI0
aI0
aI0
asg128
F0.47110954385593734
ssg85
(dp771
g101
(lp772
I0
aI0
aI0
aI0
aI0
aI0
aF0.025685371160327028
asg10
F0.1442777993342757
sssg33
(dp773
g470
(dp774
g101
(lp775
I0
aI0
aI0
aI0
aI0
aI0
aF0.056480409636208137
asg10
F0.2139466572997962
ssg11
(dp776
g101
(lp777
I0
aI0
aI0
aI0
aI0
aI0
aF0.14549257322472345
asg10
F0.34338158349178616
ssg106
(dp778
g101
(lp779
I0
aI0
aI0
aI0
aI0
aI0
aF0.096947366017352349
asg10
F0.28030096543628408
ssg557
(dp780
g101
(lp781
I0
aI0
aI0
aI0
aI0
aI0
aF0.03504585101646774
asg10
F0.16852909619993323
ssVYY
p782
(dp783
g101
(lp784
I0
aI0
aI0
aI0
aI0
aI0
aF0.091906724634185102
asg10
F0.2729167752295984
ssg23
(dp785
g101
(lp786
I0
aI0
aI0
aI0
aI0
aI0
aF0.059994601709502673
asg10
F0.22050207149255191
ssg25
(dp787
g101
(lp788
I0
aI0
aI0
aI0
aI0
aI0
aF0.076787246424484923
asg10
F0.24946012383883057
ssV\u6298800
p789
(dp790
g101
(lp791
I0
aI0
aI0
aI0
aI0
aI0
aF0.081792008512274139
asg10
F0.25746133866568738
ssg17
(dp792
g101
(lp793
I0
aI0
aI0
aI0
aI0
aI0
aF0.13714864889330594
asg10
F0.33338983436600556
ssg35
(dp794
g101
(lp795
I0
aI0
aI0
aI0
aI0
aI0
aF0.12103369816310112
asg10
F0.31319133510885355
ssg37
(dp796
g101
(lp797
I0
aI0
aI0
aI0
aI0
aI0
aF0.035413224604620139
asg10
F0.16941010962024286
ssg138
(dp798
g101
(lp799
I0
aI0
aI0
aI0
aI0
aI0
aF0.050426446959577667
asg10
F0.20215559746991163
ssg77
(dp800
g101
(lp801
I0
aI0
aI0
aI0
aI0
aI0
aF0.025391473380721688
asg10
F0.14344999506583198
ssg358
(dp802
g101
(lp803
I0
aI0
aI0
aI0
aI0
aI0
aF0.0097768673888074427
asg10
F0.089013617038014636
ssg585
(dp804
g101
(lp805
I0
aI0
aI0
aI0
aI0
aI0
aF0.057948168906481551
asg10
F0.21670874905468809
ssg53
(dp806
g101
(lp807
I0
aI0
aI0
aI0
aI0
aI0
aF0.14415896226261563
asg10
F0.34180421203203015
ssV\u76f8\u673a
p808
(dp809
g101
(lp810
I0
aI0
aI0
aI0
aI0
aI0
aF0.15261526725800556
asg10
F0.35168640257647105
ssg59
(dp811
g101
(lp812
I0
aI0
aI0
aI0
aI0
aI0
aF0.051874299641380593
asg10
F0.20503722229339666
ssg63
(dp813
g101
(lp814
I0
aI0
aI0
aI0
aI0
aI0
aF0.064994667108171977
asg10
F0.22950674224749931
ssg160
(dp815
g101
(lp816
I0
aI0
aI0
aI0
aI0
aI0
aF0.013174739339407967
asg10
F0.10333027906171982
ssg73
(dp817
g101
(lp818
I0
aI0
aI0
aI0
aI0
aI0
aF0.38645535839660683
asg10
F0.5596367852932207
ssg55
(dp819
g101
(lp820
I0
aI0
aI0
aI0
aI0
aI0
aF0.036412437004995656
asg10
F0.17178350500374417
ssVQQ\u7a7a\u95f4
p821
(dp822
g101
(lp823
I0
aI0
aI0
aI0
aI0
aI0
aF0.021108159628067988
asg10
F0.13079217786940042
ssg174
(dp824
g126
(lp825
F0.050000000000000003
aF0
aF0.19090909090909092
aI0
aI0
aI0
aF0.14945278808637852
asg128
F0.53889958859865372
ssg270
(dp826
g101
(lp827
I0
aI0
aI0
aI0
aI0
aI0
aF0.05616878910957171
asg10
F0.21335563480907516
sssg35
(dp828
g53
(dp829
g101
(lp830
I0
aI0
aI0
aI0
aI0
aI0
aF0.16151300744052238
asg10
F0.36179314883770702
ssV\u652f\u4ed8\u5b9d\u94b1\u5305
p831
(dp832
g101
(lp833
I0
aI0
aI0
aI0
aI0
aI0
aF0.1386443500179696
asg10
F0.33520282845007759
ssVUC\u6d4f\u89c8\u5668
p834
(dp835
g101
(lp836
I0
aI0
aI0
aI0
aI0
aI0
aF0.22730716551809543
asg10
F0.42920339614700304
ssVGoogle Play services
p837
(dp838
g126
(lp839
F0.66666666666666663
aF0
aI0
aI0
aI0
aI0
aI0
asg128
F0.60202438878271602
ssg15
(dp840
g101
(lp841
I0
aI0
aI0
aI0
aI0
aI0
aF0.058617072414565326
asg10
F0.21795590946563603
ssV\u65fa\u4fe1
p842
(dp843
g101
(lp844
I0
aI0
aI0
aI0
aI0
aI0
aF0.10964464476528574
asg10
F0.29809198494710132
ssg637
(dp845
g101
(lp846
I0
aI0
aI0
aI0
aI0
aI0
aF0.18325641926874248
asg10
F0.38537734885314157
ssg23
(dp847
g101
(lp848
I0
aI0
aI0
aI0
aI0
aI0
aF0.13714900870372984
asg10
F0.33339027169098073
ssV\u6b63\u5e38\u7684\u5927\u5192\u9669
p849
(dp850
g101
(lp851
I0
aI0
aI0
aI0
aI0
aI0
aF0.054207506579247444
asg10
F0.20959759839615508
ssV\u6298800
p852
(dp853
g101
(lp854
I0
aI0
aI0
aI0
aI0
aI0
aF0.12671561470986856
asg10
F0.32045839549841648
ssg17
(dp855
g101
(lp856
I0
aI0
aI0
aI0
aI0
aI0
aF0.1352717690946651
asg10
F0.33110075527722893
ssVWPS Office
p857
(dp858
g101
(lp859
I0
aI0
aI0
aI0
aI0
aI0
aF0.12873499185813686
asg10
F0.32300176201491382
ssg37
(dp860
g101
(lp861
I0
aI0
aI0
aI0
aI0
aI0
aF0.033032132288339885
asg10
F0.16361566848995507
ssV\u8d85\u7ea7\u8bfe\u7a0b\u8868
p862
(dp863
g101
(lp864
I0
aI0
aI0
aI0
aI0
aI0
aF0.018278408242489216
asg10
F0.1217098628377111
ssg41
(dp865
g101
(lp866
I0
aI0
aI0
aI0
aI0
aI0
aF0.15119680637307517
asg10
F0.35004823765535281
ssg141
(dp867
g101
(lp868
I0
aI0
aI0
aI0
aI0
aI0
aF0.10381402826417663
asg10
F0.290057839707482
ssg144
(dp869
g101
(lp870
I0
aI0
aI0
aI0
aI0
aI0
aF0.099915682208295734
asg10
F0.28455971390120144
ssg512
(dp871
g126
(lp872
F0
aF0
aF0.41666666666666663
aI0
aI0
aI0
aF0.039889745570617939
asg128
F0.48469999257637719
ssg118
(dp873
g101
(lp874
I0
aI0
aI0
aI0
aI0
aI0
aF0.10107864503786193
asg10
F0.2862109810469608
ssV\u76f8\u673a
p875
(dp876
g101
(lp877
I0
aI0
aI0
aI0
aI0
aI0
aF0.14726168057900715
asg10
F0.34546293844997816
ssg59
(dp878
g101
(lp879
I0
aI0
aI0
aI0
aI0
aI0
aF0.039744911092713373
asg10
F0.17947226816202802
ssV\u591a\u7c73\u97f3\u4e50
p880
(dp881
g101
(lp882
I0
aI0
aI0
aI0
aI0
aI0
aF0.16523148527086021
asg10
F0.3659341912478295
ssg65
(dp883
g101
(lp884
I0
aI0
aI0
aI0
aI0
aI0
aF0.027860879667028229
asg10
F0.15026367244368005
ssg380
(dp885
g101
(lp886
I0
aI0
aI0
aI0
aI0
aI0
aF0.067724845521599603
asg10
F0.23427750922175317
ssg163
(dp887
g101
(lp888
I0
aI0
aI0
aI0
aI0
aI0
aF0.023809339863349408
asg10
F0.13890896124730201
ssg71
(dp889
g101
(lp890
I0
aI0
aI0
aI0
aI0
aI0
aF0.024980692704257297
asg10
F0.14228490394786136
ssg73
(dp891
g101
(lp892
I0
aI0
aI0
aI0
aI0
aI0
aF0.56833079567886902
asg10
F0.67866770164133816
ssV58\u540c\u57ce
p893
(dp894
g101
(lp895
I0
aI0
aI0
aI0
aI0
aI0
aF0.060208768495707332
asg10
F0.22089529145603282
ssg55
(dp896
g101
(lp897
I0
aI0
aI0
aI0
aI0
aI0
aF0.036905846465883449
asg10
F0.17294347131322407
ssg760
(dp898
g126
(lp899
F0
aF0
aF0.66666666666666663
aI0
aI0
aI0
aF0.040480980221367591
asg128
F0.5376671035449796
ssg174
(dp900
g126
(lp901
F0
aF0
aF0.65151515151515149
aF0.5
aI0
aI0
aF0.25958410687607741
asg128
F0.73972314237111503
ssg51
(dp902
g101
(lp903
I0
aI0
aI0
aI0
aI0
aI0
aF0.0096048255079729025
asg10
F0.088226962243282581
ssg91
(dp904
g101
(lp905
I0
aI0
aI0
aI0
aI0
aI0
aF0.060149382303814322
asg10
F0.2207863258782766
ssVGmail
p906
(dp907
g126
(lp908
F0.66666666666666663
aF0
aI0
aI0
aI0
aI0
aF0.069125496110010731
asg128
F0.64688054474295642
sssg37
(dp909
V\u652f\u4ed8\u5b9d\u94b1\u5305
p910
(dp911
g101
(lp912
I0
aI0
aI0
aI0
aI0
aI0
aF0.028306460461610315
asg10
F0.15146049437797526
ssVUC\u6d4f\u89c8\u5668
p913
(dp914
g101
(lp915
I0
aI0
aI0
aI0
aI0
aI0
aF0.086698887671444069
asg10
F0.26507169142370746
ssg41
(dp916
g101
(lp917
I0
aI0
aI0
aI0
aI0
aI0
aF0.097550486149481183
asg10
F0.28117150503571325
ssV\u65fa\u4fe1
p918
(dp919
g101
(lp920
I0
aI0
aI0
aI0
aI0
aI0
aF0.068382457167056737
asg10
F0.23541218461729807
ssVYY
p921
(dp922
g101
(lp923
I0
aI0
aI0
aI0
aI0
aI0
aF0.055919958488206759
asg10
F0.21288252203744509
ssg23
(dp924
g101
(lp925
I0
aI0
aI0
aI0
aI0
aI0
aF0.037552320423998836
asg10
F0.17445160744919391
ssVQQ\u5b89\u5168\u4e2d\u5fc3
p926
(dp927
g101
(lp928
I0
aI0
aI0
aI0
aI0
aI0
aF0.017966903143974328
asg10
F0.12066830152492747
ssV\u6298800
p929
(dp930
g101
(lp931
I0
aI0
aI0
aI0
aI0
aI0
aF0.048766963442701802
asg10
F0.19880140239928837
ssg17
(dp932
g101
(lp933
I0
aI0
aI0
aI0
aI0
aI0
aF0.070687434144908676
asg10
F0.23934683852204797
ssg31
(dp934
g101
(lp935
I0
aI0
aI0
aI0
aI0
aI0
aF0.022097593251402859
asg10
F0.1338224800622099
ssg708
(dp936
g101
(lp937
I0
aI0
aI0
aI0
aI0
aI0
aF0.017306440728860437
asg10
F0.11842965556373491
ssV\u5370\u8c61\u7b14\u8bb0
p938
(dp939
g101
(lp940
I0
aI0
aI0
aI0
aI0
aI0
aF0.033567577112980064
asg10
F0.16493642772448724
ssV\u4e09\u56fd\u6740
p941
(dp942
g101
(lp943
I0
aI0
aI0
aI0
aI0
aI0
aF0.032041312832644837
asg10
F0.16114310870514045
ssg433
(dp944
g101
(lp945
I0
aI0
aI0
aI0
aI0
aI0
aF0.035502284802253432
asg10
F0.16962299935231601
ssV\u767e\u5ea6\u8d34\u5427
p946
(dp947
g101
(lp948
I0
aI0
aI0
aI0
aI0
aI0
aF0.022307027592912643
asg10
F0.13445514914057988
ssg239
(dp949
g101
(lp950
I0
aI0
aI0
aI0
aI0
aI0
aF0.062108567297976335
asg10
F0.22435323810698116
ssg61
(dp951
g101
(lp952
I0
aI0
aI0
aI0
aI0
aI0
aF0.019663421786315582
asg10
F0.12623684565407148
ssV\u591a\u7c73\u97f3\u4e50
p953
(dp954
g101
(lp955
I0
aI0
aI0
aI0
aI0
aI0
aF0.051687851764789024
asg10
F0.20466841570192718
ssg380
(dp956
g101
(lp957
I0
aI0
aI0
aI0
aI0
aI0
aF0.026844726733846497
asg10
F0.1474979825769783
ssg69
(dp958
g101
(lp959
I0
aI0
aI0
aI0
aI0
aI0
aF0.025525477339321097
asg10
F0.14382802692243049
ssg609
(dp960
g101
(lp961
I0
aI0
aI0
aI0
aI0
aI0
aF0.20028171465869682
asg10
F0.40288141795643972
ssg65
(dp962
g101
(lp963
I0
aI0
aI0
aI0
aI0
aI0
aF0.025441670830636705
asg10
F0.14359172115724173
ssg174
(dp964
g126
(lp965
F0
aF0
aF0.34090909090909094
aI0
aI0
aI0
aF0.10003095845020768
asg128
F0.51413232447193236
ssg85
(dp966
g101
(lp967
I0
aI0
aI0
aI0
aI0
aI0
aF0.021512937862138728
asg10
F0.13204028344233801
ssg197
(dp968
g101
(lp969
I0
aI0
aI0
aI0
aI0
aI0
aF0.028862134199436684
asg10
F0.15293990192965201
ssg91
(dp970
g101
(lp971
I0
aI0
aI0
aI0
aI0
aI0
aF0.024675766536397407
asg10
F0.14141383916180228
sssg39
(dp972
VQQ
p973
(dp974
g126
(lp975
I0
aF0
aI0
aF0.5
aI0
aI0
aF0.19259846729169144
asg128
F0.61484220624175212
ssg288
(dp976
g101
(lp977
I0
aI0
aI0
aI0
aI0
aI0
aF0.037142805044892049
asg10
F0.17349778551351702
ssg65
(dp978
g101
(lp979
I0
aI0
aI0
aI0
aI0
aI0
aF0.018891395777583343
asg10
F0.12373387380939951
ssVUC\u6d4f\u89c8\u5668
p980
(dp981
g101
(lp982
I0
aI0
aI0
aI0
aI0
aI0
aF0.035759054667020763
asg10
F0.17023529243801788
ssg13
(dp983
g101
(lp984
I0
aI0
aI0
aI0
aI0
aI0
aF0.040313842289027318
asg10
F0.18075223779677921
ssV\u5fae\u4fe1
p985
(dp986
g101
(lp987
I0
aI0
aI0
aI0
aI0
aI0
aF0.07081903310654343
asg10
F0.23956953120817634
ssg41
(dp988
g101
(lp989
I0
aI0
aI0
aI0
aI0
aI0
aF0.044690411144254594
asg10
F0.19031094316241248
ssVFlappy Bird
p990
(dp991
g101
(lp992
I0
aI0
aI0
aI0
aI0
aI0
aF0.040446951877835813
asg10
F0.18105039876328557
ssg220
(dp993
g101
(lp994
I0
aI0
aI0
aI0
aI0
aI0
aF0.024974564821188698
asg10
F0.14226745129469975
ssV\u76f8\u673a
p995
(dp996
g101
(lp997
I0
aI0
aI0
aI0
aI0
aI0
aF0.044226764789417831
asg10
F0.18932116678586902
ssg45
(dp998
g101
(lp999
I0
aI0
aI0
aI0
aI0
aI0
aF0.048037648733579442
asg10
F0.1973092553720385
ssV\u817e\u8baf\u65b0\u95fb
p1000
(dp1001
g101
(lp1002
I0
aI0
aI0
aI0
aI0
aI0
aF0.02418506189935353
asg10
F0.14000069387892466
ssg849
(dp1003
g101
(lp1004
I0
aI0
aI0
aI0
aI0
aI0
aF0.034025816956567215
asg10
F0.16605840692170762
ssV\u6298800
p1005
(dp1006
g101
(lp1007
I0
aI0
aI0
aI0
aI0
aI0
aF0.030949033016961641
asg10
F0.1583726299385203
ssg17
(dp1008
g101
(lp1009
I0
aI0
aI0
aI0
aI0
aI0
aF0.024026388964030341
asg10
F0.13954068106219047
sssg77
(dp1010
VQQ
p1011
(dp1012
g101
(lp1013
I0
aI0
aI0
aI0
aI0
aI0
aF0.15467765924696333
asg10
F0.35405471484832268
ssg53
(dp1014
g101
(lp1015
I0
aI0
aI0
aI0
aI0
aI0
aF0.026160924213598245
asg10
F0.14560729297893621
ssg79
(dp1016
g101
(lp1017
I0
aI0
aI0
aI0
aI0
aI0
aF0.059735881531171431
asg10
F0.22002611223717308
ssg11
(dp1018
g101
(lp1019
I0
aI0
aI0
aI0
aI0
aI0
aF0.049762787198716046
asg10
F0.20082091201235663
ssg41
(dp1020
g101
(lp1021
I0
aI0
aI0
aI0
aI0
aI0
aF0.063362646199980069
asg10
F0.226606957410417
ssg81
(dp1022
g101
(lp1023
I0
aI0
aI0
aI0
aI0
aI0
aF0.037387662891619357
asg10
F0.17406872394380102
ssg557
(dp1024
g101
(lp1025
I0
aI0
aI0
aI0
aI0
aI0
aF0.026092596775770811
asg10
F0.14541701915893837
ssVYY
p1026
(dp1027
g101
(lp1028
I0
aI0
aI0
aI0
aI0
aI0
aF0.067427895025151494
asg10
F0.23376333123651147
ssg223
(dp1029
g101
(lp1030
I0
aI0
aI0
aI0
aI0
aI0
aF0.039140602869335642
asg10
F0.1781026337819743
ssg246
(dp1031
g101
(lp1032
I0
aI0
aI0
aI0
aI0
aI0
aF0.056552921146477989
asg10
F0.21408394932112332
ssg204
(dp1033
g101
(lp1034
I0
aI0
aI0
aI0
aI0
aI0
aF0.054963678545475646
asg10
F0.21105443469325733
sssg41
(dp1035
g181
(dp1036
g126
(lp1037
F0
aF0
aF0.4375
aI0
aI0
aI0
aF0.069122339784125811
asg128
F0.51344747298875604
ssg629
(dp1038
g101
(lp1039
I0
aI0
aI0
aI0
aI0
aI0
aF0.22171982669496207
asg10
F0.42389554446614042
ssg41
(dp1040
g101
(lp1041
I0
aI0
aI0
aI0
aI0
aI0
aF0.12393144316764855
asg10
F0.31691831635191553
ssg17
(dp1042
g101
(lp1043
I0
aI0
aI0
aI0
aI0
aI0
aF0.13821672815094752
asg10
F0.33468549486846333
ssg842
(dp1044
g101
(lp1045
I0
aI0
aI0
aI0
aI0
aI0
aF0.10873397033428742
asg10
F0.29685147394014771
ssg699
(dp1046
g101
(lp1047
I0
aI0
aI0
aI0
aI0
aI0
aF0.15570187706089156
asg10
F0.35522498994926677
ssg194
(dp1048
g101
(lp1049
I0
aI0
aI0
aI0
aI0
aI0
aF0.08762544778488357
asg10
F0.26648435163787976
ssg53
(dp1050
g101
(lp1051
I0
aI0
aI0
aI0
aI0
aI0
aF0.15045828594708646
asg10
F0.34919228627816629
ssV\u6298800
p1052
(dp1053
g126
(lp1054
I0
aF0
aI0
aF0.16666666666666666
aI0
aI0
aF0.13173938154585085
asg128
F0.48466949321418062
ssg29
(dp1055
g101
(lp1056
I0
aI0
aI0
aI0
aI0
aI0
aF0.027528125018796621
asg10
F0.14936364469727204
ssg648
(dp1057
g101
(lp1058
I0
aI0
aI0
aI0
aI0
aI0
aF0.12254088927274885
asg10
F0.31513533395677606
ssV\u5370\u8c61\u7b14\u8bb0
p1059
(dp1060
g101
(lp1061
I0
aI0
aI0
aI0
aI0
aI0
aF0.20430815959904178
asg10
F0.40691101134689323
ssg135
(dp1062
g126
(lp1063
F0
aF0
aF0.6875
aI0
aI0
aI0
aF0.052429884744958022
asg128
F0.55022101833803194
ssg223
(dp1064
g101
(lp1065
I0
aI0
aI0
aI0
aI0
aI0
aF0.13332394209227993
asg10
F0.3287082919529955
ssVFlappy Bird
p1066
(dp1067
g101
(lp1068
I0
aI0
aI0
aI0
aI0
aI0
aF0.035349834283628388
asg10
F0.16925841810685532
ssg364
(dp1069
g101
(lp1070
I0
aI0
aI0
aI0
aI0
aI0
aF0.05639983967389077
asg10
F0.21379400414047972
ssV\u767e\u5ea6\u8d34\u5427
p1071
(dp1072
g101
(lp1073
I0
aI0
aI0
aI0
aI0
aI0
aF0.026034639550914358
asg10
F0.14525542826338758
ssg118
(dp1074
g101
(lp1075
I0
aI0
aI0
aI0
aI0
aI0
aF0.058044878585938049
asg10
F0.21688950624866318
ssV\u76f8\u673a
p1076
(dp1077
g101
(lp1078
I0
aI0
aI0
aI0
aI0
aI0
aF0.07679449349975935
asg10
F0.24947189541370707
ssg61
(dp1079
g101
(lp1080
I0
aI0
aI0
aI0
aI0
aI0
aF0.04553359638876657
asg10
F0.19209787617105289
ssV\u591a\u7c73\u97f3\u4e50
p1081
(dp1082
g101
(lp1083
I0
aI0
aI0
aI0
aI0
aI0
aF0.13651907891530277
asg10
F0.33262375442196962
ssg65
(dp1084
g101
(lp1085
I0
aI0
aI0
aI0
aI0
aI0
aF0.057151786551272059
asg10
F0.21521448193915282
ssV\u4e2d\u56fd\u5efa\u8bbe\u94f6\u884c
p1086
(dp1087
g101
(lp1088
I0
aI0
aI0
aI0
aI0
aI0
aF0.075249668535351047
asg10
F0.24694991565025173
ssVQQ
p1089
(dp1090
g101
(lp1091
I0
aI0
aI0
aI0
aI0
aI0
aF0.56425914237836672
asg10
F0.67623226558345195
ssg169
(dp1092
g101
(lp1093
I0
aI0
aI0
aI0
aI0
aI0
aF0.064841278316180168
asg10
F0.22923576188506203
ssg79
(dp1094
g101
(lp1095
I0
aI0
aI0
aI0
aI0
aI0
aF0.062052284005834193
asg10
F0.22425155969577884
ssg174
(dp1096
g126
(lp1097
F0
aF0
aF0.40340909090909094
aI0
aI0
aI0
aF0.26513632694275213
asg128
F0.6436072933729029
ssg197
(dp1098
g101
(lp1099
I0
aI0
aI0
aI0
aI0
aI0
aF0.066223158423643305
asg10
F0.23166559001838802
ssg51
(dp1100
g101
(lp1101
I0
aI0
aI0
aI0
aI0
aI0
aF0.0077557361673942183
asg10
F0.07928081390234612
ssg91
(dp1102
g101
(lp1103
I0
aI0
aI0
aI0
aI0
aI0
aF0.051592435648334475
asg10
F0.20447941881426712
sssg43
(dp1104
VQQ
p1105
(dp1106
g101
(lp1107
I0
aI0
aI0
aI0
aI0
aI0
aF0.13031709547463144
asg10
F0.32498048495545667
ssg53
(dp1108
g101
(lp1109
I0
aI0
aI0
aI0
aI0
aI0
aF0.025579963322804759
asg10
F0.14398145077223148
ssg288
(dp1110
g101
(lp1111
I0
aI0
aI0
aI0
aI0
aI0
aF0.019018177834302177
asg10
F0.12414837476758814
ssg181
(dp1112
g126
(lp1113
I0
aF0
aF0.66666666666666674
aI0
aI0
aI0
aI0
asg128
F0.50624015042269443
ssVUC\u6d4f\u89c8\u5668
p1114
(dp1115
g101
(lp1116
I0
aI0
aI0
aI0
aI0
aI0
aF0.036608024748087713
asg10
F0.17224425074118263
ssg13
(dp1117
g101
(lp1118
I0
aI0
aI0
aI0
aI0
aI0
aF0.021060952636835911
asg10
F0.13064584201459806
ssg353
(dp1119
g101
(lp1120
I0
aI0
aI0
aI0
aI0
aI0
aF0.031850425578071766
asg10
F0.16066238376656994
ssg174
(dp1121
g126
(lp1122
I0
aF0
aF0.46212121212121215
aI0
aI0
aI0
aF0.03839036670754712
asg128
F0.49445344232956412
ssg41
(dp1123
g101
(lp1124
I0
aI0
aI0
aI0
aI0
aI0
aF0.034577578268101185
asg10
F0.16739939075104604
ssV\u817e\u8baf\u65b0\u95fb
p1125
(dp1126
g101
(lp1127
I0
aI0
aI0
aI0
aI0
aI0
aF0.023926758174380124
asg10
F0.1392510622033396
ssVYY
p1128
(dp1129
g101
(lp1130
I0
aI0
aI0
aI0
aI0
aI0
aF0.015823786443331059
asg10
F0.11324311134709526
ssg990
(dp1131
g101
(lp1132
I0
aI0
aI0
aI0
aI0
aI0
aF0.021145852343635741
asg10
F0.13090890319220774
ssg135
(dp1133
g126
(lp1134
I0
aF0
aF0.91666666666666674
aI0
aI0
aI0
aI0
asg128
F0.54819145427946281
ssV\u6298800
p1135
(dp1136
g101
(lp1137
I0
aI0
aI0
aI0
aI0
aI0
aF0.022551953077182895
asg10
F0.13519127569093917
ssg17
(dp1138
g101
(lp1139
I0
aI0
aI0
aI0
aI0
aI0
aF0.023042789276996874
asg10
F0.13665455449667779
ssV\u591a\u7c73\u97f3\u4e50
p1140
(dp1141
g101
(lp1142
I0
aI0
aI0
aI0
aI0
aI0
aF0.036807885142816278
asg10
F0.17271379186924143
sssg45
(dp1143
g53
(dp1144
g101
(lp1145
I0
aI0
aI0
aI0
aI0
aI0
aF0.23437230896433156
asg10
F0.43582258852495431
ssV\u652f\u4ed8\u5b9d\u94b1\u5305
p1146
(dp1147
g101
(lp1148
I0
aI0
aI0
aI0
aI0
aI0
aF0.11787520187239514
asg10
F0.30907779927881557
ssVUC\u6d4f\u89c8\u5668
p1149
(dp1150
g101
(lp1151
I0
aI0
aI0
aI0
aI0
aI0
aF0.31912282322946584
asg10
F0.50855217873544734
ssg41
(dp1152
g101
(lp1153
I0
aI0
aI0
aI0
aI0
aI0
aF0.1166806918071987
asg10
F0.30750776318990036
ssV\u65fa\u4fe1
p1154
(dp1155
g101
(lp1156
I0
aI0
aI0
aI0
aI0
aI0
aF0.035861709357827683
asg10
F0.17047946734147074
ssVYY
p1157
(dp1158
g101
(lp1159
I0
aI0
aI0
aI0
aI0
aI0
aF0.10324722355143591
asg10
F0.28926492580896013
ssV\u817e\u8baf\u65b0\u95fb
p1160
(dp1161
g101
(lp1162
I0
aI0
aI0
aI0
aI0
aI0
aF0.14952839932330705
asg10
F0.3481115465382657
ssg197
(dp1163
g101
(lp1164
I0
aI0
aI0
aI0
aI0
aI0
aF0.051825524326453355
asg10
F0.20494080550231727
ssV\u6298800
p1165
(dp1166
g101
(lp1167
I0
aI0
aI0
aI0
aI0
aI0
aF0.12397592036602553
asg10
F0.31697517994525481
ssg17
(dp1168
g101
(lp1169
I0
aI0
aI0
aI0
aI0
aI0
aF0.067380931135230554
asg10
F0.2336819083502385
ssg31
(dp1170
g101
(lp1171
I0
aI0
aI0
aI0
aI0
aI0
aF0.022354199587738113
asg10
F0.1345972381757809
ssVWPS Office
p1172
(dp1173
g101
(lp1174
I0
aI0
aI0
aI0
aI0
aI0
aF0.053661416279301093
asg10
F0.20853917538963657
ssV\u5370\u8c61\u7b14\u8bb0
p1175
(dp1176
g101
(lp1177
I0
aI0
aI0
aI0
aI0
aI0
aF0.086765442458408143
asg10
F0.26517341363737074
ssg37
(dp1178
g101
(lp1179
I0
aI0
aI0
aI0
aI0
aI0
aF0.030321710377706219
asg10
F0.15675934282128859
ssV\u8d85\u7ea7\u8bfe\u7a0b\u8868
p1180
(dp1181
g101
(lp1182
I0
aI0
aI0
aI0
aI0
aI0
aF0.032695570711275539
asg10
F0.16278000136278301
ssg715
(dp1183
g101
(lp1184
I0
aI0
aI0
aI0
aI0
aI0
aF0.025520904142270852
asg10
F0.14381514208263893
ssV\u4e09\u56fd\u6740
p1185
(dp1186
g101
(lp1187
I0
aI0
aI0
aI0
aI0
aI0
aF0.092683422448958858
asg10
F0.27406755011481621
ssVFlappy Bird
p1188
(dp1189
g101
(lp1190
I0
aI0
aI0
aI0
aI0
aI0
aF0.084333822880894888
asg10
F0.2614312384660788
ssg49
(dp1191
g101
(lp1192
I0
aI0
aI0
aI0
aI0
aI0
aF0.11634036500267259
asg10
F0.30705897618117323
ssg51
(dp1193
g101
(lp1194
I0
aI0
aI0
aI0
aI0
aI0
aF0.025241122575855878
asg10
F0.14302465849291585
ssg118
(dp1195
g101
(lp1196
I0
aI0
aI0
aI0
aI0
aI0
aF0.12021715248545517
asg10
F0.31213308513076748
ssV\u76f8\u673a
p1197
(dp1198
g101
(lp1199
I0
aI0
aI0
aI0
aI0
aI0
aF0.1112116959392087
asg10
F0.30021460647582016
ssg59
(dp1200
g101
(lp1201
I0
aI0
aI0
aI0
aI0
aI0
aF0.02705380055140439
asg10
F0.14807124517217679
ssg61
(dp1202
g101
(lp1203
I0
aI0
aI0
aI0
aI0
aI0
aF0.017620007670064646
asg10
F0.11949772385359964
ssV\u591a\u7c73\u97f3\u4e50
p1204
(dp1205
g101
(lp1206
I0
aI0
aI0
aI0
aI0
aI0
aF0.048372823947176027
asg10
F0.19799640613585351
ssg65
(dp1207
g101
(lp1208
I0
aI0
aI0
aI0
aI0
aI0
aF0.042572251543829556
asg10
F0.18574618229175707
ssg1086
(dp1209
g101
(lp1210
I0
aI0
aI0
aI0
aI0
aI0
aF0.071504770757572805
asg10
F0.24072660770785903
ssg69
(dp1211
g101
(lp1212
I0
aI0
aI0
aI0
aI0
aI0
aF0.0319814862849521
asg10
F0.16099259770221866
ssg1089
(dp1213
g101
(lp1214
I0
aI0
aI0
aI0
aI0
aI0
aF0.61218966267005326
asg10
F0.70436794336158715
ssg534
(dp1215
g101
(lp1216
I0
aI0
aI0
aI0
aI0
aI0
aF0.02851017219162736
asg10
F0.15200452153324212
ssVQQ\u7a7a\u95f4
p1217
(dp1218
g101
(lp1219
I0
aI0
aI0
aI0
aI0
aI0
aF0.037640217346035822
asg10
F0.17465565338966332
ssg81
(dp1220
g101
(lp1221
I0
aI0
aI0
aI0
aI0
aI0
aF0.18336832864970531
asg10
F0.38549500027996436
ssg85
(dp1222
g101
(lp1223
I0
aI0
aI0
aI0
aI0
aI0
aF0.032029278110620313
asg10
F0.16111284317474078
ssg231
(dp1224
g101
(lp1225
I0
aI0
aI0
aI0
aI0
aI0
aF0.071687437971702378
asg10
F0.24103389357638083
sssg47
(dp1226
V\u652f\u4ed8\u5b9d\u94b1\u5305
p1227
(dp1228
g101
(lp1229
I0
aI0
aI0
aI0
aI0
aI0
aF0.042358374474241255
asg10
F0.18527901331450869
ssVUC\u6d4f\u89c8\u5668
p1230
(dp1231
g101
(lp1232
I0
aI0
aI0
aI0
aI0
aI0
aF0.11632892607412458
asg10
F0.30704388033704916
ssg13
(dp1233
g101
(lp1234
I0
aI0
aI0
aI0
aI0
aI0
aF0.026108467559781499
asg10
F0.14546123728118174
ssg188
(dp1235
g101
(lp1236
I0
aI0
aI0
aI0
aI0
aI0
aF0.026698999909161837
asg10
F0.14709709075643798
ssVYY
p1237
(dp1238
g101
(lp1239
I0
aI0
aI0
aI0
aI0
aI0
aF0.089755655766644182
asg10
F0.26970406900235949
ssg194
(dp1240
g101
(lp1241
I0
aI0
aI0
aI0
aI0
aI0
aF0.0359603202748899
asg10
F0.17071369482463195
ssV\u6b63\u5e38\u7684\u5927\u5192\u9669
p1242
(dp1243
g101
(lp1244
I0
aI0
aI0
aI0
aI0
aI0
aF0.052200857591092956
asg10
F0.20568158269867615
ssV\u6298800
p1245
(dp1246
g101
(lp1247
I0
aI0
aI0
aI0
aI0
aI0
aF0.06259944570190322
asg10
F0.22523808713031859
ssg17
(dp1248
g101
(lp1249
I0
aI0
aI0
aI0
aI0
aI0
aF0.059775082050011523
asg10
F0.22009829434096975
ssg708
(dp1250
g101
(lp1251
I0
aI0
aI0
aI0
aI0
aI0
aF0.054647372448593412
asg10
F0.21044626827874297
ssV\u5370\u8c61\u7b14\u8bb0
p1252
(dp1253
g101
(lp1254
I0
aI0
aI0
aI0
aI0
aI0
aF0.093437244966587826
asg10
F0.27517983051598338
ssg138
(dp1255
g101
(lp1256
I0
aI0
aI0
aI0
aI0
aI0
aF0.024356065538256474
asg10
F0.14049476865780597
ssg41
(dp1257
g101
(lp1258
I0
aI0
aI0
aI0
aI0
aI0
aF0.07314402721939807
asg10
F0.24347031672665267
ssg45
(dp1259
g101
(lp1260
I0
aI0
aI0
aI0
aI0
aI0
aF0.11655576133494289
asg10
F0.30734309421886741
ssg89
(dp1261
g101
(lp1262
I0
aI0
aI0
aI0
aI0
aI0
aF0.026101596674617339
asg10
F0.14544209572837058
ssg53
(dp1263
g101
(lp1264
I0
aI0
aI0
aI0
aI0
aI0
aF0.10141771257925418
asg10
F0.28669062541589524
ssVQQ\u5b89\u5168\u4e2d\u5fc3
p1265
(dp1266
g101
(lp1267
I0
aI0
aI0
aI0
aI0
aI0
aF0.042863020156409574
asg10
F0.18637942637299168
ssg149
(dp1268
g101
(lp1269
I0
aI0
aI0
aI0
aI0
aI0
aF0.057530495998671216
asg10
F0.21592635106190236
ssg59
(dp1270
g101
(lp1271
I0
aI0
aI0
aI0
aI0
aI0
aF0.048437485902235455
asg10
F0.19812869693478435
ssV\u591a\u7c73\u97f3\u4e50
p1272
(dp1273
g101
(lp1274
I0
aI0
aI0
aI0
aI0
aI0
aF0.050115419433071233
asg10
F0.20153119090094782
ssg380
(dp1275
g101
(lp1276
I0
aI0
aI0
aI0
aI0
aI0
aF0.047162088036092745
asg10
F0.19550285270600073
ssg163
(dp1277
g101
(lp1278
I0
aI0
aI0
aI0
aI0
aI0
aF0.025047456011361793
asg10
F0.14247491213329974
ssVQQ
p1279
(dp1280
g101
(lp1281
I0
aI0
aI0
aI0
aI0
aI0
aF0.27075284815948281
asg10
F0.46842827674787207
ssg169
(dp1282
g101
(lp1283
I0
aI0
aI0
aI0
aI0
aI0
aF0.021148465051977816
asg10
F0.13091699026795209
ssg157
(dp1284
g101
(lp1285
I0
aI0
aI0
aI0
aI0
aI0
aF0.026092032539861046
asg10
F0.14541544687488442
ssV\u5fae\u4fe1
p1286
(dp1287
g101
(lp1288
I0
aI0
aI0
aI0
aI0
aI0
aF0.10708977068858218
asg10
F0.29459853365051181
ssg91
(dp1289
g101
(lp1290
I0
aI0
aI0
aI0
aI0
aI0
aF0.050257048333998147
asg10
F0.20181575904457502
sssg49
(dp1291
VQQ
p1292
(dp1293
g101
(lp1294
I0
aI0
aI0
aI0
aI0
aI0
aF0.069104417078065625
asg10
F0.23665162473511681
ssg45
(dp1295
g101
(lp1296
I0
aI0
aI0
aI0
aI0
aI0
aF0.070344254738217149
asg10
F0.23876513087118906
ssVUC\u6d4f\u89c8\u5668
p1297
(dp1298
g101
(lp1299
I0
aI0
aI0
aI0
aI0
aI0
aF0.16937062142631151
asg10
F0.37048926353563005
sssg51
(dp1300
VQQ
p1301
(dp1302
g101
(lp1303
I0
aI0
aI0
aI0
aI0
aI0
aF0.025898841171550627
asg10
F0.14487610207128798
ssg174
(dp1304
g126
(lp1305
F0
aF0
aF0.63636363636363635
aI0
aI0
aI0
aF0.025908319247319539
asg128
F0.52094490607413868
ssg512
(dp1306
g126
(lp1307
F0
aF0
aF0.4642857142857143
aI0
aI0
aI0
aI0
asg128
F0.46246165764418357
sssg25
(dp1308
g1146
(dp1309
g101
(lp1310
I0
aI0
aI0
aI0
aI0
aI0
aF0.054487785749781706
asg10
F0.21013876053647873
ssVUC\u6d4f\u89c8\u5668
p1311
(dp1312
g101
(lp1313
I0
aI0
aI0
aI0
aI0
aI0
aF0.17409367525662384
asg10
F0.37561945945590169
ssg41
(dp1314
g101
(lp1315
I0
aI0
aI0
aI0
aI0
aI0
aF0.15045648848697729
asg10
F0.34919020044728077
ssg918
(dp1316
g101
(lp1317
I0
aI0
aI0
aI0
aI0
aI0
aF0.076786082993382521
asg10
F0.24945823400178241
ssg921
(dp1318
g101
(lp1319
I0
aI0
aI0
aI0
aI0
aI0
aF0.10721183060497619
asg10
F0.29476637616082735
ssg23
(dp1320
g101
(lp1321
I0
aI0
aI0
aI0
aI0
aI0
aF0.080962441930940834
asg10
F0.2561523743385925
ssg197
(dp1322
g101
(lp1323
I0
aI0
aI0
aI0
aI0
aI0
aF0.059535846094192026
asg10
F0.21965740647430157
ssV\u6298800
p1324
(dp1325
g101
(lp1326
I0
aI0
aI0
aI0
aI0
aI0
aF0.098306384475144962
asg10
F0.28225877245707148
ssg17
(dp1327
g101
(lp1328
I0
aI0
aI0
aI0
aI0
aI0
aF0.098293589947358762
asg10
F0.28224040393890015
ssg857
(dp1329
g101
(lp1330
I0
aI0
aI0
aI0
aI0
aI0
aF0.082400568642907734
asg10
F0.25841736327371057
ssg35
(dp1331
g101
(lp1332
I0
aI0
aI0
aI0
aI0
aI0
aF0.0967027975463748
asg10
F0.27994718549167713
ssg37
(dp1333
g101
(lp1334
I0
aI0
aI0
aI0
aI0
aI0
aF0.054327888854420324
asg10
F0.20983020310700964
ssg138
(dp1335
g101
(lp1336
I0
aI0
aI0
aI0
aI0
aI0
aF0.043756125650744028
asg10
F0.18831114191050097
ssg715
(dp1337
g101
(lp1338
I0
aI0
aI0
aI0
aI0
aI0
aF0.01531230039557039
asg10
F0.11139784943873411
ssV\u4e09\u56fd\u6740
p1339
(dp1340
g101
(lp1341
I0
aI0
aI0
aI0
aI0
aI0
aF0.076306794663110245
asg10
F0.24867847305128526
ssg433
(dp1342
g101
(lp1343
I0
aI0
aI0
aI0
aI0
aI0
aF0.058393481909654557
asg10
F0.21753982392376481
ssg231
(dp1344
g101
(lp1345
I0
aI0
aI0
aI0
aI0
aI0
aF0.010908910108311035
asg10
F0.094025849980261408
ssg53
(dp1346
g101
(lp1347
I0
aI0
aI0
aI0
aI0
aI0
aF0.073251528962839221
asg10
F0.24364916847033888
ssV\u76f8\u673a
p1348
(dp1349
g101
(lp1350
I0
aI0
aI0
aI0
aI0
aI0
aF0.10147894064718231
asg10
F0.28677715302572526
ssg59
(dp1351
g101
(lp1352
I0
aI0
aI0
aI0
aI0
aI0
aF0.02528118434928792
asg10
F0.14313811520841963
ssg61
(dp1353
g101
(lp1354
I0
aI0
aI0
aI0
aI0
aI0
aF0.025594449468416897
asg10
F0.14402221394741982
ssg63
(dp1355
g101
(lp1356
I0
aI0
aI0
aI0
aI0
aI0
aF0.076383622481864338
asg10
F0.24880362978333076
ssg1217
(dp1357
g101
(lp1358
I0
aI0
aI0
aI0
aI0
aI0
aF0.048578515903005923
asg10
F0.19841692185349585
ssg380
(dp1359
g101
(lp1360
I0
aI0
aI0
aI0
aI0
aI0
aF0.050599622083313818
asg10
F0.20250242257571721
ssg69
(dp1361
g101
(lp1362
I0
aI0
aI0
aI0
aI0
aI0
aF0.040740008208687298
asg10
F0.18170511070702861
ssVQQ
p1363
(dp1364
g126
(lp1365
I0
aF0
aI0
aF1
aI0
aI0
aF0.4044865434780292
asg128
F0.8010510390583776
ssg534
(dp1366
g101
(lp1367
I0
aI0
aI0
aI0
aI0
aI0
aF0.029456298229600952
asg10
F0.15450611433569034
ssg65
(dp1368
g101
(lp1369
I0
aI0
aI0
aI0
aI0
aI0
aF0.014699913555482468
asg10
F0.10914754629538963
ssV\u5fae\u4fe1
p1370
(dp1371
g101
(lp1372
I0
aI0
aI0
aI0
aI0
aI0
aF0.14863959473711313
asg10
F0.34707540795479502
ssg91
(dp1373
g101
(lp1374
I0
aI0
aI0
aI0
aI0
aI0
aF0.0211046931463151
asg10
F0.13078143777358128
ssg177
(dp1375
g101
(lp1376
I0
aI0
aI0
aI0
aI0
aI0
aF0.023731002075471196
asg10
F0.1386802529665547
sssg57
(dp1377
V\u652f\u4ed8\u5b9d\u94b1\u5305
p1378
(dp1379
g101
(lp1380
I0
aI0
aI0
aI0
aI0
aI0
aF0.057386031607476178
asg10
F0.21565507514572152
ssg1230
(dp1381
g101
(lp1382
I0
aI0
aI0
aI0
aI0
aI0
aF0.21043441623861589
asg10
F0.41296664104735215
ssg41
(dp1383
g101
(lp1384
I0
aI0
aI0
aI0
aI0
aI0
aF0.094416310266856443
asg10
F0.27661778458031305
ssg17
(dp1385
g101
(lp1386
I0
aI0
aI0
aI0
aI0
aI0
aF0.15020212368614602
asg10
F0.3488949015559154
ssg842
(dp1387
g101
(lp1388
I0
aI0
aI0
aI0
aI0
aI0
aF0.10037421311917366
asg10
F0.28521191416697467
ssVYY
p1389
(dp1390
g101
(lp1391
I0
aI0
aI0
aI0
aI0
aI0
aF0.13819109322855314
asg10
F0.33465445653231779
ssg194
(dp1392
g101
(lp1393
I0
aI0
aI0
aI0
aI0
aI0
aF0.099470044761513096
asg10
F0.28392441734056367
ssg118
(dp1394
g101
(lp1395
I0
aI0
aI0
aI0
aI0
aI0
aF0.084775877935290261
asg10
F0.2621155188015713
ssV\u6298800
p1396
(dp1397
g101
(lp1398
I0
aI0
aI0
aI0
aI0
aI0
aF0.15001083945049071
asg10
F0.34867266982438389
ssg29
(dp1399
g101
(lp1400
I0
aI0
aI0
aI0
aI0
aI0
aF0.020471912763058001
asg10
F0.1288059122034553
ssg708
(dp1401
g101
(lp1402
I0
aI0
aI0
aI0
aI0
aI0
aF0.1000263568598357
asg10
F0.28471727090382781
ssg207
(dp1403
g101
(lp1404
I0
aI0
aI0
aI0
aI0
aI0
aF0.10820659499766322
asg10
F0.2961307128369734
ssV\u8d85\u7ea7\u8bfe\u7a0b\u8868
p1405
(dp1406
g101
(lp1407
I0
aI0
aI0
aI0
aI0
aI0
aF0.057723389094384028
asg10
F0.21628803617768355
ssg358
(dp1408
g101
(lp1409
I0
aI0
aI0
aI0
aI0
aI0
aF0.10605587198950799
asg10
F0.2931729830890879
ssg47
(dp1410
g101
(lp1411
I0
aI0
aI0
aI0
aI0
aI0
aF0.10496617432734354
asg10
F0.29166295460215952
ssg53
(dp1412
g101
(lp1413
I0
aI0
aI0
aI0
aI0
aI0
aF0.1275642976685871
asg10
F0.32152974617605801
ssg1272
(dp1414
g101
(lp1415
I0
aI0
aI0
aI0
aI0
aI0
aF0.076707631758261105
asg10
F0.24933076749329683
ssg377
(dp1416
g101
(lp1417
I0
aI0
aI0
aI0
aI0
aI0
aF0.054515454498548284
asg10
F0.21019210770924704
ssg380
(dp1418
g101
(lp1419
I0
aI0
aI0
aI0
aI0
aI0
aF0.06983366862306048
asg10
F0.23789702738873708
ssg163
(dp1420
g101
(lp1421
I0
aI0
aI0
aI0
aI0
aI0
aF0.025870844895729782
asg10
F0.14479777640419508
ssVQQ
p1422
(dp1423
g101
(lp1424
I0
aI0
aI0
aI0
aI0
aI0
aF0.53687416063697868
asg10
F0.6596185152352757
ssg169
(dp1425
g101
(lp1426
I0
aI0
aI0
aI0
aI0
aI0
aF0.022117484871307831
asg10
F0.13388269809354675
ssg946
(dp1427
g101
(lp1428
I0
aI0
aI0
aI0
aI0
aI0
aF0.033556139568343829
asg10
F0.16490832577851994
ssg65
(dp1429
g101
(lp1430
I0
aI0
aI0
aI0
aI0
aI0
aF0.0046211701794501596
asg10
F0.06119734311011725
ssg1286
(dp1431
g101
(lp1432
I0
aI0
aI0
aI0
aI0
aI0
aF0.25916739065106159
asg10
F0.45829673644073909
ssg91
(dp1433
g101
(lp1434
I0
aI0
aI0
aI0
aI0
aI0
aF0.059676595875206954
asg10
F0.21991690123881397
sssg59
(dp1435
VQQ
p1436
(dp1437
g101
(lp1438
I0
aI0
aI0
aI0
aI0
aI0
aF0.11485990478486297
asg10
F0.30509901988173227
ssVYY
p1439
(dp1440
g101
(lp1441
I0
aI0
aI0
aI0
aI0
aI0
aF0.052336436466657837
asg10
F0.20594851312533288
ssVQQ\u5b89\u5168\u4e2d\u5fc3
p1442
(dp1443
g101
(lp1444
I0
aI0
aI0
aI0
aI0
aI0
aF0.024331434263100964
asg10
F0.14042370954813793
ssVUC\u6d4f\u89c8\u5668
p1445
(dp1446
g101
(lp1447
I0
aI0
aI0
aI0
aI0
aI0
aF0.046055549568120517
asg10
F0.19319575116770377
ssV\u5370\u8c61\u7b14\u8bb0
p1448
(dp1449
g101
(lp1450
I0
aI0
aI0
aI0
aI0
aI0
aF0.043239971270326298
asg10
F0.18719717258323165
ssV\u5fae\u4fe1
p1451
(dp1452
g101
(lp1453
I0
aI0
aI0
aI0
aI0
aI0
aF0.025747147773403024
asg10
F0.14445119844424123
ssV\u76f8\u673a
p1454
(dp1455
g101
(lp1456
I0
aI0
aI0
aI0
aI0
aI0
aF0.025239847053317169
asg10
F0.14302104467820276
ssg45
(dp1457
g101
(lp1458
I0
aI0
aI0
aI0
aI0
aI0
aF0.024246298754119131
asg10
F0.14017782350943339
ssg17
(dp1459
g101
(lp1460
I0
aI0
aI0
aI0
aI0
aI0
aF0.047821410435610924
asg10
F0.19686466720638449
ssV\u4e2d\u56fd\u5efa\u8bbe\u94f6\u884c
p1461
(dp1462
g101
(lp1463
I0
aI0
aI0
aI0
aI0
aI0
aF0.023098758094876038
asg10
F0.1368204145212904
sssg61
(dp1464
VQQ
p1465
(dp1466
g101
(lp1467
I0
aI0
aI0
aI0
aI0
aI0
aF0.078350170900357133
asg10
F0.25198608583709814
ssg174
(dp1468
g126
(lp1469
F0
aF0
aF0.54545454545454541
aI0
aI0
aI0
aF0.024746980750758596
asg128
F0.50186526745783233
ssg37
(dp1470
g101
(lp1471
I0
aI0
aI0
aI0
aI0
aI0
aF0.026174929531705967
asg10
F0.14564626338342929
ssV\u9a7e\u8003\u5b9d\u5178
p1472
(dp1473
g126
(lp1474
I0
aF0
aI0
aF1
aI0
aI0
aI0
asg128
F0.56024682149916716
ssg41
(dp1475
g101
(lp1476
I0
aI0
aI0
aI0
aI0
aI0
aF0.068400588243891308
asg10
F0.23544339140407008
sssg63
(dp1477
g53
(dp1478
g101
(lp1479
I0
aI0
aI0
aI0
aI0
aI0
aF0.053194867977359825
asg10
F0.20763064553587415
ssg8
(dp1480
g101
(lp1481
I0
aI0
aI0
aI0
aI0
aI0
aF0.035688186762130175
asg10
F0.17006652117400198
ssVUC\u6d4f\u89c8\u5668
p1482
(dp1483
g101
(lp1484
I0
aI0
aI0
aI0
aI0
aI0
aF0.15910626374933334
asg10
F0.3590874486080356
ssg106
(dp1485
g101
(lp1486
I0
aI0
aI0
aI0
aI0
aI0
aF0.17545421785411014
asg10
F0.37708433662549756
ssg842
(dp1487
g101
(lp1488
I0
aI0
aI0
aI0
aI0
aI0
aF0.080477579605124472
asg10
F0.2553842086312676
ssVYY
p1489
(dp1490
g101
(lp1491
I0
aI0
aI0
aI0
aI0
aI0
aF0.13030465193272461
asg10
F0.32496496893736199
ssg23
(dp1492
g101
(lp1493
I0
aI0
aI0
aI0
aI0
aI0
aF0.061394272814061866
asg10
F0.22305939317650525
ssg592
(dp1494
g101
(lp1495
I0
aI0
aI0
aI0
aI0
aI0
aF0.040703424059648212
asg10
F0.1816235076322085
ssg27
(dp1496
g101
(lp1497
I0
aI0
aI0
aI0
aI0
aI0
aF0.062612913393244568
asg10
F0.22526231477215591
ssg17
(dp1498
g101
(lp1499
I0
aI0
aI0
aI0
aI0
aI0
aF0.13836703046240134
asg10
F0.33486742051506857
ssg857
(dp1500
g101
(lp1501
I0
aI0
aI0
aI0
aI0
aI0
aF0.056118065752939802
asg10
F0.21325927739721803
ssg35
(dp1502
g101
(lp1503
I0
aI0
aI0
aI0
aI0
aI0
aF0.18807373387430498
asg10
F0.39040975434154668
ssg37
(dp1504
g101
(lp1505
I0
aI0
aI0
aI0
aI0
aI0
aF0.053388196862448466
asg10
F0.20800760479179364
ssg507
(dp1506
g101
(lp1507
I0
aI0
aI0
aI0
aI0
aI0
aF0.036427975381603792
asg10
F0.17182015391155486
ssg47
(dp1508
g101
(lp1509
I0
aI0
aI0
aI0
aI0
aI0
aF0.075536750452838905
asg10
F0.24742053145726786
ssg512
(dp1510
g126
(lp1511
F0
aF0
aF0.75
aI0
aI0
aI0
aI0
asg128
F0.52136841438363157
ssV\u767e\u5ea6\u8d34\u5427
p1512
(dp1513
g101
(lp1514
I0
aI0
aI0
aI0
aI0
aI0
aF0.046424982502617354
asg10
F0.19396905988304011
ssg57
(dp1515
g101
(lp1516
I0
aI0
aI0
aI0
aI0
aI0
aF0.10673364683113089
asg10
F0.29410828639068842
ssg59
(dp1517
g101
(lp1518
I0
aI0
aI0
aI0
aI0
aI0
aF0.025209705019119361
asg10
F0.14293561957561848
ssg61
(dp1519
g101
(lp1520
I0
aI0
aI0
aI0
aI0
aI0
aF0.04907019932006388
asg10
F0.19941852402957971
ssg65
(dp1521
g101
(lp1522
I0
aI0
aI0
aI0
aI0
aI0
aF0.068757940320386693
asg10
F0.23605761551244328
ssg1461
(dp1523
g101
(lp1524
I0
aI0
aI0
aI0
aI0
aI0
aF0.021996509472837971
asg10
F0.13351604878810178
ssg71
(dp1525
g101
(lp1526
I0
aI0
aI0
aI0
aI0
aI0
aF0.025092989521031245
asg10
F0.14260435516190015
ssVQQ
p1527
(dp1528
g126
(lp1529
I0
aF0
aI0
aF1
aI0
aI0
aF0.41215913688352268
asg128
F0.80492287431991716
ssg157
(dp1530
g101
(lp1531
I0
aI0
aI0
aI0
aI0
aI0
aF0.023550907627620427
asg10
F0.13815302893737436
ssg174
(dp1532
g126
(lp1533
F0
aF0
aF0.59090909090909094
aI0
aI0
aI0
aF0.158257401154797
asg128
F0.60789361021641519
ssg197
(dp1534
g101
(lp1535
I0
aI0
aI0
aI0
aI0
aI0
aF0.071096123903025568
asg10
F0.24003775071765868
ssV\u5531\u5427
p1536
(dp1537
g101
(lp1538
I0
aI0
aI0
aI0
aI0
aI0
aF0.046602304427443293
asg10
F0.19433914280570985
sssg79
(dp1539
g1146
(dp1540
g101
(lp1541
I0
aI0
aI0
aI0
aI0
aI0
aF0.049241023741939956
asg10
F0.19976533287257897
ssVUC\u6d4f\u89c8\u5668
p1542
(dp1543
g101
(lp1544
I0
aI0
aI0
aI0
aI0
aI0
aF0.10237688197480384
asg10
F0.28804313943113097
ssg41
(dp1545
g101
(lp1546
I0
aI0
aI0
aI0
aI0
aI0
aF0.077861079650553
asg10
F0.25119835860528478
ssV\u65fa\u4fe1
p1547
(dp1548
g101
(lp1549
I0
aI0
aI0
aI0
aI0
aI0
aF0.034992595153014311
asg10
F0.16840099865708319
ssVYY
p1550
(dp1551
g101
(lp1552
I0
aI0
aI0
aI0
aI0
aI0
aF0.024667036045348072
asg10
F0.14138882025350266
ssV\u817e\u8baf\u65b0\u95fb
p1553
(dp1554
g101
(lp1555
I0
aI0
aI0
aI0
aI0
aI0
aF0.047627617517671542
asg10
F0.19646537212594217
ssg118
(dp1556
g101
(lp1557
I0
aI0
aI0
aI0
aI0
aI0
aF0.028687277797616179
asg10
F0.15247591774036112
ssg121
(dp1558
g101
(lp1559
I0
aI0
aI0
aI0
aI0
aI0
aF0.070620090922103848
asg10
F0.23923279966594657
ssg17
(dp1560
g101
(lp1561
I0
aI0
aI0
aI0
aI0
aI0
aF0.03984473813509385
asg10
F0.17969751649371554
ssVWPS Office
p1562
(dp1563
g101
(lp1564
I0
aI0
aI0
aI0
aI0
aI0
aF0.036466322757358831
asg10
F0.17191056682693509
ssV\u5370\u8c61\u7b14\u8bb0
p1565
(dp1566
g101
(lp1567
I0
aI0
aI0
aI0
aI0
aI0
aF0.053581765975531201
asg10
F0.20838434927729155
ssV\u667a\u884c\u706b\u8f66\u7968
p1568
(dp1569
g101
(lp1570
I0
aI0
aI0
aI0
aI0
aI0
aF0.02298048637193343
asg10
F0.13646968671807047
ssg223
(dp1571
g101
(lp1572
I0
aI0
aI0
aI0
aI0
aI0
aF0.067161922625877724
asg10
F0.2333018306372355
ssg1188
(dp1573
g101
(lp1574
I0
aI0
aI0
aI0
aI0
aI0
aF0.023845050646780025
asg10
F0.13901309452475408
ssg53
(dp1575
g101
(lp1576
I0
aI0
aI0
aI0
aI0
aI0
aF0.094168521485416448
asg10
F0.27625456442228979
ssg1197
(dp1577
g101
(lp1578
I0
aI0
aI0
aI0
aI0
aI0
aF0.042459921220622115
asg10
F0.18550096727995946
ssV\u591a\u7c73\u97f3\u4e50
p1579
(dp1580
g101
(lp1581
I0
aI0
aI0
aI0
aI0
aI0
aF0.03922586219475744
asg10
F0.17829650726672042
ssV\u4e2d\u56fd\u5efa\u8bbe\u94f6\u884c
p1582
(dp1583
g101
(lp1584
I0
aI0
aI0
aI0
aI0
aI0
aF0.025275374919387118
asg10
F0.14312166822137382
ssg163
(dp1585
g101
(lp1586
I0
aI0
aI0
aI0
aI0
aI0
aF0.022599249308343099
asg10
F0.13533296383877436
ssg1089
(dp1587
g101
(lp1588
I0
aI0
aI0
aI0
aI0
aI0
aF0.2017714348074533
asg10
F0.40437698295118019
ssg534
(dp1589
g101
(lp1590
I0
aI0
aI0
aI0
aI0
aI0
aF0.030649308992242188
asg10
F0.15760388916159196
ssg174
(dp1591
g126
(lp1592
F0
aF0
aF0.59090909090909094
aI0
aI0
aI0
aF0.084040922834851581
asg128
F0.55622630677146734
ssg1242
(dp1593
g101
(lp1594
I0
aI0
aI0
aI0
aI0
aI0
aF0.047521927569109973
asg10
F0.19624726393073647
sssg67
(dp1595
g53
(dp1596
g101
(lp1597
I0
aI0
aI0
aI0
aI0
aI0
aF0.041613771891077365
asg10
F0.18364331664731626
ssg181
(dp1598
g126
(lp1599
I0
aF0
aF0.5
aI0
aI0
aI0
aF0.088153121284622202
asg128
F0.54165095044146994
ssVUC\u6d4f\u89c8\u5668
p1600
(dp1601
g101
(lp1602
I0
aI0
aI0
aI0
aI0
aI0
aF0.091429211163435775
asg10
F0.27220686442707509
ssg41
(dp1603
g101
(lp1604
I0
aI0
aI0
aI0
aI0
aI0
aF0.082432630564832063
asg10
F0.25846763326373456
ssV\u65fa\u4fe1
p1605
(dp1606
g101
(lp1607
I0
aI0
aI0
aI0
aI0
aI0
aF0.022495278450763975
asg10
F0.13502129629252263
ssg112
(dp1608
g101
(lp1609
I0
aI0
aI0
aI0
aI0
aI0
aF0.056060132530348222
asg10
F0.21314917036419251
ssg194
(dp1610
g101
(lp1611
I0
aI0
aI0
aI0
aI0
aI0
aF0.080553177249418392
asg10
F0.25550412968783026
ssVQQ\u5b89\u5168\u4e2d\u5fc3
p1612
(dp1613
g101
(lp1614
I0
aI0
aI0
aI0
aI0
aI0
aF0.042243750735424968
asg10
F0.18502815666222669
ssV\u6298800
p1615
(dp1616
g101
(lp1617
I0
aI0
aI0
aI0
aI0
aI0
aF0.059904283903526291
asg10
F0.22033603351863743
ssg17
(dp1618
g101
(lp1619
I0
aI0
aI0
aI0
aI0
aI0
aF0.038328216528717103
asg10
F0.17624462953360134
ssg708
(dp1620
g101
(lp1621
I0
aI0
aI0
aI0
aI0
aI0
aF0.037706043735773236
asg10
F0.1748083083124255
ssg132
(dp1622
g101
(lp1623
I0
aI0
aI0
aI0
aI0
aI0
aF0.094698690725160697
asg10
F0.27703113021821124
ssg138
(dp1624
g101
(lp1625
I0
aI0
aI0
aI0
aI0
aI0
aF0.0058403336074064139
asg10
F0.068797936786133621
ssg223
(dp1626
g101
(lp1627
I0
aI0
aI0
aI0
aI0
aI0
aF0.047944314180388165
asg10
F0.19711748156973116
ssg144
(dp1628
g101
(lp1629
I0
aI0
aI0
aI0
aI0
aI0
aF0.046769239799859134
asg10
F0.19468690539585229
ssg51
(dp1630
g101
(lp1631
I0
aI0
aI0
aI0
aI0
aI0
aF0.017370644256180547
asg10
F0.11864912769048189
ssg215
(dp1632
g101
(lp1633
I0
aI0
aI0
aI0
aI0
aI0
aF0.047150024313334406
asg10
F0.19547784699535101
ssg149
(dp1634
g101
(lp1635
I0
aI0
aI0
aI0
aI0
aI0
aF0.021311973809048965
asg10
F0.1314221063217226
ssg154
(dp1636
g101
(lp1637
I0
aI0
aI0
aI0
aI0
aI0
aF0.091855726403029303
asg10
F0.27284104516652385
ssg65
(dp1638
g101
(lp1639
I0
aI0
aI0
aI0
aI0
aI0
aF0.020837909190441976
asg10
F0.12995220624422815
ssVQQ
p1640
(dp1641
g101
(lp1642
I0
aI0
aI0
aI0
aI0
aI0
aF0.21186927600646951
asg10
F0.41437216818301725
ssg169
(dp1643
g101
(lp1644
I0
aI0
aI0
aI0
aI0
aI0
aF0.024692882961554412
asg10
F0.14146287674264743
ssg79
(dp1645
g101
(lp1646
I0
aI0
aI0
aI0
aI0
aI0
aF0.025163176162293674
asg10
F0.14280365249131127
ssg81
(dp1647
g101
(lp1648
I0
aI0
aI0
aI0
aI0
aI0
aF0.1096119718969258
asg10
F0.29804756761199513
ssg91
(dp1649
g101
(lp1650
I0
aI0
aI0
aI0
aI0
aI0
aF0.036208951265382615
asg10
F0.17130283865266266
sssg69
(dp1651
VQQ
p1652
(dp1653
g126
(lp1654
I0
aF0
aI0
aF0.25
aI0
aI0
aF0.10960759312088658
asg128
F0.4957489832435456
ssV\u5370\u8c61\u7b14\u8bb0
p1655
(dp1656
g101
(lp1657
I0
aI0
aI0
aI0
aI0
aI0
aF0.023441817721130308
asg10
F0.13783268896456821
ssg37
(dp1658
g101
(lp1659
I0
aI0
aI0
aI0
aI0
aI0
aF0.020499441429856782
asg10
F0.12889248603387973
ssV\u652f\u4ed8\u5b9d\u94b1\u5305
p1660
(dp1661
g101
(lp1662
I0
aI0
aI0
aI0
aI0
aI0
aF0.026169613227975314
asg10
F0.14563147176588537
ssVUC\u6d4f\u89c8\u5668
p1663
(dp1664
g101
(lp1665
I0
aI0
aI0
aI0
aI0
aI0
aF0.066078864683467062
asg10
F0.23141306413365687
ssg41
(dp1666
g101
(lp1667
I0
aI0
aI0
aI0
aI0
aI0
aF0.095060505072957255
asg10
F0.27755985072525952
ssV\u5fae\u4fe1
p1668
(dp1669
g126
(lp1670
I0
aF0
aI0
aF0.25
aI0
aI0
aF0.037077267451971624
asg128
F0.43241949393189688
ssg1154
(dp1671
g101
(lp1672
I0
aI0
aI0
aI0
aI0
aI0
aF0.032698216886854564
asg10
F0.16278658842855215
ssg1160
(dp1673
g101
(lp1674
I0
aI0
aI0
aI0
aI0
aI0
aF0.022387790548297013
asg10
F0.13469832775607332
ssg197
(dp1675
g101
(lp1676
I0
aI0
aI0
aI0
aI0
aI0
aF0.030006560134774325
asg10
F0.15594257187887736
ssg1324
(dp1677
g101
(lp1678
I0
aI0
aI0
aI0
aI0
aI0
aF0.049000911912828571
asg10
F0.19927768423667225
ssg17
(dp1679
g101
(lp1680
I0
aI0
aI0
aI0
aI0
aI0
aF0.023945403597677502
asg10
F0.13930530877852917
ssV\u591a\u7c73\u97f3\u4e50
p1681
(dp1682
g101
(lp1683
I0
aI0
aI0
aI0
aI0
aI0
aF0.044882063009384091
asg10
F0.1907185745357993
ssV\u4e2d\u56fd\u5efa\u8bbe\u94f6\u884c
p1684
(dp1685
g101
(lp1686
I0
aI0
aI0
aI0
aI0
aI0
aF0.024095951938790959
asg10
F0.13974253929886002
ssg169
(dp1687
g101
(lp1688
I0
aI0
aI0
aI0
aI0
aI0
aF0.022474829145103317
asg10
F0.13495991186596881
ssg61
(dp1689
g101
(lp1690
I0
aI0
aI0
aI0
aI0
aI0
aF0.020502087372614476
asg10
F0.12890080409310367
sssg71
(dp1691
V\u591a\u7c73\u97f3\u4e50
p1692
(dp1693
g101
(lp1694
I0
aI0
aI0
aI0
aI0
aI0
aF0.023641308946637716
asg10
F0.1384179285766878
ssV\u5fae\u4fe1
p1695
(dp1696
g126
(lp1697
I0
aF0
aI0
aF1
aI0
aI0
aI0
asg128
F0.56024682149916716
ssVQQ
p1698
(dp1699
g101
(lp1700
I0
aI0
aI0
aI0
aI0
aI0
aF0.055996481264161145
asg10
F0.21302813008792706
ssVWPS Office
p1701
(dp1702
g101
(lp1703
I0
aI0
aI0
aI0
aI0
aI0
aF0.027623244641198332
asg10
F0.14962147485634067
sssg73
(dp1704
g470
(dp1705
g101
(lp1706
I0
aI0
aI0
aI0
aI0
aI0
aF0.44857468693949781
asg10
F0.60293982128502976
ssg11
(dp1707
g101
(lp1708
I0
aI0
aI0
aI0
aI0
aI0
aF0.88816830614993081
asg10
F0.84840695931458476
ssg41
(dp1709
g101
(lp1710
I0
aI0
aI0
aI0
aI0
aI0
aF0.63751818895067769
asg10
F0.71879140699919952
ssg15
(dp1711
g101
(lp1712
I0
aI0
aI0
aI0
aI0
aI0
aF0.082170378211416678
asg10
F0.2580561594176724
ssg17
(dp1713
g101
(lp1714
I0
aI0
aI0
aI0
aI0
aI0
aF0.58528188682692284
asg10
F0.68871434438115398
ssg19
(dp1715
g101
(lp1716
I0
aI0
aI0
aI0
aI0
aI0
aF0.37254372833312066
asg10
F0.54947155499181854
ssg407
(dp1717
g101
(lp1718
I0
aI0
aI0
aI0
aI0
aI0
aF0.68391903668378784
asg10
F0.74449010976087315
ssg23
(dp1719
g101
(lp1720
I0
aI0
aI0
aI0
aI0
aI0
aF0.4668450130343787
asg10
F0.6150960647114756
ssg53
(dp1721
g101
(lp1722
I0
aI0
aI0
aI0
aI0
aI0
aF0.64689095249694606
asg10
F0.72405594720197997
ssg27
(dp1723
g101
(lp1724
I0
aI0
aI0
aI0
aI0
aI0
aF0.56601681516403324
asg10
F0.67728468173264988
ssg29
(dp1725
g101
(lp1726
I0
aI0
aI0
aI0
aI0
aI0
aF0.045099693896559601
asg10
F0.19118040779367379
ssg31
(dp1727
g101
(lp1728
I0
aI0
aI0
aI0
aI0
aI0
aF0.04693597508816786
asg10
F0.19503363219065137
ssg857
(dp1729
g101
(lp1730
I0
aI0
aI0
aI0
aI0
aI0
aF0.42141179945837043
asg10
F0.58439963004733797
ssg571
(dp1731
g101
(lp1732
I0
aI0
aI0
aI0
aI0
aI0
aF0.62280571611018998
asg10
F0.71044895773516836
ssg37
(dp1733
g101
(lp1734
I0
aI0
aI0
aI0
aI0
aI0
aF0.13827871819687193
asg10
F0.33476053948761225
ssg39
(dp1735
g101
(lp1736
I0
aI0
aI0
aI0
aI0
aI0
aF0.18065150391510679
asg10
F0.38262855462508644
ssg13
(dp1737
g101
(lp1738
I0
aI0
aI0
aI0
aI0
aI0
aF0.069096537070758524
asg10
F0.23663813160562161
ssg504
(dp1739
g101
(lp1740
I0
aI0
aI0
aI0
aI0
aI0
aF0.091450337690128378
asg10
F0.27223831199915988
ssg223
(dp1741
g101
(lp1742
I0
aI0
aI0
aI0
aI0
aI0
aF0.66544550994462992
asg10
F0.73436646423096952
ssg585
(dp1743
g101
(lp1744
I0
aI0
aI0
aI0
aI0
aI0
aF0.36760518653003588
asg10
F0.54581743178460951
ssg49
(dp1745
g101
(lp1746
I0
aI0
aI0
aI0
aI0
aI0
aF0.069643403506512477
asg10
F0.23757272552084974
ssg512
(dp1747
g126
(lp1748
F0
aF0
aF0.71428571428571419
aI0
aI0
aI0
aF0.12718083488371704
asg128
F0.60691405477405636
ssg77
(dp1749
g101
(lp1750
I0
aI0
aI0
aI0
aI0
aI0
aF0.10855626633378267
asg10
F0.29660880246877991
ssVQQ\u5b89\u5168\u4e2d\u5fc3
p1751
(dp1752
g101
(lp1753
I0
aI0
aI0
aI0
aI0
aI0
aF0.42484650511214134
asg10
F0.58677636381311526
ssg239
(dp1754
g101
(lp1755
I0
aI0
aI0
aI0
aI0
aI0
aF0.51103772061251651
asg10
F0.64355114185232598
ssg59
(dp1756
g101
(lp1757
I0
aI0
aI0
aI0
aI0
aI0
aF0.16384834773956883
asg10
F0.36439937184927795
ssg61
(dp1758
g101
(lp1759
I0
aI0
aI0
aI0
aI0
aI0
aF0.073031182272741718
asg10
F0.24328243399139238
ssV\u591a\u7c73\u97f3\u4e50
p1760
(dp1761
g101
(lp1762
I0
aI0
aI0
aI0
aI0
aI0
aF0.39908202611417531
asg10
F0.56870581738627601
ssg65
(dp1763
g101
(lp1764
I0
aI0
aI0
aI0
aI0
aI0
aF0.15484162299929113
asg10
F0.35424232036187964
ssg67
(dp1765
g101
(lp1766
I0
aI0
aI0
aI0
aI0
aI0
aF0.27127252136591612
asg10
F0.46887760337671286
ssg69
(dp1767
g101
(lp1768
I0
aI0
aI0
aI0
aI0
aI0
aF0.11532705030916579
asg10
F0.30571882284814345
ssg71
(dp1769
g101
(lp1770
I0
aI0
aI0
aI0
aI0
aI0
aF0.045186775039244599
asg10
F0.19136488997466053
ssg75
(dp1771
g101
(lp1772
I0
aI0
aI0
aI0
aI0
aI0
aF0.1685502480914246
asg10
F0.36959091278004408
ssg55
(dp1773
g101
(lp1774
I0
aI0
aI0
aI0
aI0
aI0
aF0.1005664319031967
asg10
F0.2854848770320374
ssg760
(dp1775
g126
(lp1776
F0
aF0
aF0.64285714285714279
aI0
aI0
aI0
aF0.17232786022991631
asg128
F0.62555574247268875
ssg174
(dp1777
g126
(lp1778
F0
aF0
aF0.81168831168831168
aI0
aI0
aI0
aF0.88498791933290832
asg128
F1
ssg83
(dp1779
g101
(lp1780
I0
aI0
aI0
aI0
aI0
aI0
aF0.080843993594910735
asg10
F0.25596492984523173
ssg85
(dp1781
g101
(lp1782
I0
aI0
aI0
aI0
aI0
aI0
aF0.066783258366283529
asg10
F0.23264321385647843
ssg87
(dp1783
g101
(lp1784
I0
aI0
aI0
aI0
aI0
aI0
aF0.24420855895999322
asg10
F0.44487400224557033
ssg51
(dp1785
g101
(lp1786
I0
aI0
aI0
aI0
aI0
aI0
aF0.064607124418357226
asg10
F0.22882148108153111
ssg91
(dp1787
g101
(lp1788
I0
aI0
aI0
aI0
aI0
aI0
aF0.19305665337388656
asg10
F0.39554779990960115
ssg270
(dp1789
g101
(lp1790
I0
aI0
aI0
aI0
aI0
aI0
aF0.16100237578981963
asg10
F0.36122078229690863
sssg75
(dp1791
VQQ
p1792
(dp1793
g101
(lp1794
I0
aI0
aI0
aI0
aI0
aI0
aF0.13129123239720966
asg10
F0.32619285881446158
ssVYY
p1795
(dp1796
g101
(lp1797
I0
aI0
aI0
aI0
aI0
aI0
aF0.034344623740868004
asg10
F0.16683453989453362
ssg1146
(dp1798
g101
(lp1799
I0
aI0
aI0
aI0
aI0
aI0
aF0.034366150200502869
asg10
F0.16688681582636652
ssVUC\u6d4f\u89c8\u5668
p1800
(dp1801
g101
(lp1802
I0
aI0
aI0
aI0
aI0
aI0
aF0.063901678114736529
asg10
F0.22756879933706337
ssg41
(dp1803
g101
(lp1804
I0
aI0
aI0
aI0
aI0
aI0
aF0.058666547844928967
asg10
F0.21804787233162082
ssg174
(dp1805
g126
(lp1806
F0
aF0
aF0.59090909090909094
aI0
aI0
aI0
aF0.021183184117645464
asg128
F0.5083760234000726
ssg1188
(dp1807
g101
(lp1808
I0
aI0
aI0
aI0
aI0
aI0
aF0.025397840716245904
asg10
F0.14346798017801518
ssV\u5370\u8c61\u7b14\u8bb0
p1809
(dp1810
g101
(lp1811
I0
aI0
aI0
aI0
aI0
aI0
aF0.040569777817046716
asg10
F0.18132508977753614
ssV\u76f8\u673a
p1812
(dp1813
g101
(lp1814
I0
aI0
aI0
aI0
aI0
aI0
aF0.024558598292044157
asg10
F0.14107770113300505
ssV\u817e\u8baf\u65b0\u95fb
p1815
(dp1816
g101
(lp1817
I0
aI0
aI0
aI0
aI0
aI0
aF0.037726009422278835
asg10
F0.17485458346675245
ssg1242
(dp1818
g101
(lp1819
I0
aI0
aI0
aI0
aI0
aI0
aF0.050637822728518946
asg10
F0.20257884867725481
ssg1324
(dp1820
g101
(lp1821
I0
aI0
aI0
aI0
aI0
aI0
aF0.072204040797264946
asg10
F0.24190081857760334
ssg17
(dp1822
g101
(lp1823
I0
aI0
aI0
aI0
aI0
aI0
aF0.021802221716344501
asg10
F0.13292508982294848
ssg1684
(dp1824
g101
(lp1825
I0
aI0
aI0
aI0
aI0
aI0
aF0.021967462715331985
asg10
F0.13342786458203929
ssg163
(dp1826
g101
(lp1827
I0
aI0
aI0
aI0
aI0
aI0
aF0.024232002434816227
asg10
F0.14013649096545233
sssg55
(dp1828
VQQ
p1829
(dp1830
g101
(lp1831
I0
aI0
aI0
aI0
aI0
aI0
aF0.055505630902865741
asg10
F0.21209240083083872
ssg295
(dp1832
g101
(lp1833
I0
aI0
aI0
aI0
aI0
aI0
aF0.061606511963617855
asg10
F0.2234446171494042
ssg300
(dp1834
g101
(lp1835
I0
aI0
aI0
aI0
aI0
aI0
aF0.035598617359228507
asg10
F0.16985297254828446
ssg303
(dp1836
g101
(lp1837
I0
aI0
aI0
aI0
aI0
aI0
aF0.035068950034177593
asg10
F0.16858462652980777
ssVUC\u6d4f\u89c8\u5668
p1838
(dp1839
g101
(lp1840
I0
aI0
aI0
aI0
aI0
aI0
aF0.036939139974202062
asg10
F0.17302146162450535
ssg309
(dp1841
g101
(lp1842
I0
aI0
aI0
aI0
aI0
aI0
aF0.034934201281155014
asg10
F0.16826043045732694
ssV\u6298800
p1843
(dp1844
g101
(lp1845
I0
aI0
aI0
aI0
aI0
aI0
aF0.026148234810130472
asg10
F0.14557197515565126
ssg17
(dp1846
g101
(lp1847
I0
aI0
aI0
aI0
aI0
aI0
aF0.063498711750787085
asg10
F0.226850135900344
ssg93
(dp1848
g101
(lp1849
I0
aI0
aI0
aI0
aI0
aI0
aF0.055427939780415547
asg10
F0.21194391619599787
sssg65
(dp1850
VQQ
p1851
(dp1852
g126
(lp1853
I0
aF0
aI0
aF0.40000000000000002
aI0
aI0
aF0.11823034154153665
asg128
F0.54252173203820275
ssg53
(dp1854
g101
(lp1855
I0
aI0
aI0
aI0
aI0
aI0
aF0.025065989781114524
asg10
F0.1425276142704249
ssg181
(dp1856
g126
(lp1857
F0
aF0.10374916331657277
aI0
aI0
aI0
aI0
aF0.023247305785056061
asg128
F0.36821247028833531
ssVUC\u6d4f\u89c8\u5668
p1858
(dp1859
g126
(lp1860
F0
aF0.11135528725660045
aI0
aI0
aI0
aI0
aF0.057158889721266752
asg128
F0.40898267067583122
ssg41
(dp1861
g101
(lp1862
I0
aI0
aI0
aI0
aI0
aI0
aF0.040486625391577061
asg10
F0.18113917115063663
ssg174
(dp1863
g126
(lp1864
F0
aF0
aF0.54545454545454541
aF0.20000000000000001
aI0
aI0
aF0.031814299050120447
asg128
F0.5447781045272384
ssV\u65fa\u4fe1
p1865
(dp1866
g101
(lp1867
I0
aI0
aI0
aI0
aI0
aI0
aF0.034036540499494339
asg10
F0.16608457226221635
ssV\u76f8\u673a
p1868
(dp1869
g101
(lp1870
I0
aI0
aI0
aI0
aI0
aI0
aF0.021856053639438523
asg10
F0.13308909149590617
ssV\u6298800
p1871
(dp1872
g101
(lp1873
I0
aI0
aI0
aI0
aI0
aI0
aF0.011099562164116917
asg10
F0.09484392325815677
ssg17
(dp1874
g101
(lp1875
I0
aI0
aI0
aI0
aI0
aI0
aF0.054000860755482355
asg10
F0.20919771074106169
ssg1760
(dp1876
g101
(lp1877
I0
aI0
aI0
aI0
aI0
aI0
aF0.022409664979281679
asg10
F0.13476411651485545
ssV\u4e2d\u56fd\u5efa\u8bbe\u94f6\u884c
p1878
(dp1879
g101
(lp1880
I0
aI0
aI0
aI0
aI0
aI0
aF0.020602380628229684
asg10
F0.12921570152963013
ssVWPS Office
p1881
(dp1882
g101
(lp1883
I0
aI0
aI0
aI0
aI0
aI0
aF0.0048442715205339378
asg10
F0.062657177171010783
sssg81
(dp1884
g53
(dp1885
g101
(lp1886
I0
aI0
aI0
aI0
aI0
aI0
aF0.26673766982810776
asg10
F0.46494198238599049
ssg470
(dp1887
g101
(lp1888
I0
aI0
aI0
aI0
aI0
aI0
aF0.13240654055195103
asg10
F0.32757541951053248
ssg1230
(dp1889
g101
(lp1890
I0
aI0
aI0
aI0
aI0
aI0
aF0.33703143186882401
asg10
F0.52262693590000209
ssg41
(dp1891
g101
(lp1892
I0
aI0
aI0
aI0
aI0
aI0
aF0.24605692382113659
asg10
F0.44655440894804782
ssV\u65fa\u4fe1
p1893
(dp1894
g101
(lp1895
I0
aI0
aI0
aI0
aI0
aI0
aF0.1622802276371052
asg10
F0.36265142694510683
ssg191
(dp1896
g101
(lp1897
I0
aI0
aI0
aI0
aI0
aI0
aF0.27520821501441334
asg10
F0.47226665560380687
ssg194
(dp1898
g101
(lp1899
I0
aI0
aI0
aI0
aI0
aI0
aF0.2120104868350596
asg10
F0.41451023466367748
ssg849
(dp1900
g101
(lp1901
I0
aI0
aI0
aI0
aI0
aI0
aF0.080210867903379848
asg10
F0.25496067150922413
ssV\u6298800
p1902
(dp1903
g101
(lp1904
I0
aI0
aI0
aI0
aI0
aI0
aF0.15529705600009647
asg10
F0.35476290126909982
ssg17
(dp1905
g101
(lp1906
I0
aI0
aI0
aI0
aI0
aI0
aF0.19045484708493868
asg10
F0.39287337843696463
ssg31
(dp1907
g101
(lp1908
I0
aI0
aI0
aI0
aI0
aI0
aF0.040771876478353883
asg10
F0.18177616488395268
ssVWPS Office
p1909
(dp1910
g101
(lp1911
I0
aI0
aI0
aI0
aI0
aI0
aF0.15372802314313891
asg10
F0.3529661905316106
ssg207
(dp1912
g101
(lp1913
I0
aI0
aI0
aI0
aI0
aI0
aF0.24069188236578259
asg10
F0.44165922722364392
ssg37
(dp1914
g101
(lp1915
I0
aI0
aI0
aI0
aI0
aI0
aF0.070170462540826248
asg10
F0.23847000244686248
ssg862
(dp1916
g101
(lp1917
I0
aI0
aI0
aI0
aI0
aI0
aF0.098805471258524832
asg10
F0.28297435812311306
ssg715
(dp1918
g101
(lp1919
I0
aI0
aI0
aI0
aI0
aI0
aF0.025927996267666158
asg10
F0.14495762480401322
ssg659
(dp1920
g101
(lp1921
I0
aI0
aI0
aI0
aI0
aI0
aF0.20026390750186029
asg10
F0.40286350735466486
ssVFlappy Bird
p1922
(dp1923
g101
(lp1924
I0
aI0
aI0
aI0
aI0
aI0
aF0.17914237624487503
asg10
F0.38102700042824783
ssg49
(dp1925
g101
(lp1926
I0
aI0
aI0
aI0
aI0
aI0
aF0.054731852847184473
asg10
F0.21060887187772598
ssg512
(dp1927
g126
(lp1928
F0
aF0
aF0.75
aI0
aI0
aI0
aF0.07533166215129361
asg128
F0.576953840515259
ssg118
(dp1929
g101
(lp1930
I0
aI0
aI0
aI0
aI0
aI0
aF0.1421293836466424
asg10
F0.33938959443759631
ssg875
(dp1931
g101
(lp1932
I0
aI0
aI0
aI0
aI0
aI0
aF0.17493880220314642
asg10
F0.37653006635473624
ssg59
(dp1933
g101
(lp1934
I0
aI0
aI0
aI0
aI0
aI0
aF0.048140845052047153
asg10
F0.19752107532611923
ssg61
(dp1935
g101
(lp1936
I0
aI0
aI0
aI0
aI0
aI0
aF0.02500266463581648
asg10
F0.14234746400327861
ssV\u591a\u7c73\u97f3\u4e50
p1937
(dp1938
g101
(lp1939
I0
aI0
aI0
aI0
aI0
aI0
aF0.049159505485966065
asg10
F0.19959990915043291
ssg65
(dp1940
g101
(lp1941
I0
aI0
aI0
aI0
aI0
aI0
aF0.051629048603822801
asg10
F0.20455196111631921
ssg160
(dp1942
g101
(lp1943
I0
aI0
aI0
aI0
aI0
aI0
aF0.12079742215897682
asg10
F0.31288548744744898
ssg163
(dp1944
g101
(lp1945
I0
aI0
aI0
aI0
aI0
aI0
aF0.027000323501011031
asg10
F0.14792482710487764
ssg1089
(dp1946
g101
(lp1947
I0
aI0
aI0
aI0
aI0
aI0
aF0.826953887669577
asg10
F0.81864805276308295
ssg534
(dp1948
g101
(lp1949
I0
aI0
aI0
aI0
aI0
aI0
aF0.053832587739267461
asg10
F0.20887151412366528
ssg760
(dp1950
g126
(lp1951
F0
aF0
aF0.66666666666666663
aI0
aI0
aI0
aF0.072783716211892849
asg128
F0.56148453206463211
ssg85
(dp1952
g101
(lp1953
I0
aI0
aI0
aI0
aI0
aI0
aF0.039822788895725734
asg10
F0.17964801476117148
ssg51
(dp1954
g101
(lp1955
I0
aI0
aI0
aI0
aI0
aI0
aF0.075470859721419953
asg10
F0.24731259540987111
ssg91
(dp1956
g101
(lp1957
I0
aI0
aI0
aI0
aI0
aI0
aF0.11290915811396243
asg10
F0.3024970690966618
sssg83
(dp1958
VQQ
p1959
(dp1960
g126
(lp1961
I0
aF0
aI0
aF0.33333333333333331
aI0
aI0
aF0.082896757540588131
asg128
F0.49839576662656199
ssg450
(dp1962
g101
(lp1963
I0
aI0
aI0
aI0
aI0
aI0
aF0.035309773355321615
asg10
F0.1691624831236011
ssV\u652f\u4ed8\u5b9d\u94b1\u5305
p1964
(dp1965
g101
(lp1966
I0
aI0
aI0
aI0
aI0
aI0
aF0.042407492988340553
asg10
F0.18538640640041529
ssg174
(dp1967
g126
(lp1968
F0
aF0
aF0.59090909090909094
aF0.33333333333333331
aI0
aI0
aF0.042840780464589417
asg128
F0.58006238907294261
ssV\u65fa\u4fe1
p1969
(dp1970
g101
(lp1971
I0
aI0
aI0
aI0
aI0
aI0
aF0.071865543380297575
asg10
F0.24133312877115212
ssV\u817e\u8baf\u65b0\u95fb
p1972
(dp1973
g101
(lp1974
I0
aI0
aI0
aI0
aI0
aI0
aF0.055380682767565026
asg10
F0.2118535468609776
ssV\u6298800
p1975
(dp1976
g101
(lp1977
I0
aI0
aI0
aI0
aI0
aI0
aF0.03658743414196778
asg10
F0.17219580354420091
ssg17
(dp1978
g101
(lp1979
I0
aI0
aI0
aI0
aI0
aI0
aF0.031820779500870269
asg10
F0.16058759483983992
ssg512
(dp1980
g126
(lp1981
F0
aF0
aF0.75
aI0
aI0
aI0
aI0
asg128
F0.52136841438363157
sssg85
(dp1982
VQQ
p1983
(dp1984
g101
(lp1985
I0
aI0
aI0
aI0
aI0
aI0
aF0.077848506465579434
asg10
F0.25117807574408368
ssV\u5370\u8c61\u7b14\u8bb0
p1986
(dp1987
g101
(lp1988
I0
aI0
aI0
aI0
aI0
aI0
aF0.019810925004492681
asg10
F0.12670943765479767
ssVUC\u6d4f\u89c8\u5668
p1989
(dp1990
g101
(lp1991
I0
aI0
aI0
aI0
aI0
aI0
aF0.056941321155324659
asg10
F0.21481784535501158
ssg41
(dp1992
g101
(lp1993
I0
aI0
aI0
aI0
aI0
aI0
aF0.029097548662745994
asg10
F0.15356236361661982
ssg174
(dp1994
g126
(lp1995
F0
aF0
aF0.59090909090909094
aI0
aI0
aI0
aF0.023712828917647723
asg128
F0.51038835231224244
ssV\u76f8\u673a
p1996
(dp1997
g101
(lp1998
I0
aI0
aI0
aI0
aI0
aI0
aF0.019678997288336046
asg10
F0.12628683219914477
ssVYY
p1999
(dp2000
g101
(lp2001
I0
aI0
aI0
aI0
aI0
aI0
aF0.019525807922262609
asg10
F0.12579433769743933
ssV\u6298800
p2002
(dp2003
g101
(lp2004
I0
aI0
aI0
aI0
aI0
aI0
aF0.048588499220073099
asg10
F0.19843730902717702
ssg17
(dp2005
g101
(lp2006
I0
aI0
aI0
aI0
aI0
aI0
aF0.022173775391125028
asg10
F0.13405296016649276
sssg87
(dp2007
VQQ
p2008
(dp2009
g101
(lp2010
I0
aI0
aI0
aI0
aI0
aI0
aF0.22919778309653202
asg10
F0.43098464036036832
ssVYY
p2011
(dp2012
g101
(lp2013
I0
aI0
aI0
aI0
aI0
aI0
aF0.059192267066531898
asg10
F0.21902267226333832
ssg37
(dp2014
g101
(lp2015
I0
aI0
aI0
aI0
aI0
aI0
aF0.036201262327802256
asg10
F0.17128464968669802
ssV\u652f\u4ed8\u5b9d\u94b1\u5305
p2016
(dp2017
g101
(lp2018
I0
aI0
aI0
aI0
aI0
aI0
aF0.073503176855767322
asg10
F0.24406732514033808
ssVUC\u6d4f\u89c8\u5668
p2019
(dp2020
g101
(lp2021
I0
aI0
aI0
aI0
aI0
aI0
aF0.10750240708679459
asg10
F0.29516555887578333
ssg41
(dp2022
g101
(lp2023
I0
aI0
aI0
aI0
aI0
aI0
aF0.15454392480466234
asg10
F0.35390162373918793
ssg39
(dp2024
g101
(lp2025
I0
aI0
aI0
aI0
aI0
aI0
aF0.026471869350237112
asg10
F0.14647007093688194
ssg985
(dp2026
g101
(lp2027
I0
aI0
aI0
aI0
aI0
aI0
aF0.083201280229338245
asg10
F0.25966988820776471
ssg1655
(dp2028
g101
(lp2029
I0
aI0
aI0
aI0
aI0
aI0
aF0.044526912643946523
asg10
F0.18996250080079408
ssV\u76f8\u673a
p2030
(dp2031
g101
(lp2032
I0
aI0
aI0
aI0
aI0
aI0
aF0.055744515942283912
asg10
F0.21254831227588558
ssg507
(dp2033
g101
(lp2034
I0
aI0
aI0
aI0
aI0
aI0
aF0.010230932065620658
asg10
F0.091057178052269566
ssV\u817e\u8baf\u65b0\u95fb
p2035
(dp2036
g101
(lp2037
I0
aI0
aI0
aI0
aI0
aI0
aF0.028329275839026273
asg10
F0.15152152165313731
ssg61
(dp2038
g101
(lp2039
I0
aI0
aI0
aI0
aI0
aI0
aF0.036204258997012122
asg10
F0.17129173884300258
ssg1324
(dp2040
g101
(lp2041
I0
aI0
aI0
aI0
aI0
aI0
aF0.093502086513780738
asg10
F0.27527529561374914
ssg17
(dp2042
g101
(lp2043
I0
aI0
aI0
aI0
aI0
aI0
aF0.045586183116614561
asg10
F0.19220877103306394
ssV\u591a\u7c73\u97f3\u4e50
p2044
(dp2045
g101
(lp2046
I0
aI0
aI0
aI0
aI0
aI0
aF0.017516922929328278
asg10
F0.11914765414865459
ssg1684
(dp2047
g101
(lp2048
I0
aI0
aI0
aI0
aI0
aI0
aF0.045902399465223433
asg10
F0.19287426344377995
ssg169
(dp2049
g101
(lp2050
I0
aI0
aI0
aI0
aI0
aI0
aF0.042485791245135018
asg10
F0.18555746978495075
ssg163
(dp2051
g101
(lp2052
I0
aI0
aI0
aI0
aI0
aI0
aF0.050254476139650485
asg10
F0.20181059443568763
sssg89
(dp2053
VQQ
p2054
(dp2055
g126
(lp2056
I0
aF0
aI0
aF1
aI0
aI0
aF0.083960199764281915
asg128
F0.6179967634964959
ssg53
(dp2057
g101
(lp2058
I0
aI0
aI0
aI0
aI0
aI0
aF0.035496719399349584
asg10
F0.1696097036258874
ssg65
(dp2059
g101
(lp2060
I0
aI0
aI0
aI0
aI0
aI0
aF0.025209154436667703
asg10
F0.14293405870305984
ssV\u8d85\u7ea7\u8bfe\u7a0b\u8868
p2061
(dp2062
g101
(lp2063
I0
aI0
aI0
aI0
aI0
aI0
aF0.021792987562821504
asg10
F0.13289693717182943
ssg174
(dp2064
g126
(lp2065
F0
aF0
aF0.72727272727272729
aI0
aI0
aI0
aF0.042654105835397291
asg128
F0.54976609616650307
ssg995
(dp2066
g101
(lp2067
I0
aI0
aI0
aI0
aI0
aI0
aF0.039423715978714448
asg10
F0.17874560213653271
ssg45
(dp2068
g101
(lp2069
I0
aI0
aI0
aI0
aI0
aI0
aF0.035890587330342984
asg10
F0.17054809361118969
ssVQQ\u5b89\u5168\u4e2d\u5fc3
p2070
(dp2071
g101
(lp2072
I0
aI0
aI0
aI0
aI0
aI0
aF0.024575204012173571
asg10
F0.14112538913444894
ssg760
(dp2073
g126
(lp2074
F0
aF0
aF1
aI0
aI0
aI0
aI0
asg128
F0.56024682149916716
ssVWPS Office
p2075
(dp2076
g101
(lp2077
I0
aI0
aI0
aI0
aI0
aI0
aF0.039542793386794714
asg10
F0.17901534478333142
sssg91
(dp2078
VQQ
p2079
(dp2080
g101
(lp2081
I0
aI0
aI0
aI0
aI0
aI0
aF0.10970741367895763
asg10
F0.298177297973513
ssV\u5370\u8c61\u7b14\u8bb0
p2082
(dp2083
g101
(lp2084
I0
aI0
aI0
aI0
aI0
aI0
aF0.034760941123586325
asg10
F0.1678426584139722
ssg592
(dp2085
g101
(lp2086
I0
aI0
aI0
aI0
aI0
aI0
aF0.03643028038745813
asg10
F0.17182558984632312
ssVUC\u6d4f\u89c8\u5668
p2087
(dp2088
g101
(lp2089
I0
aI0
aI0
aI0
aI0
aI0
aF0.075211134589837456
asg10
F0.2468866783408587
ssg174
(dp2090
g126
(lp2091
F0
aF0
aF0.68181818181818188
aI0
aI0
aI0
aF0.050905173327368138
asg128
F0.54811481320609401
ssg1066
(dp2092
g101
(lp2093
I0
aI0
aI0
aI0
aI0
aI0
aF0.051098155964489515
asg10
F0.20349755720677887
ssg512
(dp2094
g126
(lp2095
F0
aF0
aF0.34999999999999998
aI0
aI0
aI0
aI0
asg128
F0.43091976305986135
ssg708
(dp2096
g101
(lp2097
I0
aI0
aI0
aI0
aI0
aI0
aF0.036886354856779408
asg10
F0.17289779573514058
sssg93
(dp2098
g1829
(dp2099
g101
(lp2100
I0
aI0
aI0
aI0
aI0
aI0
aF0.11218235836811151
asg10
F0.30152190577524518
ssg295
(dp2101
g101
(lp2102
I0
aI0
aI0
aI0
aI0
aI0
aF0.087309574943534599
asg10
F0.26600360564851844
ssg55
(dp2103
g101
(lp2104
I0
aI0
aI0
aI0
aI0
aI0
aF0.063864297418398094
asg10
F0.22750222890541208
ssg300
(dp2105
g101
(lp2106
I0
aI0
aI0
aI0
aI0
aI0
aF0.052895954966976411
asg10
F0.20704646386179271
ssg303
(dp2107
g101
(lp2108
I0
aI0
aI0
aI0
aI0
aI0
aF0.049454160144978367
asg10
F0.20019720133831478
ssg1838
(dp2109
g101
(lp2110
I0
aI0
aI0
aI0
aI0
aI0
aF0.075528784268241722
asg10
F0.24740748449943931
ssg106
(dp2111
g101
(lp2112
I0
aI0
aI0
aI0
aI0
aI0
aF0.029650479382315763
asg10
F0.15501454367970008
ssg309
(dp2113
g101
(lp2114
I0
aI0
aI0
aI0
aI0
aI0
aF0.049263051884250765
asg10
F0.19981001073279397
ssVYY
p2115
(dp2116
g101
(lp2117
I0
aI0
aI0
aI0
aI0
aI0
aF0.044833048353137887
asg10
F0.1906144064302914
ssg1843
(dp2118
g101
(lp2119
I0
aI0
aI0
aI0
aI0
aI0
aF0.045181371342355614
asg10
F0.1913534473703053
ssg17
(dp2120
g101
(lp2121
I0
aI0
aI0
aI0
aI0
aI0
aF0.089567444509468505
asg10
F0.269421145435422
ssssS'edge'
p2122
g98
sS'pred'
p2123
(dp2124
g8
(dp2125
g53
g627
sg8
g100
sg11
g182
sg41
g1036
sg15
g304
sg19
g401
sg21
g471
sg23
g551
sg87
g2017
sg27
g690
sg17
g323
sg33
g774
sg35
g832
sg37
g911
sg43
g1112
sg45
g1147
sg47
g1228
sg25
g1309
sg57
g1379
sg63
g1480
sg79
g1540
sg67
g1598
sg69
g1661
sg73
g1705
sg75
g1798
sg55
g1836
sg65
g1856
sg81
g1887
sg83
g1965
sg93
g2107
ssg11
(dp2126
g53
g630
sg8
g104
sg41
g1038
sg15
g307
sg19
g403
sg21
g473
sg23
g553
sg25
g1312
sg27
g693
sg17
g326
sg33
g776
sg35
g835
sg37
g914
sg39
g981
sg13
g280
sg43
g1115
sg45
g1150
sg47
g1231
sg49
g1298
sg77
g1018
sg57
g1381
sg59
g1446
sg63
g1483
sg79
g1543
sg67
g1601
sg69
g1664
sg73
g1707
sg75
g1801
sg55
g1839
sg65
g1859
sg81
g1889
sg85
g1990
sg87
g2020
sg91
g2088
sg93
g2109
ssg13
(dp2127
g73
g1737
sg35
g838
sg53
g655
sg39
g983
sg11
g184
sg23
g555
sg43
g1117
sg21
g475
sg47
g1233
sg17
g328
ssg15
(dp2128
g21
g477
sg35
g840
sg73
g1711
sg11
g186
sg17
g330
ssg17
(dp2129
g8
g125
sg11
g202
sg41
g1042
sg15
g315
sg19
g419
sg21
g487
sg23
g567
sg53
g646
sg27
g706
sg29
g765
sg33
g792
sg35
g855
sg37
g932
sg39
g1008
sg43
g1138
sg45
g1168
sg47
g1248
sg25
g1327
sg57
g1385
sg59
g1459
sg63
g1498
sg65
g1874
sg67
g1618
sg69
g1679
sg73
g1713
sg75
g1822
sg55
g1846
sg79
g1560
sg81
g1905
sg83
g1978
sg85
g2005
sg87
g2042
sg93
g2120
ssg19
(dp2130
g8
g110
sg11
g189
sg41
g1044
sg15
g310
sg21
g479
sg23
g558
sg25
g1316
sg27
g697
sg17
g332
sg33
g780
sg35
g843
sg37
g919
sg77
g1024
sg45
g1155
sg47
g1235
sg53
g635
sg57
g1387
sg63
g1487
sg79
g1548
sg67
g1606
sg69
g1671
sg73
g1715
sg55
g1841
sg65
g1866
sg81
g1894
sg83
g1970
sg93
g2113
ssg21
(dp2131
g8
g113
sg11
g192
sg41
g1046
sg19
g408
sg23
g560
sg77
g1027
sg27
g700
sg17
g335
sg33
g783
sg35
g845
sg37
g922
sg43
g1129
sg45
g1158
sg47
g1238
sg53
g638
sg25
g1318
sg57
g1390
sg59
g1440
sg63
g1490
sg67
g1608
sg73
g1717
sg75
g1796
sg79
g1551
sg81
g1896
sg85
g2000
sg87
g2012
sg93
g2116
ssg23
(dp2132
g8
g116
sg11
g195
sg41
g1048
sg19
g411
sg21
g481
sg53
g641
sg27
g702
sg17
g337
sg33
g785
sg35
g847
sg37
g924
sg39
g1001
sg43
g1126
sg45
g1161
sg47
g1240
sg25
g1320
sg57
g1392
sg63
g1492
sg67
g1610
sg69
g1673
sg73
g1719
sg75
g1816
sg79
g1554
sg81
g1898
sg83
g1973
sg87
g2036
ssg53
(dp2133
g8
g147
sg11
g234
sg41
g1050
sg19
g438
sg21
g515
sg23
g590
sg25
g1346
sg27
g704
sg17
g339
sg33
g806
sg35
g829
sg13
g277
sg43
g1108
sg45
g1144
sg47
g1263
sg89
g2057
sg77
g1014
sg57
g1412
sg63
g1478
sg65
g1854
sg67
g1596
sg73
g1721
sg79
g1575
sg81
g1885
ssg27
(dp2134
g8
g122
sg11
g200
sg41
g1053
sg15
g313
sg19
g416
sg21
g485
sg23
g565
sg53
g644
sg17
g342
sg33
g790
sg35
g853
sg37
g930
sg39
g1006
sg43
g1136
sg45
g1166
sg47
g1246
sg25
g1325
sg57
g1397
sg63
g1496
sg65
g1872
sg67
g1616
sg69
g1677
sg73
g1723
sg75
g1820
sg55
g1844
sg79
g1558
sg81
g1903
sg83
g1976
sg85
g2003
sg87
g2040
sg93
g2118
ssg29
(dp2135
g57
g1399
sg73
g1725
sg17
g344
sg41
g1055
ssg31
(dp2136
g21
g489
sg81
g1907
sg37
g934
sg73
g1727
sg45
g1170
ssg33
(dp2137
g8
g130
sg11
g205
sg41
g1057
sg15
g318
sg19
g422
sg21
g491
sg23
g569
sg77
g1033
sg27
g709
sg17
g347
sg35
g858
sg37
g936
sg45
g1173
sg47
g1250
sg89
g2076
sg53
g649
sg25
g1329
sg57
g1401
sg63
g1500
sg65
g1882
sg67
g1620
sg71
g1702
sg73
g1729
sg79
g1563
sg81
g1910
sg91
g2096
ssg35
(dp2138
g53
g651
sg8
g133
sg11
g208
sg41
g1060
sg15
g296
sg19
g424
sg21
g494
sg23
g572
sg87
g2028
sg27
g711
sg17
g349
sg33
g794
sg37
g939
sg45
g1176
sg47
g1253
sg25
g1331
sg57
g1403
sg59
g1449
sg63
g1502
sg67
g1622
sg69
g1656
sg73
g1731
sg75
g1810
sg55
g1832
sg79
g1566
sg81
g1912
sg85
g1987
sg91
g2083
sg93
g2101
ssg37
(dp2139
g73
g1733
sg35
g860
sg25
g1333
sg8
g136
sg11
g210
sg41
g1062
sg81
g1914
sg19
g426
sg43
g1133
sg21
g496
sg45
g1178
sg23
g574
sg61
g1470
sg27
g713
sg17
g351
sg63
g1504
sg87
g2014
sg69
g1658
sg33
g796
ssg39
(dp2140
g21
g498
sg35
g863
sg73
g1735
sg53
g653
sg8
g139
sg11
g213
sg81
g1916
sg25
g1335
sg19
g428
sg43
g1119
sg57
g1406
sg45
g1181
sg47
g1255
sg87
g2024
sg33
g798
sg23
g576
sg17
g354
sg67
g1624
sg89
g2062
ssg77
(dp2141
g73
g1749
sg21
g500
sg37
g947
sg11
g216
sg41
g1072
sg19
g413
sg57
g1427
sg23
g612
sg63
g1513
sg67
g1632
sg33
g800
ssg41
(dp2142
g8
g107
sg11
g218
sg41
g1040
sg19
g405
sg21
g502
sg23
g578
sg53
g632
sg27
g695
sg17
g356
sg33
g778
sg35
g865
sg37
g916
sg39
g988
sg43
g1123
sg45
g1152
sg47
g1257
sg77
g1020
sg25
g1314
sg57
g1383
sg61
g1475
sg63
g1485
sg79
g1545
sg67
g1603
sg69
g1666
sg73
g1709
sg75
g1803
sg65
g1861
sg81
g1891
sg85
g1992
sg87
g2022
sg93
g2111
ssg43
(dp2143
g73
g1739
sg53
g657
sg79
g1569
sg11
g221
sg39
g993
sg81
g1918
sg21
g505
sg45
g1183
sg23
g580
sg25
g1337
sg27
g716
ssg45
(dp2144
g53
g660
sg8
g142
sg11
g224
sg41
g1064
sg19
g431
sg21
g508
sg23
g583
sg25
g1340
sg27
g718
sg17
g359
sg33
g802
sg35
g867
sg37
g942
sg39
g998
sg45
g1186
sg47
g1259
sg49
g1295
sg89
g2068
sg77
g1029
sg57
g1408
sg59
g1457
sg63
g1506
sg67
g1626
sg73
g1741
sg79
g1571
sg81
g1920
sg87
g2033
ssg47
(dp2145
g8
g145
sg11
g227
sg41
g1067
sg19
g434
sg21
g510
sg23
g586
sg25
g1342
sg27
g720
sg17
g362
sg33
g804
sg35
g869
sg37
g944
sg39
g991
sg43
g1131
sg45
g1189
sg53
g662
sg57
g1410
sg63
g1508
sg67
g1628
sg73
g1743
sg75
g1807
sg79
g1573
sg81
g1923
sg91
g2092
ssg49
(dp2146
g73
g1745
sg45
g1191
sg11
g229
sg81
g1925
ssg51
(dp2147
g73
g1785
sg35
g902
sg11
g266
sg41
g1100
sg81
g1954
sg45
g1193
sg23
g588
sg67
g1630
ssg25
(dp2148
g8
g119
sg11
g237
sg13
g289
sg15
g301
sg19
g441
sg21
g517
sg23
g593
sg27
g724
sg17
g367
sg33
g787
sg35
g873
sg37
g927
sg39
g976
sg41
g1074
sg43
g1110
sg45
g1195
sg47
g1266
sg89
g2071
sg53
g667
sg57
g1394
sg59
g1443
sg63
g1494
sg67
g1613
sg73
g1752
sg55
g1834
sg79
g1556
sg81
g1929
sg91
g2085
sg93
g2105
ssg57
(dp2149
g8
g150
sg11
g240
sg13
g286
sg19
g444
sg21
g519
sg23
g596
sg87
g2031
sg27
g726
sg17
g370
sg33
g809
sg35
g876
sg37
g949
sg39
g996
sg41
g1077
sg45
g1198
sg47
g1268
sg89
g2066
sg53
g670
sg25
g1349
sg59
g1455
sg63
g1515
sg65
g1869
sg67
g1634
sg73
g1754
sg75
g1813
sg79
g1577
sg81
g1931
sg85
g1997
ssg59
(dp2150
g73
g1756
sg35
g878
sg25
g1351
sg8
g152
sg11
g242
sg81
g1933
sg47
g1270
sg21
g521
sg45
g1200
sg23
g598
sg53
g672
sg27
g728
sg17
g372
sg63
g1517
sg33
g811
ssg61
(dp2151
g73
g1758
sg37
g951
sg11
g244
sg41
g1079
sg81
g1935
sg25
g1353
sg19
g446
sg45
g1202
sg23
g600
sg87
g2038
sg63
g1519
sg69
g1689
ssg63
(dp2152
g53
g674
sg8
g155
sg11
g247
sg41
g1082
sg19
g448
sg21
g523
sg23
g602
sg25
g1355
sg27
g731
sg17
g375
sg33
g813
sg35
g881
sg37
g954
sg43
g1141
sg45
g1205
sg47
g1273
sg77
g1031
sg57
g1414
sg79
g1580
sg67
g1636
sg69
g1682
sg71
g1693
sg73
g1761
sg65
g1876
sg81
g1938
sg87
g2045
ssg79
(dp2153
g53
g685
sg8
g158
sg11
g262
sg41
g1094
sg17
g378
sg19
g451
sg21
g539
sg23
g614
sg25
g1357
sg27
g744
sg29
g761
sg33
g822
sg35
g898
sg45
g1218
sg47
g1284
sg89
g2073
sg77
g1016
sg57
g1416
sg63
g1530
sg67
g1645
sg73
g1775
sg81
g1950
sg83
g1962
ssg67
(dp2154
g8
g161
sg11
g251
sg41
g1087
sg19
g453
sg21
g527
sg23
g605
sg53
g679
sg27
g735
sg17
g381
sg33
g815
sg35
g885
sg37
g956
sg45
g1209
sg47
g1275
sg25
g1359
sg57
g1418
sg59
g1462
sg63
g1523
sg65
g1879
sg69
g1685
sg73
g1765
sg75
g1824
sg79
g1583
sg81
g1942
sg87
g2047
ssg69
(dp2155
g73
g1767
sg35
g887
sg25
g1361
sg79
g1585
sg8
g164
sg11
g253
sg75
g1826
sg81
g1944
sg47
g1277
sg57
g1420
sg45
g1211
sg21
g529
sg37
g958
sg87
g2051
ssg71
(dp2156
g63
g1525
sg73
g1769
sg23
g607
sg61
g1473
sg35
g889
ssg73
(dp2157
g8
g167
sg11
g256
sg13
g275
sg15
g293
sg29
g756
sg19
g456
sg21
g532
sg23
g610
sg25
g1364
sg27
g738
sg17
g384
sg33
g817
sg35
g891
sg37
g960
sg39
g974
sg77
g1012
sg41
g1090
sg43
g1106
sg45
g1213
sg47
g1280
sg49
g1293
sg89
g2055
sg53
g682
sg57
g1423
sg59
g1437
sg61
g1466
sg63
g1528
sg79
g1587
sg67
g1641
sg69
g1653
sg71
g1699
sg75
g1793
sg55
g1830
sg65
g1852
sg81
g1946
sg83
g1960
sg85
g1984
sg87
g2009
sg51
g1302
sg91
g2080
sg93
g2099
ssg75
(dp2158
g73
g1771
sg35
g894
sg25
g1366
sg79
g1589
sg8
g170
sg11
g258
sg41
g1092
sg81
g1948
sg57
g1425
sg21
g535
sg47
g1282
sg87
g2049
sg27
g740
sg17
g386
sg45
g1215
sg67
g1643
sg69
g1687
ssg55
(dp2159
g73
g1773
sg35
g896
sg11
g260
sg15
g298
sg21
g537
sg27
g742
sg17
g388
sg33
g819
sg93
g2103
ssg65
(dp2160
g73
g1763
sg21
g525
sg11
g249
sg25
g1368
sg8
g172
sg39
g978
sg41
g1084
sg81
g1940
sg19
g458
sg35
g883
sg57
g1429
sg45
g1207
sg37
g962
sg27
g733
sg17
g390
sg53
g676
sg67
g1638
sg63
g1521
sg89
g2059
ssg81
(dp2161
g8
g175
sg11
g264
sg41
g1096
sg17
g392
sg19
g460
sg21
g541
sg23
g616
sg25
g1371
sg27
g746
sg29
g758
sg31
g769
sg33
g824
sg35
g900
sg37
g964
sg39
g986
sg13
g283
sg43
g1121
sg45
g1220
sg47
g1287
sg51
g1304
sg53
g687
sg57
g1431
sg59
g1452
sg61
g1468
sg63
g1532
sg65
g1863
sg67
g1647
sg69
g1669
sg71
g1696
sg73
g1777
sg75
g1805
sg77
g1022
sg79
g1591
sg83
g1967
sg85
g1994
sg87
g2026
sg89
g2064
sg91
g2090
ssg83
(dp2162
g73
g1779
sg23
g619
sg27
g748
sg17
g394
ssg85
(dp2163
g73
g1781
sg37
g966
sg81
g1952
sg21
g543
sg45
g1222
sg31
g771
ssg87
(dp2164
g73
g1783
sg35
g850
sg25
g1322
sg79
g1593
sg39
g1003
sg11
g198
sg75
g1818
sg81
g1900
sg41
g1098
sg23
g562
sg19
g463
sg21
g483
sg45
g1163
sg47
g1243
sg37
g968
sg63
g1534
sg69
g1675
ssg89
(dp2165
g73
g1747
sg35
g871
sg53
g664
sg11
g232
sg41
g1069
sg81
g1927
sg83
g1980
sg19
g436
sg21
g513
sg45
g1224
sg23
g621
sg25
g1344
sg27
g722
sg91
g2094
sg29
g763
sg63
g1510
sg17
g365
sg51
g1306
sg47
g1261
ssg91
(dp2166
g73
g1787
sg57
g1433
sg25
g1373
sg11
g268
sg41
g1102
sg81
g1956
sg19
g465
sg35
g904
sg21
g545
sg23
g623
sg37
g970
sg27
g750
sg17
g396
sg63
g1537
sg67
g1649
sg47
g1289
ssg93
(dp2167
g73
g1789
sg35
g907
sg55
g1848
sg25
g1375
sg8
g178
sg11
g271
sg15
g320
sg19
g467
sg21
g547
sg27
g752
sg17
g398
sg33
g826
sssS'adj'
p2168
g98
sb.