ccopy_reg
_reconstructor
p1
(cnetworkx.classes.digraph
DiGraph
p2
c__builtin__
object
p3
NtRp4
(dp5
S'node'
p6
(dp7
Vcom.android.browser
p8
(dp9
S'weight'
p10
F2.4747049798134778e-05
ssVcom.autonavi.minimap
p11
(dp12
g10
F0.0025984402288041519
ssVim.yixin
p13
(dp14
g10
F9.1917613535929182e-05
ssVcom.android.thememanager
p15
(dp16
g10
F6.0099978081184466e-05
ssVcom.huawei.android.totemweather
p17
(dp18
g10
F0.0010358407986933557
ssVcom.android.deskclock
p19
(dp20
g10
F0.044198230939468716
ssVcom.UCMobile
p21
(dp22
g10
F0.069800821602053295
ssVcom.sina.weibo
p23
(dp24
g10
F0.010468002064611012
ssVcom.android.contacts
p25
(dp26
g10
F0.020497627818512207
ssVcom.eg.android.AlipayGphone
p27
(dp28
g10
F0.0010393760915216608
ssVcom.dangdang.buy2
p29
(dp30
g10
F0.0023969285375907688
ssVcn.wps.moffice_eng
p31
(dp32
g10
F0.00089089379273285204
ssVcom.estrongs.android.pop
p33
(dp34
g10
F0.020787521830433215
ssVcom.android.packageinstaller
p35
(dp36
g10
F7.7776442222709307e-05
ssVcom.android.gallery3d
p37
(dp38
g10
F0.0026231872786022866
ssVcom.jingdong.app.mall
p39
(dp40
g10
F0.0016474464579901153
ssVcom.tencent.game.SSGame
p41
(dp42
g10
F0.00043484101788151115
ssVcom.android.video
p43
(dp44
g10
F0.00037474103980032666
ssVcom.android.phone
p45
(dp46
g10
F0.00066463505172133404
ssVcom.vmall.client
p47
(dp48
g10
F0.00025454108363795773
ssVcom.doupo.zhangyue.zy
p49
(dp50
g10
F0.001011093748895221
ssVcom.tencent.mm
p51
(dp52
g10
F0.033896387637788038
ssVcom.ylmf.androidclient
p53
(dp54
g10
F0.0010641231413197954
ssVcom.huawei.KoBackup
p55
(dp56
g10
F1.7676464141524844e-05
ssVcom.mxtech.videoplayer.ad
p57
(dp58
g10
F0.010545778506833721
ssVcom.chaozh.iReaderFree15
p59
(dp60
g10
F0.53371608770354451
ssVcom.android.email
p61
(dp62
g10
F4.5958806767964591e-05
ssVcom.dining
p63
(dp64
g10
F0.00013434112747558879
ssVcom.tencent.mobileqq
p65
(dp66
g10
F0.18638770849389455
ssVcom.MobileTicket
p67
(dp68
g10
F0.0005479703883872701
ssVcom.huawei.gamebox
p69
(dp70
g10
F0.0018277463922336688
ssVcom.cyou.cx.mtlbb.huawei
p71
(dp72
g10
F0.00090857025687437695
ssVcom.android.calendar
p73
(dp74
g10
F9.8988199192539113e-05
ssVcom.android.settings
p75
(dp76
g10
F0.0010888701911179303
ssVcom.tencent.pao
p77
(dp78
g10
F0.017877975832738226
ssVnet.csdn.csdnplus
p79
(dp80
g10
F2.1211756969829809e-05
ssVcom.huawei.hwid
p81
(dp82
g10
F7.7776442222709307e-05
ssVcom.huawei.appmarket
p83
(dp84
g10
F0.020062786800630696
ssVcom.android.camera
p85
(dp86
g10
F0.00010605878484914906
ssVcc.thedream.qinsmoon.HUAWEI
p87
(dp88
g10
F0.00048079982464947573
ssVcom.sohu.sohuvideo
p89
(dp90
g10
F0.010114472781780515
sssS'node_dict_factory'
p91
c__builtin__
dict
p92
sS'edge_attr_dict_factory'
p93
g92
sS'succ'
p94
(dp95
g8
(dp96
sg11
(dp97
Vcom.tencent.mobileqq
p98
(dp99
g10
F2.8999999999999999
ssVcom.android.gallery3d
p100
(dp101
g10
I1
ssVcom.android.contacts
p102
(dp103
g10
I1
sssg13
(dp104
Vcom.estrongs.android.pop
p105
(dp106
g10
I1
sssg15
(dp107
sg17
(dp108
Vcom.android.settings
p109
(dp110
g10
I1
sssg19
(dp111
Vcom.estrongs.android.pop
p112
(dp113
g10
F1.8999999999999999
ssVcom.tencent.mobileqq
p114
(dp115
g10
F9.3000000000000007
ssVcom.sina.weibo
p116
(dp117
g10
F0.69999999999999996
ssVcom.chaozh.iReaderFree15
p118
(dp119
g10
F10.199999999999999
ssg85
(dp120
g10
I1
ssVcom.tencent.mm
p121
(dp122
g10
F3.7999999999999998
ssVcom.android.contacts
p123
(dp124
g10
F0.90000000000000002
sssg21
(dp125
Vcom.tencent.pao
p126
(dp127
g10
F1.7
ssVcom.android.contacts
p128
(dp129
g10
F7.2000000000000002
ssg69
(dp130
g10
F1.3
ssg73
(dp131
g10
I1
ssVcom.tencent.mobileqq
p132
(dp133
g10
F12.4
ssVcom.tencent.mm
p134
(dp135
g10
F5.4000000000000004
ssg37
(dp136
g10
F0.90000000000000002
ssVcom.jingdong.app.mall
p137
(dp138
g10
F0.90000000000000002
ssVcom.estrongs.android.pop
p139
(dp140
g10
F4.4000000000000004
ssg81
(dp141
g10
F0.69999999999999996
ssg43
(dp142
g10
F1.3999999999999999
ssVcom.chaozh.iReaderFree15
p143
(dp144
g10
I2
ssg83
(dp145
g10
F1.3999999999999999
ssg23
(dp146
g10
F2.6000000000000001
ssVcom.ylmf.androidclient
p147
(dp148
g10
I1
ssg63
(dp149
g10
I1
sssg23
(dp150
Vcom.estrongs.android.pop
p151
(dp152
g10
I1
ssVcom.android.settings
p153
(dp154
g10
F2
ssVcom.tencent.mm
p155
(dp156
g10
F13.700000000000001
ssVcom.UCMobile
p157
(dp158
g10
I1
ssVcom.chaozh.iReaderFree15
p159
(dp160
g10
F3.1999999999999997
ssVcom.huawei.android.totemweather
p161
(dp162
g10
I1
ssVcom.tencent.mobileqq
p163
(dp164
g10
F24.099999999999994
ssVcom.android.contacts
p165
(dp166
g10
I2
sssg25
(dp167
g8
(dp168
g10
F0.90000000000000002
ssVcom.UCMobile
p169
(dp170
g10
F6.4000000000000004
ssVcom.estrongs.android.pop
p171
(dp172
g10
F2.7999999999999998
ssg51
(dp173
g10
F6.6000000000000005
ssVcom.sina.weibo
p174
(dp175
g10
F2.8999999999999999
ssVcom.android.phone
p176
(dp177
g10
I2
ssVcom.huawei.hwid
p178
(dp179
g10
F0.90000000000000002
ssVcom.chaozh.iReaderFree15
p180
(dp181
g10
F8.4000000000000004
ssVcom.huawei.appmarket
p182
(dp183
g10
I1
ssVcom.tencent.mobileqq
p184
(dp185
g10
F22.399999999999999
ssVcom.eg.android.AlipayGphone
p186
(dp187
g10
I1
ssVcom.android.settings
p188
(dp189
g10
I1
sssg27
(dp190
Vcom.estrongs.android.pop
p191
(dp192
g10
F1.3
ssVcom.tencent.mobileqq
p193
(dp194
g10
F2.7000000000000002
ssVcom.android.email
p195
(dp196
g10
I1
ssVcom.mxtech.videoplayer.ad
p197
(dp198
g10
F0.69999999999999996
ssVcom.android.contacts
p199
(dp200
g10
F1.8999999999999999
sssg29
(dp201
Vcom.tencent.mm
p202
(dp203
g10
F0.69999999999999996
ssVcom.sina.weibo
p204
(dp205
g10
F0.40000000000000002
ssVcom.tencent.mobileqq
p206
(dp207
g10
F1.8999999999999999
ssVcom.chaozh.iReaderFree15
p208
(dp209
g10
I1
sssg31
(dp210
Vcom.estrongs.android.pop
p211
(dp212
g10
I1
ssVcom.android.contacts
p213
(dp214
g10
I1
sssg33
(dp215
g37
(dp216
g10
F2.1000000000000001
ssg31
(dp217
g10
I1
ssVcom.tencent.mobileqq
p218
(dp219
g10
F6.5
ssg57
(dp220
g10
F39.600000000000001
ssVcom.android.deskclock
p221
(dp222
g10
I3
ssVcom.UCMobile
p223
(dp224
g10
F3.8999999999999999
ssVcom.chaozh.iReaderFree15
p225
(dp226
g10
F9.1000000000000014
ssVcom.android.settings
p227
(dp228
g10
F2.7000000000000002
ssVcom.tencent.mm
p229
(dp230
g10
F2.8999999999999999
ssVcom.android.contacts
p231
(dp232
g10
F1.6000000000000001
ssVcom.sohu.sohuvideo
p233
(dp234
g10
F1.7
sssg35
(dp235
Vcom.huawei.gamebox
p236
(dp237
g10
F0.40000000000000002
ssVcom.chaozh.iReaderFree15
p238
(dp239
g10
F0.90000000000000002
ssVcom.doupo.zhangyue.zy
p240
(dp241
g10
F1.7
sssg37
(dp242
Vcom.android.camera
p243
(dp244
g10
I1
ssVcom.tencent.mobileqq
p245
(dp246
g10
F0.90000000000000002
sssg39
(dp247
g17
(dp248
g10
F0.90000000000000002
ssVcom.tencent.mobileqq
p249
(dp250
g10
I1
ssVcom.android.contacts
p251
(dp252
g10
I1
sssg41
(dp253
g77
(dp254
g10
I1
sssg43
(dp255
g134
(dp256
g10
F0.90000000000000002
ssg132
(dp257
g10
I1
ssg39
(dp258
g10
F1.3999999999999999
sssg45
(dp259
g21
(dp260
g10
I1
ssVcom.android.contacts
p261
(dp262
g10
F5.9000000000000004
sssg47
(dp263
g21
(dp264
g10
F0.90000000000000002
ssg45
(dp265
g10
I1
sssg49
(dp266
Vcom.huawei.hwid
p267
(dp268
g10
F0.90000000000000002
ssVcom.android.packageinstaller
p269
(dp270
g10
F0.69999999999999996
ssVcom.huawei.gamebox
p271
(dp272
g10
F3
ssg238
(dp273
g10
I1
ssVcom.huawei.appmarket
p274
(dp275
g10
F4
sssg51
(dp276
g8
(dp277
g10
I1
ssVcom.android.calendar
p278
(dp279
g10
F0.40000000000000002
ssVcom.huawei.hwid
p280
(dp281
g10
F1.6000000000000001
ssVcom.estrongs.android.pop
p282
(dp283
g10
F4.2999999999999998
ssg75
(dp284
g10
F3.1999999999999997
ssVcom.sina.weibo
p285
(dp286
g10
F13.9
ssVcom.tencent.pao
p287
(dp288
g10
F1.8999999999999999
ssVcom.mxtech.videoplayer.ad
p289
(dp290
g10
F0.69999999999999996
ssg39
(dp291
g10
F1.6000000000000001
ssg19
(dp292
g10
F1.1000000000000001
ssVcom.UCMobile
p293
(dp294
g10
F4.5999999999999996
ssg43
(dp295
g10
F1.8999999999999999
ssg180
(dp296
g10
F8.6000000000000014
ssVcom.huawei.appmarket
p297
(dp298
g10
F3
ssVcom.tencent.mobileqq
p299
(dp300
g10
F50.299999999999983
ssg231
(dp301
g10
F15.000000000000002
sssg53
(dp302
Vcom.tencent.mobileqq
p303
(dp304
g10
F0.90000000000000002
ssVcom.huawei.appmarket
p305
(dp306
g10
I1
sssg55
(dp307
Vcom.sina.weibo
p308
(dp309
g10
I1
sssg57
(dp310
Vcom.estrongs.android.pop
p311
(dp312
g10
F32.499999999999993
ssg233
(dp313
g10
F1.3
sssg59
(dp314
g236
(dp315
g10
F0.90000000000000002
ssVcom.estrongs.android.pop
p316
(dp317
g10
F12.499999999999998
ssg75
(dp318
g10
F8.4000000000000004
ssVcom.sina.weibo
p319
(dp320
g10
F1.8999999999999999
ssVcom.tencent.pao
p321
(dp322
g10
I1
ssg57
(dp323
g10
F1.1000000000000001
ssVcom.jingdong.app.mall
p324
(dp325
g10
I1
ssg19
(dp326
g10
F20.800000000000001
ssVcom.UCMobile
p327
(dp328
g10
F3.5999999999999996
ssVcom.huawei.appmarket
p329
(dp330
g10
F0.69999999999999996
ssg85
(dp331
g10
F0.90000000000000002
ssVcom.doupo.zhangyue.zy
p332
(dp333
g10
I1
ssVcom.tencent.mm
p334
(dp335
g10
F4.6000000000000005
ssVcom.android.contacts
p336
(dp337
g10
F6.5
ssg114
(dp338
g10
F19.599999999999998
sssg61
(dp339
g33
(dp340
g10
F2.7000000000000002
ssg197
(dp341
g10
F1.3
sssg63
(dp342
sg65
(dp343
Vcom.autonavi.minimap
p344
(dp345
g10
F2.8999999999999999
ssg15
(dp346
g10
I1
ssVcom.android.deskclock
p347
(dp348
g10
F1.8
ssVcom.UCMobile
p349
(dp350
g10
F20.100000000000001
ssg23
(dp351
g10
F30.599999999999987
ssVcom.android.contacts
p352
(dp353
g10
F24.699999999999996
ssVcom.eg.android.AlipayGphone
p354
(dp355
g10
F2.7000000000000002
ssVcom.estrongs.android.pop
p356
(dp357
g10
F19.5
ssVcom.android.gallery3d
p358
(dp359
g10
I1
ssg39
(dp360
g10
F3
ssg43
(dp361
g10
F1.6000000000000001
ssg89
(dp362
g10
F1.8999999999999999
ssVcom.android.settings
p363
(dp364
g10
F5.2000000000000002
ssVcom.tencent.mm
p365
(dp366
g10
F107.10000000000011
ssg289
(dp367
g10
F2.4000000000000004
ssg118
(dp368
g10
F20.199999999999996
ssg73
(dp369
g10
F3.5
ssg17
(dp370
g10
I1
ssVcom.tencent.pao
p371
(dp372
g10
I4
ssg178
(dp373
g10
F3.5999999999999996
ssg182
(dp374
g10
F7.7000000000000011
ssg243
(dp375
g10
F0.90000000000000002
sssg67
(dp376
sg69
(dp377
g71
(dp378
g10
F2.3999999999999999
ssg269
(dp379
g10
F1.3999999999999999
ssg81
(dp380
g10
F3.2999999999999998
ssg238
(dp381
g10
F0.69999999999999996
ssVcom.huawei.appmarket
p382
(dp383
g10
F2.2999999999999998
ssVcom.doupo.zhangyue.zy
p384
(dp385
g10
F3
sssg71
(dp386
Vcom.huawei.hwid
p387
(dp388
g10
I1
sssg73
(dp389
Vcom.tencent.mobileqq
p390
(dp391
g10
I1
ssg23
(dp392
g10
F1.8999999999999999
sssg75
(dp393
Vcom.estrongs.android.pop
p394
(dp395
g10
F2.7000000000000002
ssVcom.tencent.mm
p396
(dp397
g10
I1
ssg77
(dp398
g10
F0.90000000000000002
ssVcom.mxtech.videoplayer.ad
p399
(dp400
g10
F0.90000000000000002
ssg41
(dp401
g10
I1
ssg19
(dp402
g10
F0.90000000000000002
ssVcom.chaozh.iReaderFree15
p403
(dp404
g10
F6
ssg114
(dp405
g10
F3.2999999999999998
sssg77
(dp406
Vcom.tencent.mm
p407
(dp408
g10
F0.90000000000000002
ssVcom.tencent.mobileqq
p409
(dp410
g10
I3
sssg79
(dp411
Vcom.sina.weibo
p412
(dp413
g10
I1
sssg81
(dp414
Vcom.huawei.gamebox
p415
(dp416
g10
F3.6999999999999997
ssg71
(dp417
g10
F2.2999999999999998
ssVcom.tencent.mm
p418
(dp419
g10
F1.6000000000000001
ssVcom.android.settings
p420
(dp421
g10
I1
ssg35
(dp422
g10
F0.90000000000000002
ssg77
(dp423
g10
F0.69999999999999996
ssg41
(dp424
g10
F0.90000000000000002
ssg285
(dp425
g10
F0.90000000000000002
ssVcom.chaozh.iReaderFree15
p426
(dp427
g10
F0.40000000000000002
ssVcom.huawei.appmarket
p428
(dp429
g10
F7.5000000000000009
ssVcc.thedream.qinsmoon.HUAWEI
p430
(dp431
g10
I1
ssVcom.tencent.mobileqq
p432
(dp433
g10
F2.7999999999999998
ssg384
(dp434
g10
F0.90000000000000002
sssg83
(dp435
g67
(dp436
g10
I1
ssg69
(dp437
g10
F5.0999999999999996
ssg71
(dp438
g10
F0.40000000000000002
ssg418
(dp439
g10
F2.3999999999999999
ssg420
(dp440
g10
F2
ssg35
(dp441
g10
F2.6000000000000001
ssg77
(dp442
g10
F0.40000000000000002
ssg324
(dp443
g10
F0.69999999999999996
ssg41
(dp444
g10
F0.69999999999999996
ssg81
(dp445
g10
F12.100000000000001
ssg238
(dp446
g10
F1.3
ssg285
(dp447
g10
F2.7000000000000002
ssg87
(dp448
g10
F1.7
ssg432
(dp449
g10
F6.8000000000000007
ssg384
(dp450
g10
F1.1000000000000001
sssg85
(dp451
Vcom.sina.weibo
p452
(dp453
g10
I1
ssVcom.android.gallery3d
p454
(dp455
g10
I1
ssVcom.tencent.mobileqq
p456
(dp457
g10
F2.7999999999999998
ssVcom.chaozh.iReaderFree15
p458
(dp459
g10
I1
sssg87
(dp460
Vcom.huawei.hwid
p461
(dp462
g10
I1
ssVcom.tencent.mobileqq
p463
(dp464
g10
F1.3
ssg324
(dp465
g10
F0.40000000000000002
ssg426
(dp466
g10
F0.69999999999999996
ssVcom.huawei.appmarket
p467
(dp468
g10
F1.7
sssg89
(dp469
Vcom.estrongs.android.pop
p470
(dp471
g10
F1.7
ssVcom.mxtech.videoplayer.ad
p472
(dp473
g10
F1.3
ssssS'edge'
p474
g95
sS'graph'
p475
(dp476
sS'adjlist_dict_factory'
p477
g92
sS'adj'
p478
g95
sS'pred'
p479
(dp480
g8
(dp481
Vcom.tencent.mm
p482
g277
sVcom.android.contacts
p483
g168
ssg11
(dp484
Vcom.tencent.mobileqq
p485
g345
ssg13
(dp486
sg15
(dp487
Vcom.tencent.mobileqq
p488
g346
ssg17
(dp489
Vcom.sina.weibo
p490
g162
sg249
g370
sVcom.jingdong.app.mall
p491
g248
ssg19
(dp492
Vcom.estrongs.android.pop
p493
g222
sg75
g402
sVcom.tencent.mm
p494
g292
sVcom.chaozh.iReaderFree15
p495
g326
sVcom.tencent.mobileqq
p496
g348
ssg21
(dp497
Vcom.estrongs.android.pop
p498
g224
sVcom.tencent.mobileqq
p499
g350
sVcom.sina.weibo
p500
g158
sVcom.chaozh.iReaderFree15
p501
g328
sg45
g260
sg47
g264
sVcom.tencent.mm
p502
g294
sVcom.android.contacts
p503
g170
ssg23
(dp504
g55
g309
sVcom.dangdang.buy2
p505
g205
sg280
g425
sg73
g392
sg499
g351
sg79
g413
sVcom.android.deskclock
p506
g117
sg349
g146
sVcom.chaozh.iReaderFree15
p507
g320
sg297
g447
sVcom.android.camera
p508
g453
sVcom.tencent.mm
p509
g286
sVcom.android.contacts
p510
g175
ssg25
(dp511
Vcn.wps.moffice_eng
p512
g214
sVcom.estrongs.android.pop
p513
g232
sg229
g301
sVcom.sina.weibo
p514
g166
sg137
g252
sVcom.android.deskclock
p515
g124
sVcom.UCMobile
p516
g129
sVcom.chaozh.iReaderFree15
p517
g337
sg176
g262
sVcom.autonavi.minimap
p518
g103
sVcom.tencent.mobileqq
p519
g353
sVcom.eg.android.AlipayGphone
p520
g200
ssg27
(dp521
Vcom.tencent.mobileqq
p522
g355
sg199
g187
ssg29
(dp523
sg31
(dp524
Vcom.estrongs.android.pop
p525
g217
ssg33
(dp526
g31
g212
sVcom.tencent.mm
p527
g283
sVcom.sina.weibo
p528
g152
sg13
g106
sg57
g312
sVcom.android.deskclock
p529
g113
sg223
g140
sg59
g317
sg227
g395
sg61
g340
sg65
g357
sVcom.android.contacts
p530
g172
sg27
g192
sg89
g471
ssg35
(dp531
Vcom.huawei.hwid
p532
g422
sg384
g270
sVcom.huawei.gamebox
p533
g379
sVcom.huawei.appmarket
p534
g441
ssg37
(dp535
g498
g216
sg223
g136
sVcom.tencent.mobileqq
p536
g359
sg11
g101
sVcom.android.camera
p537
g455
ssg39
(dp538
g132
g360
sVcom.UCMobile
p539
g138
sg43
g258
sg426
g325
sg467
g443
sg430
g465
sg134
g291
ssg41
(dp540
Vcom.huawei.hwid
p541
g424
sg420
g401
sVcom.huawei.appmarket
p542
g444
ssg43
(dp543
g502
g295
sVcom.tencent.mobileqq
p544
g361
sg293
g142
ssg45
(dp545
g47
g265
sg25
g177
ssg47
(dp546
sg49
(dp547
Vcom.huawei.hwid
p548
g434
sg269
g241
sg271
g385
sg238
g333
sVcom.huawei.appmarket
p549
g450
ssg51
(dp550
g505
g203
sVcom.huawei.hwid
p551
g419
sg513
g230
sg285
g156
sVcom.tencent.pao
p552
g408
sg515
g122
sg293
g135
sg43
g256
sVcom.chaozh.iReaderFree15
p553
g335
sVcom.huawei.appmarket
p554
g439
sVcom.tencent.mobileqq
p555
g366
sVcom.android.contacts
p556
g173
sVcom.android.settings
p557
g397
ssg53
(dp558
Vcom.UCMobile
p559
g148
ssg55
(dp560
sg57
(dp561
g316
g220
sVcom.tencent.mm
p562
g290
sg59
g323
sVcom.android.settings
p563
g400
sg195
g341
sVcom.tencent.mobileqq
p564
g367
sg27
g198
sg89
g473
ssg59
(dp565
Vcom.UCMobile
p566
g144
sg269
g239
sVcom.huawei.gamebox
p567
g381
sg461
g427
sg29
g209
sg75
g404
sg319
g160
sg19
g119
sVcom.estrongs.android.pop
p568
g226
sg382
g446
sg85
g459
sg430
g466
sg240
g273
sg51
g296
sg556
g181
sg114
g368
ssg61
(dp569
g27
g196
ssg63
(dp570
Vcom.UCMobile
p571
g149
ssg65
(dp572
g278
g391
sg505
g207
sg551
g433
sVcom.estrongs.android.pop
p573
g219
sg75
g405
sg319
g164
sg552
g410
sg358
g246
sg491
g250
sg53
g304
sg19
g115
sg293
g133
sg43
g257
sg495
g338
sg554
g449
sg344
g99
sg85
g457
sg87
g464
sg365
g300
sVcom.android.contacts
p574
g185
sg354
g194
ssg67
(dp575
Vcom.huawei.appmarket
p576
g436
ssg69
(dp577
Vcom.UCMobile
p578
g130
sg269
g237
sg81
g416
sg238
g315
sg83
g437
sg49
g272
ssg71
(dp579
g81
g417
sg69
g378
sg83
g438
ssg73
(dp580
g349
g131
sVcom.tencent.mm
p581
g279
sg499
g369
ssg75
(dp582
Vcom.estrongs.android.pop
p583
g228
sg494
g284
sVcom.sina.weibo
p584
g154
sVcom.huawei.android.totemweather
p585
g110
sg541
g421
sg495
g318
sg542
g440
sVcom.tencent.mobileqq
p586
g364
sVcom.android.contacts
p587
g189
ssg77
(dp588
Vcom.UCMobile
p589
g127
sg420
g398
sg41
g254
sg541
g423
sVcom.chaozh.iReaderFree15
p590
g322
sg542
g442
sVcom.tencent.mm
p591
g288
sVcom.tencent.mobileqq
p592
g372
ssg79
(dp593
sg81
(dp594
g69
g380
sg71
g388
sg509
g281
sg578
g141
sg83
g445
sg87
g462
sVcom.tencent.mobileqq
p595
g373
sVcom.android.contacts
p596
g179
sg49
g268
ssg83
(dp597
g271
g383
sg532
g429
sg595
g374
sg53
g306
sg578
g145
sg238
g330
sg87
g468
sg509
g298
sg596
g183
sg49
g275
ssg85
(dp598
Vcom.android.deskclock
p599
g120
sg358
g244
sg536
g375
sVcom.chaozh.iReaderFree15
p600
g331
ssg87
(dp601
g461
g431
sVcom.huawei.appmarket
p602
g448
ssg89
(dp603
Vcom.estrongs.android.pop
p604
g234
sVcom.mxtech.videoplayer.ad
p605
g313
sVcom.tencent.mobileqq
p606
g362
sssb.