ccopy_reg
_reconstructor
p1
(cnetworkx.classes.digraph
DiGraph
p2
c__builtin__
object
p3
NtRp4
(dp5
S'node'
p6
(dp7
Vcom.meizu.media.reader
p8
(dp9
S'weight'
p10
F8.7082006369426746e-05
ssVcom.youku.phone
p11
(dp12
g10
F0.0088965821201091901
ssVim.yixin
p13
(dp14
g10
F0.0010663102820746132
ssVcom.baidu.netdisk
p15
(dp16
g10
F0.0034868346223839853
ssVcom.sdu.didi.psnger
p17
(dp18
g10
F3.376649226569609e-05
ssVcom.android.deskclock
p19
(dp20
g10
F0.00055625853048225655
ssVcom.adsafe
p21
(dp22
g10
F0.0001759411965423112
ssVvStudio.Android.Camera360
p23
(dp24
g10
F0.00092768994540491352
ssVcom.meizu.mzsnssyncservice
p25
(dp26
g10
F0.00018660429936305734
ssVcom.sankuai.movie
p27
(dp28
g10
F0.0012351427434030937
ssVcom.plantronics.headsetservice
p29
(dp30
g10
F0.00029145814376706095
ssVcom.meizu.blockservice
p31
(dp32
g10
F7.2864535941765237e-05
ssVcom.eg.android.AlipayGphone
p33
(dp34
g10
F0.013947338489535941
ssVcom.soft.blued
p35
(dp36
g10
F0.15717058121019109
ssVcom.heqee.book.mcnxsr
p37
(dp38
g10
F0.0050685282074613286
ssVcom.sparklykey.qinsmoon.wdj
p39
(dp40
g10
F0.00094368459963603275
ssVcom.android.packageinstaller
p41
(dp42
g10
F0.00017949556414922658
ssVcom.sankuai.meituan
p43
(dp44
g10
F0.0088681471792538668
ssVcom.taobao.taobao
p45
(dp46
g10
F0.0043114479071883535
ssVcom.orangex.orange
p47
(dp48
g10
F0.00014572907188353047
ssVcom.android.video
p49
(dp50
g10
F8.1750454959053688e-05
ssVcom.myzaker.ZAKER_Phone
p51
(dp52
g10
F0.029055178002729755
ssVcom.android.gamecenter
p53
(dp54
g10
F0.00025946883530482255
ssVcom.android.phone
p55
(dp56
g10
F0.017341759554140128
ssVcom.meizu.media.gallery
p57
(dp58
g10
F0.016993431528662419
ssVme.topit.TopAndroid2
p59
(dp60
g10
F0.00087437443130118295
ssVcn.ibuka.manga.ui
p61
(dp62
g10
F0.0010520928116469518
ssVcom.tencent.mm
p63
(dp64
g10
F0.15915747270245678
ssVtv.danmaku.bili
p65
(dp66
g10
F0.002843494085532302
ssVcom.youdao.dict
p67
(dp68
g10
F0.00018838148316651501
ssVqsbk.app
p69
(dp70
g10
F0.0007855152411282984
ssVcom.youloft.calendar
p71
(dp72
g10
F9.5967925386715198e-05
ssVus.pinguo.idcamera
p73
(dp74
g10
F0.00025413728389444949
ssVcom.meizu.mstore
p75
(dp76
g10
F0.0065702485213830755
ssVcom.meitu.meipaimv
p77
(dp78
g10
F6.5755800727934489e-05
ssVcom.android.calculator
p79
(dp80
g10
F0.00053848669244767973
ssVcom.meizu.media.camera
p81
(dp82
g10
F0.049485683007279346
ssVcom.yipiao
p83
(dp84
g10
F0.00038031733393994538
ssVcom.lovebizhi.wallpaper
p85
(dp86
g10
F0.00029323532757051865
ssVcom.android.fileexplorer
p87
(dp88
g10
F0.00025946883530482255
ssVcom.tencent.tmgp.gb
p89
(dp90
g10
F0.012209252729754322
ssVcom.happyelements.AndroidAnimal
p91
(dp92
g10
F0.0020242123521383077
ssVcom.jzyd.BanTang
p93
(dp94
g10
F0.0023885350318471337
ssVcom.android.vpndialogs
p95
(dp96
g10
F4.6206778889899908e-05
ssVcom.tencent.mobileqq
p97
(dp98
g10
F0.20310367379435851
ssVcom.skycall.oem
p99
(dp100
g10
F0.0076116782302092815
ssVcom.UCMobile
p101
(dp102
g10
F0.020027084281164696
ssVcom.dianxinos.optimizer.duplay
p103
(dp104
g10
F0.00042830129663330301
ssVcom.android.settings
p105
(dp106
g10
F0.0020881909690627842
ssVcom.tuan800.tao800
p107
(dp108
g10
F0.00087437443130118295
ssVcom.android.mms
p109
(dp110
g10
F0.00079262397634212922
ssVcom.liulishuo.engzo
p111
(dp112
g10
F0.023144264672429481
ssVcom.ting.mp3.android
p113
(dp114
g10
F0.15195632393084624
ssVcom.android.calendar
p115
(dp116
g10
F1.7771838034576887e-05
ssVcom.baidu.tieba
p117
(dp118
g10
F0.032741057211101002
ssVcom.meizu.media.music
p119
(dp120
g10
F0.042933206323930849
ssVcom.nerser.ccser
p121
(dp122
g10
F0.00082105891719745226
ssVcom.meizu.flyme.weather
p123
(dp124
g10
F0.0025644762283894449
sssS'node_dict_factory'
p125
c__builtin__
dict
p126
sS'edge_attr_dict_factory'
p127
g126
sS'succ'
p128
(dp129
g8
(dp130
Vcom.taobao.taobao
p131
(dp132
g10
I1
sssg11
(dp133
Vcom.youloft.calendar
p134
(dp135
g10
I1
ssVcom.meizu.mstore
p136
(dp137
g10
F2.7000000000000002
ssVcom.android.settings
p138
(dp139
g10
F0.40000000000000002
ssVcom.android.packageinstaller
p140
(dp141
g10
F0.69999999999999996
ssVcom.sankuai.meituan
p142
(dp143
g10
I1
ssg47
(dp144
g10
F0.40000000000000002
ssVcom.ting.mp3.android
p145
(dp146
g10
F0.90000000000000002
ssVcom.UCMobile
p147
(dp148
g10
F2.2999999999999998
ssVcom.baidu.tieba
p149
(dp150
g10
I1
ssVcom.jzyd.BanTang
p151
(dp152
g10
F0.90000000000000002
ssVcom.happyelements.AndroidAnimal
p153
(dp154
g10
F0.69999999999999996
ssg29
(dp155
g10
F2.2999999999999998
ssVcn.ibuka.manga.ui
p156
(dp157
g10
I1
ssVcom.liulishuo.engzo
p158
(dp159
g10
F1.3
ssVcom.tencent.mm
p160
(dp161
g10
F4.3000000000000007
ssVcom.eg.android.AlipayGphone
p162
(dp163
g10
F17.399999999999999
ssVcom.soft.blued
p164
(dp165
g10
F1.8999999999999999
sssg13
(dp166
Vcom.dianxinos.optimizer.duplay
p167
(dp168
g10
F1.8999999999999999
ssVcom.tencent.mobileqq
p169
(dp170
g10
F3
ssVcom.lovebizhi.wallpaper
p171
(dp172
g10
F0.40000000000000002
ssVcom.myzaker.ZAKER_Phone
p173
(dp174
g10
F1.1000000000000001
ssVcom.android.phone
p175
(dp176
g10
F3
ssVcom.tencent.mm
p177
(dp178
g10
F1.6000000000000001
sssg15
(dp179
Vcom.android.deskclock
p180
(dp181
g10
F0.90000000000000002
ssVcom.ting.mp3.android
p182
(dp183
g10
F0.69999999999999996
ssVcom.UCMobile
p184
(dp185
g10
I1
ssVcom.baidu.tieba
p186
(dp187
g10
I1
ssVcom.sankuai.movie
p188
(dp189
g10
F0.90000000000000002
ssVcom.android.phone
p190
(dp191
g10
F1.3
ssVcom.tencent.mm
p192
(dp193
g10
I2
ssVcom.eg.android.AlipayGphone
p194
(dp195
g10
I1
ssVcom.soft.blued
p196
(dp197
g10
F1.7
sssg17
(dp198
Vcom.tencent.mobileqq
p199
(dp200
g10
F1.8999999999999999
sssg19
(dp201
g37
(dp202
g10
I1
ssVcom.meizu.mstore
p203
(dp204
g10
F1.6000000000000001
ssVcom.tencent.mobileqq
p205
(dp206
g10
F4.3999999999999995
ssVcom.UCMobile
p207
(dp208
g10
I1
ssVcom.myzaker.ZAKER_Phone
p209
(dp210
g10
F2.2999999999999998
ssVcom.meizu.media.gallery
p211
(dp212
g10
I2
ssVcom.meizu.flyme.weather
p213
(dp214
g10
F5.9000000000000004
ssVcom.tencent.mm
p215
(dp216
g10
F3.8000000000000003
ssVcom.eg.android.AlipayGphone
p217
(dp218
g10
F2.5
ssVcom.soft.blued
p219
(dp220
g10
F8.4000000000000021
sssg21
(dp221
g73
(dp222
g10
F1.7
ssg95
(dp223
g10
F2.2999999999999998
ssVcom.tencent.mm
p224
(dp225
g10
F2.3999999999999999
ssVcom.android.settings
p226
(dp227
g10
F1.3
sssg23
(dp228
Vcom.meizu.mstore
p229
(dp230
g10
I1
ssVcom.meizu.media.camera
p231
(dp232
g10
F2.2999999999999998
ssVcom.android.deskclock
p233
(dp234
g10
F0.40000000000000002
ssVcom.myzaker.ZAKER_Phone
p235
(dp236
g10
F0.69999999999999996
ssVcom.meizu.media.gallery
p237
(dp238
g10
F1.7
ssVcom.soft.blued
p239
(dp240
g10
F2.7999999999999998
ssVcom.tencent.mm
p241
(dp242
g10
F3.8999999999999999
ssg11
(dp243
g10
F0.69999999999999996
sssg25
(dp244
Vcom.skycall.oem
p245
(dp246
g10
F1.1000000000000001
ssVcom.android.mms
p247
(dp248
g10
F3.7999999999999998
ssVcom.android.phone
p249
(dp250
g10
F3.6000000000000001
sssg27
(dp251
g182
(dp252
g10
I1
ssVcom.tencent.mm
p253
(dp254
g10
F0.90000000000000002
ssVcom.tencent.mobileqq
p255
(dp256
g10
F7.2000000000000011
sssg29
(dp257
Vcom.tencent.mm
p258
(dp259
g10
I1
ssVcom.youku.phone
p260
(dp261
g10
I1
sssg31
(dp262
Vcom.tencent.mobileqq
p263
(dp264
g10
F0.69999999999999996
ssVcom.android.phone
p265
(dp266
g10
I1
ssVcom.tencent.mm
p267
(dp268
g10
I1
ssVcom.soft.blued
p269
(dp270
g10
F0.90000000000000002
sssg33
(dp271
Vcom.youku.phone
p272
(dp273
g10
F15.599999999999998
ssVcom.baidu.netdisk
p274
(dp275
g10
I1
ssVcom.android.deskclock
p276
(dp277
g10
F1.3999999999999999
ssVcom.UCMobile
p278
(dp279
g10
F1.8999999999999999
ssVvStudio.Android.Camera360
p280
(dp281
g10
F0.69999999999999996
ssVcom.sankuai.movie
p282
(dp283
g10
I1
ssVcom.soft.blued
p284
(dp285
g10
F23.999999999999993
ssVcom.android.packageinstaller
p286
(dp287
g10
F0.90000000000000002
ssVcom.sankuai.meituan
p288
(dp289
g10
I3
ssg45
(dp290
g10
F2.7000000000000002
ssg47
(dp291
g10
F0.90000000000000002
ssVcom.myzaker.ZAKER_Phone
p292
(dp293
g10
F2.8999999999999999
ssVcom.android.phone
p294
(dp295
g10
F2
ssVcom.meizu.media.gallery
p296
(dp297
g10
F2.7999999999999998
ssVcn.ibuka.manga.ui
p298
(dp299
g10
F1.6000000000000001
ssVcom.tencent.mm
p300
(dp301
g10
F17.799999999999997
ssg136
(dp302
g10
F4
ssVcom.android.calculator
p303
(dp304
g10
F1.8999999999999999
ssVcom.tencent.mobileqq
p305
(dp306
g10
F30.199999999999989
ssg99
(dp307
g10
I1
ssg107
(dp308
g10
F0.90000000000000002
ssVcom.android.settings
p309
(dp310
g10
F2
ssVcom.android.mms
p311
(dp312
g10
F2.7999999999999998
ssVcom.liulishuo.engzo
p313
(dp314
g10
F3.7000000000000002
ssVcom.ting.mp3.android
p315
(dp316
g10
F2.7000000000000002
ssg117
(dp317
g10
F4.5
ssg123
(dp318
g10
F0.90000000000000002
sssg35
(dp319
Vcom.youku.phone
p320
(dp321
g10
F2.5999999999999996
ssVim.yixin
p322
(dp323
g10
F1.8999999999999999
ssg15
(dp324
g10
F2.1000000000000001
ssVcom.android.deskclock
p325
(dp326
g10
F12.799999999999999
ssg101
(dp327
g10
F24.699999999999992
ssVvStudio.Android.Camera360
p328
(dp329
g10
F2.2000000000000002
ssVcom.sankuai.movie
p330
(dp331
g10
F3.9000000000000004
ssg33
(dp332
g10
F29.499999999999993
ssg67
(dp333
g10
F2
ssVcom.heqee.book.mcnxsr
p334
(dp335
g10
F7.1000000000000005
ssg41
(dp336
g10
F1.6000000000000001
ssg43
(dp337
g10
F26.099999999999994
ssVcom.taobao.taobao
p338
(dp339
g10
F5
ssg49
(dp340
g10
F0.90000000000000002
ssVcom.myzaker.ZAKER_Phone
p341
(dp342
g10
F21.299999999999994
ssg53
(dp343
g10
F1.3999999999999999
ssg55
(dp344
g10
F32.599999999999994
ssg57
(dp345
g10
F13.600000000000001
ssg61
(dp346
g10
F2.8999999999999999
ssVcom.tencent.mm
p347
(dp348
g10
F157.70000000000016
ssVqsbk.app
p349
(dp350
g10
F0.40000000000000002
ssVus.pinguo.idcamera
p351
(dp352
g10
F2.2999999999999998
ssVcom.meizu.mstore
p353
(dp354
g10
F7.6999999999999993
ssVcom.android.calculator
p355
(dp356
g10
F0.40000000000000002
ssVcom.yipiao
p357
(dp358
g10
I1
ssVcom.android.fileexplorer
p359
(dp360
g10
F4.2999999999999998
ssVcom.tencent.tmgp.gb
p361
(dp362
g10
F5.0999999999999996
ssVcom.jzyd.BanTang
p363
(dp364
g10
F2.7000000000000002
ssVcom.tencent.mobileqq
p365
(dp366
g10
F120.70000000000016
ssVcom.skycall.oem
p367
(dp368
g10
F6.6000000000000005
ssVcom.tuan800.tao800
p369
(dp370
g10
F1.7
ssg103
(dp371
g10
F1.6000000000000001
ssVcom.android.settings
p372
(dp373
g10
F10.200000000000001
ssg109
(dp374
g10
F6.8000000000000016
ssVcom.liulishuo.engzo
p375
(dp376
g10
F16.999999999999996
ssVcom.ting.mp3.android
p377
(dp378
g10
F11.300000000000001
ssg117
(dp379
g10
F28.799999999999994
ssVcom.meizu.media.music
p380
(dp381
g10
I2
ssg123
(dp382
g10
F3.6000000000000001
sssg37
(dp383
Vcom.tencent.mobileqq
p384
(dp385
g10
I1
ssVcom.meizu.mstore
p386
(dp387
g10
F2.2999999999999998
ssVcom.eg.android.AlipayGphone
p388
(dp389
g10
F0.90000000000000002
ssVcom.soft.blued
p390
(dp391
g10
F11.899999999999999
sssg39
(dp392
g167
(dp393
g10
F0.69999999999999996
ssg177
(dp394
g10
F0.40000000000000002
ssVim.yixin
p395
(dp396
g10
F1.8999999999999999
ssVcom.tencent.mobileqq
p397
(dp398
g10
F1.7
ssVcom.yipiao
p399
(dp400
g10
F0.90000000000000002
sssg41
(dp401
g349
(dp402
g10
F0.90000000000000002
ssVcom.meizu.mstore
p403
(dp404
g10
F2.3999999999999999
ssVcom.liulishuo.engzo
p405
(dp406
g10
F1.8999999999999999
ssVcom.UCMobile
p407
(dp408
g10
F2.7000000000000002
ssg89
(dp409
g10
F1.7
ssVcom.tencent.mobileqq
p410
(dp411
g10
F3.2999999999999998
ssVcom.eg.android.AlipayGphone
p412
(dp413
g10
I1
ssVcom.youku.phone
p414
(dp415
g10
F0.69999999999999996
sssg43
(dp416
Vcom.tencent.mobileqq
p417
(dp418
g10
F3.4000000000000004
ssg153
(dp419
g10
F0.90000000000000002
ssVcom.ting.mp3.android
p420
(dp421
g10
F5.6999999999999993
ssVcom.UCMobile
p422
(dp423
g10
F3.7000000000000002
ssVvStudio.Android.Camera360
p424
(dp425
g10
F0.69999999999999996
ssVcom.baidu.tieba
p426
(dp427
g10
F0.40000000000000002
ssg53
(dp428
g10
F0.69999999999999996
ssVcom.android.phone
p429
(dp430
g10
I1
ssVcom.meizu.media.gallery
p431
(dp432
g10
F4.7000000000000002
ssVcom.tencent.mm
p433
(dp434
g10
F7.7000000000000002
ssVcom.eg.android.AlipayGphone
p435
(dp436
g10
I3
ssVcom.soft.blued
p437
(dp438
g10
F21.899999999999995
sssg45
(dp439
Vcom.meizu.media.reader
p440
(dp441
g10
F1.8999999999999999
ssVcom.android.settings
p442
(dp443
g10
F0.69999999999999996
ssVcom.liulishuo.engzo
p444
(dp445
g10
F1.1000000000000001
ssVcom.android.fileexplorer
p446
(dp447
g10
F0.90000000000000002
ssVcom.myzaker.ZAKER_Phone
p448
(dp449
g10
F0.40000000000000002
ssVcom.baidu.tieba
p450
(dp451
g10
I1
ssg27
(dp452
g10
I1
ssVcom.android.phone
p453
(dp454
g10
F1.8999999999999999
ssg296
(dp455
g10
F1.7
ssVcom.soft.blued
p456
(dp457
g10
F5.6999999999999993
ssVcom.tencent.mm
p458
(dp459
g10
F4
ssVcom.eg.android.AlipayGphone
p460
(dp461
g10
I1
ssVcom.tencent.mobileqq
p462
(dp463
g10
F6.2000000000000011
sssg47
(dp464
Vcom.myzaker.ZAKER_Phone
p465
(dp466
g10
F0.69999999999999996
ssVcom.tencent.mobileqq
p467
(dp468
g10
F1.3999999999999999
ssVcom.soft.blued
p469
(dp470
g10
F0.90000000000000002
sssg49
(dp471
Vcom.tencent.mm
p472
(dp473
g10
F2.7000000000000002
ssVcom.android.deskclock
p474
(dp475
g10
F0.40000000000000002
ssVcom.UCMobile
p476
(dp477
g10
F1.7
ssVcom.tencent.mobileqq
p478
(dp479
g10
F1.3
ssVcom.eg.android.AlipayGphone
p480
(dp481
g10
F0.90000000000000002
ssVcom.soft.blued
p482
(dp483
g10
F1.8999999999999999
sssg51
(dp484
g67
(dp485
g10
F2.3999999999999999
ssg71
(dp486
g10
F0.90000000000000002
ssg19
(dp487
g10
F5.9000000000000004
ssVcom.UCMobile
p488
(dp489
g10
F2.6000000000000001
ssVcom.eg.android.AlipayGphone
p490
(dp491
g10
F2.7999999999999998
ssVcom.youku.phone
p492
(dp493
g10
I2
ssg140
(dp494
g10
F0.40000000000000002
ssVcom.sankuai.meituan
p495
(dp496
g10
F0.90000000000000002
ssVcom.android.gamecenter
p497
(dp498
g10
F1.7
ssVcom.android.phone
p499
(dp500
g10
F2.3999999999999999
ssVcn.ibuka.manga.ui
p501
(dp502
g10
F0.40000000000000002
ssVcom.soft.blued
p503
(dp504
g10
F21.999999999999996
ssVcom.tencent.mobileqq
p505
(dp506
g10
F2.8999999999999999
ssg77
(dp507
g10
F0.69999999999999996
ssVcom.tencent.mm
p508
(dp509
g10
F14.399999999999999
ssg171
(dp510
g10
I1
ssVcom.skycall.oem
p511
(dp512
g10
F1.7
ssVcom.dianxinos.optimizer.duplay
p513
(dp514
g10
F1.6000000000000001
ssg105
(dp515
g10
F1.7
ssg158
(dp516
g10
F0.69999999999999996
ssg377
(dp517
g10
F3.5999999999999996
ssVcom.baidu.tieba
p518
(dp519
g10
F2.3999999999999999
ssVcom.meizu.flyme.weather
p520
(dp521
g10
F1.8999999999999999
sssg53
(dp522
sg55
(dp523
Vcom.youdao.dict
p524
(dp525
g10
F0.40000000000000002
ssVim.yixin
p526
(dp527
g10
F2
ssVcom.android.deskclock
p528
(dp529
g10
F1.7
ssVcom.UCMobile
p530
(dp531
g10
F2.0999999999999996
ssVcom.taobao.taobao
p532
(dp533
g10
F0.69999999999999996
ssg31
(dp534
g10
F4.6999999999999993
ssg435
(dp535
g10
F2.7000000000000002
ssVcom.soft.blued
p536
(dp537
g10
F24.299999999999997
ssVcom.sankuai.meituan
p538
(dp539
g10
F3
ssg25
(dp540
g10
F3.5
ssVcom.myzaker.ZAKER_Phone
p541
(dp542
g10
F2
ssVcom.tencent.mobileqq
p543
(dp544
g10
F14.9
ssVcom.meizu.mstore
p545
(dp546
g10
I1
ssg79
(dp547
g10
F2.7000000000000002
ssVcom.tencent.mm
p548
(dp549
g10
F22.799999999999994
ssVcom.meizu.media.camera
p550
(dp551
g10
I3
ssVcom.android.fileexplorer
p552
(dp553
g10
F0.69999999999999996
ssVcom.tencent.tmgp.gb
p554
(dp555
g10
I1
ssVcom.skycall.oem
p556
(dp557
g10
F16.100000000000001
ssg103
(dp558
g10
F0.40000000000000002
ssg372
(dp559
g10
F2.8999999999999999
ssg247
(dp560
g10
F9.9000000000000004
ssg444
(dp561
g10
F3.5
ssVcom.baidu.tieba
p562
(dp563
g10
F2.3999999999999999
ssVcom.meizu.media.music
p564
(dp565
g10
F0.90000000000000002
ssVcom.meizu.flyme.weather
p566
(dp567
g10
F1.8999999999999999
sssg57
(dp568
Vcom.android.deskclock
p569
(dp570
g10
F0.90000000000000002
ssVcom.skycall.oem
p571
(dp572
g10
F1.3
ssg11
(dp573
g10
F0.90000000000000002
ssVcom.dianxinos.optimizer.duplay
p574
(dp575
g10
I1
ssVcom.tencent.mm
p576
(dp577
g10
F13.100000000000001
ssVcom.meizu.media.camera
p578
(dp579
g10
I1
ssg338
(dp580
g10
F1.3
ssVcom.ting.mp3.android
p581
(dp582
g10
F1.3
ssg147
(dp583
g10
F3.1000000000000001
ssg424
(dp584
g10
F2.7000000000000002
ssg448
(dp585
g10
F1.7
ssg117
(dp586
g10
F1.6000000000000001
ssg282
(dp587
g10
F0.90000000000000002
ssg93
(dp588
g10
I1
ssVcom.soft.blued
p589
(dp590
g10
F6.6000000000000005
ssg305
(dp591
g10
F8
ssg33
(dp592
g10
I4
ssg123
(dp593
g10
F2.7000000000000002
sssg59
(dp594
g85
(dp595
g10
I1
ssVcom.meizu.media.gallery
p596
(dp597
g10
F0.69999999999999996
ssVcom.tencent.mm
p598
(dp599
g10
F1.3
ssVcom.soft.blued
p600
(dp601
g10
I1
sssg61
(dp602
Vcom.skycall.oem
p603
(dp604
g10
I1
ssg136
(dp605
g10
F0.90000000000000002
ssg467
(dp606
g10
F0.40000000000000002
ssg47
(dp607
g10
F0.69999999999999996
ssVcom.myzaker.ZAKER_Phone
p608
(dp609
g10
F2.0999999999999996
ssVcom.baidu.tieba
p610
(dp611
g10
F1.8999999999999999
ssg63
(dp612
g10
F2
ssg162
(dp613
g10
I2
ssVcom.meizu.flyme.weather
p614
(dp615
g10
F0.90000000000000002
sssg63
(dp616
g8
(dp617
g10
I1
ssg11
(dp618
g10
F5.2000000000000002
ssg15
(dp619
g10
F3.0999999999999996
ssg17
(dp620
g10
F1.8999999999999999
ssVcom.android.deskclock
p621
(dp622
g10
F3.3999999999999999
ssVcom.UCMobile
p623
(dp624
g10
F25.299999999999997
ssg328
(dp625
g10
F2.6000000000000001
ssg188
(dp626
g10
F1.7
ssVcom.liulishuo.engzo
p627
(dp628
g10
F11.199999999999999
ssg490
(dp629
g10
F27.299999999999997
ssVcom.soft.blued
p630
(dp631
g10
F176.00000000000011
ssg43
(dp632
g10
F8.2000000000000011
ssVcom.taobao.taobao
p633
(dp634
g10
F4.2000000000000002
ssVcom.android.video
p635
(dp636
g10
F2.7000000000000002
ssg608
(dp637
g10
F13.199999999999999
ssg53
(dp638
g10
F0.90000000000000002
ssg55
(dp639
g10
F21.699999999999992
ssg237
(dp640
g10
F11.6
ssg156
(dp641
g10
F3.8999999999999999
ssg263
(dp642
g10
F115.40000000000012
ssg524
(dp643
g10
F3.3999999999999999
ssg69
(dp644
g10
I1
ssg351
(dp645
g10
F0.69999999999999996
ssVcom.meizu.mstore
p646
(dp647
g10
F13.199999999999999
ssg77
(dp648
g10
F0.90000000000000002
ssg79
(dp649
g10
F3.8999999999999995
ssg81
(dp650
g10
I1
ssg171
(dp651
g10
F0.90000000000000002
ssg446
(dp652
g10
F1.7
ssVcom.tencent.tmgp.gb
p653
(dp654
g10
F4.4000000000000004
ssVcom.jzyd.BanTang
p655
(dp656
g10
F3.5
ssg95
(dp657
g10
F2.2999999999999998
ssVcom.skycall.oem
p658
(dp659
g10
F6.8999999999999995
ssg21
(dp660
g10
F2.3999999999999999
ssg574
(dp661
g10
F1.5
ssVcom.android.settings
p662
(dp663
g10
F8.6000000000000014
ssVcom.tuan800.tao800
p664
(dp665
g10
F0.40000000000000002
ssVcom.android.mms
p666
(dp667
g10
F4.2999999999999998
ssg31
(dp668
g10
I1
ssg113
(dp669
g10
F6.7000000000000002
ssVcom.baidu.tieba
p670
(dp671
g10
F8.8000000000000025
ssVcom.nerser.ccser
p672
(dp673
g10
F1.8999999999999999
ssVcom.meizu.flyme.weather
p674
(dp675
g10
F6.9000000000000004
sssg65
(dp676
Vcom.meizu.flyme.weather
p677
(dp678
g10
F0.69999999999999996
ssVcom.tencent.mobileqq
p679
(dp680
g10
F0.90000000000000002
ssVcom.soft.blued
p681
(dp682
g10
I1
sssg67
(dp683
Vcom.ting.mp3.android
p684
(dp685
g10
F1.8999999999999999
ssVcom.tencent.mm
p686
(dp687
g10
I1
ssVcom.meizu.mstore
p688
(dp689
g10
F1.6000000000000001
sssg69
(dp690
g623
(dp691
g10
I1
ssVcom.tencent.mm
p692
(dp693
g10
F0.90000000000000002
ssg414
(dp694
g10
I1
ssVcom.eg.android.AlipayGphone
p695
(dp696
g10
F0.69999999999999996
ssg403
(dp697
g10
F0.90000000000000002
sssg71
(dp698
g151
(dp699
g10
I1
sssg73
(dp700
g226
(dp701
g10
F2.7000000000000002
ssg69
(dp702
g10
F0.69999999999999996
ssVcom.tencent.mm
p703
(dp704
g10
F1.3
ssg623
(dp705
g10
F0.40000000000000002
sssg75
(dp706
g233
(dp707
g10
F0.69999999999999996
ssg571
(dp708
g10
F0.69999999999999996
ssVcom.youku.phone
p709
(dp710
g10
F2.2000000000000002
ssg664
(dp711
g10
F3.4000000000000004
ssg467
(dp712
g10
F3.1000000000000001
ssg47
(dp713
g10
I1
ssg113
(dp714
g10
F3
ssg21
(dp715
g10
F1.7000000000000002
ssVcom.tencent.tmgp.gb
p716
(dp717
g10
F0.40000000000000002
ssg465
(dp718
g10
F1.3
ssVcom.baidu.tieba
p719
(dp720
g10
F1.6000000000000001
ssVcom.meizu.media.gallery
p721
(dp722
g10
I1
ssg29
(dp723
g10
F1.7
ssg95
(dp724
g10
F0.69999999999999996
ssVcom.tencent.mm
p725
(dp726
g10
F18.499999999999996
ssg695
(dp727
g10
F3.7000000000000002
ssg469
(dp728
g10
F8.1999999999999993
sssg77
(dp729
sg79
(dp730
Vcom.android.settings
p731
(dp732
g10
I1
ssVcom.android.phone
p733
(dp734
g10
F1.1000000000000001
ssVcom.tencent.mm
p735
(dp736
g10
F5.5999999999999996
ssVcom.soft.blued
p737
(dp738
g10
F2.2000000000000002
sssg81
(dp739
Vcom.skycall.oem
p740
(dp741
g10
I1
ssVcom.meizu.mstore
p742
(dp743
g10
I1
ssg79
(dp744
g10
F1.6000000000000001
ssVcom.android.settings
p745
(dp746
g10
I1
ssVcom.baidu.tieba
p747
(dp748
g10
I1
ssVcom.android.phone
p749
(dp750
g10
I1
ssVcom.meizu.media.gallery
p751
(dp752
g10
F1.8999999999999999
ssVcom.tencent.mm
p753
(dp754
g10
F3.2999999999999998
sssg83
(dp755
Vcom.tencent.mobileqq
p756
(dp757
g10
F6.8999999999999995
ssVcom.liulishuo.engzo
p758
(dp759
g10
F1.3
ssVcom.tencent.mm
p760
(dp761
g10
F4
ssVcom.eg.android.AlipayGphone
p762
(dp763
g10
F1.1000000000000001
ssVcom.soft.blued
p764
(dp765
g10
F2.2999999999999998
sssg85
(dp766
Vcom.meizu.media.gallery
p767
(dp768
g10
I1
ssg93
(dp769
g10
F0.90000000000000002
ssVcom.baidu.tieba
p770
(dp771
g10
F1.1000000000000001
ssg513
(dp772
g10
F1.8999999999999999
ssVcom.soft.blued
p773
(dp774
g10
F0.69999999999999996
sssg87
(dp775
g103
(dp776
g10
F2.2999999999999998
ssVcom.android.settings
p777
(dp778
g10
F2.7000000000000002
ssVcom.taobao.taobao
p779
(dp780
g10
F0.90000000000000002
ssVcom.android.deskclock
p781
(dp782
g10
F0.90000000000000002
ssg101
(dp783
g10
F2.7000000000000002
ssg35
(dp784
g10
F3.7000000000000002
ssVcom.tencent.mm
p785
(dp786
g10
I1
ssVcom.tencent.mobileqq
p787
(dp788
g10
F7.0000000000000009
sssg89
(dp789
Vcom.ting.mp3.android
p790
(dp791
g10
F0.40000000000000002
ssVcom.tencent.mm
p792
(dp793
g10
F4.7000000000000002
ssVcom.tencent.mobileqq
p794
(dp795
g10
F11.200000000000001
ssVcom.eg.android.AlipayGphone
p796
(dp797
g10
F1.7
ssVcom.soft.blued
p798
(dp799
g10
F4.5
sssg91
(dp800
Vcom.android.calculator
p801
(dp802
g10
F0.69999999999999996
ssg662
(dp803
g10
F1.3
ssVcom.tencent.mm
p804
(dp805
g10
F2.2999999999999998
ssVcom.ting.mp3.android
p806
(dp807
g10
I1
ssVcom.android.phone
p808
(dp809
g10
F1.7
sssg93
(dp810
Vcom.meizu.mstore
p811
(dp812
g10
I1
ssVcom.tencent.mm
p813
(dp814
g10
F3
ssVcom.myzaker.ZAKER_Phone
p815
(dp816
g10
F1.3
ssg770
(dp817
g10
F0.90000000000000002
ssVcn.ibuka.manga.ui
p818
(dp819
g10
F0.40000000000000002
ssg773
(dp820
g10
F7
ssVcom.tencent.mobileqq
p821
(dp822
g10
F8.1999999999999993
ssVcom.eg.android.AlipayGphone
p823
(dp824
g10
F0.40000000000000002
ssg709
(dp825
g10
F0.69999999999999996
sssg95
(dp826
Vcom.adsafe
p827
(dp828
g10
I1
ssg224
(dp829
g10
F2.2999999999999998
sssg97
(dp830
Vcom.youku.phone
p831
(dp832
g10
F3.1000000000000001
ssg134
(dp833
g10
F0.69999999999999996
ssg325
(dp834
g10
F5.2000000000000002
ssg101
(dp835
g10
F33.599999999999994
ssg25
(dp836
g10
F1.6000000000000001
ssg330
(dp837
g10
F3.7999999999999998
ssg162
(dp838
g10
F35.399999999999984
ssg35
(dp839
g10
F111.50000000000014
ssVcom.heqee.book.mcnxsr
p840
(dp841
g10
F1.7
ssg41
(dp842
g10
F8.4000000000000004
ssg495
(dp843
g10
F2.8999999999999999
ssg45
(dp844
g10
F12.1
ssVcom.android.video
p845
(dp846
g10
I1
ssg465
(dp847
g10
F9.5999999999999996
ssg497
(dp848
g10
F0.90000000000000002
ssVcom.android.phone
p849
(dp850
g10
F17.199999999999999
ssVcom.meizu.media.gallery
p851
(dp852
g10
F10.1
ssg156
(dp853
g10
F2.7000000000000002
ssVcom.tencent.mm
p854
(dp855
g10
F123.90000000000009
ssg349
(dp856
g10
F1.7
ssg403
(dp857
g10
F5.1999999999999993
ssg303
(dp858
g10
F0.40000000000000002
ssVcom.yipiao
p859
(dp860
g10
I2
ssg87
(dp861
g10
F8.7000000000000011
ssg89
(dp862
g10
F11.800000000000001
ssVcom.happyelements.AndroidAnimal
p863
(dp864
g10
I1
ssg655
(dp865
g10
F10.5
ssVcom.skycall.oem
p866
(dp867
g10
F18.499999999999996
ssg107
(dp868
g10
F3
ssVcom.android.settings
p869
(dp870
g10
F1.8999999999999999
ssg247
(dp871
g10
F1.3999999999999999
ssg375
(dp872
g10
F15.6
ssg377
(dp873
g10
F7.1000000000000005
ssVcom.baidu.tieba
p874
(dp875
g10
F16.099999999999998
ssVcom.meizu.media.music
p876
(dp877
g10
F1.3999999999999999
ssg677
(dp878
g10
I2
sssg99
(dp879
Vcom.meizu.mstore
p880
(dp881
g10
F0.69999999999999996
ssg115
(dp882
g10
F0.40000000000000002
ssg309
(dp883
g10
F1.3
ssVcom.tencent.mm
p884
(dp885
g10
F6.0000000000000009
ssVcom.android.mms
p886
(dp887
g10
F4.7000000000000002
ssVcom.yipiao
p888
(dp889
g10
I1
ssg758
(dp890
g10
F0.69999999999999996
ssVcom.android.deskclock
p891
(dp892
g10
F1.3
ssVcom.UCMobile
p893
(dp894
g10
F1.7
ssVcom.baidu.tieba
p895
(dp896
g10
I1
ssVcom.meizu.mzsnssyncservice
p897
(dp898
g10
F1.8999999999999999
ssVcom.android.phone
p899
(dp900
g10
F11
ssg564
(dp901
g10
I1
ssVcom.tencent.mobileqq
p902
(dp903
g10
F9.6999999999999993
ssVcom.eg.android.AlipayGphone
p904
(dp905
g10
F3.1999999999999997
ssVcom.soft.blued
p906
(dp907
g10
F10.300000000000001
sssg101
(dp908
Vcom.baidu.netdisk
p909
(dp910
g10
F0.90000000000000002
ssg474
(dp911
g10
F4.3000000000000007
ssVvStudio.Android.Camera360
p912
(dp913
g10
F0.40000000000000002
ssVcom.eg.android.AlipayGphone
p914
(dp915
g10
F1.1000000000000001
ssVcom.soft.blued
p916
(dp917
g10
F20.299999999999994
ssg41
(dp918
g10
F5.9000000000000004
ssVcom.sankuai.meituan
p919
(dp920
g10
F2.8999999999999999
ssg338
(dp921
g10
I1
ssg49
(dp922
g10
F1.7
ssVcom.myzaker.ZAKER_Phone
p923
(dp924
g10
F4
ssg53
(dp925
g10
F0.40000000000000002
ssg294
(dp926
g10
F4
ssg851
(dp927
g10
F5.1000000000000005
ssg61
(dp928
g10
I1
ssg63
(dp929
g10
F21.799999999999997
ssVcom.meizu.mstore
p930
(dp931
g10
F2.5999999999999996
ssVcom.android.fileexplorer
p932
(dp933
g10
I1
ssg89
(dp934
g10
F0.90000000000000002
ssVcom.tencent.mobileqq
p935
(dp936
g10
F34.299999999999983
ssVcom.skycall.oem
p937
(dp938
g10
I1
ssg115
(dp939
g10
F1.7
ssVcom.android.settings
p940
(dp941
g10
F6.8000000000000007
ssVcom.android.mms
p942
(dp943
g10
I1
ssVcom.liulishuo.engzo
p944
(dp945
g10
F6.2000000000000002
ssg574
(dp946
g10
F0.90000000000000002
ssg610
(dp947
g10
F1.8999999999999999
ssg614
(dp948
g10
F0.69999999999999996
sssg103
(dp949
Vcom.android.settings
p950
(dp951
g10
F17.599999999999998
ssVcom.tencent.mm
p952
(dp953
g10
F2.7000000000000002
ssg171
(dp954
g10
F0.69999999999999996
ssg173
(dp955
g10
F0.90000000000000002
ssVcom.baidu.tieba
p956
(dp957
g10
F1.8999999999999999
ssVcom.tencent.mobileqq
p958
(dp959
g10
F0.90000000000000002
ssVcom.eg.android.AlipayGphone
p960
(dp961
g10
F1.7
ssVcom.soft.blued
p962
(dp963
g10
F1.3
sssg105
(dp964
Vcom.youku.phone
p965
(dp966
g10
I2
ssg134
(dp967
g10
F0.90000000000000002
ssg488
(dp968
g10
F9.8000000000000007
ssVcom.eg.android.AlipayGphone
p969
(dp970
g10
F3
ssg916
(dp971
g10
F8.8000000000000007
ssg142
(dp972
g10
F0.90000000000000002
ssg733
(dp973
g10
F1.5
ssVcom.meizu.media.gallery
p974
(dp975
g10
F0.90000000000000002
ssg61
(dp976
g10
F1.1000000000000001
ssg703
(dp977
g10
F5.7000000000000002
ssg69
(dp978
g10
F1.3
ssVus.pinguo.idcamera
p979
(dp980
g10
I1
ssg801
(dp981
g10
F3.7000000000000002
ssVcom.meizu.media.camera
p982
(dp983
g10
F2.6000000000000001
ssg552
(dp984
g10
F2.7999999999999998
ssg153
(dp985
g10
F0.40000000000000002
ssg151
(dp986
g10
F0.69999999999999996
ssg937
(dp987
g10
F0.90000000000000002
ssg115
(dp988
g10
F0.90000000000000002
ssg109
(dp989
g10
F1.7
ssg145
(dp990
g10
F0.69999999999999996
ssg103
(dp991
g10
F18.099999999999998
ssg610
(dp992
g10
F0.40000000000000002
sssg107
(dp993
Vcom.ting.mp3.android
p994
(dp995
g10
F3.3999999999999999
ssVcom.tencent.mobileqq
p996
(dp997
g10
F1.7
ssVcom.meizu.mstore
p998
(dp999
g10
I1
ssVcom.taobao.taobao
p1000
(dp1001
g10
F1.3
ssVcom.soft.blued
p1002
(dp1003
g10
F1.3
sssg109
(dp1004
g245
(dp1005
g10
F2.2999999999999998
ssg880
(dp1006
g10
F2.2999999999999998
ssVcom.android.settings
p1007
(dp1008
g10
F1.8999999999999999
ssg526
(dp1009
g10
F4.1000000000000005
ssg532
(dp1010
g10
F1.8999999999999999
ssg444
(dp1011
g10
F0.40000000000000002
ssVcom.ting.mp3.android
p1012
(dp1013
g10
I1
ssVcom.android.fileexplorer
p1014
(dp1015
g10
F1.1000000000000001
ssVcom.baidu.tieba
p1016
(dp1017
g10
F1.7
ssVcom.tencent.mobileqq
p1018
(dp1019
g10
I1
ssg249
(dp1020
g10
F13.300000000000001
ssVcom.meizu.media.gallery
p1021
(dp1022
g10
F0.90000000000000002
ssVcom.tencent.mm
p1023
(dp1024
g10
F2.7000000000000002
ssg969
(dp1025
g10
F0.90000000000000002
ssVcom.soft.blued
p1026
(dp1027
g10
F2.2999999999999998
sssg111
(dp1028
g8
(dp1029
g10
F0.90000000000000002
ssg229
(dp1030
g10
F0.69999999999999996
ssVcom.tencent.mobileqq
p1031
(dp1032
g10
F13.999999999999996
ssg140
(dp1033
g10
I1
ssVcom.taobao.taobao
p1034
(dp1035
g10
F0.69999999999999996
ssVcom.android.deskclock
p1036
(dp1037
g10
F1.3
ssVcom.UCMobile
p1038
(dp1039
g10
F1.7
ssg280
(dp1040
g10
F0.90000000000000002
ssVcom.baidu.tieba
p1041
(dp1042
g10
I1
ssVcom.tencent.mm
p1043
(dp1044
g10
F13.800000000000002
ssg460
(dp1045
g10
F5.7999999999999998
ssVcom.soft.blued
p1046
(dp1047
g10
F17.499999999999996
sssg113
(dp1048
g67
(dp1049
g10
F1.8999999999999999
ssg440
(dp1050
g10
F0.69999999999999996
ssVcom.meizu.mstore
p1051
(dp1052
g10
F2.7000000000000002
ssVcom.tuan800.tao800
p1053
(dp1054
g10
I1
ssg417
(dp1055
g10
F3.5
ssg495
(dp1056
g10
F4.5999999999999996
ssVcom.android.mms
p1057
(dp1058
g10
I1
ssg15
(dp1059
g10
F0.90000000000000002
ssVcom.taobao.taobao
p1060
(dp1061
g10
F2.2999999999999998
ssVcom.liulishuo.engzo
p1062
(dp1063
g10
I1
ssg1014
(dp1064
g10
F2
ssg188
(dp1065
g10
F0.40000000000000002
ssVcom.android.settings
p1066
(dp1067
g10
F1.7
ssg153
(dp1068
g10
I1
ssVcom.meizu.media.music
p1069
(dp1070
g10
I1
ssVcom.tencent.mm
p1071
(dp1072
g10
F7.0000000000000009
ssVcom.android.phone
p1073
(dp1074
g10
F0.40000000000000002
ssVcom.soft.blued
p1075
(dp1076
g10
F10.100000000000001
sssg115
(dp1077
Vcom.UCMobile
p1078
(dp1079
g10
F1.7
ssVcom.android.phone
p1080
(dp1081
g10
F0.90000000000000002
sssg117
(dp1082
g280
(dp1083
g10
I1
ssg811
(dp1084
g10
F4.7999999999999998
ssVcom.android.fileexplorer
p1085
(dp1086
g10
I1
ssg305
(dp1087
g10
F21.999999999999996
ssg13
(dp1088
g10
F2.9999999999999996
ssg709
(dp1089
g10
F0.40000000000000002
ssg845
(dp1090
g10
F0.90000000000000002
ssg45
(dp1091
g10
F0.69999999999999996
ssg180
(dp1092
g10
I1
ssVcom.UCMobile
p1093
(dp1094
g10
I2
ssVcom.tencent.tmgp.gb
p1095
(dp1096
g10
F2.2999999999999998
ssg608
(dp1097
g10
F2.1000000000000001
ssg777
(dp1098
g10
F0.90000000000000002
ssVcom.meizu.media.gallery
p1099
(dp1100
g10
F0.69999999999999996
ssVcom.jzyd.BanTang
p1101
(dp1102
g10
I1
ssg123
(dp1103
g10
I3
ssg63
(dp1104
g10
F7.2999999999999998
ssVcom.android.mms
p1105
(dp1106
g10
I1
ssg480
(dp1107
g10
F0.40000000000000002
ssVcom.soft.blued
p1108
(dp1109
g10
F26.899999999999991
sssg119
(dp1110
Vcom.skycall.oem
p1111
(dp1112
g10
F0.90000000000000002
ssVcom.tencent.mm
p1113
(dp1114
g10
I2
ssVcom.android.phone
p1115
(dp1116
g10
I1
sssg121
(dp1117
Vcom.tencent.mm
p1118
(dp1119
g10
I1
sssg123
(dp1120
g203
(dp1121
g10
F1.8999999999999999
ssg77
(dp1122
g10
I1
ssg305
(dp1123
g10
I1
ssg71
(dp1124
g10
I1
ssVcom.meizu.media.camera
p1125
(dp1126
g10
I1
ssg45
(dp1127
g10
F0.90000000000000002
ssVcom.android.deskclock
p1128
(dp1129
g10
I7
ssg608
(dp1130
g10
F0.90000000000000002
ssVcom.android.phone
p1131
(dp1132
g10
I2
ssg63
(dp1133
g10
I2
ssg219
(dp1134
g10
F1.6000000000000001
ssssS'edge'
p1135
g129
sS'graph'
p1136
(dp1137
sS'adjlist_dict_factory'
p1138
g126
sS'adj'
p1139
g129
sS'pred'
p1140
(dp1141
g8
(dp1142
Vcom.ting.mp3.android
p1143
g1050
sVcom.tencent.mm
p1144
g617
sg1060
g441
sVcom.liulishuo.engzo
p1145
g1029
ssg11
(dp1146
g349
g694
sg811
g710
sVcom.tencent.mm
p1147
g618
sVcom.android.packageinstaller
p1148
g415
sVcom.android.settings
p1149
g966
sg328
g243
sVcom.myzaker.ZAKER_Phone
p1150
g493
sVcom.baidu.tieba
p1151
g1089
sg29
g261
sg237
g573
sg1101
g825
sVcom.tencent.mobileqq
p1152
g832
sg823
g273
sVcom.soft.blued
p1153
g321
ssg13
(dp1154
Vcom.android.mms
p1155
g1009
sVcom.sparklykey.qinsmoon.wdj
p1156
g396
sVcom.soft.blued
p1157
g323
sVcom.baidu.tieba
p1158
g1088
sVcom.android.phone
p1159
g527
ssg15
(dp1160
Vcom.ting.mp3.android
p1161
g1059
sVcom.UCMobile
p1162
g910
sVcom.tencent.mm
p1163
g619
sg194
g275
sVcom.soft.blued
p1164
g324
ssg17
(dp1165
Vcom.tencent.mm
p1166
g620
ssg19
(dp1167
Vcom.skycall.oem
p1168
g892
sg229
g707
sg476
g911
sVcom.baidu.netdisk
p1169
g181
sVcom.tencent.mobileqq
p1170
g834
sg280
g234
sg758
g1037
sVcom.android.fileexplorer
p1171
g782
sg49
g475
sVcom.myzaker.ZAKER_Phone
p1172
g487
sg186
g1092
sVcom.android.phone
p1173
g529
sVcom.meizu.media.gallery
p1174
g570
sVcom.soft.blued
p1175
g326
sVcom.tencent.mm
p1176
g622
sVcom.eg.android.AlipayGphone
p1177
g277
sVcom.meizu.flyme.weather
p1178
g1129
ssg21
(dp1179
g95
g828
sVcom.tencent.mm
p1180
g660
sVcom.meizu.mstore
p1181
g715
ssg23
(dp1182
Vcom.sankuai.meituan
p1183
g425
sVcom.liulishuo.engzo
p1184
g1040
sVcom.UCMobile
p1185
g913
sg1041
g1083
sVcom.meizu.media.gallery
p1186
g584
sg241
g625
sVcom.eg.android.AlipayGphone
p1187
g281
sg239
g329
ssg25
(dp1188
Vcom.skycall.oem
p1189
g898
sVcom.tencent.mobileqq
p1190
g836
sVcom.android.phone
p1191
g540
ssg27
(dp1192
Vcom.tencent.mm
p1193
g626
sg15
g189
sVcom.taobao.taobao
p1194
g452
sg1161
g1065
sVcom.meizu.media.gallery
p1195
g587
sVcom.tencent.mobileqq
p1196
g837
sVcom.eg.android.AlipayGphone
p1197
g283
sVcom.soft.blued
p1198
g331
ssg29
(dp1199
Vcom.youku.phone
p1200
g155
sVcom.meizu.mstore
p1201
g723
ssg31
(dp1202
Vcom.tencent.mm
p1203
g668
sVcom.android.phone
p1204
g534
ssg33
(dp1205
g831
g163
sVcom.baidu.netdisk
p1206
g195
sVcom.android.deskclock
p1207
g218
sVcom.UCMobile
p1208
g915
sVcom.soft.blued
p1209
g332
sg37
g389
sVcom.android.packageinstaller
p1210
g413
sg538
g436
sg1034
g461
sg845
g481
sVcom.myzaker.ZAKER_Phone
p1211
g491
sVcom.android.phone
p1212
g535
sg57
g592
sg156
g613
sg1152
g838
sg349
g696
sg403
g727
sg508
g629
sg859
g763
sVcom.tencent.tmgp.gb
p1213
g797
sg1101
g824
sg99
g905
sVcom.dianxinos.optimizer.duplay
p1214
g961
sVcom.android.settings
p1215
g970
sg109
g1025
sVcom.liulishuo.engzo
p1216
g1045
sVcom.baidu.tieba
p1217
g1107
ssg35
(dp1218
Vcom.youku.phone
p1219
g165
sg909
g197
sVcom.android.deskclock
p1220
g220
sVcom.UCMobile
p1221
g917
sg23
g240
sg31
g270
sVcom.eg.android.AlipayGphone
p1222
g285
sVcom.heqee.book.mcnxsr
p1223
g391
sg43
g438
sg633
g457
sg47
g470
sg49
g483
sg341
g504
sg55
g537
sVcom.meizu.media.gallery
p1224
g590
sVme.topit.TopAndroid2
p1225
g601
sg347
g631
sg65
g682
sg136
g728
sg801
g738
sg859
g765
sVcom.lovebizhi.wallpaper
p1226
g774
sVcom.android.fileexplorer
p1227
g784
sVcom.tencent.tmgp.gb
p1228
g799
sg93
g820
sVcom.tencent.mobileqq
p1229
g839
sg99
g907
sVcom.tuan800.tao800
p1230
g1003
sg1214
g963
sVcom.android.settings
p1231
g971
sVcom.android.mms
p1232
g1027
sg375
g1047
sVcom.ting.mp3.android
p1233
g1076
sg670
g1109
sVcom.meizu.flyme.weather
p1234
g1134
ssg37
(dp1235
Vcom.android.deskclock
p1236
g202
sg384
g841
sg390
g335
ssg39
(dp1237
sg41
(dp1238
Vcom.youku.phone
p1239
g141
sg158
g1033
sVcom.UCMobile
p1240
g918
sVcom.myzaker.ZAKER_Phone
p1241
g494
sVcom.tencent.mobileqq
p1242
g842
sVcom.eg.android.AlipayGphone
p1243
g287
sVcom.soft.blued
p1244
g336
ssg43
(dp1245
g965
g143
sVcom.tencent.mm
p1246
g632
sg1149
g972
sg581
g1056
sVcom.UCMobile
p1247
g920
sg448
g496
sg1212
g539
sVcom.tencent.mobileqq
p1248
g843
sg435
g289
sVcom.soft.blued
p1249
g337
ssg45
(dp1250
g440
g132
sVcom.android.fileexplorer
p1251
g780
sg107
g1001
sVcom.tencent.mm
p1252
g634
sg666
g1010
sg1216
g1035
sg1143
g1061
sVcom.UCMobile
p1253
g921
sg117
g1091
sVcom.android.phone
p1254
g533
sg1224
g580
sg123
g1127
sg305
g844
sg33
g290
sg589
g339
ssg47
(dp1255
g156
g607
sg831
g144
sg162
g291
sg136
g713
ssg49
(dp1256
Vcom.UCMobile
p1257
g922
sVcom.tencent.mm
p1258
g636
sg1217
g1090
sVcom.tencent.mobileqq
p1259
g846
sVcom.soft.blued
p1260
g340
ssg51
(dp1261
g136
g718
sg167
g955
sg467
g847
sg395
g174
sVcom.taobao.taobao
p1262
g449
sg47
g466
sg276
g210
sVcom.UCMobile
p1263
g924
sg280
g236
sg610
g1097
sVcom.android.phone
p1264
g542
sg296
g585
sVcom.jzyd.BanTang
p1265
g816
sg61
g609
sg614
g1130
sg63
g637
sVcom.eg.android.AlipayGphone
p1266
g293
sVcom.soft.blued
p1267
g342
ssg53
(dp1268
g505
g848
sg919
g428
sg1247
g925
sg465
g498
sVcom.tencent.mm
p1269
g638
sVcom.soft.blued
p1270
g343
ssg55
(dp1271
Vim.yixin
p1272
g176
sg909
g191
sg278
g926
sg532
g454
sVcom.eg.android.AlipayGphone
p1273
g295
sVcom.soft.blued
p1274
g344
sVcom.sankuai.meituan
p1275
g430
sg25
g250
sVcom.myzaker.ZAKER_Phone
p1276
g500
sg347
g639
sVcom.android.calculator
p1277
g734
sVcom.meizu.media.camera
p1278
g750
sg91
g809
sVcom.tencent.mobileqq
p1279
g850
sg866
g900
sg115
g1081
sg731
g973
sg247
g1020
sVcom.meizu.blockservice
p1280
g266
sVcom.ting.mp3.android
p1281
g1074
sg876
g1116
sVcom.meizu.flyme.weather
p1282
g1132
ssg57
(dp1283
Vcom.android.deskclock
p1284
g212
sVcom.meizu.mstore
p1285
g722
sg241
g640
sVcom.sankuai.meituan
p1286
g432
sg231
g752
sVcom.android.mms
p1287
g1022
sg1034
g455
sg1226
g768
sVcom.UCMobile
p1288
g927
sg328
g238
sg770
g1100
sg869
g975
sg1225
g597
sVcom.tencent.mobileqq
p1289
g852
sg460
g297
sg1209
g345
ssg59
(dp1290
sg61
(dp1291
g831
g157
sVcom.android.settings
p1292
g976
sVcom.UCMobile
p1293
g928
sVcom.myzaker.ZAKER_Phone
p1294
g502
sVcom.jzyd.BanTang
p1295
g819
sg916
g346
sVcom.tencent.mm
p1296
g641
sVcom.eg.android.AlipayGphone
p1297
g299
sg1152
g853
ssg63
(dp1298
g11
g161
sg395
g178
sg15
g193
sg1207
g216
sg21
g225
sg23
g242
sg282
g254
sVcom.plantronics.headsetservice
p1299
g259
sg111
g1044
sVcom.eg.android.AlipayGphone
p1300
g301
sg1274
g348
sg1156
g394
sg1286
g434
sg633
g459
sg635
g473
sg1211
g509
sg55
g549
sg237
g577
sg1225
g599
sg61
g612
sVcom.tencent.mobileqq
p1301
g855
sg524
g687
sg69
g693
sg73
g704
sg75
g726
sg79
g736
sVcom.meizu.media.camera
p1302
g754
sg83
g761
sg1251
g786
sVcom.tencent.tmgp.gb
p1303
g793
sg91
g805
sg655
g814
sg95
g829
sg866
g885
sg1293
g929
sg574
g953
sg226
g977
sg1232
g1024
sg31
g268
sg113
g1072
sg610
g1104
sg119
g1114
sg121
g1119
sg614
g1133
ssg65
(dp1304
sg67
(dp1305
g377
g1049
sVcom.myzaker.ZAKER_Phone
p1306
g485
sVcom.tencent.mm
p1307
g643
sVcom.android.phone
p1308
g525
sVcom.soft.blued
p1309
g333
ssg69
(dp1310
g979
g702
sg226
g978
sg1148
g402
sVcom.soft.blued
p1311
g350
sg703
g644
sVcom.tencent.mobileqq
p1312
g856
ssg71
(dp1313
Vcom.android.settings
p1314
g967
sVcom.myzaker.ZAKER_Phone
p1315
g486
sVcom.tencent.mobileqq
p1316
g833
sVcom.youku.phone
p1317
g135
sg520
g1124
ssg73
(dp1318
Vcom.adsafe
p1319
g222
sVcom.soft.blued
p1320
g352
sVcom.tencent.mm
p1321
g645
sg226
g980
ssg75
(dp1322
g67
g689
sg1220
g204
sVcom.UCMobile
p1323
g931
sg280
g230
sg162
g302
sg831
g137
sg37
g387
sg1148
g404
sVcom.android.phone
p1324
g546
sg156
g605
sVcom.soft.blued
p1325
g354
sVcom.tencent.mobileqq
p1326
g857
sg349
g697
sVcom.meizu.media.camera
p1327
g743
sg1101
g812
sVcom.skycall.oem
p1328
g881
sg664
g999
sg725
g647
sg886
g1006
sg1184
g1030
sg113
g1052
sg1151
g1084
sg1234
g1121
ssg77
(dp1329
Vcom.myzaker.ZAKER_Phone
p1330
g507
sVcom.tencent.mm
p1331
g648
sVcom.meizu.flyme.weather
p1332
g1122
ssg79
(dp1333
g662
g981
sg550
g744
sVcom.tencent.mobileqq
p1334
g858
sVcom.android.phone
p1335
g547
sVcom.happyelements.AndroidAnimal
p1336
g802
sVcom.tencent.mm
p1337
g649
sVcom.eg.android.AlipayGphone
p1338
g304
sg737
g356
ssg81
(dp1339
Vcom.android.settings
p1340
g983
sVvStudio.Android.Camera360
p1341
g232
sg1335
g551
sg751
g579
sVcom.tencent.mm
p1342
g650
sVcom.meizu.flyme.weather
p1343
g1126
ssg83
(dp1344
Vcom.skycall.oem
p1345
g889
sVcom.tencent.mobileqq
p1346
g860
sg39
g400
sVcom.soft.blued
p1347
g358
ssg85
(dp1348
g167
g954
sg177
g651
sVim.yixin
p1349
g172
sg59
g595
sg173
g510
ssg87
(dp1350
g97
g861
sVcom.android.settings
p1351
g984
sg1057
g1015
sg779
g447
sVcom.ting.mp3.android
p1352
g1064
sVcom.UCMobile
p1353
g933
sVcom.baidu.tieba
p1354
g1086
sVcom.android.phone
p1355
g553
sg785
g652
sVcom.soft.blued
p1356
g360
ssg89
(dp1357
Vcom.meizu.mstore
p1358
g717
sVcom.tencent.mobileqq
p1359
g862
sVcom.android.packageinstaller
p1360
g409
sVcom.UCMobile
p1361
g934
sg426
g1096
sVcom.android.phone
p1362
g555
sVcom.tencent.mm
p1363
g654
sg798
g362
ssg91
(dp1364
g145
g1068
sg1149
g985
sg142
g419
sVcom.tencent.mobileqq
p1365
g864
sg965
g154
ssg93
(dp1366
g1317
g152
sVcom.tencent.mobileqq
p1367
g865
sg134
g699
sg1226
g769
sg1151
g1102
sg1314
g986
sg767
g588
sVcom.tencent.mm
p1368
g656
sVcom.soft.blued
p1369
g364
ssg95
(dp1370
g21
g223
sg1180
g657
sVcom.meizu.mstore
p1371
g724
ssg97
(dp1372
g526
g170
sg17
g200
sg325
g206
sg101
g936
sg330
g256
sg31
g264
sg33
g306
sVcom.soft.blued
p1373
g366
sg1223
g385
sg39
g398
sg41
g411
sVcom.sankuai.meituan
p1374
g418
sg633
g463
sg47
g468
sg635
g479
sg465
g506
sVcom.android.phone
p1375
g544
sg57
g591
sg156
g606
sg1203
g642
sg65
g680
sg136
g712
sg83
g757
sg87
g788
sVcom.tencent.tmgp.gb
p1376
g795
sg93
g822
sg866
g903
sg107
g997
sg574
g959
sg1287
g1019
sVcom.liulishuo.engzo
p1377
g1032
sVcom.ting.mp3.android
p1378
g1055
sg117
g1087
sg123
g1123
ssg99
(dp1379
g1285
g708
sVcom.tencent.mm
p1380
g659
sVcom.android.settings
p1381
g987
sg247
g1005
sg25
g246
sVcom.UCMobile
p1382
g938
sVcom.myzaker.ZAKER_Phone
p1383
g512
sVcom.meizu.media.camera
p1384
g741
sg899
g557
sg721
g572
sg876
g1112
sg818
g604
sVcom.tencent.mobileqq
p1385
g867
sVcom.eg.android.AlipayGphone
p1386
g307
sVcom.soft.blued
p1387
g368
ssg101
(dp1388
g69
g691
sVcom.sankuai.meituan
p1389
g423
sg979
g705
sg11
g148
sg115
g1079
sg105
g968
sg41
g408
sg703
g624
sVcom.baidu.netdisk
p1390
g185
sg937
g894
sVcom.liulishuo.engzo
p1391
g1039
sg474
g208
sg359
g783
sg49
g477
sg51
g489
sVcom.baidu.tieba
p1392
g1094
sg1080
g531
sg237
g583
sVcom.tencent.mobileqq
p1393
g835
sg1273
g279
sg1356
g327
ssg103
(dp1394
g1156
g393
sg552
g776
sg1351
g991
sg395
g168
sg171
g772
sVcom.UCMobile
p1395
g946
sg173
g514
sg1355
g558
sg974
g575
sVcom.tencent.mm
p1396
g661
sVcom.soft.blued
p1397
g371
ssg105
(dp1398
g99
g883
sg73
g701
sVcom.youku.phone
p1399
g139
sg1085
g778
sg1319
g227
sg801
g732
sg109
g1008
sVcom.meizu.media.camera
p1400
g746
sg779
g443
sg1352
g1067
sg488
g941
sg51
g515
sg1354
g1098
sVcom.tencent.mobileqq
p1401
g870
sg733
g559
sg1336
g803
sVcom.tencent.mm
p1402
g663
sg103
g951
sg904
g310
sg737
g373
ssg107
(dp1403
Vcom.meizu.mstore
p1404
g711
sVcom.tencent.mobileqq
p1405
g868
sg994
g1054
sVcom.tencent.mm
p1406
g665
sVcom.eg.android.AlipayGphone
p1407
g308
sVcom.soft.blued
p1408
g370
ssg109
(dp1409
Vcom.skycall.oem
p1410
g887
sVcom.android.settings
p1411
g989
sg1023
g667
sg25
g248
sg1352
g1058
sVcom.UCMobile
p1412
g943
sVcom.baidu.tieba
p1413
g1106
sg1191
g560
sg1190
g871
sVcom.eg.android.AlipayGphone
p1414
g312
sVcom.soft.blued
p1415
g374
ssg111
(dp1416
g1345
g890
sg1239
g159
sVcom.tencent.mobileqq
p1417
g872
sg140
g406
sVcom.android.mms
p1418
g1011
sg888
g759
sVcom.ting.mp3.android
p1419
g1063
sVcom.UCMobile
p1420
g945
sg1241
g516
sg532
g445
sg453
g561
sVcom.tencent.mm
p1421
g628
sVcom.eg.android.AlipayGphone
p1422
g314
sVcom.soft.blued
p1423
g376
ssg113
(dp1424
g67
g685
sg664
g995
sg725
g669
sg495
g421
sg965
g146
sg15
g183
sVcom.happyelements.AndroidAnimal
p1425
g807
sg1303
g791
sg1306
g517
sg188
g252
sg1149
g990
sg296
g582
sg1309
g378
sVcom.tencent.mobileqq
p1426
g873
sg1057
g1013
sVcom.eg.android.AlipayGphone
p1427
g316
sg75
g714
ssg115
(dp1428
g893
g939
sg937
g882
sVcom.android.settings
p1429
g988
ssg117
(dp1430
g320
g150
sg1169
g187
sg1293
g947
sg33
g317
sg1209
g379
sVcom.sankuai.meituan
p1431
g427
sVcom.taobao.taobao
p1432
g451
sVcom.myzaker.ZAKER_Phone
p1433
g519
sVcom.android.phone
p1434
g563
sg57
g586
sg61
g611
sVcom.tencent.mobileqq
p1435
g875
sVcom.meizu.mstore
p1436
g720
sg458
g671
sVcom.meizu.media.camera
p1437
g748
sg1226
g771
sg93
g817
sg603
g896
sg513
g957
sVcom.android.settings
p1438
g992
sg1105
g1017
sg1184
g1042
ssg119
(dp1439
Vcom.ting.mp3.android
p1440
g1070
sg1111
g901
sg1115
g565
sVcom.tencent.mobileqq
p1441
g877
sVcom.soft.blued
p1442
g381
ssg121
(dp1443
Vcom.tencent.mm
p1444
g673
ssg123
(dp1445
g679
g878
sVcom.android.deskclock
p1446
g214
sg1293
g948
sg1315
g521
sg117
g1103
sg65
g678
sg1173
g567
sg57
g593
sg61
g615
sVcom.tencent.mm
p1447
g675
sg33
g318
sg1209
g382
sssb.