ccopy_reg
_reconstructor
p1
(cnetworkx.classes.digraph
DiGraph
p2
c__builtin__
object
p3
NtRp4
(dp5
S'node'
p6
(dp7
Vcom.youku.phone
p8
(dp9
S'weight'
p10
F0.032318713734642936
ssVcom.baidu.netdisk
p11
(dp12
g10
F0.017472203312911279
ssVcom.android.deskclock
p13
(dp14
g10
F0.0016532140425945736
ssVcom.UCMobile
p15
(dp16
g10
F0.3778404486369088
ssVcom.tencent.lightalk
p17
(dp18
g10
F0.00055107134753152448
ssVcom.sina.weibo
p19
(dp20
g10
F0.05325942494084087
ssVcom.android.contacts
p21
(dp22
g10
F0.00045382346267302018
ssVcom.eg.android.AlipayGphone
p23
(dp24
g10
F0.0083957340594508732
ssVcom.android.packageinstaller
p25
(dp26
g10
F0.00084281500210703754
ssVcom.sankuai.meituan
p27
(dp28
g10
F0.011507666374923013
ssVcom.android.gallery3d
p29
(dp30
g10
F0.0043761548186326948
ssVcom.jingdong.app.mall
p31
(dp32
g10
F0.002722940776038121
ssVcom.cmcc.wificity
p33
(dp34
g10
F0.022172517747738988
ssVcom.android.phone
p35
(dp36
g10
F0.013420208110473597
ssVcom.tencent.mobileqq
p37
(dp38
g10
F0.05724658822003955
ssVcom.duomi.android
p39
(dp40
g10
F0.0081039904048753608
ssVcom.tencent.mm
p41
(dp42
g10
F0.28934487341566989
ssVcom.android.systemui
p43
(dp44
g10
F6.4831923239002884e-05
ssVcom.huawei.android.launcher
p45
(dp46
g10
F0.046776232616940583
ssVcom.sqr5.android.audioplayer
p47
(dp48
g10
F0.00032415961619501442
ssVcom.android.settings
p49
(dp50
g10
F0.0010697267334435477
ssVcom.android.mms
p51
(dp52
g10
F0.010146195986903951
ssVcom.example.android.notepad
p53
(dp54
g10
F0.0029174365457551297
ssVcom.ting.mp3.android
p55
(dp56
g10
F0.037019028169470648
sssS'graph'
p57
(dp58
sS'succ'
p59
(dp60
g8
(dp61
Vcom.tencent.mobileqq
p62
(dp63
g10
F0.90000000000000002
ssVcom.tencent.mm
p64
(dp65
g10
F0.40000000000000002
ssVcom.huawei.android.launcher
p66
(dp67
g10
F2.7000000000000002
sssg11
(dp68
Vcom.tencent.mobileqq
p69
(dp70
g10
F5.5000000000000009
ssVcom.android.packageinstaller
p71
(dp72
g10
F1.3
ssVcom.sankuai.meituan
p73
(dp74
g10
F0.40000000000000002
ssVcom.android.deskclock
p75
(dp76
g10
F0.40000000000000002
ssVcom.UCMobile
p77
(dp78
g10
F3.1000000000000001
ssVcom.huawei.android.launcher
p79
(dp80
g10
F24.799999999999994
ssVcom.tencent.mm
p81
(dp82
g10
F5.7000000000000011
ssVcom.android.contacts
p83
(dp84
g10
F0.90000000000000002
sssg13
(dp85
Vcom.baidu.netdisk
p86
(dp87
g10
F0.40000000000000002
ssVcom.UCMobile
p88
(dp89
g10
F3.4000000000000004
ssVcom.huawei.android.launcher
p90
(dp91
g10
F5.5000000000000009
ssVcom.android.mms
p92
(dp93
g10
F0.90000000000000002
ssVcom.android.settings
p94
(dp95
g10
F0.90000000000000002
sssg15
(dp96
g47
(dp97
g10
F0.90000000000000002
ssg29
(dp98
g10
F1.3
ssg19
(dp99
g10
F7.1000000000000014
ssg27
(dp100
g10
F0.90000000000000002
ssVcom.android.mms
p101
(dp102
g10
F1.3
ssVcom.baidu.netdisk
p103
(dp104
g10
F5.4000000000000004
ssVcom.example.android.notepad
p105
(dp106
g10
F2.7000000000000002
ssVcom.android.deskclock
p107
(dp108
g10
F0.90000000000000002
ssVcom.cmcc.wificity
p109
(dp110
g10
F0.90000000000000002
ssVcom.huawei.android.launcher
p111
(dp112
g10
F150.50000000000006
ssg17
(dp113
g10
F0.90000000000000002
ssg49
(dp114
g10
F4.0999999999999996
ssVcom.tencent.mm
p115
(dp116
g10
F36.899999999999963
ssg25
(dp117
g10
F3
ssg23
(dp118
g10
F1.3
ssVcom.tencent.mobileqq
p119
(dp120
g10
F22.099999999999987
sssg17
(dp121
sg19
(dp122
Vcom.android.settings
p123
(dp124
g10
F2.7000000000000002
ssVcom.UCMobile
p125
(dp126
g10
F4.9000000000000004
ssVcom.tencent.mm
p127
(dp128
g10
F2.2000000000000002
ssVcom.huawei.android.launcher
p129
(dp130
g10
F15.299999999999997
ssVcom.tencent.mobileqq
p131
(dp132
g10
F1.3
sssg21
(dp133
g75
(dp134
g10
F0.90000000000000002
ssVcom.huawei.android.launcher
p135
(dp136
g10
I2
sssg23
(dp137
Vcom.tencent.mobileqq
p138
(dp139
g10
F0.90000000000000002
ssVcom.tencent.mm
p140
(dp141
g10
F0.40000000000000002
ssVcom.huawei.android.launcher
p142
(dp143
g10
F2.7000000000000002
ssVcom.android.mms
p144
(dp145
g10
F0.90000000000000002
sssg25
(dp146
Vcom.UCMobile
p147
(dp148
g10
F3.1000000000000001
ssVcom.tencent.mm
p149
(dp150
g10
F0.40000000000000002
ssVcom.huawei.android.launcher
p151
(dp152
g10
F8.5
ssVcom.duomi.android
p153
(dp154
g10
F0.90000000000000002
ssVcom.tencent.mobileqq
p155
(dp156
g10
F0.40000000000000002
sssg27
(dp157
Vcom.tencent.mobileqq
p158
(dp159
g10
F0.80000000000000004
ssVcom.android.packageinstaller
p160
(dp161
g10
F0.69999999999999996
ssVcom.UCMobile
p162
(dp163
g10
F0.90000000000000002
ssVcom.huawei.android.launcher
p164
(dp165
g10
F8.1999999999999993
ssVcom.tencent.mm
p166
(dp167
g10
F1.8
ssg39
(dp168
g10
F1.8
sssg29
(dp169
Vcom.tencent.mm
p170
(dp171
g10
F2.6000000000000001
ssVcom.cmcc.wificity
p172
(dp173
g10
F0.90000000000000002
ssVcom.huawei.android.launcher
p174
(dp175
g10
F8.5
ssg53
(dp176
g10
F1.3
ssVcom.tencent.mobileqq
p177
(dp178
g10
F1.7000000000000002
sssg31
(dp179
sg33
(dp180
Vcom.android.gallery3d
p181
(dp182
g10
F0.90000000000000002
ssVcom.android.mms
p183
(dp184
g10
F1.8
ssVcom.example.android.notepad
p185
(dp186
g10
F0.90000000000000002
ssVcom.UCMobile
p187
(dp188
g10
F0.40000000000000002
ssVcom.huawei.android.launcher
p189
(dp190
g10
F8.5
ssg43
(dp191
g10
F0.90000000000000002
ssVcom.tencent.mobileqq
p192
(dp193
g10
F0.40000000000000002
ssVcom.eg.android.AlipayGphone
p194
(dp195
g10
F0.40000000000000002
sssg35
(dp196
Vcom.UCMobile
p197
(dp198
g10
I1
ssVcom.tencent.mm
p199
(dp200
g10
F0.69999999999999996
ssg135
(dp201
g10
F2.2000000000000002
ssVcom.android.contacts
p202
(dp203
g10
I1
sssg37
(dp204
Vcom.android.gallery3d
p205
(dp206
g10
F0.40000000000000002
ssVcom.youku.phone
p207
(dp208
g10
F1.3
ssVcom.android.settings
p209
(dp210
g10
F0.90000000000000002
ssg25
(dp211
g10
F0.40000000000000002
ssVcom.sankuai.meituan
p212
(dp213
g10
F0.90000000000000002
ssVcom.android.mms
p214
(dp215
g10
F3.7999999999999998
ssg11
(dp216
g10
F4.7999999999999998
ssVcom.example.android.notepad
p217
(dp218
g10
F1.7000000000000002
ssVcom.duomi.android
p219
(dp220
g10
F2.7000000000000002
ssVcom.UCMobile
p221
(dp222
g10
F37.599999999999973
ssg33
(dp223
g10
F0.90000000000000002
ssg45
(dp224
g10
F207.4999999999998
ssg43
(dp225
g10
F0.40000000000000002
ssg41
(dp226
g10
F60.199999999999939
ssg21
(dp227
g10
F0.40000000000000002
sssg39
(dp228
Vcom.tencent.mobileqq
p229
(dp230
g10
F0.80000000000000004
ssg160
(dp231
g10
I1
ssVcom.sankuai.meituan
p232
(dp233
g10
F0.90000000000000002
ssVcom.android.gallery3d
p234
(dp235
g10
F0.40000000000000002
ssVcom.huawei.android.launcher
p236
(dp237
g10
F12.499999999999998
ssg166
(dp238
g10
F5.3000000000000007
sssg41
(dp239
g47
(dp240
g10
F0.40000000000000002
ssg101
(dp241
g10
F4.8000000000000007
ssg27
(dp242
g10
F2
ssg29
(dp243
g10
F1.8
ssg11
(dp244
g10
F2
ssg53
(dp245
g10
F1.7000000000000002
ssg39
(dp246
g10
F3.7999999999999998
ssg55
(dp247
g10
F0.90000000000000002
ssg15
(dp248
g10
F32.699999999999974
ssg33
(dp249
g10
F0.40000000000000002
ssVcom.huawei.android.launcher
p250
(dp251
g10
F229.5999999999996
ssg49
(dp252
g10
F0.69999999999999996
ssVcom.tencent.mobileqq
p253
(dp254
g10
F83.500000000000043
ssg21
(dp255
g10
F0.90000000000000002
sssg43
(dp256
g183
(dp257
g10
F0.40000000000000002
ssVcom.cmcc.wificity
p258
(dp259
g10
F0.90000000000000002
ssVcom.huawei.android.launcher
p260
(dp261
g10
F1.7
sssg45
(dp262
g207
(dp263
g10
F1.7
ssg11
(dp264
g10
F21.699999999999996
ssg13
(dp265
g10
F5.4000000000000004
ssg15
(dp266
g10
F149.20000000000013
ssg17
(dp267
g10
F1.7
ssg19
(dp268
g10
F15.299999999999997
ssg21
(dp269
g10
F3.3999999999999999
ssg23
(dp270
g10
F3.3999999999999999
ssg25
(dp271
g10
F7.7000000000000011
ssg27
(dp272
g10
F6.5
ssg29
(dp273
g10
F8.5
ssg31
(dp274
g10
I1
ssg33
(dp275
g10
F8.1000000000000014
ssg43
(dp276
g10
F1.7
ssg41
(dp277
g10
F218.89999999999964
ssg39
(dp278
g10
F12.599999999999998
ssg253
(dp279
g10
F198.09999999999982
ssg47
(dp280
g10
F1.7
ssg49
(dp281
g10
F6.7000000000000011
ssg51
(dp282
g10
F25.299999999999997
ssg53
(dp283
g10
F11.199999999999999
ssg55
(dp284
g10
F1.7
sssg47
(dp285
Vcom.huawei.android.launcher
p286
(dp287
g10
I1
sssg49
(dp288
Vcom.huawei.android.launcher
p289
(dp290
g10
F3.1999999999999997
ssVcom.tencent.mm
p291
(dp292
g10
F0.90000000000000002
ssVcom.sina.weibo
p293
(dp294
g10
I1
ssVcom.tencent.mobileqq
p295
(dp296
g10
F0.69999999999999996
ssVcom.UCMobile
p297
(dp298
g10
I2
sssg51
(dp299
g209
(dp300
g10
F1.1000000000000001
ssVcom.tencent.mm
p301
(dp302
g10
F4.0999999999999996
ssVcom.android.gallery3d
p303
(dp304
g10
F0.90000000000000002
ssg86
(dp305
g10
F0.90000000000000002
ssVcom.UCMobile
p306
(dp307
g10
F1.7000000000000002
ssVcom.huawei.android.launcher
p308
(dp309
g10
F24.799999999999997
ssVcom.tencent.mobileqq
p310
(dp311
g10
F8.7000000000000011
ssg83
(dp312
g10
F0.40000000000000002
sssg53
(dp313
g19
(dp314
g10
F0.80000000000000004
ssVcom.android.mms
p315
(dp316
g10
F1.3
ssg55
(dp317
g10
F0.40000000000000002
ssVcom.UCMobile
p318
(dp319
g10
F2.7000000000000002
ssVcom.huawei.android.launcher
p320
(dp321
g10
F10.199999999999999
ssg170
(dp322
g10
F0.90000000000000002
ssg194
(dp323
g10
F0.90000000000000002
ssVcom.tencent.mobileqq
p324
(dp325
g10
F0.40000000000000002
sssg55
(dp326
Vcom.huawei.android.launcher
p327
(dp328
g10
I1
ssssS'edge'
p329
g60
sS'pred'
p330
(dp331
g8
(dp332
Vcom.huawei.android.launcher
p333
g263
sVcom.tencent.mobileqq
p334
g208
ssg11
(dp335
Vcom.tencent.mobileqq
p336
g216
sg92
g305
sVcom.android.deskclock
p337
g87
sVcom.UCMobile
p338
g104
sVcom.huawei.android.launcher
p339
g264
sVcom.tencent.mm
p340
g244
ssg13
(dp341
Vcom.UCMobile
p342
g108
sVcom.huawei.android.launcher
p343
g265
sg86
g76
sg83
g134
ssg15
(dp344
Vcom.tencent.mobileqq
p345
g222
sg19
g126
sg27
g163
sg51
g307
sg11
g78
sg105
g319
sg13
g89
sg258
g188
sVcom.android.phone
p346
g198
sVcom.huawei.android.launcher
p347
g266
sVcom.android.settings
p348
g298
sVcom.tencent.mm
p349
g248
sg25
g148
ssg17
(dp350
Vcom.UCMobile
p351
g113
sVcom.huawei.android.launcher
p352
g267
ssg19
(dp353
g318
g99
sVcom.huawei.android.launcher
p354
g268
sg105
g314
sg123
g294
ssg21
(dp355
Vcom.tencent.mobileqq
p356
g227
sg92
g312
sg86
g84
sVcom.huawei.android.launcher
p357
g269
sg35
g203
sVcom.tencent.mm
p358
g255
ssg23
(dp359
Vcom.UCMobile
p360
g118
sg172
g195
sVcom.huawei.android.launcher
p361
g270
sg185
g323
ssg25
(dp362
g73
g161
sVcom.baidu.netdisk
p363
g72
sVcom.UCMobile
p364
g117
sVcom.huawei.android.launcher
p365
g271
sVcom.tencent.mobileqq
p366
g211
sg39
g231
ssg27
(dp367
Vcom.tencent.mobileqq
p368
g213
sVcom.baidu.netdisk
p369
g74
sVcom.UCMobile
p370
g100
sVcom.huawei.android.launcher
p371
g272
sVcom.tencent.mm
p372
g242
sVcom.duomi.android
p373
g233
ssg29
(dp374
Vcom.tencent.mobileqq
p375
g206
sVcom.android.mms
p376
g304
sVcom.UCMobile
p377
g98
sVcom.cmcc.wificity
p378
g182
sVcom.huawei.android.launcher
p379
g273
sg115
g243
sVcom.duomi.android
p380
g235
ssg31
(dp381
Vcom.huawei.android.launcher
p382
g274
ssg33
(dp383
Vcom.tencent.mobileqq
p384
g223
sg181
g173
sVcom.UCMobile
p385
g110
sVcom.huawei.android.launcher
p386
g275
sg43
g259
sVcom.tencent.mm
p387
g249
ssg35
(dp388
sg37
(dp389
g234
g178
sg8
g63
sVcom.sina.weibo
p390
g132
sVcom.android.packageinstaller
p391
g156
sg232
g159
sg51
g311
sVcom.baidu.netdisk
p392
g70
sVcom.example.android.notepad
p393
g325
sVcom.UCMobile
p394
g120
sg109
g193
sg45
g279
sg94
g296
sg41
g254
sg219
g230
sg23
g139
ssg39
(dp395
Vcom.huawei.android.launcher
p396
g278
sg160
g154
sg73
g168
sVcom.tencent.mm
p397
g246
sVcom.tencent.mobileqq
p398
g220
ssg41
(dp399
Vcom.sina.weibo
p400
g128
sg8
g65
sg101
g302
sg25
g150
sg232
g167
sg29
g171
sg392
g82
sg53
g322
sg15
g116
sg346
g200
sg45
g277
sg209
g292
sg37
g226
sg373
g238
sg23
g141
ssg43
(dp401
Vcom.huawei.android.launcher
p402
g276
sg33
g191
sg384
g225
ssg45
(dp403
g47
g287
sg13
g91
sg25
g152
sg39
g237
sg8
g67
sg37
g224
sg19
g130
sg27
g165
sg29
g175
sg11
g80
sg53
g321
sg202
g136
sg55
g328
sg15
g112
sg33
g190
sg43
g261
sg35
g201
sg41
g251
sg51
g309
sg23
g143
sg209
g290
ssg47
(dp404
Vcom.huawei.android.launcher
p405
g280
sVcom.tencent.mm
p406
g240
sVcom.UCMobile
p407
g97
ssg49
(dp408
Vcom.sina.weibo
p409
g124
sVcom.android.mms
p410
g300
sg107
g95
sVcom.UCMobile
p411
g114
sVcom.huawei.android.launcher
p412
g281
sVcom.tencent.mm
p413
g252
sVcom.tencent.mobileqq
p414
g210
ssg51
(dp415
Vcom.tencent.mobileqq
p416
g215
sg393
g316
sg337
g93
sVcom.UCMobile
p417
g102
sg258
g184
sVcom.huawei.android.launcher
p418
g282
sg43
g257
sVcom.tencent.mm
p419
g241
sg194
g145
ssg53
(dp420
g131
g218
sg29
g176
sVcom.UCMobile
p421
g106
sg172
g186
sVcom.huawei.android.launcher
p422
g283
sg115
g245
ssg55
(dp423
g170
g247
sg320
g284
sg53
g317
sssS'adj'
p424
g60
sb.