ccopy_reg
_reconstructor
p1
(cnetworkx.classes.digraph
DiGraph
p2
c__builtin__
object
p3
NtRp4
(dp5
S'node'
p6
(dp7
Vcom.android.browser
p8
(dp9
S'weight'
p10
F0.00047781220517646142
ssVcom.youku.phone
p11
(dp12
g10
F0.009897538535798129
ssVcom.android.thememanager
p13
(dp14
g10
F5.3022527870347119e-05
ssVcom.tencent.qqmusic
p15
(dp16
g10
F0.041240556504949989
ssVcom.hunantv.imgo.activity
p17
(dp18
g10
F0.00058995180435052891
ssVcom.android.launcher
p19
(dp20
g10
F0.82654441825145109
ssVcom.sina.weibo
p21
(dp22
g10
F0.0079637399043888026
ssVcom.miui.weather2
p23
(dp24
g10
F2.1330902016806314e-05
ssVcom.android.bluetooth
p25
(dp26
g10
F6.7039977767105557e-06
ssVcom.android.phone
p27
(dp28
g10
F3.6567260600239394e-06
ssVcom.miui.gallery
p29
(dp30
g10
F0.0016814845332676748
ssVcom.tencent.mm
p31
(dp32
g10
F0.0042088916950875545
ssVcom.android.calculator
p33
(dp34
g10
F0.00013956504462424703
ssVcom.snda.wifilocating
p35
(dp36
g10
F1.7674175956782375e-05
ssVcom.xiaomi.market
p37
(dp38
g10
F2.9863262823528839e-05
ssVcom.android.fileexplorer
p39
(dp40
g10
F0.00027303554581512078
ssVcom.qiyi.video
p41
(dp42
g10
F0.038958149989151709
ssVcom.happyelements.AndroidAnimal
p43
(dp44
g10
F0.013350097390804064
ssVcom.tencent.mobileqq
p45
(dp46
g10
F0.0040705455591499816
ssVcom.miui.notes
p47
(dp48
g10
F3.7786169286914043e-05
ssVcom.android.calendar
p49
(dp50
g10
F0.00010909232745738086
ssVcom.android.settings
p51
(dp52
g10
F0.048307179615946251
ssVcom.miui.video
p53
(dp54
g10
F8.5323608067225243e-06
ssVcom.le123.ysdq
p55
(dp56
g10
F0.00041686677084272911
ssVcom.qzone
p57
(dp58
g10
F0.0012213465040479957
ssVcom.miui.barcodescanner
p59
(dp60
g10
F5.4850890900359094e-06
ssVcom.android.camera
p61
(dp62
g10
F0.00036567260600239393
sssS'node_dict_factory'
p63
c__builtin__
dict
p64
sS'edge_attr_dict_factory'
p65
g64
sS'succ'
p66
(dp67
g8
(dp68
Vcom.miui.weather2
p69
(dp70
g10
F0.90000000000000002
ssVcom.youku.phone
p71
(dp72
g10
F2.2999999999999998
ssVcom.android.calendar
p73
(dp74
g10
F1.1000000000000001
ssVcom.sina.weibo
p75
(dp76
g10
F1.7999999999999998
ssg55
(dp77
g10
F0.40000000000000002
ssVcom.android.fileexplorer
p78
(dp79
g10
I15
ssVcom.qzone
p80
(dp81
g10
F1.6000000000000001
ssVcom.tencent.qqmusic
p82
(dp83
g10
F3.3999999999999999
ssVcom.android.launcher
p84
(dp85
g10
F49.199999999999996
ssVcom.happyelements.AndroidAnimal
p86
(dp87
g10
F2.6000000000000001
ssVcom.android.camera
p88
(dp89
g10
F1.8
ssVcom.miui.gallery
p90
(dp91
g10
F2
ssVcom.tencent.mm
p92
(dp93
g10
F3.2000000000000002
ssVcom.tencent.mobileqq
p94
(dp95
g10
F2.2999999999999998
sssg11
(dp96
Vcom.android.browser
p97
(dp98
g10
F5.3000000000000007
ssVcom.miui.weather2
p99
(dp100
g10
F0.40000000000000002
ssg49
(dp101
g10
F0.90000000000000002
ssVcom.sina.weibo
p102
(dp103
g10
F0.90000000000000002
ssVcom.qiyi.video
p104
(dp105
g10
F0.40000000000000002
ssVcom.android.fileexplorer
p106
(dp107
g10
F10.900000000000002
ssVcom.qzone
p108
(dp109
g10
F0.90000000000000002
ssg15
(dp110
g10
F5.0999999999999996
ssVcom.android.launcher
p111
(dp112
g10
F37.100000000000001
ssVcom.happyelements.AndroidAnimal
p113
(dp114
g10
F3.1000000000000001
ssVcom.android.camera
p115
(dp116
g10
F0.90000000000000002
ssVcom.miui.gallery
p117
(dp118
g10
F1.8
ssVcom.tencent.mobileqq
p119
(dp120
g10
F2.2999999999999998
sssg13
(dp121
Vcom.qiyi.video
p122
(dp123
g10
F0.40000000000000002
ssVcom.android.fileexplorer
p124
(dp125
g10
F1.8999999999999999
ssVcom.qzone
p126
(dp127
g10
F0.40000000000000002
ssVcom.android.launcher
p128
(dp129
g10
F9.4000000000000004
ssVcom.android.camera
p130
(dp131
g10
F0.40000000000000002
ssVcom.miui.gallery
p132
(dp133
g10
F0.90000000000000002
ssVcom.tencent.mm
p134
(dp135
g10
F1.3
sssg15
(dp136
Vcom.android.browser
p137
(dp138
g10
F4.2999999999999998
ssVcom.miui.weather2
p139
(dp140
g10
F0.40000000000000002
ssVcom.youku.phone
p141
(dp142
g10
F3.1999999999999997
ssVcom.android.calendar
p143
(dp144
g10
F1.3
ssVcom.sina.weibo
p145
(dp146
g10
F1.3999999999999999
ssg37
(dp147
g10
F0.40000000000000002
ssVcom.le123.ysdq
p148
(dp149
g10
I3
ssg106
(dp150
g10
F10.800000000000002
ssg57
(dp151
g10
F2
ssVcom.hunantv.imgo.activity
p152
(dp153
g10
F1.8999999999999999
ssVcom.android.launcher
p154
(dp155
g10
F73.000000000000028
ssg43
(dp156
g10
F15.400000000000004
ssVcom.android.camera
p157
(dp158
g10
F1.8
ssVcom.miui.gallery
p159
(dp160
g10
F5.1000000000000005
ssg31
(dp161
g10
F2.2999999999999998
ssVcom.tencent.mobileqq
p162
(dp163
g10
F3.6999999999999997
sssg17
(dp164
Vcom.android.browser
p165
(dp166
g10
F1.3999999999999999
ssVcom.sina.weibo
p167
(dp168
g10
I1
ssVcom.xiaomi.market
p169
(dp170
g10
F0.40000000000000002
ssVcom.android.fileexplorer
p171
(dp172
g10
F1.8
ssg35
(dp173
g10
F0.90000000000000002
ssVcom.android.launcher
p174
(dp175
g10
F13.899999999999999
ssVcom.android.camera
p176
(dp177
g10
F1.8
ssVcom.happyelements.AndroidAnimal
p178
(dp179
g10
F0.90000000000000002
ssVcom.tencent.qqmusic
p180
(dp181
g10
I1
ssVcom.miui.gallery
p182
(dp183
g10
F1.6000000000000001
ssVcom.tencent.mm
p184
(dp185
g10
F0.69999999999999996
sssg19
(dp186
g8
(dp187
g10
F70.599999999999966
ssg11
(dp188
g10
F30.499999999999993
ssg13
(dp189
g10
F10.9
ssg15
(dp190
g10
F47.100000000000009
ssg152
(dp191
g10
F8.8000000000000007
ssVcom.sina.weibo
p192
(dp193
g10
F58.800000000000026
ssg23
(dp194
g10
F16.699999999999996
ssg25
(dp195
g10
F0.40000000000000002
ssg27
(dp196
g10
F1.7
ssg29
(dp197
g10
F65.400000000000034
ssg31
(dp198
g10
F49.400000000000013
ssVcom.android.calculator
p199
(dp200
g10
F3.0999999999999996
ssg35
(dp201
g10
F2.7000000000000002
ssg37
(dp202
g10
F4.7000000000000002
ssg106
(dp203
g10
F117.60000000000014
ssg104
(dp204
g10
F4.2999999999999998
ssg43
(dp205
g10
F78.600000000000051
ssg45
(dp206
g10
F49.700000000000017
ssg47
(dp207
g10
F5.0999999999999996
ssg49
(dp208
g10
F18.299999999999997
ssg51
(dp209
g10
F11.6
ssg53
(dp210
g10
F1.7000000000000002
ssg55
(dp211
g10
F4.4000000000000004
ssg57
(dp212
g10
F20.299999999999997
ssg59
(dp213
g10
F1.7
ssg61
(dp214
g10
F30.799999999999994
sssg21
(dp215
Vcom.android.browser
p216
(dp217
g10
F1.3999999999999999
ssVcom.miui.weather2
p218
(dp219
g10
F1.3
ssVcom.youku.phone
p220
(dp221
g10
F2.6000000000000001
ssVcom.android.calendar
p222
(dp223
g10
F2.3999999999999999
ssVcom.tencent.mobileqq
p224
(dp225
g10
F2.6000000000000001
ssVcom.miui.notes
p226
(dp227
g10
F1.3
ssVcom.android.fileexplorer
p228
(dp229
g10
F3.5
ssVcom.qzone
p230
(dp231
g10
F3.1000000000000001
ssVcom.tencent.qqmusic
p232
(dp233
g10
F10.000000000000002
ssVcom.hunantv.imgo.activity
p234
(dp235
g10
F1.3
ssVcom.android.launcher
p236
(dp237
g10
F79.500000000000057
ssVcom.happyelements.AndroidAnimal
p238
(dp239
g10
F6.4000000000000012
ssg157
(dp240
g10
F0.80000000000000004
ssVcom.miui.gallery
p241
(dp242
g10
F3.1000000000000001
ssVcom.tencent.mm
p243
(dp244
g10
F6.7000000000000011
sssg23
(dp245
Vcom.android.browser
p246
(dp247
g10
F1.3999999999999999
ssVcom.youku.phone
p248
(dp249
g10
F0.90000000000000002
ssg222
(dp250
g10
F2.2000000000000002
ssVcom.tencent.mobileqq
p251
(dp252
g10
F1.3
ssVcom.android.fileexplorer
p253
(dp254
g10
F3.1000000000000001
ssVcom.hunantv.imgo.activity
p255
(dp256
g10
F0.40000000000000002
ssVcom.android.launcher
p257
(dp258
g10
F14.299999999999999
ssVcom.happyelements.AndroidAnimal
p259
(dp260
g10
F1.7000000000000002
ssg192
(dp261
g10
F1.3
sssg25
(dp262
Vcom.android.camera
p263
(dp264
g10
F0.69999999999999996
ssVcom.miui.gallery
p265
(dp266
g10
I1
ssVcom.android.launcher
p267
(dp268
g10
F1.3
sssg27
(dp269
Vcom.android.calendar
p270
(dp271
g10
F0.90000000000000002
ssVcom.android.fileexplorer
p272
(dp273
g10
F0.40000000000000002
ssVcom.android.launcher
p274
(dp275
g10
F1.7
sssg29
(dp276
g199
(dp277
g10
F1.3
ssVcom.android.browser
p278
(dp279
g10
F4.9000000000000004
ssg11
(dp280
g10
F0.90000000000000002
ssg270
(dp281
g10
F2.2000000000000002
ssVcom.android.settings
p282
(dp283
g10
F3.8999999999999999
ssVcom.tencent.mm
p284
(dp285
g10
F3.3999999999999999
ssg25
(dp286
g10
F1.7
ssg13
(dp287
g10
F2.7000000000000002
ssVcom.xiaomi.market
p288
(dp289
g10
F0.69999999999999996
ssg124
(dp290
g10
F10.000000000000002
ssg15
(dp291
g10
F1.3999999999999999
ssg53
(dp292
g10
F3.3999999999999999
ssVcom.android.launcher
p293
(dp294
g10
F67.600000000000037
ssg27
(dp295
g10
F0.90000000000000002
ssVcom.happyelements.AndroidAnimal
p296
(dp297
g10
F2.2000000000000002
ssg130
(dp298
g10
F5.7000000000000002
ssVcom.sina.weibo
p299
(dp300
g10
F1.3
ssVcom.tencent.mobileqq
p301
(dp302
g10
F2.6000000000000001
sssg31
(dp303
Vcom.android.browser
p304
(dp305
g10
F3.5
ssg23
(dp306
g10
F1.7000000000000002
ssVcom.youku.phone
p307
(dp308
g10
F2.2000000000000002
ssVcom.android.calendar
p309
(dp310
g10
F0.40000000000000002
ssVcom.tencent.mobileqq
p311
(dp312
g10
F4.8000000000000007
ssg226
(dp313
g10
F0.90000000000000002
ssVcom.android.thememanager
p314
(dp315
g10
F0.40000000000000002
ssg55
(dp316
g10
F0.90000000000000002
ssVcom.android.fileexplorer
p317
(dp318
g10
F8.5000000000000018
ssVcom.qzone
p319
(dp320
g10
F3.1000000000000001
ssVcom.tencent.qqmusic
p321
(dp322
g10
F4.9000000000000004
ssVcom.android.launcher
p323
(dp324
g10
F77.900000000000048
ssVcom.happyelements.AndroidAnimal
p325
(dp326
g10
F5.8000000000000007
ssVcom.android.camera
p327
(dp328
g10
F0.90000000000000002
ssVcom.miui.gallery
p329
(dp330
g10
F2.1000000000000001
ssVcom.sina.weibo
p331
(dp332
g10
F9.3000000000000025
sssg33
(dp333
g59
(dp334
g10
F1.3
ssVcom.android.launcher
p335
(dp336
g10
F4.8000000000000007
sssg35
(dp337
Vcom.android.launcher
p338
(dp339
g10
I2
sssg37
(dp340
Vcom.android.fileexplorer
p341
(dp342
g10
F0.40000000000000002
ssVcom.miui.weather2
p343
(dp344
g10
F1.8
ssg248
(dp345
g10
F0.40000000000000002
ssVcom.android.launcher
p346
(dp347
g10
F4.4000000000000004
sssg39
(dp348
g8
(dp349
g10
F65.400000000000006
ssg47
(dp350
g10
F0.90000000000000002
ssg141
(dp351
g10
F3.7000000000000002
ssVcom.android.calendar
p352
(dp353
g10
F3.1000000000000001
ssg45
(dp354
g10
F7.6000000000000014
ssg75
(dp355
g10
F2.6000000000000001
ssg69
(dp356
g10
F0.69999999999999996
ssVcom.android.thememanager
p357
(dp358
g10
I1
ssg55
(dp359
g10
F1.1000000000000001
ssg80
(dp360
g10
F1.3
ssg82
(dp361
g10
F3.4000000000000004
ssg19
(dp362
g10
F66.40000000000002
ssVcom.android.settings
p363
(dp364
g10
F1.3999999999999999
ssg296
(dp365
g10
F1.8
ssg61
(dp366
g10
F2.6000000000000001
ssg29
(dp367
g10
F1.7000000000000002
ssg134
(dp368
g10
F5.9000000000000004
ssVcom.snda.wifilocating
p369
(dp370
g10
F0.40000000000000002
sssg41
(dp371
Vcom.android.browser
p372
(dp373
g10
F0.69999999999999996
ssVcom.tencent.mm
p374
(dp375
g10
F0.90000000000000002
ssVcom.android.thememanager
p376
(dp377
g10
F0.40000000000000002
ssVcom.android.fileexplorer
p378
(dp379
g10
F2.2000000000000002
ssVcom.tencent.qqmusic
p380
(dp381
g10
F0.40000000000000002
ssVcom.android.launcher
p382
(dp383
g10
F9.5
ssVcom.happyelements.AndroidAnimal
p384
(dp385
g10
F1.3
ssVcom.miui.gallery
p386
(dp387
g10
F1.3
ssVcom.tencent.mobileqq
p388
(dp389
g10
F0.90000000000000002
sssg43
(dp390
Vcom.android.browser
p391
(dp392
g10
F6.3000000000000007
ssg47
(dp393
g10
F0.40000000000000002
ssVcom.youku.phone
p394
(dp395
g10
F1.3
ssVcom.tencent.mobileqq
p396
(dp397
g10
F1.6000000000000001
ssg139
(dp398
g10
F1.8
ssVcom.android.thememanager
p399
(dp400
g10
F1.7000000000000002
ssVcom.le123.ysdq
p401
(dp402
g10
F0.90000000000000002
ssVcom.android.fileexplorer
p403
(dp404
g10
F14.300000000000004
ssg57
(dp405
g10
F2.2000000000000002
ssVcom.tencent.qqmusic
p406
(dp407
g10
F4.5
ssVcom.hunantv.imgo.activity
p408
(dp409
g10
F0.90000000000000002
ssVcom.android.launcher
p410
(dp411
g10
F70.800000000000026
ssVcom.android.camera
p412
(dp413
g10
F0.90000000000000002
ssVcom.miui.gallery
p414
(dp415
g10
F3.1000000000000001
ssg192
(dp416
g10
F2.2000000000000002
sssg45
(dp417
Vcom.android.browser
p418
(dp419
g10
F4.2000000000000002
ssg99
(dp420
g10
F0.90000000000000002
ssg11
(dp421
g10
F3.5
ssg49
(dp422
g10
F0.40000000000000002
ssg331
(dp423
g10
F10.400000000000002
ssg314
(dp424
g10
F0.90000000000000002
ssVcom.android.fileexplorer
p425
(dp426
g10
F8.6000000000000014
ssVcom.qzone
p427
(dp428
g10
F1.7000000000000002
ssg380
(dp429
g10
F3.5999999999999996
ssVcom.hunantv.imgo.activity
p430
(dp431
g10
F1.3
ssVcom.android.launcher
p432
(dp433
g10
F78.100000000000065
ssg363
(dp434
g10
F0.69999999999999996
ssg113
(dp435
g10
F3.8999999999999999
ssVcom.android.camera
p436
(dp437
g10
F1.7000000000000002
ssg29
(dp438
g10
F3.3999999999999999
ssg92
(dp439
g10
F10.600000000000003
sssg47
(dp440
g61
(dp441
g10
F0.90000000000000002
ssVcom.miui.weather2
p442
(dp443
g10
F0.90000000000000002
ssVcom.android.launcher
p444
(dp445
g10
F3.7000000000000002
ssg253
(dp446
g10
F0.40000000000000002
sssg49
(dp447
Vcom.android.browser
p448
(dp449
g10
F0.69999999999999996
ssVcom.miui.notes
p450
(dp451
g10
F0.40000000000000002
ssVcom.youku.phone
p452
(dp453
g10
F0.90000000000000002
ssVcom.android.settings
p454
(dp455
g10
F0.90000000000000002
ssVcom.tencent.mm
p456
(dp457
g10
I1
ssVcom.android.thememanager
p458
(dp459
g10
F0.69999999999999996
ssVcom.android.fileexplorer
p460
(dp461
g10
F2.6000000000000001
ssg369
(dp462
g10
F0.90000000000000002
ssg255
(dp463
g10
F0.90000000000000002
ssVcom.android.launcher
p464
(dp465
g10
F18.599999999999994
ssVcom.happyelements.AndroidAnimal
p466
(dp467
g10
F0.90000000000000002
ssVcom.android.camera
p468
(dp469
g10
F1.8
ssVcom.miui.gallery
p470
(dp471
g10
F0.40000000000000002
ssVcom.sina.weibo
p472
(dp473
g10
F2
ssVcom.tencent.mobileqq
p474
(dp475
g10
F0.90000000000000002
sssg51
(dp476
Vcom.android.browser
p477
(dp478
g10
F0.40000000000000002
ssVcom.miui.weather2
p479
(dp480
g10
F0.40000000000000002
ssg25
(dp481
g10
F0.90000000000000002
ssg458
(dp482
g10
I1
ssg288
(dp483
g10
I1
ssVcom.android.fileexplorer
p484
(dp485
g10
F0.69999999999999996
ssVcom.tencent.qqmusic
p486
(dp487
g10
F0.40000000000000002
ssVcom.android.launcher
p488
(dp489
g10
F14
ssVcom.happyelements.AndroidAnimal
p490
(dp491
g10
F0.90000000000000002
ssVcom.miui.gallery
p492
(dp493
g10
F6.1000000000000005
ssVcom.sina.weibo
p494
(dp495
g10
F0.90000000000000002
sssg53
(dp496
Vcom.miui.gallery
p497
(dp498
g10
F3.4000000000000004
ssVcom.android.launcher
p499
(dp500
g10
F1.7000000000000002
sssg55
(dp501
Vcom.android.browser
p502
(dp503
g10
F1.3999999999999999
ssg23
(dp504
g10
F0.90000000000000002
ssVcom.youku.phone
p505
(dp506
g10
F0.90000000000000002
ssVcom.android.fileexplorer
p507
(dp508
g10
F2.2000000000000002
ssVcom.tencent.qqmusic
p509
(dp510
g10
I3
ssVcom.android.launcher
p511
(dp512
g10
F10.199999999999999
ssg27
(dp513
g10
F0.40000000000000002
ssg259
(dp514
g10
F2.1000000000000001
ssVcom.miui.gallery
p515
(dp516
g10
F1.3
sssg57
(dp517
Vcom.android.browser
p518
(dp519
g10
F0.69999999999999996
ssg218
(dp520
g10
F0.40000000000000002
ssg505
(dp521
g10
F1.3
ssVcom.android.calendar
p522
(dp523
g10
F0.90000000000000002
ssg31
(dp524
g10
F3.1000000000000001
ssg104
(dp525
g10
F0.90000000000000002
ssVcom.le123.ysdq
p526
(dp527
g10
F0.90000000000000002
ssVcom.android.fileexplorer
p528
(dp529
g10
F2.1000000000000001
ssVcom.tencent.qqmusic
p530
(dp531
g10
F3.8999999999999999
ssVcom.android.launcher
p532
(dp533
g10
F29.499999999999993
ssg238
(dp534
g10
F2.6000000000000001
ssg414
(dp535
g10
F0.80000000000000004
ssVcom.sina.weibo
p536
(dp537
g10
F1.8
ssVcom.tencent.mobileqq
p538
(dp539
g10
F0.40000000000000002
sssg59
(dp540
Vcom.android.launcher
p541
(dp542
g10
F2.5999999999999996
sssg61
(dp543
Vcom.android.browser
p544
(dp545
g10
F2.5
ssg343
(dp546
g10
F0.80000000000000004
ssg199
(dp547
g10
F0.69999999999999996
ssg301
(dp548
g10
F0.40000000000000002
ssVcom.tencent.mm
p549
(dp550
g10
F1.3
ssVcom.android.thememanager
p551
(dp552
g10
F0.40000000000000002
ssg37
(dp553
g10
F1.8
ssVcom.android.fileexplorer
p554
(dp555
g10
F3.8000000000000003
ssVcom.tencent.qqmusic
p556
(dp557
g10
F0.40000000000000002
ssg234
(dp558
g10
F0.40000000000000002
ssVcom.android.launcher
p559
(dp560
g10
F30.599999999999994
ssVcom.android.settings
p561
(dp562
g10
F2
ssg490
(dp563
g10
F0.40000000000000002
ssVcom.miui.gallery
p564
(dp565
g10
F9.6000000000000014
ssg299
(dp566
g10
F1.3
ssssS'edge'
p567
g67
sS'graph'
p568
(dp569
sS'adjlist_dict_factory'
p570
g64
sS'adj'
p571
g67
sS'pred'
p572
(dp573
g8
(dp574
g442
g247
sVcom.youku.phone
p575
g98
sg270
g449
sg331
g217
sVcom.tencent.mm
p576
g305
sg122
g373
sVcom.le123.ysdq
p577
g503
sg106
g349
sVcom.qzone
p578
g519
sg232
g138
sg152
g166
sg154
g187
sg561
g478
sVcom.happyelements.AndroidAnimal
p579
g392
sg412
g545
sg241
g279
sg396
g419
ssg11
(dp580
Vcom.android.browser
p581
g72
sg343
g249
sg49
g453
sg45
g421
sVcom.sina.weibo
p582
g221
sg37
g345
sg526
g506
sVcom.android.fileexplorer
p583
g351
sg80
g521
sg82
g142
sg432
g188
sVcom.happyelements.AndroidAnimal
p584
g395
sg29
g280
sg134
g308
ssg13
(dp585
Vcom.android.calendar
p586
g459
sVcom.tencent.mm
p587
g315
sg104
g377
sVcom.android.fileexplorer
p588
g358
sVcom.android.launcher
p589
g189
sg454
g482
sVcom.happyelements.AndroidAnimal
p590
g400
sVcom.android.camera
p591
g552
sVcom.miui.gallery
p592
g287
sVcom.tencent.mobileqq
p593
g424
ssg15
(dp594
g137
g83
sg11
g110
sg51
g487
sg284
g322
sVcom.qiyi.video
p595
g381
sVcom.le123.ysdq
p596
g510
sVcom.android.fileexplorer
p597
g361
sVcom.qzone
p598
g531
sVcom.hunantv.imgo.activity
p599
g181
sg293
g190
sg43
g407
sg263
g557
sg29
g291
sg192
g233
sg388
g429
ssg17
(dp600
g69
g256
sg73
g463
sVcom.tencent.mobileqq
p601
g431
sVcom.tencent.qqmusic
p602
g153
sVcom.android.launcher
p603
g191
sVcom.happyelements.AndroidAnimal
p604
g409
sg130
g558
sg299
g235
ssg19
(dp605
g418
g85
sg11
g112
sg13
g129
sg15
g155
sg17
g175
sg21
g237
sg23
g258
sg25
g268
sg27
g275
sg29
g294
sg31
g324
sg33
g336
sg35
g339
sg37
g347
sg39
g362
sg41
g383
sg43
g411
sg45
g433
sg47
g445
sg49
g465
sg51
g489
sg53
g500
sg55
g512
sg57
g533
sg59
g542
sg130
g560
ssg21
(dp606
g391
g76
sg23
g261
sVcom.youku.phone
p607
g103
sVcom.android.calendar
p608
g473
sVcom.tencent.mm
p609
g332
sVcom.android.fileexplorer
p610
g355
sg427
g537
sVcom.tencent.qqmusic
p611
g146
sVcom.hunantv.imgo.activity
p612
g168
sg257
g193
sg51
g495
sg259
g416
sg130
g566
sg132
g300
sVcom.tencent.mobileqq
p613
g423
ssg23
(dp614
Vcom.android.browser
p615
g70
sg226
g443
sVcom.youku.phone
p616
g100
sg92
g306
sg55
g504
sVcom.android.fileexplorer
p617
g356
sVcom.qzone
p618
g520
sVcom.tencent.qqmusic
p619
g140
sg84
g194
sVcom.android.settings
p620
g480
sVcom.happyelements.AndroidAnimal
p621
g398
sVcom.android.camera
p622
g546
sg37
g344
sVcom.sina.weibo
p623
g219
sVcom.tencent.mobileqq
p624
g420
ssg25
(dp625
Vcom.android.settings
p626
g481
sVcom.miui.gallery
p627
g286
sVcom.android.launcher
p628
g195
ssg27
(dp629
g515
g295
sVcom.android.launcher
p630
g196
sVcom.le123.ysdq
p631
g513
ssg29
(dp632
Vcom.android.browser
p633
g91
sVcom.youku.phone
p634
g118
sg352
g471
sg45
g438
sVcom.tencent.mm
p635
g330
sg314
g133
sVcom.le123.ysdq
p636
g516
sg39
g367
sg53
g498
sVcom.qzone
p637
g535
sVcom.tencent.qqmusic
p638
g160
sVcom.hunantv.imgo.activity
p639
g183
sg19
g197
sg282
g493
sVcom.happyelements.AndroidAnimal
p640
g415
sVcom.android.camera
p641
g565
sg104
g387
sVcom.sina.weibo
p642
g242
sg25
g266
ssg31
(dp643
g418
g93
sVcom.android.calendar
p644
g457
sg582
g244
sg13
g135
sg124
g368
sg57
g524
sg406
g161
sg612
g185
sVcom.android.launcher
p645
g198
sg436
g550
sVcom.qiyi.video
p646
g375
sg564
g285
sg396
g439
ssg33
(dp647
Vcom.android.camera
p648
g547
sVcom.miui.gallery
p649
g277
sVcom.android.launcher
p650
g200
ssg35
(dp651
Vcom.android.calendar
p652
g462
sVcom.android.fileexplorer
p653
g370
sVcom.hunantv.imgo.activity
p654
g173
sVcom.android.launcher
p655
g201
ssg37
(dp656
Vcom.android.settings
p657
g483
sVcom.tencent.qqmusic
p658
g147
sVcom.hunantv.imgo.activity
p659
g170
sVcom.android.launcher
p660
g202
sg622
g553
sVcom.miui.gallery
p661
g289
ssg39
(dp662
g418
g79
sg169
g342
sg226
g446
sg11
g107
sg49
g461
sg396
g426
sg609
g318
sg442
g254
sg13
g125
sg577
g508
sg561
g485
sg578
g529
sg15
g150
sg41
g379
sg111
g203
sg27
g273
sg113
g404
sg412
g555
sg592
g290
sg21
g229
sg152
g172
ssg41
(dp663
g458
g123
sg108
g525
sVcom.youku.phone
p664
g105
sVcom.android.launcher
p665
g204
ssg43
(dp666
Vcom.android.browser
p667
g87
sg23
g260
sg307
g114
sg222
g467
sg536
g239
sVcom.tencent.mm
p668
g326
sVcom.qiyi.video
p669
g385
sg55
g514
sVcom.android.fileexplorer
p670
g365
sg427
g534
sVcom.tencent.qqmusic
p671
g156
sVcom.hunantv.imgo.activity
p672
g179
sVcom.android.launcher
p673
g205
sg620
g491
sVcom.android.camera
p674
g563
sg90
g297
sg311
g435
ssg45
(dp675
Vcom.android.browser
p676
g95
sVcom.miui.weather2
p677
g252
sg575
g120
sg309
g475
sVcom.sina.weibo
p678
g225
sg595
g389
sg39
g354
sVcom.qzone
p679
g539
sVcom.tencent.qqmusic
p680
g163
sg19
g206
sg113
g397
sg641
g548
sg564
g302
sg134
g312
ssg47
(dp681
g608
g451
sVcom.sina.weibo
p682
g227
sVcom.android.fileexplorer
p683
g350
sVcom.android.launcher
p684
g207
sVcom.happyelements.AndroidAnimal
p685
g393
sVcom.tencent.mm
p686
g313
ssg49
(dp687
g615
g74
sg218
g250
sVcom.youku.phone
p688
g101
sg224
g422
sg456
g310
sVcom.android.fileexplorer
p689
g353
sVcom.qzone
p690
g523
sVcom.tencent.qqmusic
p691
g144
sVcom.android.launcher
p692
g208
sg27
g271
sg515
g281
sg623
g223
ssg51
(dp693
g586
g455
sVcom.android.fileexplorer
p694
g364
sVcom.android.launcher
p695
g209
sVcom.android.camera
p696
g562
sVcom.miui.gallery
p697
g283
sVcom.tencent.mobileqq
p698
g434
ssg53
(dp699
Vcom.miui.gallery
p700
g292
sVcom.android.launcher
p701
g210
ssg55
(dp702
g418
g77
sg78
g359
sg80
g527
sg509
g149
sg84
g211
sVcom.happyelements.AndroidAnimal
p703
g402
sg92
g316
ssg57
(dp704
g544
g81
sg664
g109
sVcom.sina.weibo
p705
g231
sVcom.tencent.mm
p706
g320
sg551
g127
sg554
g360
sg406
g151
sg410
g212
sg43
g405
sVcom.tencent.mobileqq
p707
g428
ssg59
(dp708
g199
g334
sVcom.android.launcher
p709
g213
ssg61
(dp710
Vcom.android.browser
p711
g89
sg47
g441
sVcom.youku.phone
p712
g116
sg352
g469
sVcom.sina.weibo
p713
g240
sVcom.tencent.mm
p714
g328
sg314
g131
sg683
g366
sg638
g158
sg659
g177
sVcom.android.launcher
p715
g214
sg25
g264
sVcom.happyelements.AndroidAnimal
p716
g413
sg132
g298
sg94
g437
sssb.