ccopy_reg
_reconstructor
p1
(cnetworkx.classes.digraph
DiGraph
p2
c__builtin__
object
p3
NtRp4
(dp5
S'node'
p6
(dp7
Vcom.android.browser
p8
(dp9
S'weight'
p10
F3.2549389047967571e-05
ssVcom.sankuai.movie
p11
(dp12
g10
F0.00045941137684845653
ssVcom.htc.video
p13
(dp14
g10
F4.5569144667154595e-05
ssVcom.vlocker.locker
p15
(dp16
g10
F0.58390628007912293
ssVcom.nd.desktopcontacts
p17
(dp18
g10
F0.020993425953394856
ssVcom.android.deskclock
p19
(dp20
g10
F0.00034409354136422858
ssVcom.UCMobile
p21
(dp22
g10
F0.020259669725999244
ssVcom.sohu.inputmethod.sogou
p23
(dp24
g10
F6.0448865374796915e-05
ssVcom.smp.musicspeed
p25
(dp26
g10
F0.0096969279886616536
ssVcom.android.launcher
p27
(dp28
g10
F0.002676489762287162
ssVcom.sina.weibo
p29
(dp30
g10
F0.036312098421912624
ssVcom.eg.android.AlipayGphone
p31
(dp32
g10
F0.0018692649138975662
ssVcom.android.wifi
p33
(dp34
g10
F1.3949738163414674e-05
ssVcom.sogou.androidtool
p35
(dp36
g10
F0.00017948663103593544
ssVcom.qihoo360.ludashi.cooling
p37
(dp38
g10
F7.4398603538211583e-05
ssVcom.changba
p39
(dp40
g10
F0.0034753447677787087
ssVcom.android.packageinstaller
p41
(dp42
g10
F0.00042686198780048898
ssVcom.android.gallery3d
p43
(dp44
g10
F0.002893175695092203
ssVcom.jingdong.app.mall
p45
(dp46
g10
F0.0029815240367938294
ssVcom.taobao.taobao
p47
(dp48
g10
F0.0099182638341878317
ssVcom.android.phone
p49
(dp50
g10
F0.019804908261871923
ssVcom.htc.contacts
p51
(dp52
g10
F0.0011085391927193526
ssVcom.htc.htcpowermanager
p53
(dp54
g10
F0.00013298750382455322
ssVcom.android.settings
p55
(dp56
g10
F0.005529676207977576
ssVcom.android.flashlight
p57
(dp58
g10
F0.00018134659612439074
ssVcom.tudou.android
p59
(dp60
g10
F0.0016507190160040695
ssVcom.htc.calendar
p61
(dp62
g10
F0.00011810778311691089
ssVcom.tencent.mm
p63
(dp64
g10
F0.17399508411227121
ssVcom.dianping.v1
p65
(dp66
g10
F0.001062970048052198
ssVcom.android.soundrecorder
p67
(dp68
g10
F0.00045941137684845653
ssVcom.android.fileexplorer
p69
(dp70
g10
F0.00021296600262813066
ssVcom.sina.weibog3
p71
(dp72
g10
F0.027099691338793572
ssVcom.youku.smart.assistant
p73
(dp74
g10
F1.6739685796097608e-05
ssVcom.htc.music
p75
(dp76
g10
F0.00015995699760715492
ssVcom.tencent.mobileqq
p77
(dp78
g10
F0.011512253914994016
ssVcom.nd.android.pandahome2
p79
(dp80
g10
F0.039633066087349539
ssVcom.baidu.tieba
p81
(dp82
g10
F0.0020310818765931762
ssVfm.xiami.main
p83
(dp84
g10
F0.01299092616031597
ssVcom.autonavi.minimap
p85
(dp86
g10
F0.0011745679533595155
ssVcom.android.camera
p87
(dp88
g10
F0.0019743529413952898
ssVcom.mt.mtxx.mtxx
p89
(dp90
g10
F0.00088255343447203496
ssVcom.yy.yymeet
p91
(dp92
g10
F0.0015679505695678092
ssVcom.htc.backupreset
p93
(dp94
g10
F4.6499127211382239e-06
ssVcom.hunantv.imgo.activity
p95
(dp96
g10
F7.6258568626666871e-05
sssS'node_dict_factory'
p97
c__builtin__
dict
p98
sS'edge_attr_dict_factory'
p99
g98
sS'succ'
p100
(dp101
g8
(dp102
Vcom.tencent.mm
p103
(dp104
g10
F1.6000000000000001
ssVcom.nd.android.pandahome2
p105
(dp106
g10
F2.6000000000000001
ssVcom.UCMobile
p107
(dp108
g10
I1
sssg11
(dp109
Vcom.tencent.mm
p110
(dp111
g10
F4.9000000000000004
ssVcom.sina.weibo
p112
(dp113
g10
F0.40000000000000002
ssVcom.nd.android.pandahome2
p114
(dp115
g10
F3.7000000000000002
sssg13
(dp116
Vcom.android.camera
p117
(dp118
g10
I1
ssVcom.android.gallery3d
p119
(dp120
g10
F0.90000000000000002
sssg15
(dp121
Vcom.sankuai.movie
p122
(dp123
g10
F1.8
ssVcom.autonavi.minimap
p124
(dp125
g10
F1.3
ssVcom.nd.desktopcontacts
p126
(dp127
g10
F76.600000000000037
ssg19
(dp128
g10
F14.499999999999998
ssg21
(dp129
g10
F84.300000000000111
ssVcom.sohu.inputmethod.sogou
p130
(dp131
g10
I1
ssVcom.smp.musicspeed
p132
(dp133
g10
F25.799999999999994
ssg27
(dp134
g10
F17.700000000000003
ssVcom.sina.weibo
p135
(dp136
g10
F35.499999999999993
ssg31
(dp137
g10
F4.9000000000000004
ssg37
(dp138
g10
F1.7000000000000002
ssg39
(dp139
g10
F6.7000000000000002
ssg41
(dp140
g10
F1.9000000000000001
ssVcom.android.gallery3d
p141
(dp142
g10
F9.5999999999999996
ssg45
(dp143
g10
F1.7000000000000002
ssVcom.taobao.taobao
p144
(dp145
g10
F27.299999999999997
ssVcom.android.phone
p146
(dp147
g10
F21.999999999999996
ssg51
(dp148
g10
F14.200000000000001
ssVcom.htc.htcpowermanager
p149
(dp150
g10
F0.90000000000000002
ssVcom.htc.calendar
p151
(dp152
g10
F0.90000000000000002
ssVcom.tencent.mm
p153
(dp154
g10
F330.59999999999951
ssVcom.dianping.v1
p155
(dp156
g10
F4.2999999999999998
ssg67
(dp157
g10
F0.69999999999999996
ssVcom.android.fileexplorer
p158
(dp159
g10
F9.2000000000000011
ssVcom.tencent.mobileqq
p160
(dp161
g10
F107.90000000000011
ssVcom.sina.weibog3
p162
(dp163
g10
F23.999999999999993
ssVcom.htc.music
p164
(dp165
g10
F1.7999999999999998
ssg55
(dp166
g10
F53.099999999999966
ssVcom.nd.android.pandahome2
p167
(dp168
g10
F652.8999999999977
ssVcom.baidu.tieba
p169
(dp170
g10
F1.3999999999999999
ssVfm.xiami.main
p171
(dp172
g10
F14.700000000000003
ssVcom.android.camera
p173
(dp174
g10
F5.2000000000000002
ssVcom.mt.mtxx.mtxx
p175
(dp176
g10
F1.3
ssVcom.yy.yymeet
p177
(dp178
g10
F0.69999999999999996
sssg17
(dp179
Vcom.htc.contacts
p180
(dp181
g10
F4
ssVcom.changba
p182
(dp183
g10
I1
ssVcom.vlocker.locker
p184
(dp185
g10
F18.699999999999999
ssVcom.android.settings
p186
(dp187
g10
F11.800000000000001
ssVcom.sina.weibo
p188
(dp189
g10
F6.9000000000000004
ssVfm.xiami.main
p190
(dp191
g10
I3
ssVcom.nd.android.pandahome2
p192
(dp193
g10
F168.80000000000015
ssVcom.taobao.taobao
p194
(dp195
g10
F4.7999999999999998
ssVcom.dianping.v1
p196
(dp197
g10
F0.90000000000000002
ssVcom.sina.weibog3
p198
(dp199
g10
F3.5999999999999996
ssVcom.UCMobile
p200
(dp201
g10
F12.5
ssVcom.android.launcher
p202
(dp203
g10
F13.700000000000001
ssVcom.android.phone
p204
(dp205
g10
F61.100000000000009
ssVcom.android.gallery3d
p206
(dp207
g10
F1.3
ssVcom.yy.yymeet
p208
(dp209
g10
F1.8999999999999999
ssVcom.tencent.mm
p210
(dp211
g10
F66.099999999999994
ssVcom.eg.android.AlipayGphone
p212
(dp213
g10
F4.2999999999999998
ssVcom.tencent.mobileqq
p214
(dp215
g10
F7.8000000000000007
sssg19
(dp216
Vcom.sankuai.movie
p217
(dp218
g10
F0.90000000000000002
ssVcom.vlocker.locker
p219
(dp220
g10
I1
ssVcom.nd.android.pandahome2
p221
(dp222
g10
F19.499999999999996
ssVcom.UCMobile
p223
(dp224
g10
F2.2999999999999998
ssVcom.android.launcher
p225
(dp226
g10
F2.2999999999999998
ssVcom.android.settings
p227
(dp228
g10
F1.3999999999999999
ssVcom.tencent.mm
p229
(dp230
g10
F5.7000000000000011
sssg21
(dp231
Vcom.android.browser
p232
(dp233
g10
F0.90000000000000002
ssVcom.vlocker.locker
p234
(dp235
g10
F17.199999999999999
ssVcom.nd.desktopcontacts
p236
(dp237
g10
F6.1000000000000005
ssVcom.sina.weibog3
p238
(dp239
g10
F3.9999999999999996
ssg25
(dp240
g10
F3.7000000000000002
ssg27
(dp241
g10
F43.5
ssVcom.sina.weibo
p242
(dp243
g10
F6.0000000000000009
ssVcom.eg.android.AlipayGphone
p244
(dp245
g10
F2.6000000000000001
ssg37
(dp246
g10
F0.69999999999999996
ssVcom.changba
p247
(dp248
g10
F0.90000000000000002
ssVcom.android.packageinstaller
p249
(dp250
g10
F4.5
ssVcom.android.gallery3d
p251
(dp252
g10
F4.2999999999999998
ssVcom.jingdong.app.mall
p253
(dp254
g10
F0.90000000000000002
ssg47
(dp255
g10
F5.2000000000000002
ssg146
(dp256
g10
F2.7999999999999998
ssVcom.tencent.mobileqq
p257
(dp258
g10
F6.2000000000000002
ssVcom.android.settings
p259
(dp260
g10
F24.399999999999991
ssVcom.tudou.android
p261
(dp262
g10
F0.40000000000000002
ssg69
(dp263
g10
F5.2000000000000002
ssVcom.android.deskclock
p264
(dp265
g10
F2.2000000000000002
ssVcom.tencent.mm
p266
(dp267
g10
F47.69999999999996
ssVcom.nd.android.pandahome2
p268
(dp269
g10
F213.09999999999985
ssg81
(dp270
g10
F1.3
ssVfm.xiami.main
p271
(dp272
g10
F6.9000000000000012
ssVcom.yy.yymeet
p273
(dp274
g10
F0.40000000000000002
ssg95
(dp275
g10
F0.90000000000000002
sssg23
(dp276
g35
(dp277
g10
F1.3
ssg41
(dp278
g10
F1.7
ssVcom.nd.android.pandahome2
p279
(dp280
g10
F3
ssVcom.nd.desktopcontacts
p281
(dp282
g10
F0.90000000000000002
ssVcom.sina.weibog3
p283
(dp284
g10
I1
ssVcom.smp.musicspeed
p285
(dp286
g10
F1.7
ssVcom.android.launcher
p287
(dp288
g10
F0.90000000000000002
ssVcom.tencent.mm
p289
(dp290
g10
F3.4000000000000004
sssg25
(dp291
g35
(dp292
g10
F0.69999999999999996
ssg8
(dp293
g10
F0.69999999999999996
ssVcom.UCMobile
p294
(dp295
g10
F3.7000000000000002
ssg75
(dp296
g10
F12.000000000000004
ssVcom.vlocker.locker
p297
(dp298
g10
I47
ssg41
(dp299
g10
F2.2000000000000002
ssVcom.android.phone
p300
(dp301
g10
F0.69999999999999996
ssVcom.nd.android.pandahome2
p302
(dp303
g10
F21.599999999999998
ssVcom.nd.desktopcontacts
p304
(dp305
g10
F1.3999999999999999
ssg67
(dp306
g10
F1.3
ssg69
(dp307
g10
F28.499999999999989
ssg130
(dp308
g10
F0.90000000000000002
ssVcom.android.launcher
p309
(dp310
g10
F6.5
ssVfm.xiami.main
p311
(dp312
g10
F2.2000000000000002
ssVcom.mt.mtxx.mtxx
p313
(dp314
g10
I1
ssVcom.htc.contacts
p315
(dp316
g10
F1.7000000000000002
ssVcom.tencent.mm
p317
(dp318
g10
F8.2000000000000011
ssVcom.android.settings
p319
(dp320
g10
F3
sssg27
(dp321
Vcom.vlocker.locker
p322
(dp323
g10
I3
ssVcom.nd.desktopcontacts
p324
(dp325
g10
F13.400000000000002
ssg264
(dp326
g10
F2.7000000000000002
ssVcom.UCMobile
p327
(dp328
g10
F18.100000000000001
ssVcom.sohu.inputmethod.sogou
p329
(dp330
g10
F0.90000000000000002
ssVcom.smp.musicspeed
p331
(dp332
g10
F1.7
ssVcom.sina.weibo
p333
(dp334
g10
F10.800000000000001
ssVcom.eg.android.AlipayGphone
p335
(dp336
g10
F2.5999999999999996
ssVcom.qihoo360.ludashi.cooling
p337
(dp338
g10
F0.90000000000000002
ssg247
(dp339
g10
I1
ssVcom.android.packageinstaller
p340
(dp341
g10
F1.3999999999999999
ssVcom.android.gallery3d
p342
(dp343
g10
F5.3999999999999995
ssVcom.taobao.taobao
p344
(dp345
g10
F5.9000000000000004
ssVcom.android.phone
p346
(dp347
g10
F3.1999999999999997
ssg315
(dp348
g10
F1.7
ssg289
(dp349
g10
F27.79999999999999
ssVcom.android.fileexplorer
p350
(dp351
g10
F1.3
ssVcom.tencent.mobileqq
p352
(dp353
g10
F0.90000000000000002
ssVcom.sina.weibog3
p354
(dp355
g10
F4.7000000000000002
ssVcom.htc.music
p356
(dp357
g10
F0.69999999999999996
ssVcom.android.settings
p358
(dp359
g10
F5.1000000000000005
ssVcom.nd.android.pandahome2
p360
(dp361
g10
F90.600000000000136
ssVcom.baidu.tieba
p362
(dp363
g10
F0.69999999999999996
ssVfm.xiami.main
p364
(dp365
g10
F1.7
ssVcom.android.camera
p366
(dp367
g10
F4.4000000000000004
sssg29
(dp368
Vcom.android.deskclock
p369
(dp370
g10
F3.1999999999999997
ssVcom.android.gallery3d
p371
(dp372
g10
F0.69999999999999996
ssVcom.android.fileexplorer
p373
(dp374
g10
F0.40000000000000002
ssVfm.xiami.main
p375
(dp376
g10
F0.40000000000000002
ssVcom.vlocker.locker
p377
(dp378
g10
F40.699999999999996
ssVcom.android.packageinstaller
p379
(dp380
g10
F1.3
ssVcom.android.phone
p381
(dp382
g10
F8
ssVcom.nd.android.pandahome2
p383
(dp384
g10
F115.20000000000007
ssVcom.jingdong.app.mall
p385
(dp386
g10
F0.40000000000000002
ssVcom.nd.desktopcontacts
p387
(dp388
g10
F13.300000000000002
ssg155
(dp389
g10
F2.2000000000000002
ssVcom.sina.weibog3
p390
(dp391
g10
F1.7000000000000002
ssVcom.UCMobile
p392
(dp393
g10
F12.200000000000001
ssg362
(dp394
g10
F0.40000000000000002
ssVcom.android.launcher
p395
(dp396
g10
F17.800000000000001
ssVcom.android.settings
p397
(dp398
g10
F4.3000000000000007
ssg124
(dp399
g10
F0.69999999999999996
ssVcom.tencent.mm
p400
(dp401
g10
F81.100000000000065
ssVcom.eg.android.AlipayGphone
p402
(dp403
g10
F0.90000000000000002
ssVcom.tencent.mobileqq
p404
(dp405
g10
F1.8
sssg31
(dp406
Vcom.tencent.mobileqq
p407
(dp408
g10
F6.6000000000000005
ssVcom.sina.weibo
p409
(dp410
g10
F0.90000000000000002
ssVcom.android.phone
p411
(dp412
g10
F0.90000000000000002
ssVcom.nd.android.pandahome2
p413
(dp414
g10
F24.499999999999996
ssVcom.nd.desktopcontacts
p415
(dp416
g10
F4.5999999999999996
ssVcom.sina.weibog3
p417
(dp418
g10
F0.90000000000000002
ssVcom.UCMobile
p419
(dp420
g10
F1.1000000000000001
ssVcom.android.launcher
p421
(dp422
g10
F1.3
ssVcom.android.settings
p423
(dp424
g10
F0.90000000000000002
ssVcom.autonavi.minimap
p425
(dp426
g10
I1
ssVcom.tencent.mm
p427
(dp428
g10
F6.2000000000000011
sssg33
(dp429
Vcom.android.settings
p430
(dp431
g10
I1
ssVcom.tencent.mm
p432
(dp433
g10
F0.69999999999999996
ssVcom.nd.android.pandahome2
p434
(dp435
g10
F0.90000000000000002
sssg35
(dp436
Vcom.nd.android.pandahome2
p437
(dp438
g10
F0.90000000000000002
ssVcom.android.packageinstaller
p439
(dp440
g10
F2.3999999999999999
ssVcom.sohu.inputmethod.sogou
p441
(dp442
g10
F0.90000000000000002
ssVcom.smp.musicspeed
p443
(dp444
g10
I1
ssg8
(dp445
g10
F0.40000000000000002
sssg37
(dp446
Vcom.UCMobile
p447
(dp448
g10
F1.3
ssVcom.nd.android.pandahome2
p449
(dp450
g10
F2.7000000000000002
ssVcom.android.launcher
p451
(dp452
g10
F0.90000000000000002
sssg39
(dp453
Vfm.xiami.main
p454
(dp455
g10
F0.90000000000000002
ssVcom.tencent.mm
p456
(dp457
g10
F2.6000000000000001
ssVcom.android.phone
p458
(dp459
g10
F0.90000000000000002
ssVcom.nd.android.pandahome2
p460
(dp461
g10
F12.100000000000001
ssVcom.android.fileexplorer
p462
(dp463
g10
F0.69999999999999996
ssVcom.smp.musicspeed
p464
(dp465
g10
F0.90000000000000002
ssVcom.android.launcher
p466
(dp467
g10
F1.7
ssVcom.vlocker.locker
p468
(dp469
g10
I4
ssVcom.sina.weibo
p470
(dp471
g10
F1.7
ssVcom.tencent.mobileqq
p472
(dp473
g10
F0.90000000000000002
sssg41
(dp474
g35
(dp475
g10
F2.7000000000000002
ssg8
(dp476
g10
I1
ssVcom.vlocker.locker
p477
(dp478
g10
I1
ssg437
(dp479
g10
F9.4000000000000021
ssVcom.UCMobile
p480
(dp481
g10
F2.2999999999999998
ssg441
(dp482
g10
F1.7
ssg443
(dp483
g10
F1.3
ssVcom.android.launcher
p484
(dp485
g10
F1.7
ssg81
(dp486
g10
F1.7
ssg103
(dp487
g10
F2.6999999999999997
sssg43
(dp488
g232
(dp489
g10
F0.40000000000000002
ssVcom.vlocker.locker
p490
(dp491
g10
I4
ssVcom.htc.video
p492
(dp493
g10
I1
ssVcom.tencent.mobileqq
p494
(dp495
g10
F1.3999999999999999
ssVcom.nd.android.pandahome2
p496
(dp497
g10
F29.899999999999995
ssVcom.taobao.taobao
p498
(dp499
g10
F0.90000000000000002
ssVcom.UCMobile
p500
(dp501
g10
F2.7999999999999998
ssVcom.android.launcher
p502
(dp503
g10
F1.3999999999999999
ssVcom.android.settings
p504
(dp505
g10
F2.7000000000000002
ssVcom.android.camera
p506
(dp507
g10
F16.800000000000001
ssg175
(dp508
g10
F0.90000000000000002
ssVcom.tencent.mm
p509
(dp510
g10
F6.8000000000000007
sssg45
(dp511
Vcom.UCMobile
p512
(dp513
g10
F0.90000000000000002
ssVcom.baidu.tieba
p514
(dp515
g10
F0.90000000000000002
ssVcom.tencent.mm
p516
(dp517
g10
I1
ssVcom.nd.android.pandahome2
p518
(dp519
g10
F4.9000000000000004
ssVcom.android.launcher
p520
(dp521
g10
F0.69999999999999996
sssg47
(dp522
g11
(dp523
g10
F1.3
ssVcom.vlocker.locker
p524
(dp525
g10
F10.699999999999999
ssg411
(dp526
g10
F0.40000000000000002
ssVcom.nd.android.pandahome2
p527
(dp528
g10
F47.600000000000009
ssVcom.jingdong.app.mall
p529
(dp530
g10
F0.90000000000000002
ssg236
(dp531
g10
F7.8000000000000016
ssVcom.UCMobile
p532
(dp533
g10
F4.1999999999999993
ssg514
(dp534
g10
F0.40000000000000002
ssVcom.android.launcher
p535
(dp536
g10
F6.4000000000000004
ssVcom.android.settings
p537
(dp538
g10
F1.7000000000000002
ssVcom.tencent.mm
p539
(dp540
g10
F8.9000000000000004
ssg335
(dp541
g10
F3.7999999999999998
ssVcom.tencent.mobileqq
p542
(dp543
g10
F0.90000000000000002
sssg49
(dp544
Vcom.android.gallery3d
p545
(dp546
g10
F4.5999999999999996
ssVcom.smp.musicspeed
p547
(dp548
g10
F0.69999999999999996
ssVcom.UCMobile
p549
(dp550
g10
F1.8999999999999999
ssVcom.tudou.android
p551
(dp552
g10
I1
ssVcom.android.settings
p553
(dp554
g10
F3.9999999999999996
ssVcom.sina.weibo
p555
(dp556
g10
F10.199999999999999
ssVfm.xiami.main
p557
(dp558
g10
I1
ssVcom.nd.android.pandahome2
p559
(dp560
g10
F83.600000000000009
ssVcom.htc.contacts
p561
(dp562
g10
F32.299999999999997
ssVcom.nd.desktopcontacts
p563
(dp564
g10
F74.700000000000045
ssVcom.dianping.v1
p565
(dp566
g10
F1.7
ssVcom.sina.weibog3
p567
(dp568
g10
F1.7
ssVcom.android.fileexplorer
p569
(dp570
g10
F0.40000000000000002
ssVcom.taobao.taobao
p571
(dp572
g10
F0.69999999999999996
ssVcom.android.launcher
p573
(dp574
g10
F5.1000000000000005
ssVcom.vlocker.locker
p575
(dp576
g10
F4.0999999999999996
ssg87
(dp577
g10
F3
ssVcom.yy.yymeet
p578
(dp579
g10
I2
ssVcom.tencent.mm
p580
(dp581
g10
F30.399999999999988
ssg212
(dp582
g10
F1.8999999999999999
ssVcom.tencent.mobileqq
p583
(dp584
g10
F3.2999999999999998
sssg51
(dp585
Vcom.htc.music
p586
(dp587
g10
F0.40000000000000002
ssVcom.vlocker.locker
p588
(dp589
g10
I4
ssVcom.nd.android.pandahome2
p590
(dp591
g10
F23.999999999999993
ssVcom.nd.desktopcontacts
p592
(dp593
g10
F2.6000000000000001
ssg569
(dp594
g10
F0.69999999999999996
ssg547
(dp595
g10
F1.3
ssVcom.android.phone
p596
(dp597
g10
F36.299999999999997
ssVcom.tencent.mm
p598
(dp599
g10
F4.2999999999999998
ssVcom.tencent.mobileqq
p600
(dp601
g10
F0.90000000000000002
sssg53
(dp602
Vcom.android.settings
p603
(dp604
g10
F1.7
ssVcom.nd.android.pandahome2
p605
(dp606
g10
F2.7000000000000002
ssVcom.eg.android.AlipayGphone
p607
(dp608
g10
F0.40000000000000002
ssVcom.UCMobile
p609
(dp610
g10
F0.90000000000000002
sssg55
(dp611
Vcom.android.gallery3d
p612
(dp613
g10
F4.3999999999999995
ssg95
(dp614
g10
F0.40000000000000002
ssg33
(dp615
g10
I1
ssVcom.vlocker.locker
p616
(dp617
g10
F2.3999999999999999
ssVcom.htc.htcpowermanager
p618
(dp619
g10
I1
ssVcom.sina.weibo
p620
(dp621
g10
F3.6999999999999997
ssVfm.xiami.main
p622
(dp623
g10
F2.1000000000000001
ssVcom.nd.android.pandahome2
p624
(dp625
g10
F109.50000000000018
ssg47
(dp626
g10
F1.8
ssg71
(dp627
g10
F1.1000000000000001
ssg200
(dp628
g10
F72.600000000000023
ssVcom.android.camera
p629
(dp630
g10
F0.90000000000000002
ssVcom.smp.musicspeed
p631
(dp632
g10
F1.8999999999999999
ssg17
(dp633
g10
F8.6000000000000014
ssVcom.android.launcher
p634
(dp635
g10
F17.100000000000001
ssVcom.android.phone
p636
(dp637
g10
F4.2000000000000002
ssVcom.tudou.android
p638
(dp639
g10
F1.3999999999999999
ssg93
(dp640
g10
F3
ssVcom.tencent.mm
p641
(dp642
g10
F32.899999999999991
ssVcom.tencent.mobileqq
p643
(dp644
g10
F2.0999999999999996
sssg57
(dp645
Vcom.vlocker.locker
p646
(dp647
g10
I1
sssg59
(dp648
Vcom.sina.weibo
p649
(dp650
g10
F0.40000000000000002
ssVcom.android.phone
p651
(dp652
g10
F0.90000000000000002
ssVcom.nd.android.pandahome2
p653
(dp654
g10
F8.5
ssVcom.UCMobile
p655
(dp656
g10
F1.8
ssVcom.android.launcher
p657
(dp658
g10
I1
ssVcom.android.settings
p659
(dp660
g10
F1.3
ssVcom.tencent.mm
p661
(dp662
g10
F1.8999999999999999
sssg61
(dp663
Vcom.nd.android.pandahome2
p664
(dp665
g10
I2
sssg63
(dp666
g11
(dp667
g10
F3.7999999999999998
ssg15
(dp668
g10
F309.69999999999993
ssg17
(dp669
g10
F76.099999999999994
ssg19
(dp670
g10
F6.6000000000000014
ssg21
(dp671
g10
F83.600000000000094
ssg23
(dp672
g10
F3
ssVcom.smp.musicspeed
p673
(dp674
g10
F10.300000000000001
ssg27
(dp675
g10
F34.79999999999999
ssg29
(dp676
g10
F107.50000000000011
ssg31
(dp677
g10
F8.7000000000000011
ssg33
(dp678
g10
F1.6000000000000001
ssg37
(dp679
g10
F0.90000000000000002
ssVcom.changba
p680
(dp681
g10
F1.8
ssg249
(dp682
g10
F2.8999999999999999
ssVcom.android.gallery3d
p683
(dp684
g10
F3.6000000000000001
ssVcom.taobao.taobao
p685
(dp686
g10
F18.5
ssVcom.android.phone
p687
(dp688
g10
F30.699999999999989
ssg51
(dp689
g10
F16.700000000000003
ssg53
(dp690
g10
F3
ssVcom.tudou.android
p691
(dp692
g10
F1.8999999999999999
ssg151
(dp693
g10
F0.69999999999999996
ssg196
(dp694
g10
F2.2999999999999998
ssg350
(dp695
g10
F5.2000000000000002
ssg160
(dp696
g10
F64.300000000000011
ssg71
(dp697
g10
F158.70000000000007
ssg73
(dp698
g10
F1.3
ssg75
(dp699
g10
F0.80000000000000004
ssg55
(dp700
g10
F48.599999999999987
ssg167
(dp701
g10
F661.49999999999852
ssg362
(dp702
g10
F1.8999999999999999
ssg171
(dp703
g10
F14.5
ssg85
(dp704
g10
F4.5999999999999996
ssVcom.android.camera
p705
(dp706
g10
F1.7000000000000002
ssVcom.mt.mtxx.mtxx
p707
(dp708
g10
F0.90000000000000002
ssg177
(dp709
g10
F3.2999999999999998
ssVcom.htc.backupreset
p710
(dp711
g10
I1
sssg65
(dp712
g124
(dp713
g10
I1
ssVcom.sina.weibo
p714
(dp715
g10
F0.90000000000000002
ssVcom.android.phone
p716
(dp717
g10
F0.90000000000000002
ssVcom.nd.android.pandahome2
p718
(dp719
g10
F10.800000000000001
ssVcom.taobao.taobao
p720
(dp721
g10
F0.69999999999999996
ssVcom.sina.weibog3
p722
(dp723
g10
I1
ssVcom.vlocker.locker
p724
(dp725
g10
I2
ssVcom.tencent.mm
p726
(dp727
g10
F3.2000000000000002
sssg67
(dp728
sg69
(dp729
g75
(dp730
g10
F13.600000000000001
ssVcom.nd.android.pandahome2
p731
(dp732
g10
F3.5999999999999996
ssg304
(dp733
g10
F0.69999999999999996
ssVcom.UCMobile
p734
(dp735
g10
F3.7000000000000002
ssVcom.smp.musicspeed
p736
(dp737
g10
F10.600000000000001
ssVcom.tencent.mm
p738
(dp739
g10
F1.1000000000000001
sssg71
(dp740
Vcom.sina.weibo
p741
(dp742
g10
F0.90000000000000002
ssg720
(dp743
g10
F1.3
ssVcom.vlocker.locker
p744
(dp745
g10
F26.699999999999999
ssVcom.android.packageinstaller
p746
(dp747
g10
F0.69999999999999996
ssVcom.android.phone
p748
(dp749
g10
I1
ssVcom.nd.android.pandahome2
p750
(dp751
g10
F80.100000000000051
ssg17
(dp752
g10
F1.8999999999999999
ssg65
(dp753
g10
I1
ssVcom.android.deskclock
p754
(dp755
g10
F0.90000000000000002
ssVcom.UCMobile
p756
(dp757
g10
F12.799999999999999
ssg23
(dp758
g10
F1.3
ssg331
(dp759
g10
F0.40000000000000002
ssg287
(dp760
g10
F8.0999999999999996
ssVfm.xiami.main
p761
(dp762
g10
F1.8
ssg85
(dp763
g10
F0.69999999999999996
ssVcom.tencent.mobileqq
p764
(dp765
g10
F2.8999999999999999
ssVcom.yy.yymeet
p766
(dp767
g10
F1.3
ssg266
(dp768
g10
F166.60000000000002
ssVcom.eg.android.AlipayGphone
p769
(dp770
g10
F0.40000000000000002
ssVcom.android.settings
p771
(dp772
g10
F3.1999999999999997
sssg73
(dp773
Vcom.nd.android.pandahome2
p774
(dp775
g10
F3.4000000000000004
ssVcom.android.launcher
p776
(dp777
g10
F1.7000000000000002
sssg75
(dp778
g738
(dp779
g10
F1.6000000000000001
ssVcom.nd.android.pandahome2
p780
(dp781
g10
F2.5
ssVcom.smp.musicspeed
p782
(dp783
g10
F10.300000000000002
ssg304
(dp784
g10
F0.90000000000000002
ssVcom.android.fileexplorer
p785
(dp786
g10
F4
sssg77
(dp787
Vcom.vlocker.locker
p788
(dp789
g10
F86.400000000000048
ssVcom.nd.desktopcontacts
p790
(dp791
g10
F8.4000000000000021
ssVcom.sina.weibog3
p792
(dp793
g10
F0.69999999999999996
ssVcom.UCMobile
p794
(dp795
g10
F3.6000000000000001
ssVcom.sohu.inputmethod.sogou
p796
(dp797
g10
F0.40000000000000002
ssVcom.smp.musicspeed
p798
(dp799
g10
F0.90000000000000002
ssVcom.android.launcher
p800
(dp801
g10
I2
ssVcom.sina.weibo
p802
(dp803
g10
F2.7000000000000002
ssVcom.eg.android.AlipayGphone
p804
(dp805
g10
F1.6000000000000001
ssVcom.changba
p806
(dp807
g10
F2.2999999999999998
ssg612
(dp808
g10
F1.7000000000000002
ssg385
(dp809
g10
F0.90000000000000002
ssVcom.taobao.taobao
p810
(dp811
g10
F2.2999999999999998
ssVcom.android.phone
p812
(dp813
g10
F1.6000000000000001
ssVcom.tencent.mm
p814
(dp815
g10
F54.200000000000003
ssVcom.android.fileexplorer
p816
(dp817
g10
F0.69999999999999996
ssg356
(dp818
g10
F0.40000000000000002
ssVcom.android.settings
p819
(dp820
g10
F8.5
ssg79
(dp821
g10
F85.000000000000071
ssg169
(dp822
g10
F0.90000000000000002
ssVcom.yy.yymeet
p823
(dp824
g10
F0.40000000000000002
ssg710
(dp825
g10
F0.90000000000000002
sssg79
(dp826
g8
(dp827
g10
F2.6000000000000001
ssVcom.sankuai.movie
p828
(dp829
g10
F7
ssVcom.vlocker.locker
p830
(dp831
g10
F307.49999999999983
ssg17
(dp832
g10
F163.40000000000018
ssg19
(dp833
g10
F23.499999999999996
ssg21
(dp834
g10
F206.79999999999998
ssg23
(dp835
g10
F4.7999999999999998
ssg25
(dp836
g10
F15.1
ssg27
(dp837
g10
F106.70000000000023
ssg135
(dp838
g10
F57.900000000000013
ssg31
(dp839
g10
F20.999999999999993
ssg35
(dp840
g10
F0.90000000000000002
ssg37
(dp841
g10
F4.7000000000000002
ssVcom.changba
p842
(dp843
g10
F4.2999999999999998
ssg41
(dp844
g10
F12.199999999999999
ssg683
(dp845
g10
F24.899999999999999
ssg45
(dp846
g10
F7.1000000000000005
ssg47
(dp847
g10
F34.399999999999984
ssg204
(dp848
g10
F89.500000000000071
ssg51
(dp849
g10
F34.5
ssg53
(dp850
g10
F3.4000000000000004
ssg151
(dp851
g10
I1
ssg551
(dp852
g10
F5.5999999999999996
ssVcom.tencent.mm
p853
(dp854
g10
F477.19999999999789
ssg155
(dp855
g10
F10.100000000000001
ssg67
(dp856
g10
I1
ssg69
(dp857
g10
F10.700000000000003
ssg257
(dp858
g10
F86.300000000000068
ssg71
(dp859
g10
F49.20000000000001
ssg73
(dp860
g10
F2.7000000000000002
ssg75
(dp861
g10
F3.5
ssg55
(dp862
g10
F115.80000000000014
ssg169
(dp863
g10
F5.7000000000000011
ssg761
(dp864
g10
F24.799999999999997
ssg85
(dp865
g10
F6.9000000000000004
ssg87
(dp866
g10
F8.8000000000000007
ssg707
(dp867
g10
F4.4000000000000004
ssg91
(dp868
g10
F10.799999999999999
ssg95
(dp869
g10
F1.7
sssg81
(dp870
Vcom.tencent.mm
p871
(dp872
g10
F1.3
ssVcom.nd.android.pandahome2
p873
(dp874
g10
F5.0999999999999996
ssVcom.UCMobile
p875
(dp876
g10
I1
ssVcom.android.launcher
p877
(dp878
g10
F1.7
ssVcom.vlocker.locker
p879
(dp880
g10
I1
ssg333
(dp881
g10
F0.90000000000000002
sssg83
(dp882
Vcom.android.deskclock
p883
(dp884
g10
F0.40000000000000002
ssVcom.android.gallery3d
p885
(dp886
g10
F0.90000000000000002
ssVcom.vlocker.locker
p887
(dp888
g10
F16.800000000000001
ssVcom.nd.android.pandahome2
p889
(dp890
g10
F47.800000000000004
ssVcom.nd.desktopcontacts
p891
(dp892
g10
F4.7999999999999998
ssVcom.dianping.v1
p893
(dp894
g10
F0.69999999999999996
ssVcom.sina.weibog3
p895
(dp896
g10
I1
ssVcom.UCMobile
p897
(dp898
g10
F8.2000000000000011
ssVcom.android.launcher
p899
(dp900
g10
F4.2999999999999998
ssVcom.android.settings
p901
(dp902
g10
F6.6000000000000005
ssVcom.tencent.mm
p903
(dp904
g10
F9.5999999999999996
sssg85
(dp905
Vcom.tencent.mm
p906
(dp907
g10
F5.2999999999999998
ssVcom.nd.android.pandahome2
p908
(dp909
g10
F5
ssVcom.eg.android.AlipayGphone
p910
(dp911
g10
I1
sssg87
(dp912
g545
(dp913
g10
F22.599999999999998
ssVcom.vlocker.locker
p914
(dp915
g10
F1.8999999999999999
ssg509
(dp916
g10
F4.9000000000000004
ssVcom.nd.android.pandahome2
p917
(dp918
g10
F20.899999999999999
ssVcom.nd.desktopcontacts
p919
(dp920
g10
F0.40000000000000002
ssg13
(dp921
g10
F1.8999999999999999
ssVcom.android.launcher
p922
(dp923
g10
F3.8999999999999999
ssVcom.android.settings
p924
(dp925
g10
F1.1000000000000001
ssVcom.tencent.mobileqq
p926
(dp927
g10
F5.2000000000000002
sssg89
(dp928
Vcom.tencent.mm
p929
(dp930
g10
F5.9000000000000004
ssVcom.nd.android.pandahome2
p931
(dp932
g10
I8
ssVcom.tencent.mobileqq
p933
(dp934
g10
F0.69999999999999996
sssg91
(dp935
g771
(dp936
g10
I1
ssVcom.nd.android.pandahome2
p937
(dp938
g10
F7
ssVcom.nd.desktopcontacts
p939
(dp940
g10
F3.8999999999999995
ssVcom.android.phone
p941
(dp942
g10
F3.7000000000000002
sssg93
(dp943
Vcom.android.settings
p944
(dp945
g10
I1
ssVcom.tencent.mm
p946
(dp947
g10
F0.69999999999999996
ssVcom.nd.android.pandahome2
p948
(dp949
g10
F1.3
sssg95
(dp950
g261
(dp951
g10
F0.90000000000000002
ssg659
(dp952
g10
F0.40000000000000002
ssVcom.nd.android.pandahome2
p953
(dp954
g10
F1.7
ssssS'edge'
p955
g101
sS'graph'
p956
(dp957
sS'adjlist_dict_factory'
p958
g98
sS'adj'
p959
g101
sS'pred'
p960
(dp961
g8
(dp962
Vcom.sogou.androidtool
p963
g445
sg437
g827
sVcom.android.packageinstaller
p964
g476
sVcom.android.gallery3d
p965
g489
sVcom.UCMobile
p966
g233
sg443
g293
ssg11
(dp967
Vcom.android.deskclock
p968
g218
sg114
g829
sVcom.tencent.mm
p969
g667
sVcom.taobao.taobao
p970
g523
sVcom.vlocker.locker
p971
g123
ssg13
(dp972
Vcom.android.camera
p973
g921
sVcom.android.gallery3d
p974
g493
ssg15
(dp975
Vcom.nd.desktopcontacts
p976
g185
sVcom.android.deskclock
p977
g220
sVcom.UCMobile
p978
g235
sVcom.smp.musicspeed
p979
g298
sVcom.android.launcher
p980
g323
sVcom.sina.weibo
p981
g378
sVcom.changba
p982
g469
sVcom.android.packageinstaller
p983
g478
sVcom.android.gallery3d
p984
g491
sVcom.taobao.taobao
p985
g525
sVcom.android.phone
p986
g576
sVcom.htc.contacts
p987
g589
sVcom.tencent.mobileqq
p988
g789
sg57
g647
sg63
g668
sVcom.dianping.v1
p989
g725
sVcom.sina.weibog3
p990
g745
sVcom.android.settings
p991
g617
sVcom.nd.android.pandahome2
p992
g831
sVcom.baidu.tieba
p993
g880
sg83
g888
sVcom.android.camera
p994
g915
ssg17
(dp995
g180
g593
sVcom.android.fileexplorer
p996
g733
sVfm.xiami.main
p997
g892
sg55
g633
sVcom.sina.weibo
p998
g388
sg49
g564
sg624
g832
sg47
g531
sg71
g752
sg200
g237
sVcom.android.camera
p999
g920
sg796
g282
sVcom.smp.musicspeed
p1000
g305
sg573
g325
sVcom.vlocker.locker
p1001
g127
sg164
g784
sg91
g940
sg641
g669
sg402
g416
sg583
g791
ssg19
(dp1002
Vcom.vlocker.locker
p1003
g128
sVcom.tencent.mm
p1004
g670
sVcom.nd.android.pandahome2
p1005
g833
sVcom.sina.weibog3
p1006
g755
sg223
g265
sg225
g326
sVfm.xiami.main
p1007
g884
sVcom.sina.weibo
p1008
g370
ssg21
(dp1009
g232
g108
sg15
g129
sg126
g201
sVcom.android.deskclock
p1010
g224
sVcom.smp.musicspeed
p1011
g295
sVcom.android.launcher
p1012
g328
sVcom.sina.weibo
p1013
g393
sVcom.eg.android.AlipayGphone
p1014
g420
sVcom.qihoo360.ludashi.cooling
p1015
g448
sg249
g481
sg251
g501
sg45
g513
sVcom.taobao.taobao
p1016
g533
sVcom.android.phone
p1017
g550
sg149
g610
sg638
g656
sg63
g671
sVcom.android.fileexplorer
p1018
g735
sg257
g795
sg990
g757
sg186
g628
sg167
g834
sg81
g876
sg171
g898
ssg23
(dp1019
g35
g442
sVcom.vlocker.locker
p1020
g131
sg41
g482
sVcom.nd.android.pandahome2
p1021
g835
sVcom.sina.weibog3
p1022
g758
sVcom.smp.musicspeed
p1023
g308
sVcom.android.launcher
p1024
g330
sVcom.tencent.mm
p1025
g672
sVcom.tencent.mobileqq
p1026
g797
ssg25
(dp1027
g963
g444
sg39
g465
sg158
g737
sg75
g783
sg297
g133
sg439
g483
sg319
g632
sVcom.nd.android.pandahome2
p1028
g836
sVcom.sina.weibog3
p1029
g759
sVcom.UCMobile
p1030
g240
sg130
g286
sVcom.android.launcher
p1031
g332
sg300
g548
sg315
g595
sVcom.tencent.mm
p1032
g674
sVcom.tencent.mobileqq
p1033
g799
ssg27
(dp1034
g15
g134
sVcom.nd.desktopcontacts
p1035
g203
sg1010
g226
sg21
g241
sg23
g288
sVcom.smp.musicspeed
p1036
g310
sg333
g396
sg335
g422
sVcom.qihoo360.ludashi.cooling
p1037
g452
sg680
g467
sg379
g485
sg251
g503
sg45
g521
sVcom.taobao.taobao
p1038
g536
sVcom.android.phone
p1039
g574
sVcom.tencent.mobileqq
p1040
g801
sVcom.tudou.android
p1041
g658
sg153
g675
sVcom.sina.weibog3
p1042
g760
sg73
g777
sVcom.android.settings
p1043
g635
sg167
g837
sVcom.baidu.tieba
p1044
g878
sVfm.xiami.main
p1045
g900
sVcom.android.camera
p1046
g923
ssg29
(dp1047
g217
g113
sVcom.changba
p1048
g471
sg638
g650
sVcom.vlocker.locker
p1049
g136
sVcom.nd.android.pandahome2
p1050
g838
sg387
g189
sg565
g715
sVcom.sina.weibog3
p1051
g742
sVcom.UCMobile
p1052
g243
sg1044
g881
sg877
g334
sVcom.android.phone
p1053
g556
sVcom.tencent.mobileqq
p1054
g803
sVcom.tencent.mm
p1055
g676
sVcom.eg.android.AlipayGphone
p1056
g410
sg397
g621
ssg31
(dp1057
Vcom.vlocker.locker
p1058
g137
sVcom.sina.weibo
p1059
g403
sg149
g608
sVcom.nd.android.pandahome2
p1060
g839
sVcom.taobao.taobao
p1061
g541
sg722
g770
sVcom.UCMobile
p1062
g245
sVcom.nd.desktopcontacts
p1063
g213
sVcom.android.launcher
p1064
g336
sg812
g582
sg425
g911
sVcom.tencent.mm
p1065
g677
sVcom.tencent.mobileqq
p1066
g805
ssg33
(dp1067
Vcom.android.settings
p1068
g615
sVcom.tencent.mm
p1069
g678
ssg35
(dp1070
Vcom.nd.android.pandahome2
p1071
g840
sg41
g475
sg130
g277
sg285
g292
ssg37
(dp1072
Vcom.vlocker.locker
p1073
g138
sVcom.tencent.mm
p1074
g679
sVcom.nd.android.pandahome2
p1075
g841
sVcom.android.launcher
p1076
g338
sVcom.UCMobile
p1077
g246
ssg39
(dp1078
Vcom.vlocker.locker
p1079
g139
sVcom.nd.android.pandahome2
p1080
g843
sVcom.nd.desktopcontacts
p1081
g183
sVcom.UCMobile
p1082
g248
sVcom.android.launcher
p1083
g339
sVcom.tencent.mm
p1084
g681
sVcom.tencent.mobileqq
p1085
g807
ssg41
(dp1086
g35
g440
sg1020
g140
sVcom.sina.weibo
p1087
g380
sg1071
g844
sVcom.sina.weibog3
p1088
g747
sVcom.UCMobile
p1089
g250
sg130
g278
sg285
g299
sg484
g341
sVcom.tencent.mm
p1090
g682
ssg43
(dp1091
g13
g120
sVcom.vlocker.locker
p1092
g142
sVcom.sina.weibo
p1093
g372
sg504
g613
sVcom.nd.android.pandahome2
p1094
g845
sVcom.nd.desktopcontacts
p1095
g207
sVcom.UCMobile
p1096
g252
sg922
g343
sVcom.android.phone
p1097
g546
sVfm.xiami.main
p1098
g886
sg87
g913
sVcom.tencent.mm
p1099
g684
sVcom.tencent.mobileqq
p1100
g808
ssg45
(dp1101
Vcom.vlocker.locker
p1102
g143
sVcom.nd.android.pandahome2
p1103
g846
sVcom.taobao.taobao
p1104
g530
sVcom.UCMobile
p1105
g254
sVcom.sina.weibo
p1106
g386
sg404
g809
ssg47
(dp1107
g251
g499
sVcom.vlocker.locker
p1108
g145
sVcom.android.phone
p1109
g572
sg192
g847
sVcom.nd.desktopcontacts
p1110
g195
sg65
g721
sVcom.sina.weibog3
p1111
g743
sg200
g255
sg535
g345
sg186
g626
sVcom.tencent.mm
p1112
g686
sVcom.tencent.mobileqq
p1113
g811
ssg49
(dp1114
Vcom.htc.contacts
p1115
g597
sVcom.smp.musicspeed
p1116
g301
sVcom.changba
p1117
g459
sg59
g652
sg234
g147
sVcom.sina.weibo
p1118
g382
sVcom.nd.android.pandahome2
p1119
g848
sVcom.nd.desktopcontacts
p1120
g205
sVcom.dianping.v1
p1121
g717
sVcom.sina.weibog3
p1122
g749
sVcom.UCMobile
p1123
g256
sVcom.taobao.taobao
p1124
g526
sVcom.android.launcher
p1125
g347
sg771
g637
sg177
g942
sVcom.tencent.mm
p1126
g688
sVcom.eg.android.AlipayGphone
p1127
g412
sVcom.tencent.mobileqq
p1128
g813
ssg51
(dp1129
Vcom.vlocker.locker
p1130
g148
sVcom.nd.android.pandahome2
p1131
g849
sVcom.nd.desktopcontacts
p1132
g181
sVcom.smp.musicspeed
p1133
g316
sVcom.android.launcher
p1134
g348
sg596
g562
sVcom.tencent.mm
p1135
g689
ssg53
(dp1136
Vcom.vlocker.locker
p1137
g150
sVcom.nd.android.pandahome2
p1138
g850
sVcom.tencent.mm
p1139
g690
sg603
g619
ssg55
(dp1140
g33
g431
sg830
g166
sg126
g187
sg883
g228
sVcom.UCMobile
p1141
g260
sg95
g952
sVcom.android.launcher
p1142
g359
sVcom.sina.weibo
p1143
g398
sVcom.eg.android.AlipayGphone
p1144
g424
sVcom.android.gallery3d
p1145
g505
sg1016
g538
sg146
g554
sg53
g604
sg261
g660
sVcom.tencent.mobileqq
p1146
g820
sVcom.sina.weibog3
p1147
g772
sg853
g700
sg992
g862
sVfm.xiami.main
p1148
g902
sg506
g925
sg766
g936
sg710
g945
sVcom.smp.musicspeed
p1149
g320
ssg57
(dp1150
sg59
(dp1151
g659
g639
sg653
g852
sVcom.UCMobile
p1152
g262
sg95
g951
sg651
g552
sVcom.tencent.mm
p1153
g692
ssg61
(dp1154
Vcom.vlocker.locker
p1155
g152
sVcom.tencent.mm
p1156
g693
sVcom.nd.android.pandahome2
p1157
g851
ssg63
(dp1158
g8
g104
sg11
g111
sg15
g154
sVcom.nd.desktopcontacts
p1159
g211
sg19
g230
sg756
g267
sg23
g290
sVcom.smp.musicspeed
p1160
g318
sg287
g349
sVcom.sina.weibo
p1161
g401
sg31
g428
sg33
g433
sg982
g457
sg964
g487
sg545
g510
sVcom.jingdong.app.mall
p1162
g517
sg144
g540
sVcom.android.phone
p1163
g581
sVcom.htc.contacts
p1164
g599
sg160
g815
sVcom.tudou.android
p1165
g662
sg196
g727
sVcom.android.fileexplorer
p1166
g739
sg162
g768
sg75
g779
sg55
g642
sg992
g854
sg1044
g872
sVfm.xiami.main
p1167
g904
sg425
g907
sg87
g916
sg89
g930
sg710
g947
ssg65
(dp1168
Vcom.vlocker.locker
p1169
g156
sVcom.sina.weibo
p1170
g389
sVfm.xiami.main
p1171
g894
sVcom.nd.android.pandahome2
p1172
g855
sVcom.nd.desktopcontacts
p1173
g197
sg1111
g753
sVcom.android.phone
p1174
g566
sVcom.tencent.mm
p1175
g694
ssg67
(dp1176
Vcom.vlocker.locker
p1177
g157
sVcom.nd.android.pandahome2
p1178
g856
sVcom.smp.musicspeed
p1179
g306
ssg69
(dp1180
g39
g463
sVcom.htc.music
p1181
g786
sVcom.vlocker.locker
p1182
g159
sVcom.sina.weibo
p1183
g374
sg1028
g857
sg1030
g263
sg25
g307
sg1031
g351
sg300
g570
sVcom.htc.contacts
p1184
g594
sVcom.tencent.mm
p1185
g695
sg1033
g817
ssg71
(dp1186
g744
g163
sg55
g627
sVcom.sina.weibo
p1187
g391
sg636
g568
sg624
g859
sg17
g199
sg65
g723
sVcom.UCMobile
p1188
g239
sg23
g284
sg287
g355
sVfm.xiami.main
p1189
g896
sg853
g697
sg1014
g418
sVcom.tencent.mobileqq
p1190
g793
ssg73
(dp1191
Vcom.nd.android.pandahome2
p1192
g860
sVcom.tencent.mm
p1193
g698
ssg75
(dp1194
g1033
g818
sVcom.nd.android.pandahome2
p1195
g861
sg1166
g730
sVcom.smp.musicspeed
p1196
g296
sVcom.android.launcher
p1197
g357
sVcom.vlocker.locker
p1198
g165
sg1184
g587
sVcom.tencent.mm
p1199
g699
ssg77
(dp1200
Vcom.android.gallery3d
p1201
g495
sg806
g473
sVcom.vlocker.locker
p1202
g161
sg1106
g405
sVcom.nd.android.pandahome2
p1203
g858
sVcom.nd.desktopcontacts
p1204
g215
sVcom.sina.weibog3
p1205
g765
sVcom.UCMobile
p1206
g258
sVcom.taobao.taobao
p1207
g543
sVcom.android.launcher
p1208
g353
sg1163
g584
sVcom.android.camera
p1209
g927
sg89
g934
sVcom.htc.contacts
p1210
g601
sVcom.tencent.mm
p1211
g696
sVcom.eg.android.AlipayGphone
p1212
g408
sg504
g644
ssg79
(dp1213
g8
g106
sg11
g115
sg15
g168
sg126
g193
sg19
g222
sg200
g269
sg23
g280
sg979
g303
sg535
g361
sVcom.sina.weibo
p1214
g384
sg31
g414
sg33
g435
sg963
g438
sg1037
g450
sg39
g461
sVcom.android.packageinstaller
p1215
g479
sg43
g497
sg45
g519
sg47
g528
sg49
g560
sVcom.htc.contacts
p1216
g591
sg53
g606
sg61
g665
sg59
g654
sg63
g701
sg65
g719
sVcom.android.fileexplorer
p1217
g732
sg77
g821
sg990
g751
sg73
g775
sg75
g781
sg55
g625
sVcom.baidu.tieba
p1218
g874
sVfm.xiami.main
p1219
g890
sVcom.autonavi.minimap
p1220
g909
sg87
g918
sg89
g932
sg91
g938
sg710
g949
sg95
g954
ssg81
(dp1221
g333
g394
sVcom.vlocker.locker
p1222
g170
sg249
g486
sg871
g702
sVcom.nd.android.pandahome2
p1223
g863
sg529
g515
sg1104
g534
sg1089
g270
sg395
g363
sVcom.tencent.mobileqq
p1224
g822
ssg83
(dp1225
g247
g455
sVcom.vlocker.locker
p1226
g172
sVcom.sina.weibo
p1227
g376
sVcom.nd.android.pandahome2
p1228
g864
sVcom.nd.desktopcontacts
p1229
g191
sg895
g762
sVcom.UCMobile
p1230
g272
sVcom.smp.musicspeed
p1231
g312
sVcom.android.launcher
p1232
g365
sVcom.android.phone
p1233
g558
sVcom.tencent.mm
p1234
g703
sVcom.android.settings
p1235
g623
ssg85
(dp1236
Vcom.tencent.mm
p1237
g704
sVcom.nd.android.pandahome2
p1238
g865
sg155
g713
sVcom.sina.weibog3
p1239
g763
sg1169
g125
sVcom.sina.weibo
p1240
g399
sVcom.eg.android.AlipayGphone
p1241
g426
ssg87
(dp1242
Vcom.nd.android.pandahome2
p1243
g866
sg13
g118
sVcom.vlocker.locker
p1244
g174
sg545
g507
sg922
g367
sg1097
g577
sVcom.tencent.mm
p1245
g706
sVcom.android.settings
p1246
g630
ssg89
(dp1247
Vcom.nd.android.pandahome2
p1248
g867
sg141
g508
sVcom.tencent.mm
p1249
g708
sVcom.smp.musicspeed
p1250
g314
sg1092
g176
ssg91
(dp1251
Vcom.vlocker.locker
p1252
g178
sVcom.nd.android.pandahome2
p1253
g868
sg939
g209
sVcom.sina.weibog3
p1254
g767
sVcom.UCMobile
p1255
g274
sg941
g579
sVcom.tencent.mm
p1256
g709
sVcom.tencent.mobileqq
p1257
g824
ssg93
(dp1258
Vcom.android.settings
p1259
g640
sVcom.tencent.mm
p1260
g711
sVcom.tencent.mobileqq
p1261
g825
ssg95
(dp1262
Vcom.android.settings
p1263
g614
sVcom.nd.android.pandahome2
p1264
g869
sg1152
g275
sssb.