ccopy_reg
_reconstructor
p1
(cnetworkx.classes.digraph
DiGraph
p2
c__builtin__
object
p3
NtRp4
(dp5
S'node'
p6
(dp7
Vcom.android.browser
p8
(dp9
S'weight'
p10
F3.2636740950997332e-05
ssVcom.android.wifi
p11
(dp12
g10
F1.3987174693284571e-05
ssVcom.htc.video
p13
(dp14
g10
F4.5691437331396262e-05
ssVcom.vlocker.locker
p15
(dp16
g10
F0.58547329335487985
ssVcom.nd.desktopcontacts
p17
(dp18
g10
F0.021049765435080393
ssVcom.android.deskclock
p19
(dp20
g10
F0.00034501697576768607
ssVcom.UCMobile
p21
(dp22
g10
F0.020314040046213625
ssVcom.sohu.inputmethod.sogou
p23
(dp24
g10
F6.0611090337566474e-05
ssVcom.smp.musicspeed
p25
(dp26
g10
F0.0097229513684585489
ssVcom.sankuai.movie
p27
(dp28
g10
F0.00046064428656550523
ssVcom.sina.weibo
p29
(dp30
g10
F0.036409548204932626
ssVcom.eg.android.AlipayGphone
p31
(dp32
g10
F0.0018742814089001325
ssVcom.sogou.androidtool
p33
(dp34
g10
F0.00017996831438692813
ssVcom.qihoo360.ludashi.cooling
p35
(dp36
g10
F7.4598265030851045e-05
ssVcom.changba
p37
(dp38
g10
F0.0034846714552536294
ssVcom.android.packageinstaller
p39
(dp40
g10
F0.00042800754561450789
ssVcom.android.gallery3d
p41
(dp42
g10
F0.0029009400313872199
ssVcom.jingdong.app.mall
p43
(dp44
g10
F0.0029895254711113555
ssVcom.taobao.taobao
p45
(dp46
g10
F0.0099448812069253302
ssVcom.android.phone
p47
(dp48
g10
F0.019858058151212547
ssVcom.htc.contacts
p49
(dp50
g10
F0.0011115141489596806
ssVcom.htc.htcpowermanager
p51
(dp52
g10
F0.00013334439874264624
ssVcom.android.settings
p53
(dp54
g10
F0.0055445160484180042
ssVcom.android.flashlight
p55
(dp56
g10
F0.00018183327101269943
ssVcom.tudou.android
p57
(dp58
g10
F0.0016551490053720076
ssVcom.htc.calendar
p59
(dp60
g10
F0.00011842474573647603
ssVcom.tencent.mm
p61
(dp62
g10
F0.17446202994933846
ssVcom.dianping.v1
p63
(dp64
g10
F0.0010658227116282842
ssVcom.android.soundrecorder
p65
(dp66
g10
F0.00046064428656550523
ssVcom.android.fileexplorer
p67
(dp68
g10
F0.00021353753365081112
ssVcom.sina.weibog3
p69
(dp70
g10
F0.027172418037487493
ssVcom.youku.smart.assistant
p71
(dp72
g10
F1.6784609631941487e-05
ssVcom.htc.music
p73
(dp74
g10
F0.00016038626981632975
ssVcom.tencent.mobileqq
p75
(dp76
g10
F0.011543149035211314
ssVcom.nd.android.pandahome2
p77
(dp78
g10
F0.039739428260247241
ssVcom.baidu.tieba
p79
(dp80
g10
F0.0020365326353422334
ssVfm.xiami.main
p81
(dp82
g10
F0.013025789552699478
ssVcom.autonavi.minimap
p83
(dp84
g10
F0.0011777201091745608
ssVcom.android.camera
p85
(dp86
g10
F0.0019796514582562097
ssVcom.mt.mtxx.mtxx
p87
(dp88
g10
F0.00088492191892847053
ssVcom.yy.yymeet
p89
(dp90
g10
F0.0015721584355251857
ssVcom.htc.backupreset
p91
(dp92
g10
F4.6623915644281903e-06
ssVcom.hunantv.imgo.activity
p93
(dp94
g10
F7.6463221656622327e-05
sssS'node_dict_factory'
p95
c__builtin__
dict
p96
sS'edge_attr_dict_factory'
p97
g96
sS'succ'
p98
(dp99
g8
(dp100
Vcom.tencent.mm
p101
(dp102
g10
F1.6000000000000001
ssVcom.nd.android.pandahome2
p103
(dp104
g10
F2.6000000000000001
ssVcom.UCMobile
p105
(dp106
g10
I1
sssg11
(dp107
Vcom.android.settings
p108
(dp109
g10
I1
ssVcom.tencent.mm
p110
(dp111
g10
F0.69999999999999996
ssVcom.nd.android.pandahome2
p112
(dp113
g10
F0.90000000000000002
sssg13
(dp114
Vcom.android.camera
p115
(dp116
g10
I1
ssVcom.android.gallery3d
p117
(dp118
g10
F0.90000000000000002
sssg15
(dp119
Vcom.autonavi.minimap
p120
(dp121
g10
F1.3
ssVcom.nd.desktopcontacts
p122
(dp123
g10
F77.200000000000031
ssg19
(dp124
g10
F14.899999999999999
ssg21
(dp125
g10
F84.600000000000122
ssVcom.sohu.inputmethod.sogou
p126
(dp127
g10
I1
ssVcom.smp.musicspeed
p128
(dp129
g10
F25.799999999999994
ssVcom.sankuai.movie
p130
(dp131
g10
F1.8
ssVcom.sina.weibo
p132
(dp133
g10
F35.899999999999991
ssg31
(dp134
g10
F4.9000000000000004
ssg35
(dp135
g10
F2
ssg37
(dp136
g10
F6.7000000000000002
ssg39
(dp137
g10
F1.9000000000000001
ssVcom.android.gallery3d
p138
(dp139
g10
F9.5999999999999996
ssg43
(dp140
g10
F1.7000000000000002
ssVcom.taobao.taobao
p141
(dp142
g10
F27.299999999999997
ssVcom.android.phone
p143
(dp144
g10
F22.699999999999996
ssg49
(dp145
g10
F14.800000000000001
ssVcom.htc.htcpowermanager
p146
(dp147
g10
F0.90000000000000002
ssVcom.htc.calendar
p148
(dp149
g10
F0.90000000000000002
ssVcom.tencent.mm
p150
(dp151
g10
F331.49999999999943
ssVcom.dianping.v1
p152
(dp153
g10
F4.2999999999999998
ssg65
(dp154
g10
F0.69999999999999996
ssVcom.android.fileexplorer
p155
(dp156
g10
F9.2000000000000011
ssVcom.tencent.mobileqq
p157
(dp158
g10
F107.90000000000011
ssVcom.sina.weibog3
p159
(dp160
g10
F23.999999999999993
ssVcom.htc.music
p161
(dp162
g10
F1.7999999999999998
ssg53
(dp163
g10
F53.69999999999996
ssVcom.nd.android.pandahome2
p164
(dp165
g10
F654.99999999999761
ssVcom.baidu.tieba
p166
(dp167
g10
F1.3999999999999999
ssVfm.xiami.main
p168
(dp169
g10
F14.700000000000003
ssVcom.android.camera
p170
(dp171
g10
F5.5999999999999996
ssVcom.mt.mtxx.mtxx
p172
(dp173
g10
F1.3
ssVcom.yy.yymeet
p174
(dp175
g10
F0.69999999999999996
sssg17
(dp176
Vcom.htc.contacts
p177
(dp178
g10
F4
ssVcom.changba
p179
(dp180
g10
I1
ssVcom.vlocker.locker
p181
(dp182
g10
F18.699999999999999
ssVcom.android.settings
p183
(dp184
g10
F11.800000000000001
ssVcom.sina.weibo
p185
(dp186
g10
F7.3000000000000007
ssVfm.xiami.main
p187
(dp188
g10
I3
ssVcom.nd.android.pandahome2
p189
(dp190
g10
F172.70000000000013
ssVcom.taobao.taobao
p191
(dp192
g10
F4.7999999999999998
ssVcom.dianping.v1
p193
(dp194
g10
F0.90000000000000002
ssVcom.sina.weibog3
p195
(dp196
g10
F3.5999999999999996
ssVcom.UCMobile
p197
(dp198
g10
F12.5
ssVcom.android.phone
p199
(dp200
g10
F61.100000000000009
ssVcom.android.gallery3d
p201
(dp202
g10
F1.3
ssVcom.yy.yymeet
p203
(dp204
g10
F1.8999999999999999
ssVcom.tencent.mm
p205
(dp206
g10
F66.800000000000011
ssVcom.eg.android.AlipayGphone
p207
(dp208
g10
F4.9000000000000004
ssVcom.tencent.mobileqq
p209
(dp210
g10
F8
sssg19
(dp211
Vcom.vlocker.locker
p212
(dp213
g10
I1
ssVcom.nd.android.pandahome2
p214
(dp215
g10
F20.099999999999998
ssVcom.UCMobile
p216
(dp217
g10
F2.2999999999999998
ssVcom.sankuai.movie
p218
(dp219
g10
F0.90000000000000002
ssVcom.android.settings
p220
(dp221
g10
F1.3999999999999999
ssVcom.tencent.mm
p222
(dp223
g10
F5.7000000000000011
sssg21
(dp224
Vcom.android.browser
p225
(dp226
g10
F0.90000000000000002
ssVcom.vlocker.locker
p227
(dp228
g10
F17.199999999999999
ssVcom.nd.desktopcontacts
p229
(dp230
g10
F6.5000000000000009
ssVcom.sina.weibog3
p231
(dp232
g10
F3.9999999999999996
ssg25
(dp233
g10
F4
ssVcom.sina.weibo
p234
(dp235
g10
F7.3000000000000007
ssVcom.eg.android.AlipayGphone
p236
(dp237
g10
F2.6000000000000001
ssg35
(dp238
g10
F0.69999999999999996
ssVcom.changba
p239
(dp240
g10
I1
ssVcom.android.packageinstaller
p241
(dp242
g10
F4.5
ssVcom.android.gallery3d
p243
(dp244
g10
F5
ssVcom.jingdong.app.mall
p245
(dp246
g10
F0.90000000000000002
ssg45
(dp247
g10
F5.8000000000000007
ssg143
(dp248
g10
F2.7999999999999998
ssVcom.tencent.mobileqq
p249
(dp250
g10
F6.2000000000000002
ssVcom.android.settings
p251
(dp252
g10
F25.29999999999999
ssVcom.tudou.android
p253
(dp254
g10
F1.3999999999999999
ssg67
(dp255
g10
F5.6000000000000005
ssVcom.android.deskclock
p256
(dp257
g10
F2.7999999999999998
ssVcom.tencent.mm
p258
(dp259
g10
F51.399999999999963
ssVcom.nd.android.pandahome2
p260
(dp261
g10
F221.39999999999995
ssg79
(dp262
g10
F1.3
ssVfm.xiami.main
p263
(dp264
g10
F7.3000000000000007
ssVcom.yy.yymeet
p265
(dp266
g10
F0.40000000000000002
ssg93
(dp267
g10
F0.90000000000000002
sssg23
(dp268
g33
(dp269
g10
F1.3
ssg39
(dp270
g10
F1.7
ssVcom.nd.android.pandahome2
p271
(dp272
g10
F3.2999999999999998
ssVcom.nd.desktopcontacts
p273
(dp274
g10
F0.90000000000000002
ssVcom.sina.weibog3
p275
(dp276
g10
F1.3999999999999999
ssVcom.smp.musicspeed
p277
(dp278
g10
F1.7
ssVcom.tencent.mm
p279
(dp280
g10
F3.5999999999999996
sssg25
(dp281
g33
(dp282
g10
F0.69999999999999996
ssg8
(dp283
g10
F0.69999999999999996
ssVcom.UCMobile
p284
(dp285
g10
F3.7000000000000002
ssg73
(dp286
g10
F12.000000000000004
ssVcom.vlocker.locker
p287
(dp288
g10
I47
ssg39
(dp289
g10
F2.2000000000000002
ssVcom.android.phone
p290
(dp291
g10
F1.3
ssVcom.nd.android.pandahome2
p292
(dp293
g10
F21.999999999999996
ssVcom.nd.desktopcontacts
p294
(dp295
g10
F1.3999999999999999
ssg65
(dp296
g10
F1.3
ssg67
(dp297
g10
F28.499999999999989
ssg126
(dp298
g10
F0.90000000000000002
ssVfm.xiami.main
p299
(dp300
g10
F2.2000000000000002
ssVcom.mt.mtxx.mtxx
p301
(dp302
g10
I1
ssVcom.htc.contacts
p303
(dp304
g10
F2.3999999999999999
ssVcom.tencent.mm
p305
(dp306
g10
F8.6000000000000014
ssVcom.android.settings
p307
(dp308
g10
F3
sssg27
(dp309
Vcom.tencent.mm
p310
(dp311
g10
F4.9000000000000004
ssVcom.sina.weibo
p312
(dp313
g10
F0.40000000000000002
ssVcom.nd.android.pandahome2
p314
(dp315
g10
F3.7000000000000002
sssg29
(dp316
Vcom.android.deskclock
p317
(dp318
g10
F3.1999999999999997
ssVcom.android.gallery3d
p319
(dp320
g10
F0.69999999999999996
ssVcom.android.fileexplorer
p321
(dp322
g10
F0.40000000000000002
ssVfm.xiami.main
p323
(dp324
g10
F0.40000000000000002
ssVcom.vlocker.locker
p325
(dp326
g10
F40.699999999999996
ssVcom.android.packageinstaller
p327
(dp328
g10
F1.6000000000000001
ssVcom.android.phone
p329
(dp330
g10
F8.5999999999999996
ssVcom.nd.android.pandahome2
p331
(dp332
g10
F118.80000000000007
ssVcom.jingdong.app.mall
p333
(dp334
g10
F0.40000000000000002
ssVcom.nd.desktopcontacts
p335
(dp336
g10
F14.100000000000003
ssg152
(dp337
g10
F2.2000000000000002
ssVcom.sina.weibog3
p338
(dp339
g10
F1.7000000000000002
ssVcom.UCMobile
p340
(dp341
g10
F13.100000000000001
ssVcom.baidu.tieba
p342
(dp343
g10
F0.69999999999999996
ssVcom.android.settings
p344
(dp345
g10
F4.3000000000000007
ssg120
(dp346
g10
F0.69999999999999996
ssVcom.tencent.mm
p347
(dp348
g10
F82.300000000000068
ssVcom.eg.android.AlipayGphone
p349
(dp350
g10
F0.90000000000000002
ssVcom.tencent.mobileqq
p351
(dp352
g10
F1.8
sssg31
(dp353
Vcom.android.settings
p354
(dp355
g10
F0.90000000000000002
ssVcom.sina.weibo
p356
(dp357
g10
F0.90000000000000002
ssVcom.nd.android.pandahome2
p358
(dp359
g10
F24.499999999999996
ssVcom.nd.desktopcontacts
p360
(dp361
g10
F4.5999999999999996
ssVcom.sina.weibog3
p362
(dp363
g10
F0.90000000000000002
ssVcom.UCMobile
p364
(dp365
g10
F1.1000000000000001
ssVcom.android.phone
p366
(dp367
g10
F0.90000000000000002
ssVcom.autonavi.minimap
p368
(dp369
g10
I1
ssVcom.tencent.mm
p370
(dp371
g10
F6.2000000000000011
ssVcom.tencent.mobileqq
p372
(dp373
g10
F6.6000000000000005
sssg33
(dp374
Vcom.nd.android.pandahome2
p375
(dp376
g10
F0.90000000000000002
ssVcom.android.packageinstaller
p377
(dp378
g10
F2.3999999999999999
ssVcom.sohu.inputmethod.sogou
p379
(dp380
g10
F0.90000000000000002
ssVcom.smp.musicspeed
p381
(dp382
g10
I1
ssg8
(dp383
g10
F0.40000000000000002
sssg35
(dp384
Vcom.UCMobile
p385
(dp386
g10
F1.3
ssVcom.nd.android.pandahome2
p387
(dp388
g10
F2.7000000000000002
sssg37
(dp389
Vfm.xiami.main
p390
(dp391
g10
F0.90000000000000002
ssVcom.tencent.mm
p392
(dp393
g10
F2.6000000000000001
ssVcom.android.phone
p394
(dp395
g10
F0.90000000000000002
ssVcom.nd.android.pandahome2
p396
(dp397
g10
F12.100000000000001
ssVcom.android.fileexplorer
p398
(dp399
g10
F0.69999999999999996
ssVcom.smp.musicspeed
p400
(dp401
g10
F0.90000000000000002
ssVcom.vlocker.locker
p402
(dp403
g10
I4
ssVcom.sina.weibo
p404
(dp405
g10
F1.7
ssVcom.tencent.mobileqq
p406
(dp407
g10
F0.90000000000000002
sssg39
(dp408
g33
(dp409
g10
F2.7000000000000002
ssg8
(dp410
g10
I1
ssVcom.vlocker.locker
p411
(dp412
g10
I1
ssg375
(dp413
g10
F10.300000000000001
ssVcom.UCMobile
p414
(dp415
g10
F2.2999999999999998
ssg379
(dp416
g10
F1.7
ssg381
(dp417
g10
F1.3
ssg79
(dp418
g10
F1.7
ssg101
(dp419
g10
F3.3999999999999995
sssg41
(dp420
g225
(dp421
g10
F0.40000000000000002
ssVcom.vlocker.locker
p422
(dp423
g10
I4
ssVcom.htc.video
p424
(dp425
g10
I1
ssVcom.tencent.mobileqq
p426
(dp427
g10
F1.3999999999999999
ssVcom.nd.android.pandahome2
p428
(dp429
g10
F30.299999999999994
ssVcom.taobao.taobao
p430
(dp431
g10
F0.90000000000000002
ssVcom.UCMobile
p432
(dp433
g10
F3.1000000000000001
ssVcom.android.settings
p434
(dp435
g10
F2.7000000000000002
ssVcom.android.camera
p436
(dp437
g10
F16.800000000000001
ssg172
(dp438
g10
F0.90000000000000002
ssVcom.tencent.mm
p439
(dp440
g10
F6.8000000000000007
sssg43
(dp441
Vcom.UCMobile
p442
(dp443
g10
F0.90000000000000002
ssVcom.baidu.tieba
p444
(dp445
g10
F0.90000000000000002
ssVcom.tencent.mm
p446
(dp447
g10
I1
ssVcom.nd.android.pandahome2
p448
(dp449
g10
F4.9000000000000004
sssg45
(dp450
Vcom.vlocker.locker
p451
(dp452
g10
F10.699999999999999
ssg366
(dp453
g10
F0.40000000000000002
ssVcom.nd.android.pandahome2
p454
(dp455
g10
F50.500000000000014
ssVcom.jingdong.app.mall
p456
(dp457
g10
F0.90000000000000002
ssg229
(dp458
g10
F8.2000000000000011
ssVcom.UCMobile
p459
(dp460
g10
F4.6999999999999993
ssg444
(dp461
g10
F0.40000000000000002
ssg27
(dp462
g10
F1.3
ssVcom.android.settings
p463
(dp464
g10
F2
ssVcom.tencent.mm
p465
(dp466
g10
F8.9000000000000004
ssVcom.eg.android.AlipayGphone
p467
(dp468
g10
F4.5
ssVcom.tencent.mobileqq
p469
(dp470
g10
F0.90000000000000002
sssg47
(dp471
Vcom.android.gallery3d
p472
(dp473
g10
F5
ssVcom.smp.musicspeed
p474
(dp475
g10
F0.69999999999999996
ssVcom.UCMobile
p476
(dp477
g10
F1.8999999999999999
ssVcom.tudou.android
p478
(dp479
g10
I1
ssVcom.android.settings
p480
(dp481
g10
F3.9999999999999996
ssVcom.sina.weibo
p482
(dp483
g10
F10.4
ssVfm.xiami.main
p484
(dp485
g10
I1
ssVcom.nd.android.pandahome2
p486
(dp487
g10
F85.000000000000014
ssVcom.htc.contacts
p488
(dp489
g10
F32.299999999999997
ssVcom.nd.desktopcontacts
p490
(dp491
g10
F75.900000000000063
ssVcom.dianping.v1
p492
(dp493
g10
F1.7
ssVcom.sina.weibog3
p494
(dp495
g10
F1.7
ssVcom.android.fileexplorer
p496
(dp497
g10
F0.40000000000000002
ssVcom.taobao.taobao
p498
(dp499
g10
F0.69999999999999996
ssVcom.vlocker.locker
p500
(dp501
g10
F4.0999999999999996
ssg85
(dp502
g10
F3
ssVcom.yy.yymeet
p503
(dp504
g10
I2
ssVcom.tencent.mm
p505
(dp506
g10
F31.099999999999991
ssg207
(dp507
g10
F1.8999999999999999
ssVcom.tencent.mobileqq
p508
(dp509
g10
F3.2999999999999998
sssg49
(dp510
Vcom.htc.music
p511
(dp512
g10
F0.40000000000000002
ssVcom.vlocker.locker
p513
(dp514
g10
I4
ssVcom.nd.android.pandahome2
p515
(dp516
g10
F23.999999999999993
ssVcom.nd.desktopcontacts
p517
(dp518
g10
F2.6000000000000001
ssg496
(dp519
g10
F0.69999999999999996
ssg474
(dp520
g10
F1.3
ssVcom.android.phone
p521
(dp522
g10
F36.299999999999997
ssVcom.tencent.mm
p523
(dp524
g10
F4.2999999999999998
ssVcom.tencent.mobileqq
p525
(dp526
g10
F0.90000000000000002
sssg51
(dp527
Vcom.android.settings
p528
(dp529
g10
F1.7
ssVcom.nd.android.pandahome2
p530
(dp531
g10
F2.7000000000000002
ssVcom.eg.android.AlipayGphone
p532
(dp533
g10
F0.40000000000000002
ssVcom.UCMobile
p534
(dp535
g10
F0.90000000000000002
sssg53
(dp536
Vcom.android.gallery3d
p537
(dp538
g10
F4.5999999999999996
ssg93
(dp539
g10
F0.40000000000000002
ssg11
(dp540
g10
I1
ssVcom.vlocker.locker
p541
(dp542
g10
F2.3999999999999999
ssVcom.htc.htcpowermanager
p543
(dp544
g10
I1
ssVcom.sina.weibo
p545
(dp546
g10
F4.4000000000000004
ssVfm.xiami.main
p547
(dp548
g10
F2.1000000000000001
ssVcom.nd.android.pandahome2
p549
(dp550
g10
F113.10000000000022
ssg45
(dp551
g10
F2.5
ssg69
(dp552
g10
F1.1000000000000001
ssg197
(dp553
g10
F75.400000000000034
ssVcom.android.camera
p554
(dp555
g10
F0.90000000000000002
ssVcom.smp.musicspeed
p556
(dp557
g10
F1.8999999999999999
ssg17
(dp558
g10
F8.6000000000000014
ssVcom.android.phone
p559
(dp560
g10
F4.2000000000000002
ssVcom.tudou.android
p561
(dp562
g10
F1.3999999999999999
ssg91
(dp563
g10
F3
ssVcom.tencent.mm
p564
(dp565
g10
F33.599999999999994
ssVcom.tencent.mobileqq
p566
(dp567
g10
F2.0999999999999996
sssg55
(dp568
Vcom.vlocker.locker
p569
(dp570
g10
I1
sssg57
(dp571
Vcom.sina.weibo
p572
(dp573
g10
F0.40000000000000002
ssVcom.android.phone
p574
(dp575
g10
F0.90000000000000002
ssVcom.nd.android.pandahome2
p576
(dp577
g10
F9.1000000000000014
ssVcom.UCMobile
p578
(dp579
g10
F1.8999999999999999
ssVcom.android.settings
p580
(dp581
g10
F1.6000000000000001
ssVcom.tencent.mm
p582
(dp583
g10
F1.8999999999999999
sssg59
(dp584
Vcom.nd.android.pandahome2
p585
(dp586
g10
I2
sssg61
(dp587
g11
(dp588
g10
F1.6000000000000001
ssg15
(dp589
g10
F307.69999999999993
ssg17
(dp590
g10
F76.099999999999994
ssg19
(dp591
g10
F6.6000000000000014
ssg21
(dp592
g10
F85.900000000000091
ssg23
(dp593
g10
F3.2999999999999998
ssVcom.smp.musicspeed
p594
(dp595
g10
F10.700000000000001
ssg27
(dp596
g10
F3.7999999999999998
ssg29
(dp597
g10
F108.70000000000012
ssg31
(dp598
g10
F8.7000000000000011
ssg35
(dp599
g10
F0.90000000000000002
ssVcom.changba
p600
(dp601
g10
F1.8
ssg241
(dp602
g10
F2.8999999999999999
ssVcom.android.gallery3d
p603
(dp604
g10
F4.0999999999999996
ssVcom.taobao.taobao
p605
(dp606
g10
F18.899999999999999
ssVcom.android.phone
p607
(dp608
g10
F29.399999999999988
ssg49
(dp609
g10
F16.700000000000003
ssg51
(dp610
g10
F3
ssVcom.tudou.android
p611
(dp612
g10
F1.8999999999999999
ssg148
(dp613
g10
F0.69999999999999996
ssg193
(dp614
g10
F2.2999999999999998
ssVcom.android.fileexplorer
p615
(dp616
g10
F5.2000000000000002
ssg157
(dp617
g10
F64.600000000000009
ssg69
(dp618
g10
F159.80000000000013
ssg71
(dp619
g10
F1.3
ssg73
(dp620
g10
F0.80000000000000004
ssg53
(dp621
g10
F49.29999999999999
ssg164
(dp622
g10
F666.89999999999839
ssg342
(dp623
g10
F1.8999999999999999
ssg168
(dp624
g10
F14.5
ssg83
(dp625
g10
F4.5999999999999996
ssVcom.android.camera
p626
(dp627
g10
F2
ssVcom.mt.mtxx.mtxx
p628
(dp629
g10
F0.90000000000000002
ssg174
(dp630
g10
F3.2999999999999998
ssVcom.htc.backupreset
p631
(dp632
g10
I1
sssg63
(dp633
g120
(dp634
g10
I1
ssVcom.sina.weibo
p635
(dp636
g10
F0.90000000000000002
ssVcom.android.phone
p637
(dp638
g10
F0.90000000000000002
ssVcom.nd.android.pandahome2
p639
(dp640
g10
F10.800000000000001
ssVcom.taobao.taobao
p641
(dp642
g10
F0.69999999999999996
ssVcom.sina.weibog3
p643
(dp644
g10
I1
ssVcom.vlocker.locker
p645
(dp646
g10
I2
ssVcom.tencent.mm
p647
(dp648
g10
F3.2000000000000002
sssg65
(dp649
sg67
(dp650
g73
(dp651
g10
F13.600000000000001
ssVcom.nd.android.pandahome2
p652
(dp653
g10
F3.5999999999999996
ssg294
(dp654
g10
F0.69999999999999996
ssVcom.UCMobile
p655
(dp656
g10
F3.7000000000000002
ssVcom.smp.musicspeed
p657
(dp658
g10
F10.600000000000001
ssVcom.tencent.mm
p659
(dp660
g10
F1.1000000000000001
sssg69
(dp661
Vcom.sina.weibo
p662
(dp663
g10
F0.90000000000000002
ssg641
(dp664
g10
F1.3
ssg615
(dp665
g10
F0.40000000000000002
ssVcom.vlocker.locker
p666
(dp667
g10
F26.699999999999999
ssVcom.android.packageinstaller
p668
(dp669
g10
F0.69999999999999996
ssVcom.android.phone
p670
(dp671
g10
I1
ssVcom.nd.android.pandahome2
p672
(dp673
g10
F81.400000000000048
ssg17
(dp674
g10
F1.8999999999999999
ssg63
(dp675
g10
I1
ssVcom.android.deskclock
p676
(dp677
g10
F0.90000000000000002
ssVcom.UCMobile
p678
(dp679
g10
F12.799999999999999
ssg23
(dp680
g10
F1.3
ssVcom.smp.musicspeed
p681
(dp682
g10
F0.69999999999999996
ssVcom.tencent.mobileqq
p683
(dp684
g10
F2.8999999999999999
ssVfm.xiami.main
p685
(dp686
g10
F1.8
ssg83
(dp687
g10
F0.69999999999999996
ssVcom.yy.yymeet
p688
(dp689
g10
F1.3
ssg258
(dp690
g10
F168.70000000000002
ssVcom.eg.android.AlipayGphone
p691
(dp692
g10
F0.40000000000000002
ssVcom.android.settings
p693
(dp694
g10
F3.5
sssg71
(dp695
Vcom.UCMobile
p696
(dp697
g10
F0.40000000000000002
ssVcom.nd.android.pandahome2
p698
(dp699
g10
F4.7000000000000002
sssg73
(dp700
g659
(dp701
g10
F1.6000000000000001
ssVcom.nd.android.pandahome2
p702
(dp703
g10
F2.5
ssVcom.smp.musicspeed
p704
(dp705
g10
F10.300000000000002
ssg294
(dp706
g10
F0.90000000000000002
ssVcom.android.fileexplorer
p707
(dp708
g10
F4
sssg75
(dp709
Vcom.sohu.inputmethod.sogou
p710
(dp711
g10
F0.40000000000000002
ssg537
(dp712
g10
F1.7000000000000002
ssVcom.smp.musicspeed
p713
(dp714
g10
I1
ssVcom.changba
p715
(dp716
g10
F2.2999999999999998
ssVcom.android.fileexplorer
p717
(dp718
g10
F0.90000000000000002
ssVcom.htc.music
p719
(dp720
g10
F0.69999999999999996
ssVcom.vlocker.locker
p721
(dp722
g10
F86.400000000000048
ssVcom.sina.weibo
p723
(dp724
g10
F2.7000000000000002
ssg77
(dp725
g10
F85.000000000000071
ssg333
(dp726
g10
F0.90000000000000002
ssVcom.nd.desktopcontacts
p727
(dp728
g10
F8.4000000000000021
ssVcom.sina.weibog3
p729
(dp730
g10
F0.69999999999999996
ssVcom.UCMobile
p731
(dp732
g10
F3.6000000000000001
ssg166
(dp733
g10
F0.90000000000000002
ssVcom.taobao.taobao
p734
(dp735
g10
F2.2999999999999998
ssVcom.android.phone
p736
(dp737
g10
F1.6000000000000001
ssg631
(dp738
g10
F0.90000000000000002
ssVcom.yy.yymeet
p739
(dp740
g10
F0.40000000000000002
ssVcom.tencent.mm
p741
(dp742
g10
F54.200000000000003
ssVcom.eg.android.AlipayGphone
p743
(dp744
g10
F1.6000000000000001
ssVcom.android.settings
p745
(dp746
g10
F8.5
sssg77
(dp747
g8
(dp748
g10
F2.6000000000000001
ssVcom.vlocker.locker
p749
(dp750
g10
F307.49999999999983
ssg17
(dp751
g10
F169.50000000000017
ssg19
(dp752
g10
F24.199999999999996
ssg21
(dp753
g10
F211.30000000000001
ssg23
(dp754
g10
F5.3999999999999995
ssg25
(dp755
g10
F15.700000000000001
ssVcom.sankuai.movie
p756
(dp757
g10
F7
ssg132
(dp758
g10
F59.400000000000013
ssg31
(dp759
g10
F21.899999999999991
ssg33
(dp760
g10
F0.90000000000000002
ssg35
(dp761
g10
F5.2999999999999998
ssVcom.changba
p762
(dp763
g10
F4.2999999999999998
ssg39
(dp764
g10
F13.200000000000001
ssg603
(dp765
g10
F25.999999999999996
ssg43
(dp766
g10
F7.1000000000000005
ssg45
(dp767
g10
F36.099999999999987
ssg199
(dp768
g10
F90.400000000000077
ssg49
(dp769
g10
F34.5
ssg51
(dp770
g10
F3.4000000000000004
ssg148
(dp771
g10
I1
ssg478
(dp772
g10
F5.5999999999999996
ssVcom.tencent.mm
p773
(dp774
g10
F482.69999999999771
ssg152
(dp775
g10
F10.100000000000001
ssg65
(dp776
g10
I1
ssg67
(dp777
g10
F11.000000000000002
ssg249
(dp778
g10
F86.300000000000068
ssg69
(dp779
g10
F50.000000000000014
ssg71
(dp780
g10
F2.7000000000000002
ssg73
(dp781
g10
F3.9000000000000004
ssg53
(dp782
g10
F117.00000000000014
ssg166
(dp783
g10
F5.7000000000000011
ssg685
(dp784
g10
F24.799999999999997
ssg83
(dp785
g10
F6.9000000000000004
ssg85
(dp786
g10
F9.8000000000000007
ssg628
(dp787
g10
F4.4000000000000004
ssg89
(dp788
g10
F10.799999999999999
ssg93
(dp789
g10
F1.7
sssg79
(dp790
Vcom.UCMobile
p791
(dp792
g10
I1
ssVcom.sina.weibo
p793
(dp794
g10
I1
ssVcom.tencent.mm
p795
(dp796
g10
F1.8
ssVcom.nd.android.pandahome2
p797
(dp798
g10
F5.7999999999999998
ssVcom.vlocker.locker
p799
(dp800
g10
I1
sssg81
(dp801
Vcom.android.deskclock
p802
(dp803
g10
F0.40000000000000002
ssVcom.android.gallery3d
p804
(dp805
g10
F0.90000000000000002
ssVcom.vlocker.locker
p806
(dp807
g10
F16.800000000000001
ssVcom.nd.android.pandahome2
p808
(dp809
g10
F48.300000000000004
ssVcom.nd.desktopcontacts
p810
(dp811
g10
F4.7999999999999998
ssVcom.dianping.v1
p812
(dp813
g10
F0.69999999999999996
ssVcom.sina.weibog3
p814
(dp815
g10
I1
ssVcom.UCMobile
p816
(dp817
g10
F8.4000000000000021
ssVcom.android.settings
p818
(dp819
g10
F6.6000000000000005
ssVcom.tencent.mm
p820
(dp821
g10
F9.5999999999999996
sssg83
(dp822
Vcom.tencent.mm
p823
(dp824
g10
F5.2999999999999998
ssVcom.nd.android.pandahome2
p825
(dp826
g10
F5
ssVcom.eg.android.AlipayGphone
p827
(dp828
g10
I1
sssg85
(dp829
g472
(dp830
g10
F23.299999999999997
ssg13
(dp831
g10
F1.8999999999999999
ssVcom.vlocker.locker
p832
(dp833
g10
I2
ssVcom.nd.android.pandahome2
p834
(dp835
g10
F20.899999999999999
ssVcom.nd.desktopcontacts
p836
(dp837
g10
F0.40000000000000002
ssVcom.android.settings
p838
(dp839
g10
F1.1000000000000001
ssg439
(dp840
g10
F4.9000000000000004
ssVcom.tencent.mobileqq
p841
(dp842
g10
F5.2000000000000002
sssg87
(dp843
Vcom.tencent.mm
p844
(dp845
g10
F5.9000000000000004
ssVcom.nd.android.pandahome2
p846
(dp847
g10
I8
ssVcom.tencent.mobileqq
p848
(dp849
g10
F0.69999999999999996
sssg89
(dp850
g693
(dp851
g10
I1
ssVcom.nd.android.pandahome2
p852
(dp853
g10
F7
ssVcom.nd.desktopcontacts
p854
(dp855
g10
F3.8999999999999995
ssVcom.android.phone
p856
(dp857
g10
F3.7000000000000002
sssg91
(dp858
Vcom.android.settings
p859
(dp860
g10
I1
ssVcom.tencent.mm
p861
(dp862
g10
F0.69999999999999996
ssVcom.nd.android.pandahome2
p863
(dp864
g10
F1.3
sssg93
(dp865
Vcom.tudou.android
p866
(dp867
g10
F0.90000000000000002
ssg580
(dp868
g10
F0.40000000000000002
ssVcom.nd.android.pandahome2
p869
(dp870
g10
F1.7
ssssS'edge'
p871
g99
sS'graph'
p872
(dp873
sS'adjlist_dict_factory'
p874
g96
sS'adj'
p875
g99
sS'pred'
p876
(dp877
g8
(dp878
Vcom.sogou.androidtool
p879
g383
sg375
g748
sVcom.android.packageinstaller
p880
g410
sVcom.android.gallery3d
p881
g421
sVcom.UCMobile
p882
g226
sg381
g283
ssg11
(dp883
Vcom.android.settings
p884
g540
sVcom.tencent.mm
p885
g588
ssg13
(dp886
Vcom.android.camera
p887
g831
sVcom.android.gallery3d
p888
g425
ssg15
(dp889
Vcom.android.deskclock
p890
g213
sg55
g570
sVcom.android.gallery3d
p891
g423
sVcom.changba
p892
g403
sVcom.tencent.mobileqq
p893
g722
sVcom.sina.weibo
p894
g326
sVcom.android.phone
p895
g501
sVcom.nd.android.pandahome2
p896
g750
sVcom.htc.contacts
p897
g514
sVcom.nd.desktopcontacts
p898
g182
sVcom.dianping.v1
p899
g646
sVcom.sina.weibog3
p900
g667
sVcom.UCMobile
p901
g228
sVcom.baidu.tieba
p902
g800
sVcom.taobao.taobao
p903
g452
sg81
g807
sVcom.android.camera
p904
g833
sVcom.android.settings
p905
g542
sg61
g589
sVcom.android.packageinstaller
p906
g412
sVcom.smp.musicspeed
p907
g288
ssg17
(dp908
g177
g518
sVcom.android.fileexplorer
p909
g654
sVfm.xiami.main
p910
g811
sg53
g558
sVcom.sina.weibo
p911
g336
sg47
g491
sg549
g751
sg45
g458
sg69
g674
sg197
g230
sVcom.android.camera
p912
g837
sg710
g274
sVcom.smp.musicspeed
p913
g295
sVcom.vlocker.locker
p914
g123
sg161
g706
sg89
g855
sg564
g590
sg349
g361
sg508
g728
ssg19
(dp915
Vcom.vlocker.locker
p916
g124
sVcom.tencent.mm
p917
g591
sVcom.nd.android.pandahome2
p918
g752
sVcom.sina.weibog3
p919
g677
sg216
g257
sVfm.xiami.main
p920
g803
sVcom.sina.weibo
p921
g318
ssg21
(dp922
g225
g106
sg15
g125
sg122
g198
sVcom.android.deskclock
p923
g217
sVcom.smp.musicspeed
p924
g285
sVcom.sina.weibo
p925
g341
sVcom.eg.android.AlipayGphone
p926
g365
sVcom.qihoo360.ludashi.cooling
p927
g386
sg241
g415
sg243
g433
sg43
g443
sVcom.taobao.taobao
p928
g460
sVcom.android.phone
p929
g477
sg146
g535
sg561
g579
sg61
g592
sVcom.android.fileexplorer
p930
g656
sg249
g732
sg900
g679
sVcom.youku.smart.assistant
p931
g697
sg183
g553
sg164
g753
sg79
g792
sg168
g817
ssg23
(dp932
g33
g380
sVcom.vlocker.locker
p933
g127
sg39
g416
sVcom.nd.android.pandahome2
p934
g754
sVcom.sina.weibog3
p935
g680
sVcom.smp.musicspeed
p936
g298
sVcom.tencent.mm
p937
g593
sVcom.tencent.mobileqq
p938
g711
ssg25
(dp939
g879
g382
sg37
g401
sg155
g658
sg73
g705
sg287
g129
sg377
g417
sg307
g557
sVcom.nd.android.pandahome2
p940
g755
sVcom.sina.weibog3
p941
g682
sVcom.UCMobile
p942
g233
sg126
g278
sg290
g475
sg303
g520
sVcom.tencent.mm
p943
g595
sVcom.tencent.mobileqq
p944
g714
ssg27
(dp945
Vcom.android.deskclock
p946
g219
sg314
g757
sVcom.tencent.mm
p947
g596
sVcom.taobao.taobao
p948
g462
sVcom.vlocker.locker
p949
g131
ssg29
(dp950
g218
g313
sVcom.changba
p951
g405
sg561
g573
sVcom.vlocker.locker
p952
g133
sVcom.nd.android.pandahome2
p953
g758
sg335
g186
sg492
g636
sVcom.sina.weibog3
p954
g663
sVcom.UCMobile
p955
g235
sVcom.baidu.tieba
p956
g794
sVcom.tencent.mobileqq
p957
g724
sVcom.android.phone
p958
g483
sVcom.tencent.mm
p959
g597
sVcom.eg.android.AlipayGphone
p960
g357
sg344
g546
ssg31
(dp961
g146
g533
sVcom.vlocker.locker
p962
g134
sVcom.sina.weibo
p963
g350
sVcom.tencent.mm
p964
g598
sVcom.nd.android.pandahome2
p965
g759
sVcom.taobao.taobao
p966
g468
sg643
g692
sVcom.UCMobile
p967
g237
sVcom.nd.desktopcontacts
p968
g208
sg736
g507
sg368
g828
sVcom.tencent.mobileqq
p969
g744
ssg33
(dp970
Vcom.nd.android.pandahome2
p971
g760
sg39
g409
sg126
g269
sg277
g282
ssg35
(dp972
Vcom.vlocker.locker
p973
g135
sVcom.tencent.mm
p974
g599
sVcom.nd.android.pandahome2
p975
g761
sVcom.UCMobile
p976
g238
ssg37
(dp977
Vcom.vlocker.locker
p978
g136
sVcom.nd.android.pandahome2
p979
g763
sVcom.nd.desktopcontacts
p980
g180
sVcom.UCMobile
p981
g240
sVcom.tencent.mm
p982
g601
sVcom.tencent.mobileqq
p983
g716
ssg39
(dp984
g33
g378
sg933
g137
sVcom.sina.weibo
p985
g328
sg971
g764
sVcom.sina.weibog3
p986
g669
sVcom.UCMobile
p987
g242
sg126
g270
sg277
g289
sVcom.tencent.mm
p988
g602
ssg41
(dp989
g13
g118
sVcom.vlocker.locker
p990
g139
sVcom.sina.weibo
p991
g320
sg434
g538
sVcom.nd.android.pandahome2
p992
g765
sVcom.nd.desktopcontacts
p993
g202
sVcom.UCMobile
p994
g244
sVcom.android.phone
p995
g473
sVfm.xiami.main
p996
g805
sg85
g830
sVcom.tencent.mm
p997
g604
sVcom.tencent.mobileqq
p998
g712
ssg43
(dp999
Vcom.vlocker.locker
p1000
g140
sVcom.nd.android.pandahome2
p1001
g766
sVcom.taobao.taobao
p1002
g457
sVcom.UCMobile
p1003
g246
sVcom.sina.weibo
p1004
g334
sg351
g726
ssg45
(dp1005
g243
g431
sVcom.vlocker.locker
p1006
g142
sVcom.android.phone
p1007
g499
sg189
g767
sVcom.nd.desktopcontacts
p1008
g192
sg63
g642
sVcom.sina.weibog3
p1009
g664
sg197
g247
sg183
g551
sVcom.tencent.mm
p1010
g606
sVcom.tencent.mobileqq
p1011
g735
ssg47
(dp1012
Vcom.htc.contacts
p1013
g522
sVcom.smp.musicspeed
p1014
g291
sVcom.changba
p1015
g395
sg57
g575
sg227
g144
sVcom.sina.weibo
p1016
g330
sVcom.nd.android.pandahome2
p1017
g768
sVcom.nd.desktopcontacts
p1018
g200
sVcom.dianping.v1
p1019
g638
sVcom.sina.weibog3
p1020
g671
sVcom.UCMobile
p1021
g248
sVcom.taobao.taobao
p1022
g453
sg693
g560
sg174
g857
sVcom.tencent.mm
p1023
g608
sVcom.eg.android.AlipayGphone
p1024
g367
sVcom.tencent.mobileqq
p1025
g737
ssg49
(dp1026
Vcom.vlocker.locker
p1027
g145
sVcom.nd.android.pandahome2
p1028
g769
sVcom.nd.desktopcontacts
p1029
g178
sg1014
g304
sg521
g489
sVcom.tencent.mm
p1030
g609
ssg51
(dp1031
Vcom.vlocker.locker
p1032
g147
sVcom.nd.android.pandahome2
p1033
g770
sVcom.tencent.mm
p1034
g610
sg528
g544
ssg53
(dp1035
g11
g109
sg749
g163
sg122
g184
sg802
g221
sVcom.UCMobile
p1036
g252
sg93
g868
sVcom.sina.weibo
p1037
g345
sVcom.eg.android.AlipayGphone
p1038
g355
sVcom.android.gallery3d
p1039
g435
sg928
g464
sg143
g481
sg51
g529
sg866
g581
sVcom.tencent.mobileqq
p1040
g746
sVcom.sina.weibog3
p1041
g694
sg773
g621
sg896
g782
sVfm.xiami.main
p1042
g819
sg436
g839
sg688
g851
sg631
g860
sVcom.smp.musicspeed
p1043
g308
ssg55
(dp1044
sg57
(dp1045
g580
g562
sg576
g772
sVcom.UCMobile
p1046
g254
sg93
g867
sg574
g479
sVcom.tencent.mm
p1047
g612
ssg59
(dp1048
Vcom.vlocker.locker
p1049
g149
sVcom.tencent.mm
p1050
g613
sVcom.nd.android.pandahome2
p1051
g771
ssg61
(dp1052
g8
g102
sg11
g111
sg15
g151
sVcom.nd.desktopcontacts
p1053
g206
sg19
g223
sg678
g259
sg23
g280
sVcom.smp.musicspeed
p1054
g306
sg27
g311
sVcom.sina.weibo
p1055
g348
sg31
g371
sg892
g393
sg880
g419
sg472
g440
sVcom.jingdong.app.mall
p1056
g447
sg141
g466
sVcom.android.phone
p1057
g506
sVcom.htc.contacts
p1058
g524
sg157
g742
sVcom.tudou.android
p1059
g583
sg193
g648
sVcom.android.fileexplorer
p1060
g660
sg159
g690
sg73
g701
sg53
g565
sg896
g774
sg956
g796
sVfm.xiami.main
p1061
g821
sg368
g824
sg85
g840
sg87
g845
sg631
g862
ssg63
(dp1062
Vcom.vlocker.locker
p1063
g153
sVcom.sina.weibo
p1064
g337
sVfm.xiami.main
p1065
g813
sVcom.nd.android.pandahome2
p1066
g775
sVcom.nd.desktopcontacts
p1067
g194
sg1009
g675
sVcom.android.phone
p1068
g493
sVcom.tencent.mm
p1069
g614
ssg65
(dp1070
Vcom.vlocker.locker
p1071
g154
sVcom.nd.android.pandahome2
p1072
g776
sVcom.smp.musicspeed
p1073
g296
ssg67
(dp1074
g37
g399
sVcom.htc.music
p1075
g708
sVcom.vlocker.locker
p1076
g156
sVcom.sina.weibo
p1077
g322
sg940
g777
sg941
g665
sg942
g255
sg25
g297
sg290
g497
sVcom.htc.contacts
p1078
g519
sVcom.tencent.mm
p1079
g616
sg944
g718
ssg69
(dp1080
g666
g160
sg53
g552
sVcom.sina.weibo
p1081
g339
sg559
g495
sg549
g779
sg17
g196
sg63
g644
sVcom.UCMobile
p1082
g232
sg23
g276
sVfm.xiami.main
p1083
g815
sg773
g618
sg926
g363
sVcom.tencent.mobileqq
p1084
g730
ssg71
(dp1085
Vcom.nd.android.pandahome2
p1086
g780
sVcom.tencent.mm
p1087
g619
ssg73
(dp1088
Vcom.vlocker.locker
p1089
g162
sVcom.nd.android.pandahome2
p1090
g781
sg1060
g651
sVcom.smp.musicspeed
p1091
g286
sg1078
g512
sVcom.tencent.mm
p1092
g620
sg944
g720
ssg75
(dp1093
Vcom.android.gallery3d
p1094
g427
sg715
g407
sVcom.vlocker.locker
p1095
g158
sg1004
g352
sVcom.nd.android.pandahome2
p1096
g778
sVcom.nd.desktopcontacts
p1097
g210
sVcom.sina.weibog3
p1098
g684
sVcom.UCMobile
p1099
g250
sVcom.taobao.taobao
p1100
g470
sg1057
g509
sVcom.android.camera
p1101
g842
sg87
g849
sVcom.htc.contacts
p1102
g526
sVcom.tencent.mm
p1103
g617
sVcom.eg.android.AlipayGphone
p1104
g373
sg434
g567
ssg77
(dp1105
g8
g104
sg11
g113
sg15
g165
sg122
g190
sg19
g215
sg197
g261
sg23
g272
sg907
g293
sg27
g315
sVcom.sina.weibo
p1106
g332
sg31
g359
sg879
g376
sVcom.qihoo360.ludashi.cooling
p1107
g388
sg37
g397
sVcom.android.packageinstaller
p1108
g413
sg41
g429
sg43
g449
sg45
g455
sg47
g487
sVcom.htc.contacts
p1109
g516
sg51
g531
sg59
g586
sg57
g577
sg61
g622
sg63
g640
sVcom.android.fileexplorer
p1110
g653
sg75
g725
sg900
g673
sg71
g699
sg73
g703
sg53
g550
sVcom.baidu.tieba
p1111
g798
sVfm.xiami.main
p1112
g809
sVcom.autonavi.minimap
p1113
g826
sg85
g835
sg87
g847
sg89
g853
sg631
g864
sg93
g870
ssg79
(dp1114
g793
g343
sVcom.vlocker.locker
p1115
g167
sg241
g418
sg795
g623
sVcom.nd.android.pandahome2
p1116
g783
sg456
g445
sg1002
g461
sg987
g262
sVcom.tencent.mobileqq
p1117
g733
ssg81
(dp1118
g239
g391
sVcom.vlocker.locker
p1119
g169
sVcom.sina.weibo
p1120
g324
sVcom.nd.android.pandahome2
p1121
g784
sVcom.nd.desktopcontacts
p1122
g188
sg814
g686
sVcom.UCMobile
p1123
g264
sVcom.smp.musicspeed
p1124
g300
sVcom.android.phone
p1125
g485
sVcom.tencent.mm
p1126
g624
sVcom.android.settings
p1127
g548
ssg83
(dp1128
Vcom.tencent.mm
p1129
g625
sVcom.nd.android.pandahome2
p1130
g785
sg152
g634
sVcom.sina.weibog3
p1131
g687
sg1063
g121
sVcom.sina.weibo
p1132
g346
sVcom.eg.android.AlipayGphone
p1133
g369
ssg85
(dp1134
Vcom.nd.android.pandahome2
p1135
g786
sg13
g116
sVcom.vlocker.locker
p1136
g171
sg472
g437
sg995
g502
sVcom.tencent.mm
p1137
g627
sVcom.android.settings
p1138
g555
ssg87
(dp1139
Vcom.nd.android.pandahome2
p1140
g787
sg138
g438
sVcom.tencent.mm
p1141
g629
sVcom.smp.musicspeed
p1142
g302
sg990
g173
ssg89
(dp1143
Vcom.vlocker.locker
p1144
g175
sVcom.nd.android.pandahome2
p1145
g788
sg854
g204
sVcom.sina.weibog3
p1146
g689
sVcom.UCMobile
p1147
g266
sg856
g504
sVcom.tencent.mm
p1148
g630
sVcom.tencent.mobileqq
p1149
g740
ssg91
(dp1150
Vcom.android.settings
p1151
g563
sVcom.tencent.mm
p1152
g632
sVcom.tencent.mobileqq
p1153
g738
ssg93
(dp1154
Vcom.android.settings
p1155
g539
sVcom.nd.android.pandahome2
p1156
g789
sVcom.UCMobile
p1157
g267
sssb.