ccopy_reg
_reconstructor
p1
(cnetworkx.classes.digraph
DiGraph
p2
c__builtin__
object
p3
NtRp4
(dp5
S'node'
p6
(dp7
Vcom.android.browser
p8
(dp9
S'weight'
p10
F0.0051337390600576056
ssVcom.lingan.seeyou
p11
(dp12
g10
F0.0019836704250608987
ssVcom.autonavi.minimap
p13
(dp14
g10
F0.0011267248014345905
ssVcom.android.thememanager
p15
(dp16
g10
F1.5869363400487189e-05
ssVcom.android.deskclock
p17
(dp18
g10
F0.0044513564338366568
ssVcom.android.launcher
p19
(dp20
g10
F0.48141300811717935
ssVcom.sina.weibo
p21
(dp22
g10
F0.0048480905188488365
ssVcom.eg.android.AlipayGphone
p23
(dp24
g10
F0.0011663982099358085
ssVcom.qihoo.appstore
p25
(dp26
g10
F0.00063477453601948754
ssVcn.wps.moffice_eng
p27
(dp28
g10
F0.0017853033825548088
ssVcom.taobao.taobao
p29
(dp30
g10
F0.0019598663799601677
ssVcom.android.phone
p31
(dp32
g10
F0.037721476802958051
ssVcom.miui.gallery
p33
(dp34
g10
F0.007775988066238723
ssVcom.tencent.mm
p35
(dp36
g10
F0.30807988637535805
ssVcom.miui.antispam
p37
(dp38
g10
F0.00048401558371485929
ssVcom.tencent.loverzone
p39
(dp40
g10
F0.0021741027858667447
ssVcom.tencent.androidqqmail
p41
(dp42
g10
F0.00091248839552801337
ssVcom.android.calculator
p43
(dp44
g10
F0.0001666283157051155
ssVcom.android.fileexplorer
p45
(dp46
g10
F0.002039213196962604
ssVcom.tencent.mobileqq
p47
(dp48
g10
F0.10379357132088646
ssVcom.miui.player
p49
(dp50
g10
F0.024153171095541503
ssVcom.android.settings
p51
(dp52
g10
F0.0040228836220235027
ssVcom.android.mms
p53
(dp54
g10
F0.0032532194970998738
ssVcom.miui.video
p55
(dp56
g10
F0.00076172944322338513
ssVcom.android.camera
p57
(dp58
g10
F0.00014282427060438471
sssS'node_dict_factory'
p59
c__builtin__
dict
p60
sS'edge_attr_dict_factory'
p61
g60
sS'succ'
p62
(dp63
g8
(dp64
Vcom.android.launcher
p65
(dp66
g10
I1
sssg11
(dp67
Vcom.android.launcher
p68
(dp69
g10
I1
sssg13
(dp70
Vcom.android.launcher
p71
(dp72
g10
I1
sssg15
(dp73
Vcom.android.launcher
p74
(dp75
g10
I1
sssg17
(dp76
Vcom.tencent.mobileqq
p77
(dp78
g10
F1.3
ssVcom.android.launcher
p79
(dp80
g10
F5.4000000000000004
sssg19
(dp81
g25
(dp82
g10
F2.6000000000000001
ssg8
(dp83
g10
F2.8999999999999999
ssg11
(dp84
g10
F3.2999999999999998
ssg27
(dp85
g10
F7.0000000000000009
ssg41
(dp86
g10
F2.3999999999999999
ssg43
(dp87
g10
I3
ssg21
(dp88
g10
F3.3999999999999999
ssg35
(dp89
g10
F21.999999999999996
ssVcom.android.mms
p90
(dp91
g10
F5.7999999999999998
ssg29
(dp92
g10
F1.7
ssg17
(dp93
g10
F4.7000000000000002
ssg45
(dp94
g10
F14.899999999999999
ssg15
(dp95
g10
I1
ssg51
(dp96
g10
F4.9000000000000004
ssg13
(dp97
g10
F4.2999999999999998
ssg57
(dp98
g10
F1.7
ssg49
(dp99
g10
F11
ssVcom.tencent.mobileqq
p100
(dp101
g10
F12.200000000000001
ssVcom.miui.antispam
p102
(dp103
g10
F2
ssg23
(dp104
g10
F8
ssg39
(dp105
g10
F3.7000000000000002
sssg21
(dp106
Vcom.android.launcher
p107
(dp108
g10
I2
sssg23
(dp109
Vcom.android.launcher
p110
(dp111
g10
I2
sssg25
(dp112
Vcom.tencent.mobileqq
p113
(dp114
g10
F0.69999999999999996
ssVcom.android.launcher
p115
(dp116
g10
I1
ssg41
(dp117
g10
F1.3
sssg27
(dp118
Vcom.android.fileexplorer
p119
(dp120
g10
F7.1000000000000005
ssVcom.android.launcher
p121
(dp122
g10
F5.4000000000000004
ssVcom.autonavi.minimap
p123
(dp124
g10
F0.90000000000000002
sssg29
(dp125
g43
(dp126
g10
F0.90000000000000002
ssg57
(dp127
g10
F0.40000000000000002
ssVcom.android.launcher
p128
(dp129
g10
F1.7
sssg31
(dp130
g43
(dp131
g10
F0.69999999999999996
ssVcom.tencent.mobileqq
p132
(dp133
g10
I1
ssVcom.android.mms
p134
(dp135
g10
F0.69999999999999996
ssVcom.taobao.taobao
p136
(dp137
g10
I2
ssg128
(dp138
g10
F6.2000000000000002
ssVcom.android.camera
p139
(dp140
g10
I1
ssVcom.miui.player
p141
(dp142
g10
F0.69999999999999996
ssVcom.tencent.mm
p143
(dp144
g10
F3.2999999999999998
ssVcom.miui.antispam
p145
(dp146
g10
F1.3
sssg33
(dp147
Vcom.android.launcher
p148
(dp149
g10
I1
sssg35
(dp150
g11
(dp151
g10
F0.90000000000000002
ssg27
(dp152
g10
F1.1000000000000001
ssVcom.qihoo.appstore
p153
(dp154
g10
I1
ssg100
(dp155
g10
F2.2999999999999998
ssVcom.android.mms
p156
(dp157
g10
F0.90000000000000002
ssg29
(dp158
g10
F0.40000000000000002
ssVcom.android.deskclock
p159
(dp160
g10
F3.2999999999999998
ssg45
(dp161
g10
F2.2000000000000002
ssg55
(dp162
g10
I1
ssVcom.android.launcher
p163
(dp164
g10
F24
ssg13
(dp165
g10
F0.90000000000000002
ssg141
(dp166
g10
F0.90000000000000002
ssg21
(dp167
g10
F1.8
ssg37
(dp168
g10
I1
ssVcom.eg.android.AlipayGphone
p169
(dp170
g10
F0.90000000000000002
ssg39
(dp171
g10
F0.90000000000000002
sssg37
(dp172
Vcom.android.camera
p173
(dp174
g10
F1.7
ssg134
(dp175
g10
F14.599999999999998
ssVcom.android.launcher
p176
(dp177
g10
F1.7000000000000002
sssg39
(dp178
Vcom.sina.weibo
p179
(dp180
g10
F0.40000000000000002
ssVcom.tencent.mm
p181
(dp182
g10
F0.90000000000000002
ssg29
(dp183
g10
F0.90000000000000002
ssVcom.android.launcher
p184
(dp185
g10
F3.7000000000000002
sssg41
(dp186
Vcom.android.settings
p187
(dp188
g10
F1.3
ssg113
(dp189
g10
I1
ssVcom.android.launcher
p190
(dp191
g10
F1.7
sssg43
(dp192
g57
(dp193
g10
F0.90000000000000002
ssVcom.tencent.mm
p194
(dp195
g10
F0.40000000000000002
ssVcom.tencent.mobileqq
p196
(dp197
g10
F0.90000000000000002
ssVcom.android.launcher
p198
(dp199
g10
F3.4000000000000004
ssVcom.android.fileexplorer
p200
(dp201
g10
F0.40000000000000002
sssg45
(dp202
g21
(dp203
g10
F0.40000000000000002
ssVcom.tencent.mm
p204
(dp205
g10
F0.90000000000000002
ssg27
(dp206
g10
F10.699999999999999
ssVcom.android.launcher
p207
(dp208
g10
F12.100000000000001
ssg123
(dp209
g10
F0.69999999999999996
sssg47
(dp210
Vcom.tencent.loverzone
p211
(dp212
g10
F0.69999999999999996
ssVcom.tencent.androidqqmail
p213
(dp214
g10
I1
ssg187
(dp215
g10
F0.69999999999999996
ssg159
(dp216
g10
F0.69999999999999996
ssg45
(dp217
g10
F0.80000000000000004
ssg19
(dp218
g10
F15.200000000000001
ssVcom.android.phone
p219
(dp220
g10
I1
ssVcom.miui.player
p221
(dp222
g10
F4.2999999999999998
ssg35
(dp223
g10
F5.0999999999999996
sssg49
(dp224
g11
(dp225
g10
F0.69999999999999996
ssg211
(dp226
g10
F1.3
ssVcom.tencent.mm
p227
(dp228
g10
I1
ssVcom.android.deskclock
p229
(dp230
g10
F0.90000000000000002
ssVcom.android.launcher
p231
(dp232
g10
F8.6999999999999993
ssVcom.tencent.mobileqq
p233
(dp234
g10
I2
ssVcom.eg.android.AlipayGphone
p235
(dp236
g10
F1.3
sssg51
(dp237
Vcom.tencent.mm
p238
(dp239
g10
F0.90000000000000002
ssVcom.eg.android.AlipayGphone
p240
(dp241
g10
F1.3
ssVcom.android.mms
p242
(dp243
g10
F1.7000000000000002
ssg102
(dp244
g10
F1.7
ssVcom.android.launcher
p245
(dp246
g10
F5.1000000000000005
sssg53
(dp247
g173
(dp248
g10
F1.3
ssVcom.miui.antispam
p249
(dp250
g10
F13.899999999999999
ssVcom.android.launcher
p251
(dp252
g10
F3.7000000000000002
sssg55
(dp253
Vcom.tencent.mm
p254
(dp255
g10
I1
ssVcom.android.launcher
p256
(dp257
g10
F0.90000000000000002
sssg57
(dp258
g200
(dp259
g10
F0.90000000000000002
ssg134
(dp260
g10
F2.2000000000000002
ssg145
(dp261
g10
F1.7
ssVcom.android.launcher
p262
(dp263
g10
F3.4000000000000004
ssssS'edge'
p264
g63
sS'graph'
p265
(dp266
sS'adjlist_dict_factory'
p267
g60
sS'adj'
p268
g63
sS'pred'
p269
(dp270
g8
(dp271
Vcom.android.launcher
p272
g83
ssg11
(dp273
g141
g225
sg227
g151
sVcom.android.launcher
p274
g84
ssg13
(dp275
Vcom.android.fileexplorer
p276
g209
sVcom.tencent.mm
p277
g165
sVcn.wps.moffice_eng
p278
g124
sVcom.android.launcher
p279
g97
ssg15
(dp280
Vcom.android.launcher
p281
g95
ssg17
(dp282
Vcom.tencent.mm
p283
g160
sVcom.miui.player
p284
g230
sVcom.tencent.mobileqq
p285
g216
sVcom.android.launcher
p286
g93
ssg19
(dp287
Vcom.android.browser
p288
g66
sVcom.lingan.seeyou
p289
g69
sg123
g72
sg15
g75
sg17
g80
sg179
g108
sg240
g111
sg25
g116
sg27
g122
sVcom.taobao.taobao
p290
g129
sVcom.android.phone
p291
g138
sg33
g149
sg47
g218
sg249
g177
sg39
g185
sg41
g191
sg43
g199
sg35
g164
sg45
g208
sg284
g232
sVcom.android.settings
p292
g246
sg53
g252
sg55
g257
sg57
g263
ssg21
(dp293
Vcom.android.fileexplorer
p294
g203
sg204
g167
sVcom.tencent.loverzone
p295
g180
sVcom.android.launcher
p296
g88
ssg23
(dp297
Vcom.android.settings
p298
g241
sg221
g236
sVcom.tencent.mm
p299
g170
sVcom.android.launcher
p300
g104
ssg25
(dp301
Vcom.tencent.mm
p302
g154
sVcom.android.launcher
p303
g82
ssg27
(dp304
g45
g206
sVcom.tencent.mm
p305
g152
sVcom.android.launcher
p306
g85
ssg29
(dp307
Vcom.tencent.mm
p308
g158
sg39
g183
sVcom.android.launcher
p309
g92
sg31
g137
ssg31
(dp310
g132
g220
ssg33
(dp311
sg35
(dp312
g295
g182
sVcom.android.calculator
p313
g195
sg292
g239
sg55
g255
sg294
g205
sg19
g89
sVcom.android.phone
p314
g144
sg141
g228
sg47
g223
ssg37
(dp315
g51
g244
sg134
g250
sVcom.android.launcher
p316
g103
sVcom.android.phone
p317
g146
sg139
g261
sVcom.tencent.mm
p318
g168
ssg39
(dp319
Vcom.tencent.mobileqq
p320
g212
sVcom.miui.player
p321
g226
sg308
g171
sVcom.android.launcher
p322
g105
ssg41
(dp323
g113
g214
sg303
g86
sg25
g117
ssg43
(dp324
g128
g87
sg290
g126
sg291
g131
ssg45
(dp325
g27
g120
sg43
g201
sg100
g217
sVcom.android.launcher
p326
g94
sg57
g259
sg305
g161
ssg47
(dp327
g41
g189
sg313
g197
sg159
g78
sg163
g101
sVcom.android.phone
p328
g133
sVcom.miui.player
p329
g234
sg35
g155
sg25
g114
ssg49
(dp330
Vcom.tencent.mobileqq
p331
g222
sVcom.tencent.mm
p332
g166
sVcom.android.launcher
p333
g99
sVcom.android.phone
p334
g142
ssg51
(dp335
g113
g215
sg316
g96
sg41
g188
ssg53
(dp336
g51
g243
sg176
g91
sg317
g135
sg139
g260
sg238
g157
sg145
g175
ssg55
(dp337
Vcom.tencent.mm
p338
g162
ssg57
(dp339
g43
g193
sg134
g248
sg290
g127
sg128
g98
sg317
g140
sg249
g174
sssb.