ccopy_reg
_reconstructor
p1
(cnetworkx.classes.digraph
DiGraph
p2
c__builtin__
object
p3
NtRp4
(dp5
S'node'
p6
(dp7
Vcom.android.browser
p8
(dp9
S'weight'
p10
F0.00047803552558748052
ssVcom.chaozh.iReaderFree15
p11
(dp12
g10
F0.00015095858702762543
ssVorg.cocos2dx.GoldenFishGame
p13
(dp14
g10
F0.026241634378302219
ssVcom.autonavi.minimap
p15
(dp16
g10
F2.5159764504604236e-05
ssVcom.qiyi.video
p17
(dp18
g10
F0.018442107381874906
ssVcom.android.deskclock
p19
(dp20
g10
F0.0018115030443315052
ssVcom.xiaomi.hm.health
p21
(dp22
g10
F0.017536355859709155
ssVcom.hunantv.imgo.activity
p23
(dp24
g10
F0.16137472953253157
ssVcom.android.launcher
p25
(dp26
g10
F0.080762844059779598
ssVcom.huawei.android.internal.app
p27
(dp28
g10
F0.0020882604538821517
ssVorg.cocos2dx.FishingJoy2
p29
(dp30
g10
F0.012756000603834349
ssVcom.android.contacts
p31
(dp32
g10
F0.023901776279374023
ssVcom.eg.android.AlipayGphone
p33
(dp34
g10
F0.0011825089317163992
ssVcom.qihoo.appstore
p35
(dp36
g10
F0.0030946510340663213
ssVcom.android.packageinstaller
p37
(dp38
g10
F0.00060383434811050172
ssVcom.adobe.reader
p39
(dp40
g10
F0.025662959794696322
ssVcom.android.gallery3d
p41
(dp42
g10
F0.0080511246414733551
ssVcom.dajie.official
p43
(dp44
g10
F0.00088059175766114824
ssVcom.taobao.taobao
p45
(dp46
g10
F0.02956272329290998
ssVcom.huawei.hidisk
p47
(dp48
g10
F0.001710863986313088
ssVcom.nowcoder.app.florida
p49
(dp50
g10
F0.0255371609721733
ssVcom.tencent.mtt
p51
(dp52
g10
F0.082121471343028232
ssVcom.tencent.mm
p53
(dp54
g10
F0.28319830926382528
ssVcom.android.settings
p55
(dp56
g10
F0.0058119056005635789
ssVcom.baidu.searchbox_huawei
p57
(dp58
g10
F0.0022895385699189855
ssVcom.tencent.androidqqmail
p59
(dp60
g10
F0.00042771599657827201
ssVcom.android.calculator
p61
(dp62
g10
F0.0044784380818195541
ssVorg.cocos2dx.FishingJoy2.Classic.qihu
p63
(dp64
g10
F0.0055603079555175362
ssVcn.wps.moffice_i18n
p65
(dp66
g10
F0.014617823177175061
ssVcom.tencent.qqlive
p67
(dp68
g10
F0.076435364564987673
ssVorg.cocos2d.fishingjoy3.qihu
p69
(dp70
g10
F0.054370251094449755
ssVcom.android.calendar
p71
(dp72
g10
F0.00027675740955064663
ssVcom.tencent.mobileqq
p73
(dp74
g10
F0.014617823177175061
ssVcom.qihoo360.mobilesafe
p75
(dp76
g10
F0.0024153373924420069
ssVcom.letv.android.client
p77
(dp78
g10
F0.0042268404367735114
ssVcom.android.video
p79
(dp80
g10
F0.00055351481910129326
ssVcom.huawei.appmarket
p81
(dp82
g10
F0.0064408997131786844
ssVcom.android.camera
p83
(dp84
g10
F0.00030191717405525086
sssS'node_dict_factory'
p85
c__builtin__
dict
p86
sS'edge_attr_dict_factory'
p87
g86
sS'succ'
p88
(dp89
g8
(dp90
Vcom.tencent.mtt
p91
(dp92
g10
F1.3
ssVcom.android.contacts
p93
(dp94
g10
F0.69999999999999996
ssVcom.android.launcher
p95
(dp96
g10
I1
sssg11
(dp97
Vcom.tencent.mm
p98
(dp99
g10
F0.90000000000000002
ssVcom.taobao.taobao
p100
(dp101
g10
F0.40000000000000002
ssVcom.android.launcher
p102
(dp103
g10
F1.7
sssg13
(dp104
Vcom.android.deskclock
p105
(dp106
g10
F0.40000000000000002
ssVcom.tencent.qqlive
p107
(dp108
g10
F0.90000000000000002
ssVcom.android.launcher
p109
(dp110
g10
F3.4000000000000004
ssg69
(dp111
g10
F0.90000000000000002
sssg15
(dp112
Vcom.tencent.mtt
p113
(dp114
g10
F0.69999999999999996
ssVcom.android.contacts
p115
(dp116
g10
I1
ssVcom.android.launcher
p117
(dp118
g10
F1.3
sssg17
(dp119
Vcom.tencent.mobileqq
p120
(dp121
g10
F0.40000000000000002
ssVcom.tencent.mm
p122
(dp123
g10
F0.90000000000000002
ssVcom.android.launcher
p124
(dp125
g10
F2.7000000000000002
sssg19
(dp126
Vcom.xiaomi.hm.health
p127
(dp128
g10
F0.90000000000000002
ssg51
(dp129
g10
F2.2000000000000002
ssVcom.tencent.mm
p130
(dp131
g10
F0.69999999999999996
ssVcom.android.launcher
p132
(dp133
g10
I4
sssg21
(dp134
g53
(dp135
g10
F3.7999999999999998
ssVcom.qihoo360.mobilesafe
p136
(dp137
g10
F0.40000000000000002
ssg77
(dp138
g10
F0.90000000000000002
ssg45
(dp139
g10
F1.3
ssg19
(dp140
g10
F0.40000000000000002
ssVcn.wps.moffice_i18n
p141
(dp142
g10
F0.40000000000000002
ssVcom.android.launcher
p143
(dp144
g10
F15.899999999999999
ssVcom.huawei.android.internal.app
p145
(dp146
g10
F0.90000000000000002
ssVcom.qiyi.video
p147
(dp148
g10
F0.90000000000000002
ssVcom.tencent.mobileqq
p149
(dp150
g10
F3.1000000000000001
sssg23
(dp151
g71
(dp152
g10
F0.90000000000000002
ssVcom.tencent.mm
p153
(dp154
g10
F10.800000000000001
ssVcn.wps.moffice_i18n
p155
(dp156
g10
F0.69999999999999996
ssVcom.android.deskclock
p157
(dp158
g10
F0.90000000000000002
ssVcom.android.launcher
p159
(dp160
g10
F13.799999999999999
ssVcom.android.settings
p161
(dp162
g10
I1
ssVcom.huawei.android.internal.app
p163
(dp164
g10
F0.90000000000000002
ssVcom.tencent.mobileqq
p165
(dp166
g10
F3
sssg25
(dp167
g8
(dp168
g10
F1.7
ssg11
(dp169
g10
F1.7
ssVorg.cocos2dx.GoldenFishGame
p170
(dp171
g10
I1
ssg15
(dp172
g10
F1.3
ssg17
(dp173
g10
F3.5
ssg19
(dp174
g10
F7.2000000000000002
ssg21
(dp175
g10
F26.199999999999992
ssg23
(dp176
g10
F16.299999999999997
ssg27
(dp177
g10
F37.799999999999997
ssVorg.cocos2dx.FishingJoy2
p178
(dp179
g10
F2.2999999999999998
ssg31
(dp180
g10
F32.699999999999989
ssg33
(dp181
g10
F2.3999999999999999
ssg35
(dp182
g10
F4
ssg37
(dp183
g10
F0.69999999999999996
ssg39
(dp184
g10
F8.4000000000000004
ssg41
(dp185
g10
F4.7000000000000002
ssg43
(dp186
g10
F3.7999999999999998
ssg45
(dp187
g10
F9.0999999999999996
ssg47
(dp188
g10
F3.4000000000000004
ssg49
(dp189
g10
F7.4000000000000004
ssg51
(dp190
g10
F19.799999999999997
ssg149
(dp191
g10
F24.999999999999989
ssg55
(dp192
g10
F9.4000000000000004
ssg57
(dp193
g10
F1.7
ssg59
(dp194
g10
F3.1000000000000001
ssg61
(dp195
g10
F3.0999999999999996
ssg63
(dp196
g10
F0.40000000000000002
ssg65
(dp197
g10
F32.899999999999984
ssg67
(dp198
g10
F8.5
ssg69
(dp199
g10
F1.7
ssg71
(dp200
g10
F1.7
ssg53
(dp201
g10
F81.000000000000057
ssg75
(dp202
g10
F2.7000000000000002
ssg77
(dp203
g10
F2.1000000000000001
ssg79
(dp204
g10
F1.3
ssg81
(dp205
g10
F1.7
ssg83
(dp206
g10
F2.7000000000000002
sssg27
(dp207
g107
(dp208
g10
F0.40000000000000002
ssg57
(dp209
g10
F0.40000000000000002
ssg13
(dp210
g10
F0.90000000000000002
ssg61
(dp211
g10
F0.69999999999999996
ssVcom.tencent.mobileqq
p212
(dp213
g10
F0.40000000000000002
ssg37
(dp214
g10
I3
ssg17
(dp215
g10
F0.69999999999999996
ssg63
(dp216
g10
F0.90000000000000002
ssg21
(dp217
g10
F3.9999999999999996
ssg65
(dp218
g10
F26.199999999999996
ssVcom.android.launcher
p219
(dp220
g10
F34.499999999999979
ssVcom.android.camera
p221
(dp222
g10
F0.69999999999999996
ssVcom.qihoo.appstore
p223
(dp224
g10
F1.3999999999999999
ssVcom.tencent.mm
p225
(dp226
g10
F4.7000000000000002
ssVcom.android.contacts
p227
(dp228
g10
F2.7000000000000002
ssg23
(dp229
g10
F0.69999999999999996
sssg29
(dp230
Vcom.tencent.mm
p231
(dp232
g10
F1.8
ssVcom.android.launcher
p233
(dp234
g10
F4.2000000000000002
sssg31
(dp235
Vcom.android.calculator
p236
(dp237
g10
F0.90000000000000002
ssg15
(dp238
g10
I1
ssVcom.xiaomi.hm.health
p239
(dp240
g10
F1.3
ssVcom.nowcoder.app.florida
p241
(dp242
g10
F0.40000000000000002
ssVcom.android.launcher
p243
(dp244
g10
F30.999999999999989
ssVcom.android.settings
p245
(dp246
g10
F1.3999999999999999
ssVcom.huawei.android.internal.app
p247
(dp248
g10
F3.1000000000000001
ssVcom.tencent.mtt
p249
(dp250
g10
F4.5
ssVcom.tencent.mm
p251
(dp252
g10
F8.6000000000000014
ssg33
(dp253
g10
F1.3
ssVcom.tencent.mobileqq
p254
(dp255
g10
F1.1000000000000001
sssg33
(dp256
Vcom.tencent.mobileqq
p257
(dp258
g10
I1
ssVcom.taobao.taobao
p259
(dp260
g10
F1.3
ssVcom.android.launcher
p261
(dp262
g10
F2.3999999999999999
sssg35
(dp263
Vcom.tencent.qqlive
p264
(dp265
g10
F0.90000000000000002
ssg37
(dp266
g10
F3.5
ssVcom.qihoo360.mobilesafe
p267
(dp268
g10
F1.3
ssg63
(dp269
g10
F0.69999999999999996
ssVcom.android.launcher
p270
(dp271
g10
F2.3999999999999999
ssVcom.huawei.android.internal.app
p272
(dp273
g10
F2.3999999999999999
ssVcom.tencent.mm
p274
(dp275
g10
I1
sssg37
(dp276
g107
(dp277
g10
F0.69999999999999996
ssg13
(dp278
g10
I1
ssg267
(dp279
g10
I1
ssg63
(dp280
g10
I1
ssg270
(dp281
g10
F2.2999999999999998
ssVcom.huawei.android.internal.app
p282
(dp283
g10
F0.69999999999999996
ssg274
(dp284
g10
F0.69999999999999996
ssg223
(dp285
g10
F2.2000000000000002
sssg39
(dp286
Vcom.tencent.mtt
p287
(dp288
g10
F0.90000000000000002
ssVcom.tencent.mm
p289
(dp290
g10
F3.1000000000000001
ssVcom.android.launcher
p291
(dp292
g10
F9.0999999999999996
sssg41
(dp293
Vcom.huawei.hidisk
p294
(dp295
g10
I1
ssg79
(dp296
g10
I1
ssVcom.tencent.mm
p297
(dp298
g10
F0.69999999999999996
ssVcom.android.launcher
p299
(dp300
g10
F1.3
sssg43
(dp301
Vcom.android.deskclock
p302
(dp303
g10
F0.90000000000000002
ssVcom.tencent.mtt
p304
(dp305
g10
F1.3
ssVcom.android.launcher
p306
(dp307
g10
F2.7000000000000002
sssg45
(dp308
Vcom.tencent.mm
p309
(dp310
g10
F13.499999999999998
ssVcom.android.launcher
p311
(dp312
g10
F7.5000000000000009
ssVcom.android.settings
p313
(dp314
g10
F0.90000000000000002
ssVcom.tencent.mobileqq
p315
(dp316
g10
F0.69999999999999996
ssVcom.android.contacts
p317
(dp318
g10
F0.90000000000000002
ssg33
(dp319
g10
F0.40000000000000002
sssg47
(dp320
g297
(dp321
g10
F1.3
ssVcom.android.gallery3d
p322
(dp323
g10
I1
ssg299
(dp324
g10
F2.3999999999999999
ssVcom.qihoo.appstore
p325
(dp326
g10
F0.40000000000000002
sssg49
(dp327
Vcom.android.settings
p328
(dp329
g10
I1
ssVcom.adobe.reader
p330
(dp331
g10
F1.3
ssg43
(dp332
g10
F0.90000000000000002
ssVcom.android.launcher
p333
(dp334
g10
F6.2999999999999998
ssg304
(dp335
g10
F1.5
ssVcom.tencent.mm
p336
(dp337
g10
F3.7000000000000002
ssVcom.android.contacts
p338
(dp339
g10
F0.69999999999999996
ssVcom.tencent.mobileqq
p340
(dp341
g10
F0.40000000000000002
sssg51
(dp342
g8
(dp343
g10
F0.40000000000000002
ssg13
(dp344
g10
F0.69999999999999996
ssg340
(dp345
g10
I1
ssVcom.android.packageinstaller
p346
(dp347
g10
F0.90000000000000002
ssVcom.dajie.official
p348
(dp349
g10
F1.3
ssg302
(dp350
g10
F0.40000000000000002
ssVcom.nowcoder.app.florida
p351
(dp352
g10
F0.69999999999999996
ssg109
(dp353
g10
F16.999999999999996
ssg15
(dp354
g10
F0.69999999999999996
ssVcom.huawei.android.internal.app
p355
(dp356
g10
I1
ssg130
(dp357
g10
F8.0000000000000018
ssVcom.android.contacts
p358
(dp359
g10
F4.7000000000000002
ssg245
(dp360
g10
F0.90000000000000002
sssg53
(dp361
g11
(dp362
g10
F0.40000000000000002
ssVcn.wps.moffice_i18n
p363
(dp364
g10
F0.40000000000000002
ssg19
(dp365
g10
F0.90000000000000002
ssVcom.xiaomi.hm.health
p366
(dp367
g10
F0.90000000000000002
ssVcom.hunantv.imgo.activity
p368
(dp369
g10
F12.700000000000001
ssVcom.android.launcher
p370
(dp371
g10
F66.700000000000017
ssg272
(dp372
g10
F1.6000000000000001
ssg31
(dp373
g10
F10.400000000000002
ssg325
(dp374
g10
F2.2999999999999998
ssg37
(dp375
g10
F1.3
ssVcom.adobe.reader
p376
(dp377
g10
F2.5
ssVcom.taobao.taobao
p378
(dp379
g10
F11.799999999999999
ssVcom.huawei.hidisk
p380
(dp381
g10
F0.40000000000000002
ssVcom.nowcoder.app.florida
p382
(dp383
g10
F5.2999999999999998
ssg51
(dp384
g10
F3.7999999999999998
ssg149
(dp385
g10
F11.500000000000002
ssg59
(dp386
g10
F0.90000000000000002
ssVcom.tencent.qqlive
p387
(dp388
g10
F6.1000000000000005
ssg161
(dp389
g10
F0.69999999999999996
ssg267
(dp390
g10
F0.69999999999999996
ssg178
(dp391
g10
F0.69999999999999996
ssg81
(dp392
g10
F0.90000000000000002
ssg83
(dp393
g10
F1.7
sssg55
(dp394
g8
(dp395
g10
F0.90000000000000002
ssVcom.tencent.mm
p396
(dp397
g10
F1.7000000000000002
ssVcom.android.gallery3d
p398
(dp399
g10
F0.90000000000000002
ssVcom.taobao.taobao
p400
(dp401
g10
I1
ssVcom.xiaomi.hm.health
p402
(dp403
g10
F0.69999999999999996
ssg79
(dp404
g10
F0.69999999999999996
ssVcom.android.launcher
p405
(dp406
g10
F10.000000000000002
ssVcom.tencent.mtt
p407
(dp408
g10
F1.7000000000000002
ssg340
(dp409
g10
F0.69999999999999996
ssVcom.android.contacts
p410
(dp411
g10
F2.3999999999999999
sssg57
(dp412
sg59
(dp413
Vcom.xiaomi.hm.health
p414
(dp415
g10
F1.3
ssVcom.android.launcher
p416
(dp417
g10
F1.7
sssg61
(dp418
sg63
(dp419
Vcom.android.packageinstaller
p420
(dp421
g10
F0.40000000000000002
ssg274
(dp422
g10
F0.90000000000000002
ssg223
(dp423
g10
F1.7
sssg65
(dp424
g264
(dp425
g10
F0.80000000000000004
ssg57
(dp426
g10
F0.90000000000000002
ssg61
(dp427
g10
F0.90000000000000002
ssVcom.tencent.mobileqq
p428
(dp429
g10
F1.7000000000000002
ssVcom.android.settings
p430
(dp431
g10
F0.40000000000000002
ssg41
(dp432
g10
F0.40000000000000002
ssg17
(dp433
g10
F0.90000000000000002
ssg21
(dp434
g10
F5.4000000000000004
ssg45
(dp435
g10
F0.40000000000000002
ssg219
(dp436
g10
F36.200000000000003
ssg81
(dp437
g10
F0.40000000000000002
ssVcom.huawei.android.internal.app
p438
(dp439
g10
F3.6000000000000001
ssg221
(dp440
g10
F0.90000000000000002
ssVcom.qihoo.appstore
p441
(dp442
g10
F0.90000000000000002
ssg53
(dp443
g10
F7.1000000000000014
ssVcom.android.contacts
p444
(dp445
g10
F0.40000000000000002
ssg23
(dp446
g10
F0.90000000000000002
sssg67
(dp447
g71
(dp448
g10
F0.40000000000000002
ssVcom.tencent.mobileqq
p449
(dp450
g10
F1.7
ssVcom.tencent.mm
p451
(dp452
g10
F5.8000000000000007
ssg368
(dp453
g10
F1.6000000000000001
ssVcom.android.launcher
p454
(dp455
g10
F6.7000000000000002
sssg69
(dp456
g105
(dp457
g10
F0.90000000000000002
ssg127
(dp458
g10
F0.40000000000000002
ssVcom.android.launcher
p459
(dp460
g10
F1.7
sssg71
(dp461
Vcom.hunantv.imgo.activity
p462
(dp463
g10
F0.69999999999999996
ssVcom.android.launcher
p464
(dp465
g10
F2.2999999999999998
sssg73
(dp466
Vcom.tencent.qqlive
p467
(dp468
g10
F1.8999999999999999
ssg328
(dp469
g10
F2
ssg39
(dp470
g10
F0.90000000000000002
ssVcom.hunantv.imgo.activity
p471
(dp472
g10
F2.3999999999999999
ssg65
(dp473
g10
F0.69999999999999996
ssg259
(dp474
g10
F0.69999999999999996
ssg382
(dp475
g10
F0.90000000000000002
ssg11
(dp476
g10
F0.90000000000000002
ssg75
(dp477
g10
F1.8
ssg25
(dp478
g10
F23.399999999999995
ssg27
(dp479
g10
F0.90000000000000002
ssVcom.tencent.mtt
p480
(dp481
g10
F1.7
ssVcom.tencent.mm
p482
(dp483
g10
F7.3000000000000007
ssVcom.android.contacts
p484
(dp485
g10
F1.1000000000000001
ssVcom.eg.android.AlipayGphone
p486
(dp487
g10
I1
ssg35
(dp488
g10
F0.69999999999999996
sssg75
(dp489
g282
(dp490
g10
F0.90000000000000002
ssVcom.android.packageinstaller
p491
(dp492
g10
F0.69999999999999996
ssg270
(dp493
g10
F0.40000000000000002
ssg35
(dp494
g10
I2
sssg77
(dp495
sg79
(dp496
sg81
(dp497
g380
(dp498
g10
F1.3
ssg322
(dp499
g10
F0.69999999999999996
ssVcom.android.launcher
p500
(dp501
g10
I1
sssg83
(dp502
g41
(dp503
g10
F0.90000000000000002
ssVcom.tencent.mm
p504
(dp505
g10
F1.7
ssVcom.android.launcher
p506
(dp507
g10
F2.2999999999999998
ssssS'edge'
p508
g89
sS'graph'
p509
(dp510
sS'adjlist_dict_factory'
p511
g86
sS'adj'
p512
g89
sS'pred'
p513
(dp514
g8
(dp515
g245
g395
sg113
g343
sVcom.android.launcher
p516
g168
ssg11
(dp517
Vcom.tencent.mobileqq
p518
g476
sVcom.tencent.mm
p519
g362
sVcom.android.launcher
p520
g169
ssg13
(dp521
g355
g210
sVcom.tencent.mtt
p522
g344
sg346
g278
sVcom.android.launcher
p523
g171
ssg15
(dp524
Vcom.tencent.mtt
p525
g354
sVcom.android.contacts
p526
g238
sVcom.android.launcher
p527
g172
ssg17
(dp528
Vcom.huawei.android.internal.app
p529
g215
sVcom.xiaomi.hm.health
p530
g148
sVcn.wps.moffice_i18n
p531
g433
sVcom.android.launcher
p532
g173
ssg19
(dp533
g69
g457
sg170
g106
sg348
g303
sg21
g140
sg462
g158
sg143
g174
sVcom.tencent.mtt
p534
g350
sg53
g365
ssg21
(dp535
g69
g458
sVcom.tencent.androidqqmail
p536
g415
sVcom.android.settings
p537
g403
sVcn.wps.moffice_i18n
p538
g434
sg105
g128
sVcom.android.launcher
p539
g175
sVcom.huawei.android.internal.app
p540
g217
sVcom.tencent.mm
p541
g367
sg227
g240
ssg23
(dp542
Vcom.android.launcher
p543
g176
sg71
g463
sg254
g472
sVcn.wps.moffice_i18n
p544
g446
sVcom.tencent.qqlive
p545
g453
sVcom.huawei.android.internal.app
p546
g229
sVcom.tencent.mm
p547
g369
ssg25
(dp548
g8
g96
sg11
g103
sg13
g110
sg15
g118
sg65
g436
sg19
g133
sg21
g144
sg45
g312
sg27
g220
sg31
g244
sg33
g262
sVcom.qihoo.appstore
p549
g271
sg491
g281
sg39
g292
sg322
g300
sg43
g307
sg267
g493
sg380
g324
sg49
g334
sg522
g353
sg73
g478
sg55
g406
sg69
g460
sg536
g417
sg17
g125
sg387
g455
sg71
g465
sg53
g371
sg29
g234
sg81
g501
sg83
g507
sVcom.hunantv.imgo.activity
p550
g160
ssg27
(dp551
Vcom.tencent.mobileqq
p552
g479
sg420
g283
sVcom.hunantv.imgo.activity
p553
g164
sg65
g439
sg239
g146
sg267
g490
sVcom.android.launcher
p554
g177
sg522
g356
sg297
g372
sVcom.android.contacts
p555
g248
sg325
g273
ssg29
(dp556
g231
g391
sg233
g179
ssg31
(dp557
g8
g94
sg15
g116
sVcn.wps.moffice_i18n
p558
g445
sg351
g339
sg400
g318
sVcom.android.launcher
p559
g180
sg430
g411
sg247
g228
sg304
g359
sVcom.tencent.mm
p560
g373
sVcom.tencent.mobileqq
p561
g485
ssg33
(dp562
g257
g487
sVcom.android.launcher
p563
g181
sg400
g319
sg317
g253
ssg35
(dp564
g73
g488
sg37
g285
sg75
g494
sg63
g423
sg294
g326
sVcn.wps.moffice_i18n
p565
g442
sg25
g182
sg272
g224
sg297
g374
ssg37
(dp566
g267
g492
sg63
g421
sVcom.android.launcher
p567
g183
sg272
g214
sg522
g347
sg297
g375
sg325
g266
ssg39
(dp568
g289
g377
sVcom.nowcoder.app.florida
p569
g331
sVcom.tencent.mobileqq
p570
g470
sVcom.android.launcher
p571
g184
ssg41
(dp572
g55
g399
sVcn.wps.moffice_i18n
p573
g432
sg380
g323
sVcom.android.launcher
p574
g185
sg81
g499
sg221
g503
ssg43
(dp575
g49
g332
sg249
g349
sVcom.android.launcher
p576
g186
ssg45
(dp577
Vcom.android.launcher
p578
g187
sg313
g401
sVcn.wps.moffice_i18n
p579
g435
sVcom.xiaomi.hm.health
p580
g139
sg11
g101
sg309
g379
sg33
g260
sg257
g474
ssg47
(dp581
g322
g295
sVcom.tencent.mm
p582
g381
sVcom.android.launcher
p583
g188
sg81
g498
ssg49
(dp584
Vcom.tencent.mobileqq
p585
g475
sVcom.tencent.mtt
p586
g352
sVcom.tencent.mm
p587
g383
sVcom.android.contacts
p588
g242
sg576
g189
ssg51
(dp589
g8
g92
sg328
g408
sg330
g288
sg43
g305
sg19
g129
sg49
g335
sg370
g190
sg15
g114
sg53
g384
sg358
g250
sg340
g481
ssg53
(dp590
g11
g99
sg538
g443
sg19
g131
sg21
g135
sg368
g154
sVcom.android.launcher
p591
g201
sVcom.huawei.android.internal.app
p592
g226
sg31
g252
sg223
g275
sg37
g284
sVcom.adobe.reader
p593
g290
sg322
g298
sg45
g310
sg380
g321
sg351
g337
sg51
g357
sg149
g483
sg63
g422
sg147
g123
sg67
g452
sg430
g397
sg29
g232
sg83
g505
ssg55
(dp594
Vcom.tencent.mm
p595
g389
sg363
g431
sVcom.taobao.taobao
p596
g314
sg382
g329
sVcom.hunantv.imgo.activity
p597
g162
sVcom.android.launcher
p598
g192
sg113
g360
sg585
g469
sg115
g246
ssg57
(dp599
Vcom.huawei.android.internal.app
p600
g209
sVcn.wps.moffice_i18n
p601
g426
sVcom.android.launcher
p602
g193
ssg59
(dp603
Vcom.tencent.mm
p604
g386
sVcom.android.launcher
p605
g194
ssg61
(dp606
Vcom.huawei.android.internal.app
p607
g211
sVcn.wps.moffice_i18n
p608
g427
sVcom.android.launcher
p609
g195
sVcom.android.contacts
p610
g237
ssg63
(dp611
g272
g216
sg37
g280
sg567
g196
sg325
g269
ssg65
(dp612
g552
g473
sg239
g142
sg553
g156
sg554
g197
sg27
g218
sVcom.tencent.mm
p613
g364
ssg67
(dp614
g13
g108
sg449
g468
sg346
g277
sg565
g425
sVcom.android.launcher
p615
g198
sg355
g208
sg451
g388
sg441
g265
ssg69
(dp616
g523
g199
sg170
g111
ssg71
(dp617
Vcom.android.launcher
p618
g200
sVcom.tencent.qqlive
p619
g448
sVcom.hunantv.imgo.activity
p620
g152
ssg73
(dp621
Vcom.android.launcher
p622
g191
sg328
g409
sg147
g121
sg141
g429
sVcom.taobao.taobao
p623
g316
sg366
g150
sg382
g341
sVcom.hunantv.imgo.activity
p624
g166
sVcom.tencent.qqlive
p625
g450
sVcom.huawei.android.internal.app
p626
g213
sg407
g345
sg541
g385
sVcom.android.contacts
p627
g255
sg33
g258
ssg75
(dp628
g73
g477
sg420
g279
sVcom.xiaomi.hm.health
p629
g137
sg25
g202
sg274
g390
sg223
g268
ssg77
(dp630
g402
g138
sVcom.android.launcher
p631
g203
ssg79
(dp632
g55
g404
sg398
g296
sg598
g204
ssg81
(dp633
g582
g392
sVcom.android.launcher
p634
g205
sVcn.wps.moffice_i18n
p635
g437
ssg83
(dp636
Vcom.huawei.android.internal.app
p637
g222
sVcom.tencent.mm
p638
g393
sg573
g440
sVcom.android.launcher
p639
g206
sssb.