ccopy_reg
_reconstructor
p1
(cnetworkx.classes.digraph
DiGraph
p2
c__builtin__
object
p3
NtRp4
(dp5
S'node'
p6
(dp7
V\u66b4\u98ce\u5f71\u97f3
p8
(dp9
S'weight'
p10
F0.01
ssV\u7f8e\u56e2\u56e2\u8d2d
p11
(dp12
g10
F0
ssV\u5fae\u4fe1
p13
(dp14
g10
F0.13
ssVQQ\u56fd\u9645\u7248
p15
(dp16
g10
F0.13
ssV\u5fae\u535a
p17
(dp18
g10
F0.01
ssVQQ\u6d4f\u89c8\u5668
p19
(dp20
g10
F0.050000000000000003
ssV\u4e2d\u56fd\u5efa\u8bbe\u94f6\u884c
p21
(dp22
g10
F0
sssS'graph'
p23
(dp24
sS'succ'
p25
(dp26
g8
(dp27
V\u5fae\u4fe1
p28
(dp29
S'weights'
p30
(lp31
I0
aI0
aI7
aI0
aNaI0
aI0
asssg11
(dp32
g28
(dp33
g30
(lp34
I0
aI0
aI5
aI0
aNaI0
aF0.28000000000000003
asssg13
(dp35
g15
(dp36
S'weights'
p37
(lp38
I0
aI0
aI0
aI0
aI0
aI0
aF0.25
assV\u5fae\u535a
p39
(dp40
g30
(lp41
I0
aI0
aI1
aI0
aNaI0
aF-0.23000000000000001
assV\u66b4\u98ce\u5f71\u97f3
p42
(dp43
g37
(lp44
I0
aI0
aI0
aI0
aI0
aI0
aF0.20999999999999999
asssg15
(dp45
g13
(dp46
g37
(lp47
I0
aI0
aI0
aI0
aI0
aI0
aF0.20000000000000001
assg17
(dp48
g37
(lp49
I0
aI0
aI0
aI0
aI0
aI0
aF-0.20999999999999999
assg19
(dp50
g37
(lp51
I0
aI0
aI0
aI0
aI0
aI0
aF0.20000000000000001
asssg17
(dp52
g28
(dp53
g30
(lp54
I0
aI0
aI2
aI0
aNaI0
aF0.27000000000000002
assg15
(dp55
g37
(lp56
I0
aI0
aI0
aI0
aI0
aI0
aF-0.17000000000000001
asssg19
(dp57
g28
(dp58
g30
(lp59
I0
aI0
aI17
aI1
aNaI0
aI0
assg39
(dp60
g30
(lp61
I0
aI0
aI4
aI0
aNaI0
aI0
assg15
(dp62
g37
(lp63
I0
aI0
aI0
aI0
aI0
aI0
aF0.25
asssg21
(dp64
ssS'edge'
p65
g26
sS'pred'
p66
(dp67
g8
(dp68
g13
g43
ssg11
(dp69
sg13
(dp70
g15
g46
sg8
g29
sg19
g58
sg17
g53
sg11
g33
ssg15
(dp71
g13
g36
sg17
g55
sg19
g62
ssg17
(dp72
g13
g40
sg19
g60
sg15
g48
ssg19
(dp73
g15
g50
ssg21
(dp74
ssS'adj'
p75
g26
sb.