ccopy_reg
_reconstructor
p1
(cnetworkx.classes.digraph
DiGraph
p2
c__builtin__
object
p3
NtRp4
(dp5
S'node'
p6
(dp7
Vcom.android.browser
p8
(dp9
S'weight'
p10
F0.010316656135862782
ssVcom.youdao.dict
p11
(dp12
g10
F0.0021633096518670343
ssVcom.iqianjin.client
p13
(dp14
g10
F0.00019841575613740387
ssVcom.cleanmaster.mguard_cn
p15
(dp16
g10
F1.3484565951085701e-05
ssVcom.yuedong.sport
p17
(dp18
g10
F0.0012714019325309374
ssVcom.UCMobile
p19
(dp20
g10
F0.0017751467891322103
ssVcom.tencent.qqmusic
p21
(dp22
g10
F0.0010113424463314275
ssVcom.android.launcher
p23
(dp24
g10
F0.013214874632063986
ssVcom.yulong.android.coolshow
p25
(dp26
g10
F0.87221351076453635
ssVcom.android.contacts
p27
(dp28
g10
F0.00097377829832483165
ssVcom.eg.android.AlipayGphone
p29
(dp30
g10
F0.00049026029065018725
ssVcom.amazon.kindle
p31
(dp32
g10
F0.0089768681902941943
ssVcom.android.packageinstaller
p33
(dp34
g10
F0.002563993897270724
ssVcom.android.gallery3d
p35
(dp36
g10
F0.0012376905176532233
ssVcom.taobao.taobao
p37
(dp38
g10
F0.012819969486353619
ssVcom.android.phone
p39
(dp40
g10
F0.0018791705836120143
ssVcom.tencent.mm
p41
(dp42
g10
F0.036446855399220206
ssVcom.android.calculator
p43
(dp44
g10
F0.00013484565951085701
ssVcom.jd.jrapp
p45
(dp46
g10
F0.00018685755675075898
ssVcom.nuomi
p47
(dp48
g10
F0.0001878207400329794
ssVcom.yulong.android.xtime
p49
(dp50
g10
F0.00054997765414785253
ssVcom.tencent.qqlive
p51
(dp52
g10
F0.0024956078842330747
ssVcom.icoolme.android.weather
p53
(dp54
g10
F0.00013388247622863659
ssVcom.android.email
p55
(dp56
g10
F0.00019263665644408143
ssVcom.android.fileexplorer
p57
(dp58
g10
F0.0019764520951162756
ssVcom.tencent.mobileqq
p59
(dp60
g10
F0.015236596341444621
ssVcom.android.music
p61
(dp62
g10
F0.0026998027400638013
ssVcom.android.mms
p63
(dp64
g10
F0.00029088135123056297
ssVcom.baidu.BaiduMap
p65
(dp66
g10
F0.0010084528964847664
ssVcom.imohoo.favorablecard
p67
(dp68
g10
F0.00048255482439242401
ssVcom.android.settings
p69
(dp70
g10
F6.7422829755428503e-06
ssVcom.tencent.qqpimsecure
p71
(dp72
g10
F0.0064292484088212176
ssVcom.android.camera
p73
(dp74
g10
F0.00042091109433031791
sssS'node_dict_factory'
p75
c__builtin__
dict
p76
sS'edge_attr_dict_factory'
p77
g76
sS'succ'
p78
(dp79
g8
(dp80
Vcom.tencent.mobileqq
p81
(dp82
g10
F1.7
ssVcom.android.mms
p83
(dp84
g10
F0.69999999999999996
ssVcom.tencent.qqmusic
p85
(dp86
g10
F1.7
ssVcom.android.launcher
p87
(dp88
g10
F15.800000000000001
ssVcom.android.phone
p89
(dp90
g10
F1.1000000000000001
ssVcom.yulong.android.coolshow
p91
(dp92
g10
F10.5
ssVcom.tencent.mm
p93
(dp94
g10
F1.7
ssVcom.android.contacts
p95
(dp96
g10
F3
sssg11
(dp97
Vcom.yulong.android.coolshow
p98
(dp99
g10
I11
ssVcom.tencent.mm
p100
(dp101
g10
F2.6000000000000001
ssVcom.android.launcher
p102
(dp103
g10
F5.7999999999999998
ssVcom.tencent.mobileqq
p104
(dp105
g10
F0.40000000000000002
sssg13
(dp106
Vcom.amazon.kindle
p107
(dp108
g10
F0.40000000000000002
ssVcom.tencent.qqlive
p109
(dp110
g10
F0.40000000000000002
ssVcom.android.launcher
p111
(dp112
g10
F7.9000000000000004
sssg15
(dp113
Vcom.yulong.android.xtime
p114
(dp115
g10
I1
ssVcom.tencent.mm
p116
(dp117
g10
F0.90000000000000002
ssVcom.android.launcher
p118
(dp119
g10
I1
sssg17
(dp120
Vcom.yulong.android.coolshow
p121
(dp122
g10
I1
ssVcom.tencent.mm
p123
(dp124
g10
F5.0000000000000009
ssVcom.tencent.mobileqq
p125
(dp126
g10
F18.999999999999996
ssVcom.android.launcher
p127
(dp128
g10
F31.799999999999983
ssVcom.UCMobile
p129
(dp130
g10
F0.40000000000000002
sssg19
(dp131
Vcom.yulong.android.coolshow
p132
(dp133
g10
F0.40000000000000002
ssVcom.android.packageinstaller
p134
(dp135
g10
F2.7000000000000002
ssVcom.android.contacts
p136
(dp137
g10
F1.8
ssVcom.android.launcher
p138
(dp139
g10
F5.7000000000000002
ssVcom.android.phone
p140
(dp141
g10
F2.2999999999999998
sssg21
(dp142
Vcom.android.browser
p143
(dp144
g10
I1
ssg83
(dp145
g10
F0.40000000000000002
ssVcom.android.launcher
p146
(dp147
g10
F2.3999999999999999
ssVcom.android.phone
p148
(dp149
g10
F0.69999999999999996
ssVcom.yulong.android.coolshow
p150
(dp151
g10
F2.3999999999999999
ssVcom.android.contacts
p152
(dp153
g10
F2.2000000000000002
sssg23
(dp154
g13
(dp155
g10
F9
ssVcom.cleanmaster.mguard_cn
p156
(dp157
g10
F0.90000000000000002
ssVcom.UCMobile
p158
(dp159
g10
F5.0999999999999996
ssg21
(dp160
g10
F3.7999999999999998
ssg25
(dp161
g10
F139.20000000000005
ssg27
(dp162
g10
F25.299999999999997
ssg29
(dp163
g10
F5.6000000000000005
ssVcom.amazon.kindle
p164
(dp165
g10
F20.699999999999996
ssg134
(dp166
g10
F1.8999999999999999
ssVcom.android.gallery3d
p167
(dp168
g10
F5.7000000000000002
ssg37
(dp169
g10
F24.799999999999994
ssg39
(dp170
g10
F45.799999999999983
ssg59
(dp171
g10
F60.299999999999983
ssVcom.jd.jrapp
p172
(dp173
g10
F11.4
ssg47
(dp174
g10
F3.3999999999999999
ssVcom.yulong.android.xtime
p175
(dp176
g10
F15.499999999999998
ssg51
(dp177
g10
F11.800000000000001
ssg53
(dp178
g10
F2.7000000000000002
ssg55
(dp179
g10
F21.199999999999992
ssg57
(dp180
g10
F32.699999999999982
ssg41
(dp181
g10
F245.20000000000007
ssg61
(dp182
g10
F7.4000000000000012
ssg63
(dp183
g10
F35.399999999999984
ssVcom.yuedong.sport
p184
(dp185
g10
F21.899999999999999
ssg67
(dp186
g10
F2.1000000000000001
ssg69
(dp187
g10
F4.7999999999999998
ssg71
(dp188
g10
F13.9
ssg73
(dp189
g10
F12
sssg25
(dp190
Vcom.android.browser
p191
(dp192
g10
F14.499999999999998
ssVcom.youdao.dict
p193
(dp194
g10
I5
ssVcom.iqianjin.client
p195
(dp196
g10
F1.3
ssg156
(dp197
g10
I1
ssVcom.yuedong.sport
p198
(dp199
g10
F12.9
ssg19
(dp200
g10
F5.2000000000000002
ssVcom.tencent.qqmusic
p201
(dp202
g10
F9.8000000000000007
ssVcom.android.launcher
p203
(dp204
g10
F380.69999999999857
ssg27
(dp205
g10
F17.899999999999995
ssVcom.eg.android.AlipayGphone
p206
(dp207
g10
F1.8999999999999999
ssVcom.amazon.kindle
p208
(dp209
g10
F4.2000000000000002
ssVcom.android.packageinstaller
p210
(dp211
g10
F6.9000000000000012
ssg35
(dp212
g10
F13.400000000000002
ssVcom.taobao.taobao
p213
(dp214
g10
F10.1
ssg39
(dp215
g10
F63.099999999999987
ssg41
(dp216
g10
F153.10000000000028
ssVcom.android.calculator
p217
(dp218
g10
I1
ssVcom.jd.jrapp
p219
(dp220
g10
I1
ssVcom.yulong.android.xtime
p221
(dp222
g10
F4.7999999999999998
ssVcom.tencent.qqlive
p223
(dp224
g10
F1.1000000000000001
ssVcom.icoolme.android.weather
p225
(dp226
g10
I1
ssVcom.android.email
p227
(dp228
g10
F1.1000000000000001
ssVcom.android.fileexplorer
p229
(dp230
g10
F0.90000000000000002
ssg59
(dp231
g10
F17.399999999999995
ssVcom.android.mms
p232
(dp233
g10
F8.5000000000000018
ssg65
(dp234
g10
F5.7000000000000002
ssg69
(dp235
g10
F2.2000000000000002
ssVcom.tencent.qqpimsecure
p236
(dp237
g10
F6.5000000000000009
ssg73
(dp238
g10
F5
sssg27
(dp239
Vcom.android.mms
p240
(dp241
g10
F1.3
ssVcom.yuedong.sport
p242
(dp243
g10
I1
ssg158
(dp244
g10
F0.90000000000000002
ssVcom.android.launcher
p245
(dp246
g10
F21.299999999999997
ssVcom.android.phone
p247
(dp248
g10
F15.100000000000001
ssVcom.yulong.android.coolshow
p249
(dp250
g10
F3.9000000000000004
ssVcom.tencent.mm
p251
(dp252
g10
F4.2000000000000002
sssg29
(dp253
Vcom.yulong.android.coolshow
p254
(dp255
g10
I2
ssg227
(dp256
g10
F0.90000000000000002
ssVcom.jd.jrapp
p257
(dp258
g10
F0.40000000000000002
ssVcom.android.launcher
p259
(dp260
g10
F11.1
sssg31
(dp261
Vcom.yulong.android.coolshow
p262
(dp263
g10
I2
ssg67
(dp264
g10
F0.90000000000000002
ssVcom.android.launcher
p265
(dp266
g10
F9.9000000000000021
ssVcom.android.browser
p267
(dp268
g10
F1.7
sssg33
(dp269
Vcom.yulong.android.coolshow
p270
(dp271
g10
F6.5000000000000009
ssVcom.tencent.mm
p272
(dp273
g10
F6.5000000000000009
ssVcom.android.launcher
p274
(dp275
g10
F3.5
sssg35
(dp276
Vcom.android.launcher
p277
(dp278
g10
F18.699999999999999
sssg37
(dp279
Vcom.yulong.android.coolshow
p280
(dp281
g10
I3
ssVcom.tencent.mm
p282
(dp283
g10
F20.799999999999994
ssVcom.jd.jrapp
p284
(dp285
g10
F1.3
ssVcom.android.launcher
p286
(dp287
g10
F13.9
sssg39
(dp288
g63
(dp289
g10
F1.5
ssg242
(dp290
g10
F1.3
ssVcom.UCMobile
p291
(dp292
g10
F1.7
ssVcom.android.launcher
p293
(dp294
g10
F43.499999999999979
ssVcom.yulong.android.coolshow
p295
(dp296
g10
F62.899999999999984
ssVcom.tencent.mm
p297
(dp298
g10
F2.6999999999999997
ssVcom.android.contacts
p299
(dp300
g10
F10.899999999999999
sssg41
(dp301
g129
(dp302
g10
F1.3
ssVcom.tencent.qqlive
p303
(dp304
g10
F0.90000000000000002
ssVcom.yulong.android.xtime
p305
(dp306
g10
F6.9000000000000012
ssVcom.amazon.kindle
p307
(dp308
g10
F1.5
ssg61
(dp309
g10
F0.69999999999999996
ssVcom.android.mms
p310
(dp311
g10
F4.2999999999999998
ssVcom.yuedong.sport
p312
(dp313
g10
F3.7999999999999998
ssg172
(dp314
g10
F0.40000000000000002
ssg47
(dp315
g10
F1.8
ssVcom.android.fileexplorer
p316
(dp317
g10
F1.3
ssg21
(dp318
g10
F0.90000000000000002
ssVcom.taobao.taobao
p319
(dp320
g10
F14.300000000000002
ssVcom.android.launcher
p321
(dp322
g10
F159.9000000000002
ssVcom.android.phone
p323
(dp324
g10
F7.3000000000000016
ssg71
(dp325
g10
F0.40000000000000002
ssVcom.yulong.android.coolshow
p326
(dp327
g10
F40.299999999999997
ssg55
(dp328
g10
F2.8999999999999999
ssg59
(dp329
g10
F10.900000000000002
ssVcom.android.contacts
p330
(dp331
g10
F2.6000000000000001
ssVcom.android.settings
p332
(dp333
g10
I1
sssg43
(dp334
Vcom.yulong.android.coolshow
p335
(dp336
g10
I1
ssVcom.tencent.mm
p337
(dp338
g10
F1.3
ssVcom.android.launcher
p339
(dp340
g10
F1.7
sssg45
(dp341
Vcom.iqianjin.client
p342
(dp343
g10
F0.40000000000000002
ssg29
(dp344
g10
F0.40000000000000002
ssVcom.android.launcher
p345
(dp346
g10
F13.799999999999999
ssVcom.taobao.taobao
p347
(dp348
g10
F0.40000000000000002
sssg47
(dp349
g55
(dp350
g10
F0.90000000000000002
ssVcom.tencent.mm
p351
(dp352
g10
F0.40000000000000002
ssg172
(dp353
g10
F0.90000000000000002
ssVcom.android.launcher
p354
(dp355
g10
F3.8000000000000003
sssg49
(dp356
Vcom.tencent.mobileqq
p357
(dp358
g10
F1.8
ssVcom.android.fileexplorer
p359
(dp360
g10
F0.40000000000000002
ssVcom.android.launcher
p361
(dp362
g10
F7.5
ssg15
(dp363
g10
I1
ssVcom.yulong.android.coolshow
p364
(dp365
g10
I10
ssVcom.tencent.mm
p366
(dp367
g10
F8.1000000000000014
sssg51
(dp368
Vcom.yulong.android.coolshow
p369
(dp370
g10
I1
ssVcom.tencent.mobileqq
p371
(dp372
g10
F1.3
ssVcom.yuedong.sport
p373
(dp374
g10
F0.69999999999999996
ssVcom.android.launcher
p375
(dp376
g10
F10.100000000000001
sssg53
(dp377
Vcom.yulong.android.coolshow
p378
(dp379
g10
I1
ssVcom.tencent.mm
p380
(dp381
g10
F1.3
ssVcom.android.launcher
p382
(dp383
g10
F2.7000000000000002
sssg55
(dp384
Vcom.nuomi
p385
(dp386
g10
F0.40000000000000002
ssVcom.tencent.mobileqq
p387
(dp388
g10
F1.5
ssg351
(dp389
g10
F1.8999999999999999
ssVcom.eg.android.AlipayGphone
p390
(dp391
g10
I1
ssVcom.android.launcher
p392
(dp393
g10
F21.799999999999994
sssg57
(dp394
Vcom.yulong.android.xtime
p395
(dp396
g10
F0.40000000000000002
ssg61
(dp397
g10
F6.9000000000000012
ssVcom.android.launcher
p398
(dp399
g10
F23.499999999999996
ssg53
(dp400
g10
F0.90000000000000002
sssg59
(dp401
Vcom.UCMobile
p402
(dp403
g10
F0.90000000000000002
ssVcom.android.browser
p404
(dp405
g10
I1
ssg223
(dp406
g10
F1.3
ssg316
(dp407
g10
F1.7000000000000002
ssVcom.android.music
p408
(dp409
g10
F0.69999999999999996
ssg89
(dp410
g10
F0.40000000000000002
ssVcom.android.mms
p411
(dp412
g10
F1.3
ssVcom.yuedong.sport
p413
(dp414
g10
F24.29999999999999
ssg47
(dp415
g10
F0.40000000000000002
ssg221
(dp416
g10
I1
ssVcom.android.launcher
p417
(dp418
g10
F49.29999999999999
ssVcom.icoolme.android.weather
p419
(dp420
g10
F0.90000000000000002
ssg71
(dp421
g10
F0.90000000000000002
ssVcom.yulong.android.coolshow
p422
(dp423
g10
F13.699999999999999
ssVcom.tencent.mm
p424
(dp425
g10
F8.9000000000000021
ssg95
(dp426
g10
F2
sssg61
(dp427
Vcom.android.fileexplorer
p428
(dp429
g10
F3.3999999999999999
ssVcom.android.launcher
p430
(dp431
g10
F4.9000000000000004
ssg395
(dp432
g10
F0.90000000000000002
sssg63
(dp433
Vcom.tencent.mobileqq
p434
(dp435
g10
F0.40000000000000002
ssVcom.yulong.android.coolshow
p436
(dp437
g10
I1
ssVcom.tencent.mm
p438
(dp439
g10
F9.2000000000000011
ssVcom.android.launcher
p440
(dp441
g10
F19.099999999999998
ssg164
(dp442
g10
F0.90000000000000002
sssg65
(dp443
Vcom.android.launcher
p444
(dp445
g10
F5.7000000000000002
sssg67
(dp446
Vcom.android.launcher
p447
(dp448
g10
F2.9999999999999996
sssg69
(dp449
Vcom.tencent.mm
p450
(dp451
g10
F2.3999999999999999
ssVcom.android.launcher
p452
(dp453
g10
F4.5
sssg71
(dp454
Vcom.android.launcher
p455
(dp456
g10
F20.099999999999994
sssg73
(dp457
Vcom.tencent.mm
p458
(dp459
g10
F1.3
ssVcom.android.launcher
p460
(dp461
g10
F3.7000000000000002
ssssS'edge'
p462
g79
sS'graph'
p463
(dp464
sS'adjlist_dict_factory'
p465
g76
sS'adj'
p466
g79
sS'pred'
p467
(dp468
g8
(dp469
g91
g192
sg85
g144
sg81
g405
sVcom.amazon.kindle
p470
g268
ssg11
(dp471
g98
g194
ssg13
(dp472
Vcom.yulong.android.coolshow
p473
g196
sVcom.jd.jrapp
p474
g343
sVcom.android.launcher
p475
g155
ssg15
(dp476
Vcom.yulong.android.xtime
p477
g363
sVcom.android.launcher
p478
g157
sVcom.yulong.android.coolshow
p479
g197
ssg17
(dp480
Vcom.android.launcher
p481
g185
sVcom.tencent.mobileqq
p482
g414
sg303
g374
sVcom.android.phone
p483
g290
sg121
g199
sVcom.tencent.mm
p484
g313
sVcom.android.contacts
p485
g243
ssg19
(dp486
g104
g403
sg242
g130
sVcom.android.launcher
p487
g159
sVcom.android.phone
p488
g292
sVcom.yulong.android.coolshow
p489
g200
sVcom.tencent.mm
p490
g302
sVcom.android.contacts
p491
g244
ssg21
(dp492
g150
g202
sVcom.tencent.mm
p493
g318
sVcom.android.launcher
p494
g160
sVcom.android.browser
p495
g86
ssg23
(dp496
g8
g88
sVcom.youdao.dict
p497
g103
sg13
g112
sg156
g119
sg312
g128
sg19
g139
sVcom.tencent.qqmusic
p498
g147
sg25
g204
sVcom.android.contacts
p499
g246
sg29
g260
sg107
g266
sg134
g275
sVcom.android.gallery3d
p500
g278
sVcom.taobao.taobao
p501
g287
sVcom.android.phone
p502
g294
sVcom.tencent.mobileqq
p503
g418
sg43
g340
sg45
g346
sg47
g355
sVcom.yulong.android.xtime
p504
g362
sVcom.tencent.qqlive
p505
g376
sg53
g383
sg55
g393
sg57
g399
sg41
g322
sg61
g431
sg232
g441
sg65
g445
sg67
g448
sg69
g453
sg71
g456
sVcom.android.camera
p506
g461
ssg25
(dp507
Vcom.android.browser
p508
g92
sVcom.tencent.qqlive
p509
g370
sg11
g99
sg129
g133
sg43
g336
sg31
g263
sg33
g271
sg484
g327
sVcom.android.mms
p510
g437
sg17
g122
sVcom.taobao.taobao
p511
g281
sg49
g365
sVcom.icoolme.android.weather
p512
g379
sVcom.tencent.qqmusic
p513
g151
sVcom.android.launcher
p514
g161
sg39
g296
sVcom.tencent.mobileqq
p515
g423
sg330
g250
sVcom.eg.android.AlipayGphone
p516
g255
ssg27
(dp517
Vcom.android.browser
p518
g96
sVcom.tencent.mm
p519
g331
sg158
g137
sg498
g153
sVcom.android.launcher
p520
g162
sVcom.android.phone
p521
g300
sVcom.yulong.android.coolshow
p522
g205
sg81
g426
ssg29
(dp523
Vcom.yulong.android.coolshow
p524
g207
sg227
g391
sVcom.android.launcher
p525
g163
sg172
g344
ssg31
(dp526
g262
g209
sg13
g108
sVcom.tencent.mm
p527
g308
sVcom.android.mms
p528
g442
sVcom.android.launcher
p529
g165
ssg33
(dp530
g270
g211
sg138
g166
sg19
g135
ssg35
(dp531
Vcom.yulong.android.coolshow
p532
g212
sVcom.android.launcher
p533
g168
ssg37
(dp534
Vcom.yulong.android.coolshow
p535
g214
sVcom.tencent.mm
p536
g320
sVcom.jd.jrapp
p537
g348
sVcom.android.launcher
p538
g169
ssg39
(dp539
g404
g90
sg81
g410
sg158
g141
sVcom.tencent.qqmusic
p540
g149
sVcom.android.launcher
p541
g170
sVcom.yulong.android.coolshow
p542
g215
sVcom.tencent.mm
p543
g324
sVcom.android.contacts
p544
g248
ssg41
(dp545
g508
g94
sg497
g101
sg43
g338
sg69
g451
sVcom.android.packageinstaller
p546
g273
sVcom.android.phone
p547
g298
sg232
g439
sVcom.yuedong.sport
p548
g124
sVcom.taobao.taobao
p549
g283
sg47
g352
sg221
g367
sVcom.android.camera
p550
g459
sg514
g181
sg512
g381
sg25
g216
sg55
g389
sg503
g425
sVcom.android.contacts
p551
g252
sg156
g117
ssg43
(dp552
g335
g218
ssg45
(dp553
g347
g285
sg385
g353
sVcom.android.launcher
p554
g173
sVcom.yulong.android.coolshow
p555
g220
sg351
g314
sg390
g258
ssg47
(dp556
Vcom.tencent.mm
p557
g315
sg55
g386
sVcom.tencent.mobileqq
p558
g415
sVcom.android.launcher
p559
g174
ssg49
(dp560
g357
g416
sVcom.android.music
p561
g432
sVcom.android.fileexplorer
p562
g396
sVcom.android.launcher
p563
g176
sg15
g115
sVcom.yulong.android.coolshow
p564
g222
sVcom.tencent.mm
p565
g306
ssg51
(dp566
Vcom.yulong.android.coolshow
p567
g224
sg342
g110
sVcom.tencent.mm
p568
g304
sVcom.tencent.mobileqq
p569
g406
sVcom.android.launcher
p570
g177
ssg53
(dp571
Vcom.android.fileexplorer
p572
g400
sVcom.tencent.mobileqq
p573
g420
sVcom.android.launcher
p574
g178
sg378
g226
ssg55
(dp575
g47
g350
sg524
g228
sg557
g328
sg206
g256
sVcom.android.launcher
p576
g179
ssg57
(dp577
Vcom.tencent.mobileqq
p578
g407
sg61
g429
sVcom.yulong.android.xtime
p579
g360
sg23
g180
sVcom.yulong.android.coolshow
p580
g230
sVcom.tencent.mm
p581
g317
ssg59
(dp582
Vcom.android.browser
p583
g82
sg109
g372
sVcom.android.mms
p584
g435
sVcom.yuedong.sport
p585
g126
sg504
g358
sg203
g171
sg25
g231
sVcom.android.email
p586
g388
sg41
g329
sVcom.youdao.dict
p587
g105
ssg61
(dp588
g316
g397
sg581
g309
sVcom.android.launcher
p589
g182
sVcom.tencent.mobileqq
p590
g409
ssg63
(dp591
g143
g84
sVcom.tencent.mobileqq
p592
g412
sg85
g145
sg293
g183
sg502
g289
sVcom.yulong.android.coolshow
p593
g233
sVcom.tencent.mm
p594
g311
sVcom.android.contacts
p595
g241
ssg65
(dp596
Vcom.yulong.android.coolshow
p597
g234
ssg67
(dp598
g107
g264
sVcom.android.launcher
p599
g186
ssg69
(dp600
Vcom.yulong.android.coolshow
p601
g235
sVcom.tencent.mm
p602
g333
sVcom.android.launcher
p603
g187
ssg71
(dp604
g434
g421
sg438
g325
sVcom.android.launcher
p605
g188
sVcom.yulong.android.coolshow
p606
g237
ssg73
(dp607
Vcom.yulong.android.coolshow
p608
g238
sVcom.android.launcher
p609
g189
sssb.