ccopy_reg
_reconstructor
p1
(cnetworkx.classes.graph
Graph
p2
c__builtin__
object
p3
NtRp4
(dp5
S'node'
p6
(dp7
VQQ
p8
(dp9
sV\u817e\u8baf\u65b0\u95fb
p10
(dp11
sV[ColorOS\u684c\u9762]
p12
(dp13
sVCalendar.apk
p14
(dp15
sV\u7231\u5947\u827a\u89c6\u9891
p16
(dp17
sV\u5fae\u4fe1
p18
(dp19
sV[\u6e38\u620f\u4e2d\u5fc3]
p20
(dp21
sV[\u653e\u5f00\u90a3\u4e09\u56fd]
p22
(dp23
sV[\u6b22\u4e50\u9ebb\u5c06\u5168\u96c6]
p24
(dp25
sV[\u5fcd\u8005\u767e\u5206\u767e]
p26
(dp27
sV\u76f8\u673a
p28
(dp29
sV[\u8f6f\u4ef6\u5546\u5e97]
p30
(dp31
sV\u5fae\u535a
p32
(dp33
sVClock.apk
p34
(dp35
sV[\u7761\u89c9\u8bf7\u5173\u706f]
p36
(dp37
sVMms.apk
p38
(dp39
sV\u4e50\u89c6\u89c6\u9891
p40
(dp41
sVBrowser.apk
p42
(dp43
sV[OppoPreventMode]
p44
(dp45
sVPhone.apk
p46
(dp47
ssS'graph'
p48
(dp49
sS'edge'
p50
(dp51
g8
(dp52
V[ColorOS\u684c\u9762]
p53
(dp54
S'weights'
p55
(lp56
I0
aI0
aI0
aI0
aI0
aI0
aI1
assV[\u8f6f\u4ef6\u5546\u5e97]
p57
(dp58
g55
(lp59
I0
aI0
aI0
aI0
aI0
aI0
aI1
assV\u5fae\u4fe1
p60
(dp61
g55
(lp62
I0
aI0
aI0
aI0
aI0
aI0
aI1
assV[\u653e\u5f00\u90a3\u4e09\u56fd]
p63
(dp64
g55
(lp65
I0
aI0
aI0
aI0
aI0
aI0
aI1
assg34
(dp66
g55
(lp67
I0
aI0
aI0
aI0
aI0
aI0
aI1
assV[\u7761\u89c9\u8bf7\u5173\u706f]
p68
(dp69
g55
(lp70
I0
aI0
aI0
aI0
aI0
aI0
aI1
assg38
(dp71
g55
(lp72
I0
aI0
aI0
aI0
aI0
aI0
aI1
assg42
(dp73
g55
(lp74
I0
aI0
aI0
aI0
aI0
aI0
aI1
assV[OppoPreventMode]
p75
(dp76
g55
(lp77
I0
aI0
aI0
aI0
aI0
aI0
aI1
assg46
(dp78
g55
(lp79
I0
aI0
aI0
aI0
aI0
aI0
aI2
asssg10
(dp80
V[ColorOS\u684c\u9762]
p81
(dp82
g55
(lp83
I0
aI0
aI0
aI0
aI0
aI0
aI1
assV[\u653e\u5f00\u90a3\u4e09\u56fd]
p84
(dp85
g55
(lp86
I0
aI0
aI0
aI0
aI0
aI0
aI1
asssg12
(dp87
VQQ
p88
g54
sg10
g82
sg14
(dp89
g55
(lp90
I0
aI0
aI0
aI0
aI0
aI0
aI1
assg16
(dp91
g55
(lp92
I0
aI0
aI0
aI0
aI0
aI0
aI3
assg18
(dp93
g55
(lp94
I0
aI0
aI0
aI0
aI0
aI0
aI2
assV[\u6e38\u620f\u4e2d\u5fc3]
p95
(dp96
g55
(lp97
I0
aI0
aI0
aI0
aI0
aI0
aI1
assV[\u653e\u5f00\u90a3\u4e09\u56fd]
p98
(dp99
g55
(lp100
I0
aI0
aI0
aI0
aI0
aI0
aI35
assV[\u6b22\u4e50\u9ebb\u5c06\u5168\u96c6]
p101
(dp102
g55
(lp103
I0
aI0
aI0
aI0
aI0
aI0
aI4
assV[\u5fcd\u8005\u767e\u5206\u767e]
p104
(dp105
g55
(lp106
I0
aI0
aI0
aI0
aI0
aI0
aI4
assg28
(dp107
g55
(lp108
I0
aI0
aI0
aI0
aI0
aI0
aI1
assV[\u8f6f\u4ef6\u5546\u5e97]
p109
(dp110
g55
(lp111
I0
aI0
aI0
aI0
aI0
aI0
aI4
assg32
(dp112
g55
(lp113
I0
aI0
aI0
aI0
aI0
aI0
aI1
assg34
(dp114
g55
(lp115
I0
aI0
aI0
aI0
aI0
aI0
aI2
assV[\u7761\u89c9\u8bf7\u5173\u706f]
p116
(dp117
g55
(lp118
I0
aI0
aI0
aI0
aI0
aI0
aI1
assg38
(dp119
g55
(lp120
I0
aI0
aI0
aI0
aI0
aI0
aI12
assg40
(dp121
g55
(lp122
I0
aI0
aI0
aI0
aI0
aI0
aI2
assg42
(dp123
g55
(lp124
I0
aI0
aI0
aI0
aI0
aI0
aI4
assV[OppoPreventMode]
p125
(dp126
g55
(lp127
I0
aI0
aI0
aI0
aI0
aI0
aI3
assg46
(dp128
g55
(lp129
I0
aI0
aI0
aI0
aI0
aI0
aI10
asssg14
(dp130
V[ColorOS\u684c\u9762]
p131
g89
sV[\u8f6f\u4ef6\u5546\u5e97]
p132
(dp133
g55
(lp134
I0
aI0
aI0
aI0
aI0
aI0
aI1
assV[\u653e\u5f00\u90a3\u4e09\u56fd]
p135
(dp136
g55
(lp137
I0
aI0
aI0
aI0
aI0
aI0
aI1
assV[\u5fcd\u8005\u767e\u5206\u767e]
p138
(dp139
g55
(lp140
I0
aI0
aI0
aI0
aI0
aI0
aI1
assV[\u6b22\u4e50\u9ebb\u5c06\u5168\u96c6]
p141
(dp142
g55
(lp143
I0
aI0
aI0
aI0
aI0
aI0
aI1
assg34
(dp144
g55
(lp145
I0
aI0
aI0
aI0
aI0
aI0
aI1
assg38
(dp146
g55
(lp147
I0
aI0
aI0
aI0
aI0
aI0
aI1
assg40
(dp148
g55
(lp149
I0
aI0
aI0
aI0
aI0
aI0
aI1
assV[OppoPreventMode]
p150
(dp151
g55
(lp152
I0
aI0
aI0
aI0
aI0
aI0
aI1
assg46
(dp153
g55
(lp154
I0
aI0
aI0
aI0
aI0
aI0
aI2
asssg16
(dp155
V[ColorOS\u684c\u9762]
p156
g91
sV[\u653e\u5f00\u90a3\u4e09\u56fd]
p157
(dp158
g55
(lp159
I0
aI0
aI0
aI0
aI0
aI0
aI1
assg38
(dp160
g55
(lp161
I0
aI0
aI0
aI0
aI0
aI0
aI1
asssg18
(dp162
g88
g61
sV[ColorOS\u684c\u9762]
p163
g93
sV[\u8f6f\u4ef6\u5546\u5e97]
p164
(dp165
g55
(lp166
I0
aI0
aI0
aI0
aI0
aI0
aI2
assV[\u653e\u5f00\u90a3\u4e09\u56fd]
p167
(dp168
g55
(lp169
I0
aI0
aI0
aI0
aI0
aI0
aI2
assV[\u5fcd\u8005\u767e\u5206\u767e]
p170
(dp171
g55
(lp172
I0
aI0
aI0
aI0
aI0
aI0
aI1
assg34
(dp173
g55
(lp174
I0
aI0
aI0
aI0
aI0
aI0
aI1
assV[\u7761\u89c9\u8bf7\u5173\u706f]
p175
(dp176
g55
(lp177
I0
aI0
aI0
aI0
aI0
aI0
aI1
assg38
(dp178
g55
(lp179
I0
aI0
aI0
aI0
aI0
aI0
aI1
assg42
(dp180
g55
(lp181
I0
aI0
aI0
aI0
aI0
aI0
aI1
assV[OppoPreventMode]
p182
(dp183
g55
(lp184
I0
aI0
aI0
aI0
aI0
aI0
aI1
assg46
(dp185
g55
(lp186
I0
aI0
aI0
aI0
aI0
aI0
aI2
asssg20
(dp187
V[ColorOS\u684c\u9762]
p188
g96
sg38
(dp189
g55
(lp190
I0
aI0
aI0
aI0
aI0
aI0
aI1
asssg22
(dp191
g88
g64
sg10
g85
sV[ColorOS\u684c\u9762]
p192
g99
sg14
g136
sV[\u8f6f\u4ef6\u5546\u5e97]
p193
(dp194
g55
(lp195
I0
aI0
aI0
aI0
aI0
aI0
aI3
assg18
g168
sV[\u5fcd\u8005\u767e\u5206\u767e]
p196
(dp197
g55
(lp198
I0
aI0
aI0
aI0
aI0
aI0
aI4
assV[\u6b22\u4e50\u9ebb\u5c06\u5168\u96c6]
p199
(dp200
g55
(lp201
I0
aI0
aI0
aI0
aI0
aI0
aI4
assg28
(dp202
g55
(lp203
I0
aI0
aI0
aI0
aI0
aI0
aI1
assV\u7231\u5947\u827a\u89c6\u9891
p204
g158
sg32
(dp205
g55
(lp206
I0
aI0
aI0
aI0
aI0
aI0
aI1
assg34
(dp207
g55
(lp208
I0
aI0
aI0
aI0
aI0
aI0
aI2
assV[\u7761\u89c9\u8bf7\u5173\u706f]
p209
(dp210
g55
(lp211
I0
aI0
aI0
aI0
aI0
aI0
aI1
assg38
(dp212
g55
(lp213
I0
aI0
aI0
aI0
aI0
aI0
aI8
assg40
(dp214
g55
(lp215
I0
aI0
aI0
aI0
aI0
aI0
aI2
assg42
(dp216
g55
(lp217
I0
aI0
aI0
aI0
aI0
aI0
aI3
assV[OppoPreventMode]
p218
(dp219
g55
(lp220
I0
aI0
aI0
aI0
aI0
aI0
aI2
assg46
(dp221
g55
(lp222
I0
aI0
aI0
aI0
aI0
aI0
aI9
asssg24
(dp223
V[ColorOS\u684c\u9762]
p224
g102
sg14
g142
sV[\u8f6f\u4ef6\u5546\u5e97]
p225
(dp226
g55
(lp227
I0
aI0
aI0
aI0
aI0
aI0
aI1
assV[\u653e\u5f00\u90a3\u4e09\u56fd]
p228
g200
sV[\u5fcd\u8005\u767e\u5206\u767e]
p229
(dp230
g55
(lp231
I0
aI0
aI0
aI0
aI0
aI0
aI2
assg32
(dp232
g55
(lp233
I0
aI0
aI0
aI0
aI0
aI0
aI1
assg34
(dp234
g55
(lp235
I0
aI0
aI0
aI0
aI0
aI0
aI1
assg38
(dp236
g55
(lp237
I0
aI0
aI0
aI0
aI0
aI0
aI1
assg40
(dp238
g55
(lp239
I0
aI0
aI0
aI0
aI0
aI0
aI1
assV[OppoPreventMode]
p240
(dp241
g55
(lp242
I0
aI0
aI0
aI0
aI0
aI0
aI1
assg46
(dp243
g55
(lp244
I0
aI0
aI0
aI0
aI0
aI0
aI3
asssg26
(dp245
V[ColorOS\u684c\u9762]
p246
g105
sg14
g139
sV[\u8f6f\u4ef6\u5546\u5e97]
p247
(dp248
g55
(lp249
I0
aI0
aI0
aI0
aI0
aI0
aI2
assg18
g171
sV[\u653e\u5f00\u90a3\u4e09\u56fd]
p250
g197
sV[\u6b22\u4e50\u9ebb\u5c06\u5168\u96c6]
p251
g230
sg32
(dp252
g55
(lp253
I0
aI0
aI0
aI0
aI0
aI0
aI1
assg34
(dp254
g55
(lp255
I0
aI0
aI0
aI0
aI0
aI0
aI1
assg38
(dp256
g55
(lp257
I0
aI0
aI0
aI0
aI0
aI0
aI1
assg40
(dp258
g55
(lp259
I0
aI0
aI0
aI0
aI0
aI0
aI1
assV[OppoPreventMode]
p260
(dp261
g55
(lp262
I0
aI0
aI0
aI0
aI0
aI0
aI1
assg46
(dp263
g55
(lp264
I0
aI0
aI0
aI0
aI0
aI0
aI3
asssg28
(dp265
V[ColorOS\u684c\u9762]
p266
g107
sV[\u653e\u5f00\u90a3\u4e09\u56fd]
p267
g202
ssg30
(dp268
g88
g58
sV[ColorOS\u684c\u9762]
p269
g110
sg14
g133
sg18
g165
sV[\u653e\u5f00\u90a3\u4e09\u56fd]
p270
g194
sV[\u5fcd\u8005\u767e\u5206\u767e]
p271
g248
sV[\u6b22\u4e50\u9ebb\u5c06\u5168\u96c6]
p272
g226
sg34
(dp273
g55
(lp274
I0
aI0
aI0
aI0
aI0
aI0
aI2
assV[\u7761\u89c9\u8bf7\u5173\u706f]
p275
(dp276
g55
(lp277
I0
aI0
aI0
aI0
aI0
aI0
aI1
assg38
(dp278
g55
(lp279
I0
aI0
aI0
aI0
aI0
aI0
aI2
assg40
(dp280
g55
(lp281
I0
aI0
aI0
aI0
aI0
aI0
aI1
assg42
(dp282
g55
(lp283
I0
aI0
aI0
aI0
aI0
aI0
aI1
assV[OppoPreventMode]
p284
(dp285
g55
(lp286
I0
aI0
aI0
aI0
aI0
aI0
aI2
assg46
(dp287
g55
(lp288
I0
aI0
aI0
aI0
aI0
aI0
aI4
asssg32
(dp289
V[ColorOS\u684c\u9762]
p290
g112
sVPhone.apk
p291
(dp292
g55
(lp293
I0
aI0
aI0
aI0
aI0
aI0
aI1
assV[\u653e\u5f00\u90a3\u4e09\u56fd]
p294
g205
sV[\u6b22\u4e50\u9ebb\u5c06\u5168\u96c6]
p295
g232
sV[\u5fcd\u8005\u767e\u5206\u767e]
p296
g252
ssg34
(dp297
g88
g66
sV[ColorOS\u684c\u9762]
p298
g114
sg14
g144
sV[\u8f6f\u4ef6\u5546\u5e97]
p299
g273
sg60
g173
sV[\u653e\u5f00\u90a3\u4e09\u56fd]
p300
g207
sV[\u5fcd\u8005\u767e\u5206\u767e]
p301
g254
sV[\u6b22\u4e50\u9ebb\u5c06\u5168\u96c6]
p302
g234
sV[\u7761\u89c9\u8bf7\u5173\u706f]
p303
(dp304
g55
(lp305
I0
aI0
aI0
aI0
aI0
aI0
aI1
assg38
(dp306
g55
(lp307
I0
aI0
aI0
aI0
aI0
aI0
aI2
assg40
(dp308
g55
(lp309
I0
aI0
aI0
aI0
aI0
aI0
aI1
assg42
(dp310
g55
(lp311
I0
aI0
aI0
aI0
aI0
aI0
aI1
assV[OppoPreventMode]
p312
(dp313
g55
(lp314
I0
aI0
aI0
aI0
aI0
aI0
aI2
assg46
(dp315
g55
(lp316
I0
aI0
aI0
aI0
aI0
aI0
aI4
asssg36
(dp317
g88
g69
sV[ColorOS\u684c\u9762]
p318
g117
sV[\u8f6f\u4ef6\u5546\u5e97]
p319
g276
sg60
g176
sV[\u653e\u5f00\u90a3\u4e09\u56fd]
p320
g210
sg34
g304
sg38
(dp321
g55
(lp322
I0
aI0
aI0
aI0
aI0
aI0
aI1
assg42
(dp323
g55
(lp324
I0
aI0
aI0
aI0
aI0
aI0
aI1
assV[OppoPreventMode]
p325
(dp326
g55
(lp327
I0
aI0
aI0
aI0
aI0
aI0
aI1
assg46
(dp328
g55
(lp329
I0
aI0
aI0
aI0
aI0
aI0
aI2
asssg38
(dp330
g88
g71
sV[ColorOS\u684c\u9762]
p331
g119
sg14
g146
sV[\u8f6f\u4ef6\u5546\u5e97]
p332
g278
sg60
g178
sV[\u6e38\u620f\u4e2d\u5fc3]
p333
g189
sV[\u653e\u5f00\u90a3\u4e09\u56fd]
p334
g212
sV[\u5fcd\u8005\u767e\u5206\u767e]
p335
g256
sV[\u6b22\u4e50\u9ebb\u5c06\u5168\u96c6]
p336
g236
sg204
g160
sg34
g306
sV[\u7761\u89c9\u8bf7\u5173\u706f]
p337
g321
sg40
(dp338
g55
(lp339
I0
aI0
aI0
aI0
aI0
aI0
aI1
assg42
(dp340
g55
(lp341
I0
aI0
aI0
aI0
aI0
aI0
aI1
assV[OppoPreventMode]
p342
(dp343
g55
(lp344
I0
aI0
aI0
aI0
aI0
aI0
aI2
assg46
(dp345
g55
(lp346
I0
aI0
aI0
aI0
aI0
aI0
aI8
asssg40
(dp347
V[ColorOS\u684c\u9762]
p348
g121
sg14
g148
sV[\u8f6f\u4ef6\u5546\u5e97]
p349
g280
sV[\u653e\u5f00\u90a3\u4e09\u56fd]
p350
g214
sV[\u5fcd\u8005\u767e\u5206\u767e]
p351
g258
sV[\u6b22\u4e50\u9ebb\u5c06\u5168\u96c6]
p352
g238
sg34
g308
sg38
g338
sV[OppoPreventMode]
p353
(dp354
g55
(lp355
I0
aI0
aI0
aI0
aI0
aI0
aI1
assg46
(dp356
g55
(lp357
I0
aI0
aI0
aI0
aI0
aI0
aI2
asssg42
(dp358
g88
g73
sV[ColorOS\u684c\u9762]
p359
g123
sV[\u8f6f\u4ef6\u5546\u5e97]
p360
g282
sg60
g180
sV[\u653e\u5f00\u90a3\u4e09\u56fd]
p361
g216
sg34
g310
sV[\u7761\u89c9\u8bf7\u5173\u706f]
p362
g323
sg38
g340
sV[OppoPreventMode]
p363
(dp364
g55
(lp365
I0
aI0
aI0
aI0
aI0
aI0
aI1
assg291
(dp366
g55
(lp367
I0
aI0
aI0
aI0
aI0
aI0
aI3
asssg44
(dp368
g88
g76
sV[ColorOS\u684c\u9762]
p369
g126
sg14
g151
sV[\u8f6f\u4ef6\u5546\u5e97]
p370
g285
sg60
g183
sV[\u653e\u5f00\u90a3\u4e09\u56fd]
p371
g219
sV[\u5fcd\u8005\u767e\u5206\u767e]
p372
g261
sV[\u6b22\u4e50\u9ebb\u5c06\u5168\u96c6]
p373
g241
sg34
g313
sV[\u7761\u89c9\u8bf7\u5173\u706f]
p374
g326
sg38
g343
sg40
g354
sg42
g364
sg46
(dp375
g55
(lp376
I0
aI0
aI0
aI0
aI0
aI0
aI4
asssg46
(dp377
g88
g78
sV[ColorOS\u684c\u9762]
p378
g128
sg14
g153
sV[\u8f6f\u4ef6\u5546\u5e97]
p379
g287
sg60
g185
sV[\u653e\u5f00\u90a3\u4e09\u56fd]
p380
g221
sV[\u6b22\u4e50\u9ebb\u5c06\u5168\u96c6]
p381
g243
sV[\u5fcd\u8005\u767e\u5206\u767e]
p382
g263
sg32
g292
sg34
g315
sV[\u7761\u89c9\u8bf7\u5173\u706f]
p383
g328
sg38
g345
sg40
g356
sg42
g366
sV[OppoPreventMode]
p384
g375
sg291
(dp385
g55
(lp386
I0
aI0
aI0
aI0
aI0
aI0
aI2
assssS'adj'
p387
g51
sb.