ccopy_reg
_reconstructor
p1
(cnetworkx.classes.graph
Graph
p2
c__builtin__
object
p3
NtRp4
(dp5
S'node'
p6
(dp7
VQQ
p8
(dp9
sV\u97f3\u4e50
p10
(dp11
sVColorOS\u684c\u9762
p12
(dp13
sV\u5929\u6c14
p14
(dp15
sV\u8bed\u97f3\u52a9\u624b
p16
(dp17
sV\u6587\u4ef6\u7ba1\u7406
p18
(dp19
sVOppoPreventMode
p20
(dp21
ssS'graph'
p22
(dp23
sS'edge'
p24
(dp25
g8
(dp26
V\u6587\u4ef6\u7ba1\u7406
p27
(dp28
S'weights'
p29
(lp30
I0
aI0
aI0
aI0
aI0
aI0
aI2
assg12
(dp31
g29
(lp32
I0
aI0
aI0
aI0
aI0
aI0
aI11
assV\u5929\u6c14
p33
(dp34
g29
(lp35
I0
aI0
aI0
aI0
aI0
aI0
aI4
assVOppoPreventMode
p36
(dp37
g29
(lp38
I0
aI0
aI0
aI0
aI0
aI0
aI2
asssg10
(dp39
VColorOS\u684c\u9762
p40
(dp41
g29
(lp42
I0
aI0
aI0
aI0
aI0
aI0
aI2
assg14
(dp43
g29
(lp44
I0
aI0
aI0
aI0
aI0
aI0
aI1
asssg12
(dp45
g8
g31
sg10
g41
sg14
(dp46
g29
(lp47
I0
aI0
aI0
aI0
aI0
aI0
aI8
assV\u8bed\u97f3\u52a9\u624b
p48
(dp49
g29
(lp50
I0
aI0
aI0
aI0
aI0
aI0
aI3
assg27
(dp51
g29
(lp52
I0
aI0
aI0
aI0
aI0
aI0
aI1
assVOppoPreventMode
p53
(dp54
g29
(lp55
I0
aI0
aI0
aI0
aI0
aI0
aI2
asssg14
(dp56
VQQ
p57
g34
sV\u8bed\u97f3\u52a9\u624b
p58
(dp59
g29
(lp60
I0
aI0
aI0
aI0
aI0
aI0
aI2
assV\u97f3\u4e50
p61
g43
sVColorOS\u684c\u9762
p62
g46
sg36
(dp63
g29
(lp64
I0
aI0
aI0
aI0
aI0
aI0
aI1
asssg16
(dp65
VColorOS\u684c\u9762
p66
g49
sV\u5929\u6c14
p67
g59
sg20
(dp68
g29
(lp69
I0
aI0
aI0
aI0
aI0
aI0
aI1
asssg18
(dp70
VQQ
p71
g28
sVColorOS\u684c\u9762
p72
g51
ssg20
(dp73
g16
g68
sg57
g37
sVColorOS\u684c\u9762
p74
g54
sg33
g63
sssS'adj'
p75
g25
sb.