ccopy_reg
_reconstructor
p1
(cnetworkx.classes.digraph
DiGraph
p2
c__builtin__
object
p3
NtRp4
(dp5
S'node'
p6
(dp7
VQQ
p8
(dp9
S'weight'
p10
F0.02
ssV\u817e\u8baf\u65b0\u95fb
p11
(dp12
g10
F0
ssV[ColorOS\u684c\u9762]
p13
(dp14
g10
F0.46999999999999997
ssVCalendar.apk
p15
(dp16
g10
F0
ssV\u7231\u5947\u827a\u89c6\u9891
p17
(dp18
g10
F0.02
ssV\u5fae\u4fe1
p19
(dp20
g10
F0.01
ssV[\u6e38\u620f\u4e2d\u5fc3]
p21
(dp22
g10
F0
ssV[\u653e\u5f00\u90a3\u4e09\u56fd]
p23
(dp24
g10
F0.20000000000000001
ssV[\u6b22\u4e50\u9ebb\u5c06\u5168\u96c6]
p25
(dp26
g10
F0.040000000000000001
ssV[\u5fcd\u8005\u767e\u5206\u767e]
p27
(dp28
g10
F0.01
ssV\u76f8\u673a
p29
(dp30
g10
F0
ssV[\u8f6f\u4ef6\u5546\u5e97]
p31
(dp32
g10
F0.02
ssV\u5fae\u535a
p33
(dp34
g10
F0
ssVClock.apk
p35
(dp36
g10
F0.01
ssV[\u7761\u89c9\u8bf7\u5173\u706f]
p37
(dp38
g10
F0
ssVMms.apk
p39
(dp40
g10
F0.070000000000000007
ssV\u4e50\u89c6\u89c6\u9891
p41
(dp42
g10
F0.01
ssVBrowser.apk
p43
(dp44
g10
F0.02
ssV[OppoPreventMode]
p45
(dp46
g10
F0.01
ssVPhone.apk
p47
(dp48
g10
F0.01
sssS'graph'
p49
(dp50
sS'succ'
p51
(dp52
g8
(dp53
V\u5fae\u4fe1
p54
(dp55
S'weights'
p56
(lp57
I0
aI0
aI0
aI0
aI0
aI0
aF0.25
assV[ColorOS\u684c\u9762]
p58
(dp59
g56
(lp60
I0
aI0
aI0
aI0
aI0
aI0
aF0.23999999999999999
assg43
(dp61
g56
(lp62
I0
aI0
aI0
aI0
aI0
aI0
aF-0.23999999999999999
assV[\u7761\u89c9\u8bf7\u5173\u706f]
p63
(dp64
g56
(lp65
I0
aI0
aI0
aI0
aI0
aI0
aF-0.01
asssg11
(dp66
V[ColorOS\u684c\u9762]
p67
(dp68
g56
(lp69
I0
aI0
aI0
aI0
aI0
aI0
aF0.25
assV[\u653e\u5f00\u90a3\u4e09\u56fd]
p70
(dp71
g56
(lp72
I0
aI0
aI0
aI0
aI0
aI0
aF0.10000000000000001
asssg13
(dp73
VQQ
p74
(dp75
g56
(lp76
I0
aI0
aI0
aI0
aI0
aI0
aF-1.1599999999999999
assg11
(dp77
g56
(lp78
I0
aI0
aI0
aI0
aI0
aI0
aF0.059999999999999998
assg15
(dp79
g56
(lp80
I0
aI0
aI0
aI0
aI0
aI0
aF0.040000000000000001
assg17
(dp81
g56
(lp82
I0
aI0
aI0
aI0
aI0
aI0
aF0.32000000000000001
assg19
(dp83
g56
(lp84
I0
aI0
aI0
aI0
aI0
aI0
aF-0.19
assV[\u6e38\u620f\u4e2d\u5fc3]
p85
(dp86
g56
(lp87
I0
aI0
aI0
aI0
aI0
aI0
aF-0.10000000000000001
assV[\u653e\u5f00\u90a3\u4e09\u56fd]
p88
(dp89
g56
(lp90
I0
aI0
aI0
aI0
aI0
aI0
aF0.28999999999999998
assV[\u5fcd\u8005\u767e\u5206\u767e]
p91
(dp92
g56
(lp93
I0
aI0
aI0
aI0
aI0
aI0
aF-0.53000000000000003
assV[\u6b22\u4e50\u9ebb\u5c06\u5168\u96c6]
p94
(dp95
g56
(lp96
I0
aI0
aI0
aI0
aI0
aI0
aF-0.58999999999999997
assg29
(dp97
g56
(lp98
I0
aI0
aI0
aI0
aI0
aI0
aF0.32000000000000001
assV[\u8f6f\u4ef6\u5546\u5e97]
p99
(dp100
g56
(lp101
I0
aI0
aI0
aI0
aI0
aI0
aF0.070000000000000007
assg33
(dp102
g56
(lp103
I0
aI0
aI0
aI0
aI0
aI0
aF-0.040000000000000001
assg35
(dp104
g56
(lp105
I0
aI0
aI0
aI0
aI0
aI0
aF-0.070000000000000007
assV[\u7761\u89c9\u8bf7\u5173\u706f]
p106
(dp107
g56
(lp108
I0
aI0
aI0
aI0
aI0
aI0
aF-1.49
assg39
(dp109
g56
(lp110
I0
aI0
aI0
aI0
aI0
aI0
aF0.059999999999999998
assg43
(dp111
g56
(lp112
I0
aI0
aI0
aI0
aI0
aI0
aF0.32000000000000001
assg47
(dp113
g56
(lp114
I0
aI0
aI0
aI0
aI0
aI0
aF0.16
asssg15
(dp115
V[ColorOS\u684c\u9762]
p116
(dp117
g56
(lp118
I0
aI0
aI0
aI0
aI0
aI0
aF0.31
assV[\u8f6f\u4ef6\u5546\u5e97]
p119
(dp120
g56
(lp121
I0
aI0
aI0
aI0
aI0
aI0
aF0.23000000000000001
assV[\u653e\u5f00\u90a3\u4e09\u56fd]
p122
(dp123
g56
(lp124
I0
aI0
aI0
aI0
aI0
aI0
aF0.31
assV[\u5fcd\u8005\u767e\u5206\u767e]
p125
(dp126
g56
(lp127
I0
aI0
aI0
aI0
aI0
aI0
aF-0.25
assV[\u6b22\u4e50\u9ebb\u5c06\u5168\u96c6]
p128
(dp129
g56
(lp130
I0
aI0
aI0
aI0
aI0
aI0
aF-0.29999999999999999
assg35
(dp131
g56
(lp132
I0
aI0
aI0
aI0
aI0
aI0
aF0.22
assg39
(dp133
g56
(lp134
I0
aI0
aI0
aI0
aI0
aI0
aF-1.1699999999999999
assg47
(dp135
g56
(lp136
I0
aI0
aI0
aI0
aI0
aI0
aF-0.68999999999999995
asssg17
(dp137
V[ColorOS\u684c\u9762]
p138
(dp139
g56
(lp140
I0
aI0
aI0
aI0
aI0
aI0
aF0.29999999999999999
assV[\u653e\u5f00\u90a3\u4e09\u56fd]
p141
(dp142
g56
(lp143
I0
aI0
aI0
aI0
aI0
aI0
aF0.02
assg39
(dp144
g56
(lp145
I0
aI0
aI0
aI0
aI0
aI0
aF0.28999999999999998
asssg19
(dp146
VQQ
p147
(dp148
g56
(lp149
I0
aI0
aI0
aI0
aI0
aI0
aF0.31
assV[ColorOS\u684c\u9762]
p150
(dp151
g56
(lp152
I0
aI0
aI0
aI0
aI0
aI0
aF0.23999999999999999
assV[\u8f6f\u4ef6\u5546\u5e97]
p153
(dp154
g56
(lp155
I0
aI0
aI0
aI0
aI0
aI0
aF0.080000000000000002
assV[\u5fcd\u8005\u767e\u5206\u767e]
p156
(dp157
g56
(lp158
I0
aI0
aI0
aI0
aI0
aI0
aF0.27000000000000002
assV[\u7761\u89c9\u8bf7\u5173\u706f]
p159
(dp160
g56
(lp161
I0
aI0
aI0
aI0
aI0
aI0
aF0.070000000000000007
assg43
(dp162
g56
(lp163
I0
aI0
aI0
aI0
aI0
aI0
aF-0.17000000000000001
asssg21
(dp164
V[ColorOS\u684c\u9762]
p165
(dp166
g56
(lp167
I0
aI0
aI0
aI0
aI0
aI0
aF0.11
assg39
(dp168
g56
(lp169
I0
aI0
aI0
aI0
aI0
aI0
aF0.089999999999999997
asssg23
(dp170
g74
(dp171
g56
(lp172
I0
aI0
aI0
aI0
aI0
aI0
aF-1.1499999999999999
assV[ColorOS\u684c\u9762]
p173
(dp174
g56
(lp175
I0
aI0
aI0
aI0
aI0
aI0
aF0.22
assg15
(dp176
g56
(lp177
I0
aI0
aI0
aI0
aI0
aI0
aF0.28999999999999998
assV[\u8f6f\u4ef6\u5546\u5e97]
p178
(dp179
g56
(lp180
I0
aI0
aI0
aI0
aI0
aI0
aF0.19
assg19
(dp181
g56
(lp182
I0
aI0
aI0
aI0
aI0
aI0
aF-0.22
assV[\u5fcd\u8005\u767e\u5206\u767e]
p183
(dp184
g56
(lp185
I0
aI0
aI0
aI0
aI0
aI0
aF-0.28000000000000003
assV[\u6b22\u4e50\u9ebb\u5c06\u5168\u96c6]
p186
(dp187
g56
(lp188
I0
aI0
aI0
aI0
aI0
aI0
aF-0.34000000000000002
assg29
(dp189
g56
(lp190
I0
aI0
aI0
aI0
aI0
aI0
aF0.31
assg33
(dp191
g56
(lp192
I0
aI0
aI0
aI0
aI0
aI0
aF-0.029999999999999999
assg35
(dp193
g56
(lp194
I0
aI0
aI0
aI0
aI0
aI0
aF0.19
assV[\u7761\u89c9\u8bf7\u5173\u706f]
p195
(dp196
g56
(lp197
I0
aI0
aI0
aI0
aI0
aI0
aF-1.48
assg39
(dp198
g56
(lp199
I0
aI0
aI0
aI0
aI0
aI0
aF-1.2
assg43
(dp200
g56
(lp201
I0
aI0
aI0
aI0
aI0
aI0
aF-1.1399999999999999
assg47
(dp202
g56
(lp203
I0
aI0
aI0
aI0
aI0
aI0
aF-0.71999999999999997
asssg25
(dp204
V[ColorOS\u684c\u9762]
p205
(dp206
g56
(lp207
I0
aI0
aI0
aI0
aI0
aI0
aF0.32000000000000001
assV[\u653e\u5f00\u90a3\u4e09\u56fd]
p208
(dp209
g56
(lp210
I0
aI0
aI0
aI0
aI0
aI0
aF-0.25
assV[\u5fcd\u8005\u767e\u5206\u767e]
p211
(dp212
g56
(lp213
I0
aI0
aI0
aI0
aI0
aI0
aF0.029999999999999999
assg33
(dp214
g56
(lp215
I0
aI0
aI0
aI0
aI0
aI0
aF-0.050000000000000003
assg39
(dp216
g56
(lp217
I0
aI0
aI0
aI0
aI0
aI0
aF-0.54000000000000004
assg47
(dp218
g56
(lp219
I0
aI0
aI0
aI0
aI0
aI0
aF-0.070000000000000007
asssg27
(dp220
V[ColorOS\u684c\u9762]
p221
(dp222
g56
(lp223
I0
aI0
aI0
aI0
aI0
aI0
aF0.27000000000000002
assV[\u653e\u5f00\u90a3\u4e09\u56fd]
p224
(dp225
g56
(lp226
I0
aI0
aI0
aI0
aI0
aI0
aF-0.31
assV[\u6b22\u4e50\u9ebb\u5c06\u5168\u96c6]
p227
(dp228
g56
(lp229
I0
aI0
aI0
aI0
aI0
aI0
aF0.26000000000000001
assg33
(dp230
g56
(lp231
I0
aI0
aI0
aI0
aI0
aI0
aF0.25
assg39
(dp232
g56
(lp233
I0
aI0
aI0
aI0
aI0
aI0
aF-0.59999999999999998
assg47
(dp234
g56
(lp235
I0
aI0
aI0
aI0
aI0
aI0
aF-0.12
asssg29
(dp236
V[ColorOS\u684c\u9762]
p237
(dp238
g56
(lp239
I0
aI0
aI0
aI0
aI0
aI0
aF0.32000000000000001
assV[\u653e\u5f00\u90a3\u4e09\u56fd]
p240
(dp241
g56
(lp242
I0
aI0
aI0
aI0
aI0
aI0
aF0.32000000000000001
asssg31
(dp243
V[ColorOS\u684c\u9762]
p244
(dp245
g56
(lp246
I0
aI0
aI0
aI0
aI0
aI0
aF0.32000000000000001
assg15
(dp247
g56
(lp248
I0
aI0
aI0
aI0
aI0
aI0
aF0.28000000000000003
assg19
(dp249
g56
(lp250
I0
aI0
aI0
aI0
aI0
aI0
aF0.23000000000000001
assV[\u653e\u5f00\u90a3\u4e09\u56fd]
p251
(dp252
g56
(lp253
I0
aI0
aI0
aI0
aI0
aI0
aF0.32000000000000001
assV[\u5fcd\u8005\u767e\u5206\u767e]
p254
(dp255
g56
(lp256
I0
aI0
aI0
aI0
aI0
aI0
aF-0.28000000000000003
assV[\u6b22\u4e50\u9ebb\u5c06\u5168\u96c6]
p257
(dp258
g56
(lp259
I0
aI0
aI0
aI0
aI0
aI0
aF-0.34000000000000002
assg35
(dp260
g56
(lp261
I0
aI0
aI0
aI0
aI0
aI0
aF0.17999999999999999
assV[\u7761\u89c9\u8bf7\u5173\u706f]
p262
(dp263
g56
(lp264
I0
aI0
aI0
aI0
aI0
aI0
aF0.31
assg39
(dp265
g56
(lp266
I0
aI0
aI0
aI0
aI0
aI0
aF-1.21
assg43
(dp267
g56
(lp268
I0
aI0
aI0
aI0
aI0
aI0
aF0.080000000000000002
assg47
(dp269
g56
(lp270
I0
aI0
aI0
aI0
aI0
aI0
aF-0.72999999999999998
asssg33
(dp271
V[ColorOS\u684c\u9762]
p272
(dp273
g56
(lp274
I0
aI0
aI0
aI0
aI0
aI0
aF0.28000000000000003
assVPhone.apk
p275
(dp276
g56
(lp277
I0
aI0
aI0
aI0
aI0
aI0
aF0.23999999999999999
asssg35
(dp278
g74
(dp279
g56
(lp280
I0
aI0
aI0
aI0
aI0
aI0
aF-0.089999999999999997
assV[ColorOS\u684c\u9762]
p281
(dp282
g56
(lp283
I0
aI0
aI0
aI0
aI0
aI0
aF0.32000000000000001
assg15
(dp284
g56
(lp285
I0
aI0
aI0
aI0
aI0
aI0
aF0.029999999999999999
assV[\u8f6f\u4ef6\u5546\u5e97]
p286
(dp287
g56
(lp288
I0
aI0
aI0
aI0
aI0
aI0
aF0.070000000000000007
assg54
(dp289
g56
(lp290
I0
aI0
aI0
aI0
aI0
aI0
aF-0.16
assV[\u653e\u5f00\u90a3\u4e09\u56fd]
p291
(dp292
g56
(lp293
I0
aI0
aI0
aI0
aI0
aI0
aF0.070000000000000007
assV[\u5fcd\u8005\u767e\u5206\u767e]
p294
(dp295
g56
(lp296
I0
aI0
aI0
aI0
aI0
aI0
aF-0.53000000000000003
assV[\u6b22\u4e50\u9ebb\u5c06\u5168\u96c6]
p297
(dp298
g56
(lp299
I0
aI0
aI0
aI0
aI0
aI0
aF-0.58999999999999997
assV[\u7761\u89c9\u8bf7\u5173\u706f]
p300
(dp301
g56
(lp302
I0
aI0
aI0
aI0
aI0
aI0
aF-0.41999999999999998
assg39
(dp303
g56
(lp304
I0
aI0
aI0
aI0
aI0
aI0
aF-1.46
assV\u4e50\u89c6\u89c6\u9891
p305
(dp306
g56
(lp307
I0
aI0
aI0
aI0
aI0
aI0
aF0.32000000000000001
assg43
(dp308
g56
(lp309
I0
aI0
aI0
aI0
aI0
aI0
aF-0.080000000000000002
assg47
(dp310
g56
(lp311
I0
aI0
aI0
aI0
aI0
aI0
aF-0.97999999999999998
asssg37
(dp312
V[ColorOS\u684c\u9762]
p313
(dp314
g56
(lp315
I0
aI0
aI0
aI0
aI0
aI0
aF0.16
assg43
(dp316
g56
(lp317
I0
aI0
aI0
aI0
aI0
aI0
aF0.089999999999999997
asssg39
(dp318
g74
(dp319
g56
(lp320
I0
aI0
aI0
aI0
aI0
aI0
aF-0.95999999999999996
assV[ColorOS\u684c\u9762]
p321
(dp322
g56
(lp323
I0
aI0
aI0
aI0
aI0
aI0
aF0.32000000000000001
assV\u7231\u5947\u827a\u89c6\u9891
p324
(dp325
g56
(lp326
I0
aI0
aI0
aI0
aI0
aI0
aF0.28999999999999998
assg54
(dp327
g56
(lp328
I0
aI0
aI0
aI0
aI0
aI0
aF-1.03
assV[\u653e\u5f00\u90a3\u4e09\u56fd]
p329
(dp330
g56
(lp331
I0
aI0
aI0
aI0
aI0
aI0
aF0.25
assV[\u8f6f\u4ef6\u5546\u5e97]
p332
(dp333
g56
(lp334
I0
aI0
aI0
aI0
aI0
aI0
aF-1.27
assg35
(dp335
g56
(lp336
I0
aI0
aI0
aI0
aI0
aI0
aF-0.55000000000000004
assV[\u7761\u89c9\u8bf7\u5173\u706f]
p337
(dp338
g56
(lp339
I0
aI0
aI0
aI0
aI0
aI0
aF-1.28
assg43
(dp340
g56
(lp341
I0
aI0
aI0
aI0
aI0
aI0
aF-0.94999999999999996
assg47
(dp342
g56
(lp343
I0
aI0
aI0
aI0
aI0
aI0
aF0.31
asssg41
(dp344
V[ColorOS\u684c\u9762]
p345
(dp346
g56
(lp347
I0
aI0
aI0
aI0
aI0
aI0
aF0.32000000000000001
assg15
(dp348
g56
(lp349
I0
aI0
aI0
aI0
aI0
aI0
aF0.029999999999999999
assV[\u8f6f\u4ef6\u5546\u5e97]
p350
(dp351
g56
(lp352
I0
aI0
aI0
aI0
aI0
aI0
aF0.070000000000000007
assV[\u653e\u5f00\u90a3\u4e09\u56fd]
p353
(dp354
g56
(lp355
I0
aI0
aI0
aI0
aI0
aI0
aF0.070000000000000007
assV[\u5fcd\u8005\u767e\u5206\u767e]
p356
(dp357
g56
(lp358
I0
aI0
aI0
aI0
aI0
aI0
aF-0.53000000000000003
assV[\u6b22\u4e50\u9ebb\u5c06\u5168\u96c6]
p359
(dp360
g56
(lp361
I0
aI0
aI0
aI0
aI0
aI0
aF-0.58999999999999997
assg35
(dp362
g56
(lp363
I0
aI0
aI0
aI0
aI0
aI0
aF0.32000000000000001
assg39
(dp364
g56
(lp365
I0
aI0
aI0
aI0
aI0
aI0
aF-1.46
assg47
(dp366
g56
(lp367
I0
aI0
aI0
aI0
aI0
aI0
aF-0.97999999999999998
asssg43
(dp368
g74
(dp369
g56
(lp370
I0
aI0
aI0
aI0
aI0
aI0
aF0.32000000000000001
assV[ColorOS\u684c\u9762]
p371
(dp372
g56
(lp373
I0
aI0
aI0
aI0
aI0
aI0
aF0.32000000000000001
assg54
(dp374
g56
(lp375
I0
aI0
aI0
aI0
aI0
aI0
aF0.23999999999999999
assV[\u653e\u5f00\u90a3\u4e09\u56fd]
p376
(dp377
g56
(lp378
I0
aI0
aI0
aI0
aI0
aI0
aF-0.16
assV[\u7761\u89c9\u8bf7\u5173\u706f]
p379
(dp380
g56
(lp381
I0
aI0
aI0
aI0
aI0
aI0
aF-0.01
assg275
(dp382
g56
(lp383
I0
aI0
aI0
aI0
aI0
aI0
aF0.32000000000000001
asssg45
(dp384
g74
(dp385
g56
(lp386
I0
aI0
aI0
aI0
aI0
aI0
aF-1.1599999999999999
assV[ColorOS\u684c\u9762]
p387
(dp388
g56
(lp389
I0
aI0
aI0
aI0
aI0
aI0
aF0.32000000000000001
assg15
(dp390
g56
(lp391
I0
aI0
aI0
aI0
aI0
aI0
aF0.029999999999999999
assV[\u8f6f\u4ef6\u5546\u5e97]
p392
(dp393
g56
(lp394
I0
aI0
aI0
aI0
aI0
aI0
aF0.070000000000000007
assg54
(dp395
g56
(lp396
I0
aI0
aI0
aI0
aI0
aI0
aF-1.23
assV[\u653e\u5f00\u90a3\u4e09\u56fd]
p397
(dp398
g56
(lp399
I0
aI0
aI0
aI0
aI0
aI0
aF0.070000000000000007
assV[\u5fcd\u8005\u767e\u5206\u767e]
p400
(dp401
g56
(lp402
I0
aI0
aI0
aI0
aI0
aI0
aF-0.53000000000000003
assV[\u6b22\u4e50\u9ebb\u5c06\u5168\u96c6]
p403
(dp404
g56
(lp405
I0
aI0
aI0
aI0
aI0
aI0
aF-0.58999999999999997
assg35
(dp406
g56
(lp407
I0
aI0
aI0
aI0
aI0
aI0
aF0.32000000000000001
assV[\u7761\u89c9\u8bf7\u5173\u706f]
p408
(dp409
g56
(lp410
I0
aI0
aI0
aI0
aI0
aI0
aF-1.49
assg39
(dp411
g56
(lp412
I0
aI0
aI0
aI0
aI0
aI0
aF-1.46
assg41
(dp413
g56
(lp414
I0
aI0
aI0
aI0
aI0
aI0
aF0.32000000000000001
assg43
(dp415
g56
(lp416
I0
aI0
aI0
aI0
aI0
aI0
aF-1.1599999999999999
assg47
(dp417
g56
(lp418
I0
aI0
aI0
aI0
aI0
aI0
aF-0.97999999999999998
asssg47
(dp419
g74
(dp420
g56
(lp421
I0
aI0
aI0
aI0
aI0
aI0
aF-0.96999999999999997
assV[ColorOS\u684c\u9762]
p422
(dp423
g56
(lp424
I0
aI0
aI0
aI0
aI0
aI0
aF0.31
assV[\u8f6f\u4ef6\u5546\u5e97]
p425
(dp426
g56
(lp427
I0
aI0
aI0
aI0
aI0
aI0
aF-1.29
assg54
(dp428
g56
(lp429
I0
aI0
aI0
aI0
aI0
aI0
aF-1.05
assV[\u653e\u5f00\u90a3\u4e09\u56fd]
p430
(dp431
g56
(lp432
I0
aI0
aI0
aI0
aI0
aI0
aF0.16
assV[\u6b22\u4e50\u9ebb\u5c06\u5168\u96c6]
p433
(dp434
g56
(lp435
I0
aI0
aI0
aI0
aI0
aI0
aF0.32000000000000001
assg35
(dp436
g56
(lp437
I0
aI0
aI0
aI0
aI0
aI0
aF-0.56999999999999995
assV[\u7761\u89c9\u8bf7\u5173\u706f]
p438
(dp439
g56
(lp440
I0
aI0
aI0
aI0
aI0
aI0
aF-1.3
assg39
(dp441
g56
(lp442
I0
aI0
aI0
aI0
aI0
aI0
aF0.23000000000000001
assg43
(dp443
g56
(lp444
I0
aI0
aI0
aI0
aI0
aI0
aF0.32000000000000001
assg275
(dp445
g56
(lp446
I0
aI0
aI0
aI0
aI0
aI0
aF0.26000000000000001
assssS'edge'
p447
g52
sS'pred'
p448
(dp449
g8
(dp450
V[ColorOS\u684c\u9762]
p451
g75
sg54
g148
sV[\u653e\u5f00\u90a3\u4e09\u56fd]
p452
g171
sg35
g279
sg39
g319
sg43
g369
sV[OppoPreventMode]
p453
g385
sg47
g420
ssg11
(dp454
V[ColorOS\u684c\u9762]
p455
g77
ssg13
(dp456
g74
g59
sg11
g68
sg15
g117
sg17
g139
sg19
g151
sV[\u6e38\u620f\u4e2d\u5fc3]
p457
g166
sV[\u653e\u5f00\u90a3\u4e09\u56fd]
p458
g174
sV[\u5fcd\u8005\u767e\u5206\u767e]
p459
g222
sV[\u6b22\u4e50\u9ebb\u5c06\u5168\u96c6]
p460
g206
sg29
g238
sV[\u8f6f\u4ef6\u5546\u5e97]
p461
g245
sg33
g273
sg35
g282
sV[\u7761\u89c9\u8bf7\u5173\u706f]
p462
g314
sg39
g322
sg41
g346
sg43
g372
sV[OppoPreventMode]
p463
g388
sg47
g423
ssg15
(dp464
V[ColorOS\u684c\u9762]
p465
g79
sV[\u8f6f\u4ef6\u5546\u5e97]
p466
g247
sV[\u653e\u5f00\u90a3\u4e09\u56fd]
p467
g176
sg35
g284
sg41
g348
sV[OppoPreventMode]
p468
g390
ssg17
(dp469
V[ColorOS\u684c\u9762]
p470
g81
sg39
g325
ssg19
(dp471
g74
g55
sV[ColorOS\u684c\u9762]
p472
g83
sV[\u8f6f\u4ef6\u5546\u5e97]
p473
g249
sV[\u653e\u5f00\u90a3\u4e09\u56fd]
p474
g181
sg35
g289
sg39
g327
sg43
g374
sV[OppoPreventMode]
p475
g395
sg47
g428
ssg21
(dp476
V[ColorOS\u684c\u9762]
p477
g86
ssg23
(dp478
V[ColorOS\u684c\u9762]
p479
g89
sg15
g123
sV[\u8f6f\u4ef6\u5546\u5e97]
p480
g252
sV[\u5fcd\u8005\u767e\u5206\u767e]
p481
g225
sV[\u6b22\u4e50\u9ebb\u5c06\u5168\u96c6]
p482
g209
sg29
g241
sg324
g142
sg11
g71
sg35
g292
sg39
g330
sg41
g354
sg43
g377
sV[OppoPreventMode]
p483
g398
sg47
g431
ssg25
(dp484
V[ColorOS\u684c\u9762]
p485
g95
sg15
g129
sV[\u8f6f\u4ef6\u5546\u5e97]
p486
g258
sV[\u653e\u5f00\u90a3\u4e09\u56fd]
p487
g187
sV[\u5fcd\u8005\u767e\u5206\u767e]
p488
g228
sg35
g298
sg41
g360
sV[OppoPreventMode]
p489
g404
sg47
g434
ssg27
(dp490
V[ColorOS\u684c\u9762]
p491
g92
sg15
g126
sV[\u8f6f\u4ef6\u5546\u5e97]
p492
g255
sg19
g157
sV[\u653e\u5f00\u90a3\u4e09\u56fd]
p493
g184
sV[\u6b22\u4e50\u9ebb\u5c06\u5168\u96c6]
p494
g212
sg35
g295
sg41
g357
sV[OppoPreventMode]
p495
g401
ssg29
(dp496
V[ColorOS\u684c\u9762]
p497
g97
sV[\u653e\u5f00\u90a3\u4e09\u56fd]
p498
g189
ssg31
(dp499
V[ColorOS\u684c\u9762]
p500
g100
sg15
g120
sg54
g154
sV[\u653e\u5f00\u90a3\u4e09\u56fd]
p501
g179
sg35
g287
sg39
g333
sg41
g351
sV[OppoPreventMode]
p502
g393
sg47
g426
ssg33
(dp503
V[ColorOS\u684c\u9762]
p504
g102
sV[\u653e\u5f00\u90a3\u4e09\u56fd]
p505
g191
sV[\u6b22\u4e50\u9ebb\u5c06\u5168\u96c6]
p506
g214
sV[\u5fcd\u8005\u767e\u5206\u767e]
p507
g230
ssg35
(dp508
V[ColorOS\u684c\u9762]
p509
g104
sg15
g131
sV[\u8f6f\u4ef6\u5546\u5e97]
p510
g260
sV[\u653e\u5f00\u90a3\u4e09\u56fd]
p511
g193
sg39
g335
sg41
g362
sV[OppoPreventMode]
p512
g406
sg47
g436
ssg37
(dp513
g74
g64
sV[ColorOS\u684c\u9762]
p514
g107
sV[\u8f6f\u4ef6\u5546\u5e97]
p515
g263
sg54
g160
sV[\u653e\u5f00\u90a3\u4e09\u56fd]
p516
g196
sg35
g301
sg39
g338
sg43
g380
sV[OppoPreventMode]
p517
g409
sg47
g439
ssg39
(dp518
V[ColorOS\u684c\u9762]
p519
g109
sg15
g133
sV[\u8f6f\u4ef6\u5546\u5e97]
p520
g265
sV[\u6e38\u620f\u4e2d\u5fc3]
p521
g168
sV[\u653e\u5f00\u90a3\u4e09\u56fd]
p522
g198
sV[\u5fcd\u8005\u767e\u5206\u767e]
p523
g232
sV[\u6b22\u4e50\u9ebb\u5c06\u5168\u96c6]
p524
g216
sg324
g144
sg35
g303
sg41
g364
sV[OppoPreventMode]
p525
g411
sg47
g441
ssg41
(dp526
g35
g306
sV[OppoPreventMode]
p527
g413
ssg43
(dp528
g74
g61
sV[ColorOS\u684c\u9762]
p529
g111
sV[\u8f6f\u4ef6\u5546\u5e97]
p530
g267
sg54
g162
sV[\u653e\u5f00\u90a3\u4e09\u56fd]
p531
g200
sg35
g308
sV[\u7761\u89c9\u8bf7\u5173\u706f]
p532
g316
sg39
g340
sV[OppoPreventMode]
p533
g415
sg275
g443
ssg45
(dp534
sg47
(dp535
V[ColorOS\u684c\u9762]
p536
g113
sg15
g135
sV[\u8f6f\u4ef6\u5546\u5e97]
p537
g269
sV[\u653e\u5f00\u90a3\u4e09\u56fd]
p538
g202
sV[\u5fcd\u8005\u767e\u5206\u767e]
p539
g234
sV[\u6b22\u4e50\u9ebb\u5c06\u5168\u96c6]
p540
g218
sg33
g276
sg35
g310
sg39
g342
sg41
g366
sg43
g382
sV[OppoPreventMode]
p541
g417
sg47
g445
sssS'adj'
p542
g52
sb.