ccopy_reg
_reconstructor
p1
(cnetworkx.classes.digraph
DiGraph
p2
c__builtin__
object
p3
NtRp4
(dp5
S'node'
p6
(dp7
VQQ
p8
(dp9
S'weight'
p10
F0.41999999999999998
ssV[Sudoku Deluxe HD]
p11
(dp12
g10
F0
ssV\u6709\u9053\u8bcd\u5178
p13
(dp14
g10
F0.10000000000000001
ssV[iReader\u8bfb\u4e66]
p15
(dp16
g10
F0.23000000000000001
ssV[My boy!]
p17
(dp18
g10
F0.10000000000000001
ssV[\u8fbe\u7b54]
p19
(dp20
g10
F0.040000000000000001
ssVQQ\u6d4f\u89c8\u5668
p21
(dp22
g10
F0.11
sssS'graph'
p23
(dp24
sS'succ'
p25
(dp26
g8
(dp27
V[My boy!]
p28
(dp29
S'weights'
p30
(lp31
I0
aI0
aI0
aI0
aI0
aI0
aF0.23000000000000001
assVQQ\u6d4f\u89c8\u5668
p32
(dp33
g30
(lp34
I0
aI0
aI0
aI0
aI0
aI0
aF0.16
assV[\u8fbe\u7b54]
p35
(dp36
g30
(lp37
I0
aI0
aI0
aI0
aI0
aI0
aF0.10000000000000001
assV\u6709\u9053\u8bcd\u5178
p38
(dp39
g30
(lp40
I0
aI0
aI0
aI0
aI0
aI0
aF0.35999999999999999
assV[iReader\u8bfb\u4e66]
p41
(dp42
g30
(lp43
I0
aI0
aI0
aI0
aI0
aI0
aF0.040000000000000001
asssg11
(dp44
VQQ
p45
(dp46
g30
(lp47
I0
aI0
aI0
aI0
aI0
aI0
aF0.35999999999999999
assV\u6709\u9053\u8bcd\u5178
p48
(dp49
g30
(lp50
I0
aI0
aI0
aI0
aI0
aI0
aF0.34999999999999998
asssg13
(dp51
V[My boy!]
p52
(dp53
g30
(lp54
I0
aI0
aI0
aI0
aI0
aI0
aF0.26000000000000001
assVQQ
p55
(dp56
g30
(lp57
I0
aI0
aI0
aI0
aI0
aI0
aF0.34999999999999998
assV[\u8fbe\u7b54]
p58
(dp59
g30
(lp60
I0
aI0
aI0
aI0
aI0
aI0
aF0.050000000000000003
assVQQ\u6d4f\u89c8\u5668
p61
(dp62
g30
(lp63
I0
aI0
aI0
aI0
aI0
aI0
aF0.32000000000000001
assV[iReader\u8bfb\u4e66]
p64
(dp65
g30
(lp66
I0
aI0
aI0
aI0
aI0
aI0
aF-0.040000000000000001
asssg15
(dp67
VQQ
p68
(dp69
g30
(lp70
I0
aI0
aI0
aI0
aI0
aI0
aF0.02
assV[My boy!]
p71
(dp72
g30
(lp73
I0
aI0
aI0
aI0
aI0
aI0
aF-0.62
assV[\u8fbe\u7b54]
p74
(dp75
g30
(lp76
I0
aI0
aI0
aI0
aI0
aI0
aF0.089999999999999997
assV\u6709\u9053\u8bcd\u5178
p77
(dp78
g30
(lp79
I0
aI0
aI0
aI0
aI0
aI0
aF0.050000000000000003
asssg17
(dp80
VQQ
p81
(dp82
g30
(lp83
I0
aI0
aI0
aI0
aI0
aI0
aF0.27000000000000002
assVQQ\u6d4f\u89c8\u5668
p84
(dp85
g30
(lp86
I0
aI0
aI0
aI0
aI0
aI0
aF0.34999999999999998
assV[iReader\u8bfb\u4e66]
p87
(dp88
g30
(lp89
I0
aI0
aI0
aI0
aI0
aI0
aF0.17000000000000001
asssg19
(dp90
VQQ
p91
(dp92
g30
(lp93
I0
aI0
aI0
aI0
aI0
aI0
aF-0.040000000000000001
assV[My boy!]
p94
(dp95
g30
(lp96
I0
aI0
aI0
aI0
aI0
aI0
aF-0.070000000000000007
assV\u6709\u9053\u8bcd\u5178
p97
(dp98
g30
(lp99
I0
aI0
aI0
aI0
aI0
aI0
aF0.070000000000000007
assg32
(dp100
g30
(lp101
I0
aI0
aI0
aI0
aI0
aI0
aF0.17000000000000001
assV[iReader\u8bfb\u4e66]
p102
(dp103
g30
(lp104
I0
aI0
aI0
aI0
aI0
aI0
aF-0.35999999999999999
asssg21
(dp105
g91
(dp106
g30
(lp107
I0
aI0
aI0
aI0
aI0
aI0
aF0.16
assV[My boy!]
p108
(dp109
g30
(lp110
I0
aI0
aI0
aI0
aI0
aI0
aF0.12
assV[\u8fbe\u7b54]
p111
(dp112
g30
(lp113
I0
aI0
aI0
aI0
aI0
aI0
aF-0.070000000000000007
assV[iReader\u8bfb\u4e66]
p114
(dp115
g30
(lp116
I0
aI0
aI0
aI0
aI0
aI0
aF-0.17000000000000001
assssS'edge'
p117
g26
sS'pred'
p118
(dp119
g8
(dp120
V[Sudoku Deluxe HD]
p121
g46
sV\u6709\u9053\u8bcd\u5178
p122
g56
sV[iReader\u8bfb\u4e66]
p123
g69
sV[My boy!]
p124
g82
sV[\u8fbe\u7b54]
p125
g92
sg32
g106
ssg11
(dp126
sg13
(dp127
VQQ
p128
g39
sV[Sudoku Deluxe HD]
p129
g49
sV[iReader\u8bfb\u4e66]
p130
g78
sV[\u8fbe\u7b54]
p131
g98
ssg15
(dp132
g8
g42
sV[My boy!]
p133
g88
sV[\u8fbe\u7b54]
p134
g103
sV\u6709\u9053\u8bcd\u5178
p135
g65
sg32
g115
ssg17
(dp136
g8
g29
sg32
g109
sV[\u8fbe\u7b54]
p137
g95
sg13
g53
sV[iReader\u8bfb\u4e66]
p138
g72
ssg19
(dp139
VQQ
p140
g36
sV[iReader\u8bfb\u4e66]
p141
g75
sg135
g59
sVQQ\u6d4f\u89c8\u5668
p142
g112
ssg21
(dp143
V[My boy!]
p144
g85
sVQQ
p145
g33
sV[\u8fbe\u7b54]
p146
g100
sg77
g62
sssS'adj'
p147
g26
sb.