ccopy_reg
_reconstructor
p1
(cnetworkx.classes.graph
Graph
p2
c__builtin__
object
p3
NtRp4
(dp5
S'node'
p6
(dp7
VQQ
p8
(dp9
sViReader\u8bfb\u4e66
p10
(dp11
sV\u6709\u9053\u8bcd\u5178
p12
(dp13
sVSudoku Deluxe HD
p14
(dp15
sV\u8fbe\u7b54
p16
(dp17
sVMy boy!
p18
(dp19
sVQQ\u6d4f\u89c8\u5668
p20
(dp21
ssS'graph'
p22
(dp23
sS'edge'
p24
(dp25
g8
(dp26
g10
(dp27
S'weights'
p28
(lp29
I0
aI0
aI0
aI0
aI0
aI0
aI25
assV\u6709\u9053\u8bcd\u5178
p30
(dp31
g28
(lp32
I0
aI0
aI0
aI0
aI0
aI0
aI14
assg14
(dp33
g28
(lp34
I0
aI0
aI0
aI0
aI0
aI0
aI1
assV\u8fbe\u7b54
p35
(dp36
g28
(lp37
I0
aI0
aI0
aI0
aI0
aI0
aI10
assg18
(dp38
g28
(lp39
I0
aI0
aI0
aI0
aI0
aI0
aI8
assVQQ\u6d4f\u89c8\u5668
p40
(dp41
g28
(lp42
I0
aI0
aI0
aI0
aI0
aI0
aI11
asssg10
(dp43
g8
g27
sV\u8fbe\u7b54
p44
(dp45
g28
(lp46
I0
aI0
aI0
aI0
aI0
aI0
aI5
assV\u6709\u9053\u8bcd\u5178
p47
(dp48
g28
(lp49
I0
aI0
aI0
aI0
aI0
aI0
aI9
assg40
(dp50
g28
(lp51
I0
aI0
aI0
aI0
aI0
aI0
aI8
assg18
(dp52
g28
(lp53
I0
aI0
aI0
aI0
aI0
aI0
aI5
asssg12
(dp54
VQQ
p55
g31
sViReader\u8bfb\u4e66
p56
g48
sg14
(dp57
g28
(lp58
I0
aI0
aI0
aI0
aI0
aI0
aI1
assV\u8fbe\u7b54
p59
(dp60
g28
(lp61
I0
aI0
aI0
aI0
aI0
aI0
aI5
assVMy boy!
p62
(dp63
g28
(lp64
I0
aI0
aI0
aI0
aI0
aI0
aI3
assVQQ\u6d4f\u89c8\u5668
p65
(dp66
g28
(lp67
I0
aI0
aI0
aI0
aI0
aI0
aI6
asssg14
(dp68
VQQ
p69
g33
sV\u6709\u9053\u8bcd\u5178
p70
g57
ssg16
(dp71
VQQ
p72
g36
sViReader\u8bfb\u4e66
p73
g45
sV\u6709\u9053\u8bcd\u5178
p74
g60
sg40
(dp75
g28
(lp76
I0
aI0
aI0
aI0
aI0
aI0
aI6
assVMy boy!
p77
(dp78
g28
(lp79
I0
aI0
aI0
aI0
aI0
aI0
aI1
asssg18
(dp80
g8
g38
sg44
g78
sg10
g52
sg12
g63
sVQQ\u6d4f\u89c8\u5668
p81
(dp82
g28
(lp83
I0
aI0
aI0
aI0
aI0
aI0
aI6
asssg20
(dp84
VQQ
p85
g41
sg73
g50
sg47
g66
sg44
g75
sVMy boy!
p86
g82
sssS'adj'
p87
g25
sb.