ccopy_reg
_reconstructor
p1
(cnetworkx.classes.digraph
DiGraph
p2
c__builtin__
object
p3
NtRp4
(dp5
S'node'
p6
(dp7
V\u652f\u4ed8\u5b9d\u94b1\u5305
p8
(dp9
S'weight'
p10
F0.01
ssVUC\u6d4f\u89c8\u5668
p11
(dp12
g10
F0.040000000000000001
ssV[\u5b89\u533b\u751f]
p13
(dp14
g10
F0
ssVMusic.apk
p15
(dp16
g10
F0
ssV\u6dd8\u5b9d
p17
(dp18
g10
F0
ssVWPS Office
p19
(dp20
g10
F0
ssV[ToolBox]
p21
(dp22
g10
F0
ssV\u5c0f\u7c73\u684c\u9762
p23
(dp24
g10
F0.46000000000000002
ssVPhoto.apk
p25
(dp26
g10
F0
ssVCalendar.apk
p27
(dp28
g10
F0
ssVRoot Explorer
p29
(dp30
g10
F0
ssVContacts.apk
p31
(dp32
g10
F0
ssV[\u534e\u4e3a\u684c\u9762]
p33
(dp34
g10
F0
ssV360\u624b\u673a\u536b\u58eb MTK6573\u53cc\u5361\u7248
p35
(dp36
g10
F0
ssVFileManager.apk
p37
(dp38
g10
F0
ssV[\u60c5\u666f\u6a21\u5f0f]
p39
(dp40
g10
F0
ssVClock.apk
p41
(dp42
g10
F0.01
ssVMms.apk
p43
(dp44
g10
F0.01
ssVPackageInstaller.apk
p45
(dp46
g10
F0
ssVPhone.apk
p47
(dp48
g10
F0.01
ssV\u5fae\u4fe1
p49
(dp50
g10
F0.19
ssVQQ\u56fd\u9645\u7248
p51
(dp52
g10
F0.22
ssV\u7f51\u6613\u4e91\u97f3\u4e50
p53
(dp54
g10
F0.029999999999999999
ssVSettings.apk
p55
(dp56
g10
F0.01
sssS'graph'
p57
(dp58
sS'succ'
p59
(dp60
g8
(dp61
V[ToolBox]
p62
(dp63
S'weights'
p64
(lp65
I0
aI0
aI0
aI0
aI0
aI0
aF0.016068023748206192
assg35
(dp66
g64
(lp67
I0
aI0
aI0
aI0
aI0
aI0
aF0.014215096338344552
assV\u5c0f\u7c73\u684c\u9762
p68
(dp69
g64
(lp70
I0
aI0
aI0
aI0
aI0
aI0
aF0.17472962823570035
assVUC\u6d4f\u89c8\u5668
p71
(dp72
g64
(lp73
I0
aI0
aI0
aI0
aI0
aI0
aF0.049496324081134191
assg27
(dp74
g64
(lp75
I0
aI0
aI0
aI0
aI0
aI0
aF0.020317101120621257
assVRoot Explorer
p76
(dp77
g64
(lp78
I0
aI0
aI0
aI0
aI0
aI0
aF0.020263259827409306
assV\u5fae\u4fe1
p79
(dp80
g64
(lp81
I0
aI0
aI0
aI0
aI0
aI0
aF0.094753146716822972
assV[\u5b89\u533b\u751f]
p82
(dp83
g64
(lp84
I0
aI0
aI0
aI0
aI0
aI0
aF0.026449272428252426
assg51
(dp85
g64
(lp86
I0
aI0
aI0
aI0
aI0
aI0
aF0.12317561509660019
assg41
(dp87
g64
(lp88
I0
aI0
aI0
aI0
aI0
aI0
aF0.038174630172424603
assV\u7f51\u6613\u4e91\u97f3\u4e50
p89
(dp90
g64
(lp91
I0
aI0
aI0
aI0
aI0
aI0
aF0.042183240712426115
assg43
(dp92
g64
(lp93
I0
aI0
aI0
aI0
aI0
aI0
aF0.040060057747589542
assg17
(dp94
g64
(lp95
I0
aI0
aI0
aI0
aI0
aI0
aF0.014418478608094643
assg37
(dp96
g64
(lp97
I0
aI0
aI0
aI0
aI0
aI0
aF0.014065911247451379
assg45
(dp98
g64
(lp99
I0
aI0
aI0
aI0
aI0
aI0
aF0.025256455844959974
assg47
(dp100
g64
(lp101
I0
aI0
aI0
aI0
aI0
aI0
aF0.010876865177780496
assg25
(dp102
g64
(lp103
I0
aI0
aI0
aI0
aI0
aI0
aF0.0071096752980555509
asssg11
(dp104
V[ToolBox]
p105
(dp106
g64
(lp107
I0
aI0
aI0
aI0
aI0
aI0
aF0.030661478833625813
assg35
(dp108
g64
(lp109
I0
aI0
aI0
aI0
aI0
aI0
aF0.013358323455417964
assV\u5c0f\u7c73\u684c\u9762
p110
(dp111
g64
(lp112
I0
aI0
aI0
aI0
aI0
aI0
aF0.38315422389549403
assg8
(dp113
g64
(lp114
I0
aI0
aI0
aI0
aI0
aI0
aF0.057090097623952417
assg27
(dp115
g64
(lp116
I0
aI0
aI0
aI0
aI0
aI0
aF0.020353451592097775
assVRoot Explorer
p117
(dp118
g64
(lp119
I0
aI0
aI0
aI0
aI0
aI0
aF0.025628957798528845
assV\u5fae\u4fe1
p120
(dp121
g64
(lp122
I0
aI0
aI0
aI0
aI0
aI0
aF0.24339540274816956
assV[\u5b89\u533b\u751f]
p123
(dp124
g64
(lp125
I0
aI0
aI0
aI0
aI0
aI0
aF0.027227953256614302
assg51
(dp126
g64
(lp127
I0
aI0
aI0
aI0
aI0
aI0
aF0.28599127065558844
assg41
(dp128
g64
(lp129
I0
aI0
aI0
aI0
aI0
aI0
aF0.040431659855286017
assV\u7f51\u6613\u4e91\u97f3\u4e50
p130
(dp131
g64
(lp132
I0
aI0
aI0
aI0
aI0
aI0
aF0.11516578893126957
assg43
(dp133
g64
(lp134
I0
aI0
aI0
aI0
aI0
aI0
aF0.040363943257548544
assg37
(dp135
g64
(lp136
I0
aI0
aI0
aI0
aI0
aI0
aF0.030150231430513322
assg45
(dp137
g64
(lp138
I0
aI0
aI0
aI0
aI0
aI0
aF0.026751605024008113
assg47
(dp139
g64
(lp140
I0
aI0
aI0
aI0
aI0
aI0
aF0.054725571711134832
assg25
(dp141
g64
(lp142
I0
aI0
aI0
aI0
aI0
aI0
aF0.036652031334885447
asssg13
(dp143
V\u5fae\u4fe1
p144
(dp145
g64
(lp146
I0
aI0
aI0
aI0
aI0
aI0
aF0.014353558337137834
assV\u5c0f\u7c73\u684c\u9762
p147
(dp148
g64
(lp149
I0
aI0
aI0
aI0
aI0
aI0
aF0.06709552061293865
assg45
(dp150
g64
(lp151
I0
aI0
aI0
aI0
aI0
aI0
aF0.048714742499272198
assVUC\u6d4f\u89c8\u5668
p152
(dp153
g64
(lp154
I0
aI0
aI0
aI0
aI0
aI0
aF0.014311392632011217
asssg15
(dp155
g51
(dp156
g64
(lp157
I0
aI0
aI0
aI0
aI0
aI0
aF0.018989016820467948
assV\u5c0f\u7c73\u684c\u9762
p158
(dp159
g64
(lp160
I0
aI0
aI0
aI0
aI0
aI0
aF0.023481301878422445
assV\u5fae\u4fe1
p161
(dp162
g64
(lp163
I0
aI0
aI0
aI0
aI0
aI0
aF0.010753765323104122
asssg17
(dp164
V[ToolBox]
p165
(dp166
g64
(lp167
I0
aI0
aI0
aI0
aI0
aI0
aF0.016081699006819095
assV\u5c0f\u7c73\u684c\u9762
p168
(dp169
g64
(lp170
I0
aI0
aI0
aI0
aI0
aI0
aF0.093500040813179169
assg25
(dp171
g64
(lp172
I0
aI0
aI0
aI0
aI0
aI0
aF0.0071251182958800988
assg71
(dp173
g64
(lp174
I0
aI0
aI0
aI0
aI0
aI0
aF0.033642860511566182
assg76
(dp175
g64
(lp176
I0
aI0
aI0
aI0
aI0
aI0
aF0.020274105519260472
assg79
(dp177
g64
(lp178
I0
aI0
aI0
aI0
aI0
aI0
aF0.055512035687497858
assg51
(dp179
g64
(lp180
I0
aI0
aI0
aI0
aI0
aI0
aF0.062011269092049189
assg41
(dp181
g64
(lp182
I0
aI0
aI0
aI0
aI0
aI0
aF0.020390173825641386
assV\u7f51\u6613\u4e91\u97f3\u4e50
p183
(dp184
g64
(lp185
I0
aI0
aI0
aI0
aI0
aI0
aF0.026296159673546829
assg43
(dp186
g64
(lp187
I0
aI0
aI0
aI0
aI0
aI0
aF0.04008474370279478
assg47
(dp188
g64
(lp189
I0
aI0
aI0
aI0
aI0
aI0
aF0.010886965784006029
asssg19
(dp190
g51
(dp191
g64
(lp192
I0
aI0
aI0
aI0
aI0
aI0
aF0.013534385004141156
asssg21
(dp193
V\u5c0f\u7c73\u684c\u9762
p194
(dp195
g64
(lp196
I0
aI0
aI0
aI0
aI0
aI0
aF0.13420591255742928
assg25
(dp197
g64
(lp198
I0
aI0
aI0
aI0
aI0
aI0
aF0.016097772673007223
assg71
(dp199
g64
(lp200
I0
aI0
aI0
aI0
aI0
aI0
aF0.033687417049973897
assg29
(dp201
g64
(lp202
I0
aI0
aI0
aI0
aI0
aI0
aF0.039332090437233749
assg49
(dp203
g64
(lp204
I0
aI0
aI0
aI0
aI0
aI0
aF0.10052550233346307
assg51
(dp205
g64
(lp206
I0
aI0
aI0
aI0
aI0
aI0
aF0.074724832519938111
assg41
(dp207
g64
(lp208
I0
aI0
aI0
aI0
aI0
aI0
aF0.014424755114113549
assg183
(dp209
g64
(lp210
I0
aI0
aI0
aI0
aI0
aI0
aF0.026324665536826043
assg43
(dp211
g64
(lp212
I0
aI0
aI0
aI0
aI0
aI0
aF0.044547445193406594
assg47
(dp213
g64
(lp214
I0
aI0
aI0
aI0
aI0
aI0
aF0.010904174636091885
asssg23
(dp215
g8
(dp216
g64
(lp217
I0
aI0
aI0
aI0
aI0
aI0
aF0.13963504590675829
assg11
(dp218
g64
(lp219
I0
aI0
aI0
aI0
aI0
aI0
aF0.368492398528183
assV[\u5b89\u533b\u751f]
p220
(dp221
g64
(lp222
I0
aI0
aI0
aI0
aI0
aI0
aF0.062885898584879835
assg15
(dp223
g64
(lp224
I0
aI0
aI0
aI0
aI0
aI0
aF0.024415457124526023
assg17
(dp225
g64
(lp226
I0
aI0
aI0
aI0
aI0
aI0
aF0.028398659481084252
assg19
(dp227
g64
(lp228
I0
aI0
aI0
aI0
aI0
aI0
aF0.015910499658380702
assV[ToolBox]
p229
(dp230
g64
(lp231
I0
aI0
aI0
aI0
aI0
aI0
aF0.10924338059962849
assg25
(dp232
g64
(lp233
I0
aI0
aI0
aI0
aI0
aI0
aF0.14831716905872255
assg27
(dp234
g64
(lp235
I0
aI0
aI0
aI0
aI0
aI0
aF0.058184747688454636
assg29
(dp236
g64
(lp237
I0
aI0
aI0
aI0
aI0
aI0
aF0.10810091275606515
assV[\u534e\u4e3a\u684c\u9762]
p238
(dp239
g64
(lp240
I0
aI0
aI0
aI0
aI0
aI0
aF0.031610175017972426
assg35
(dp241
g64
(lp242
I0
aI0
aI0
aI0
aI0
aI0
aF0.031664700110634436
assg37
(dp243
g64
(lp244
I0
aI0
aI0
aI0
aI0
aI0
aF0.059094798918596397
assV[\u60c5\u666f\u6a21\u5f0f]
p245
(dp246
g64
(lp247
I0
aI0
aI0
aI0
aI0
aI0
aF0.035865882115897224
assg41
(dp248
g64
(lp249
I0
aI0
aI0
aI0
aI0
aI0
aF0.17385990026949022
assg43
(dp250
g64
(lp251
I0
aI0
aI0
aI0
aI0
aI0
aF0.17301042458323421
assg45
(dp252
g64
(lp253
I0
aI0
aI0
aI0
aI0
aI0
aF0.088151956503837017
assg47
(dp254
g64
(lp255
I0
aI0
aI0
aI0
aI0
aI0
aF0.20402822942467247
assg49
(dp256
g64
(lp257
I0
aI0
aI0
aI0
aI0
aI0
aF0.91566274556919092
assg51
(dp258
g64
(lp259
I0
aI0
aI0
aI0
aI0
aI0
aF1
assg53
(dp260
g64
(lp261
I0
aI0
aI0
aI0
aI0
aI0
aF0.33708219733954536
assg55
(dp262
g64
(lp263
I0
aI0
aI0
aI0
aI0
aI0
aF0.07131471555633144
asssg25
(dp264
g35
(dp265
g64
(lp266
I0
aI0
aI0
aI0
aI0
aI0
aF0.010037917236074998
assV\u5c0f\u7c73\u684c\u9762
p267
(dp268
g64
(lp269
I0
aI0
aI0
aI0
aI0
aI0
aF0.12783563199298281
assV\u652f\u4ed8\u5b9d\u94b1\u5305
p270
(dp271
g64
(lp272
I0
aI0
aI0
aI0
aI0
aI0
aF0.012137671129016472
assVUC\u6d4f\u89c8\u5668
p273
(dp274
g64
(lp275
I0
aI0
aI0
aI0
aI0
aI0
aF0.023855062395959033
assV\u5fae\u4fe1
p276
(dp277
g64
(lp278
I0
aI0
aI0
aI0
aI0
aI0
aF0.083702649004721907
assV[\u5b89\u533b\u751f]
p279
(dp280
g64
(lp281
I0
aI0
aI0
aI0
aI0
aI0
aF0.0094224669563929987
assV[\u60c5\u666f\u6a21\u5f0f]
p282
(dp283
g64
(lp284
I0
aI0
aI0
aI0
aI0
aI0
aF0.014374314579674915
assg51
(dp285
g64
(lp286
I0
aI0
aI0
aI0
aI0
aI0
aF0.088388023407078672
assg41
(dp287
g64
(lp288
I0
aI0
aI0
aI0
aI0
aI0
aF0.013447362413489655
assg15
(dp289
g64
(lp290
I0
aI0
aI0
aI0
aI0
aI0
aF0.014328348631552048
assV\u7f51\u6613\u4e91\u97f3\u4e50
p291
(dp292
g64
(lp293
I0
aI0
aI0
aI0
aI0
aI0
aF0.023760829055330848
assg37
(dp294
g64
(lp295
I0
aI0
aI0
aI0
aI0
aI0
aF0.005500672196222087
assg47
(dp296
g64
(lp297
I0
aI0
aI0
aI0
aI0
aI0
aF0.028988347275930314
assg55
(dp298
g64
(lp299
I0
aI0
aI0
aI0
aI0
aI0
aF0.02033681430954374
asssg27
(dp300
g41
(dp301
g64
(lp302
I0
aI0
aI0
aI0
aI0
aI0
aF0.019636825027605234
assV\u5c0f\u7c73\u684c\u9762
p303
(dp304
g64
(lp305
I0
aI0
aI0
aI0
aI0
aI0
aF0.024359895592561461
assg89
(dp306
g64
(lp307
I0
aI0
aI0
aI0
aI0
aI0
aF0.014349033507839825
asssg29
(dp308
V[ToolBox]
p309
(dp310
g64
(lp311
I0
aI0
aI0
aI0
aI0
aI0
aF0.010341795410386332
assg71
(dp312
g64
(lp313
I0
aI0
aI0
aI0
aI0
aI0
aF0.0462602014006918
assV\u5c0f\u7c73\u684c\u9762
p314
(dp315
g64
(lp316
I0
aI0
aI0
aI0
aI0
aI0
aF0.15876405123489781
assg8
(dp317
g64
(lp318
I0
aI0
aI0
aI0
aI0
aI0
aF0.019912866858291738
assg27
(dp319
g64
(lp320
I0
aI0
aI0
aI0
aI0
aI0
aF0.014019310930720333
assV\u5fae\u4fe1
p321
(dp322
g64
(lp323
I0
aI0
aI0
aI0
aI0
aI0
aF0.09964090576622199
assg51
(dp324
g64
(lp325
I0
aI0
aI0
aI0
aI0
aI0
aF0.098086917100105586
assg41
(dp326
g64
(lp327
I0
aI0
aI0
aI0
aI0
aI0
aF0.021573660006292541
assV\u7f51\u6613\u4e91\u97f3\u4e50
p328
(dp329
g64
(lp330
I0
aI0
aI0
aI0
aI0
aI0
aF0.044649499760870924
assg43
(dp331
g64
(lp332
I0
aI0
aI0
aI0
aI0
aI0
aF0.060574849294166566
assg47
(dp333
g64
(lp334
I0
aI0
aI0
aI0
aI0
aI0
aF0.015563977636687282
assg19
(dp335
g64
(lp336
I0
aI0
aI0
aI0
aI0
aI0
aF0.01005003401347253
assg25
(dp337
g64
(lp338
I0
aI0
aI0
aI0
aI0
aI0
aF0.010330535967297943
asssg31
(dp339
V\u5c0f\u7c73\u684c\u9762
p340
(dp341
g64
(lp342
I0
aI0
aI0
aI0
aI0
aI0
aF0.012670588596072003
asssg33
(dp343
V\u5c0f\u7c73\u684c\u9762
p344
(dp345
g64
(lp346
I0
aI0
aI0
aI0
aI0
aI0
aF0.033894032360185906
assg25
(dp347
g64
(lp348
I0
aI0
aI0
aI0
aI0
aI0
aF0.018646075262230281
assg161
(dp349
g64
(lp350
I0
aI0
aI0
aI0
aI0
aI0
aF0.012534623884018253
assV[\u60c5\u666f\u6a21\u5f0f]
p351
(dp352
g64
(lp353
I0
aI0
aI0
aI0
aI0
aI0
aF0.033272290095297474
assg51
(dp354
g64
(lp355
I0
aI0
aI0
aI0
aI0
aI0
aF0.022330586548746357
assg15
(dp356
g64
(lp357
I0
aI0
aI0
aI0
aI0
aI0
aF0.018494717223633921
assg47
(dp358
g64
(lp359
I0
aI0
aI0
aI0
aI0
aI0
aF0.042824608474188675
assg55
(dp360
g64
(lp361
I0
aI0
aI0
aI0
aI0
aI0
aF0.05938333163634836
asssg35
(dp362
g144
(dp363
g64
(lp364
I0
aI0
aI0
aI0
aI0
aI0
aF0.01393010186766936
assV[\u5b89\u533b\u751f]
p365
(dp366
g64
(lp367
I0
aI0
aI0
aI0
aI0
aI0
aF0.014004836820349361
assV\u5c0f\u7c73\u684c\u9762
p368
(dp369
g64
(lp370
I0
aI0
aI0
aI0
aI0
aI0
aF0.024410616336479039
assg152
(dp371
g64
(lp372
I0
aI0
aI0
aI0
aI0
aI0
aF0.01388665043030937
asssg37
(dp373
V\u5c0f\u7c73\u684c\u9762
p374
(dp375
g64
(lp376
I0
aI0
aI0
aI0
aI0
aI0
aF0.014423894853969055
assVUC\u6d4f\u89c8\u5668
p377
(dp378
g64
(lp379
I0
aI0
aI0
aI0
aI0
aI0
aF0.01367843867851861
asssg39
(dp380
g344
(dp381
g64
(lp382
I0
aI0
aI0
aI0
aI0
aI0
aF0.045577189721007598
assg25
(dp383
g64
(lp384
I0
aI0
aI0
aI0
aI0
aI0
aF0.019563353823625444
assg161
(dp385
g64
(lp386
I0
aI0
aI0
aI0
aI0
aI0
aF0.017506844648698019
assg51
(dp387
g64
(lp388
I0
aI0
aI0
aI0
aI0
aI0
aF0.030990738785408346
assg15
(dp389
g64
(lp390
I0
aI0
aI0
aI0
aI0
aI0
aF0.024163945527504754
assg47
(dp391
g64
(lp392
I0
aI0
aI0
aI0
aI0
aI0
aF0.036837922153064417
assg55
(dp393
g64
(lp394
I0
aI0
aI0
aI0
aI0
aI0
aF0.052254455788923682
asssg41
(dp395
V[ToolBox]
p396
(dp397
g64
(lp398
I0
aI0
aI0
aI0
aI0
aI0
aF0.022543196785194848
assV\u5c0f\u7c73\u684c\u9762
p399
(dp400
g64
(lp401
I0
aI0
aI0
aI0
aI0
aI0
aF0.17431933182286871
assg25
(dp402
g64
(lp403
I0
aI0
aI0
aI0
aI0
aI0
aF0.020661602490604405
assg71
(dp404
g64
(lp405
I0
aI0
aI0
aI0
aI0
aI0
aF0.056121870646790556
assg76
(dp406
g64
(lp407
I0
aI0
aI0
aI0
aI0
aI0
aF0.028688146419154046
assV\u5fae\u4fe1
p408
(dp409
g64
(lp410
I0
aI0
aI0
aI0
aI0
aI0
aF0.11023732002121521
assg51
(dp411
g64
(lp412
I0
aI0
aI0
aI0
aI0
aI0
aF0.11212308627161173
assg183
(dp413
g64
(lp414
I0
aI0
aI0
aI0
aI0
aI0
aF0.043589971701196648
assg43
(dp415
g64
(lp416
I0
aI0
aI0
aI0
aI0
aI0
aF0.056725329583292988
assg47
(dp417
g64
(lp418
I0
aI0
aI0
aI0
aI0
aI0
aF0.022818745850146135
asssg43
(dp419
V[ToolBox]
p420
(dp421
g64
(lp422
I0
aI0
aI0
aI0
aI0
aI0
aF0.026910550224865996
assV\u5c0f\u7c73\u684c\u9762
p423
(dp424
g64
(lp425
I0
aI0
aI0
aI0
aI0
aI0
aF0.30838065079749188
assg25
(dp426
g64
(lp427
I0
aI0
aI0
aI0
aI0
aI0
aF0.026891082131091423
assVUC\u6d4f\u89c8\u5668
p428
(dp429
g64
(lp430
I0
aI0
aI0
aI0
aI0
aI0
aF0.10452300185504759
assVRoot Explorer
p431
(dp432
g64
(lp433
I0
aI0
aI0
aI0
aI0
aI0
aF0.014390993571876893
assV\u5fae\u4fe1
p434
(dp435
g64
(lp436
I0
aI0
aI0
aI0
aI0
aI0
aF0.19677746634432794
assg51
(dp437
g64
(lp438
I0
aI0
aI0
aI0
aI0
aI0
aF0.22734236705858837
assg183
(dp439
g64
(lp440
I0
aI0
aI0
aI0
aI0
aI0
aF0.078043078346293884
assg47
(dp441
g64
(lp442
I0
aI0
aI0
aI0
aI0
aI0
aF0.03925188718936326
assV\u652f\u4ed8\u5b9d\u94b1\u5305
p443
(dp444
g64
(lp445
I0
aI0
aI0
aI0
aI0
aI0
aF0.023395619126299404
asssg45
(dp446
V\u5c0f\u7c73\u684c\u9762
p447
(dp448
g64
(lp449
I0
aI0
aI0
aI0
aI0
aI0
aF0.076353631742316269
assg25
(dp450
g64
(lp451
I0
aI0
aI0
aI0
aI0
aI0
aF0.008432100854353565
assVUC\u6d4f\u89c8\u5668
p452
(dp453
g64
(lp454
I0
aI0
aI0
aI0
aI0
aI0
aF0.012281483607200036
assV\u5fae\u4fe1
p455
(dp456
g64
(lp457
I0
aI0
aI0
aI0
aI0
aI0
aF0.025027365758725481
assg51
(dp458
g64
(lp459
I0
aI0
aI0
aI0
aI0
aI0
aF0.048215655812563221
assg41
(dp460
g64
(lp461
I0
aI0
aI0
aI0
aI0
aI0
aF0.014792620999975713
assV\u7f51\u6613\u4e91\u97f3\u4e50
p462
(dp463
g64
(lp464
I0
aI0
aI0
aI0
aI0
aI0
aF0.014397973162803444
asssg47
(dp465
V[ToolBox]
p466
(dp467
g64
(lp468
I0
aI0
aI0
aI0
aI0
aI0
aF0.011852004871585222
assV[\u534e\u4e3a\u684c\u9762]
p469
(dp470
g64
(lp471
I0
aI0
aI0
aI0
aI0
aI0
aF0.019176890096295085
assV\u5c0f\u7c73\u684c\u9762
p472
(dp473
g64
(lp474
I0
aI0
aI0
aI0
aI0
aI0
aF0.19011031071625223
assg25
(dp475
g64
(lp476
I0
aI0
aI0
aI0
aI0
aI0
aF0.035815282108260488
assVUC\u6d4f\u89c8\u5668
p477
(dp478
g64
(lp479
I0
aI0
aI0
aI0
aI0
aI0
aF0.03788300589928497
assV\u5fae\u4fe1
p480
(dp481
g64
(lp482
I0
aI0
aI0
aI0
aI0
aI0
aF0.1053559364553167
assV[\u60c5\u666f\u6a21\u5f0f]
p483
(dp484
g64
(lp485
I0
aI0
aI0
aI0
aI0
aI0
aF0.045416436460731853
assg51
(dp486
g64
(lp487
I0
aI0
aI0
aI0
aI0
aI0
aF0.14054269421080826
assg15
(dp488
g64
(lp489
I0
aI0
aI0
aI0
aI0
aI0
aF0.033548712642660447
assV\u7f51\u6613\u4e91\u97f3\u4e50
p490
(dp491
g64
(lp492
I0
aI0
aI0
aI0
aI0
aI0
aF0.038121443497850002
assg43
(dp493
g64
(lp494
I0
aI0
aI0
aI0
aI0
aI0
aF0.020301055339581257
assg443
(dp495
g64
(lp496
I0
aI0
aI0
aI0
aI0
aI0
aF0.017597109444908193
assg55
(dp497
g64
(lp498
I0
aI0
aI0
aI0
aI0
aI0
aF0.082395075639662224
assg31
(dp499
g64
(lp500
I0
aI0
aI0
aI0
aI0
aI0
aF0.0071092595609990785
asssg49
(dp501
g8
(dp502
g64
(lp503
I0
aI0
aI0
aI0
aI0
aI0
aF0.080584646185461836
assg11
(dp504
g64
(lp505
I0
aI0
aI0
aI0
aI0
aI0
aF0.20521013398444765
assV[\u5b89\u533b\u751f]
p506
(dp507
g64
(lp508
I0
aI0
aI0
aI0
aI0
aI0
aF0.035223517203484107
assg15
(dp509
g64
(lp510
I0
aI0
aI0
aI0
aI0
aI0
aF0.011956093697108846
assg17
(dp511
g64
(lp512
I0
aI0
aI0
aI0
aI0
aI0
aF0.014401428588528484
assg19
(dp513
g64
(lp514
I0
aI0
aI0
aI0
aI0
aI0
aF0.006634303414951164
assV[ToolBox]
p515
(dp516
g64
(lp517
I0
aI0
aI0
aI0
aI0
aI0
aF0.073068754834896041
assV\u5c0f\u7c73\u684c\u9762
p518
(dp519
g64
(lp520
I0
aI0
aI0
aI0
aI0
aI0
aF0.87790418314589969
assg25
(dp521
g64
(lp522
I0
aI0
aI0
aI0
aI0
aI0
aF0.11469894643530304
assg27
(dp523
g64
(lp524
I0
aI0
aI0
aI0
aI0
aI0
aF0.024464709893311697
assg29
(dp525
g64
(lp526
I0
aI0
aI0
aI0
aI0
aI0
aF0.069645253878905869
assV[\u534e\u4e3a\u684c\u9762]
p527
(dp528
g64
(lp529
I0
aI0
aI0
aI0
aI0
aI0
aF0.018975418159373574
assg35
(dp530
g64
(lp531
I0
aI0
aI0
aI0
aI0
aI0
aF0.014520996812125368
assg37
(dp532
g64
(lp533
I0
aI0
aI0
aI0
aI0
aI0
aF0.034639660353036915
assV[\u60c5\u666f\u6a21\u5f0f]
p534
(dp535
g64
(lp536
I0
aI0
aI0
aI0
aI0
aI0
aF0.021662994386780446
assg41
(dp537
g64
(lp538
I0
aI0
aI0
aI0
aI0
aI0
aF0.10590119894415002
assg43
(dp539
g64
(lp540
I0
aI0
aI0
aI0
aI0
aI0
aF0.065961910689408459
assg45
(dp541
g64
(lp542
I0
aI0
aI0
aI0
aI0
aI0
aF0.047944187781395593
assg47
(dp543
g64
(lp544
I0
aI0
aI0
aI0
aI0
aI0
aF0.14521276684420192
assg51
(dp545
g64
(lp546
I0
aI0
aI0
aI0
aI0
aI0
aF0.55684244470459043
assg53
(dp547
g64
(lp548
I0
aI0
aI0
aI0
aI0
aI0
aF0.20063970990292451
assg55
(dp549
g64
(lp550
I0
aI0
aI0
aI0
aI0
aI0
aF0.042123680652402476
asssg51
(dp551
g8
(dp552
g64
(lp553
I0
aI0
aI0
aI0
aI0
aI0
aF0.091120793644657763
assg11
(dp554
g64
(lp555
I0
aI0
aI0
aI0
aI0
aI0
aF0.25385931986089727
assV[\u5b89\u533b\u751f]
p556
(dp557
g64
(lp558
I0
aI0
aI0
aI0
aI0
aI0
aF0.025208283908374832
assg15
(dp559
g64
(lp560
I0
aI0
aI0
aI0
aI0
aI0
aF0.017583676027543731
assg17
(dp561
g64
(lp562
I0
aI0
aI0
aI0
aI0
aI0
aF0.020376217076420001
assg19
(dp563
g64
(lp564
I0
aI0
aI0
aI0
aI0
aI0
aF0.011699395322865376
assV[ToolBox]
p565
(dp566
g64
(lp567
I0
aI0
aI0
aI0
aI0
aI0
aF0.075397354232540681
assV\u5c0f\u7c73\u684c\u9762
p568
(dp569
g64
(lp570
I0
aI0
aI0
aI0
aI0
aI0
aF0.97816814186374101
assg25
(dp571
g64
(lp572
I0
aI0
aI0
aI0
aI0
aI0
aF0.093116689587005599
assg27
(dp573
g64
(lp574
I0
aI0
aI0
aI0
aI0
aI0
aF0.042674977151824563
assg117
(dp575
g64
(lp576
I0
aI0
aI0
aI0
aI0
aI0
aF0.053389474038031376
assV[\u534e\u4e3a\u684c\u9762]
p577
(dp578
g64
(lp579
I0
aI0
aI0
aI0
aI0
aI0
aF0.027689557742102296
assg35
(dp580
g64
(lp581
I0
aI0
aI0
aI0
aI0
aI0
aF0.013606890670830728
assg37
(dp582
g64
(lp583
I0
aI0
aI0
aI0
aI0
aI0
aF0.043233446992035435
assV[\u60c5\u666f\u6a21\u5f0f]
p584
(dp585
g64
(lp586
I0
aI0
aI0
aI0
aI0
aI0
aF0.031755921976285545
assg41
(dp587
g64
(lp588
I0
aI0
aI0
aI0
aI0
aI0
aF0.12024326036105264
assg43
(dp589
g64
(lp590
I0
aI0
aI0
aI0
aI0
aI0
aF0.1001071611277585
assg45
(dp591
g64
(lp592
I0
aI0
aI0
aI0
aI0
aI0
aF0.031874525315999359
assg47
(dp593
g64
(lp594
I0
aI0
aI0
aI0
aI0
aI0
aF0.11384479599323587
assV\u5fae\u4fe1
p595
(dp596
g64
(lp597
I0
aI0
aI0
aI0
aI0
aI0
aF0.58194468803688559
assg53
(dp598
g64
(lp599
I0
aI0
aI0
aI0
aI0
aI0
aF0.22336764370736778
assg55
(dp600
g64
(lp601
I0
aI0
aI0
aI0
aI0
aI0
aF0.061684611935230178
asssg53
(dp602
V[ToolBox]
p603
(dp604
g64
(lp605
I0
aI0
aI0
aI0
aI0
aI0
aF0.024472996185721178
assV\u5c0f\u7c73\u684c\u9762
p606
(dp607
g64
(lp608
I0
aI0
aI0
aI0
aI0
aI0
aF0.36631423430794785
assg8
(dp609
g64
(lp610
I0
aI0
aI0
aI0
aI0
aI0
aF0.043573134733244846
assg11
(dp611
g64
(lp612
I0
aI0
aI0
aI0
aI0
aI0
aF0.10855054148179022
assg117
(dp613
g64
(lp614
I0
aI0
aI0
aI0
aI0
aI0
aF0.031978372465930285
assg120
(dp615
g64
(lp616
I0
aI0
aI0
aI0
aI0
aI0
aF0.22003966451965995
assg41
(dp617
g64
(lp618
I0
aI0
aI0
aI0
aI0
aI0
aF0.064153166796490774
assg51
(dp619
g64
(lp620
I0
aI0
aI0
aI0
aI0
aI0
aF0.26446795568969089
assg27
(dp621
g64
(lp622
I0
aI0
aI0
aI0
aI0
aI0
aF0.024089965018207329
assg43
(dp623
g64
(lp624
I0
aI0
aI0
aI0
aI0
aI0
aF0.05211661579031486
assg17
(dp625
g64
(lp626
I0
aI0
aI0
aI0
aI0
aI0
aF0.014353310517463377
assg45
(dp627
g64
(lp628
I0
aI0
aI0
aI0
aI0
aI0
aF0.023828327594833377
assg47
(dp629
g64
(lp630
I0
aI0
aI0
aI0
aI0
aI0
aF0.064592980267033612
assg25
(dp631
g64
(lp632
I0
aI0
aI0
aI0
aI0
aI0
aF0.028318149777129573
asssg55
(dp633
V[\u534e\u4e3a\u684c\u9762]
p634
(dp635
g64
(lp636
I0
aI0
aI0
aI0
aI0
aI0
aF0.024667892456346908
assg344
(dp637
g64
(lp638
I0
aI0
aI0
aI0
aI0
aI0
aF0.084498913497452463
assg25
(dp639
g64
(lp640
I0
aI0
aI0
aI0
aI0
aI0
aF0.041222767071899126
assg161
(dp641
g64
(lp642
I0
aI0
aI0
aI0
aI0
aI0
aF0.032712438377431929
assV[\u60c5\u666f\u6a21\u5f0f]
p643
(dp644
g64
(lp645
I0
aI0
aI0
aI0
aI0
aI0
aF0.060083401075432204
assg51
(dp646
g64
(lp647
I0
aI0
aI0
aI0
aI0
aI0
aF0.057969705597621553
assg15
(dp648
g64
(lp649
I0
aI0
aI0
aI0
aI0
aI0
aF0.045686555523188371
assg47
(dp650
g64
(lp651
I0
aI0
aI0
aI0
aI0
aI0
aF0.075386770615118698
assssS'edge'
p652
g60
sS'pred'
p653
(dp654
g8
(dp655
V\u5c0f\u7c73\u684c\u9762
p656
g216
sg25
g271
sg11
g113
sg117
g317
sV\u5fae\u4fe1
p657
g502
sg51
g552
sg53
g609
sg43
g444
sg47
g495
ssg11
(dp658
V[ToolBox]
p659
g199
sg35
g371
sg656
g218
sV\u652f\u4ed8\u5b9d\u94b1\u5305
p660
g72
sg76
g312
sg657
g504
sV[\u5b89\u533b\u751f]
p661
g153
sg51
g554
sg41
g404
sg53
g611
sg43
g429
sg17
g173
sg37
g378
sg45
g453
sg47
g478
sg25
g274
ssg13
(dp662
g35
g366
sV\u5c0f\u7c73\u684c\u9762
p663
g221
sg270
g83
sVUC\u6d4f\u89c8\u5668
p664
g124
sV\u5fae\u4fe1
p665
g507
sg51
g557
sg25
g280
ssg15
(dp666
V[\u534e\u4e3a\u684c\u9762]
p667
g356
sV\u5c0f\u7c73\u684c\u9762
p668
g223
sg25
g289
sV\u5fae\u4fe1
p669
g509
sV[\u60c5\u666f\u6a21\u5f0f]
p670
g389
sg51
g559
sg47
g488
sg55
g648
ssg17
(dp671
g660
g94
sg51
g561
sV\u5c0f\u7c73\u684c\u9762
p672
g225
sV\u7f51\u6613\u4e91\u97f3\u4e50
p673
g625
sV\u5fae\u4fe1
p674
g511
ssg19
(dp675
VRoot Explorer
p676
g335
sg51
g563
sV\u5c0f\u7c73\u684c\u9762
p677
g227
sV\u5fae\u4fe1
p678
g513
ssg21
(dp679
g23
g230
sg660
g63
sg71
g106
sg76
g310
sV\u5fae\u4fe1
p680
g516
sg51
g566
sg41
g397
sg673
g604
sg43
g421
sg17
g166
sg47
g467
ssg23
(dp681
g8
g69
sg11
g111
sV[\u5b89\u533b\u751f]
p682
g148
sg15
g159
sg17
g169
sV[ToolBox]
p683
g195
sg25
g268
sg27
g304
sg29
g315
sg31
g341
sV[\u534e\u4e3a\u684c\u9762]
p684
g345
sg35
g369
sg37
g375
sV[\u60c5\u666f\u6a21\u5f0f]
p685
g381
sg41
g400
sg43
g424
sg45
g448
sg47
g473
sg49
g519
sg51
g569
sg53
g607
sg55
g637
ssg25
(dp686
V[ToolBox]
p687
g197
sV[\u534e\u4e3a\u684c\u9762]
p688
g347
sg672
g232
sg660
g102
sg71
g141
sg76
g337
sg674
g521
sV[\u60c5\u666f\u6a21\u5f0f]
p689
g383
sg51
g571
sg41
g402
sg673
g631
sg43
g426
sg17
g171
sg45
g450
sg47
g475
sg55
g639
ssg27
(dp690
g656
g234
sg8
g74
sg11
g115
sg117
g319
sg657
g523
sg51
g573
sg53
g621
ssg29
(dp691
V[ToolBox]
p692
g201
sg23
g236
sg660
g77
sg11
g118
sg49
g525
sg51
g575
sg41
g406
sg53
g613
sg43
g432
sg17
g175
ssg31
(dp693
g47
g499
ssg33
(dp694
g669
g528
sg55
g635
sg668
g239
sg47
g470
sg51
g578
ssg35
(dp695
g663
g241
sg270
g66
sg664
g108
sg665
g530
sg51
g580
sg25
g265
ssg37
(dp696
V\u5c0f\u7c73\u684c\u9762
p697
g243
sV\u652f\u4ed8\u5b9d\u94b1\u5305
p698
g96
sVUC\u6d4f\u89c8\u5668
p699
g135
sV\u5fae\u4fe1
p700
g532
sg51
g582
sg25
g294
ssg39
(dp701
V[\u534e\u4e3a\u684c\u9762]
p702
g352
sg668
g246
sg25
g283
sg669
g535
sg51
g585
sg47
g484
sg55
g644
ssg41
(dp703
V[ToolBox]
p704
g207
sV\u5c0f\u7c73\u684c\u9762
p705
g248
sg8
g87
sg11
g128
sg117
g326
sg680
g537
sg51
g587
sg27
g301
sg53
g617
sg17
g181
sg45
g460
sg25
g287
ssg43
(dp706
V[ToolBox]
p707
g211
sg23
g250
sg660
g92
sg71
g133
sg29
g331
sg49
g539
sg51
g589
sg41
g415
sg673
g623
sg17
g186
sg47
g493
ssg45
(dp708
V\u5c0f\u7c73\u684c\u9762
p709
g252
sV\u652f\u4ed8\u5b9d\u94b1\u5305
p710
g98
sVUC\u6d4f\u89c8\u5668
p711
g137
sV\u5fae\u4fe1
p712
g541
sV[\u5b89\u533b\u751f]
p713
g150
sg51
g591
sV\u7f51\u6613\u4e91\u97f3\u4e50
p714
g627
ssg47
(dp715
V[ToolBox]
p716
g213
sV[\u534e\u4e3a\u684c\u9762]
p717
g358
sg672
g254
sg660
g100
sg71
g139
sg76
g333
sg674
g543
sV[\u60c5\u666f\u6a21\u5f0f]
p718
g391
sg51
g593
sg41
g417
sg673
g629
sg43
g441
sg17
g188
sg55
g650
sg25
g296
ssg49
(dp719
V[ToolBox]
p720
g203
sg35
g363
sg23
g256
sg660
g80
sg11
g121
sg29
g322
sV[\u5b89\u533b\u751f]
p721
g145
sV[\u534e\u4e3a\u684c\u9762]
p722
g349
sV[\u60c5\u666f\u6a21\u5f0f]
p723
g385
sg51
g596
sg41
g409
sg15
g162
sg53
g615
sg43
g435
sg17
g177
sg55
g641
sg45
g456
sg47
g481
sg25
g277
ssg51
(dp724
V[ToolBox]
p725
g205
sV[\u534e\u4e3a\u684c\u9762]
p726
g354
sg23
g258
sg660
g85
sg11
g126
sg29
g324
sg49
g545
sV[\u60c5\u666f\u6a21\u5f0f]
p727
g387
sg41
g411
sg15
g156
sg53
g619
sg43
g437
sg17
g179
sg55
g646
sg45
g458
sg47
g486
sg19
g191
sg25
g285
ssg53
(dp728
V[ToolBox]
p729
g209
sg656
g260
sg8
g90
sg11
g131
sg117
g329
sg657
g547
sg41
g413
sg51
g598
sg27
g306
sg43
g439
sg17
g184
sg45
g463
sg47
g491
sg25
g292
ssg55
(dp730
V[\u534e\u4e3a\u684c\u9762]
p731
g360
sg668
g262
sg25
g298
sg669
g549
sV[\u60c5\u666f\u6a21\u5f0f]
p732
g393
sg51
g600
sg47
g497
sssS'adj'
p733
g60
sb.