ccopy_reg
_reconstructor
p1
(cnetworkx.classes.digraph
DiGraph
p2
c__builtin__
object
p3
NtRp4
(dp5
S'node'
p6
(dp7
V\u652f\u4ed8\u5b9d\u94b1\u5305
p8
(dp9
S'weight'
p10
F0.01
ssVUC\u6d4f\u89c8\u5668
p11
(dp12
g10
F0.040000000000000001
ssV[\u5b89\u533b\u751f]
p13
(dp14
g10
F0
ssVMusic.apk
p15
(dp16
g10
F0
ssV\u6dd8\u5b9d
p17
(dp18
g10
F0
ssVWPS Office
p19
(dp20
g10
F0
ssV[ToolBox]
p21
(dp22
g10
F0
ssV\u5c0f\u7c73\u684c\u9762
p23
(dp24
g10
F0.46000000000000002
ssVPhoto.apk
p25
(dp26
g10
F0
ssVCalendar.apk
p27
(dp28
g10
F0
ssVRoot Explorer
p29
(dp30
g10
F0
ssVContacts.apk
p31
(dp32
g10
F0
ssV[\u534e\u4e3a\u684c\u9762]
p33
(dp34
g10
F0
ssV360\u624b\u673a\u536b\u58eb MTK6573\u53cc\u5361\u7248
p35
(dp36
g10
F0
ssVFileManager.apk
p37
(dp38
g10
F0
ssV[\u60c5\u666f\u6a21\u5f0f]
p39
(dp40
g10
F0
ssVClock.apk
p41
(dp42
g10
F0.01
ssVMms.apk
p43
(dp44
g10
F0.01
ssVPackageInstaller.apk
p45
(dp46
g10
F0
ssVPhone.apk
p47
(dp48
g10
F0.01
ssV\u5fae\u4fe1
p49
(dp50
g10
F0.19
ssVQQ\u56fd\u9645\u7248
p51
(dp52
g10
F0.22
ssV\u7f51\u6613\u4e91\u97f3\u4e50
p53
(dp54
g10
F0.029999999999999999
ssVSettings.apk
p55
(dp56
g10
F0.01
sssS'graph'
p57
(dp58
sS'succ'
p59
(dp60
g8
(dp61
V[ToolBox]
p62
(dp63
S'weights'
p64
(lp65
I0
aI0
aI0
aI0
aI0
aI0
aF0.050000000000000003
assg35
(dp66
g64
(lp67
I0
aI0
aI0
aI0
aI0
aI0
aF0.050000000000000003
assV\u5c0f\u7c73\u684c\u9762
p68
(dp69
g64
(lp70
I0
aI0
aI0
aI0
aI0
aI0
aF0.050000000000000003
assVUC\u6d4f\u89c8\u5668
p71
(dp72
g64
(lp73
I0
aI0
aI0
aI0
aI0
aI0
aF0.050000000000000003
assg27
(dp74
g64
(lp75
I0
aI0
aI0
aI0
aI0
aI0
aF0.050000000000000003
assVRoot Explorer
p76
(dp77
g64
(lp78
I0
aI0
aI0
aI0
aI0
aI0
aF0.050000000000000003
assV\u5fae\u4fe1
p79
(dp80
g64
(lp81
I0
aI0
aI0
aI0
aI0
aI0
aF-0.02
assV[\u5b89\u533b\u751f]
p82
(dp83
g64
(lp84
I0
aI0
aI0
aI0
aI0
aI0
aF0.050000000000000003
assg51
(dp85
g64
(lp86
I0
aI0
aI0
aI0
aI0
aI0
aF0.050000000000000003
assg41
(dp87
g64
(lp88
I0
aI0
aI0
aI0
aI0
aI0
aF0.040000000000000001
assV\u7f51\u6613\u4e91\u97f3\u4e50
p89
(dp90
g64
(lp91
I0
aI0
aI0
aI0
aI0
aI0
aF0.050000000000000003
assg43
(dp92
g64
(lp93
I0
aI0
aI0
aI0
aI0
aI0
aF0.01
assg17
(dp94
g64
(lp95
I0
aI0
aI0
aI0
aI0
aI0
aF0.050000000000000003
assg37
(dp96
g64
(lp97
I0
aI0
aI0
aI0
aI0
aI0
aF0.040000000000000001
assg45
(dp98
g64
(lp99
I0
aI0
aI0
aI0
aI0
aI0
aF0.050000000000000003
assg47
(dp100
g64
(lp101
I0
aI0
aI0
aI0
aI0
aI0
aF-0.14999999999999999
assg25
(dp102
g64
(lp103
I0
aI0
aI0
aI0
aI0
aI0
aF-0.31
asssg11
(dp104
V[ToolBox]
p105
(dp106
g64
(lp107
I0
aI0
aI0
aI0
aI0
aI0
aF-0.29999999999999999
assV\u5c0f\u7c73\u684c\u9762
p108
(dp109
g64
(lp110
I0
aI0
aI0
aI0
aI0
aI0
aF0.040000000000000001
assg8
(dp111
g64
(lp112
I0
aI0
aI0
aI0
aI0
aI0
aF-0.050000000000000003
assg27
(dp113
g64
(lp114
I0
aI0
aI0
aI0
aI0
aI0
aF-0.050000000000000003
assVRoot Explorer
p115
(dp116
g64
(lp117
I0
aI0
aI0
aI0
aI0
aI0
aF-0.040000000000000001
assV\u5fae\u4fe1
p118
(dp119
g64
(lp120
I0
aI0
aI0
aI0
aI0
aI0
aF-0.029999999999999999
assg51
(dp121
g64
(lp122
I0
aI0
aI0
aI0
aI0
aI0
aF-0.029999999999999999
assg41
(dp123
g64
(lp124
I0
aI0
aI0
aI0
aI0
aI0
aF-0.070000000000000007
assV\u7f51\u6613\u4e91\u97f3\u4e50
p125
(dp126
g64
(lp127
I0
aI0
aI0
aI0
aI0
aI0
aF0.040000000000000001
assg43
(dp128
g64
(lp129
I0
aI0
aI0
aI0
aI0
aI0
aF0.01
assg37
(dp130
g64
(lp131
I0
aI0
aI0
aI0
aI0
aI0
aF-0.01
assg45
(dp132
g64
(lp133
I0
aI0
aI0
aI0
aI0
aI0
aF0.040000000000000001
assg47
(dp134
g64
(lp135
I0
aI0
aI0
aI0
aI0
aI0
aF-0.14999999999999999
assg25
(dp136
g64
(lp137
I0
aI0
aI0
aI0
aI0
aI0
aF-0.29999999999999999
asssg13
(dp138
V\u5fae\u4fe1
p139
(dp140
g64
(lp141
I0
aI0
aI0
aI0
aI0
aI0
aF0.050000000000000003
assV\u5c0f\u7c73\u684c\u9762
p142
(dp143
g64
(lp144
I0
aI0
aI0
aI0
aI0
aI0
aF0.050000000000000003
assg45
(dp145
g64
(lp146
I0
aI0
aI0
aI0
aI0
aI0
aF0.050000000000000003
assVUC\u6d4f\u89c8\u5668
p147
(dp148
g64
(lp149
I0
aI0
aI0
aI0
aI0
aI0
aF0.050000000000000003
asssg15
(dp150
g51
(dp151
g64
(lp152
I0
aI0
aI0
aI0
aI0
aI0
aF0.01
assV\u5c0f\u7c73\u684c\u9762
p153
(dp154
g64
(lp155
I0
aI0
aI0
aI0
aI0
aI0
aF0.050000000000000003
assV\u5fae\u4fe1
p156
(dp157
g64
(lp158
I0
aI0
aI0
aI0
aI0
aI0
aF0.01
asssg17
(dp159
V[ToolBox]
p160
(dp161
g64
(lp162
I0
aI0
aI0
aI0
aI0
aI0
aF0.050000000000000003
assV\u5c0f\u7c73\u684c\u9762
p163
(dp164
g64
(lp165
I0
aI0
aI0
aI0
aI0
aI0
aF0.050000000000000003
assg25
(dp166
g64
(lp167
I0
aI0
aI0
aI0
aI0
aI0
aF-0.31
assg71
(dp168
g64
(lp169
I0
aI0
aI0
aI0
aI0
aI0
aF0.050000000000000003
assg76
(dp170
g64
(lp171
I0
aI0
aI0
aI0
aI0
aI0
aF0.050000000000000003
assg79
(dp172
g64
(lp173
I0
aI0
aI0
aI0
aI0
aI0
aF-0.02
assg51
(dp174
g64
(lp175
I0
aI0
aI0
aI0
aI0
aI0
aF0.050000000000000003
assg41
(dp176
g64
(lp177
I0
aI0
aI0
aI0
aI0
aI0
aF0.050000000000000003
assV\u7f51\u6613\u4e91\u97f3\u4e50
p178
(dp179
g64
(lp180
I0
aI0
aI0
aI0
aI0
aI0
aF-0.01
assg43
(dp181
g64
(lp182
I0
aI0
aI0
aI0
aI0
aI0
aF0.01
assg47
(dp183
g64
(lp184
I0
aI0
aI0
aI0
aI0
aI0
aF-0.14999999999999999
asssg19
(dp185
g51
(dp186
g64
(lp187
I0
aI0
aI0
aI0
aI0
aI0
aF0.050000000000000003
asssg21
(dp188
V\u5c0f\u7c73\u684c\u9762
p189
(dp190
g64
(lp191
I0
aI0
aI0
aI0
aI0
aI0
aF0.050000000000000003
assg25
(dp192
g64
(lp193
I0
aI0
aI0
aI0
aI0
aI0
aF-0.31
assg71
(dp194
g64
(lp195
I0
aI0
aI0
aI0
aI0
aI0
aF0.050000000000000003
assg29
(dp196
g64
(lp197
I0
aI0
aI0
aI0
aI0
aI0
aF0.050000000000000003
assg49
(dp198
g64
(lp199
I0
aI0
aI0
aI0
aI0
aI0
aF0.050000000000000003
assg51
(dp200
g64
(lp201
I0
aI0
aI0
aI0
aI0
aI0
aF0.029999999999999999
assg41
(dp202
g64
(lp203
I0
aI0
aI0
aI0
aI0
aI0
aF0.050000000000000003
assg178
(dp204
g64
(lp205
I0
aI0
aI0
aI0
aI0
aI0
aF-0.01
assg43
(dp206
g64
(lp207
I0
aI0
aI0
aI0
aI0
aI0
aF0.050000000000000003
assg47
(dp208
g64
(lp209
I0
aI0
aI0
aI0
aI0
aI0
aF-0.14999999999999999
asssg23
(dp210
g8
(dp211
g64
(lp212
I0
aI0
aI0
aI0
aI0
aI0
aF-0.14999999999999999
assg11
(dp213
g64
(lp214
I0
aI0
aI0
aI0
aI0
aI0
aF-0.040000000000000001
assg19
(dp215
g64
(lp216
I0
aI0
aI0
aI0
aI0
aI0
aF0.029999999999999999
assV[ToolBox]
p217
(dp218
g64
(lp219
I0
aI0
aI0
aI0
aI0
aI0
aF0.050000000000000003
assg25
(dp220
g64
(lp221
I0
aI0
aI0
aI0
aI0
aI0
aF-0.35999999999999999
assg27
(dp222
g64
(lp223
I0
aI0
aI0
aI0
aI0
aI0
aF-0.14999999999999999
assg29
(dp224
g64
(lp225
I0
aI0
aI0
aI0
aI0
aI0
aF0.050000000000000003
assV[\u534e\u4e3a\u684c\u9762]
p226
(dp227
g64
(lp228
I0
aI0
aI0
aI0
aI0
aI0
aF0.02
assg37
(dp229
g64
(lp230
I0
aI0
aI0
aI0
aI0
aI0
aF-0.20999999999999999
assV[\u60c5\u666f\u6a21\u5f0f]
p231
(dp232
g64
(lp233
I0
aI0
aI0
aI0
aI0
aI0
aF0.01
assg41
(dp234
g64
(lp235
I0
aI0
aI0
aI0
aI0
aI0
aF0.029999999999999999
assg43
(dp236
g64
(lp237
I0
aI0
aI0
aI0
aI0
aI0
aF0.040000000000000001
assg45
(dp238
g64
(lp239
I0
aI0
aI0
aI0
aI0
aI0
aF0.029999999999999999
assg47
(dp240
g64
(lp241
I0
aI0
aI0
aI0
aI0
aI0
aF-0.20999999999999999
assg49
(dp242
g64
(lp243
I0
aI0
aI0
aI0
aI0
aI0
aF0.050000000000000003
assg51
(dp244
g64
(lp245
I0
aI0
aI0
aI0
aI0
aI0
aF0.02
assg55
(dp246
g64
(lp247
I0
aI0
aI0
aI0
aI0
aI0
aF0.02
asssg25
(dp248
g35
(dp249
g64
(lp250
I0
aI0
aI0
aI0
aI0
aI0
aF0.02
assV\u5c0f\u7c73\u684c\u9762
p251
(dp252
g64
(lp253
I0
aI0
aI0
aI0
aI0
aI0
aF0.050000000000000003
assV\u652f\u4ed8\u5b9d\u94b1\u5305
p254
(dp255
g64
(lp256
I0
aI0
aI0
aI0
aI0
aI0
aF0.029999999999999999
assVUC\u6d4f\u89c8\u5668
p257
(dp258
g64
(lp259
I0
aI0
aI0
aI0
aI0
aI0
aF0.050000000000000003
assV\u5fae\u4fe1
p260
(dp261
g64
(lp262
I0
aI0
aI0
aI0
aI0
aI0
aF0.050000000000000003
assV[\u5b89\u533b\u751f]
p263
(dp264
g64
(lp265
I0
aI0
aI0
aI0
aI0
aI0
aF0.02
assV[\u60c5\u666f\u6a21\u5f0f]
p266
(dp267
g64
(lp268
I0
aI0
aI0
aI0
aI0
aI0
aF0.050000000000000003
assg51
(dp269
g64
(lp270
I0
aI0
aI0
aI0
aI0
aI0
aF-0.01
assg41
(dp271
g64
(lp272
I0
aI0
aI0
aI0
aI0
aI0
aF0.029999999999999999
assg15
(dp273
g64
(lp274
I0
aI0
aI0
aI0
aI0
aI0
aF0.050000000000000003
assV\u7f51\u6613\u4e91\u97f3\u4e50
p275
(dp276
g64
(lp277
I0
aI0
aI0
aI0
aI0
aI0
aF0.040000000000000001
assg37
(dp278
g64
(lp279
I0
aI0
aI0
aI0
aI0
aI0
aF-0.20000000000000001
assg47
(dp280
g64
(lp281
I0
aI0
aI0
aI0
aI0
aI0
aF0.01
assg55
(dp282
g64
(lp283
I0
aI0
aI0
aI0
aI0
aI0
aF0.050000000000000003
asssg27
(dp284
g41
(dp285
g64
(lp286
I0
aI0
aI0
aI0
aI0
aI0
aF0.040000000000000001
assV\u5c0f\u7c73\u684c\u9762
p287
(dp288
g64
(lp289
I0
aI0
aI0
aI0
aI0
aI0
aF0.050000000000000003
assg89
(dp290
g64
(lp291
I0
aI0
aI0
aI0
aI0
aI0
aF0.050000000000000003
asssg29
(dp292
V[ToolBox]
p293
(dp294
g64
(lp295
I0
aI0
aI0
aI0
aI0
aI0
aF-0.29999999999999999
assg71
(dp296
g64
(lp297
I0
aI0
aI0
aI0
aI0
aI0
aF0.050000000000000003
assV\u5c0f\u7c73\u684c\u9762
p298
(dp299
g64
(lp300
I0
aI0
aI0
aI0
aI0
aI0
aF0.050000000000000003
assg8
(dp301
g64
(lp302
I0
aI0
aI0
aI0
aI0
aI0
aF0.040000000000000001
assg27
(dp303
g64
(lp304
I0
aI0
aI0
aI0
aI0
aI0
aF0.040000000000000001
assV\u5fae\u4fe1
p305
(dp306
g64
(lp307
I0
aI0
aI0
aI0
aI0
aI0
aF0.050000000000000003
assg51
(dp308
g64
(lp309
I0
aI0
aI0
aI0
aI0
aI0
aF0.029999999999999999
assg41
(dp310
g64
(lp311
I0
aI0
aI0
aI0
aI0
aI0
aF0.029999999999999999
assV\u7f51\u6613\u4e91\u97f3\u4e50
p312
(dp313
g64
(lp314
I0
aI0
aI0
aI0
aI0
aI0
aF0.050000000000000003
assg43
(dp315
g64
(lp316
I0
aI0
aI0
aI0
aI0
aI0
aF0.050000000000000003
assg47
(dp317
g64
(lp318
I0
aI0
aI0
aI0
aI0
aI0
aF-0.14999999999999999
assg19
(dp319
g64
(lp320
I0
aI0
aI0
aI0
aI0
aI0
aF0.040000000000000001
assg25
(dp321
g64
(lp322
I0
aI0
aI0
aI0
aI0
aI0
aF-0.29999999999999999
asssg31
(dp323
V\u5c0f\u7c73\u684c\u9762
p324
(dp325
g64
(lp326
I0
aI0
aI0
aI0
aI0
aI0
aF0.050000000000000003
asssg33
(dp327
V\u5c0f\u7c73\u684c\u9762
p328
(dp329
g64
(lp330
I0
aI0
aI0
aI0
aI0
aI0
aF0.029999999999999999
assg25
(dp331
g64
(lp332
I0
aI0
aI0
aI0
aI0
aI0
aF0.029999999999999999
assg156
(dp333
g64
(lp334
I0
aI0
aI0
aI0
aI0
aI0
aF-0.02
assV[\u60c5\u666f\u6a21\u5f0f]
p335
(dp336
g64
(lp337
I0
aI0
aI0
aI0
aI0
aI0
aF0.050000000000000003
assg51
(dp338
g64
(lp339
I0
aI0
aI0
aI0
aI0
aI0
aF-0.01
assg15
(dp340
g64
(lp341
I0
aI0
aI0
aI0
aI0
aI0
aF0.029999999999999999
assg47
(dp342
g64
(lp343
I0
aI0
aI0
aI0
aI0
aI0
aF0.050000000000000003
assg55
(dp344
g64
(lp345
I0
aI0
aI0
aI0
aI0
aI0
aF0.050000000000000003
asssg35
(dp346
g139
(dp347
g64
(lp348
I0
aI0
aI0
aI0
aI0
aI0
aF0.050000000000000003
assV[\u5b89\u533b\u751f]
p349
(dp350
g64
(lp351
I0
aI0
aI0
aI0
aI0
aI0
aF0.050000000000000003
assV\u5c0f\u7c73\u684c\u9762
p352
(dp353
g64
(lp354
I0
aI0
aI0
aI0
aI0
aI0
aF0.050000000000000003
assg147
(dp355
g64
(lp356
I0
aI0
aI0
aI0
aI0
aI0
aF0.050000000000000003
asssg37
(dp357
V\u5c0f\u7c73\u684c\u9762
p358
(dp359
g64
(lp360
I0
aI0
aI0
aI0
aI0
aI0
aF0.050000000000000003
assVUC\u6d4f\u89c8\u5668
p361
(dp362
g64
(lp363
I0
aI0
aI0
aI0
aI0
aI0
aF0.02
asssg39
(dp364
g328
(dp365
g64
(lp366
I0
aI0
aI0
aI0
aI0
aI0
aF0.040000000000000001
assg25
(dp367
g64
(lp368
I0
aI0
aI0
aI0
aI0
aI0
aF0.040000000000000001
assg156
(dp369
g64
(lp370
I0
aI0
aI0
aI0
aI0
aI0
aF-0.01
assg51
(dp371
g64
(lp372
I0
aI0
aI0
aI0
aI0
aI0
aF-0.01
assg15
(dp373
g64
(lp374
I0
aI0
aI0
aI0
aI0
aI0
aF0.040000000000000001
assg47
(dp375
g64
(lp376
I0
aI0
aI0
aI0
aI0
aI0
aF0.050000000000000003
assg55
(dp377
g64
(lp378
I0
aI0
aI0
aI0
aI0
aI0
aF0.050000000000000003
asssg41
(dp379
V[ToolBox]
p380
(dp381
g64
(lp382
I0
aI0
aI0
aI0
aI0
aI0
aF0.040000000000000001
assV\u5c0f\u7c73\u684c\u9762
p383
(dp384
g64
(lp385
I0
aI0
aI0
aI0
aI0
aI0
aF0.040000000000000001
assg25
(dp386
g64
(lp387
I0
aI0
aI0
aI0
aI0
aI0
aF-0.31
assg71
(dp388
g64
(lp389
I0
aI0
aI0
aI0
aI0
aI0
aF0.050000000000000003
assg76
(dp390
g64
(lp391
I0
aI0
aI0
aI0
aI0
aI0
aF0.050000000000000003
assV\u5fae\u4fe1
p392
(dp393
g64
(lp394
I0
aI0
aI0
aI0
aI0
aI0
aF0.040000000000000001
assg51
(dp395
g64
(lp396
I0
aI0
aI0
aI0
aI0
aI0
aF-0.02
assg178
(dp397
g64
(lp398
I0
aI0
aI0
aI0
aI0
aI0
aF-0.01
assg43
(dp399
g64
(lp400
I0
aI0
aI0
aI0
aI0
aI0
aF0.01
assg47
(dp401
g64
(lp402
I0
aI0
aI0
aI0
aI0
aI0
aF-0.14999999999999999
asssg43
(dp403
V[ToolBox]
p404
(dp405
g64
(lp406
I0
aI0
aI0
aI0
aI0
aI0
aF-0.26000000000000001
assV\u5c0f\u7c73\u684c\u9762
p407
(dp408
g64
(lp409
I0
aI0
aI0
aI0
aI0
aI0
aF0.050000000000000003
assg25
(dp410
g64
(lp411
I0
aI0
aI0
aI0
aI0
aI0
aF-0.26000000000000001
assVUC\u6d4f\u89c8\u5668
p412
(dp413
g64
(lp414
I0
aI0
aI0
aI0
aI0
aI0
aF-0.059999999999999998
assVRoot Explorer
p415
(dp416
g64
(lp417
I0
aI0
aI0
aI0
aI0
aI0
aF0.050000000000000003
assV\u5fae\u4fe1
p418
(dp419
g64
(lp420
I0
aI0
aI0
aI0
aI0
aI0
aF0.050000000000000003
assg51
(dp421
g64
(lp422
I0
aI0
aI0
aI0
aI0
aI0
aF0.029999999999999999
assg178
(dp423
g64
(lp424
I0
aI0
aI0
aI0
aI0
aI0
aF0.040000000000000001
assg47
(dp425
g64
(lp426
I0
aI0
aI0
aI0
aI0
aI0
aF-0.11
assV\u652f\u4ed8\u5b9d\u94b1\u5305
p427
(dp428
g64
(lp429
I0
aI0
aI0
aI0
aI0
aI0
aF0.02
asssg45
(dp430
V\u5c0f\u7c73\u684c\u9762
p431
(dp432
g64
(lp433
I0
aI0
aI0
aI0
aI0
aI0
aF0.02
assg25
(dp434
g64
(lp435
I0
aI0
aI0
aI0
aI0
aI0
aF-0.050000000000000003
assVUC\u6d4f\u89c8\u5668
p436
(dp437
g64
(lp438
I0
aI0
aI0
aI0
aI0
aI0
aF0.01
assV\u5fae\u4fe1
p439
(dp440
g64
(lp441
I0
aI0
aI0
aI0
aI0
aI0
aF0.040000000000000001
assg51
(dp442
g64
(lp443
I0
aI0
aI0
aI0
aI0
aI0
aF0.050000000000000003
assg41
(dp444
g64
(lp445
I0
aI0
aI0
aI0
aI0
aI0
aF-0.070000000000000007
assV\u7f51\u6613\u4e91\u97f3\u4e50
p446
(dp447
g64
(lp448
I0
aI0
aI0
aI0
aI0
aI0
aF0.050000000000000003
asssg47
(dp449
V[ToolBox]
p450
(dp451
g64
(lp452
I0
aI0
aI0
aI0
aI0
aI0
aF-0.10000000000000001
assV[\u534e\u4e3a\u684c\u9762]
p453
(dp454
g64
(lp455
I0
aI0
aI0
aI0
aI0
aI0
aF0.040000000000000001
assV\u5c0f\u7c73\u684c\u9762
p456
(dp457
g64
(lp458
I0
aI0
aI0
aI0
aI0
aI0
aF0.050000000000000003
assg25
(dp459
g64
(lp460
I0
aI0
aI0
aI0
aI0
aI0
aF-0.10000000000000001
assVUC\u6d4f\u89c8\u5668
p461
(dp462
g64
(lp463
I0
aI0
aI0
aI0
aI0
aI0
aF-0.080000000000000002
assV\u5fae\u4fe1
p464
(dp465
g64
(lp466
I0
aI0
aI0
aI0
aI0
aI0
aF0.040000000000000001
assV[\u60c5\u666f\u6a21\u5f0f]
p467
(dp468
g64
(lp469
I0
aI0
aI0
aI0
aI0
aI0
aF0.040000000000000001
assg51
(dp470
g64
(lp471
I0
aI0
aI0
aI0
aI0
aI0
aF0.040000000000000001
assg15
(dp472
g64
(lp473
I0
aI0
aI0
aI0
aI0
aI0
aF0.02
assV\u7f51\u6613\u4e91\u97f3\u4e50
p474
(dp475
g64
(lp476
I0
aI0
aI0
aI0
aI0
aI0
aF-0.080000000000000002
assg43
(dp477
g64
(lp478
I0
aI0
aI0
aI0
aI0
aI0
aF0.050000000000000003
assg427
(dp479
g64
(lp480
I0
aI0
aI0
aI0
aI0
aI0
aF0.02
assg55
(dp481
g64
(lp482
I0
aI0
aI0
aI0
aI0
aI0
aF0.040000000000000001
assg31
(dp483
g64
(lp484
I0
aI0
aI0
aI0
aI0
aI0
aF0.050000000000000003
asssg49
(dp485
g8
(dp486
g64
(lp487
I0
aI0
aI0
aI0
aI0
aI0
aF-0.14999999999999999
assg11
(dp488
g64
(lp489
I0
aI0
aI0
aI0
aI0
aI0
aF-0.040000000000000001
assg15
(dp490
g64
(lp491
I0
aI0
aI0
aI0
aI0
aI0
aF0.02
assg17
(dp492
g64
(lp493
I0
aI0
aI0
aI0
aI0
aI0
aF0.050000000000000003
assg19
(dp494
g64
(lp495
I0
aI0
aI0
aI0
aI0
aI0
aF0.029999999999999999
assV[ToolBox]
p496
(dp497
g64
(lp498
I0
aI0
aI0
aI0
aI0
aI0
aF0.029999999999999999
assV\u5c0f\u7c73\u684c\u9762
p499
(dp500
g64
(lp501
I0
aI0
aI0
aI0
aI0
aI0
aF0.050000000000000003
assg25
(dp502
g64
(lp503
I0
aI0
aI0
aI0
aI0
aI0
aF-0.31
assg27
(dp504
g64
(lp505
I0
aI0
aI0
aI0
aI0
aI0
aF-0.14999999999999999
assg29
(dp506
g64
(lp507
I0
aI0
aI0
aI0
aI0
aI0
aF0.050000000000000003
assV[\u534e\u4e3a\u684c\u9762]
p508
(dp509
g64
(lp510
I0
aI0
aI0
aI0
aI0
aI0
aF0.040000000000000001
assg37
(dp511
g64
(lp512
I0
aI0
aI0
aI0
aI0
aI0
aF-0.20999999999999999
assV[\u60c5\u666f\u6a21\u5f0f]
p513
(dp514
g64
(lp515
I0
aI0
aI0
aI0
aI0
aI0
aF0.040000000000000001
assg41
(dp516
g64
(lp517
I0
aI0
aI0
aI0
aI0
aI0
aF0.040000000000000001
assg43
(dp518
g64
(lp519
I0
aI0
aI0
aI0
aI0
aI0
aF0.050000000000000003
assg45
(dp520
g64
(lp521
I0
aI0
aI0
aI0
aI0
aI0
aF0.029999999999999999
assg47
(dp522
g64
(lp523
I0
aI0
aI0
aI0
aI0
aI0
aF-0.14999999999999999
assg51
(dp524
g64
(lp525
I0
aI0
aI0
aI0
aI0
aI0
aF0.029999999999999999
assg55
(dp526
g64
(lp527
I0
aI0
aI0
aI0
aI0
aI0
aF0.040000000000000001
asssg51
(dp528
g8
(dp529
g64
(lp530
I0
aI0
aI0
aI0
aI0
aI0
aF-0.13
assg11
(dp531
g64
(lp532
I0
aI0
aI0
aI0
aI0
aI0
aF-0.029999999999999999
assV[\u5b89\u533b\u751f]
p533
(dp534
g64
(lp535
I0
aI0
aI0
aI0
aI0
aI0
aF0.01
assg15
(dp536
g64
(lp537
I0
aI0
aI0
aI0
aI0
aI0
aF0.02
assg17
(dp538
g64
(lp539
I0
aI0
aI0
aI0
aI0
aI0
aF0.050000000000000003
assg19
(dp540
g64
(lp541
I0
aI0
aI0
aI0
aI0
aI0
aF0.029999999999999999
assV[ToolBox]
p542
(dp543
g64
(lp544
I0
aI0
aI0
aI0
aI0
aI0
aF0.029999999999999999
assV\u5c0f\u7c73\u684c\u9762
p545
(dp546
g64
(lp547
I0
aI0
aI0
aI0
aI0
aI0
aF0.050000000000000003
assg25
(dp548
g64
(lp549
I0
aI0
aI0
aI0
aI0
aI0
aF-0.31
assg27
(dp550
g64
(lp551
I0
aI0
aI0
aI0
aI0
aI0
aF-0.14000000000000001
assg115
(dp552
g64
(lp553
I0
aI0
aI0
aI0
aI0
aI0
aF-0.12
assV[\u534e\u4e3a\u684c\u9762]
p554
(dp555
g64
(lp556
I0
aI0
aI0
aI0
aI0
aI0
aF0.040000000000000001
assg35
(dp557
g64
(lp558
I0
aI0
aI0
aI0
aI0
aI0
aF0.01
assg37
(dp559
g64
(lp560
I0
aI0
aI0
aI0
aI0
aI0
aF-0.20999999999999999
assV[\u60c5\u666f\u6a21\u5f0f]
p561
(dp562
g64
(lp563
I0
aI0
aI0
aI0
aI0
aI0
aF0.040000000000000001
assg41
(dp564
g64
(lp565
I0
aI0
aI0
aI0
aI0
aI0
aF0.040000000000000001
assg45
(dp566
g64
(lp567
I0
aI0
aI0
aI0
aI0
aI0
aF0.050000000000000003
assg47
(dp568
g64
(lp569
I0
aI0
aI0
aI0
aI0
aI0
aF-0.16
assg53
(dp570
g64
(lp571
I0
aI0
aI0
aI0
aI0
aI0
aF0.01
assg55
(dp572
g64
(lp573
I0
aI0
aI0
aI0
aI0
aI0
aF0.040000000000000001
asssg53
(dp574
V[ToolBox]
p575
(dp576
g64
(lp577
I0
aI0
aI0
aI0
aI0
aI0
aF0.050000000000000003
assV\u5c0f\u7c73\u684c\u9762
p578
(dp579
g64
(lp580
I0
aI0
aI0
aI0
aI0
aI0
aF0.040000000000000001
assg8
(dp581
g64
(lp582
I0
aI0
aI0
aI0
aI0
aI0
aF-0.089999999999999997
assg11
(dp583
g64
(lp584
I0
aI0
aI0
aI0
aI0
aI0
aF0.02
assg115
(dp585
g64
(lp586
I0
aI0
aI0
aI0
aI0
aI0
aF-0.080000000000000002
assg118
(dp587
g64
(lp588
I0
aI0
aI0
aI0
aI0
aI0
aF-0.070000000000000007
assg41
(dp589
g64
(lp590
I0
aI0
aI0
aI0
aI0
aI0
aF-0.11
assg51
(dp591
g64
(lp592
I0
aI0
aI0
aI0
aI0
aI0
aF-0.059999999999999998
assg27
(dp593
g64
(lp594
I0
aI0
aI0
aI0
aI0
aI0
aF-0.089999999999999997
assg17
(dp595
g64
(lp596
I0
aI0
aI0
aI0
aI0
aI0
aF0.050000000000000003
assg45
(dp597
g64
(lp598
I0
aI0
aI0
aI0
aI0
aI0
aF0.029999999999999999
assg47
(dp599
g64
(lp600
I0
aI0
aI0
aI0
aI0
aI0
aF-0.16
assg25
(dp601
g64
(lp602
I0
aI0
aI0
aI0
aI0
aI0
aF-0.31
asssg55
(dp603
V[\u534e\u4e3a\u684c\u9762]
p604
(dp605
g64
(lp606
I0
aI0
aI0
aI0
aI0
aI0
aF0.050000000000000003
assg328
(dp607
g64
(lp608
I0
aI0
aI0
aI0
aI0
aI0
aF0.029999999999999999
assg25
(dp609
g64
(lp610
I0
aI0
aI0
aI0
aI0
aI0
aF0.029999999999999999
assg156
(dp611
g64
(lp612
I0
aI0
aI0
aI0
aI0
aI0
aF-0.02
assV[\u60c5\u666f\u6a21\u5f0f]
p613
(dp614
g64
(lp615
I0
aI0
aI0
aI0
aI0
aI0
aF0.050000000000000003
assg51
(dp616
g64
(lp617
I0
aI0
aI0
aI0
aI0
aI0
aF-0.01
assg15
(dp618
g64
(lp619
I0
aI0
aI0
aI0
aI0
aI0
aF0.029999999999999999
assg47
(dp620
g64
(lp621
I0
aI0
aI0
aI0
aI0
aI0
aF0.040000000000000001
assssS'edge'
p622
g60
sS'pred'
p623
(dp624
g8
(dp625
V\u5c0f\u7c73\u684c\u9762
p626
g211
sg25
g255
sg11
g111
sg115
g301
sV\u5fae\u4fe1
p627
g486
sg51
g529
sg53
g581
sg43
g428
sg47
g479
ssg11
(dp628
V[ToolBox]
p629
g194
sg35
g355
sg626
g213
sV\u652f\u4ed8\u5b9d\u94b1\u5305
p630
g72
sg76
g296
sg627
g488
sV[\u5b89\u533b\u751f]
p631
g148
sg51
g531
sg41
g388
sg53
g583
sg43
g413
sg17
g168
sg37
g362
sg45
g437
sg47
g462
sg25
g258
ssg13
(dp632
g35
g350
sg254
g83
sg51
g534
sg25
g264
ssg15
(dp633
V[\u534e\u4e3a\u684c\u9762]
p634
g340
sg25
g273
sV\u5fae\u4fe1
p635
g490
sV[\u60c5\u666f\u6a21\u5f0f]
p636
g373
sg51
g536
sg47
g472
sg55
g618
ssg17
(dp637
g630
g94
sg51
g538
sV\u7f51\u6613\u4e91\u97f3\u4e50
p638
g595
sV\u5fae\u4fe1
p639
g492
ssg19
(dp640
VRoot Explorer
p641
g319
sg51
g540
sV\u5c0f\u7c73\u684c\u9762
p642
g215
sV\u5fae\u4fe1
p643
g494
ssg21
(dp644
g23
g218
sg630
g63
sg71
g106
sg76
g294
sV\u5fae\u4fe1
p645
g497
sg51
g543
sg41
g381
sg638
g576
sg43
g405
sg17
g161
sg47
g451
ssg23
(dp646
g8
g69
sg11
g109
sV[\u5b89\u533b\u751f]
p647
g143
sg15
g154
sg17
g164
sV[ToolBox]
p648
g190
sg25
g252
sg27
g288
sg29
g299
sg31
g325
sV[\u534e\u4e3a\u684c\u9762]
p649
g329
sg35
g353
sg37
g359
sV[\u60c5\u666f\u6a21\u5f0f]
p650
g365
sg41
g384
sg43
g408
sg45
g432
sg47
g457
sg49
g500
sg51
g546
sg53
g579
sg55
g607
ssg25
(dp651
V[ToolBox]
p652
g192
sV[\u534e\u4e3a\u684c\u9762]
p653
g331
sV\u5c0f\u7c73\u684c\u9762
p654
g220
sg630
g102
sg71
g136
sg76
g321
sg639
g502
sV[\u60c5\u666f\u6a21\u5f0f]
p655
g367
sg51
g548
sg41
g386
sg638
g601
sg43
g410
sg17
g166
sg45
g434
sg47
g459
sg55
g609
ssg27
(dp656
g626
g222
sg8
g74
sg11
g113
sg115
g303
sg627
g504
sg51
g550
sg53
g593
ssg29
(dp657
V[ToolBox]
p658
g196
sg23
g224
sg630
g77
sg11
g116
sg49
g506
sg51
g552
sg41
g390
sg53
g585
sg43
g416
sg17
g170
ssg31
(dp659
g47
g483
ssg33
(dp660
g635
g509
sg55
g605
sV\u5c0f\u7c73\u684c\u9762
p661
g227
sg47
g454
sg51
g555
ssg35
(dp662
g254
g66
sg51
g557
sg25
g249
ssg37
(dp663
V\u5c0f\u7c73\u684c\u9762
p664
g229
sV\u652f\u4ed8\u5b9d\u94b1\u5305
p665
g96
sVUC\u6d4f\u89c8\u5668
p666
g130
sV\u5fae\u4fe1
p667
g511
sg51
g559
sg25
g278
ssg39
(dp668
V[\u534e\u4e3a\u684c\u9762]
p669
g336
sg661
g232
sg25
g267
sg635
g514
sg51
g562
sg47
g468
sg55
g614
ssg41
(dp670
V[ToolBox]
p671
g202
sV\u5c0f\u7c73\u684c\u9762
p672
g234
sg8
g87
sg11
g123
sg115
g310
sg645
g516
sg51
g564
sg27
g285
sg53
g589
sg17
g176
sg45
g444
sg25
g271
ssg43
(dp673
V[ToolBox]
p674
g206
sg23
g236
sg630
g92
sg71
g128
sg29
g315
sg49
g518
sg41
g399
sg17
g181
sg47
g477
ssg45
(dp675
V\u5c0f\u7c73\u684c\u9762
p676
g238
sV\u652f\u4ed8\u5b9d\u94b1\u5305
p677
g98
sVUC\u6d4f\u89c8\u5668
p678
g132
sV\u5fae\u4fe1
p679
g520
sV[\u5b89\u533b\u751f]
p680
g145
sg51
g566
sV\u7f51\u6613\u4e91\u97f3\u4e50
p681
g597
ssg47
(dp682
V[ToolBox]
p683
g208
sV[\u534e\u4e3a\u684c\u9762]
p684
g342
sg654
g240
sg630
g100
sg71
g134
sg76
g317
sg639
g522
sV[\u60c5\u666f\u6a21\u5f0f]
p685
g375
sg51
g568
sg41
g401
sg638
g599
sg43
g425
sg17
g183
sg55
g620
sg25
g280
ssg49
(dp686
V[ToolBox]
p687
g198
sg35
g347
sg23
g242
sg630
g80
sg11
g119
sg29
g306
sV[\u5b89\u533b\u751f]
p688
g140
sV[\u534e\u4e3a\u684c\u9762]
p689
g333
sV[\u60c5\u666f\u6a21\u5f0f]
p690
g369
sg41
g393
sg15
g157
sg53
g587
sg43
g419
sg17
g172
sg55
g611
sg45
g440
sg47
g465
sg25
g261
ssg51
(dp691
V[ToolBox]
p692
g200
sV[\u534e\u4e3a\u684c\u9762]
p693
g338
sg23
g244
sg630
g85
sg11
g121
sg29
g308
sg49
g524
sV[\u60c5\u666f\u6a21\u5f0f]
p694
g371
sg41
g395
sg15
g151
sg53
g591
sg43
g421
sg17
g174
sg55
g616
sg45
g442
sg47
g470
sg19
g186
sg25
g269
ssg53
(dp695
V[ToolBox]
p696
g204
sg8
g90
sg11
g126
sg115
g313
sg41
g397
sg51
g570
sg27
g290
sg43
g423
sg17
g179
sg45
g447
sg47
g475
sg25
g276
ssg55
(dp697
V[\u534e\u4e3a\u684c\u9762]
p698
g344
sg661
g246
sg25
g282
sg635
g526
sV[\u60c5\u666f\u6a21\u5f0f]
p699
g377
sg51
g572
sg47
g481
sssS'adj'
p700
g60
sb.