ccopy_reg
_reconstructor
p1
(cnetworkx.classes.digraph
DiGraph
p2
c__builtin__
object
p3
NtRp4
(dp5
S'node'
p6
(dp7
VCalculator.apk
p8
(dp9
S'weight'
p10
F0
ssV\u652f\u4ed8\u5b9d\u94b1\u5305
p11
(dp12
g10
F0
ssVUC\u6d4f\u89c8\u5668
p13
(dp14
g10
F0
ssVTaskManager.apk
p15
(dp16
g10
F0
ssV\u66b4\u98ce\u5f71\u97f3
p17
(dp18
g10
F0
ssVPhoto.apk
p19
(dp20
g10
F0.02
ssVCalendar.apk
p21
(dp22
g10
F0
ssV[iReader]
p23
(dp24
g10
F0
ssV\u6b22\u4e50\u6597\u5730\u4e3b
p25
(dp26
g10
F0
ssVBrowser.apk
p27
(dp28
g10
F0
ssV[360\u624b\u673a\u52a9\u624b]
p29
(dp30
g10
F0
ssVContacts.apk
p31
(dp32
g10
F0
ssV[Polaris Office 4.0]
p33
(dp34
g10
F0
ssV\u6709\u9053\u8bcd\u5178
p35
(dp36
g10
F0
ssVFileManager.apk
p37
(dp38
g10
F0
ssV\u5fae\u535a
p39
(dp40
g10
F0.01
ssVClock.apk
p41
(dp42
g10
F0.029999999999999999
ssVMms.apk
p43
(dp44
g10
F0.050000000000000003
ssV[Sensor Log]
p45
(dp46
g10
F0
ssVPhone.apk
p47
(dp48
g10
F0.02
ssV\u767e\u5ea6
p49
(dp50
g10
F0
ssVQQ
p51
(dp52
g10
F0.22
ssV\u5fae\u4fe1
p53
(dp54
g10
F0.5
ssVNotice.apk
p55
(dp56
g10
F0.050000000000000003
ssVCamera.apk
p57
(dp58
g10
F0.02
ssVVideo.apk
p59
(dp60
g10
F0
ssV\u795e\u5e99\u9003\u4ea1
p61
(dp62
g10
F0
ssVSettings.apk
p63
(dp64
g10
F0.050000000000000003
sssS'graph'
p65
(dp66
sS'succ'
p67
(dp68
g8
(dp69
g47
(dp70
S'weights'
p71
(lp72
I0
aI0
aI0
aI0
aI0
aI0
aF0.040000000000000001
assg43
(dp73
g71
(lp74
I0
aI0
aI0
aI0
aI0
aI0
aF-0.029999999999999999
asssg11
(dp75
VQQ
p76
(dp77
g71
(lp78
I0
aI0
aI0
aI0
aI0
aI0
aF0.040000000000000001
assV\u5fae\u4fe1
p79
(dp80
g71
(lp81
I0
aI0
aI0
aI0
aI0
aI0
aF0.040000000000000001
assg55
(dp82
g71
(lp83
I0
aI0
aI0
aI0
aI0
aI0
aF0.040000000000000001
assg47
(dp84
g71
(lp85
I0
aI0
aI0
aI0
aI0
aI0
aF-0.02
assV[360\u624b\u673a\u52a9\u624b]
p86
(dp87
g71
(lp88
I0
aI0
aI0
aI0
aI0
aI0
aF-0.01
assg49
(dp89
g71
(lp90
I0
aI0
aI0
aI0
aI0
aI0
aF-0.01
assg63
(dp91
g71
(lp92
I0
aI0
aI0
aI0
aI0
aI0
aF0.029999999999999999
asssg13
(dp93
VQQ
p94
(dp95
g71
(lp96
I0
aI0
aI0
aI0
aI0
aI0
aF0.01
assg37
(dp97
g71
(lp98
I0
aI0
aI0
aI0
aI0
aI0
aF0.040000000000000001
assg19
(dp99
g71
(lp100
I0
aI0
aI0
aI0
aI0
aI0
aF0.040000000000000001
assV\u5fae\u4fe1
p101
(dp102
g71
(lp103
I0
aI0
aI0
aI0
aI0
aI0
aF0.01
assg55
(dp104
g71
(lp105
I0
aI0
aI0
aI0
aI0
aI0
aF-0.10000000000000001
assg41
(dp106
g71
(lp107
I0
aI0
aI0
aI0
aI0
aI0
aF-0.10000000000000001
assg43
(dp108
g71
(lp109
I0
aI0
aI0
aI0
aI0
aI0
aF-0.050000000000000003
assg47
(dp110
g71
(lp111
I0
aI0
aI0
aI0
aI0
aI0
aF0.040000000000000001
assg63
(dp112
g71
(lp113
I0
aI0
aI0
aI0
aI0
aI0
aF-0.050000000000000003
asssg15
(dp114
VQQ
p115
(dp116
g71
(lp117
I0
aI0
aI0
aI0
aI0
aI0
aF0.029999999999999999
assg19
(dp118
g71
(lp119
I0
aI0
aI0
aI0
aI0
aI0
aF-0.089999999999999997
assVUC\u6d4f\u89c8\u5668
p120
(dp121
g71
(lp122
I0
aI0
aI0
aI0
aI0
aI0
aF-0.70999999999999996
assV\u5fae\u4fe1
p123
(dp124
g71
(lp125
I0
aI0
aI0
aI0
aI0
aI0
aF0.029999999999999999
assg41
(dp126
g71
(lp127
I0
aI0
aI0
aI0
aI0
aI0
aF-0.10000000000000001
assV\u5fae\u535a
p128
(dp129
g71
(lp130
I0
aI0
aI0
aI0
aI0
aI0
aF-0.66000000000000003
assg57
(dp131
g71
(lp132
I0
aI0
aI0
aI0
aI0
aI0
aF-0.089999999999999997
assg55
(dp133
g71
(lp134
I0
aI0
aI0
aI0
aI0
aI0
aF-0.23000000000000001
assg43
(dp135
g71
(lp136
I0
aI0
aI0
aI0
aI0
aI0
aF0.040000000000000001
assg31
(dp137
g71
(lp138
I0
aI0
aI0
aI0
aI0
aI0
aF-0.02
assg47
(dp139
g71
(lp140
I0
aI0
aI0
aI0
aI0
aI0
aF0.02
assg63
(dp141
g71
(lp142
I0
aI0
aI0
aI0
aI0
aI0
aF-0.23000000000000001
asssg17
(dp143
VQQ
p144
(dp145
g71
(lp146
I0
aI0
aI0
aI0
aI0
aI0
aF0.02
assV\u5fae\u4fe1
p147
(dp148
g71
(lp149
I0
aI0
aI0
aI0
aI0
aI0
aF0.040000000000000001
assg55
(dp150
g71
(lp151
I0
aI0
aI0
aI0
aI0
aI0
aF0.02
assg41
(dp152
g71
(lp153
I0
aI0
aI0
aI0
aI0
aI0
aF0.02
assg43
(dp154
g71
(lp155
I0
aI0
aI0
aI0
aI0
aI0
aF-0.040000000000000001
assg31
(dp156
g71
(lp157
I0
aI0
aI0
aI0
aI0
aI0
aF-0.23000000000000001
assg47
(dp158
g71
(lp159
I0
aI0
aI0
aI0
aI0
aI0
aF-0.20999999999999999
assg63
(dp160
g71
(lp161
I0
aI0
aI0
aI0
aI0
aI0
aF0.02
asssg19
(dp162
VQQ
p163
(dp164
g71
(lp165
I0
aI0
aI0
aI0
aI0
aI0
aF0.040000000000000001
assV\u6709\u9053\u8bcd\u5178
p166
(dp167
g71
(lp168
I0
aI0
aI0
aI0
aI0
aI0
aF0.040000000000000001
assg37
(dp169
g71
(lp170
I0
aI0
aI0
aI0
aI0
aI0
aF0.040000000000000001
assVUC\u6d4f\u89c8\u5668
p171
(dp172
g71
(lp173
I0
aI0
aI0
aI0
aI0
aI0
aF-0.17000000000000001
assV\u5fae\u4fe1
p174
(dp175
g71
(lp176
I0
aI0
aI0
aI0
aI0
aI0
aF0.029999999999999999
assg15
(dp177
g71
(lp178
I0
aI0
aI0
aI0
aI0
aI0
aF-0.01
assg41
(dp179
g71
(lp180
I0
aI0
aI0
aI0
aI0
aI0
aF-0.28000000000000003
assV[iReader]
p181
(dp182
g71
(lp183
I0
aI0
aI0
aI0
aI0
aI0
aF0.040000000000000001
assV\u5fae\u535a
p184
(dp185
g71
(lp186
I0
aI0
aI0
aI0
aI0
aI0
aF0.02
assg57
(dp187
g71
(lp188
I0
aI0
aI0
aI0
aI0
aI0
aF0.029999999999999999
assg55
(dp189
g71
(lp190
I0
aI0
aI0
aI0
aI0
aI0
aF-0.23999999999999999
assg43
(dp191
g71
(lp192
I0
aI0
aI0
aI0
aI0
aI0
aF0.01
assg47
(dp193
g71
(lp194
I0
aI0
aI0
aI0
aI0
aI0
aF-0.029999999999999999
assg63
(dp195
g71
(lp196
I0
aI0
aI0
aI0
aI0
aI0
aF-0.20999999999999999
asssg21
(dp197
VQQ
p198
(dp199
g71
(lp200
I0
aI0
aI0
aI0
aI0
aI0
aF0.029999999999999999
assV\u5fae\u4fe1
p201
(dp202
g71
(lp203
I0
aI0
aI0
aI0
aI0
aI0
aF0.040000000000000001
assg41
(dp204
g71
(lp205
I0
aI0
aI0
aI0
aI0
aI0
aF-0.080000000000000002
assg55
(dp206
g71
(lp207
I0
aI0
aI0
aI0
aI0
aI0
aF-0.059999999999999998
assg63
(dp208
g71
(lp209
I0
aI0
aI0
aI0
aI0
aI0
aF-0.040000000000000001
asssg23
(dp210
g41
(dp211
g71
(lp212
I0
aI0
aI0
aI0
aI0
aI0
aF0.040000000000000001
asssg25
(dp213
VQQ
p214
(dp215
g71
(lp216
I0
aI0
aI0
aI0
aI0
aI0
aF-0.01
assV\u5fae\u4fe1
p217
(dp218
g71
(lp219
I0
aI0
aI0
aI0
aI0
aI0
aF0.040000000000000001
assg55
(dp220
g71
(lp221
I0
aI0
aI0
aI0
aI0
aI0
aF-0.050000000000000003
assg63
(dp222
g71
(lp223
I0
aI0
aI0
aI0
aI0
aI0
aF-0.01
asssg27
(dp224
VQQ
p225
(dp226
g71
(lp227
I0
aI0
aI0
aI0
aI0
aI0
aF0.040000000000000001
assg11
(dp228
g71
(lp229
I0
aI0
aI0
aI0
aI0
aI0
aF-0.25
assV\u5fae\u4fe1
p230
(dp231
g71
(lp232
I0
aI0
aI0
aI0
aI0
aI0
aF0.040000000000000001
assg55
(dp233
g71
(lp234
I0
aI0
aI0
aI0
aI0
aI0
aF-0.25
assV\u5fae\u535a
p235
(dp236
g71
(lp237
I0
aI0
aI0
aI0
aI0
aI0
aF-0.17999999999999999
assg57
(dp238
g71
(lp239
I0
aI0
aI0
aI0
aI0
aI0
aF0.02
assg47
(dp240
g71
(lp241
I0
aI0
aI0
aI0
aI0
aI0
aF0.02
assg63
(dp242
g71
(lp243
I0
aI0
aI0
aI0
aI0
aI0
aF0.02
asssg29
(dp244
V\u5fae\u4fe1
p245
(dp246
g71
(lp247
I0
aI0
aI0
aI0
aI0
aI0
aF0.029999999999999999
assg55
(dp248
g71
(lp249
I0
aI0
aI0
aI0
aI0
aI0
aF0.02
assg47
(dp250
g71
(lp251
I0
aI0
aI0
aI0
aI0
aI0
aF0.029999999999999999
assg49
(dp252
g71
(lp253
I0
aI0
aI0
aI0
aI0
aI0
aF0.040000000000000001
asssg31
(dp254
VQQ
p255
(dp256
g71
(lp257
I0
aI0
aI0
aI0
aI0
aI0
aF-0.01
assV\u5fae\u4fe1
p258
(dp259
g71
(lp260
I0
aI0
aI0
aI0
aI0
aI0
aF0.040000000000000001
assg55
(dp261
g71
(lp262
I0
aI0
aI0
aI0
aI0
aI0
aF0.01
assV\u5fae\u535a
p263
(dp264
g71
(lp265
I0
aI0
aI0
aI0
aI0
aI0
aF-0.01
assg41
(dp266
g71
(lp267
I0
aI0
aI0
aI0
aI0
aI0
aF-0.040000000000000001
assg43
(dp268
g71
(lp269
I0
aI0
aI0
aI0
aI0
aI0
aF-0.02
assg47
(dp270
g71
(lp271
I0
aI0
aI0
aI0
aI0
aI0
aF0.01
asssg33
(dp272
V\u5fae\u4fe1
p273
(dp274
g71
(lp275
I0
aI0
aI0
aI0
aI0
aI0
aF0.02
assg37
(dp276
g71
(lp277
I0
aI0
aI0
aI0
aI0
aI0
aF0.040000000000000001
asssg35
(dp278
VQQ
p279
(dp280
g71
(lp281
I0
aI0
aI0
aI0
aI0
aI0
aF0.040000000000000001
assg19
(dp282
g71
(lp283
I0
aI0
aI0
aI0
aI0
aI0
aF0.01
assg120
(dp284
g71
(lp285
I0
aI0
aI0
aI0
aI0
aI0
aF-0.72999999999999998
assV\u5fae\u4fe1
p286
(dp287
g71
(lp288
I0
aI0
aI0
aI0
aI0
aI0
aF0.040000000000000001
assg15
(dp289
g71
(lp290
I0
aI0
aI0
aI0
aI0
aI0
aF0.02
assg41
(dp291
g71
(lp292
I0
aI0
aI0
aI0
aI0
aI0
aF-0.76000000000000001
assg55
(dp293
g71
(lp294
I0
aI0
aI0
aI0
aI0
aI0
aF-0.080000000000000002
assg128
(dp295
g71
(lp296
I0
aI0
aI0
aI0
aI0
aI0
aF-0.68000000000000005
assg57
(dp297
g71
(lp298
I0
aI0
aI0
aI0
aI0
aI0
aF0.01
assg43
(dp299
g71
(lp300
I0
aI0
aI0
aI0
aI0
aI0
aF-0.029999999999999999
asssg37
(dp301
V[Sensor Log]
p302
(dp303
g71
(lp304
I0
aI0
aI0
aI0
aI0
aI0
aF0.040000000000000001
assVQQ
p305
(dp306
g71
(lp307
I0
aI0
aI0
aI0
aI0
aI0
aF0.040000000000000001
assV[Polaris Office 4.0]
p308
(dp309
g71
(lp310
I0
aI0
aI0
aI0
aI0
aI0
aF0.040000000000000001
assVUC\u6d4f\u89c8\u5668
p311
(dp312
g71
(lp313
I0
aI0
aI0
aI0
aI0
aI0
aF0.040000000000000001
assV\u5fae\u4fe1
p314
(dp315
g71
(lp316
I0
aI0
aI0
aI0
aI0
aI0
aF0.02
asssg39
(dp317
VQQ
p318
(dp319
g71
(lp320
I0
aI0
aI0
aI0
aI0
aI0
aF0.02
assg11
(dp321
g71
(lp322
I0
aI0
aI0
aI0
aI0
aI0
aF-0.029999999999999999
assg120
(dp323
g71
(lp324
I0
aI0
aI0
aI0
aI0
aI0
aF-0.01
assV\u5fae\u4fe1
p325
(dp326
g71
(lp327
I0
aI0
aI0
aI0
aI0
aI0
aF0.02
assg57
(dp328
g71
(lp329
I0
aI0
aI0
aI0
aI0
aI0
aF-0.080000000000000002
assg55
(dp330
g71
(lp331
I0
aI0
aI0
aI0
aI0
aI0
aF-0.029999999999999999
assV[iReader]
p332
(dp333
g71
(lp334
I0
aI0
aI0
aI0
aI0
aI0
aF0.040000000000000001
assg41
(dp335
g71
(lp336
I0
aI0
aI0
aI0
aI0
aI0
aF0.029999999999999999
assg19
(dp337
g71
(lp338
I0
aI0
aI0
aI0
aI0
aI0
aF-0.080000000000000002
assg43
(dp339
g71
(lp340
I0
aI0
aI0
aI0
aI0
aI0
aF0.040000000000000001
assg47
(dp341
g71
(lp342
I0
aI0
aI0
aI0
aI0
aI0
aF-0.050000000000000003
assg63
(dp343
g71
(lp344
I0
aI0
aI0
aI0
aI0
aI0
aF-0.040000000000000001
asssg41
(dp345
VQQ
p346
(dp347
g71
(lp348
I0
aI0
aI0
aI0
aI0
aI0
aF0.040000000000000001
assV\u66b4\u98ce\u5f71\u97f3
p349
(dp350
g71
(lp351
I0
aI0
aI0
aI0
aI0
aI0
aF0.029999999999999999
assg19
(dp352
g71
(lp353
I0
aI0
aI0
aI0
aI0
aI0
aF0.040000000000000001
assV\u5fae\u4fe1
p354
(dp355
g71
(lp356
I0
aI0
aI0
aI0
aI0
aI0
aF0.040000000000000001
assg55
(dp357
g71
(lp358
I0
aI0
aI0
aI0
aI0
aI0
aF-0.25
assg57
(dp359
g71
(lp360
I0
aI0
aI0
aI0
aI0
aI0
aF-0.01
assg43
(dp361
g71
(lp362
I0
aI0
aI0
aI0
aI0
aI0
aF-0.029999999999999999
assg63
(dp363
g71
(lp364
I0
aI0
aI0
aI0
aI0
aI0
aF-0.029999999999999999
assg47
(dp365
g71
(lp366
I0
aI0
aI0
aI0
aI0
aI0
aF-0.02
assg31
(dp367
g71
(lp368
I0
aI0
aI0
aI0
aI0
aI0
aF-0.22
asssg43
(dp369
VQQ
p370
(dp371
g71
(lp372
I0
aI0
aI0
aI0
aI0
aI0
aF0.040000000000000001
assg17
(dp373
g71
(lp374
I0
aI0
aI0
aI0
aI0
aI0
aF-0.01
assg21
(dp375
g71
(lp376
I0
aI0
aI0
aI0
aI0
aI0
aF0.02
assg19
(dp377
g71
(lp378
I0
aI0
aI0
aI0
aI0
aI0
aF-0.059999999999999998
assg171
(dp379
g71
(lp380
I0
aI0
aI0
aI0
aI0
aI0
aF0.01
assV\u5fae\u4fe1
p381
(dp382
g71
(lp383
I0
aI0
aI0
aI0
aI0
aI0
aF0.040000000000000001
assg41
(dp384
g71
(lp385
I0
aI0
aI0
aI0
aI0
aI0
aF-0.38
assg55
(dp386
g71
(lp387
I0
aI0
aI0
aI0
aI0
aI0
aF0.02
assV[360\u624b\u673a\u52a9\u624b]
p388
(dp389
g71
(lp390
I0
aI0
aI0
aI0
aI0
aI0
aF0.040000000000000001
assg57
(dp391
g71
(lp392
I0
aI0
aI0
aI0
aI0
aI0
aF-0.059999999999999998
assV\u652f\u4ed8\u5b9d\u94b1\u5305
p393
(dp394
g71
(lp395
I0
aI0
aI0
aI0
aI0
aI0
aF0.029999999999999999
assg31
(dp396
g71
(lp397
I0
aI0
aI0
aI0
aI0
aI0
aF-0.14999999999999999
assg47
(dp398
g71
(lp399
I0
aI0
aI0
aI0
aI0
aI0
aF0.02
assg49
(dp400
g71
(lp401
I0
aI0
aI0
aI0
aI0
aI0
aF0.029999999999999999
assg63
(dp402
g71
(lp403
I0
aI0
aI0
aI0
aI0
aI0
aF0.02
asssg45
(dp404
g37
(dp405
g71
(lp406
I0
aI0
aI0
aI0
aI0
aI0
aF0.040000000000000001
assg63
(dp407
g71
(lp408
I0
aI0
aI0
aI0
aI0
aI0
aF0.040000000000000001
asssg47
(dp409
VQQ
p410
(dp411
g71
(lp412
I0
aI0
aI0
aI0
aI0
aI0
aF0.040000000000000001
assV\u6709\u9053\u8bcd\u5178
p413
(dp414
g71
(lp415
I0
aI0
aI0
aI0
aI0
aI0
aF0.040000000000000001
assg11
(dp416
g71
(lp417
I0
aI0
aI0
aI0
aI0
aI0
aF-0.23000000000000001
assg171
(dp418
g71
(lp419
I0
aI0
aI0
aI0
aI0
aI0
aF-0.10000000000000001
assV\u5fae\u4fe1
p420
(dp421
g71
(lp422
I0
aI0
aI0
aI0
aI0
aI0
aF0.02
assg21
(dp423
g71
(lp424
I0
aI0
aI0
aI0
aI0
aI0
aF-0.059999999999999998
assg57
(dp425
g71
(lp426
I0
aI0
aI0
aI0
aI0
aI0
aF0.01
assg55
(dp427
g71
(lp428
I0
aI0
aI0
aI0
aI0
aI0
aF-0.23000000000000001
assV[iReader]
p429
(dp430
g71
(lp431
I0
aI0
aI0
aI0
aI0
aI0
aF-0.050000000000000003
assg8
(dp432
g71
(lp433
I0
aI0
aI0
aI0
aI0
aI0
aF0.01
assg235
(dp434
g71
(lp435
I0
aI0
aI0
aI0
aI0
aI0
aF-0.16
assg41
(dp436
g71
(lp437
I0
aI0
aI0
aI0
aI0
aI0
aF-0.25
assg19
(dp438
g71
(lp439
I0
aI0
aI0
aI0
aI0
aI0
aF-0.10000000000000001
assg43
(dp440
g71
(lp441
I0
aI0
aI0
aI0
aI0
aI0
aF0.029999999999999999
assg31
(dp442
g71
(lp443
I0
aI0
aI0
aI0
aI0
aI0
aF0.029999999999999999
assg15
(dp444
g71
(lp445
I0
aI0
aI0
aI0
aI0
aI0
aF0.01
assg63
(dp446
g71
(lp447
I0
aI0
aI0
aI0
aI0
aI0
aF0.040000000000000001
asssg49
(dp448
VQQ
p449
(dp450
g71
(lp451
I0
aI0
aI0
aI0
aI0
aI0
aF0.040000000000000001
assg245
(dp452
g71
(lp453
I0
aI0
aI0
aI0
aI0
aI0
aF0.029999999999999999
assg27
(dp454
g71
(lp455
I0
aI0
aI0
aI0
aI0
aI0
aF0.029999999999999999
assg47
(dp456
g71
(lp457
I0
aI0
aI0
aI0
aI0
aI0
aF0.029999999999999999
assg55
(dp458
g71
(lp459
I0
aI0
aI0
aI0
aI0
aI0
aF0.02
asssg51
(dp460
g11
(dp461
g71
(lp462
I0
aI0
aI0
aI0
aI0
aI0
aF-0.27000000000000002
assg13
(dp463
g71
(lp464
I0
aI0
aI0
aI0
aI0
aI0
aF0.01
assg15
(dp465
g71
(lp466
I0
aI0
aI0
aI0
aI0
aI0
aF0.01
assg17
(dp467
g71
(lp468
I0
aI0
aI0
aI0
aI0
aI0
aF-0.14000000000000001
assg19
(dp469
g71
(lp470
I0
aI0
aI0
aI0
aI0
aI0
aF-0.02
assg21
(dp471
g71
(lp472
I0
aI0
aI0
aI0
aI0
aI0
aF0.040000000000000001
assV[iReader]
p473
(dp474
g71
(lp475
I0
aI0
aI0
aI0
aI0
aI0
aF0.040000000000000001
assg27
(dp476
g71
(lp477
I0
aI0
aI0
aI0
aI0
aI0
aF0.02
assV[360\u624b\u673a\u52a9\u624b]
p478
(dp479
g71
(lp480
I0
aI0
aI0
aI0
aI0
aI0
aF-0.11
assg31
(dp481
g71
(lp482
I0
aI0
aI0
aI0
aI0
aI0
aF-0.25
assV[Polaris Office 4.0]
p483
(dp484
g71
(lp485
I0
aI0
aI0
aI0
aI0
aI0
aF0.02
assg35
(dp486
g71
(lp487
I0
aI0
aI0
aI0
aI0
aI0
aF0.01
assg37
(dp488
g71
(lp489
I0
aI0
aI0
aI0
aI0
aI0
aF-0.01
assg39
(dp490
g71
(lp491
I0
aI0
aI0
aI0
aI0
aI0
aF0.040000000000000001
assg41
(dp492
g71
(lp493
I0
aI0
aI0
aI0
aI0
aI0
aF0.029999999999999999
assg43
(dp494
g71
(lp495
I0
aI0
aI0
aI0
aI0
aI0
aF0.040000000000000001
assg47
(dp496
g71
(lp497
I0
aI0
aI0
aI0
aI0
aI0
aF-0.01
assg49
(dp498
g71
(lp499
I0
aI0
aI0
aI0
aI0
aI0
aF-0.11
assV\u5fae\u4fe1
p500
(dp501
g71
(lp502
I0
aI0
aI0
aI0
aI0
aI0
aF0.040000000000000001
assg55
(dp503
g71
(lp504
I0
aI0
aI0
aI0
aI0
aI0
aF0.01
assg59
(dp505
g71
(lp506
I0
aI0
aI0
aI0
aI0
aI0
aF-0.01
assg63
(dp507
g71
(lp508
I0
aI0
aI0
aI0
aI0
aI0
aF0.02
asssg53
(dp509
g11
(dp510
g71
(lp511
I0
aI0
aI0
aI0
aI0
aI0
aF-0.27000000000000002
assg15
(dp512
g71
(lp513
I0
aI0
aI0
aI0
aI0
aI0
aF0.01
assg17
(dp514
g71
(lp515
I0
aI0
aI0
aI0
aI0
aI0
aF-0.14000000000000001
assg19
(dp516
g71
(lp517
I0
aI0
aI0
aI0
aI0
aI0
aF-0.029999999999999999
assg21
(dp518
g71
(lp519
I0
aI0
aI0
aI0
aI0
aI0
aF0.02
assg25
(dp520
g71
(lp521
I0
aI0
aI0
aI0
aI0
aI0
aF0.029999999999999999
assg27
(dp522
g71
(lp523
I0
aI0
aI0
aI0
aI0
aI0
aF0.02
assV[360\u624b\u673a\u52a9\u624b]
p524
(dp525
g71
(lp526
I0
aI0
aI0
aI0
aI0
aI0
aF-0.11
assg31
(dp527
g71
(lp528
I0
aI0
aI0
aI0
aI0
aI0
aF-0.25
assV[Polaris Office 4.0]
p529
(dp530
g71
(lp531
I0
aI0
aI0
aI0
aI0
aI0
aF0.02
assg35
(dp532
g71
(lp533
I0
aI0
aI0
aI0
aI0
aI0
aF0.01
assg37
(dp534
g71
(lp535
I0
aI0
aI0
aI0
aI0
aI0
aF-0.01
assg39
(dp536
g71
(lp537
I0
aI0
aI0
aI0
aI0
aI0
aF0.01
assg43
(dp538
g71
(lp539
I0
aI0
aI0
aI0
aI0
aI0
aF0.029999999999999999
assg47
(dp540
g71
(lp541
I0
aI0
aI0
aI0
aI0
aI0
aF-0.01
assg49
(dp542
g71
(lp543
I0
aI0
aI0
aI0
aI0
aI0
aF-0.11
assg51
(dp544
g71
(lp545
I0
aI0
aI0
aI0
aI0
aI0
aF0.040000000000000001
assg55
(dp546
g71
(lp547
I0
aI0
aI0
aI0
aI0
aI0
aF0.02
assg59
(dp548
g71
(lp549
I0
aI0
aI0
aI0
aI0
aI0
aF-0.029999999999999999
assg61
(dp550
g71
(lp551
I0
aI0
aI0
aI0
aI0
aI0
aF0.040000000000000001
assg63
(dp552
g71
(lp553
I0
aI0
aI0
aI0
aI0
aI0
aF0.02
asssg55
(dp554
VQQ
p555
(dp556
g71
(lp557
I0
aI0
aI0
aI0
aI0
aI0
aF0.029999999999999999
assg17
(dp558
g71
(lp559
I0
aI0
aI0
aI0
aI0
aI0
aF-0.01
assg15
(dp560
g71
(lp561
I0
aI0
aI0
aI0
aI0
aI0
aF0.029999999999999999
assV\u5fae\u4fe1
p562
(dp563
g71
(lp564
I0
aI0
aI0
aI0
aI0
aI0
aF0.029999999999999999
assg57
(dp565
g71
(lp566
I0
aI0
aI0
aI0
aI0
aI0
aF0.029999999999999999
assg21
(dp567
g71
(lp568
I0
aI0
aI0
aI0
aI0
aI0
aF-0.050000000000000003
assV[iReader]
p569
(dp570
g71
(lp571
I0
aI0
aI0
aI0
aI0
aI0
aF0.02
assg39
(dp572
g71
(lp573
I0
aI0
aI0
aI0
aI0
aI0
aF0.029999999999999999
assg41
(dp574
g71
(lp575
I0
aI0
aI0
aI0
aI0
aI0
aF0.02
assg59
(dp576
g71
(lp577
I0
aI0
aI0
aI0
aI0
aI0
aF-0.029999999999999999
assg43
(dp578
g71
(lp579
I0
aI0
aI0
aI0
aI0
aI0
aF-0.059999999999999998
assg11
(dp580
g71
(lp581
I0
aI0
aI0
aI0
aI0
aI0
aF0.040000000000000001
assg35
(dp582
g71
(lp583
I0
aI0
aI0
aI0
aI0
aI0
aF0.01
assg63
(dp584
g71
(lp585
I0
aI0
aI0
aI0
aI0
aI0
aF0.01
asssg57
(dp586
VQQ
p587
(dp588
g71
(lp589
I0
aI0
aI0
aI0
aI0
aI0
aF0.02
assg166
(dp590
g71
(lp591
I0
aI0
aI0
aI0
aI0
aI0
aF0.040000000000000001
assg19
(dp592
g71
(lp593
I0
aI0
aI0
aI0
aI0
aI0
aF0.01
assg120
(dp594
g71
(lp595
I0
aI0
aI0
aI0
aI0
aI0
aF-0.78000000000000003
assV\u5fae\u4fe1
p596
(dp597
g71
(lp598
I0
aI0
aI0
aI0
aI0
aI0
aF0.029999999999999999
assg15
(dp599
g71
(lp600
I0
aI0
aI0
aI0
aI0
aI0
aF-0.029999999999999999
assg55
(dp601
g71
(lp602
I0
aI0
aI0
aI0
aI0
aI0
aF-0.23000000000000001
assg235
(dp603
g71
(lp604
I0
aI0
aI0
aI0
aI0
aI0
aF-0.16
assg41
(dp605
g71
(lp606
I0
aI0
aI0
aI0
aI0
aI0
aF-0.28000000000000003
assg43
(dp607
g71
(lp608
I0
aI0
aI0
aI0
aI0
aI0
aF-0.12
assg11
(dp609
g71
(lp610
I0
aI0
aI0
aI0
aI0
aI0
aF-0.23000000000000001
assg31
(dp611
g71
(lp612
I0
aI0
aI0
aI0
aI0
aI0
aF-0.080000000000000002
assg47
(dp613
g71
(lp614
I0
aI0
aI0
aI0
aI0
aI0
aF0.040000000000000001
assg63
(dp615
g71
(lp616
I0
aI0
aI0
aI0
aI0
aI0
aF0.029999999999999999
asssg59
(dp617
VQQ
p618
(dp619
g71
(lp620
I0
aI0
aI0
aI0
aI0
aI0
aF0.02
assg19
(dp621
g71
(lp622
I0
aI0
aI0
aI0
aI0
aI0
aF-0.02
assV\u5fae\u4fe1
p623
(dp624
g71
(lp625
I0
aI0
aI0
aI0
aI0
aI0
aF0.040000000000000001
assg15
(dp626
g71
(lp627
I0
aI0
aI0
aI0
aI0
aI0
aF0.02
assg55
(dp628
g71
(lp629
I0
aI0
aI0
aI0
aI0
aI0
aF0.02
assg57
(dp630
g71
(lp631
I0
aI0
aI0
aI0
aI0
aI0
aF-0.02
assg63
(dp632
g71
(lp633
I0
aI0
aI0
aI0
aI0
aI0
aF-0.19
asssg61
(dp634
g214
(dp635
g71
(lp636
I0
aI0
aI0
aI0
aI0
aI0
aF-0.01
assg217
(dp637
g71
(lp638
I0
aI0
aI0
aI0
aI0
aI0
aF0.029999999999999999
assg25
(dp639
g71
(lp640
I0
aI0
aI0
aI0
aI0
aI0
aF0.040000000000000001
assg55
(dp641
g71
(lp642
I0
aI0
aI0
aI0
aI0
aI0
aF-0.050000000000000003
assg63
(dp643
g71
(lp644
I0
aI0
aI0
aI0
aI0
aI0
aF-0.01
asssg63
(dp645
VQQ
p646
(dp647
g71
(lp648
I0
aI0
aI0
aI0
aI0
aI0
aF0.029999999999999999
assg17
(dp649
g71
(lp650
I0
aI0
aI0
aI0
aI0
aI0
aF0.01
assg166
(dp651
g71
(lp652
I0
aI0
aI0
aI0
aI0
aI0
aF0.040000000000000001
assg37
(dp653
g71
(lp654
I0
aI0
aI0
aI0
aI0
aI0
aF0.040000000000000001
assg19
(dp655
g71
(lp656
I0
aI0
aI0
aI0
aI0
aI0
aF-0.029999999999999999
assg171
(dp657
g71
(lp658
I0
aI0
aI0
aI0
aI0
aI0
aF-0.059999999999999998
assV\u5fae\u4fe1
p659
(dp660
g71
(lp661
I0
aI0
aI0
aI0
aI0
aI0
aF0.040000000000000001
assg15
(dp662
g71
(lp663
I0
aI0
aI0
aI0
aI0
aI0
aF-0.040000000000000001
assg41
(dp664
g71
(lp665
I0
aI0
aI0
aI0
aI0
aI0
aF-0.029999999999999999
assg55
(dp666
g71
(lp667
I0
aI0
aI0
aI0
aI0
aI0
aF0.01
assg47
(dp668
g71
(lp669
I0
aI0
aI0
aI0
aI0
aI0
aF-0.02
assg235
(dp670
g71
(lp671
I0
aI0
aI0
aI0
aI0
aI0
aF-0.16
assg59
(dp672
g71
(lp673
I0
aI0
aI0
aI0
aI0
aI0
aF-0.02
assV[Sensor Log]
p674
(dp675
g71
(lp676
I0
aI0
aI0
aI0
aI0
aI0
aF0.040000000000000001
assg31
(dp677
g71
(lp678
I0
aI0
aI0
aI0
aI0
aI0
aF-0.089999999999999997
assV[360\u624b\u673a\u52a9\u624b]
p679
(dp680
g71
(lp681
I0
aI0
aI0
aI0
aI0
aI0
aF-0.01
assg49
(dp682
g71
(lp683
I0
aI0
aI0
aI0
aI0
aI0
aF-0.01
assg11
(dp684
g71
(lp685
I0
aI0
aI0
aI0
aI0
aI0
aF-0.23000000000000001
assssS'edge'
p686
g68
sS'pred'
p687
(dp688
g8
(dp689
g47
g432
ssg11
(dp690
VQQ
p691
g461
sV\u5fae\u4fe1
p692
g510
sg55
g580
sg235
g321
sg57
g609
sg43
g394
sg27
g228
sg47
g416
sg63
g684
ssg13
(dp693
VQQ
p694
g463
sg413
g284
sg37
g312
sg19
g172
sg15
g121
sg128
g323
sg57
g594
sg43
g379
sg47
g418
sg63
g657
ssg15
(dp695
VQQ
p696
g465
sg413
g289
sg19
g177
sV\u5fae\u4fe1
p697
g512
sg55
g560
sg57
g599
sg59
g626
sg47
g444
sg63
g662
ssg17
(dp698
VQQ
p699
g467
sV\u5fae\u4fe1
p700
g514
sg55
g558
sg41
g350
sg43
g373
sg63
g649
ssg19
(dp701
VQQ
p702
g469
sg35
g282
sg171
g99
sV\u5fae\u4fe1
p703
g516
sg15
g118
sg41
g352
sg184
g337
sg57
g592
sg59
g621
sg43
g377
sg47
g438
sg63
g655
ssg21
(dp704
VQQ
p705
g471
sV\u5fae\u4fe1
p706
g518
sg43
g375
sg47
g423
sg55
g567
ssg23
(dp707
g555
g474
sg19
g182
sg55
g570
sg39
g333
sg47
g430
ssg25
(dp708
V\u5fae\u4fe1
p709
g520
sg61
g639
ssg27
(dp710
g691
g476
sg692
g522
sV\u767e\u5ea6
p711
g454
ssg29
(dp712
VQQ
p713
g479
sV\u5fae\u4fe1
p714
g525
sV\u652f\u4ed8\u5b9d\u94b1\u5305
p715
g87
sg43
g389
sg63
g680
ssg31
(dp716
VQQ
p717
g481
sV\u66b4\u98ce\u5f71\u97f3
p718
g156
sg15
g137
sV\u5fae\u4fe1
p719
g527
sg57
g611
sg41
g367
sg43
g396
sg47
g442
sg63
g677
ssg33
(dp720
VQQ
p721
g484
sV\u5fae\u4fe1
p722
g530
sg37
g309
ssg35
(dp723
VQQ
p724
g486
sg19
g167
sV\u5fae\u4fe1
p725
g532
sg55
g582
sg57
g590
sg47
g414
sg63
g651
ssg37
(dp726
VQQ
p727
g488
sV[Polaris Office 4.0]
p728
g276
sg19
g169
sVUC\u6d4f\u89c8\u5668
p729
g97
sV\u5fae\u4fe1
p730
g534
sV[Sensor Log]
p731
g405
sg63
g653
ssg39
(dp732
g555
g490
sg413
g295
sg19
g185
sV\u5fae\u4fe1
p733
g536
sg15
g129
sg55
g572
sg57
g603
sg31
g264
sg27
g236
sg47
g434
sg63
g670
ssg41
(dp734
g555
g492
sV\u66b4\u98ce\u5f71\u97f3
p735
g152
sg413
g291
sg19
g179
sg171
g106
sg21
g204
sg15
g126
sg55
g574
sV[iReader]
p736
g211
sg39
g335
sg57
g605
sg43
g384
sg31
g266
sg47
g436
sg63
g664
ssg43
(dp737
g51
g494
sg718
g154
sg35
g299
sg19
g191
sg171
g108
sg53
g538
sg57
g607
sg55
g578
sg263
g339
sg41
g361
sg31
g268
sg8
g73
sg15
g135
sg47
g440
ssg45
(dp738
g37
g303
sg63
g675
ssg47
(dp739
g346
g496
sg718
g158
sg15
g139
sg715
g84
sVUC\u6d4f\u89c8\u5668
p740
g110
sV\u5fae\u4fe1
p741
g540
sg57
g613
sg8
g70
sg19
g193
sg184
g341
sg41
g365
sg31
g270
sg43
g398
sg27
g240
sV[360\u624b\u673a\u52a9\u624b]
p742
g250
sg49
g456
sg63
g668
ssg49
(dp743
g713
g498
sg715
g89
sg714
g542
sg43
g400
sV[360\u624b\u673a\u52a9\u624b]
p744
g252
sg63
g682
ssg51
(dp745
g11
g77
sg13
g95
sg15
g116
sg17
g145
sg19
g164
sg21
g199
sg25
g215
sg27
g226
sg31
g256
sg35
g280
sg37
g306
sg235
g319
sg41
g347
sg43
g371
sg47
g411
sg711
g450
sg53
g544
sg55
g556
sg57
g588
sg59
g619
sg61
g635
sg63
g647
ssg53
(dp746
g11
g80
sg13
g102
sg15
g124
sg17
g148
sg19
g175
sg21
g202
sg25
g218
sg27
g231
sV[360\u624b\u673a\u52a9\u624b]
p747
g246
sg31
g259
sV[Polaris Office 4.0]
p748
g274
sg35
g287
sg37
g315
sg235
g326
sg41
g355
sg43
g382
sg47
g421
sg49
g452
sg51
g501
sg55
g563
sg57
g597
sg59
g624
sg61
g637
sg63
g660
ssg55
(dp749
g11
g82
sg171
g104
sg15
g133
sg735
g150
sg19
g189
sg21
g206
sg25
g220
sg27
g233
sV[360\u624b\u673a\u52a9\u624b]
p750
g248
sg31
g261
sg35
g293
sg235
g330
sg41
g357
sg43
g386
sg47
g427
sg49
g458
sg702
g503
sg733
g546
sg57
g601
sg59
g628
sg61
g641
sg63
g666
ssg57
(dp751
g35
g297
sg19
g187
sg15
g131
sg55
g565
sg184
g328
sg41
g359
sg59
g630
sg43
g391
sg27
g238
sg47
g425
ssg59
(dp752
VQQ
p753
g505
sV\u5fae\u4fe1
p754
g548
sg55
g576
sg63
g672
ssg61
(dp755
g709
g550
ssg63
(dp756
VQQ
p757
g507
sg17
g160
sg61
g643
sg11
g91
sg171
g112
sV\u5fae\u4fe1
p758
g552
sg21
g208
sg15
g141
sg41
g363
sg55
g584
sg235
g343
sg57
g615
sg59
g632
sg25
g222
sg43
g402
sV[Sensor Log]
p759
g407
sg27
g242
sg47
g446
sg19
g195
sssS'adj'
p760
g68
sb.