ccopy_reg
_reconstructor
p1
(cnetworkx.classes.graph
Graph
p2
c__builtin__
object
p3
NtRp4
(dp5
S'node'
p6
(dp7
VQQ
p8
(dp9
sV360\u624b\u673a\u52a9\u624b
p10
(dp11
sV\u901a\u77e5
p12
(dp13
sV\u54d4\u54e9\u54d4\u54e9\u52a8\u753b
p14
(dp15
sV\u5fae\u4fe1
p16
(dp17
sV\u519b\u68cb
p18
(dp19
sV360\u536b\u58eb
p20
(dp21
sV\u9177\u72d7\u97f3\u4e50
p22
(dp23
sV\u56fd\u9645\u65af\u8bfa\u514b
p24
(dp25
ssS'graph'
p26
(dp27
sS'edge'
p28
(dp29
g8
(dp30
g10
(dp31
S'weights'
p32
(lp33
I0
aI0
aI0
aI0
aI0
aI0
aI3
assg16
(dp34
g32
(lp35
I0
aI0
aI0
aI0
aI0
aI0
aI2
assg14
(dp36
g32
(lp37
I0
aI0
aI0
aI0
aI0
aI0
aI1
assg18
(dp38
g32
(lp39
I0
aI0
aI0
aI0
aI0
aI0
aI5
assV360\u536b\u58eb
p40
(dp41
g32
(lp42
I0
aI0
aI0
aI0
aI0
aI0
aI10
assV\u9177\u72d7\u97f3\u4e50
p43
(dp44
g32
(lp45
I0
aI0
aI0
aI0
aI0
aI0
aI2
assV\u56fd\u9645\u65af\u8bfa\u514b
p46
(dp47
g32
(lp48
I0
aI0
aI0
aI0
aI0
aI0
aI2
asssg10
(dp49
g8
g31
sg12
(dp50
g32
(lp51
I0
aI0
aI0
aI0
aI0
aI0
aI1
assV360\u536b\u58eb
p52
(dp53
g32
(lp54
I0
aI0
aI0
aI0
aI0
aI0
aI5
assV\u519b\u68cb
p55
(dp56
g32
(lp57
I0
aI0
aI0
aI0
aI0
aI0
aI1
asssg12
(dp58
V360\u624b\u673a\u52a9\u624b
p59
g50
sg24
(dp60
g32
(lp61
I0
aI0
aI0
aI0
aI0
aI0
aI1
asssg14
(dp62
VQQ
p63
g36
ssg16
(dp64
VQQ
p65
g34
sV\u519b\u68cb
p66
(dp67
g32
(lp68
I0
aI0
aI0
aI0
aI0
aI0
aI3
assV360\u536b\u58eb
p69
(dp70
g32
(lp71
I0
aI0
aI0
aI0
aI0
aI0
aI2
asssg18
(dp72
VQQ
p73
g38
sV360\u624b\u673a\u52a9\u624b
p74
g56
sV\u5fae\u4fe1
p75
g67
sV360\u536b\u58eb
p76
(dp77
g32
(lp78
I0
aI0
aI0
aI0
aI0
aI0
aI4
assg43
(dp79
g32
(lp80
I0
aI0
aI0
aI0
aI0
aI0
aI2
assV\u56fd\u9645\u65af\u8bfa\u514b
p81
(dp82
g32
(lp83
I0
aI0
aI0
aI0
aI0
aI0
aI1
asssg20
(dp84
VQQ
p85
g41
sV360\u624b\u673a\u52a9\u624b
p86
g53
sg16
g70
sV\u519b\u68cb
p87
g77
sg43
(dp88
g32
(lp89
I0
aI0
aI0
aI0
aI0
aI0
aI2
assg46
(dp90
g32
(lp91
I0
aI0
aI0
aI0
aI0
aI0
aI3
asssg22
(dp92
VQQ
p93
g44
sV\u519b\u68cb
p94
g79
sV360\u536b\u58eb
p95
g88
sg81
(dp96
g32
(lp97
I0
aI0
aI0
aI0
aI0
aI0
aI1
asssg24
(dp98
VQQ
p99
g47
sV\u901a\u77e5
p100
g60
sV360\u536b\u58eb
p101
g90
sg43
g96
sg94
g82
sssS'adj'
p102
g29
sb.