ccopy_reg
_reconstructor
p1
(cnetworkx.classes.graph
Graph
p2
c__builtin__
object
p3
NtRp4
(dp5
S'node'
p6
(dp7
V[com.sec.android.app.capabilitymanager]
p8
(dp9
sV[TouchWiz \u4e3b\u9875]
p10
(dp11
sV\u652f\u4ed8\u5b9d\u94b1\u5305
p12
(dp13
sV\u7f8e\u56e2\u56e2\u8d2d
p14
(dp15
sV\u7f51\u6613\u65b0\u95fb
p16
(dp17
sVCalculator.apk
p18
(dp19
sV[36\u6c2a]
p20
(dp21
sV\u8bfe\u7a0b\u683c\u5b50
p22
(dp23
sV[S \u5907\u5fd8\u5f55]
p24
(dp25
sV[\u997f\u4e86\u4e48]
p26
(dp27
sV[\u70b9\u70b9]
p28
(dp29
sVWPS Office
p30
(dp31
sV[\u8c4c\u8c46\u835a]
p32
(dp33
sVPhoto.apk
p34
(dp35
sVQQ\u90ae\u7bb1
p36
(dp37
sV[\u65e0\u79d8]
p38
(dp39
sVBrowser.apk
p40
(dp41
sVFileManager.apk
p42
(dp43
sV\u5fae\u535a
p44
(dp45
sVClock.apk
p46
(dp47
sVMms.apk
p48
(dp49
sVPackageInstaller.apk
p50
(dp51
sVPhone.apk
p52
(dp53
sV[PopupuiReceiver]
p54
(dp55
sVQQ
p56
(dp57
sV\u5fae\u4fe1
p58
(dp59
sV[KeyguardTestActivity]
p60
(dp61
sVCamera.apk
p62
(dp63
sV\u7f51\u6613\u4e91\u97f3\u4e50
p64
(dp65
sV\u9177\u72d7\u97f3\u4e50
p66
(dp67
sVSettings.apk
p68
(dp69
ssS'graph'
p70
(dp71
sS'edge'
p72
(dp73
g8
(dp74
VQQ
p75
(dp76
S'weights'
p77
(lp78
I0
aI0
aI0
aI0
aI0
aI0
aI3
assV[TouchWiz \u4e3b\u9875]
p79
(dp80
g77
(lp81
I0
aI0
aI0
aI0
aI0
aI0
aI3
assV[\u8c4c\u8c46\u835a]
p82
(dp83
g77
(lp84
I0
aI0
aI0
aI0
aI0
aI0
aI2
assg42
(dp85
g77
(lp86
I0
aI0
aI0
aI0
aI0
aI0
aI1
assg48
(dp87
g77
(lp88
I0
aI0
aI0
aI0
aI0
aI0
aI1
assg14
(dp89
g77
(lp90
I0
aI0
aI0
aI0
aI0
aI0
aI1
assV\u5fae\u4fe1
p91
(dp92
g77
(lp93
I0
aI0
aI0
aI0
aI0
aI0
aI3
assV[\u997f\u4e86\u4e48]
p94
(dp95
g77
(lp96
I0
aI0
aI0
aI0
aI0
aI0
aI1
assg36
(dp97
g77
(lp98
I0
aI0
aI0
aI0
aI0
aI0
aI1
assV\u7f51\u6613\u65b0\u95fb
p99
(dp100
g77
(lp101
I0
aI0
aI0
aI0
aI0
aI0
aI2
assV\u5fae\u535a
p102
(dp103
g77
(lp104
I0
aI0
aI0
aI0
aI0
aI0
aI3
assV\u7f51\u6613\u4e91\u97f3\u4e50
p105
(dp106
g77
(lp107
I0
aI0
aI0
aI0
aI0
aI0
aI1
assg18
(dp108
g77
(lp109
I0
aI0
aI0
aI0
aI0
aI0
aI1
assV[\u65e0\u79d8]
p110
(dp111
g77
(lp112
I0
aI0
aI0
aI0
aI0
aI0
aI1
assg40
(dp113
g77
(lp114
I0
aI0
aI0
aI0
aI0
aI0
aI2
assg50
(dp115
g77
(lp116
I0
aI0
aI0
aI0
aI0
aI0
aI5
assg52
(dp117
g77
(lp118
I0
aI0
aI0
aI0
aI0
aI0
aI2
assV[PopupuiReceiver]
p119
(dp120
g77
(lp121
I0
aI0
aI0
aI0
aI0
aI0
aI2
assg68
(dp122
g77
(lp123
I0
aI0
aI0
aI0
aI0
aI0
aI1
asssg10
(dp124
V[com.sec.android.app.capabilitymanager]
p125
g80
sg12
(dp126
g77
(lp127
I0
aI0
aI0
aI0
aI0
aI0
aI8
assg14
(dp128
g77
(lp129
I0
aI0
aI0
aI0
aI0
aI0
aI3
assg16
(dp130
g77
(lp131
I0
aI0
aI0
aI0
aI0
aI0
aI17
assg18
(dp132
g77
(lp133
I0
aI0
aI0
aI0
aI0
aI0
aI1
assV[36\u6c2a]
p134
(dp135
g77
(lp136
I0
aI0
aI0
aI0
aI0
aI0
aI1
assg22
(dp137
g77
(lp138
I0
aI0
aI0
aI0
aI0
aI0
aI2
assV[S \u5907\u5fd8\u5f55]
p139
(dp140
g77
(lp141
I0
aI0
aI0
aI0
aI0
aI0
aI1
assV[\u997f\u4e86\u4e48]
p142
(dp143
g77
(lp144
I0
aI0
aI0
aI0
aI0
aI0
aI1
assV[\u70b9\u70b9]
p145
(dp146
g77
(lp147
I0
aI0
aI0
aI0
aI0
aI0
aI1
assg30
(dp148
g77
(lp149
I0
aI0
aI0
aI0
aI0
aI0
aI6
assV[\u8c4c\u8c46\u835a]
p150
(dp151
g77
(lp152
I0
aI0
aI0
aI0
aI0
aI0
aI5
assg34
(dp153
g77
(lp154
I0
aI0
aI0
aI0
aI0
aI0
aI10
assg36
(dp155
g77
(lp156
I0
aI0
aI0
aI0
aI0
aI0
aI1
assV[\u65e0\u79d8]
p157
(dp158
g77
(lp159
I0
aI0
aI0
aI0
aI0
aI0
aI4
assg40
(dp160
g77
(lp161
I0
aI0
aI0
aI0
aI0
aI0
aI8
assg42
(dp162
g77
(lp163
I0
aI0
aI0
aI0
aI0
aI0
aI8
assg44
(dp164
g77
(lp165
I0
aI0
aI0
aI0
aI0
aI0
aI20
assg46
(dp166
g77
(lp167
I0
aI0
aI0
aI0
aI0
aI0
aI2
assg48
(dp168
g77
(lp169
I0
aI0
aI0
aI0
aI0
aI0
aI14
assg50
(dp170
g77
(lp171
I0
aI0
aI0
aI0
aI0
aI0
aI5
assg52
(dp172
g77
(lp173
I0
aI0
aI0
aI0
aI0
aI0
aI13
assV[PopupuiReceiver]
p174
(dp175
g77
(lp176
I0
aI0
aI0
aI0
aI0
aI0
aI3
assg56
(dp177
g77
(lp178
I0
aI0
aI0
aI0
aI0
aI0
aI45
assg58
(dp179
g77
(lp180
I0
aI0
aI0
aI0
aI0
aI0
aI41
assV[KeyguardTestActivity]
p181
(dp182
g77
(lp183
I0
aI0
aI0
aI0
aI0
aI0
aI6
assg62
(dp184
g77
(lp185
I0
aI0
aI0
aI0
aI0
aI0
aI8
assg64
(dp186
g77
(lp187
I0
aI0
aI0
aI0
aI0
aI0
aI3
assg66
(dp188
g77
(lp189
I0
aI0
aI0
aI0
aI0
aI0
aI6
assg68
(dp190
g77
(lp191
I0
aI0
aI0
aI0
aI0
aI0
aI5
asssg12
(dp192
VQQ
p193
(dp194
g77
(lp195
I0
aI0
aI0
aI0
aI0
aI0
aI7
assV[TouchWiz \u4e3b\u9875]
p196
g126
sg40
(dp197
g77
(lp198
I0
aI0
aI0
aI0
aI0
aI0
aI1
assg42
(dp199
g77
(lp200
I0
aI0
aI0
aI0
aI0
aI0
aI2
assg34
(dp201
g77
(lp202
I0
aI0
aI0
aI0
aI0
aI0
aI2
assV\u5fae\u4fe1
p203
(dp204
g77
(lp205
I0
aI0
aI0
aI0
aI0
aI0
aI7
assV[KeyguardTestActivity]
p206
(dp207
g77
(lp208
I0
aI0
aI0
aI0
aI0
aI0
aI2
assV\u5fae\u535a
p209
(dp210
g77
(lp211
I0
aI0
aI0
aI0
aI0
aI0
aI4
assg62
(dp212
g77
(lp213
I0
aI0
aI0
aI0
aI0
aI0
aI1
assV[PopupuiReceiver]
p214
(dp215
g77
(lp216
I0
aI0
aI0
aI0
aI0
aI0
aI1
assg48
(dp217
g77
(lp218
I0
aI0
aI0
aI0
aI0
aI0
aI3
assV[\u65e0\u79d8]
p219
(dp220
g77
(lp221
I0
aI0
aI0
aI0
aI0
aI0
aI2
assV\u7f51\u6613\u65b0\u95fb
p222
(dp223
g77
(lp224
I0
aI0
aI0
aI0
aI0
aI0
aI3
assg52
(dp225
g77
(lp226
I0
aI0
aI0
aI0
aI0
aI0
aI1
assVWPS Office
p227
(dp228
g77
(lp229
I0
aI0
aI0
aI0
aI0
aI0
aI2
asssg14
(dp230
g75
(dp231
g77
(lp232
I0
aI0
aI0
aI0
aI0
aI0
aI3
assV[com.sec.android.app.capabilitymanager]
p233
g89
sV[TouchWiz \u4e3b\u9875]
p234
g128
sV[\u8c4c\u8c46\u835a]
p235
(dp236
g77
(lp237
I0
aI0
aI0
aI0
aI0
aI0
aI3
assV\u7f8e\u56e2\u56e2\u8d2d
p238
(dp239
g77
(lp240
I0
aI0
aI0
aI0
aI0
aI0
aI1
assg91
(dp241
g77
(lp242
I0
aI0
aI0
aI0
aI0
aI0
aI3
assV\u7f51\u6613\u65b0\u95fb
p243
(dp244
g77
(lp245
I0
aI0
aI0
aI0
aI0
aI0
aI2
assV\u5fae\u535a
p246
(dp247
g77
(lp248
I0
aI0
aI0
aI0
aI0
aI0
aI2
assg18
(dp249
g77
(lp250
I0
aI0
aI0
aI0
aI0
aI0
aI1
assg40
(dp251
g77
(lp252
I0
aI0
aI0
aI0
aI0
aI0
aI3
assg50
(dp253
g77
(lp254
I0
aI0
aI0
aI0
aI0
aI0
aI1
assg52
(dp255
g77
(lp256
I0
aI0
aI0
aI0
aI0
aI0
aI3
assV[PopupuiReceiver]
p257
(dp258
g77
(lp259
I0
aI0
aI0
aI0
aI0
aI0
aI1
asssg16
(dp260
V[com.sec.android.app.capabilitymanager]
p261
g100
sV[TouchWiz \u4e3b\u9875]
p262
g130
sV\u652f\u4ed8\u5b9d\u94b1\u5305
p263
g223
sg14
g244
sV[36\u6c2a]
p264
(dp265
g77
(lp266
I0
aI0
aI0
aI0
aI0
aI0
aI1
assV\u8bfe\u7a0b\u683c\u5b50
p267
(dp268
g77
(lp269
I0
aI0
aI0
aI0
aI0
aI0
aI1
assV[\u997f\u4e86\u4e48]
p270
(dp271
g77
(lp272
I0
aI0
aI0
aI0
aI0
aI0
aI1
assVWPS Office
p273
(dp274
g77
(lp275
I0
aI0
aI0
aI0
aI0
aI0
aI1
assV[\u8c4c\u8c46\u835a]
p276
(dp277
g77
(lp278
I0
aI0
aI0
aI0
aI0
aI0
aI3
assg34
(dp279
g77
(lp280
I0
aI0
aI0
aI0
aI0
aI0
aI2
assg40
(dp281
g77
(lp282
I0
aI0
aI0
aI0
aI0
aI0
aI5
assg42
(dp283
g77
(lp284
I0
aI0
aI0
aI0
aI0
aI0
aI1
assV\u5fae\u535a
p285
(dp286
g77
(lp287
I0
aI0
aI0
aI0
aI0
aI0
aI8
assg46
(dp288
g77
(lp289
I0
aI0
aI0
aI0
aI0
aI0
aI1
assg48
(dp290
g77
(lp291
I0
aI0
aI0
aI0
aI0
aI0
aI6
assg50
(dp292
g77
(lp293
I0
aI0
aI0
aI0
aI0
aI0
aI3
assg52
(dp294
g77
(lp295
I0
aI0
aI0
aI0
aI0
aI0
aI4
assV[PopupuiReceiver]
p296
(dp297
g77
(lp298
I0
aI0
aI0
aI0
aI0
aI0
aI1
assVQQ
p299
(dp300
g77
(lp301
I0
aI0
aI0
aI0
aI0
aI0
aI11
assV\u5fae\u4fe1
p302
(dp303
g77
(lp304
I0
aI0
aI0
aI0
aI0
aI0
aI12
assV[KeyguardTestActivity]
p305
(dp306
g77
(lp307
I0
aI0
aI0
aI0
aI0
aI0
aI1
assg62
(dp308
g77
(lp309
I0
aI0
aI0
aI0
aI0
aI0
aI2
assg64
(dp310
g77
(lp311
I0
aI0
aI0
aI0
aI0
aI0
aI2
assV\u9177\u72d7\u97f3\u4e50
p312
(dp313
g77
(lp314
I0
aI0
aI0
aI0
aI0
aI0
aI3
assg68
(dp315
g77
(lp316
I0
aI0
aI0
aI0
aI0
aI0
aI1
asssg18
(dp317
g75
(dp318
g77
(lp319
I0
aI0
aI0
aI0
aI0
aI0
aI1
assV[com.sec.android.app.capabilitymanager]
p320
g108
sV[TouchWiz \u4e3b\u9875]
p321
g132
sV[\u8c4c\u8c46\u835a]
p322
(dp323
g77
(lp324
I0
aI0
aI0
aI0
aI0
aI0
aI1
assg14
g249
sg91
(dp325
g77
(lp326
I0
aI0
aI0
aI0
aI0
aI0
aI1
assg40
(dp327
g77
(lp328
I0
aI0
aI0
aI0
aI0
aI0
aI1
assg50
(dp329
g77
(lp330
I0
aI0
aI0
aI0
aI0
aI0
aI1
assg52
(dp331
g77
(lp332
I0
aI0
aI0
aI0
aI0
aI0
aI1
assV[PopupuiReceiver]
p333
(dp334
g77
(lp335
I0
aI0
aI0
aI0
aI0
aI0
aI1
asssg20
(dp336
V[TouchWiz \u4e3b\u9875]
p337
g135
sg42
(dp338
g77
(lp339
I0
aI0
aI0
aI0
aI0
aI0
aI1
assg34
(dp340
g77
(lp341
I0
aI0
aI0
aI0
aI0
aI0
aI1
assg16
g265
sg285
(dp342
g77
(lp343
I0
aI0
aI0
aI0
aI0
aI0
aI1
assg62
(dp344
g77
(lp345
I0
aI0
aI0
aI0
aI0
aI0
aI1
assg48
(dp346
g77
(lp347
I0
aI0
aI0
aI0
aI0
aI0
aI1
assg273
(dp348
g77
(lp349
I0
aI0
aI0
aI0
aI0
aI0
aI1
asssg22
(dp350
VQQ
p351
(dp352
g77
(lp353
I0
aI0
aI0
aI0
aI0
aI0
aI2
assV[TouchWiz \u4e3b\u9875]
p354
g137
sV\u5fae\u4fe1
p355
(dp356
g77
(lp357
I0
aI0
aI0
aI0
aI0
aI0
aI1
assV\u7f51\u6613\u65b0\u95fb
p358
g268
sg52
(dp359
g77
(lp360
I0
aI0
aI0
aI0
aI0
aI0
aI1
assg68
(dp361
g77
(lp362
I0
aI0
aI0
aI0
aI0
aI0
aI1
asssg24
(dp363
VQQ
p364
(dp365
g77
(lp366
I0
aI0
aI0
aI0
aI0
aI0
aI1
assV[TouchWiz \u4e3b\u9875]
p367
g140
sg42
(dp368
g77
(lp369
I0
aI0
aI0
aI0
aI0
aI0
aI1
assg34
(dp370
g77
(lp371
I0
aI0
aI0
aI0
aI0
aI0
aI1
assg48
(dp372
g77
(lp373
I0
aI0
aI0
aI0
aI0
aI0
aI1
asssg26
(dp374
VQQ
p375
(dp376
g77
(lp377
I0
aI0
aI0
aI0
aI0
aI0
aI1
assV[com.sec.android.app.capabilitymanager]
p378
g95
sV[TouchWiz \u4e3b\u9875]
p379
g143
sV[\u8c4c\u8c46\u835a]
p380
(dp381
g77
(lp382
I0
aI0
aI0
aI0
aI0
aI0
aI1
assV\u5fae\u4fe1
p383
(dp384
g77
(lp385
I0
aI0
aI0
aI0
aI0
aI0
aI1
assV\u7f51\u6613\u65b0\u95fb
p386
g271
sg105
(dp387
g77
(lp388
I0
aI0
aI0
aI0
aI0
aI0
aI1
assg48
(dp389
g77
(lp390
I0
aI0
aI0
aI0
aI0
aI0
aI1
assg40
(dp391
g77
(lp392
I0
aI0
aI0
aI0
aI0
aI0
aI1
assg50
(dp393
g77
(lp394
I0
aI0
aI0
aI0
aI0
aI0
aI1
assg52
(dp395
g77
(lp396
I0
aI0
aI0
aI0
aI0
aI0
aI1
assV[PopupuiReceiver]
p397
(dp398
g77
(lp399
I0
aI0
aI0
aI0
aI0
aI0
aI1
asssg28
(dp400
VQQ
p401
(dp402
g77
(lp403
I0
aI0
aI0
aI0
aI0
aI0
aI1
assV\u5fae\u4fe1
p404
(dp405
g77
(lp406
I0
aI0
aI0
aI0
aI0
aI0
aI1
assV[TouchWiz \u4e3b\u9875]
p407
g146
ssg30
(dp408
g56
(dp409
g77
(lp410
I0
aI0
aI0
aI0
aI0
aI0
aI4
assV[TouchWiz \u4e3b\u9875]
p411
g148
sg42
(dp412
g77
(lp413
I0
aI0
aI0
aI0
aI0
aI0
aI6
assg34
(dp414
g77
(lp415
I0
aI0
aI0
aI0
aI0
aI0
aI3
assV\u5fae\u4fe1
p416
(dp417
g77
(lp418
I0
aI0
aI0
aI0
aI0
aI0
aI3
assg62
(dp419
g77
(lp420
I0
aI0
aI0
aI0
aI0
aI0
aI1
assg16
g274
sV[\u65e0\u79d8]
p421
(dp422
g77
(lp423
I0
aI0
aI0
aI0
aI0
aI0
aI1
assg285
(dp424
g77
(lp425
I0
aI0
aI0
aI0
aI0
aI0
aI2
assV[36\u6c2a]
p426
g348
sg48
(dp427
g77
(lp428
I0
aI0
aI0
aI0
aI0
aI0
aI2
assV\u652f\u4ed8\u5b9d\u94b1\u5305
p429
g228
sV\u9177\u72d7\u97f3\u4e50
p430
(dp431
g77
(lp432
I0
aI0
aI0
aI0
aI0
aI0
aI1
assg52
(dp433
g77
(lp434
I0
aI0
aI0
aI0
aI0
aI0
aI1
assg68
(dp435
g77
(lp436
I0
aI0
aI0
aI0
aI0
aI0
aI1
asssg32
(dp437
g75
(dp438
g77
(lp439
I0
aI0
aI0
aI0
aI0
aI0
aI4
assV[com.sec.android.app.capabilitymanager]
p440
g83
sV[TouchWiz \u4e3b\u9875]
p441
g151
sV\u9177\u72d7\u97f3\u4e50
p442
(dp443
g77
(lp444
I0
aI0
aI0
aI0
aI0
aI0
aI1
assg48
(dp445
g77
(lp446
I0
aI0
aI0
aI0
aI0
aI0
aI1
assg14
g236
sg91
(dp447
g77
(lp448
I0
aI0
aI0
aI0
aI0
aI0
aI3
assV[\u997f\u4e86\u4e48]
p449
g381
sV\u7f51\u6613\u65b0\u95fb
p450
g277
sg246
(dp451
g77
(lp452
I0
aI0
aI0
aI0
aI0
aI0
aI1
assg64
(dp453
g77
(lp454
I0
aI0
aI0
aI0
aI0
aI0
aI2
assg18
g323
sV[KeyguardTestActivity]
p455
(dp456
g77
(lp457
I0
aI0
aI0
aI0
aI0
aI0
aI1
assg40
(dp458
g77
(lp459
I0
aI0
aI0
aI0
aI0
aI0
aI3
assg50
(dp460
g77
(lp461
I0
aI0
aI0
aI0
aI0
aI0
aI3
assg52
(dp462
g77
(lp463
I0
aI0
aI0
aI0
aI0
aI0
aI3
assV[PopupuiReceiver]
p464
(dp465
g77
(lp466
I0
aI0
aI0
aI0
aI0
aI0
aI2
asssg34
(dp467
g364
(dp468
g77
(lp469
I0
aI0
aI0
aI0
aI0
aI0
aI8
assV[TouchWiz \u4e3b\u9875]
p470
g153
sg42
(dp471
g77
(lp472
I0
aI0
aI0
aI0
aI0
aI0
aI4
assV[36\u6c2a]
p473
g340
sV\u5fae\u4fe1
p474
(dp475
g77
(lp476
I0
aI0
aI0
aI0
aI0
aI0
aI6
assg46
(dp477
g77
(lp478
I0
aI0
aI0
aI0
aI0
aI0
aI1
assg16
g279
sV[\u65e0\u79d8]
p479
(dp480
g77
(lp481
I0
aI0
aI0
aI0
aI0
aI0
aI1
assg285
(dp482
g77
(lp483
I0
aI0
aI0
aI0
aI0
aI0
aI2
assg62
(dp484
g77
(lp485
I0
aI0
aI0
aI0
aI0
aI0
aI5
assg48
(dp486
g77
(lp487
I0
aI0
aI0
aI0
aI0
aI0
aI4
assV[KeyguardTestActivity]
p488
(dp489
g77
(lp490
I0
aI0
aI0
aI0
aI0
aI0
aI2
assg263
g201
sV[S \u5907\u5fd8\u5f55]
p491
g370
sg430
(dp492
g77
(lp493
I0
aI0
aI0
aI0
aI0
aI0
aI1
assg52
(dp494
g77
(lp495
I0
aI0
aI0
aI0
aI0
aI0
aI3
assg273
g414
sg68
(dp496
g77
(lp497
I0
aI0
aI0
aI0
aI0
aI0
aI1
asssg36
(dp498
VQQ
p499
(dp500
g77
(lp501
I0
aI0
aI0
aI0
aI0
aI0
aI1
assV[com.sec.android.app.capabilitymanager]
p502
g97
sV[TouchWiz \u4e3b\u9875]
p503
g155
sg42
(dp504
g77
(lp505
I0
aI0
aI0
aI0
aI0
aI0
aI1
assV\u5fae\u4fe1
p506
(dp507
g77
(lp508
I0
aI0
aI0
aI0
aI0
aI0
aI1
assV\u5fae\u535a
p509
(dp510
g77
(lp511
I0
aI0
aI0
aI0
aI0
aI0
aI1
assV[\u65e0\u79d8]
p512
(dp513
g77
(lp514
I0
aI0
aI0
aI0
aI0
aI0
aI1
assg50
(dp515
g77
(lp516
I0
aI0
aI0
aI0
aI0
aI0
aI1
assg68
(dp517
g77
(lp518
I0
aI0
aI0
aI0
aI0
aI0
aI1
asssg38
(dp519
VQQ
p520
(dp521
g77
(lp522
I0
aI0
aI0
aI0
aI0
aI0
aI3
assV[com.sec.android.app.capabilitymanager]
p523
g111
sV[TouchWiz \u4e3b\u9875]
p524
g158
sg42
(dp525
g77
(lp526
I0
aI0
aI0
aI0
aI0
aI0
aI2
assV\u652f\u4ed8\u5b9d\u94b1\u5305
p527
g220
sV\u5fae\u4fe1
p528
(dp529
g77
(lp530
I0
aI0
aI0
aI0
aI0
aI0
aI4
assg68
(dp531
g77
(lp532
I0
aI0
aI0
aI0
aI0
aI0
aI1
assg36
g513
sV\u5fae\u535a
p533
(dp534
g77
(lp535
I0
aI0
aI0
aI0
aI0
aI0
aI3
assVWPS Office
p536
g422
sg48
(dp537
g77
(lp538
I0
aI0
aI0
aI0
aI0
aI0
aI2
assg40
(dp539
g77
(lp540
I0
aI0
aI0
aI0
aI0
aI0
aI1
assg50
(dp541
g77
(lp542
I0
aI0
aI0
aI0
aI0
aI0
aI1
assV[PopupuiReceiver]
p543
(dp544
g77
(lp545
I0
aI0
aI0
aI0
aI0
aI0
aI1
assg34
g480
ssg40
(dp546
VQQ
p547
(dp548
g77
(lp549
I0
aI0
aI0
aI0
aI0
aI0
aI6
assV[com.sec.android.app.capabilitymanager]
p550
g113
sV[TouchWiz \u4e3b\u9875]
p551
g160
sV[\u8c4c\u8c46\u835a]
p552
g458
sg527
g197
sg14
g251
sg302
(dp553
g77
(lp554
I0
aI0
aI0
aI0
aI0
aI0
aI6
assV[\u997f\u4e86\u4e48]
p555
g391
sV\u7f51\u6613\u65b0\u95fb
p556
g281
sg18
g327
sg533
(dp557
g77
(lp558
I0
aI0
aI0
aI0
aI0
aI0
aI3
assg105
(dp559
g77
(lp560
I0
aI0
aI0
aI0
aI0
aI0
aI1
assg48
(dp561
g77
(lp562
I0
aI0
aI0
aI0
aI0
aI0
aI3
assV[\u65e0\u79d8]
p563
g539
sg50
(dp564
g77
(lp565
I0
aI0
aI0
aI0
aI0
aI0
aI2
assg52
(dp566
g77
(lp567
I0
aI0
aI0
aI0
aI0
aI0
aI3
assV[PopupuiReceiver]
p568
(dp569
g77
(lp570
I0
aI0
aI0
aI0
aI0
aI0
aI3
asssg42
(dp571
g56
(dp572
g77
(lp573
I0
aI0
aI0
aI0
aI0
aI0
aI6
assV[com.sec.android.app.capabilitymanager]
p574
g85
sV[TouchWiz \u4e3b\u9875]
p575
g162
sg430
(dp576
g77
(lp577
I0
aI0
aI0
aI0
aI0
aI0
aI1
assV[36\u6c2a]
p578
g338
sg416
(dp579
g77
(lp580
I0
aI0
aI0
aI0
aI0
aI0
aI4
assg36
g504
sg16
g283
sV[\u65e0\u79d8]
p581
g525
sg285
(dp582
g77
(lp583
I0
aI0
aI0
aI0
aI0
aI0
aI3
assg62
(dp584
g77
(lp585
I0
aI0
aI0
aI0
aI0
aI0
aI1
assg48
(dp586
g77
(lp587
I0
aI0
aI0
aI0
aI0
aI0
aI3
assg429
g199
sV[S \u5907\u5fd8\u5f55]
p588
g368
sg68
(dp589
g77
(lp590
I0
aI0
aI0
aI0
aI0
aI0
aI2
assg50
(dp591
g77
(lp592
I0
aI0
aI0
aI0
aI0
aI0
aI1
assg52
(dp593
g77
(lp594
I0
aI0
aI0
aI0
aI0
aI0
aI1
assg30
g412
sg34
g471
ssg44
(dp595
V[com.sec.android.app.capabilitymanager]
p596
g103
sV[TouchWiz \u4e3b\u9875]
p597
g164
sg263
g210
sg14
g247
sg16
g286
sV[36\u6c2a]
p598
g342
sg273
g424
sV[\u8c4c\u8c46\u835a]
p599
g451
sg34
g482
sg36
g510
sV[\u65e0\u79d8]
p600
g534
sg40
g557
sg42
g582
sg48
(dp601
g77
(lp602
I0
aI0
aI0
aI0
aI0
aI0
aI7
assg50
(dp603
g77
(lp604
I0
aI0
aI0
aI0
aI0
aI0
aI3
assg52
(dp605
g77
(lp606
I0
aI0
aI0
aI0
aI0
aI0
aI2
assV[PopupuiReceiver]
p607
(dp608
g77
(lp609
I0
aI0
aI0
aI0
aI0
aI0
aI1
assVQQ
p610
(dp611
g77
(lp612
I0
aI0
aI0
aI0
aI0
aI0
aI13
assg58
(dp613
g77
(lp614
I0
aI0
aI0
aI0
aI0
aI0
aI14
assV[KeyguardTestActivity]
p615
(dp616
g77
(lp617
I0
aI0
aI0
aI0
aI0
aI0
aI2
assg62
(dp618
g77
(lp619
I0
aI0
aI0
aI0
aI0
aI0
aI3
assg66
(dp620
g77
(lp621
I0
aI0
aI0
aI0
aI0
aI0
aI3
assg68
(dp622
g77
(lp623
I0
aI0
aI0
aI0
aI0
aI0
aI1
asssg46
(dp624
VQQ
p625
(dp626
g77
(lp627
I0
aI0
aI0
aI0
aI0
aI0
aI2
assV[TouchWiz \u4e3b\u9875]
p628
g166
sV\u9177\u72d7\u97f3\u4e50
p629
(dp630
g77
(lp631
I0
aI0
aI0
aI0
aI0
aI0
aI1
assg34
g477
sV\u5fae\u4fe1
p632
(dp633
g77
(lp634
I0
aI0
aI0
aI0
aI0
aI0
aI2
assV[KeyguardTestActivity]
p635
(dp636
g77
(lp637
I0
aI0
aI0
aI0
aI0
aI0
aI1
assg62
(dp638
g77
(lp639
I0
aI0
aI0
aI0
aI0
aI0
aI1
assV\u7f51\u6613\u65b0\u95fb
p640
g288
sg52
(dp641
g77
(lp642
I0
aI0
aI0
aI0
aI0
aI0
aI1
asssg48
(dp643
V[com.sec.android.app.capabilitymanager]
p644
g87
sV[TouchWiz \u4e3b\u9875]
p645
g168
sg263
g217
sg16
g290
sV[36\u6c2a]
p646
g346
sV[S \u5907\u5fd8\u5f55]
p647
g372
sV[\u997f\u4e86\u4e48]
p648
g389
sg273
g427
sV[\u8c4c\u8c46\u835a]
p649
g445
sg34
g486
sV[\u65e0\u79d8]
p650
g537
sg40
g561
sg42
g586
sg285
g601
sg50
(dp651
g77
(lp652
I0
aI0
aI0
aI0
aI0
aI0
aI1
assg52
(dp653
g77
(lp654
I0
aI0
aI0
aI0
aI0
aI0
aI6
assV[PopupuiReceiver]
p655
(dp656
g77
(lp657
I0
aI0
aI0
aI0
aI0
aI0
aI2
assg364
(dp658
g77
(lp659
I0
aI0
aI0
aI0
aI0
aI0
aI9
assV\u5fae\u4fe1
p660
(dp661
g77
(lp662
I0
aI0
aI0
aI0
aI0
aI0
aI9
assV[KeyguardTestActivity]
p663
(dp664
g77
(lp665
I0
aI0
aI0
aI0
aI0
aI0
aI1
assg62
(dp666
g77
(lp667
I0
aI0
aI0
aI0
aI0
aI0
aI3
assg105
(dp668
g77
(lp669
I0
aI0
aI0
aI0
aI0
aI0
aI1
assg66
(dp670
g77
(lp671
I0
aI0
aI0
aI0
aI0
aI0
aI1
asssg50
(dp672
g75
(dp673
g77
(lp674
I0
aI0
aI0
aI0
aI0
aI0
aI3
assV[com.sec.android.app.capabilitymanager]
p675
g115
sV[TouchWiz \u4e3b\u9875]
p676
g170
sV[\u8c4c\u8c46\u835a]
p677
g460
sg42
g591
sg48
g651
sg14
g253
sg91
(dp678
g77
(lp679
I0
aI0
aI0
aI0
aI0
aI0
aI4
assg36
g515
sg442
(dp680
g77
(lp681
I0
aI0
aI0
aI0
aI0
aI0
aI1
assg450
g292
sg102
g603
sg64
(dp682
g77
(lp683
I0
aI0
aI0
aI0
aI0
aI0
aI3
assg18
g329
sV[\u65e0\u79d8]
p684
g541
sg40
g564
sV[\u997f\u4e86\u4e48]
p685
g393
sg52
(dp686
g77
(lp687
I0
aI0
aI0
aI0
aI0
aI0
aI2
assV[PopupuiReceiver]
p688
(dp689
g77
(lp690
I0
aI0
aI0
aI0
aI0
aI0
aI2
assg68
(dp691
g77
(lp692
I0
aI0
aI0
aI0
aI0
aI0
aI1
asssg52
(dp693
V[com.sec.android.app.capabilitymanager]
p694
g117
sV[TouchWiz \u4e3b\u9875]
p695
g172
sg48
g653
sg14
g255
sg222
g294
sg267
g359
sV[\u997f\u4e86\u4e48]
p696
g395
sVWPS Office
p697
g433
sg263
g225
sV[\u8c4c\u8c46\u835a]
p698
g462
sg34
g494
sg40
g566
sg42
g593
sg209
g605
sg46
g641
sg18
g331
sg50
g686
sV[PopupuiReceiver]
p699
(dp700
g77
(lp701
I0
aI0
aI0
aI0
aI0
aI0
aI2
assVQQ
p702
(dp703
g77
(lp704
I0
aI0
aI0
aI0
aI0
aI0
aI8
assg474
(dp705
g77
(lp706
I0
aI0
aI0
aI0
aI0
aI0
aI9
assV[KeyguardTestActivity]
p707
(dp708
g77
(lp709
I0
aI0
aI0
aI0
aI0
aI0
aI2
assg62
(dp710
g77
(lp711
I0
aI0
aI0
aI0
aI0
aI0
aI3
assg105
(dp712
g77
(lp713
I0
aI0
aI0
aI0
aI0
aI0
aI1
assg68
(dp714
g77
(lp715
I0
aI0
aI0
aI0
aI0
aI0
aI2
asssg54
(dp716
g520
(dp717
g77
(lp718
I0
aI0
aI0
aI0
aI0
aI0
aI3
assV[com.sec.android.app.capabilitymanager]
p719
g120
sV[TouchWiz \u4e3b\u9875]
p720
g175
sV[\u8c4c\u8c46\u835a]
p721
g465
sg527
g215
sg14
g258
sg528
(dp722
g77
(lp723
I0
aI0
aI0
aI0
aI0
aI0
aI3
assV[\u997f\u4e86\u4e48]
p724
g398
sg386
g297
sg18
g334
sg533
g608
sg105
(dp725
g77
(lp726
I0
aI0
aI0
aI0
aI0
aI0
aI1
assg48
g656
sV[\u65e0\u79d8]
p727
g544
sg40
g569
sg50
g689
sg52
g700
ssg56
(dp728
V[com.sec.android.app.capabilitymanager]
p729
g76
sV[TouchWiz \u4e3b\u9875]
p730
g177
sg48
g658
sg14
g231
sV\u7f51\u6613\u65b0\u95fb
p731
g300
sg22
g352
sV[S \u5907\u5fd8\u5f55]
p732
g365
sV[\u997f\u4e86\u4e48]
p733
g376
sV[\u70b9\u70b9]
p734
g402
sg30
g409
sg12
g194
sV[\u8c4c\u8c46\u835a]
p735
g438
sg34
g468
sg36
g500
sV[\u65e0\u79d8]
p736
g521
sg40
g548
sg42
g572
sg44
g611
sg46
g626
sg18
g318
sg50
g673
sg52
g703
sV[PopupuiReceiver]
p737
g717
sg58
(dp738
g77
(lp739
I0
aI0
aI0
aI0
aI0
aI0
aI32
assV[KeyguardTestActivity]
p740
(dp741
g77
(lp742
I0
aI0
aI0
aI0
aI0
aI0
aI5
assg62
(dp743
g77
(lp744
I0
aI0
aI0
aI0
aI0
aI0
aI5
assg105
(dp745
g77
(lp746
I0
aI0
aI0
aI0
aI0
aI0
aI1
assg66
(dp747
g77
(lp748
I0
aI0
aI0
aI0
aI0
aI0
aI3
assg68
(dp749
g77
(lp750
I0
aI0
aI0
aI0
aI0
aI0
aI3
asssg58
(dp751
V[com.sec.android.app.capabilitymanager]
p752
g92
sV[TouchWiz \u4e3b\u9875]
p753
g179
sg48
g661
sg14
g241
sg556
g303
sg22
g356
sV[\u70b9\u70b9]
p754
g405
sV[\u997f\u4e86\u4e48]
p755
g384
sg227
g417
sg263
g204
sV[\u8c4c\u8c46\u835a]
p756
g447
sg34
g475
sg36
g507
sV[\u65e0\u79d8]
p757
g529
sg40
g553
sg42
g579
sV\u5fae\u535a
p758
g613
sg46
g633
sg18
g325
sg50
g678
sg52
g705
sV[PopupuiReceiver]
p759
g722
sVQQ
p760
g738
sV[KeyguardTestActivity]
p761
(dp762
g77
(lp763
I0
aI0
aI0
aI0
aI0
aI0
aI3
assg62
(dp764
g77
(lp765
I0
aI0
aI0
aI0
aI0
aI0
aI5
assV\u7f51\u6613\u4e91\u97f3\u4e50
p766
(dp767
g77
(lp768
I0
aI0
aI0
aI0
aI0
aI0
aI2
assg66
(dp769
g77
(lp770
I0
aI0
aI0
aI0
aI0
aI0
aI3
assg68
(dp771
g77
(lp772
I0
aI0
aI0
aI0
aI0
aI0
aI2
asssg60
(dp773
VQQ
p774
g741
sV[TouchWiz \u4e3b\u9875]
p775
g182
sV[\u8c4c\u8c46\u835a]
p776
g456
sg34
g489
sV\u5fae\u4fe1
p777
g762
sg46
g636
sg222
g306
sV\u5fae\u535a
p778
g616
sg62
(dp779
g77
(lp780
I0
aI0
aI0
aI0
aI0
aI0
aI2
assg48
g664
sg52
g708
sg12
g207
ssg62
(dp781
VQQ
p782
g743
sV[TouchWiz \u4e3b\u9875]
p783
g184
sg42
g584
sg34
g484
sV\u5fae\u4fe1
p784
g764
sg46
g638
sg16
g308
sg285
g618
sV[36\u6c2a]
p785
g344
sg48
g666
sV[KeyguardTestActivity]
p786
g779
sg52
g710
sg273
g419
sg263
g212
ssg64
(dp787
g375
g745
sV[com.sec.android.app.capabilitymanager]
p788
g106
sV[TouchWiz \u4e3b\u9875]
p789
g186
sV[\u8c4c\u8c46\u835a]
p790
g453
sV\u5fae\u4fe1
p791
g767
sV[\u997f\u4e86\u4e48]
p792
g387
sg450
g310
sg48
g668
sg40
g559
sg442
(dp793
g77
(lp794
I0
aI0
aI0
aI0
aI0
aI0
aI1
assg50
g682
sg52
g712
sV[PopupuiReceiver]
p795
g725
ssg66
(dp796
VQQ
p797
g747
sV[TouchWiz \u4e3b\u9875]
p798
g188
sV[\u8c4c\u8c46\u835a]
p799
g443
sg42
g576
sg34
g492
sg660
g769
sV\u7f51\u6613\u65b0\u95fb
p800
g313
sV\u5fae\u535a
p801
g620
sg46
g630
sg64
g793
sg48
g670
sg50
g680
sVWPS Office
p802
g431
sg68
(dp803
g77
(lp804
I0
aI0
aI0
aI0
aI0
aI0
aI1
asssg68
(dp805
VQQ
p806
g749
sV[com.sec.android.app.capabilitymanager]
p807
g122
sV[TouchWiz \u4e3b\u9875]
p808
g190
sg42
g589
sg34
g496
sg506
g771
sg36
g517
sg358
g315
sg509
g622
sV[\u65e0\u79d8]
p809
g531
sg267
g361
sg430
g803
sg50
g691
sg52
g714
sg802
g435
sssS'adj'
p810
g73
sb.