ccopy_reg
_reconstructor
p1
(cnetworkx.classes.digraph
DiGraph
p2
c__builtin__
object
p3
NtRp4
(dp5
S'node'
p6
(dp7
V91\u684c\u9762
p8
(dp9
S'weight'
p10
F0.40000000000000002
ssV\u767e\u5ea6\u97f3\u4e50
p11
(dp12
g10
F0.01
ssV[Youni\u77ed\u4fe1]
p13
(dp14
g10
F0.25
ssV[360\u536b\u58eb]
p15
(dp16
g10
F0.02
ssV[\u65b0\u6d6a\u4f53\u80b2]
p17
(dp18
g10
F0.02
ssV\u5fae\u4fe1
p19
(dp20
g10
F0.23000000000000001
ssV[\u4e09\u661f\u624b\u7535\u7b52]
p21
(dp22
g10
F0
ssV\u767e\u5ea6
p23
(dp24
g10
F0.059999999999999998
sssS'graph'
p25
(dp26
sS'succ'
p27
(dp28
g8
(dp29
V[Youni\u77ed\u4fe1]
p30
(dp31
S'weights'
p32
(lp33
I0
aI0
aI0
aI0
aI0
aI0
aF0.40999999999999998
assV[360\u536b\u58eb]
p34
(dp35
g32
(lp36
I0
aI0
aI0
aI0
aI0
aI0
aF0.20999999999999999
assV[\u65b0\u6d6a\u4f53\u80b2]
p37
(dp38
g32
(lp39
I0
aI0
aI0
aI0
aI0
aI0
aF-0.11
assg19
(dp40
g32
(lp41
I0
aI0
aI0
aI0
aI0
aI0
aF0.040000000000000001
assV[\u4e09\u661f\u624b\u7535\u7b52]
p42
(dp43
g32
(lp44
I0
aI0
aI0
aI0
aI0
aI0
aF0.33000000000000002
assV\u767e\u5ea6
p45
(dp46
g32
(lp47
I0
aI0
aI0
aI0
aI0
aI0
aF0.40999999999999998
asssg11
(dp48
V91\u684c\u9762
p49
(dp50
g32
(lp51
I0
aI0
aI0
aI0
aI0
aI0
aF0.25
assV\u767e\u5ea6
p52
(dp53
g32
(lp54
I0
aI0
aI0
aI0
aI0
aI0
aF0.25
asssg13
(dp55
V91\u684c\u9762
p56
(dp57
g32
(lp58
I0
aI0
aI0
aI0
aI0
aI0
aF0.029999999999999999
assV[360\u536b\u58eb]
p59
(dp60
g32
(lp61
I0
aI0
aI0
aI0
aI0
aI0
aF0.20999999999999999
assV[\u65b0\u6d6a\u4f53\u80b2]
p62
(dp63
g32
(lp64
I0
aI0
aI0
aI0
aI0
aI0
aF0.17999999999999999
assg19
(dp65
g32
(lp66
I0
aI0
aI0
aI0
aI0
aI0
aF0.040000000000000001
assV[\u4e09\u661f\u624b\u7535\u7b52]
p67
(dp68
g32
(lp69
I0
aI0
aI0
aI0
aI0
aI0
aF0.14000000000000001
assV\u767e\u5ea6
p70
(dp71
g32
(lp72
I0
aI0
aI0
aI0
aI0
aI0
aF0.38
asssg15
(dp73
V91\u684c\u9762
p74
(dp75
g32
(lp76
I0
aI0
aI0
aI0
aI0
aI0
aF0.10000000000000001
assV\u5fae\u4fe1
p77
(dp78
g32
(lp79
I0
aI0
aI0
aI0
aI0
aI0
aF0.35999999999999999
assV[Youni\u77ed\u4fe1]
p80
(dp81
g32
(lp82
I0
aI0
aI0
aI0
aI0
aI0
aF0.35999999999999999
assV[\u65b0\u6d6a\u4f53\u80b2]
p83
(dp84
g32
(lp85
I0
aI0
aI0
aI0
aI0
aI0
aF0.38
assV\u767e\u5ea6
p86
(dp87
g32
(lp88
I0
aI0
aI0
aI0
aI0
aI0
aF0.38
asssg17
(dp89
V91\u684c\u9762
p90
(dp91
g32
(lp92
I0
aI0
aI0
aI0
aI0
aI0
aF0.029999999999999999
assV\u5fae\u4fe1
p93
(dp94
g32
(lp95
I0
aI0
aI0
aI0
aI0
aI0
aF0.40999999999999998
assV[Youni\u77ed\u4fe1]
p96
(dp97
g32
(lp98
I0
aI0
aI0
aI0
aI0
aI0
aF-0.22
asssg19
(dp99
g56
(dp100
g32
(lp101
I0
aI0
aI0
aI0
aI0
aI0
aF0.40000000000000002
assV[Youni\u77ed\u4fe1]
p102
(dp103
g32
(lp104
I0
aI0
aI0
aI0
aI0
aI0
aF0.40000000000000002
assV[360\u536b\u58eb]
p105
(dp106
g32
(lp107
I0
aI0
aI0
aI0
aI0
aI0
aF0.20999999999999999
assV[\u65b0\u6d6a\u4f53\u80b2]
p108
(dp109
g32
(lp110
I0
aI0
aI0
aI0
aI0
aI0
aF0.11
assV\u767e\u5ea6
p111
(dp112
g32
(lp113
I0
aI0
aI0
aI0
aI0
aI0
aF0.40999999999999998
asssg21
(dp114
V\u5fae\u4fe1
p115
(dp116
g32
(lp117
I0
aI0
aI0
aI0
aI0
aI0
aF0.23000000000000001
assV[Youni\u77ed\u4fe1]
p118
(dp119
g32
(lp120
I0
aI0
aI0
aI0
aI0
aI0
aF0.23000000000000001
asssg23
(dp121
V91\u684c\u9762
p122
(dp123
g32
(lp124
I0
aI0
aI0
aI0
aI0
aI0
aF0.029999999999999999
assV\u5fae\u4fe1
p125
(dp126
g32
(lp127
I0
aI0
aI0
aI0
aI0
aI0
aF0.34000000000000002
assV[Youni\u77ed\u4fe1]
p128
(dp129
g32
(lp130
I0
aI0
aI0
aI0
aI0
aI0
aF0.029999999999999999
assV[360\u536b\u58eb]
p131
(dp132
g32
(lp133
I0
aI0
aI0
aI0
aI0
aI0
aF0.23000000000000001
assV[\u65b0\u6d6a\u4f53\u80b2]
p134
(dp135
g32
(lp136
I0
aI0
aI0
aI0
aI0
aI0
aF0.20999999999999999
assssS'edge'
p137
g28
sS'pred'
p138
(dp139
g8
(dp140
g11
g50
sV[Youni\u77ed\u4fe1]
p141
g57
sV[360\u536b\u58eb]
p142
g75
sV[\u65b0\u6d6a\u4f53\u80b2]
p143
g91
sg19
g100
sg111
g123
ssg11
(dp144
sg13
(dp145
V91\u684c\u9762
p146
g31
sV[360\u536b\u58eb]
p147
g81
sV[\u65b0\u6d6a\u4f53\u80b2]
p148
g97
sg19
g103
sV[\u4e09\u661f\u624b\u7535\u7b52]
p149
g119
sg111
g129
ssg15
(dp150
V91\u684c\u9762
p151
g35
sV\u5fae\u4fe1
p152
g106
sV[Youni\u77ed\u4fe1]
p153
g60
sg70
g132
ssg17
(dp154
V91\u684c\u9762
p155
g38
sV\u5fae\u4fe1
p156
g109
sV[Youni\u77ed\u4fe1]
p157
g63
sV[360\u536b\u58eb]
p158
g84
sg70
g135
ssg19
(dp159
g146
g40
sV[Youni\u77ed\u4fe1]
p160
g65
sV[360\u536b\u58eb]
p161
g78
sV[\u65b0\u6d6a\u4f53\u80b2]
p162
g94
sV[\u4e09\u661f\u624b\u7535\u7b52]
p163
g116
sg111
g126
ssg21
(dp164
V91\u684c\u9762
p165
g43
sV[Youni\u77ed\u4fe1]
p166
g68
ssg23
(dp167
V91\u684c\u9762
p168
g46
sV\u5fae\u4fe1
p169
g112
sV[Youni\u77ed\u4fe1]
p170
g71
sV[360\u536b\u58eb]
p171
g87
sg11
g53
sssS'adj'
p172
g28
sb.