ccopy_reg
_reconstructor
p1
(cnetworkx.classes.digraph
DiGraph
p2
c__builtin__
object
p3
NtRp4
(dp5
S'node'
p6
(dp7
VQQ
p8
(dp9
S'weight'
p10
F0.32000000000000001
ssV[360\u536b\u58eb]
p11
(dp12
g10
F0.25
ssV\u5fae\u4fe1
p13
(dp14
g10
F0.050000000000000003
ssV\u54d4\u54e9\u54d4\u54e9\u52a8\u753b
p15
(dp16
g10
F0.01
ssVNotice.apk
p17
(dp18
g10
F0.029999999999999999
ssV[\u56fd\u9645\u65af\u8bfa\u514b]
p19
(dp20
g10
F0.040000000000000001
ssV\u519b\u68cb
p21
(dp22
g10
F0.17999999999999999
ssV\u9177\u72d7\u97f3\u4e50
p23
(dp24
g10
F0.059999999999999998
ssV[360\u624b\u673a\u52a9\u624b]
p25
(dp26
g10
F0.070000000000000007
sssS'graph'
p27
(dp28
sS'succ'
p29
(dp30
g8
(dp31
V[360\u536b\u58eb]
p32
(dp33
S'weights'
p34
(lp35
I0
aI0
aI0
aI0
aI0
aI0
aF0.53000000000000003
assg13
(dp36
g34
(lp37
I0
aI0
aI0
aI0
aI0
aI0
aF0.5
assV[\u56fd\u9645\u65af\u8bfa\u514b]
p38
(dp39
g34
(lp40
I0
aI0
aI0
aI0
aI0
aI0
aF0.23000000000000001
assV\u519b\u68cb
p41
(dp42
g34
(lp43
I0
aI0
aI0
aI0
aI0
aI0
aF0.20000000000000001
assV[360\u624b\u673a\u52a9\u624b]
p44
(dp45
g34
(lp46
I0
aI0
aI0
aI0
aI0
aI0
aF0.88
asssg11
(dp47
VQQ
p48
(dp49
g34
(lp50
I0
aI0
aI0
aI0
aI0
aI0
aF0.76000000000000001
assV\u5fae\u4fe1
p51
(dp52
g34
(lp53
I0
aI0
aI0
aI0
aI0
aI0
aF0.089999999999999997
assV[\u56fd\u9645\u65af\u8bfa\u514b]
p54
(dp55
g34
(lp56
I0
aI0
aI0
aI0
aI0
aI0
aF0.23000000000000001
assV\u519b\u68cb
p57
(dp58
g34
(lp59
I0
aI0
aI0
aI0
aI0
aI0
aF0.40999999999999998
assV\u9177\u72d7\u97f3\u4e50
p60
(dp61
g34
(lp62
I0
aI0
aI0
aI0
aI0
aI0
aF0.84999999999999998
assV[360\u624b\u673a\u52a9\u624b]
p63
(dp64
g34
(lp65
I0
aI0
aI0
aI0
aI0
aI0
aF0.88
asssg13
(dp66
V[360\u536b\u58eb]
p67
(dp68
g34
(lp69
I0
aI0
aI0
aI0
aI0
aI0
aF0.81999999999999995
asssg15
(dp70
VQQ
p71
(dp72
g34
(lp73
I0
aI0
aI0
aI0
aI0
aI0
aF0.84999999999999998
asssg17
(dp74
sg19
(dp75
g17
(dp76
g34
(lp77
I0
aI0
aI0
aI0
aI0
aI0
aF0.56000000000000005
asssg21
(dp78
VQQ
p79
(dp80
g34
(lp81
I0
aI0
aI0
aI0
aI0
aI0
aF0.5
assV\u5fae\u4fe1
p82
(dp83
g34
(lp84
I0
aI0
aI0
aI0
aI0
aI0
aF0.28999999999999998
assV[360\u536b\u58eb]
p85
(dp86
g34
(lp87
I0
aI0
aI0
aI0
aI0
aI0
aF0.12
assV[360\u624b\u673a\u52a9\u624b]
p88
(dp89
g34
(lp90
I0
aI0
aI0
aI0
aI0
aI0
aF0.72999999999999998
assV[\u56fd\u9645\u65af\u8bfa\u514b]
p91
(dp92
g34
(lp93
I0
aI0
aI0
aI0
aI0
aI0
aF-1.1100000000000001
asssg23
(dp94
VQQ
p95
(dp96
g34
(lp97
I0
aI0
aI0
aI0
aI0
aI0
aF0.12
assg57
(dp98
g34
(lp99
I0
aI0
aI0
aI0
aI0
aI0
aF-0.56000000000000005
assV[360\u536b\u58eb]
p100
(dp101
g34
(lp102
I0
aI0
aI0
aI0
aI0
aI0
aF-0.089999999999999997
assV[\u56fd\u9645\u65af\u8bfa\u514b]
p103
(dp104
g34
(lp105
I0
aI0
aI0
aI0
aI0
aI0
aF-2.54
asssg25
(dp106
VQQ
p107
(dp108
g34
(lp109
I0
aI0
aI0
aI0
aI0
aI0
aF0.44
assg17
(dp110
g34
(lp111
I0
aI0
aI0
aI0
aI0
aI0
aF0.79000000000000004
assssS'edge'
p112
g30
sS'pred'
p113
(dp114
g8
(dp115
g21
g80
sV\u9177\u72d7\u97f3\u4e50
p116
g96
sV[360\u536b\u58eb]
p117
g49
sg15
g72
sV[360\u624b\u673a\u52a9\u624b]
p118
g108
ssg11
(dp119
VQQ
p120
g33
sg13
g68
sg116
g101
sV\u519b\u68cb
p121
g86
ssg13
(dp122
VQQ
p123
g36
sV\u519b\u68cb
p124
g83
sV[360\u536b\u58eb]
p125
g52
ssg15
(dp126
sg17
(dp127
V[\u56fd\u9645\u65af\u8bfa\u514b]
p128
g76
sV[360\u624b\u673a\u52a9\u624b]
p129
g110
ssg19
(dp130
VQQ
p131
g39
sg57
g92
sg116
g104
sV[360\u536b\u58eb]
p132
g55
ssg21
(dp133
VQQ
p134
g42
sg116
g98
sV[360\u536b\u58eb]
p135
g58
ssg23
(dp136
V[360\u536b\u58eb]
p137
g61
ssg25
(dp138
g8
g45
sV\u519b\u68cb
p139
g89
sV[360\u536b\u58eb]
p140
g64
sssS'adj'
p141
g30
sb.