ccopy_reg
_reconstructor
p1
(cnetworkx.classes.graph
Graph
p2
c__builtin__
object
p3
NtRp4
(dp5
S'node'
p6
(dp7
V\u652f\u4ed8\u5b9d\u94b1\u5305
p8
(dp9
sVUC\u6d4f\u89c8\u5668
p10
(dp11
sV[\u5b89\u533b\u751f]
p12
(dp13
sVMusic.apk
p14
(dp15
sV\u6dd8\u5b9d
p16
(dp17
sVWPS Office
p18
(dp19
sV[ToolBox]
p20
(dp21
sV\u5c0f\u7c73\u684c\u9762
p22
(dp23
sVPhoto.apk
p24
(dp25
sVCalendar.apk
p26
(dp27
sVRoot Explorer
p28
(dp29
sVContacts.apk
p30
(dp31
sV[\u534e\u4e3a\u684c\u9762]
p32
(dp33
sV360\u624b\u673a\u536b\u58eb MTK6573\u53cc\u5361\u7248
p34
(dp35
sVFileManager.apk
p36
(dp37
sV[\u60c5\u666f\u6a21\u5f0f]
p38
(dp39
sVClock.apk
p40
(dp41
sVMms.apk
p42
(dp43
sVPackageInstaller.apk
p44
(dp45
sVPhone.apk
p46
(dp47
sV\u5fae\u4fe1
p48
(dp49
sVQQ\u56fd\u9645\u7248
p50
(dp51
sV\u7f51\u6613\u4e91\u97f3\u4e50
p52
(dp53
sVSettings.apk
p54
(dp55
ssS'graph'
p56
(dp57
sS'edge'
p58
(dp59
g8
(dp60
V[ToolBox]
p61
(dp62
S'weights'
p63
(lp64
I0
aI0
aI0
aI0
aI0
aI0
aI1
assg34
(dp65
g63
(lp66
I0
aI0
aI0
aI0
aI0
aI0
aI1
assV\u5c0f\u7c73\u684c\u9762
p67
(dp68
g63
(lp69
I0
aI0
aI0
aI0
aI0
aI0
aI13
assg10
(dp70
g63
(lp71
I0
aI0
aI0
aI0
aI0
aI0
aI9
assg26
(dp72
g63
(lp73
I0
aI0
aI0
aI0
aI0
aI0
aI1
assVRoot Explorer
p74
(dp75
g63
(lp76
I0
aI0
aI0
aI0
aI0
aI0
aI2
assV\u5fae\u4fe1
p77
(dp78
g63
(lp79
I0
aI0
aI0
aI0
aI0
aI0
aI13
assV[\u5b89\u533b\u751f]
p80
(dp81
g63
(lp82
I0
aI0
aI0
aI0
aI0
aI0
aI2
assg50
(dp83
g63
(lp84
I0
aI0
aI0
aI0
aI0
aI0
aI13
assg40
(dp85
g63
(lp86
I0
aI0
aI0
aI0
aI0
aI0
aI5
assg52
(dp87
g63
(lp88
I0
aI0
aI0
aI0
aI0
aI0
aI3
assg42
(dp89
g63
(lp90
I0
aI0
aI0
aI0
aI0
aI0
aI2
assg16
(dp91
g63
(lp92
I0
aI0
aI0
aI0
aI0
aI0
aI1
assg36
(dp93
g63
(lp94
I0
aI0
aI0
aI0
aI0
aI0
aI1
assg44
(dp95
g63
(lp96
I0
aI0
aI0
aI0
aI0
aI0
aI1
assg46
(dp97
g63
(lp98
I0
aI0
aI0
aI0
aI0
aI0
aI3
assg24
(dp99
g63
(lp100
I0
aI0
aI0
aI0
aI0
aI0
aI3
asssg10
(dp101
V[ToolBox]
p102
(dp103
g63
(lp104
I0
aI0
aI0
aI0
aI0
aI0
aI1
assg34
(dp105
g63
(lp106
I0
aI0
aI0
aI0
aI0
aI0
aI1
assg67
(dp107
g63
(lp108
I0
aI0
aI0
aI0
aI0
aI0
aI25
assg8
g70
sg26
(dp109
g63
(lp110
I0
aI0
aI0
aI0
aI0
aI0
aI1
assg74
(dp111
g63
(lp112
I0
aI0
aI0
aI0
aI0
aI0
aI3
assg77
(dp113
g63
(lp114
I0
aI0
aI0
aI0
aI0
aI0
aI24
assV[\u5b89\u533b\u751f]
p115
(dp116
g63
(lp117
I0
aI0
aI0
aI0
aI0
aI0
aI2
assg50
(dp118
g63
(lp119
I0
aI0
aI0
aI0
aI0
aI0
aI23
assg40
(dp120
g63
(lp121
I0
aI0
aI0
aI0
aI0
aI0
aI6
assg52
(dp122
g63
(lp123
I0
aI0
aI0
aI0
aI0
aI0
aI11
assg42
(dp124
g63
(lp125
I0
aI0
aI0
aI0
aI0
aI0
aI2
assg16
(dp126
g63
(lp127
I0
aI0
aI0
aI0
aI0
aI0
aI1
assg36
(dp128
g63
(lp129
I0
aI0
aI0
aI0
aI0
aI0
aI1
assg44
(dp130
g63
(lp131
I0
aI0
aI0
aI0
aI0
aI0
aI2
assg46
(dp132
g63
(lp133
I0
aI0
aI0
aI0
aI0
aI0
aI5
assg24
(dp134
g63
(lp135
I0
aI0
aI0
aI0
aI0
aI0
aI4
asssg12
(dp136
g34
(dp137
g63
(lp138
I0
aI0
aI0
aI0
aI0
aI0
aI1
assV\u5c0f\u7c73\u684c\u9762
p139
(dp140
g63
(lp141
I0
aI0
aI0
aI0
aI0
aI0
aI2
assV\u652f\u4ed8\u5b9d\u94b1\u5305
p142
g81
sVUC\u6d4f\u89c8\u5668
p143
g116
sV\u5fae\u4fe1
p144
(dp145
g63
(lp146
I0
aI0
aI0
aI0
aI0
aI0
aI2
assg50
(dp147
g63
(lp148
I0
aI0
aI0
aI0
aI0
aI0
aI2
assg44
(dp149
g63
(lp150
I0
aI0
aI0
aI0
aI0
aI0
aI1
assg24
(dp151
g63
(lp152
I0
aI0
aI0
aI0
aI0
aI0
aI1
asssg14
(dp153
V[\u534e\u4e3a\u684c\u9762]
p154
(dp155
g63
(lp156
I0
aI0
aI0
aI0
aI0
aI0
aI1
assV\u5c0f\u7c73\u684c\u9762
p157
(dp158
g63
(lp159
I0
aI0
aI0
aI0
aI0
aI0
aI1
assg24
(dp160
g63
(lp161
I0
aI0
aI0
aI0
aI0
aI0
aI1
assV\u5fae\u4fe1
p162
(dp163
g63
(lp164
I0
aI0
aI0
aI0
aI0
aI0
aI1
assV[\u60c5\u666f\u6a21\u5f0f]
p165
(dp166
g63
(lp167
I0
aI0
aI0
aI0
aI0
aI0
aI1
assg50
(dp168
g63
(lp169
I0
aI0
aI0
aI0
aI0
aI0
aI1
assg46
(dp170
g63
(lp171
I0
aI0
aI0
aI0
aI0
aI0
aI1
assg54
(dp172
g63
(lp173
I0
aI0
aI0
aI0
aI0
aI0
aI1
asssg16
(dp174
V[ToolBox]
p175
(dp176
g63
(lp177
I0
aI0
aI0
aI0
aI0
aI0
aI1
assV\u5c0f\u7c73\u684c\u9762
p178
(dp179
g63
(lp180
I0
aI0
aI0
aI0
aI0
aI0
aI1
assV\u652f\u4ed8\u5b9d\u94b1\u5305
p181
g91
sVUC\u6d4f\u89c8\u5668
p182
g126
sVRoot Explorer
p183
(dp184
g63
(lp185
I0
aI0
aI0
aI0
aI0
aI0
aI1
assV\u5fae\u4fe1
p186
(dp187
g63
(lp188
I0
aI0
aI0
aI0
aI0
aI0
aI1
assg50
(dp189
g63
(lp190
I0
aI0
aI0
aI0
aI0
aI0
aI1
assg40
(dp191
g63
(lp192
I0
aI0
aI0
aI0
aI0
aI0
aI1
assV\u7f51\u6613\u4e91\u97f3\u4e50
p193
(dp194
g63
(lp195
I0
aI0
aI0
aI0
aI0
aI0
aI1
assg42
(dp196
g63
(lp197
I0
aI0
aI0
aI0
aI0
aI0
aI1
assg46
(dp198
g63
(lp199
I0
aI0
aI0
aI0
aI0
aI0
aI1
assg24
(dp200
g63
(lp201
I0
aI0
aI0
aI0
aI0
aI0
aI1
asssg18
(dp202
VRoot Explorer
p203
(dp204
g63
(lp205
I0
aI0
aI0
aI0
aI0
aI0
aI1
assg50
(dp206
g63
(lp207
I0
aI0
aI0
aI0
aI0
aI0
aI1
assV\u5c0f\u7c73\u684c\u9762
p208
(dp209
g63
(lp210
I0
aI0
aI0
aI0
aI0
aI0
aI1
assV\u5fae\u4fe1
p211
(dp212
g63
(lp213
I0
aI0
aI0
aI0
aI0
aI0
aI1
asssg20
(dp214
g22
(dp215
g63
(lp216
I0
aI0
aI0
aI0
aI0
aI0
aI3
assg181
g62
sg182
g103
sg28
(dp217
g63
(lp218
I0
aI0
aI0
aI0
aI0
aI0
aI2
assg48
(dp219
g63
(lp220
I0
aI0
aI0
aI0
aI0
aI0
aI3
assg50
(dp221
g63
(lp222
I0
aI0
aI0
aI0
aI0
aI0
aI3
assg40
(dp223
g63
(lp224
I0
aI0
aI0
aI0
aI0
aI0
aI2
assg193
(dp225
g63
(lp226
I0
aI0
aI0
aI0
aI0
aI0
aI1
assg42
(dp227
g63
(lp228
I0
aI0
aI0
aI0
aI0
aI0
aI2
assg16
g176
sg46
(dp229
g63
(lp230
I0
aI0
aI0
aI0
aI0
aI0
aI1
assg24
(dp231
g63
(lp232
I0
aI0
aI0
aI0
aI0
aI0
aI1
asssg22
(dp233
g8
g68
sg10
g107
sV[\u5b89\u533b\u751f]
p234
g140
sg14
g158
sg16
g179
sg18
g209
sV[ToolBox]
p235
g215
sg24
(dp236
g63
(lp237
I0
aI0
aI0
aI0
aI0
aI0
aI8
assg26
(dp238
g63
(lp239
I0
aI0
aI0
aI0
aI0
aI0
aI1
assg28
(dp240
g63
(lp241
I0
aI0
aI0
aI0
aI0
aI0
aI5
assg30
(dp242
g63
(lp243
I0
aI0
aI0
aI0
aI0
aI0
aI1
assV[\u534e\u4e3a\u684c\u9762]
p244
(dp245
g63
(lp246
I0
aI0
aI0
aI0
aI0
aI0
aI1
assg34
(dp247
g63
(lp248
I0
aI0
aI0
aI0
aI0
aI0
aI1
assg36
(dp249
g63
(lp250
I0
aI0
aI0
aI0
aI0
aI0
aI1
assV[\u60c5\u666f\u6a21\u5f0f]
p251
(dp252
g63
(lp253
I0
aI0
aI0
aI0
aI0
aI0
aI1
assg40
(dp254
g63
(lp255
I0
aI0
aI0
aI0
aI0
aI0
aI16
assg42
(dp256
g63
(lp257
I0
aI0
aI0
aI0
aI0
aI0
aI4
assg44
(dp258
g63
(lp259
I0
aI0
aI0
aI0
aI0
aI0
aI4
assg46
(dp260
g63
(lp261
I0
aI0
aI0
aI0
aI0
aI0
aI11
assg48
(dp262
g63
(lp263
I0
aI0
aI0
aI0
aI0
aI0
aI56
assg50
(dp264
g63
(lp265
I0
aI0
aI0
aI0
aI0
aI0
aI55
assg52
(dp266
g63
(lp267
I0
aI0
aI0
aI0
aI0
aI0
aI16
assg54
(dp268
g63
(lp269
I0
aI0
aI0
aI0
aI0
aI0
aI1
asssg24
(dp270
V[ToolBox]
p271
g231
sg34
(dp272
g63
(lp273
I0
aI0
aI0
aI0
aI0
aI0
aI1
assg178
g236
sg181
g99
sg182
g134
sg183
(dp274
g63
(lp275
I0
aI0
aI0
aI0
aI0
aI0
aI1
assg186
(dp276
g63
(lp277
I0
aI0
aI0
aI0
aI0
aI0
aI7
assV[\u5b89\u533b\u751f]
p278
g151
sV[\u534e\u4e3a\u684c\u9762]
p279
(dp280
g63
(lp281
I0
aI0
aI0
aI0
aI0
aI0
aI1
assV[\u60c5\u666f\u6a21\u5f0f]
p282
(dp283
g63
(lp284
I0
aI0
aI0
aI0
aI0
aI0
aI1
assg50
(dp285
g63
(lp286
I0
aI0
aI0
aI0
aI0
aI0
aI8
assg40
(dp287
g63
(lp288
I0
aI0
aI0
aI0
aI0
aI0
aI3
assg14
g160
sg193
(dp289
g63
(lp290
I0
aI0
aI0
aI0
aI0
aI0
aI3
assg42
(dp291
g63
(lp292
I0
aI0
aI0
aI0
aI0
aI0
aI1
assg16
g200
sg36
(dp293
g63
(lp294
I0
aI0
aI0
aI0
aI0
aI0
aI1
assg44
(dp295
g63
(lp296
I0
aI0
aI0
aI0
aI0
aI0
aI1
assg46
(dp297
g63
(lp298
I0
aI0
aI0
aI0
aI0
aI0
aI3
assg54
(dp299
g63
(lp300
I0
aI0
aI0
aI0
aI0
aI0
aI1
asssg26
(dp301
g67
g238
sg8
g72
sg10
g109
sg74
(dp302
g63
(lp303
I0
aI0
aI0
aI0
aI0
aI0
aI1
assg77
(dp304
g63
(lp305
I0
aI0
aI0
aI0
aI0
aI0
aI1
assg50
(dp306
g63
(lp307
I0
aI0
aI0
aI0
aI0
aI0
aI1
assg40
(dp308
g63
(lp309
I0
aI0
aI0
aI0
aI0
aI0
aI1
assg52
(dp310
g63
(lp311
I0
aI0
aI0
aI0
aI0
aI0
aI1
asssg28
(dp312
V[ToolBox]
p313
g217
sg22
g240
sg8
g75
sg10
g111
sg48
(dp314
g63
(lp315
I0
aI0
aI0
aI0
aI0
aI0
aI5
assg40
(dp316
g63
(lp317
I0
aI0
aI0
aI0
aI0
aI0
aI3
assg50
(dp318
g63
(lp319
I0
aI0
aI0
aI0
aI0
aI0
aI5
assg26
g302
sg52
(dp320
g63
(lp321
I0
aI0
aI0
aI0
aI0
aI0
aI3
assg42
(dp322
g63
(lp323
I0
aI0
aI0
aI0
aI0
aI0
aI2
assg16
g184
sg46
(dp324
g63
(lp325
I0
aI0
aI0
aI0
aI0
aI0
aI1
assg18
g204
sg24
g274
ssg30
(dp326
V\u5c0f\u7c73\u684c\u9762
p327
g242
sg46
(dp328
g63
(lp329
I0
aI0
aI0
aI0
aI0
aI0
aI1
asssg32
(dp330
g157
g245
sg24
g280
sg162
(dp331
g63
(lp332
I0
aI0
aI0
aI0
aI0
aI0
aI1
assV[\u60c5\u666f\u6a21\u5f0f]
p333
(dp334
g63
(lp335
I0
aI0
aI0
aI0
aI0
aI0
aI1
assg50
(dp336
g63
(lp337
I0
aI0
aI0
aI0
aI0
aI0
aI1
assg14
g155
sg46
(dp338
g63
(lp339
I0
aI0
aI0
aI0
aI0
aI0
aI1
assg54
(dp340
g63
(lp341
I0
aI0
aI0
aI0
aI0
aI0
aI1
asssg34
(dp342
g139
g247
sg142
g65
sg143
g105
sg144
(dp343
g63
(lp344
I0
aI0
aI0
aI0
aI0
aI0
aI1
assV[\u5b89\u533b\u751f]
p345
g137
sg50
(dp346
g63
(lp347
I0
aI0
aI0
aI0
aI0
aI0
aI1
assg24
g272
ssg36
(dp348
V\u5c0f\u7c73\u684c\u9762
p349
g249
sV\u652f\u4ed8\u5b9d\u94b1\u5305
p350
g93
sVUC\u6d4f\u89c8\u5668
p351
g128
sV\u5fae\u4fe1
p352
(dp353
g63
(lp354
I0
aI0
aI0
aI0
aI0
aI0
aI1
assg50
(dp355
g63
(lp356
I0
aI0
aI0
aI0
aI0
aI0
aI1
assg24
g293
ssg38
(dp357
V[\u534e\u4e3a\u684c\u9762]
p358
g334
sg157
g252
sg24
g283
sg162
(dp359
g63
(lp360
I0
aI0
aI0
aI0
aI0
aI0
aI1
assg50
(dp361
g63
(lp362
I0
aI0
aI0
aI0
aI0
aI0
aI1
assg14
g166
sg46
(dp363
g63
(lp364
I0
aI0
aI0
aI0
aI0
aI0
aI1
assg54
(dp365
g63
(lp366
I0
aI0
aI0
aI0
aI0
aI0
aI1
asssg40
(dp367
V[ToolBox]
p368
g223
sV\u5c0f\u7c73\u684c\u9762
p369
g254
sg8
g85
sg10
g120
sg74
g316
sV\u5fae\u4fe1
p370
(dp371
g63
(lp372
I0
aI0
aI0
aI0
aI0
aI0
aI13
assg50
(dp373
g63
(lp374
I0
aI0
aI0
aI0
aI0
aI0
aI13
assg26
g308
sg52
(dp375
g63
(lp376
I0
aI0
aI0
aI0
aI0
aI0
aI7
assg42
(dp377
g63
(lp378
I0
aI0
aI0
aI0
aI0
aI0
aI1
assg16
g191
sg44
(dp379
g63
(lp380
I0
aI0
aI0
aI0
aI0
aI0
aI2
assg46
(dp381
g63
(lp382
I0
aI0
aI0
aI0
aI0
aI0
aI2
assg24
g287
ssg42
(dp383
V[ToolBox]
p384
g227
sg22
g256
sg181
g89
sg182
g124
sg28
g322
sg48
(dp385
g63
(lp386
I0
aI0
aI0
aI0
aI0
aI0
aI4
assg50
(dp387
g63
(lp388
I0
aI0
aI0
aI0
aI0
aI0
aI4
assg40
g377
sg193
(dp389
g63
(lp390
I0
aI0
aI0
aI0
aI0
aI0
aI2
assg16
g196
sg46
(dp391
g63
(lp392
I0
aI0
aI0
aI0
aI0
aI0
aI2
assg24
g291
ssg44
(dp393
V\u5c0f\u7c73\u684c\u9762
p394
g258
sg24
g295
sVUC\u6d4f\u89c8\u5668
p395
g130
sV\u5fae\u4fe1
p396
(dp397
g63
(lp398
I0
aI0
aI0
aI0
aI0
aI0
aI3
assV[\u5b89\u533b\u751f]
p399
g149
sg50
(dp400
g63
(lp401
I0
aI0
aI0
aI0
aI0
aI0
aI4
assg40
g379
sV\u7f51\u6613\u4e91\u97f3\u4e50
p402
(dp403
g63
(lp404
I0
aI0
aI0
aI0
aI0
aI0
aI1
assV\u652f\u4ed8\u5b9d\u94b1\u5305
p405
g95
ssg46
(dp406
V[ToolBox]
p407
g229
sV[\u534e\u4e3a\u684c\u9762]
p408
g338
sg178
g260
sg181
g97
sg182
g132
sg183
g324
sg186
(dp409
g63
(lp410
I0
aI0
aI0
aI0
aI0
aI0
aI10
assg54
(dp411
g63
(lp412
I0
aI0
aI0
aI0
aI0
aI0
aI1
assV[\u60c5\u666f\u6a21\u5f0f]
p413
g363
sg50
(dp414
g63
(lp415
I0
aI0
aI0
aI0
aI0
aI0
aI9
assg40
g381
sg14
g170
sg193
(dp416
g63
(lp417
I0
aI0
aI0
aI0
aI0
aI0
aI4
assg42
g391
sg16
g198
sg30
g328
sg24
g297
ssg48
(dp418
g8
g78
sg10
g113
sV[\u5b89\u533b\u751f]
p419
g145
sg14
g163
sg16
g187
sg18
g212
sV[ToolBox]
p420
g219
sg22
g262
sg24
g276
sg26
g304
sg28
g314
sV[\u534e\u4e3a\u684c\u9762]
p421
g331
sg34
g343
sg36
g353
sV[\u60c5\u666f\u6a21\u5f0f]
p422
g359
sg40
g371
sg42
g385
sg44
g397
sg46
g409
sg50
(dp423
g63
(lp424
I0
aI0
aI0
aI0
aI0
aI0
aI52
assg52
(dp425
g63
(lp426
I0
aI0
aI0
aI0
aI0
aI0
aI14
assg54
(dp427
g63
(lp428
I0
aI0
aI0
aI0
aI0
aI0
aI1
asssg50
(dp429
g8
g83
sg10
g118
sV[\u5b89\u533b\u751f]
p430
g147
sg14
g168
sg16
g189
sg18
g206
sV[ToolBox]
p431
g221
sg22
g264
sg24
g285
sg26
g306
sg28
g318
sV[\u534e\u4e3a\u684c\u9762]
p432
g336
sg34
g346
sg36
g355
sV[\u60c5\u666f\u6a21\u5f0f]
p433
g361
sg40
g373
sg42
g387
sg44
g400
sg46
g414
sg48
g423
sg52
(dp434
g63
(lp435
I0
aI0
aI0
aI0
aI0
aI0
aI14
assg54
(dp436
g63
(lp437
I0
aI0
aI0
aI0
aI0
aI0
aI1
asssg52
(dp438
V[ToolBox]
p439
g225
sg10
g122
sg67
g266
sg8
g87
sg26
g310
sg74
g320
sg77
g425
sg50
g434
sg40
g375
sg42
g389
sg16
g194
sg44
g403
sg46
g416
sg24
g289
ssg54
(dp440
V[\u534e\u4e3a\u684c\u9762]
p441
g340
sg157
g268
sg24
g299
sg162
g427
sV[\u60c5\u666f\u6a21\u5f0f]
p442
g365
sg50
g436
sg14
g172
sg46
g411
sssS'adj'
p443
g59
sb.