ccopy_reg
_reconstructor
p1
(cnetworkx.classes.digraph
DiGraph
p2
c__builtin__
object
p3
NtRp4
(dp5
S'node'
p6
(dp7
VQQ
p8
(dp9
S'weight'
p10
F0.41999999999999998
ssV[Sudoku Deluxe HD]
p11
(dp12
g10
F0
ssV\u6709\u9053\u8bcd\u5178
p13
(dp14
g10
F0.10000000000000001
ssV[iReader\u8bfb\u4e66]
p15
(dp16
g10
F0.23000000000000001
ssV[My boy!]
p17
(dp18
g10
F0.10000000000000001
ssV[\u8fbe\u7b54]
p19
(dp20
g10
F0.040000000000000001
ssVQQ\u6d4f\u89c8\u5668
p21
(dp22
g10
F0.11
sssS'graph'
p23
(dp24
sS'succ'
p25
(dp26
g8
(dp27
V[My boy!]
p28
(dp29
S'weights'
p30
(lp31
I0
aI0
aI0
aI0
aI0
aI0
aF0.66944199633389123
assVQQ\u6d4f\u89c8\u5668
p32
(dp33
g30
(lp34
I0
aI0
aI0
aI0
aI0
aI0
aF0.63114486372616574
assV[\u8fbe\u7b54]
p35
(dp36
g30
(lp37
I0
aI0
aI0
aI0
aI0
aI0
aF0.50302662358458927
assV\u6709\u9053\u8bcd\u5178
p38
(dp39
g30
(lp40
I0
aI0
aI0
aI0
aI0
aI0
aF0.62157874061581453
assV[iReader\u8bfb\u4e66]
p41
(dp42
g30
(lp43
I0
aI0
aI0
aI0
aI0
aI0
aF1
asssg11
(dp44
VQQ
p45
(dp46
g30
(lp47
I0
aI0
aI0
aI0
aI0
aI0
aF0.24308928433244958
assV\u6709\u9053\u8bcd\u5178
p48
(dp49
g30
(lp50
I0
aI0
aI0
aI0
aI0
aI0
aF0.031124393511047475
asssg13
(dp51
V[My boy!]
p52
(dp53
g30
(lp54
I0
aI0
aI0
aI0
aI0
aI0
aF0.29406540930970915
assVQQ
p55
(dp56
g30
(lp57
I0
aI0
aI0
aI0
aI0
aI0
aF0.52420072547164243
assV[\u8fbe\u7b54]
p58
(dp59
g30
(lp60
I0
aI0
aI0
aI0
aI0
aI0
aF0.18360834000053858
assVQQ\u6d4f\u89c8\u5668
p61
(dp62
g30
(lp63
I0
aI0
aI0
aI0
aI0
aI0
aF0.51456462870677633
assV[iReader\u8bfb\u4e66]
p64
(dp65
g30
(lp66
I0
aI0
aI0
aI0
aI0
aI0
aF0.42079880256359009
asssg15
(dp67
VQQ
p68
(dp69
g30
(lp70
I0
aI0
aI0
aI0
aI0
aI0
aF0.67174533000751924
assV[My boy!]
p71
(dp72
g30
(lp73
I0
aI0
aI0
aI0
aI0
aI0
aF0.39438831014114356
assV[\u8fbe\u7b54]
p74
(dp75
g30
(lp76
I0
aI0
aI0
aI0
aI0
aI0
aF0.37775730667276469
assV\u6709\u9053\u8bcd\u5178
p77
(dp78
g30
(lp79
I0
aI0
aI0
aI0
aI0
aI0
aF0.2950414170616576
assg61
(dp80
g30
(lp81
I0
aI0
aI0
aI0
aI0
aI0
aF0.29736594055015514
asssg17
(dp82
VQQ
p83
(dp84
g30
(lp85
I0
aI0
aI0
aI0
aI0
aI0
aF0.42887749729826696
assVQQ\u6d4f\u89c8\u5668
p86
(dp87
g30
(lp88
I0
aI0
aI0
aI0
aI0
aI0
aF0.3211848381028003
assV[iReader\u8bfb\u4e66]
p89
(dp90
g30
(lp91
I0
aI0
aI0
aI0
aI0
aI0
aF0.36009771213989272
asssg19
(dp92
VQQ
p93
(dp94
g30
(lp95
I0
aI0
aI0
aI0
aI0
aI0
aF0.40079966833159608
assV[My boy!]
p96
(dp97
g30
(lp98
I0
aI0
aI0
aI0
aI0
aI0
aF0.15565257034155794
assV\u6709\u9053\u8bcd\u5178
p99
(dp100
g30
(lp101
I0
aI0
aI0
aI0
aI0
aI0
aF0.20511298978660214
assg32
(dp102
g30
(lp103
I0
aI0
aI0
aI0
aI0
aI0
aF0.40626969842166305
assV[iReader\u8bfb\u4e66]
p104
(dp105
g30
(lp106
I0
aI0
aI0
aI0
aI0
aI0
aF0.27411074782294048
asssg21
(dp107
g93
(dp108
g30
(lp109
I0
aI0
aI0
aI0
aI0
aI0
aF0.57304680843485367
assV[My boy!]
p110
(dp111
g30
(lp112
I0
aI0
aI0
aI0
aI0
aI0
aF0.52025198589840504
assV[\u8fbe\u7b54]
p113
(dp114
g30
(lp115
I0
aI0
aI0
aI0
aI0
aI0
aF0.33894590487627169
assV[iReader\u8bfb\u4e66]
p116
(dp117
g30
(lp118
I0
aI0
aI0
aI0
aI0
aI0
aF0.35219538776374065
assssS'edge'
p119
g26
sS'pred'
p120
(dp121
g8
(dp122
V[Sudoku Deluxe HD]
p123
g46
sV\u6709\u9053\u8bcd\u5178
p124
g56
sV[iReader\u8bfb\u4e66]
p125
g69
sV[My boy!]
p126
g84
sV[\u8fbe\u7b54]
p127
g94
sg32
g108
ssg11
(dp128
sg13
(dp129
VQQ
p130
g39
sV[Sudoku Deluxe HD]
p131
g49
sV[iReader\u8bfb\u4e66]
p132
g78
sV[\u8fbe\u7b54]
p133
g100
ssg15
(dp134
g8
g42
sV[My boy!]
p135
g90
sV[\u8fbe\u7b54]
p136
g105
sV\u6709\u9053\u8bcd\u5178
p137
g65
sg32
g117
ssg17
(dp138
g8
g29
sg32
g111
sV[\u8fbe\u7b54]
p139
g97
sg13
g53
sV[iReader\u8bfb\u4e66]
p140
g72
ssg19
(dp141
VQQ
p142
g36
sV[iReader\u8bfb\u4e66]
p143
g75
sg137
g59
sVQQ\u6d4f\u89c8\u5668
p144
g114
ssg21
(dp145
V[My boy!]
p146
g87
sVQQ
p147
g33
sV[\u8fbe\u7b54]
p148
g102
sg77
g62
sV[iReader\u8bfb\u4e66]
p149
g80
sssS'adj'
p150
g26
sb.