ccopy_reg
_reconstructor
p1
(cnetworkx.classes.digraph
DiGraph
p2
c__builtin__
object
p3
NtRp4
(dp5
S'node'
p6
(dp7
VQQ
p8
(dp9
S'weight'
p10
F0.39000000000000001
ssV\u5fae\u4fe1
p11
(dp12
g10
F0.44
ssV[\u6f0f\u6d1e\u4fee\u590d]
p13
(dp14
g10
F0.11
ssVNotice.apk
p15
(dp16
g10
F0.040000000000000001
ssV[\u767e\u5ea6\u624b\u673a\u52a9\u624b]
p17
(dp18
g10
F0.01
sssS'graph'
p19
(dp20
sS'succ'
p21
(dp22
g8
(dp23
V\u5fae\u4fe1
p24
(dp25
S'weights'
p26
(lp27
I0
aI0
aI0
aI0
aI0
aI0
aF1
assV[\u6f0f\u6d1e\u4fee\u590d]
p28
(dp29
g26
(lp30
I0
aI0
aI0
aI0
aI0
aI0
aF0.93000000000000005
asssg11
(dp31
VQQ
p32
(dp33
g26
(lp34
I0
aI0
aI0
aI0
aI0
aI0
aF0.55000000000000004
asssg13
(dp35
VQQ
p36
(dp37
g26
(lp38
I0
aI0
aI0
aI0
aI0
aI0
aF1.03
assV\u5fae\u4fe1
p39
(dp40
g26
(lp41
I0
aI0
aI0
aI0
aI0
aI0
aF0.34000000000000002
asssg15
(dp42
VQQ
p43
(dp44
g26
(lp45
I0
aI0
aI0
aI0
aI0
aI0
aF1.03
assV[\u6f0f\u6d1e\u4fee\u590d]
p46
(dp47
g26
(lp48
I0
aI0
aI0
aI0
aI0
aI0
aF1.03
asssg17
(dp49
ssS'edge'
p50
g22
sS'pred'
p51
(dp52
g8
(dp53
V\u5fae\u4fe1
p54
g33
sV[\u6f0f\u6d1e\u4fee\u590d]
p55
g37
sg15
g44
ssg11
(dp56
g8
g25
sV[\u6f0f\u6d1e\u4fee\u590d]
p57
g40
ssg13
(dp58
VQQ
p59
g29
sg15
g47
ssg15
(dp60
sg17
(dp61
ssS'adj'
p62
g22
sb.