ccopy_reg
_reconstructor
p1
(cnetworkx.classes.graph
Graph
p2
c__builtin__
object
p3
NtRp4
(dp5
S'node'
p6
(dp7
V[\u673a\u5668\u4eba\u5c0f\u961f]
p8
(dp9
sV\u652f\u4ed8\u5b9d\u94b1\u5305
p10
(dp11
sVUC\u6d4f\u89c8\u5668
p12
(dp13
sV\u7f8e\u56e2\u56e2\u8d2d
p14
(dp15
sV[\u5f00\u62d3\u91d1\u5b57\u5854\u738b\u56fd]
p16
(dp17
sV[\u53f2\u83b1\u59c6\u7684\u91ce\u671b]
p18
(dp19
sV[Sensor Log]
p20
(dp21
sVQQ\u5b89\u5168\u4e2d\u5fc3
p22
(dp23
sV\u767e\u5ea6\u5730\u56fe
p24
(dp25
sV\u6dd8\u5b9d
p26
(dp27
sV[\u5929\u5929\u98ce\u4e4b\u65c5]
p28
(dp29
sV[\u997f\u4e86\u4e48]
p30
(dp31
sV\u5927\u4f17\u70b9\u8bc4
p32
(dp33
sVWPS Office
p34
(dp35
sV[SmartAir]
p36
(dp37
sV[\u5e94\u7528\u5b9d]
p38
(dp39
sV[OTTTD]
p40
(dp41
sV\u66b4\u98ce\u5f71\u97f3
p42
(dp43
sV[\u6bb5\u5b50\u624b]
p44
(dp45
sV\u8d85\u7ea7\u8bfe\u7a0b\u8868
p46
(dp47
sV[\u770b\u5ba2\u4e70\u7968]
p48
(dp49
sVQQ\u90ae\u7bb1
p50
(dp51
sV\u58a8\u8ff9\u5929\u6c14
p52
(dp53
sV[\u3061\u3087\u3068\u3061\u3087\u3068]
p54
(dp55
sV\u5feb\u7684\u6253\u8f66
p56
(dp57
sV[Unmechanical]
p58
(dp59
sVBrowser.apk
p60
(dp61
sV\u8001\u864e\u5730\u56fe
p62
(dp63
sV[\u52fe\u642d\u62db\u8058]
p64
(dp65
sV\u6709\u9053\u8bcd\u5178
p66
(dp67
sVFileManager.apk
p68
(dp69
sV[\u4fbf\u7b7e]
p70
(dp71
sV[\u7a7a\u6c14\u51c0\u5316\u5668]
p72
(dp73
sVGoogle Play services
p74
(dp75
sV\u641c\u72d7\u624b\u673a\u8f93\u5165\u6cd5
p76
(dp77
sV\u76f8\u673a
p78
(dp79
sVClock.apk
p80
(dp81
sVTowerDefense
p82
(dp83
sV[\u5fae\u4fe1\u7535\u8bdd\u672c]
p84
(dp85
sVPackageInstaller.apk
p86
(dp87
sVPhone.apk
p88
(dp89
sVQQ
p90
(dp91
sV[5253]
p92
(dp93
sV[\u6b22\u4e50\u897f\u6e38]
p94
(dp95
sV\u5fae\u4fe1
p96
(dp97
sV[\u5e94\u7528\u5546\u5e97]
p98
(dp99
sV\u767e\u5ea6\u4e91
p100
(dp101
sVSettings.apk
p102
(dp103
sV\u5e03\u5361\u6f2b\u753b
p104
(dp105
sV\u7535\u4fe1\u8425\u4e1a\u5385
p106
(dp107
ssS'graph'
p108
(dp109
sS'edge'
p110
(dp111
g8
(dp112
VQQ
p113
(dp114
S'weights'
p115
(lp116
I0
aI0
aI0
aI0
aI0
aI0
aI1
assV[5253]
p117
(dp118
g115
(lp119
I0
aI0
aI0
aI0
aI0
aI0
aI1
assg76
(dp120
g115
(lp121
I0
aI0
aI0
aI0
aI0
aI0
aI1
assVQQ\u5b89\u5168\u4e2d\u5fc3
p122
(dp123
g115
(lp124
I0
aI0
aI0
aI0
aI0
aI0
aI1
assg68
(dp125
g115
(lp126
I0
aI0
aI0
aI0
aI0
aI0
aI2
assg100
(dp127
g115
(lp128
I0
aI0
aI0
aI0
aI0
aI0
aI1
assV\u5fae\u4fe1
p129
(dp130
g115
(lp131
I0
aI0
aI0
aI0
aI0
aI0
aI1
assV[\u52fe\u642d\u62db\u8058]
p132
(dp133
g115
(lp134
I0
aI0
aI0
aI0
aI0
aI0
aI1
assV[\u3061\u3087\u3068\u3061\u3087\u3068]
p135
(dp136
g115
(lp137
I0
aI0
aI0
aI0
aI0
aI0
aI1
assg82
(dp138
g115
(lp139
I0
aI0
aI0
aI0
aI0
aI0
aI1
assV[\u5fae\u4fe1\u7535\u8bdd\u672c]
p140
(dp141
g115
(lp142
I0
aI0
aI0
aI0
aI0
aI0
aI2
assg102
(dp143
g115
(lp144
I0
aI0
aI0
aI0
aI0
aI0
aI1
assg86
(dp145
g115
(lp146
I0
aI0
aI0
aI0
aI0
aI0
aI1
assVWPS Office
p147
(dp148
g115
(lp149
I0
aI0
aI0
aI0
aI0
aI0
aI2
assg106
(dp150
g115
(lp151
I0
aI0
aI0
aI0
aI0
aI0
aI1
asssg10
(dp152
VQQ
p153
(dp154
g115
(lp155
I0
aI0
aI0
aI0
aI0
aI0
aI2
assV[\u5e94\u7528\u5b9d]
p156
(dp157
g115
(lp158
I0
aI0
aI0
aI0
aI0
aI0
aI1
assg68
(dp159
g115
(lp160
I0
aI0
aI0
aI0
aI0
aI0
aI1
assV\u8d85\u7ea7\u8bfe\u7a0b\u8868
p161
(dp162
g115
(lp163
I0
aI0
aI0
aI0
aI0
aI0
aI1
assV[\u5f00\u62d3\u91d1\u5b57\u5854\u738b\u56fd]
p164
(dp165
g115
(lp166
I0
aI0
aI0
aI0
aI0
aI0
aI1
assV\u5fae\u4fe1
p167
(dp168
g115
(lp169
I0
aI0
aI0
aI0
aI0
aI0
aI2
assg86
(dp170
g115
(lp171
I0
aI0
aI0
aI0
aI0
aI0
aI1
assV[OTTTD]
p172
(dp173
g115
(lp174
I0
aI0
aI0
aI0
aI0
aI0
aI1
assg82
(dp175
g115
(lp176
I0
aI0
aI0
aI0
aI0
aI0
aI1
assV[\u5fae\u4fe1\u7535\u8bdd\u672c]
p177
(dp178
g115
(lp179
I0
aI0
aI0
aI0
aI0
aI0
aI2
assV[Unmechanical]
p180
(dp181
g115
(lp182
I0
aI0
aI0
aI0
aI0
aI0
aI1
assg60
(dp183
g115
(lp184
I0
aI0
aI0
aI0
aI0
aI0
aI1
assV[\u997f\u4e86\u4e48]
p185
(dp186
g115
(lp187
I0
aI0
aI0
aI0
aI0
aI0
aI1
assg102
(dp188
g115
(lp189
I0
aI0
aI0
aI0
aI0
aI0
aI1
asssg12
(dp190
V\u5e03\u5361\u6f2b\u753b
p191
(dp192
g115
(lp193
I0
aI0
aI0
aI0
aI0
aI0
aI1
assg74
(dp194
g115
(lp195
I0
aI0
aI0
aI0
aI0
aI0
aI1
assV[\u53f2\u83b1\u59c6\u7684\u91ce\u671b]
p196
(dp197
g115
(lp198
I0
aI0
aI0
aI0
aI0
aI0
aI1
assg24
(dp199
g115
(lp200
I0
aI0
aI0
aI0
aI0
aI0
aI1
assg26
(dp201
g115
(lp202
I0
aI0
aI0
aI0
aI0
aI0
aI1
assV[\u5929\u5929\u98ce\u4e4b\u65c5]
p203
(dp204
g115
(lp205
I0
aI0
aI0
aI0
aI0
aI0
aI1
assVWPS Office
p206
(dp207
g115
(lp208
I0
aI0
aI0
aI0
aI0
aI0
aI1
assV[\u5e94\u7528\u5b9d]
p209
(dp210
g115
(lp211
I0
aI0
aI0
aI0
aI0
aI0
aI1
assg42
(dp212
g115
(lp213
I0
aI0
aI0
aI0
aI0
aI0
aI1
assV[\u6bb5\u5b50\u624b]
p214
(dp215
g115
(lp216
I0
aI0
aI0
aI0
aI0
aI0
aI1
assV\u8d85\u7ea7\u8bfe\u7a0b\u8868
p217
(dp218
g115
(lp219
I0
aI0
aI0
aI0
aI0
aI0
aI1
assVQQ\u90ae\u7bb1
p220
(dp221
g115
(lp222
I0
aI0
aI0
aI0
aI0
aI0
aI2
assV[\u3061\u3087\u3068\u3061\u3087\u3068]
p223
(dp224
g115
(lp225
I0
aI0
aI0
aI0
aI0
aI0
aI1
assV[5253]
p226
(dp227
g115
(lp228
I0
aI0
aI0
aI0
aI0
aI0
aI1
assg60
(dp229
g115
(lp230
I0
aI0
aI0
aI0
aI0
aI0
aI1
assg62
(dp231
g115
(lp232
I0
aI0
aI0
aI0
aI0
aI0
aI1
assVQQ\u5b89\u5168\u4e2d\u5fc3
p233
(dp234
g115
(lp235
I0
aI0
aI0
aI0
aI0
aI0
aI1
assg68
(dp236
g115
(lp237
I0
aI0
aI0
aI0
aI0
aI0
aI2
assV[SmartAir]
p238
(dp239
g115
(lp240
I0
aI0
aI0
aI0
aI0
aI0
aI1
assV[\u770b\u5ba2\u4e70\u7968]
p241
(dp242
g115
(lp243
I0
aI0
aI0
aI0
aI0
aI0
aI1
assV\u76f8\u673a
p244
(dp245
g115
(lp246
I0
aI0
aI0
aI0
aI0
aI0
aI1
assg82
(dp247
g115
(lp248
I0
aI0
aI0
aI0
aI0
aI0
aI1
assV[\u5fae\u4fe1\u7535\u8bdd\u672c]
p249
(dp250
g115
(lp251
I0
aI0
aI0
aI0
aI0
aI0
aI3
assg86
(dp252
g115
(lp253
I0
aI0
aI0
aI0
aI0
aI0
aI2
assg88
(dp254
g115
(lp255
I0
aI0
aI0
aI0
aI0
aI0
aI2
assVQQ
p256
(dp257
g115
(lp258
I0
aI0
aI0
aI0
aI0
aI0
aI9
assV[\u7a7a\u6c14\u51c0\u5316\u5668]
p259
(dp260
g115
(lp261
I0
aI0
aI0
aI0
aI0
aI0
aI1
assV[\u6b22\u4e50\u897f\u6e38]
p262
(dp263
g115
(lp264
I0
aI0
aI0
aI0
aI0
aI0
aI1
assV\u5fae\u4fe1
p265
(dp266
g115
(lp267
I0
aI0
aI0
aI0
aI0
aI0
aI8
assg102
(dp268
g115
(lp269
I0
aI0
aI0
aI0
aI0
aI0
aI2
asssg14
(dp270
VQQ
p271
(dp272
g115
(lp273
I0
aI0
aI0
aI0
aI0
aI0
aI1
assVQQ\u5b89\u5168\u4e2d\u5fc3
p274
(dp275
g115
(lp276
I0
aI0
aI0
aI0
aI0
aI0
aI1
assV[\u997f\u4e86\u4e48]
p277
(dp278
g115
(lp279
I0
aI0
aI0
aI0
aI0
aI0
aI1
assVQQ\u90ae\u7bb1
p280
(dp281
g115
(lp282
I0
aI0
aI0
aI0
aI0
aI0
aI1
asssg16
(dp283
VQQ
p284
(dp285
g115
(lp286
I0
aI0
aI0
aI0
aI0
aI0
aI1
assV[\u5e94\u7528\u5b9d]
p287
(dp288
g115
(lp289
I0
aI0
aI0
aI0
aI0
aI0
aI1
assg68
(dp290
g115
(lp291
I0
aI0
aI0
aI0
aI0
aI0
aI1
assV\u652f\u4ed8\u5b9d\u94b1\u5305
p292
g165
sV\u5fae\u4fe1
p293
(dp294
g115
(lp295
I0
aI0
aI0
aI0
aI0
aI0
aI1
assg86
(dp296
g115
(lp297
I0
aI0
aI0
aI0
aI0
aI0
aI1
assV[OTTTD]
p298
(dp299
g115
(lp300
I0
aI0
aI0
aI0
aI0
aI0
aI1
assg82
(dp301
g115
(lp302
I0
aI0
aI0
aI0
aI0
aI0
aI1
assV[\u5fae\u4fe1\u7535\u8bdd\u672c]
p303
(dp304
g115
(lp305
I0
aI0
aI0
aI0
aI0
aI0
aI1
assV[Unmechanical]
p306
(dp307
g115
(lp308
I0
aI0
aI0
aI0
aI0
aI0
aI1
assg60
(dp309
g115
(lp310
I0
aI0
aI0
aI0
aI0
aI0
aI1
assV[\u997f\u4e86\u4e48]
p311
(dp312
g115
(lp313
I0
aI0
aI0
aI0
aI0
aI0
aI1
assg102
(dp314
g115
(lp315
I0
aI0
aI0
aI0
aI0
aI0
aI1
asssg18
(dp316
VQQ
p317
(dp318
g115
(lp319
I0
aI0
aI0
aI0
aI0
aI0
aI1
assV[5253]
p320
(dp321
g115
(lp322
I0
aI0
aI0
aI0
aI0
aI0
aI1
assg68
(dp323
g115
(lp324
I0
aI0
aI0
aI0
aI0
aI0
aI1
assVUC\u6d4f\u89c8\u5668
p325
g197
sg74
(dp326
g115
(lp327
I0
aI0
aI0
aI0
aI0
aI0
aI1
assV\u5fae\u4fe1
p328
(dp329
g115
(lp330
I0
aI0
aI0
aI0
aI0
aI0
aI1
assV[\u3061\u3087\u3068\u3061\u3087\u3068]
p331
(dp332
g115
(lp333
I0
aI0
aI0
aI0
aI0
aI0
aI1
assg82
(dp334
g115
(lp335
I0
aI0
aI0
aI0
aI0
aI0
aI1
assg60
(dp336
g115
(lp337
I0
aI0
aI0
aI0
aI0
aI0
aI1
assg86
(dp338
g115
(lp339
I0
aI0
aI0
aI0
aI0
aI0
aI1
assg102
(dp340
g115
(lp341
I0
aI0
aI0
aI0
aI0
aI0
aI1
asssg20
(dp342
VQQ
p343
(dp344
g115
(lp345
I0
aI0
aI0
aI0
aI0
aI0
aI1
assg68
(dp346
g115
(lp347
I0
aI0
aI0
aI0
aI0
aI0
aI2
assV[\u4fbf\u7b7e]
p348
(dp349
g115
(lp350
I0
aI0
aI0
aI0
aI0
aI0
aI1
assV\u8d85\u7ea7\u8bfe\u7a0b\u8868
p351
(dp352
g115
(lp353
I0
aI0
aI0
aI0
aI0
aI0
aI1
assV\u5fae\u4fe1
p354
(dp355
g115
(lp356
I0
aI0
aI0
aI0
aI0
aI0
aI1
assVQQ\u90ae\u7bb1
p357
(dp358
g115
(lp359
I0
aI0
aI0
aI0
aI0
aI0
aI1
assg52
(dp360
g115
(lp361
I0
aI0
aI0
aI0
aI0
aI0
aI1
assg78
(dp362
g115
(lp363
I0
aI0
aI0
aI0
aI0
aI0
aI1
assVWPS Office
p364
(dp365
g115
(lp366
I0
aI0
aI0
aI0
aI0
aI0
aI1
assg102
(dp367
g115
(lp368
I0
aI0
aI0
aI0
aI0
aI0
aI1
asssg22
(dp369
VQQ
p370
(dp371
g115
(lp372
I0
aI0
aI0
aI0
aI0
aI0
aI11
assV[\u7a7a\u6c14\u51c0\u5316\u5668]
p373
(dp374
g115
(lp375
I0
aI0
aI0
aI0
aI0
aI0
aI1
assV[SmartAir]
p376
(dp377
g115
(lp378
I0
aI0
aI0
aI0
aI0
aI0
aI1
assVUC\u6d4f\u89c8\u5668
p379
g234
sg14
g275
sV\u5fae\u4fe1
p380
(dp381
g115
(lp382
I0
aI0
aI0
aI0
aI0
aI0
aI8
assV[\u673a\u5668\u4eba\u5c0f\u961f]
p383
g123
sg280
(dp384
g115
(lp385
I0
aI0
aI0
aI0
aI0
aI0
aI3
assg244
(dp386
g115
(lp387
I0
aI0
aI0
aI0
aI0
aI0
aI1
assV[\u5fae\u4fe1\u7535\u8bdd\u672c]
p388
(dp389
g115
(lp390
I0
aI0
aI0
aI0
aI0
aI0
aI2
assV[\u997f\u4e86\u4e48]
p391
(dp392
g115
(lp393
I0
aI0
aI0
aI0
aI0
aI0
aI1
assg88
(dp394
g115
(lp395
I0
aI0
aI0
aI0
aI0
aI0
aI1
assg102
(dp396
g115
(lp397
I0
aI0
aI0
aI0
aI0
aI0
aI1
asssg24
(dp398
g256
(dp399
g115
(lp400
I0
aI0
aI0
aI0
aI0
aI0
aI1
assV[\u7a7a\u6c14\u51c0\u5316\u5668]
p401
(dp402
g115
(lp403
I0
aI0
aI0
aI0
aI0
aI0
aI1
assg68
(dp404
g115
(lp405
I0
aI0
aI0
aI0
aI0
aI0
aI1
assV[\u6bb5\u5b50\u624b]
p406
(dp407
g115
(lp408
I0
aI0
aI0
aI0
aI0
aI0
aI1
assg12
g199
sV[\u770b\u5ba2\u4e70\u7968]
p409
(dp410
g115
(lp411
I0
aI0
aI0
aI0
aI0
aI0
aI1
assg265
(dp412
g115
(lp413
I0
aI0
aI0
aI0
aI0
aI0
aI1
assg62
(dp414
g115
(lp415
I0
aI0
aI0
aI0
aI0
aI0
aI1
assV[\u5fae\u4fe1\u7535\u8bdd\u672c]
p416
(dp417
g115
(lp418
I0
aI0
aI0
aI0
aI0
aI0
aI1
assg102
(dp419
g115
(lp420
I0
aI0
aI0
aI0
aI0
aI0
aI1
assg88
(dp421
g115
(lp422
I0
aI0
aI0
aI0
aI0
aI0
aI1
assg206
(dp423
g115
(lp424
I0
aI0
aI0
aI0
aI0
aI0
aI1
assV[SmartAir]
p425
(dp426
g115
(lp427
I0
aI0
aI0
aI0
aI0
aI0
aI1
asssg26
(dp428
VQQ
p429
(dp430
g115
(lp431
I0
aI0
aI0
aI0
aI0
aI0
aI1
assVUC\u6d4f\u89c8\u5668
p432
g201
sg191
(dp433
g115
(lp434
I0
aI0
aI0
aI0
aI0
aI0
aI1
assV\u5fae\u4fe1
p435
(dp436
g115
(lp437
I0
aI0
aI0
aI0
aI0
aI0
aI1
assV[\u5fae\u4fe1\u7535\u8bdd\u672c]
p438
(dp439
g115
(lp440
I0
aI0
aI0
aI0
aI0
aI0
aI1
assg88
(dp441
g115
(lp442
I0
aI0
aI0
aI0
aI0
aI0
aI1
asssg28
(dp443
VQQ
p444
(dp445
g115
(lp446
I0
aI0
aI0
aI0
aI0
aI0
aI1
assV[\u5e94\u7528\u5b9d]
p447
(dp448
g115
(lp449
I0
aI0
aI0
aI0
aI0
aI0
aI1
assg42
(dp450
g115
(lp451
I0
aI0
aI0
aI0
aI0
aI0
aI1
assVUC\u6d4f\u89c8\u5668
p452
g204
sg217
(dp453
g115
(lp454
I0
aI0
aI0
aI0
aI0
aI0
aI1
assV[\u6b22\u4e50\u897f\u6e38]
p455
(dp456
g115
(lp457
I0
aI0
aI0
aI0
aI0
aI0
aI1
assV\u5fae\u4fe1
p458
(dp459
g115
(lp460
I0
aI0
aI0
aI0
aI0
aI0
aI1
assg86
(dp461
g115
(lp462
I0
aI0
aI0
aI0
aI0
aI0
aI1
asssg30
(dp463
VQQ
p464
(dp465
g115
(lp466
I0
aI0
aI0
aI0
aI0
aI0
aI4
assV[\u5e94\u7528\u5b9d]
p467
(dp468
g115
(lp469
I0
aI0
aI0
aI0
aI0
aI0
aI1
assg66
(dp470
g115
(lp471
I0
aI0
aI0
aI0
aI0
aI0
aI1
assg68
(dp472
g115
(lp473
I0
aI0
aI0
aI0
aI0
aI0
aI1
assg292
g186
sV\u8d85\u7ea7\u8bfe\u7a0b\u8868
p474
(dp475
g115
(lp476
I0
aI0
aI0
aI0
aI0
aI0
aI1
assg14
g278
sV[\u5f00\u62d3\u91d1\u5b57\u5854\u738b\u56fd]
p477
g312
sV\u5fae\u4fe1
p478
(dp479
g115
(lp480
I0
aI0
aI0
aI0
aI0
aI0
aI3
assg280
(dp481
g115
(lp482
I0
aI0
aI0
aI0
aI0
aI0
aI1
assV[OTTTD]
p483
(dp484
g115
(lp485
I0
aI0
aI0
aI0
aI0
aI0
aI1
assg274
g392
sg82
(dp486
g115
(lp487
I0
aI0
aI0
aI0
aI0
aI0
aI1
assV[\u5fae\u4fe1\u7535\u8bdd\u672c]
p488
(dp489
g115
(lp490
I0
aI0
aI0
aI0
aI0
aI0
aI2
assV[Unmechanical]
p491
(dp492
g115
(lp493
I0
aI0
aI0
aI0
aI0
aI0
aI1
assg60
(dp494
g115
(lp495
I0
aI0
aI0
aI0
aI0
aI0
aI1
assg86
(dp496
g115
(lp497
I0
aI0
aI0
aI0
aI0
aI0
aI1
assg88
(dp498
g115
(lp499
I0
aI0
aI0
aI0
aI0
aI0
aI2
assg102
(dp500
g115
(lp501
I0
aI0
aI0
aI0
aI0
aI0
aI2
asssg32
(dp502
VQQ
p503
(dp504
g115
(lp505
I0
aI0
aI0
aI0
aI0
aI0
aI1
asssg34
(dp506
g12
g207
sV[Sensor Log]
p507
g365
sg24
g423
sV[\u7a7a\u6c14\u51c0\u5316\u5668]
p508
(dp509
g115
(lp510
I0
aI0
aI0
aI0
aI0
aI0
aI1
assV[SmartAir]
p511
(dp512
g115
(lp513
I0
aI0
aI0
aI0
aI0
aI0
aI2
assV[\u5e94\u7528\u5b9d]
p514
(dp515
g115
(lp516
I0
aI0
aI0
aI0
aI0
aI0
aI1
assg76
(dp517
g115
(lp518
I0
aI0
aI0
aI0
aI0
aI0
aI1
assV[\u6bb5\u5b50\u624b]
p519
(dp520
g115
(lp521
I0
aI0
aI0
aI0
aI0
aI0
aI1
assg351
(dp522
g115
(lp523
I0
aI0
aI0
aI0
aI0
aI0
aI1
assV[\u673a\u5668\u4eba\u5c0f\u961f]
p524
g148
sg357
(dp525
g115
(lp526
I0
aI0
aI0
aI0
aI0
aI0
aI1
assg52
(dp527
g115
(lp528
I0
aI0
aI0
aI0
aI0
aI0
aI1
assV[\u3061\u3087\u3068\u3061\u3087\u3068]
p529
(dp530
g115
(lp531
I0
aI0
aI0
aI0
aI0
aI0
aI1
assg56
(dp532
g115
(lp533
I0
aI0
aI0
aI0
aI0
aI0
aI1
assg62
(dp534
g115
(lp535
I0
aI0
aI0
aI0
aI0
aI0
aI1
assV[\u52fe\u642d\u62db\u8058]
p536
(dp537
g115
(lp538
I0
aI0
aI0
aI0
aI0
aI0
aI1
assg68
(dp539
g115
(lp540
I0
aI0
aI0
aI0
aI0
aI0
aI6
assV[\u4fbf\u7b7e]
p541
(dp542
g115
(lp543
I0
aI0
aI0
aI0
aI0
aI0
aI1
assV[\u770b\u5ba2\u4e70\u7968]
p544
(dp545
g115
(lp546
I0
aI0
aI0
aI0
aI0
aI0
aI1
assg78
(dp547
g115
(lp548
I0
aI0
aI0
aI0
aI0
aI0
aI1
assg82
(dp549
g115
(lp550
I0
aI0
aI0
aI0
aI0
aI0
aI1
assV[\u5fae\u4fe1\u7535\u8bdd\u672c]
p551
(dp552
g115
(lp553
I0
aI0
aI0
aI0
aI0
aI0
aI3
assg86
(dp554
g115
(lp555
I0
aI0
aI0
aI0
aI0
aI0
aI1
assg88
(dp556
g115
(lp557
I0
aI0
aI0
aI0
aI0
aI0
aI1
assg90
(dp558
g115
(lp559
I0
aI0
aI0
aI0
aI0
aI0
aI5
assV[5253]
p560
(dp561
g115
(lp562
I0
aI0
aI0
aI0
aI0
aI0
aI1
assg354
(dp563
g115
(lp564
I0
aI0
aI0
aI0
aI0
aI0
aI3
assV[\u5e94\u7528\u5546\u5e97]
p565
(dp566
g115
(lp567
I0
aI0
aI0
aI0
aI0
aI0
aI1
assg106
(dp568
g115
(lp569
I0
aI0
aI0
aI0
aI0
aI0
aI1
assg100
(dp570
g115
(lp571
I0
aI0
aI0
aI0
aI0
aI0
aI1
assg102
(dp572
g115
(lp573
I0
aI0
aI0
aI0
aI0
aI0
aI4
asssg36
(dp574
g256
(dp575
g115
(lp576
I0
aI0
aI0
aI0
aI0
aI0
aI5
assV[\u7a7a\u6c14\u51c0\u5316\u5668]
p577
(dp578
g115
(lp579
I0
aI0
aI0
aI0
aI0
aI0
aI3
assVQQ\u5b89\u5168\u4e2d\u5fc3
p580
g377
sg68
(dp581
g115
(lp582
I0
aI0
aI0
aI0
aI0
aI0
aI2
assV[\u6bb5\u5b50\u624b]
p583
(dp584
g115
(lp585
I0
aI0
aI0
aI0
aI0
aI0
aI1
assg12
g239
sV[\u770b\u5ba2\u4e70\u7968]
p586
(dp587
g115
(lp588
I0
aI0
aI0
aI0
aI0
aI0
aI2
assg265
(dp589
g115
(lp590
I0
aI0
aI0
aI0
aI0
aI0
aI5
assV[\u5e94\u7528\u5b9d]
p591
(dp592
g115
(lp593
I0
aI0
aI0
aI0
aI0
aI0
aI1
assV[\u5e94\u7528\u5546\u5e97]
p594
(dp595
g115
(lp596
I0
aI0
aI0
aI0
aI0
aI0
aI1
assg24
g426
sV[\u5fae\u4fe1\u7535\u8bdd\u672c]
p597
(dp598
g115
(lp599
I0
aI0
aI0
aI0
aI0
aI0
aI2
assg62
(dp600
g115
(lp601
I0
aI0
aI0
aI0
aI0
aI0
aI1
assg86
(dp602
g115
(lp603
I0
aI0
aI0
aI0
aI0
aI0
aI2
assg88
(dp604
g115
(lp605
I0
aI0
aI0
aI0
aI0
aI0
aI1
assg206
g512
sg102
(dp606
g115
(lp607
I0
aI0
aI0
aI0
aI0
aI0
aI2
asssg38
(dp608
g292
g157
sg452
g210
sV[\u5f00\u62d3\u91d1\u5b57\u5854\u738b\u56fd]
p609
g288
sV[\u5929\u5929\u98ce\u4e4b\u65c5]
p610
g448
sV[\u997f\u4e86\u4e48]
p611
g468
sg34
g515
sg42
(dp612
g115
(lp613
I0
aI0
aI0
aI0
aI0
aI0
aI1
assg217
(dp614
g115
(lp615
I0
aI0
aI0
aI0
aI0
aI0
aI1
assV[OTTTD]
p616
(dp617
g115
(lp618
I0
aI0
aI0
aI0
aI0
aI0
aI1
assg56
(dp619
g115
(lp620
I0
aI0
aI0
aI0
aI0
aI0
aI1
assV[Unmechanical]
p621
(dp622
g115
(lp623
I0
aI0
aI0
aI0
aI0
aI0
aI1
assg60
(dp624
g115
(lp625
I0
aI0
aI0
aI0
aI0
aI0
aI1
assg68
(dp626
g115
(lp627
I0
aI0
aI0
aI0
aI0
aI0
aI2
assV[SmartAir]
p628
g592
sg82
(dp629
g115
(lp630
I0
aI0
aI0
aI0
aI0
aI0
aI1
assV[\u5fae\u4fe1\u7535\u8bdd\u672c]
p631
(dp632
g115
(lp633
I0
aI0
aI0
aI0
aI0
aI0
aI2
assg86
(dp634
g115
(lp635
I0
aI0
aI0
aI0
aI0
aI0
aI3
assg90
(dp636
g115
(lp637
I0
aI0
aI0
aI0
aI0
aI0
aI4
assV[\u7a7a\u6c14\u51c0\u5316\u5668]
p638
(dp639
g115
(lp640
I0
aI0
aI0
aI0
aI0
aI0
aI1
assV[\u6b22\u4e50\u897f\u6e38]
p641
(dp642
g115
(lp643
I0
aI0
aI0
aI0
aI0
aI0
aI1
assg458
(dp644
g115
(lp645
I0
aI0
aI0
aI0
aI0
aI0
aI3
assg102
(dp646
g115
(lp647
I0
aI0
aI0
aI0
aI0
aI0
aI2
asssg40
(dp648
g284
(dp649
g115
(lp650
I0
aI0
aI0
aI0
aI0
aI0
aI1
assV[\u5e94\u7528\u5b9d]
p651
g617
sg68
(dp652
g115
(lp653
I0
aI0
aI0
aI0
aI0
aI0
aI1
assg292
g173
sV[\u5f00\u62d3\u91d1\u5b57\u5854\u738b\u56fd]
p654
g299
sg293
(dp655
g115
(lp656
I0
aI0
aI0
aI0
aI0
aI0
aI1
assg86
(dp657
g115
(lp658
I0
aI0
aI0
aI0
aI0
aI0
aI1
assg82
(dp659
g115
(lp660
I0
aI0
aI0
aI0
aI0
aI0
aI1
assV[\u5fae\u4fe1\u7535\u8bdd\u672c]
p661
(dp662
g115
(lp663
I0
aI0
aI0
aI0
aI0
aI0
aI1
assV[Unmechanical]
p664
(dp665
g115
(lp666
I0
aI0
aI0
aI0
aI0
aI0
aI1
assg60
(dp667
g115
(lp668
I0
aI0
aI0
aI0
aI0
aI0
aI1
assV[\u997f\u4e86\u4e48]
p669
g484
sg102
(dp670
g115
(lp671
I0
aI0
aI0
aI0
aI0
aI0
aI1
asssg42
(dp672
g444
(dp673
g115
(lp674
I0
aI0
aI0
aI0
aI0
aI0
aI1
assV[\u5e94\u7528\u5b9d]
p675
g612
sg452
g212
sg217
(dp676
g115
(lp677
I0
aI0
aI0
aI0
aI0
aI0
aI1
assV[\u6b22\u4e50\u897f\u6e38]
p678
(dp679
g115
(lp680
I0
aI0
aI0
aI0
aI0
aI0
aI1
assg458
(dp681
g115
(lp682
I0
aI0
aI0
aI0
aI0
aI0
aI1
assV[\u5929\u5929\u98ce\u4e4b\u65c5]
p683
g450
sg86
(dp684
g115
(lp685
I0
aI0
aI0
aI0
aI0
aI0
aI1
asssg44
(dp686
g256
(dp687
g115
(lp688
I0
aI0
aI0
aI0
aI0
aI0
aI1
assV[\u7a7a\u6c14\u51c0\u5316\u5668]
p689
(dp690
g115
(lp691
I0
aI0
aI0
aI0
aI0
aI0
aI1
assg68
(dp692
g115
(lp693
I0
aI0
aI0
aI0
aI0
aI0
aI1
assV[SmartAir]
p694
g584
sg12
g215
sV[\u770b\u5ba2\u4e70\u7968]
p695
(dp696
g115
(lp697
I0
aI0
aI0
aI0
aI0
aI0
aI1
assg265
(dp698
g115
(lp699
I0
aI0
aI0
aI0
aI0
aI0
aI1
assg24
g407
sV[\u5fae\u4fe1\u7535\u8bdd\u672c]
p700
(dp701
g115
(lp702
I0
aI0
aI0
aI0
aI0
aI0
aI1
assg62
(dp703
g115
(lp704
I0
aI0
aI0
aI0
aI0
aI0
aI1
assg88
(dp705
g115
(lp706
I0
aI0
aI0
aI0
aI0
aI0
aI1
assg206
g520
sg102
(dp707
g115
(lp708
I0
aI0
aI0
aI0
aI0
aI0
aI1
asssg46
(dp709
g10
g162
sg452
g218
sV[Sensor Log]
p710
g352
sV[\u5929\u5929\u98ce\u4e4b\u65c5]
p711
g453
sV[\u997f\u4e86\u4e48]
p712
g475
sg364
g522
sV[\u5e94\u7528\u5b9d]
p713
g614
sg76
(dp714
g115
(lp715
I0
aI0
aI0
aI0
aI0
aI0
aI1
assg50
(dp716
g115
(lp717
I0
aI0
aI0
aI0
aI0
aI0
aI3
assg52
(dp718
g115
(lp719
I0
aI0
aI0
aI0
aI0
aI0
aI1
assg66
(dp720
g115
(lp721
I0
aI0
aI0
aI0
aI0
aI0
aI1
assg68
(dp722
g115
(lp723
I0
aI0
aI0
aI0
aI0
aI0
aI2
assV[\u4fbf\u7b7e]
p724
(dp725
g115
(lp726
I0
aI0
aI0
aI0
aI0
aI0
aI1
assg42
g676
sg78
(dp727
g115
(lp728
I0
aI0
aI0
aI0
aI0
aI0
aI1
assV[\u5fae\u4fe1\u7535\u8bdd\u672c]
p729
(dp730
g115
(lp731
I0
aI0
aI0
aI0
aI0
aI0
aI1
assg86
(dp732
g115
(lp733
I0
aI0
aI0
aI0
aI0
aI0
aI1
assg88
(dp734
g115
(lp735
I0
aI0
aI0
aI0
aI0
aI0
aI1
assVQQ
p736
(dp737
g115
(lp738
I0
aI0
aI0
aI0
aI0
aI0
aI6
assV[\u6b22\u4e50\u897f\u6e38]
p739
(dp740
g115
(lp741
I0
aI0
aI0
aI0
aI0
aI0
aI1
assV\u5fae\u4fe1
p742
(dp743
g115
(lp744
I0
aI0
aI0
aI0
aI0
aI0
aI5
assg102
(dp745
g115
(lp746
I0
aI0
aI0
aI0
aI0
aI0
aI2
asssg48
(dp747
g256
(dp748
g115
(lp749
I0
aI0
aI0
aI0
aI0
aI0
aI1
assV[\u7a7a\u6c14\u51c0\u5316\u5668]
p750
(dp751
g115
(lp752
I0
aI0
aI0
aI0
aI0
aI0
aI1
assg68
(dp753
g115
(lp754
I0
aI0
aI0
aI0
aI0
aI0
aI1
assV[\u6bb5\u5b50\u624b]
p755
g696
sg12
g242
sg62
(dp756
g115
(lp757
I0
aI0
aI0
aI0
aI0
aI0
aI1
assg265
(dp758
g115
(lp759
I0
aI0
aI0
aI0
aI0
aI0
aI1
assg24
g410
sV[\u5fae\u4fe1\u7535\u8bdd\u672c]
p760
(dp761
g115
(lp762
I0
aI0
aI0
aI0
aI0
aI0
aI1
assg102
(dp763
g115
(lp764
I0
aI0
aI0
aI0
aI0
aI0
aI1
assg88
(dp765
g115
(lp766
I0
aI0
aI0
aI0
aI0
aI0
aI1
assg206
g545
sV[SmartAir]
p767
g587
ssg50
(dp768
g736
(dp769
g115
(lp770
I0
aI0
aI0
aI0
aI0
aI0
aI11
assg76
(dp771
g115
(lp772
I0
aI0
aI0
aI0
aI0
aI0
aI1
assg274
g384
sg68
(dp773
g115
(lp774
I0
aI0
aI0
aI0
aI0
aI0
aI2
assV[\u4fbf\u7b7e]
p775
(dp776
g115
(lp777
I0
aI0
aI0
aI0
aI0
aI0
aI1
assg46
g716
sg14
g281
sg742
(dp778
g115
(lp779
I0
aI0
aI0
aI0
aI0
aI0
aI6
assg52
(dp780
g115
(lp781
I0
aI0
aI0
aI0
aI0
aI0
aI1
assg78
(dp782
g115
(lp783
I0
aI0
aI0
aI0
aI0
aI0
aI2
assV[\u5fae\u4fe1\u7535\u8bdd\u672c]
p784
(dp785
g115
(lp786
I0
aI0
aI0
aI0
aI0
aI0
aI1
assV\u5e03\u5361\u6f2b\u753b
p787
(dp788
g115
(lp789
I0
aI0
aI0
aI0
aI0
aI0
aI1
assV[Sensor Log]
p790
g358
sg379
g221
sV[\u997f\u4e86\u4e48]
p791
g481
sg88
(dp792
g115
(lp793
I0
aI0
aI0
aI0
aI0
aI0
aI2
assg364
g525
sg102
(dp794
g115
(lp795
I0
aI0
aI0
aI0
aI0
aI0
aI1
asssg52
(dp796
g343
(dp797
g115
(lp798
I0
aI0
aI0
aI0
aI0
aI0
aI2
assg68
(dp799
g115
(lp800
I0
aI0
aI0
aI0
aI0
aI0
aI1
assV[\u4fbf\u7b7e]
p801
(dp802
g115
(lp803
I0
aI0
aI0
aI0
aI0
aI0
aI1
assg351
g718
sg354
(dp804
g115
(lp805
I0
aI0
aI0
aI0
aI0
aI0
aI2
assg357
g780
sg78
(dp806
g115
(lp807
I0
aI0
aI0
aI0
aI0
aI0
aI1
assV[Sensor Log]
p808
g360
sg60
(dp809
g115
(lp810
I0
aI0
aI0
aI0
aI0
aI0
aI1
assg364
g527
ssg54
(dp811
g317
(dp812
g115
(lp813
I0
aI0
aI0
aI0
aI0
aI0
aI1
assV[5253]
p814
(dp815
g115
(lp816
I0
aI0
aI0
aI0
aI0
aI0
aI1
assg68
(dp817
g115
(lp818
I0
aI0
aI0
aI0
aI0
aI0
aI2
assg325
g224
sg74
(dp819
g115
(lp820
I0
aI0
aI0
aI0
aI0
aI0
aI1
assg328
(dp821
g115
(lp822
I0
aI0
aI0
aI0
aI0
aI0
aI1
assV[\u673a\u5668\u4eba\u5c0f\u961f]
p823
g136
sV[\u53f2\u83b1\u59c6\u7684\u91ce\u671b]
p824
g332
sg82
(dp825
g115
(lp826
I0
aI0
aI0
aI0
aI0
aI0
aI1
assV[\u5fae\u4fe1\u7535\u8bdd\u672c]
p827
(dp828
g115
(lp829
I0
aI0
aI0
aI0
aI0
aI0
aI1
assg60
(dp830
g115
(lp831
I0
aI0
aI0
aI0
aI0
aI0
aI1
assg86
(dp832
g115
(lp833
I0
aI0
aI0
aI0
aI0
aI0
aI1
assVWPS Office
p834
g530
sg102
(dp835
g115
(lp836
I0
aI0
aI0
aI0
aI0
aI0
aI2
asssg56
(dp837
g90
(dp838
g115
(lp839
I0
aI0
aI0
aI0
aI0
aI0
aI1
assV[\u5e94\u7528\u5b9d]
p840
g619
sg68
(dp841
g115
(lp842
I0
aI0
aI0
aI0
aI0
aI0
aI1
assg34
g532
sg102
(dp843
g115
(lp844
I0
aI0
aI0
aI0
aI0
aI0
aI1
asssg58
(dp845
g284
(dp846
g115
(lp847
I0
aI0
aI0
aI0
aI0
aI0
aI1
assV[\u5e94\u7528\u5b9d]
p848
g622
sg68
(dp849
g115
(lp850
I0
aI0
aI0
aI0
aI0
aI0
aI1
assg292
g181
sV[\u5f00\u62d3\u91d1\u5b57\u5854\u738b\u56fd]
p851
g307
sg293
(dp852
g115
(lp853
I0
aI0
aI0
aI0
aI0
aI0
aI1
assg86
(dp854
g115
(lp855
I0
aI0
aI0
aI0
aI0
aI0
aI1
assV[OTTTD]
p856
g665
sg82
(dp857
g115
(lp858
I0
aI0
aI0
aI0
aI0
aI0
aI1
assV[\u5fae\u4fe1\u7535\u8bdd\u672c]
p859
(dp860
g115
(lp861
I0
aI0
aI0
aI0
aI0
aI0
aI1
assg60
(dp862
g115
(lp863
I0
aI0
aI0
aI0
aI0
aI0
aI1
assV[\u997f\u4e86\u4e48]
p864
g492
sg102
(dp865
g115
(lp866
I0
aI0
aI0
aI0
aI0
aI0
aI1
asssg60
(dp867
VQQ
p868
(dp869
g115
(lp870
I0
aI0
aI0
aI0
aI0
aI0
aI3
assV[5253]
p871
(dp872
g115
(lp873
I0
aI0
aI0
aI0
aI0
aI0
aI1
assV[\u997f\u4e86\u4e48]
p874
g494
sV[OTTTD]
p875
g667
sg68
(dp876
g115
(lp877
I0
aI0
aI0
aI0
aI0
aI0
aI2
assg292
g183
sg325
g229
sV[\u3061\u3087\u3068\u3061\u3087\u3068]
p878
g830
sV[\u5f00\u62d3\u91d1\u5b57\u5854\u738b\u56fd]
p879
g309
sV\u5fae\u4fe1
p880
(dp881
g115
(lp882
I0
aI0
aI0
aI0
aI0
aI0
aI3
assV[\u5e94\u7528\u5b9d]
p883
g624
sg74
(dp884
g115
(lp885
I0
aI0
aI0
aI0
aI0
aI0
aI1
assV\u58a8\u8ff9\u5929\u6c14
p886
g809
sV[\u53f2\u83b1\u59c6\u7684\u91ce\u671b]
p887
g336
sg82
(dp888
g115
(lp889
I0
aI0
aI0
aI0
aI0
aI0
aI2
assV[\u5fae\u4fe1\u7535\u8bdd\u672c]
p890
(dp891
g115
(lp892
I0
aI0
aI0
aI0
aI0
aI0
aI1
assV[Unmechanical]
p893
g862
sg86
(dp894
g115
(lp895
I0
aI0
aI0
aI0
aI0
aI0
aI2
assg102
(dp896
g115
(lp897
I0
aI0
aI0
aI0
aI0
aI0
aI2
asssg62
(dp898
g256
(dp899
g115
(lp900
I0
aI0
aI0
aI0
aI0
aI0
aI1
assV[\u7a7a\u6c14\u51c0\u5316\u5668]
p901
(dp902
g115
(lp903
I0
aI0
aI0
aI0
aI0
aI0
aI1
assg68
(dp904
g115
(lp905
I0
aI0
aI0
aI0
aI0
aI0
aI1
assV[\u6bb5\u5b50\u624b]
p906
g703
sg12
g231
sV[\u770b\u5ba2\u4e70\u7968]
p907
g756
sg265
(dp908
g115
(lp909
I0
aI0
aI0
aI0
aI0
aI0
aI1
assg24
g414
sV[\u5fae\u4fe1\u7535\u8bdd\u672c]
p910
(dp911
g115
(lp912
I0
aI0
aI0
aI0
aI0
aI0
aI1
assg102
(dp913
g115
(lp914
I0
aI0
aI0
aI0
aI0
aI0
aI1
assg88
(dp915
g115
(lp916
I0
aI0
aI0
aI0
aI0
aI0
aI1
assg206
g534
sV[SmartAir]
p917
g600
ssg64
(dp918
g113
(dp919
g115
(lp920
I0
aI0
aI0
aI0
aI0
aI0
aI1
assV[5253]
p921
(dp922
g115
(lp923
I0
aI0
aI0
aI0
aI0
aI0
aI1
assg76
(dp924
g115
(lp925
I0
aI0
aI0
aI0
aI0
aI0
aI1
assg68
(dp926
g115
(lp927
I0
aI0
aI0
aI0
aI0
aI0
aI1
assg100
(dp928
g115
(lp929
I0
aI0
aI0
aI0
aI0
aI0
aI1
assV[\u673a\u5668\u4eba\u5c0f\u961f]
p930
g133
sg82
(dp931
g115
(lp932
I0
aI0
aI0
aI0
aI0
aI0
aI1
assV[\u5fae\u4fe1\u7535\u8bdd\u672c]
p933
(dp934
g115
(lp935
I0
aI0
aI0
aI0
aI0
aI0
aI1
assg86
(dp936
g115
(lp937
I0
aI0
aI0
aI0
aI0
aI0
aI1
assg147
g537
sg106
(dp938
g115
(lp939
I0
aI0
aI0
aI0
aI0
aI0
aI1
asssg66
(dp940
g464
(dp941
g115
(lp942
I0
aI0
aI0
aI0
aI0
aI0
aI1
assg474
g720
sg478
(dp943
g115
(lp944
I0
aI0
aI0
aI0
aI0
aI0
aI1
assV[\u997f\u4e86\u4e48]
p945
g470
sg88
(dp946
g115
(lp947
I0
aI0
aI0
aI0
aI0
aI0
aI1
assg102
(dp948
g115
(lp949
I0
aI0
aI0
aI0
aI0
aI0
aI1
asssg68
(dp950
g292
g159
sg12
g236
sg74
(dp951
g115
(lp952
I0
aI0
aI0
aI0
aI0
aI0
aI1
assV[\u5f00\u62d3\u91d1\u5b57\u5854\u738b\u56fd]
p953
g290
sV[\u53f2\u83b1\u59c6\u7684\u91ce\u671b]
p954
g323
sV[Sensor Log]
p955
g346
sg24
g404
sV[\u997f\u4e86\u4e48]
p956
g472
sg34
g539
sV[SmartAir]
p957
g581
sV[\u5e94\u7528\u5b9d]
p958
g626
sV[OTTTD]
p959
g652
sg76
(dp960
g115
(lp961
I0
aI0
aI0
aI0
aI0
aI0
aI2
assV[\u6bb5\u5b50\u624b]
p962
g692
sg46
g722
sV[\u673a\u5668\u4eba\u5c0f\u961f]
p963
g125
sg50
g773
sg52
g799
sV[\u3061\u3087\u3068\u3061\u3087\u3068]
p964
g817
sV[5253]
p965
(dp966
g115
(lp967
I0
aI0
aI0
aI0
aI0
aI0
aI2
assg56
g841
sV[Unmechanical]
p968
g849
sg60
g876
sg62
g904
sV[\u52fe\u642d\u62db\u8058]
p969
g926
sV[\u4fbf\u7b7e]
p970
(dp971
g115
(lp972
I0
aI0
aI0
aI0
aI0
aI0
aI1
assV[\u770b\u5ba2\u4e70\u7968]
p973
g753
sg78
(dp974
g115
(lp975
I0
aI0
aI0
aI0
aI0
aI0
aI1
assg82
(dp976
g115
(lp977
I0
aI0
aI0
aI0
aI0
aI0
aI3
assV[\u5fae\u4fe1\u7535\u8bdd\u672c]
p978
(dp979
g115
(lp980
I0
aI0
aI0
aI0
aI0
aI0
aI4
assg86
(dp981
g115
(lp982
I0
aI0
aI0
aI0
aI0
aI0
aI3
assg88
(dp983
g115
(lp984
I0
aI0
aI0
aI0
aI0
aI0
aI1
assg90
(dp985
g115
(lp986
I0
aI0
aI0
aI0
aI0
aI0
aI9
assV[\u7a7a\u6c14\u51c0\u5316\u5668]
p987
(dp988
g115
(lp989
I0
aI0
aI0
aI0
aI0
aI0
aI1
assg742
(dp990
g115
(lp991
I0
aI0
aI0
aI0
aI0
aI0
aI6
assV[\u5e94\u7528\u5546\u5e97]
p992
(dp993
g115
(lp994
I0
aI0
aI0
aI0
aI0
aI0
aI1
assg106
(dp995
g115
(lp996
I0
aI0
aI0
aI0
aI0
aI0
aI1
assg100
(dp997
g115
(lp998
I0
aI0
aI0
aI0
aI0
aI0
aI1
assg102
(dp999
g115
(lp1000
I0
aI0
aI0
aI0
aI0
aI0
aI8
asssg70
(dp1001
g343
(dp1002
g115
(lp1003
I0
aI0
aI0
aI0
aI0
aI0
aI1
assg68
g971
sg351
g725
sg354
(dp1004
g115
(lp1005
I0
aI0
aI0
aI0
aI0
aI0
aI1
assg357
g776
sg52
g802
sg78
(dp1006
g115
(lp1007
I0
aI0
aI0
aI0
aI0
aI0
aI1
assV[Sensor Log]
p1008
g349
sg364
g542
ssg72
(dp1009
g256
(dp1010
g115
(lp1011
I0
aI0
aI0
aI0
aI0
aI0
aI3
assV[\u5e94\u7528\u5b9d]
p1012
g639
sg580
g374
sg68
g988
sV[\u6bb5\u5b50\u624b]
p1013
g690
sg12
g260
sV[\u770b\u5ba2\u4e70\u7968]
p1014
g751
sg62
g902
sg265
(dp1015
g115
(lp1016
I0
aI0
aI0
aI0
aI0
aI0
aI3
assg24
g402
sV[\u5fae\u4fe1\u7535\u8bdd\u672c]
p1017
(dp1018
g115
(lp1019
I0
aI0
aI0
aI0
aI0
aI0
aI2
assg102
(dp1020
g115
(lp1021
I0
aI0
aI0
aI0
aI0
aI0
aI1
assg86
(dp1022
g115
(lp1023
I0
aI0
aI0
aI0
aI0
aI0
aI1
assg88
(dp1024
g115
(lp1025
I0
aI0
aI0
aI0
aI0
aI0
aI1
assg206
g509
sV[SmartAir]
p1026
g578
ssg74
(dp1027
g317
(dp1028
g115
(lp1029
I0
aI0
aI0
aI0
aI0
aI0
aI1
assV[5253]
p1030
(dp1031
g115
(lp1032
I0
aI0
aI0
aI0
aI0
aI0
aI1
assg68
g951
sg325
g194
sV[\u3061\u3087\u3068\u3061\u3087\u3068]
p1033
g819
sg328
(dp1034
g115
(lp1035
I0
aI0
aI0
aI0
aI0
aI0
aI1
assV[\u53f2\u83b1\u59c6\u7684\u91ce\u671b]
p1036
g326
sg82
(dp1037
g115
(lp1038
I0
aI0
aI0
aI0
aI0
aI0
aI1
assg60
g884
sg86
(dp1039
g115
(lp1040
I0
aI0
aI0
aI0
aI0
aI0
aI1
assg102
(dp1041
g115
(lp1042
I0
aI0
aI0
aI0
aI0
aI0
aI1
asssg76
(dp1043
g736
(dp1044
g115
(lp1045
I0
aI0
aI0
aI0
aI0
aI0
aI2
assV[5253]
p1046
(dp1047
g115
(lp1048
I0
aI0
aI0
aI0
aI0
aI0
aI1
assg68
g960
sg100
(dp1049
g115
(lp1050
I0
aI0
aI0
aI0
aI0
aI0
aI1
assg46
g714
sg742
(dp1051
g115
(lp1052
I0
aI0
aI0
aI0
aI0
aI0
aI1
assV[\u673a\u5668\u4eba\u5c0f\u961f]
p1053
g120
sg50
g771
sV[\u52fe\u642d\u62db\u8058]
p1054
g924
sg106
(dp1055
g115
(lp1056
I0
aI0
aI0
aI0
aI0
aI0
aI1
assg82
(dp1057
g115
(lp1058
I0
aI0
aI0
aI0
aI0
aI0
aI1
assV[\u5fae\u4fe1\u7535\u8bdd\u672c]
p1059
(dp1060
g115
(lp1061
I0
aI0
aI0
aI0
aI0
aI0
aI1
assg86
(dp1062
g115
(lp1063
I0
aI0
aI0
aI0
aI0
aI0
aI1
assg147
g517
sg102
(dp1064
g115
(lp1065
I0
aI0
aI0
aI0
aI0
aI0
aI1
asssg78
(dp1066
g343
(dp1067
g115
(lp1068
I0
aI0
aI0
aI0
aI0
aI0
aI2
assg379
g245
sg233
g386
sg68
g974
sV[\u4fbf\u7b7e]
p1069
g1006
sg351
g727
sg354
(dp1070
g115
(lp1071
I0
aI0
aI0
aI0
aI0
aI0
aI2
assg357
g782
sg52
g806
sV[Sensor Log]
p1072
g362
sg364
g547
ssg80
(dp1073
sg82
(dp1074
g292
g175
sg100
(dp1075
g115
(lp1076
I0
aI0
aI0
aI0
aI0
aI0
aI1
assg74
g1037
sV[\u5f00\u62d3\u91d1\u5b57\u5854\u738b\u56fd]
p1077
g301
sV[\u53f2\u83b1\u59c6\u7684\u91ce\u671b]
p1078
g334
sV[\u997f\u4e86\u4e48]
p1079
g486
sg147
g549
sV[\u5e94\u7528\u5b9d]
p1080
g629
sV[OTTTD]
p1081
g659
sg76
g1057
sg325
g247
sV[\u673a\u5668\u4eba\u5c0f\u961f]
p1082
g138
sV[\u3061\u3087\u3068\u3061\u3087\u3068]
p1083
g825
sV[Unmechanical]
p1084
g857
sg60
g888
sV[\u52fe\u642d\u62db\u8058]
p1085
g931
sg68
g976
sg106
(dp1086
g115
(lp1087
I0
aI0
aI0
aI0
aI0
aI0
aI1
assV[\u5fae\u4fe1\u7535\u8bdd\u672c]
p1088
(dp1089
g115
(lp1090
I0
aI0
aI0
aI0
aI0
aI0
aI2
assg86
(dp1091
g115
(lp1092
I0
aI0
aI0
aI0
aI0
aI0
aI3
assg317
(dp1093
g115
(lp1094
I0
aI0
aI0
aI0
aI0
aI0
aI3
assV[5253]
p1095
(dp1096
g115
(lp1097
I0
aI0
aI0
aI0
aI0
aI0
aI2
assg328
(dp1098
g115
(lp1099
I0
aI0
aI0
aI0
aI0
aI0
aI2
assg102
(dp1100
g115
(lp1101
I0
aI0
aI0
aI0
aI0
aI0
aI2
asssg84
(dp1102
g10
g178
sg12
g250
sV[\u5f00\u62d3\u91d1\u5b57\u5854\u738b\u56fd]
p1103
g304
sg24
g417
sg26
g439
sV[\u997f\u4e86\u4e48]
p1104
g489
sg206
g552
sV[\u52fe\u642d\u62db\u8058]
p1105
g934
sV[OTTTD]
p1106
g662
sg76
g1060
sV[\u6bb5\u5b50\u624b]
p1107
g701
sg161
g730
sV[\u673a\u5668\u4eba\u5c0f\u961f]
p1108
g141
sVQQ\u90ae\u7bb1
p1109
g785
sV[\u3061\u3087\u3068\u3061\u3087\u3068]
p1110
g828
sV[5253]
p1111
(dp1112
g115
(lp1113
I0
aI0
aI0
aI0
aI0
aI0
aI1
assV[Unmechanical]
p1114
g860
sg60
g891
sg62
g911
sV[\u5e94\u7528\u5b9d]
p1115
g632
sVQQ\u5b89\u5168\u4e2d\u5fc3
p1116
g389
sg68
g979
sV[SmartAir]
p1117
g598
sV[\u770b\u5ba2\u4e70\u7968]
p1118
g761
sg106
(dp1119
g115
(lp1120
I0
aI0
aI0
aI0
aI0
aI0
aI1
assg86
(dp1121
g115
(lp1122
I0
aI0
aI0
aI0
aI0
aI0
aI3
assg88
(dp1123
g115
(lp1124
I0
aI0
aI0
aI0
aI0
aI0
aI6
assVQQ
p1125
(dp1126
g115
(lp1127
I0
aI0
aI0
aI0
aI0
aI0
aI11
assV[\u7a7a\u6c14\u51c0\u5316\u5668]
p1128
g1018
sg96
(dp1129
g115
(lp1130
I0
aI0
aI0
aI0
aI0
aI0
aI11
assV[\u5e94\u7528\u5546\u5e97]
p1131
(dp1132
g115
(lp1133
I0
aI0
aI0
aI0
aI0
aI0
aI1
assg100
(dp1134
g115
(lp1135
I0
aI0
aI0
aI0
aI0
aI0
aI1
assg102
(dp1136
g115
(lp1137
I0
aI0
aI0
aI0
aI0
aI0
aI3
assg191
(dp1138
g115
(lp1139
I0
aI0
aI0
aI0
aI0
aI0
aI1
assg82
g1089
ssg86
(dp1140
g292
g170
sg325
g252
sg74
g1039
sV[\u5f00\u62d3\u91d1\u5b57\u5854\u738b\u56fd]
p1141
g296
sV[\u53f2\u83b1\u59c6\u7684\u91ce\u671b]
p1142
g338
sV[\u5929\u5929\u98ce\u4e4b\u65c5]
p1143
g461
sV[\u997f\u4e86\u4e48]
p1144
g496
sg147
g554
sV[\u5e94\u7528\u5b9d]
p1145
g634
sV[OTTTD]
p1146
g657
sg76
g1062
sg100
(dp1147
g115
(lp1148
I0
aI0
aI0
aI0
aI0
aI0
aI1
assg217
g732
sV[\u673a\u5668\u4eba\u5c0f\u961f]
p1149
g145
sV[\u3061\u3087\u3068\u3061\u3087\u3068]
p1150
g832
sV[Unmechanical]
p1151
g854
sg60
g894
sV[\u52fe\u642d\u62db\u8058]
p1152
g936
sg68
g981
sV[SmartAir]
p1153
g602
sV[\u7a7a\u6c14\u51c0\u5316\u5668]
p1154
g1022
sg42
g684
sg106
(dp1155
g115
(lp1156
I0
aI0
aI0
aI0
aI0
aI0
aI1
assV[\u5fae\u4fe1\u7535\u8bdd\u672c]
p1157
g1121
sVQQ
p1158
(dp1159
g115
(lp1160
I0
aI0
aI0
aI0
aI0
aI0
aI6
assV[5253]
p1161
(dp1162
g115
(lp1163
I0
aI0
aI0
aI0
aI0
aI0
aI2
assV[\u6b22\u4e50\u897f\u6e38]
p1164
(dp1165
g115
(lp1166
I0
aI0
aI0
aI0
aI0
aI0
aI1
assV\u5fae\u4fe1
p1167
(dp1168
g115
(lp1169
I0
aI0
aI0
aI0
aI0
aI0
aI5
assg102
(dp1170
g115
(lp1171
I0
aI0
aI0
aI0
aI0
aI0
aI2
assg82
g1091
ssg88
(dp1172
g256
(dp1173
g115
(lp1174
I0
aI0
aI0
aI0
aI0
aI0
aI7
assV[\u7a7a\u6c14\u51c0\u5316\u5668]
p1175
g1024
sg66
g946
sg68
g983
sV[\u6bb5\u5b50\u624b]
p1176
g705
sg12
g254
sV[\u770b\u5ba2\u4e70\u7968]
p1177
g765
sg62
g915
sg265
(dp1178
g115
(lp1179
I0
aI0
aI0
aI0
aI0
aI0
aI7
assVQQ\u5b89\u5168\u4e2d\u5fc3
p1180
g394
sVQQ\u90ae\u7bb1
p1181
g792
sV[\u5e94\u7528\u5546\u5e97]
p1182
(dp1183
g115
(lp1184
I0
aI0
aI0
aI0
aI0
aI0
aI1
assg474
g734
sg191
(dp1185
g115
(lp1186
I0
aI0
aI0
aI0
aI0
aI0
aI1
assg24
g421
sg26
g441
sV[\u5fae\u4fe1\u7535\u8bdd\u672c]
p1187
g1123
sg102
(dp1188
g115
(lp1189
I0
aI0
aI0
aI0
aI0
aI0
aI2
assV[\u997f\u4e86\u4e48]
p1190
g498
sg206
g556
sV[SmartAir]
p1191
g604
ssg90
(dp1192
V[\u673a\u5668\u4eba\u5c0f\u961f]
p1193
g114
sg10
g154
sg12
g257
sg14
g272
sV[\u5f00\u62d3\u91d1\u5b57\u5854\u738b\u56fd]
p1194
g285
sV[\u53f2\u83b1\u59c6\u7684\u91ce\u671b]
p1195
g318
sV[\u5fae\u4fe1\u7535\u8bdd\u672c]
p1196
g1126
sg66
g941
sg24
g399
sg26
g430
sV[\u5929\u5929\u98ce\u4e4b\u65c5]
p1197
g445
sV[\u997f\u4e86\u4e48]
p1198
g465
sg32
g504
sg34
g558
sV[SmartAir]
p1199
g575
sV[\u5e94\u7528\u5b9d]
p1200
g636
sV[OTTTD]
p1201
g649
sg76
g1044
sV[\u6bb5\u5b50\u624b]
p1202
g687
sg46
g737
sg74
g1028
sg50
g769
sg52
g797
sV[\u3061\u3087\u3068\u3061\u3087\u3068]
p1203
g812
sV[5253]
p1204
(dp1205
g115
(lp1206
I0
aI0
aI0
aI0
aI0
aI0
aI2
assg56
g838
sV[Unmechanical]
p1207
g846
sg60
g869
sg62
g899
sV[\u52fe\u642d\u62db\u8058]
p1208
g919
sg22
g371
sg68
g985
sV[\u4fbf\u7b7e]
p1209
g1002
sV[\u770b\u5ba2\u4e70\u7968]
p1210
g748
sg42
g673
sg78
g1067
sg82
g1093
sV[Sensor Log]
p1211
g344
sg86
g1159
sg88
g1173
sV[\u7a7a\u6c14\u51c0\u5316\u5668]
p1212
g1010
sV[\u6b22\u4e50\u897f\u6e38]
p1213
(dp1214
g115
(lp1215
I0
aI0
aI0
aI0
aI0
aI0
aI1
assg96
(dp1216
g115
(lp1217
I0
aI0
aI0
aI0
aI0
aI0
aI28
assV[\u5e94\u7528\u5546\u5e97]
p1218
(dp1219
g115
(lp1220
I0
aI0
aI0
aI0
aI0
aI0
aI1
assg106
(dp1221
g115
(lp1222
I0
aI0
aI0
aI0
aI0
aI0
aI1
assg100
(dp1223
g115
(lp1224
I0
aI0
aI0
aI0
aI0
aI0
aI1
assg191
(dp1225
g115
(lp1226
I0
aI0
aI0
aI0
aI0
aI0
aI2
assg102
(dp1227
g115
(lp1228
I0
aI0
aI0
aI0
aI0
aI0
aI8
asssg92
(dp1229
g317
g1205
sV[\u3061\u3087\u3068\u3061\u3087\u3068]
p1230
g815
sg76
g1047
sg68
g966
sg100
(dp1231
g115
(lp1232
I0
aI0
aI0
aI0
aI0
aI0
aI1
assg325
g227
sg74
g1031
sg328
(dp1233
g115
(lp1234
I0
aI0
aI0
aI0
aI0
aI0
aI1
assV[\u673a\u5668\u4eba\u5c0f\u961f]
p1235
g118
sV[\u52fe\u642d\u62db\u8058]
p1236
g922
sV[\u53f2\u83b1\u59c6\u7684\u91ce\u671b]
p1237
g321
sg106
(dp1238
g115
(lp1239
I0
aI0
aI0
aI0
aI0
aI0
aI1
assg82
g1096
sV[\u5fae\u4fe1\u7535\u8bdd\u672c]
p1240
g1112
sg60
g872
sg86
g1162
sg147
g561
sg102
(dp1241
g115
(lp1242
I0
aI0
aI0
aI0
aI0
aI0
aI1
asssg94
(dp1243
g444
g1214
sV[\u5e94\u7528\u5b9d]
p1244
g642
sg42
g679
sg452
g263
sg217
g740
sg458
(dp1245
g115
(lp1246
I0
aI0
aI0
aI0
aI0
aI0
aI1
assV[\u5929\u5929\u98ce\u4e4b\u65c5]
p1247
g456
sg86
g1165
ssg96
(dp1248
g10
g168
sg12
g266
sg74
g1034
sV[\u5f00\u62d3\u91d1\u5b57\u5854\u738b\u56fd]
p1249
g294
sV[\u53f2\u83b1\u59c6\u7684\u91ce\u671b]
p1250
g329
sV[\u5fae\u4fe1\u7535\u8bdd\u672c]
p1251
g1129
sg66
g943
sg24
g412
sg26
g436
sV[\u5929\u5929\u98ce\u4e4b\u65c5]
p1252
g459
sV[\u997f\u4e86\u4e48]
p1253
g479
sg364
g563
sV[SmartAir]
p1254
g589
sV[\u5e94\u7528\u5b9d]
p1255
g644
sV[OTTTD]
p1256
g655
sg76
g1051
sV[\u6bb5\u5b50\u624b]
p1257
g698
sg46
g743
sV[\u673a\u5668\u4eba\u5c0f\u961f]
p1258
g130
sg50
g778
sg52
g804
sV[\u3061\u3087\u3068\u3061\u3087\u3068]
p1259
g821
sV[5253]
p1260
g1233
sV[Unmechanical]
p1261
g852
sg60
g881
sg62
g908
sVQQ\u5b89\u5168\u4e2d\u5fc3
p1262
g381
sg68
g990
sV[\u4fbf\u7b7e]
p1263
g1004
sV[\u770b\u5ba2\u4e70\u7968]
p1264
g758
sg42
g681
sg78
g1070
sg82
g1098
sV[Sensor Log]
p1265
g355
sg86
g1168
sg88
g1178
sg1125
g1216
sV[\u7a7a\u6c14\u51c0\u5316\u5668]
p1266
g1015
sV[\u6b22\u4e50\u897f\u6e38]
p1267
g1245
sV[\u5e94\u7528\u5546\u5e97]
p1268
(dp1269
g115
(lp1270
I0
aI0
aI0
aI0
aI0
aI0
aI2
assg104
(dp1271
g115
(lp1272
I0
aI0
aI0
aI0
aI0
aI0
aI2
assg102
(dp1273
g115
(lp1274
I0
aI0
aI0
aI0
aI0
aI0
aI6
asssg98
(dp1275
VQQ
p1276
g1219
sg68
g993
sV[SmartAir]
p1277
g595
sV\u5fae\u4fe1
p1278
g1269
sV[\u5fae\u4fe1\u7535\u8bdd\u672c]
p1279
g1132
sg88
g1183
sVWPS Office
p1280
g566
sg102
(dp1281
g115
(lp1282
I0
aI0
aI0
aI0
aI0
aI0
aI1
asssg100
(dp1283
g113
g1223
sV[5253]
p1284
g1231
sg76
g1049
sg68
g997
sV[\u673a\u5668\u4eba\u5c0f\u961f]
p1285
g127
sV[\u52fe\u642d\u62db\u8058]
p1286
g928
sg82
g1075
sV[\u5fae\u4fe1\u7535\u8bdd\u672c]
p1287
g1134
sg86
g1147
sg147
g570
sg106
(dp1288
g115
(lp1289
I0
aI0
aI0
aI0
aI0
aI0
aI1
asssg102
(dp1290
g292
g188
sg12
g268
sg74
g1041
sV[\u5f00\u62d3\u91d1\u5b57\u5854\u738b\u56fd]
p1291
g314
sV[\u53f2\u83b1\u59c6\u7684\u91ce\u671b]
p1292
g340
sV[Sensor Log]
p1293
g367
sg66
g948
sg24
g419
sV[\u997f\u4e86\u4e48]
p1294
g500
sg34
g572
sV[\u5e94\u7528\u5b9d]
p1295
g646
sV[OTTTD]
p1296
g670
sg76
g1064
sV[\u6bb5\u5b50\u624b]
p1297
g707
sg46
g745
sV[\u673a\u5668\u4eba\u5c0f\u961f]
p1298
g143
sg50
g794
sV[\u3061\u3087\u3068\u3061\u3087\u3068]
p1299
g835
sV[5253]
p1300
g1241
sg56
g843
sV[Unmechanical]
p1301
g865
sg60
g896
sg62
g913
sVQQ\u5b89\u5168\u4e2d\u5fc3
p1302
g396
sg68
g999
sV[SmartAir]
p1303
g606
sV[\u770b\u5ba2\u4e70\u7968]
p1304
g763
sg82
g1100
sV[\u5fae\u4fe1\u7535\u8bdd\u672c]
p1305
g1136
sg86
g1170
sg88
g1188
sg90
g1227
sV[\u7a7a\u6c14\u51c0\u5316\u5668]
p1306
g1020
sg742
g1273
sV[\u5e94\u7528\u5546\u5e97]
p1307
g1281
ssg104
(dp1308
g429
g1225
sg432
g192
sV\u5fae\u4fe1
p1309
g1271
sVQQ\u90ae\u7bb1
p1310
g788
sg26
g433
sV[\u5fae\u4fe1\u7535\u8bdd\u672c]
p1311
g1138
sg88
g1185
ssg106
(dp1312
g113
g1221
sV[5253]
p1313
g1238
sg76
g1055
sg68
g995
sg100
g1288
sV[\u673a\u5668\u4eba\u5c0f\u961f]
p1314
g150
sV[\u52fe\u642d\u62db\u8058]
p1315
g938
sg82
g1086
sV[\u5fae\u4fe1\u7535\u8bdd\u672c]
p1316
g1119
sg86
g1155
sg147
g568
sssS'adj'
p1317
g111
sb.