ccopy_reg
_reconstructor
p1
(cnetworkx.classes.digraph
DiGraph
p2
c__builtin__
object
p3
NtRp4
(dp5
S'node'
p6
(dp7
VCalculator.apk
p8
(dp9
S'weight'
p10
F0
ssV\u652f\u4ed8\u5b9d\u94b1\u5305
p11
(dp12
g10
F0
ssVUC\u6d4f\u89c8\u5668
p13
(dp14
g10
F0
ssVTaskManager.apk
p15
(dp16
g10
F0
ssV\u66b4\u98ce\u5f71\u97f3
p17
(dp18
g10
F0
ssVPhoto.apk
p19
(dp20
g10
F0.02
ssVCalendar.apk
p21
(dp22
g10
F0
ssV[iReader]
p23
(dp24
g10
F0
ssV\u6b22\u4e50\u6597\u5730\u4e3b
p25
(dp26
g10
F0
ssVBrowser.apk
p27
(dp28
g10
F0
ssV[360\u624b\u673a\u52a9\u624b]
p29
(dp30
g10
F0
ssVContacts.apk
p31
(dp32
g10
F0
ssV[Polaris Office 4.0]
p33
(dp34
g10
F0
ssV\u6709\u9053\u8bcd\u5178
p35
(dp36
g10
F0
ssVFileManager.apk
p37
(dp38
g10
F0
ssV\u5fae\u535a
p39
(dp40
g10
F0.01
ssVClock.apk
p41
(dp42
g10
F0.029999999999999999
ssVMms.apk
p43
(dp44
g10
F0.050000000000000003
ssV[Sensor Log]
p45
(dp46
g10
F0
ssVPhone.apk
p47
(dp48
g10
F0.02
ssV\u767e\u5ea6
p49
(dp50
g10
F0
ssVQQ
p51
(dp52
g10
F0.22
ssV\u5fae\u4fe1
p53
(dp54
g10
F0.5
ssVNotice.apk
p55
(dp56
g10
F0.050000000000000003
ssVCamera.apk
p57
(dp58
g10
F0.02
ssVVideo.apk
p59
(dp60
g10
F0
ssV\u795e\u5e99\u9003\u4ea1
p61
(dp62
g10
F0
ssVSettings.apk
p63
(dp64
g10
F0.050000000000000003
sssS'graph'
p65
(dp66
sS'succ'
p67
(dp68
g8
(dp69
g47
(dp70
S'weights'
p71
(lp72
I0
aI0
aI0
aI0
aI0
aI0
aF0.016663092013628412
assg43
(dp73
g71
(lp74
I0
aI0
aI0
aI0
aI0
aI0
aF0.016811245957260443
asssg11
(dp75
VQQ
p76
(dp77
g71
(lp78
I0
aI0
aI0
aI0
aI0
aI0
aF0.056998651441567433
assV\u5fae\u4fe1
p79
(dp80
g71
(lp81
I0
aI0
aI0
aI0
aI0
aI0
aF0.067305302875426562
assg55
(dp82
g71
(lp83
I0
aI0
aI0
aI0
aI0
aI0
aF0.026819686791747774
assg47
(dp84
g71
(lp85
I0
aI0
aI0
aI0
aI0
aI0
aF0.019410773900686035
assg43
(dp86
g71
(lp87
I0
aI0
aI0
aI0
aI0
aI0
aF0.017607076268318301
assV[360\u624b\u673a\u52a9\u624b]
p88
(dp89
g71
(lp90
I0
aI0
aI0
aI0
aI0
aI0
aF0.014504559201620384
assg49
(dp91
g71
(lp92
I0
aI0
aI0
aI0
aI0
aI0
aF0.014312640727466347
assg63
(dp93
g71
(lp94
I0
aI0
aI0
aI0
aI0
aI0
aF0.018657079876025637
asssg13
(dp95
VQQ
p96
(dp97
g71
(lp98
I0
aI0
aI0
aI0
aI0
aI0
aF0.061541610845494941
assg37
(dp99
g71
(lp100
I0
aI0
aI0
aI0
aI0
aI0
aF0.016837768524924419
assg19
(dp101
g71
(lp102
I0
aI0
aI0
aI0
aI0
aI0
aF0.04286282708536248
assV\u5fae\u4fe1
p103
(dp104
g71
(lp105
I0
aI0
aI0
aI0
aI0
aI0
aF0.075388225571937043
assg55
(dp106
g71
(lp107
I0
aI0
aI0
aI0
aI0
aI0
aF0.014203828244149532
assg41
(dp108
g71
(lp109
I0
aI0
aI0
aI0
aI0
aI0
aF0.021862416190048851
assg43
(dp110
g71
(lp111
I0
aI0
aI0
aI0
aI0
aI0
aF0.037200249030592443
assg47
(dp112
g71
(lp113
I0
aI0
aI0
aI0
aI0
aI0
aF0.026220174625079834
assg63
(dp114
g71
(lp115
I0
aI0
aI0
aI0
aI0
aI0
aF0.015262382743744132
asssg15
(dp116
VQQ
p117
(dp118
g71
(lp119
I0
aI0
aI0
aI0
aI0
aI0
aF0.067526132464313979
assg19
(dp120
g71
(lp121
I0
aI0
aI0
aI0
aI0
aI0
aF0.050613262526108878
assVUC\u6d4f\u89c8\u5668
p122
(dp123
g71
(lp124
I0
aI0
aI0
aI0
aI0
aI0
aF0.0059338304747477647
assV\u5fae\u4fe1
p125
(dp126
g71
(lp127
I0
aI0
aI0
aI0
aI0
aI0
aF0.1270664534270845
assg41
(dp128
g71
(lp129
I0
aI0
aI0
aI0
aI0
aI0
aF0.0085155672698270929
assV\u5fae\u535a
p130
(dp131
g71
(lp132
I0
aI0
aI0
aI0
aI0
aI0
aF0.02429980069408547
assg57
(dp133
g71
(lp134
I0
aI0
aI0
aI0
aI0
aI0
aF0.049226674073577843
assg55
(dp135
g71
(lp136
I0
aI0
aI0
aI0
aI0
aI0
aF0.017877613569668792
assg43
(dp137
g71
(lp138
I0
aI0
aI0
aI0
aI0
aI0
aF0.016920527626861859
assg31
(dp139
g71
(lp140
I0
aI0
aI0
aI0
aI0
aI0
aF0.012993717076672465
assg47
(dp141
g71
(lp142
I0
aI0
aI0
aI0
aI0
aI0
aF0.016422423856654447
assg63
(dp143
g71
(lp144
I0
aI0
aI0
aI0
aI0
aI0
aF0.023200193617863782
asssg17
(dp145
VQQ
p146
(dp147
g71
(lp148
I0
aI0
aI0
aI0
aI0
aI0
aF0.042229664232623025
assV\u5fae\u4fe1
p149
(dp150
g71
(lp151
I0
aI0
aI0
aI0
aI0
aI0
aF0.097695540545251869
assg55
(dp152
g71
(lp153
I0
aI0
aI0
aI0
aI0
aI0
aF0.034864115454838168
assg41
(dp154
g71
(lp155
I0
aI0
aI0
aI0
aI0
aI0
aF0.035123686832035934
assg43
(dp156
g71
(lp157
I0
aI0
aI0
aI0
aI0
aI0
aF0.022364324267242996
assg31
(dp158
g71
(lp159
I0
aI0
aI0
aI0
aI0
aI0
aF0.0085844654211692968
assg47
(dp160
g71
(lp161
I0
aI0
aI0
aI0
aI0
aI0
aF0.011587468923028435
assg63
(dp162
g71
(lp163
I0
aI0
aI0
aI0
aI0
aI0
aF0.051806452554797412
asssg19
(dp164
VQQ
p165
(dp166
g71
(lp167
I0
aI0
aI0
aI0
aI0
aI0
aF0.28959990740113217
assV\u6709\u9053\u8bcd\u5178
p168
(dp169
g71
(lp170
I0
aI0
aI0
aI0
aI0
aI0
aF0.033482590542790652
assg37
(dp171
g71
(lp172
I0
aI0
aI0
aI0
aI0
aI0
aF0.016935648377097403
assVUC\u6d4f\u89c8\u5668
p173
(dp174
g71
(lp175
I0
aI0
aI0
aI0
aI0
aI0
aF0.041994368948080327
assV\u5fae\u4fe1
p176
(dp177
g71
(lp178
I0
aI0
aI0
aI0
aI0
aI0
aF0.4659556860802298
assg15
(dp179
g71
(lp180
I0
aI0
aI0
aI0
aI0
aI0
aF0.028528550617735845
assg41
(dp181
g71
(lp182
I0
aI0
aI0
aI0
aI0
aI0
aF0.07057914281854917
assV[iReader]
p183
(dp184
g71
(lp185
I0
aI0
aI0
aI0
aI0
aI0
aF0.016768913335525153
assV\u5fae\u535a
p186
(dp187
g71
(lp188
I0
aI0
aI0
aI0
aI0
aI0
aF0.1251790060244409
assg57
(dp189
g71
(lp190
I0
aI0
aI0
aI0
aI0
aI0
aF0.11504117710525637
assg55
(dp191
g71
(lp192
I0
aI0
aI0
aI0
aI0
aI0
aF0.095592134584349758
assg43
(dp193
g71
(lp194
I0
aI0
aI0
aI0
aI0
aI0
aF0.074959801360953829
assg47
(dp195
g71
(lp196
I0
aI0
aI0
aI0
aI0
aI0
aF0.075965257591291913
assg63
(dp197
g71
(lp198
I0
aI0
aI0
aI0
aI0
aI0
aF0.10887819652596716
asssg21
(dp199
VQQ
p200
(dp201
g71
(lp202
I0
aI0
aI0
aI0
aI0
aI0
aF0.035502827558744544
assV\u5fae\u4fe1
p203
(dp204
g71
(lp205
I0
aI0
aI0
aI0
aI0
aI0
aF0.0631572263647069
assg41
(dp206
g71
(lp207
I0
aI0
aI0
aI0
aI0
aI0
aF0.011689017287697738
assg55
(dp208
g71
(lp209
I0
aI0
aI0
aI0
aI0
aI0
aF0.0090393832794545808
assg63
(dp210
g71
(lp211
I0
aI0
aI0
aI0
aI0
aI0
aF0.010850033461326731
asssg23
(dp212
g41
(dp213
g71
(lp214
I0
aI0
aI0
aI0
aI0
aI0
aF0.022592221817674292
asssg25
(dp215
VQQ
p216
(dp217
g71
(lp218
I0
aI0
aI0
aI0
aI0
aI0
aF0.015280067713386964
assV\u5fae\u4fe1
p219
(dp220
g71
(lp221
I0
aI0
aI0
aI0
aI0
aI0
aF0.029450897107973894
assg55
(dp222
g71
(lp223
I0
aI0
aI0
aI0
aI0
aI0
aF0.011894601073261348
assg63
(dp224
g71
(lp225
I0
aI0
aI0
aI0
aI0
aI0
aF0.017455405556809814
asssg27
(dp226
VQQ
p227
(dp228
g71
(lp229
I0
aI0
aI0
aI0
aI0
aI0
aF0.061044087870690822
assg11
(dp230
g71
(lp231
I0
aI0
aI0
aI0
aI0
aI0
aF0.0065874842566019049
assV\u5fae\u4fe1
p232
(dp233
g71
(lp234
I0
aI0
aI0
aI0
aI0
aI0
aF0.074865130825807799
assg55
(dp235
g71
(lp236
I0
aI0
aI0
aI0
aI0
aI0
aF0.010045883956907241
assV\u5fae\u535a
p237
(dp238
g71
(lp239
I0
aI0
aI0
aI0
aI0
aI0
aF0.010130769863580006
assg57
(dp240
g71
(lp241
I0
aI0
aI0
aI0
aI0
aI0
aF0.016571399413131887
assg47
(dp242
g71
(lp243
I0
aI0
aI0
aI0
aI0
aI0
aF0.016546665967387214
assg63
(dp244
g71
(lp245
I0
aI0
aI0
aI0
aI0
aI0
aF0.022853953004055787
asssg29
(dp246
V\u5fae\u4fe1
p247
(dp248
g71
(lp249
I0
aI0
aI0
aI0
aI0
aI0
aF0.016515655479636661
assg55
(dp250
g71
(lp251
I0
aI0
aI0
aI0
aI0
aI0
aF0.015882914068937732
assg47
(dp252
g71
(lp253
I0
aI0
aI0
aI0
aI0
aI0
aF0.023055582574080739
assg49
(dp254
g71
(lp255
I0
aI0
aI0
aI0
aI0
aI0
aF0.016800076094972877
asssg31
(dp256
VQQ
p257
(dp258
g71
(lp259
I0
aI0
aI0
aI0
aI0
aI0
aF0.042749598036756424
assV\u5fae\u4fe1
p260
(dp261
g71
(lp262
I0
aI0
aI0
aI0
aI0
aI0
aF0.071984250470422034
assg55
(dp263
g71
(lp264
I0
aI0
aI0
aI0
aI0
aI0
aF0.01615965060255577
assV\u5fae\u535a
p265
(dp266
g71
(lp267
I0
aI0
aI0
aI0
aI0
aI0
aF0.012762630100520748
assg41
(dp268
g71
(lp269
I0
aI0
aI0
aI0
aI0
aI0
aF0.010008146979650807
assg43
(dp270
g71
(lp271
I0
aI0
aI0
aI0
aI0
aI0
aF0.039551982799461323
assg47
(dp272
g71
(lp273
I0
aI0
aI0
aI0
aI0
aI0
aF0.021714540916252665
asssg33
(dp274
V\u5fae\u4fe1
p275
(dp276
g71
(lp277
I0
aI0
aI0
aI0
aI0
aI0
aF0.01298221228815097
assg37
(dp278
g71
(lp279
I0
aI0
aI0
aI0
aI0
aI0
aF0.010662464169116504
asssg35
(dp280
VQQ
p281
(dp282
g71
(lp283
I0
aI0
aI0
aI0
aI0
aI0
aF0.062644669138362599
assg19
(dp284
g71
(lp285
I0
aI0
aI0
aI0
aI0
aI0
aF0.048888719958383967
assg122
(dp286
g71
(lp287
I0
aI0
aI0
aI0
aI0
aI0
aF0.0052222533791511979
assV\u5fae\u4fe1
p288
(dp289
g71
(lp290
I0
aI0
aI0
aI0
aI0
aI0
aF0.11376047612499098
assg15
(dp291
g71
(lp292
I0
aI0
aI0
aI0
aI0
aI0
aF0.016728260402375135
assg41
(dp293
g71
(lp294
I0
aI0
aI0
aI0
aI0
aI0
aF0.0039742326771580096
assg55
(dp295
g71
(lp296
I0
aI0
aI0
aI0
aI0
aI0
aF0.02711776864682831
assg130
(dp297
g71
(lp298
I0
aI0
aI0
aI0
aI0
aI0
aF0.022074440764409349
assg57
(dp299
g71
(lp300
I0
aI0
aI0
aI0
aI0
aI0
aF0.05017594516180858
assg43
(dp301
g71
(lp302
I0
aI0
aI0
aI0
aI0
aI0
aF0.030476515449023796
assg63
(dp303
g71
(lp304
I0
aI0
aI0
aI0
aI0
aI0
aF0.031112674946685979
asssg37
(dp305
V[Sensor Log]
p306
(dp307
g71
(lp308
I0
aI0
aI0
aI0
aI0
aI0
aF0.022277889236836029
assVQQ
p309
(dp310
g71
(lp311
I0
aI0
aI0
aI0
aI0
aI0
aF0.023384578318925181
assV[Polaris Office 4.0]
p312
(dp313
g71
(lp314
I0
aI0
aI0
aI0
aI0
aI0
aF0.015882240566506417
assVUC\u6d4f\u89c8\u5668
p315
(dp316
g71
(lp317
I0
aI0
aI0
aI0
aI0
aI0
aF0.016540654090382769
assV\u5fae\u4fe1
p318
(dp319
g71
(lp320
I0
aI0
aI0
aI0
aI0
aI0
aF0.020895412662486745
asssg39
(dp321
VQQ
p322
(dp323
g71
(lp324
I0
aI0
aI0
aI0
aI0
aI0
aF0.15810311255197954
assg11
(dp325
g71
(lp326
I0
aI0
aI0
aI0
aI0
aI0
aF0.015117392653457747
assg122
(dp327
g71
(lp328
I0
aI0
aI0
aI0
aI0
aI0
aF0.060069165030354033
assV\u5fae\u4fe1
p329
(dp330
g71
(lp331
I0
aI0
aI0
aI0
aI0
aI0
aF0.19737183075632792
assg57
(dp332
g71
(lp333
I0
aI0
aI0
aI0
aI0
aI0
aF0.01546756099650467
assg55
(dp334
g71
(lp335
I0
aI0
aI0
aI0
aI0
aI0
aF0.033005854865204694
assV[iReader]
p336
(dp337
g71
(lp338
I0
aI0
aI0
aI0
aI0
aI0
aF0.01628309767019619
assg41
(dp339
g71
(lp340
I0
aI0
aI0
aI0
aI0
aI0
aF0.064656063009177284
assg19
(dp341
g71
(lp342
I0
aI0
aI0
aI0
aI0
aI0
aF0.061637026906222574
assg43
(dp343
g71
(lp344
I0
aI0
aI0
aI0
aI0
aI0
aF0.040874767824827088
assg47
(dp345
g71
(lp346
I0
aI0
aI0
aI0
aI0
aI0
aF0.018333412445589146
assg63
(dp347
g71
(lp348
I0
aI0
aI0
aI0
aI0
aI0
aF0.014725006368133436
asssg41
(dp349
VQQ
p350
(dp351
g71
(lp352
I0
aI0
aI0
aI0
aI0
aI0
aF0.068296771977037624
assV\u66b4\u98ce\u5f71\u97f3
p353
(dp354
g71
(lp355
I0
aI0
aI0
aI0
aI0
aI0
aF0.016948049913877238
assg19
(dp356
g71
(lp357
I0
aI0
aI0
aI0
aI0
aI0
aF0.016952590066317233
assV\u5fae\u4fe1
p358
(dp359
g71
(lp360
I0
aI0
aI0
aI0
aI0
aI0
aF0.13070098404886696
assg55
(dp361
g71
(lp362
I0
aI0
aI0
aI0
aI0
aI0
aF0.027979350211028327
assg57
(dp363
g71
(lp364
I0
aI0
aI0
aI0
aI0
aI0
aF0.012569090048207701
assg43
(dp365
g71
(lp366
I0
aI0
aI0
aI0
aI0
aI0
aF0.067314897380282998
assg63
(dp367
g71
(lp368
I0
aI0
aI0
aI0
aI0
aI0
aF0.038336204908227346
assg47
(dp369
g71
(lp370
I0
aI0
aI0
aI0
aI0
aI0
aF0.027519443412863321
assg31
(dp371
g71
(lp372
I0
aI0
aI0
aI0
aI0
aI0
aF0.013771805632367722
asssg43
(dp373
VQQ
p374
(dp375
g71
(lp376
I0
aI0
aI0
aI0
aI0
aI0
aF0.24894292028541889
assg17
(dp377
g71
(lp378
I0
aI0
aI0
aI0
aI0
aI0
aF0.029771204601108908
assg21
(dp379
g71
(lp380
I0
aI0
aI0
aI0
aI0
aI0
aF0.016421522462176458
assg19
(dp381
g71
(lp382
I0
aI0
aI0
aI0
aI0
aI0
aF0.074100231864092023
assg173
(dp383
g71
(lp384
I0
aI0
aI0
aI0
aI0
aI0
aF0.023624051835804436
assV\u5fae\u4fe1
p385
(dp386
g71
(lp387
I0
aI0
aI0
aI0
aI0
aI0
aF0.31494344178176537
assg41
(dp388
g71
(lp389
I0
aI0
aI0
aI0
aI0
aI0
aF0.075614699827551562
assg55
(dp390
g71
(lp391
I0
aI0
aI0
aI0
aI0
aI0
aF0.075286667368334587
assV[360\u624b\u673a\u52a9\u624b]
p392
(dp393
g71
(lp394
I0
aI0
aI0
aI0
aI0
aI0
aF0.01681543165509761
assg57
(dp395
g71
(lp396
I0
aI0
aI0
aI0
aI0
aI0
aF0.025390642602498632
assV\u652f\u4ed8\u5b9d\u94b1\u5305
p397
(dp398
g71
(lp399
I0
aI0
aI0
aI0
aI0
aI0
aF0.016681434649937845
assg31
(dp400
g71
(lp401
I0
aI0
aI0
aI0
aI0
aI0
aF0.02438813261289869
assg47
(dp402
g71
(lp403
I0
aI0
aI0
aI0
aI0
aI0
aF0.060982285906527246
assg49
(dp404
g71
(lp405
I0
aI0
aI0
aI0
aI0
aI0
aF0.016650170831179981
assg63
(dp406
g71
(lp407
I0
aI0
aI0
aI0
aI0
aI0
aF0.067355625854780971
asssg45
(dp408
g37
(dp409
g71
(lp410
I0
aI0
aI0
aI0
aI0
aI0
aF0.023014546423743967
assg63
(dp411
g71
(lp412
I0
aI0
aI0
aI0
aI0
aI0
aF0.015418353105107028
asssg47
(dp413
VQQ
p414
(dp415
g71
(lp416
I0
aI0
aI0
aI0
aI0
aI0
aF0.18638857977859696
assV\u6709\u9053\u8bcd\u5178
p417
(dp418
g71
(lp419
I0
aI0
aI0
aI0
aI0
aI0
aF0.016949756963687636
assg37
(dp420
g71
(lp421
I0
aI0
aI0
aI0
aI0
aI0
aF0.011254418021679511
assg11
(dp422
g71
(lp423
I0
aI0
aI0
aI0
aI0
aI0
aF0.02377680953447248
assg173
(dp424
g71
(lp425
I0
aI0
aI0
aI0
aI0
aI0
aF0.027261573834752667
assV\u5fae\u4fe1
p426
(dp427
g71
(lp428
I0
aI0
aI0
aI0
aI0
aI0
aF0.24462345581453673
assg21
(dp429
g71
(lp430
I0
aI0
aI0
aI0
aI0
aI0
aF0.018690099107037689
assg57
(dp431
g71
(lp432
I0
aI0
aI0
aI0
aI0
aI0
aF0.053110490015666319
assg55
(dp433
g71
(lp434
I0
aI0
aI0
aI0
aI0
aI0
aF0.075597168003546156
assV[iReader]
p435
(dp436
g71
(lp437
I0
aI0
aI0
aI0
aI0
aI0
aF0.008979871372561914
assg8
(dp438
g71
(lp439
I0
aI0
aI0
aI0
aI0
aI0
aF0.022294502630339299
assg237
(dp440
g71
(lp441
I0
aI0
aI0
aI0
aI0
aI0
aF0.024447277048354914
assg41
(dp442
g71
(lp443
I0
aI0
aI0
aI0
aI0
aI0
aF0.040524287646032754
assg19
(dp444
g71
(lp445
I0
aI0
aI0
aI0
aI0
aI0
aF0.062234205589715069
assg43
(dp446
g71
(lp447
I0
aI0
aI0
aI0
aI0
aI0
aF0.06881851066569096
assg31
(dp448
g71
(lp449
I0
aI0
aI0
aI0
aI0
aI0
aF0.019134823385688397
assg15
(dp450
g71
(lp451
I0
aI0
aI0
aI0
aI0
aI0
aF0.022076276601594749
assg63
(dp452
g71
(lp453
I0
aI0
aI0
aI0
aI0
aI0
aF0.068335242168320195
asssg49
(dp454
VQQ
p455
(dp456
g71
(lp457
I0
aI0
aI0
aI0
aI0
aI0
aF0.016857352004370958
assg247
(dp458
g71
(lp459
I0
aI0
aI0
aI0
aI0
aI0
aF0.050256241673744297
assg27
(dp460
g71
(lp461
I0
aI0
aI0
aI0
aI0
aI0
aF0.040132264993381281
assg47
(dp462
g71
(lp463
I0
aI0
aI0
aI0
aI0
aI0
aF0.023294226621843869
assg55
(dp464
g71
(lp465
I0
aI0
aI0
aI0
aI0
aI0
aF0.01605607400210407
asssg51
(dp466
g11
(dp467
g71
(lp468
I0
aI0
aI0
aI0
aI0
aI0
aF0.064867212254731257
assg13
(dp469
g71
(lp470
I0
aI0
aI0
aI0
aI0
aI0
aF0.087866301707814967
assg15
(dp471
g71
(lp472
I0
aI0
aI0
aI0
aI0
aI0
aF0.045703464735291091
assg17
(dp473
g71
(lp474
I0
aI0
aI0
aI0
aI0
aI0
aF0.078368635221101504
assg19
(dp475
g71
(lp476
I0
aI0
aI0
aI0
aI0
aI0
aF0.23690791165718444
assg21
(dp477
g71
(lp478
I0
aI0
aI0
aI0
aI0
aI0
aF0.041980650294942294
assV[iReader]
p479
(dp480
g71
(lp481
I0
aI0
aI0
aI0
aI0
aI0
aF0.032832798937185666
assg27
(dp482
g71
(lp483
I0
aI0
aI0
aI0
aI0
aI0
aF0.022589302138597105
assV[360\u624b\u673a\u52a9\u624b]
p484
(dp485
g71
(lp486
I0
aI0
aI0
aI0
aI0
aI0
aF0.017723865624056805
assg31
(dp487
g71
(lp488
I0
aI0
aI0
aI0
aI0
aI0
aF0.033416239215256827
assV[Polaris Office 4.0]
p489
(dp490
g71
(lp491
I0
aI0
aI0
aI0
aI0
aI0
aF0.020087601852367312
assg35
(dp492
g71
(lp493
I0
aI0
aI0
aI0
aI0
aI0
aF0.063584470746738286
assg37
(dp494
g71
(lp495
I0
aI0
aI0
aI0
aI0
aI0
aF0.033945696965472796
assg39
(dp496
g71
(lp497
I0
aI0
aI0
aI0
aI0
aI0
aF0.20303765181785452
assg41
(dp498
g71
(lp499
I0
aI0
aI0
aI0
aI0
aI0
aF0.19820776297552536
assg43
(dp500
g71
(lp501
I0
aI0
aI0
aI0
aI0
aI0
aF0.23900395322696749
assg47
(dp502
g71
(lp503
I0
aI0
aI0
aI0
aI0
aI0
aF0.16179952831823566
assg49
(dp504
g71
(lp505
I0
aI0
aI0
aI0
aI0
aI0
aF0.039207204184598526
assV\u5fae\u4fe1
p506
(dp507
g71
(lp508
I0
aI0
aI0
aI0
aI0
aI0
aF0.95544961929621808
assg55
(dp509
g71
(lp510
I0
aI0
aI0
aI0
aI0
aI0
aF0.20255846289806215
assg57
(dp511
g71
(lp512
I0
aI0
aI0
aI0
aI0
aI0
aF0.18580314758984107
assg59
(dp513
g71
(lp514
I0
aI0
aI0
aI0
aI0
aI0
aF0.038499293036675965
assg63
(dp515
g71
(lp516
I0
aI0
aI0
aI0
aI0
aI0
aF0.22371197767180731
asssg53
(dp517
g11
(dp518
g71
(lp519
I0
aI0
aI0
aI0
aI0
aI0
aF0.090035981468511203
assg13
(dp520
g71
(lp521
I0
aI0
aI0
aI0
aI0
aI0
aF0.14975368691979646
assg15
(dp522
g71
(lp523
I0
aI0
aI0
aI0
aI0
aI0
aF0.073626423598398744
assg17
(dp524
g71
(lp525
I0
aI0
aI0
aI0
aI0
aI0
aF0.11779848425273209
assg19
(dp526
g71
(lp527
I0
aI0
aI0
aI0
aI0
aI0
aF0.37170088051962707
assg21
(dp528
g71
(lp529
I0
aI0
aI0
aI0
aI0
aI0
aF0.052461895431615613
assV[iReader]
p530
(dp531
g71
(lp532
I0
aI0
aI0
aI0
aI0
aI0
aF0.042653896898476658
assg25
(dp533
g71
(lp534
I0
aI0
aI0
aI0
aI0
aI0
aF0.028818980750236173
assg27
(dp535
g71
(lp536
I0
aI0
aI0
aI0
aI0
aI0
aF0.022543614265836402
assV[360\u624b\u673a\u52a9\u624b]
p537
(dp538
g71
(lp539
I0
aI0
aI0
aI0
aI0
aI0
aF0.039164315135760561
assg31
(dp540
g71
(lp541
I0
aI0
aI0
aI0
aI0
aI0
aF0.071292352666262299
assV[Polaris Office 4.0]
p542
(dp543
g71
(lp544
I0
aI0
aI0
aI0
aI0
aI0
aF0.032030009655846868
assg35
(dp545
g71
(lp546
I0
aI0
aI0
aI0
aI0
aI0
aF0.069389258054149278
assg37
(dp547
g71
(lp548
I0
aI0
aI0
aI0
aI0
aI0
aF0.0283841712057466
assg39
(dp549
g71
(lp550
I0
aI0
aI0
aI0
aI0
aI0
aF0.42111737004442162
assg41
(dp551
g71
(lp552
I0
aI0
aI0
aI0
aI0
aI0
aF0.26753889184299667
assg43
(dp553
g71
(lp554
I0
aI0
aI0
aI0
aI0
aI0
aF0.32366484457017247
assg47
(dp555
g71
(lp556
I0
aI0
aI0
aI0
aI0
aI0
aF0.23349153090410829
assg49
(dp557
g71
(lp558
I0
aI0
aI0
aI0
aI0
aI0
aF0.052049900797161819
assg51
(dp559
g71
(lp560
I0
aI0
aI0
aI0
aI0
aI0
aF1
assg55
(dp561
g71
(lp562
I0
aI0
aI0
aI0
aI0
aI0
aF0.35154804118502214
assg57
(dp563
g71
(lp564
I0
aI0
aI0
aI0
aI0
aI0
aF0.22309922908627697
assg59
(dp565
g71
(lp566
I0
aI0
aI0
aI0
aI0
aI0
aF0.06641418158005534
assg61
(dp567
g71
(lp568
I0
aI0
aI0
aI0
aI0
aI0
aF0.029173630576326121
assg63
(dp569
g71
(lp570
I0
aI0
aI0
aI0
aI0
aI0
aF0.34353424574107538
asssg55
(dp571
VQQ
p572
(dp573
g71
(lp574
I0
aI0
aI0
aI0
aI0
aI0
aF0.28659126160759768
assg17
(dp575
g71
(lp576
I0
aI0
aI0
aI0
aI0
aI0
aF0.040685094938176646
assg15
(dp577
g71
(lp578
I0
aI0
aI0
aI0
aI0
aI0
aF0.031028288763321192
assg19
(dp579
g71
(lp580
I0
aI0
aI0
aI0
aI0
aI0
aF0.10087805548980065
assg13
(dp581
g71
(lp582
I0
aI0
aI0
aI0
aI0
aI0
aF0.043275226645844975
assV\u5fae\u4fe1
p583
(dp584
g71
(lp585
I0
aI0
aI0
aI0
aI0
aI0
aF0.39033306478390606
assg57
(dp586
g71
(lp587
I0
aI0
aI0
aI0
aI0
aI0
aF0.060025930401340709
assg21
(dp588
g71
(lp589
I0
aI0
aI0
aI0
aI0
aI0
aF0.019227844435620325
assV[iReader]
p590
(dp591
g71
(lp592
I0
aI0
aI0
aI0
aI0
aI0
aF0.020833776088986577
assg39
(dp593
g71
(lp594
I0
aI0
aI0
aI0
aI0
aI0
aF0.096534906955817762
assg41
(dp595
g71
(lp596
I0
aI0
aI0
aI0
aI0
aI0
aF0.073497715135015754
assg59
(dp597
g71
(lp598
I0
aI0
aI0
aI0
aI0
aI0
aF0.030136618005460494
assg43
(dp599
g71
(lp600
I0
aI0
aI0
aI0
aI0
aI0
aF0.072063625265690448
assg11
(dp601
g71
(lp602
I0
aI0
aI0
aI0
aI0
aI0
aF0.023512870941513005
assg35
(dp603
g71
(lp604
I0
aI0
aI0
aI0
aI0
aI0
aF0.020280937561313356
assg47
(dp605
g71
(lp606
I0
aI0
aI0
aI0
aI0
aI0
aF0.048551790821436215
assg63
(dp607
g71
(lp608
I0
aI0
aI0
aI0
aI0
aI0
aF0.12687792326011807
asssg57
(dp609
VQQ
p610
(dp611
g71
(lp612
I0
aI0
aI0
aI0
aI0
aI0
aF0.23360868435381191
assg168
(dp613
g71
(lp614
I0
aI0
aI0
aI0
aI0
aI0
aF0.037209445005868702
assg19
(dp615
g71
(lp616
I0
aI0
aI0
aI0
aI0
aI0
aF0.17683839344321536
assg122
(dp617
g71
(lp618
I0
aI0
aI0
aI0
aI0
aI0
aF0.022661977847399366
assV\u5fae\u4fe1
p619
(dp620
g71
(lp621
I0
aI0
aI0
aI0
aI0
aI0
aF0.40348622015023916
assg15
(dp622
g71
(lp623
I0
aI0
aI0
aI0
aI0
aI0
aF0.0312550413591881
assg55
(dp624
g71
(lp625
I0
aI0
aI0
aI0
aI0
aI0
aF0.076463354136333331
assg237
(dp626
g71
(lp627
I0
aI0
aI0
aI0
aI0
aI0
aF0.096313949950286734
assg41
(dp628
g71
(lp629
I0
aI0
aI0
aI0
aI0
aI0
aF0.041552023247201662
assg43
(dp630
g71
(lp631
I0
aI0
aI0
aI0
aI0
aI0
aF0.041996115030273368
assg11
(dp632
g71
(lp633
I0
aI0
aI0
aI0
aI0
aI0
aF0.0075204242006745451
assg31
(dp634
g71
(lp635
I0
aI0
aI0
aI0
aI0
aI0
aF0.007836216262444972
assg47
(dp636
g71
(lp637
I0
aI0
aI0
aI0
aI0
aI0
aF0.051108444817064703
assg63
(dp638
g71
(lp639
I0
aI0
aI0
aI0
aI0
aI0
aF0.096696393986948695
asssg59
(dp640
VQQ
p641
(dp642
g71
(lp643
I0
aI0
aI0
aI0
aI0
aI0
aF0.05043349589524538
assg19
(dp644
g71
(lp645
I0
aI0
aI0
aI0
aI0
aI0
aF0.029157022028966629
assV\u5fae\u4fe1
p646
(dp647
g71
(lp648
I0
aI0
aI0
aI0
aI0
aI0
aF0.084795381936583036
assg15
(dp649
g71
(lp650
I0
aI0
aI0
aI0
aI0
aI0
aF0.02312708694892469
assg55
(dp651
g71
(lp652
I0
aI0
aI0
aI0
aI0
aI0
aF0.023646032595840902
assg57
(dp653
g71
(lp654
I0
aI0
aI0
aI0
aI0
aI0
aF0.021309310285268269
assg47
(dp655
g71
(lp656
I0
aI0
aI0
aI0
aI0
aI0
aF0.022331769784883299
assg63
(dp657
g71
(lp658
I0
aI0
aI0
aI0
aI0
aI0
aF0.011606481528045819
asssg61
(dp659
g216
(dp660
g71
(lp661
I0
aI0
aI0
aI0
aI0
aI0
aF0.014824610944126406
assg219
(dp662
g71
(lp663
I0
aI0
aI0
aI0
aI0
aI0
aF0.028863071410749397
assg25
(dp664
g71
(lp665
I0
aI0
aI0
aI0
aI0
aI0
aF0.016760591278238725
assg55
(dp666
g71
(lp667
I0
aI0
aI0
aI0
aI0
aI0
aF0.011303546125488747
assg63
(dp668
g71
(lp669
I0
aI0
aI0
aI0
aI0
aI0
aF0.01685598153864792
asssg63
(dp670
VQQ
p671
(dp672
g71
(lp673
I0
aI0
aI0
aI0
aI0
aI0
aF0.25281274824726274
assg17
(dp674
g71
(lp675
I0
aI0
aI0
aI0
aI0
aI0
aF0.050944499471067731
assg168
(dp676
g71
(lp677
I0
aI0
aI0
aI0
aI0
aI0
aF0.023778777503670415
assg37
(dp678
g71
(lp679
I0
aI0
aI0
aI0
aI0
aI0
aF0.0097940987306415154
assg19
(dp680
g71
(lp681
I0
aI0
aI0
aI0
aI0
aI0
aF0.092247305476210628
assg173
(dp682
g71
(lp683
I0
aI0
aI0
aI0
aI0
aI0
aF0.038730220636236309
assV\u5fae\u4fe1
p684
(dp685
g71
(lp686
I0
aI0
aI0
aI0
aI0
aI0
aF0.39911599866599151
assg15
(dp687
g71
(lp688
I0
aI0
aI0
aI0
aI0
aI0
aF0.020642779495091228
assg41
(dp689
g71
(lp690
I0
aI0
aI0
aI0
aI0
aI0
aF0.065314134888496828
assg55
(dp691
g71
(lp692
I0
aI0
aI0
aI0
aI0
aI0
aF0.12788470598218479
assg47
(dp693
g71
(lp694
I0
aI0
aI0
aI0
aI0
aI0
aF0.065772407413446643
assg237
(dp695
g71
(lp696
I0
aI0
aI0
aI0
aI0
aI0
aF0.090260339402606388
assg57
(dp697
g71
(lp698
I0
aI0
aI0
aI0
aI0
aI0
aF0.050172762798123792
assg59
(dp699
g71
(lp700
I0
aI0
aI0
aI0
aI0
aI0
aF0.03055514405834665
assg43
(dp701
g71
(lp702
I0
aI0
aI0
aI0
aI0
aI0
aF0.073599567966979487
assV[Sensor Log]
p703
(dp704
g71
(lp705
I0
aI0
aI0
aI0
aI0
aI0
aF0.019905008267341647
assg31
(dp706
g71
(lp707
I0
aI0
aI0
aI0
aI0
aI0
aF0.021586397731331874
assV[360\u624b\u673a\u52a9\u624b]
p708
(dp709
g71
(lp710
I0
aI0
aI0
aI0
aI0
aI0
aF0.014457456019305896
assg49
(dp711
g71
(lp712
I0
aI0
aI0
aI0
aI0
aI0
aF0.014264903838104982
assg11
(dp713
g71
(lp714
I0
aI0
aI0
aI0
aI0
aI0
aF0.034653763377775169
assssS'edge'
p715
g68
sS'pred'
p716
(dp717
g8
(dp718
g47
g438
ssg11
(dp719
VQQ
p720
g467
sV\u5fae\u4fe1
p721
g518
sg55
g601
sg237
g325
sg57
g632
sg43
g398
sg27
g230
sg47
g422
sg63
g713
ssg13
(dp722
VQQ
p723
g469
sg417
g286
sg37
g316
sg19
g174
sV\u5fae\u4fe1
p724
g520
sg15
g123
sg55
g581
sg130
g327
sg57
g617
sg43
g383
sg47
g424
sg63
g682
ssg15
(dp725
VQQ
p726
g471
sg417
g291
sg19
g179
sV\u5fae\u4fe1
p727
g522
sg55
g577
sg57
g622
sg59
g649
sg47
g450
sg63
g687
ssg17
(dp728
VQQ
p729
g473
sV\u5fae\u4fe1
p730
g524
sg55
g575
sg41
g354
sg43
g377
sg63
g674
ssg19
(dp731
VQQ
p732
g475
sg35
g284
sg173
g101
sV\u5fae\u4fe1
p733
g526
sg15
g120
sg41
g356
sg55
g579
sg186
g341
sg57
g615
sg59
g644
sg43
g381
sg47
g444
sg63
g680
ssg21
(dp734
VQQ
p735
g477
sV\u5fae\u4fe1
p736
g528
sg43
g379
sg47
g429
sg55
g588
ssg23
(dp737
g572
g480
sg19
g184
sV\u5fae\u4fe1
p738
g531
sg55
g591
sg39
g337
sg47
g436
ssg25
(dp739
V\u5fae\u4fe1
p740
g533
sg61
g664
ssg27
(dp741
g720
g482
sg721
g535
sV\u767e\u5ea6
p742
g460
ssg29
(dp743
VQQ
p744
g485
sV\u5fae\u4fe1
p745
g538
sV\u652f\u4ed8\u5b9d\u94b1\u5305
p746
g89
sg43
g393
sg63
g709
ssg31
(dp747
VQQ
p748
g487
sV\u66b4\u98ce\u5f71\u97f3
p749
g158
sg15
g139
sV\u5fae\u4fe1
p750
g540
sg57
g634
sg41
g371
sg43
g400
sg47
g448
sg63
g706
ssg33
(dp751
VQQ
p752
g490
sV\u5fae\u4fe1
p753
g543
sg37
g313
ssg35
(dp754
VQQ
p755
g492
sg19
g169
sV\u5fae\u4fe1
p756
g545
sg55
g603
sg57
g613
sg47
g418
sg63
g676
ssg37
(dp757
VQQ
p758
g494
sV[Polaris Office 4.0]
p759
g278
sg19
g171
sVUC\u6d4f\u89c8\u5668
p760
g99
sV\u5fae\u4fe1
p761
g547
sV[Sensor Log]
p762
g409
sg47
g420
sg63
g678
ssg39
(dp763
g572
g496
sg417
g297
sg19
g187
sg738
g549
sg15
g131
sg55
g593
sg57
g626
sg31
g266
sg27
g238
sg47
g440
sg63
g695
ssg41
(dp764
g572
g498
sV\u66b4\u98ce\u5f71\u97f3
p765
g154
sg417
g293
sg19
g181
sg173
g108
sg738
g551
sg21
g206
sg15
g128
sg55
g595
sV[iReader]
p766
g213
sg39
g339
sg57
g628
sg43
g388
sg31
g268
sg47
g442
sg63
g689
ssg43
(dp767
g51
g500
sg749
g156
sg35
g301
sg19
g193
sg173
g110
sg53
g553
sg57
g630
sg55
g599
sg265
g343
sg41
g365
sg31
g270
sg8
g73
sg63
g701
sg15
g137
sg47
g446
sg746
g86
ssg45
(dp768
g37
g307
sg63
g704
ssg47
(dp769
g350
g502
sg749
g160
sg15
g141
sg746
g84
sVUC\u6d4f\u89c8\u5668
p770
g112
sV\u5fae\u4fe1
p771
g555
sg57
g636
sg8
g70
sg55
g605
sg19
g195
sg186
g345
sg41
g369
sg59
g655
sg31
g272
sg43
g402
sg27
g242
sV[360\u624b\u673a\u52a9\u624b]
p772
g252
sg49
g462
sg63
g693
ssg49
(dp773
g744
g504
sg746
g91
sg745
g557
sg43
g404
sV[360\u624b\u673a\u52a9\u624b]
p774
g254
sg63
g711
ssg51
(dp775
g11
g77
sg13
g97
sg15
g118
sg17
g147
sg19
g166
sg21
g201
sg25
g217
sg27
g228
sg31
g258
sg35
g282
sg37
g310
sg237
g323
sg41
g351
sg43
g375
sg47
g415
sg742
g456
sg53
g559
sg55
g573
sg57
g611
sg59
g642
sg61
g660
sg63
g672
ssg53
(dp776
g11
g80
sg13
g104
sg15
g126
sg17
g150
sg19
g177
sg21
g204
sg25
g220
sg27
g233
sV[360\u624b\u673a\u52a9\u624b]
p777
g248
sg31
g261
sV[Polaris Office 4.0]
p778
g276
sg35
g289
sg37
g319
sg237
g330
sg41
g359
sg43
g386
sg47
g427
sg49
g458
sg51
g507
sg55
g584
sg57
g620
sg59
g647
sg61
g662
sg63
g685
ssg55
(dp779
g11
g82
sg173
g106
sg15
g135
sg765
g152
sg19
g191
sg21
g208
sg25
g222
sg27
g235
sV[360\u624b\u673a\u52a9\u624b]
p780
g250
sg31
g263
sg35
g295
sg237
g334
sg41
g361
sg43
g390
sg47
g433
sg49
g464
sg732
g509
sg738
g561
sg57
g624
sg59
g651
sg61
g666
sg63
g691
ssg57
(dp781
g732
g511
sg35
g299
sg19
g189
sg733
g563
sg15
g133
sg55
g586
sg186
g332
sg41
g363
sg59
g653
sg43
g395
sg27
g240
sg47
g431
sg63
g697
ssg59
(dp782
VQQ
p783
g513
sV\u5fae\u4fe1
p784
g565
sg55
g597
sg63
g699
ssg61
(dp785
g740
g567
ssg63
(dp786
VQQ
p787
g515
sg17
g162
sg61
g668
sg11
g93
sg173
g114
sV\u5fae\u4fe1
p788
g569
sg21
g210
sg15
g143
sg41
g367
sg55
g607
sg237
g347
sg57
g638
sg59
g657
sg25
g224
sg43
g406
sV[Sensor Log]
p789
g411
sg27
g244
sg35
g303
sg47
g452
sg19
g197
sssS'adj'
p790
g68
sb.