ccopy_reg
_reconstructor
p1
(cnetworkx.classes.digraph
DiGraph
p2
c__builtin__
object
p3
NtRp4
(dp5
S'node'
p6
(dp7
VQQ
p8
(dp9
S'weight'
p10
F0.02
ssV\u817e\u8baf\u65b0\u95fb
p11
(dp12
g10
F0
ssV[ColorOS\u684c\u9762]
p13
(dp14
g10
F0.46999999999999997
ssVCalendar.apk
p15
(dp16
g10
F0
ssV\u7231\u5947\u827a\u89c6\u9891
p17
(dp18
g10
F0.02
ssV\u5fae\u4fe1
p19
(dp20
g10
F0.01
ssV[\u6e38\u620f\u4e2d\u5fc3]
p21
(dp22
g10
F0
ssV[\u653e\u5f00\u90a3\u4e09\u56fd]
p23
(dp24
g10
F0.20000000000000001
ssV[\u6b22\u4e50\u9ebb\u5c06\u5168\u96c6]
p25
(dp26
g10
F0.040000000000000001
ssV[\u5fcd\u8005\u767e\u5206\u767e]
p27
(dp28
g10
F0.01
ssV\u76f8\u673a
p29
(dp30
g10
F0
ssV[\u8f6f\u4ef6\u5546\u5e97]
p31
(dp32
g10
F0.02
ssV\u5fae\u535a
p33
(dp34
g10
F0
ssVClock.apk
p35
(dp36
g10
F0.01
ssV[\u7761\u89c9\u8bf7\u5173\u706f]
p37
(dp38
g10
F0
ssVMms.apk
p39
(dp40
g10
F0.070000000000000007
ssV\u4e50\u89c6\u89c6\u9891
p41
(dp42
g10
F0.01
ssVBrowser.apk
p43
(dp44
g10
F0.02
ssV[OppoPreventMode]
p45
(dp46
g10
F0.01
ssVPhone.apk
p47
(dp48
g10
F0.01
sssS'graph'
p49
(dp50
sS'succ'
p51
(dp52
g8
(dp53
V[\u8f6f\u4ef6\u5546\u5e97]
p54
(dp55
S'weights'
p56
(lp57
I0
aI0
aI0
aI0
aI0
aI0
aF0.19615416870489333
assV\u5fae\u4fe1
p58
(dp59
g56
(lp60
I0
aI0
aI0
aI0
aI0
aI0
aF0.14482765478399268
assV[ColorOS\u684c\u9762]
p61
(dp62
g56
(lp63
I0
aI0
aI0
aI0
aI0
aI0
aF0.42474051996802975
assg43
(dp64
g56
(lp65
I0
aI0
aI0
aI0
aI0
aI0
aF0.18251265425637003
assV[\u7761\u89c9\u8bf7\u5173\u706f]
p66
(dp67
g56
(lp68
I0
aI0
aI0
aI0
aI0
aI0
aF0.19556572416609358
asssg11
(dp69
V[ColorOS\u684c\u9762]
p70
(dp71
g56
(lp72
I0
aI0
aI0
aI0
aI0
aI0
aF0.12164386816570964
assV[\u653e\u5f00\u90a3\u4e09\u56fd]
p73
(dp74
g56
(lp75
I0
aI0
aI0
aI0
aI0
aI0
aF0.080572465990990189
asssg13
(dp76
VQQ
p77
(dp78
g56
(lp79
I0
aI0
aI0
aI0
aI0
aI0
aF0.62303609932696702
assg11
(dp80
g56
(lp81
I0
aI0
aI0
aI0
aI0
aI0
aF0.07485561489752153
assg15
(dp82
g56
(lp83
I0
aI0
aI0
aI0
aI0
aI0
aF0.1753396129092222
assg17
(dp84
g56
(lp85
I0
aI0
aI0
aI0
aI0
aI0
aF0.21974382839004059
assg19
(dp86
g56
(lp87
I0
aI0
aI0
aI0
aI0
aI0
aF0.40869023510804992
assV[\u6e38\u620f\u4e2d\u5fc3]
p88
(dp89
g56
(lp90
I0
aI0
aI0
aI0
aI0
aI0
aF0.11358521190340096
assV[\u653e\u5f00\u90a3\u4e09\u56fd]
p91
(dp92
g56
(lp93
I0
aI0
aI0
aI0
aI0
aI0
aF0.88733303301848199
assV[\u5fcd\u8005\u767e\u5206\u767e]
p94
(dp95
g56
(lp96
I0
aI0
aI0
aI0
aI0
aI0
aF0.33200001933499584
assV[\u6b22\u4e50\u9ebb\u5c06\u5168\u96c6]
p97
(dp98
g56
(lp99
I0
aI0
aI0
aI0
aI0
aI0
aF0.71673358171665136
assg29
(dp100
g56
(lp101
I0
aI0
aI0
aI0
aI0
aI0
aF0.10333062188472163
assV[\u8f6f\u4ef6\u5546\u5e97]
p102
(dp103
g56
(lp104
I0
aI0
aI0
aI0
aI0
aI0
aF0.48081795906340102
assg33
(dp105
g56
(lp106
I0
aI0
aI0
aI0
aI0
aI0
aF0.12470422671248894
assg35
(dp107
g56
(lp108
I0
aI0
aI0
aI0
aI0
aI0
aF0.38712917631821292
assV[\u7761\u89c9\u8bf7\u5173\u706f]
p109
(dp110
g56
(lp111
I0
aI0
aI0
aI0
aI0
aI0
aF0.32553636898094296
assg39
(dp112
g56
(lp113
I0
aI0
aI0
aI0
aI0
aI0
aF0.61413493391385088
assg43
(dp114
g56
(lp115
I0
aI0
aI0
aI0
aI0
aI0
aF0.46015141672504456
assg47
(dp116
g56
(lp117
I0
aI0
aI0
aI0
aI0
aI0
aF1
asssg15
(dp118
V[ColorOS\u684c\u9762]
p119
(dp120
g56
(lp121
I0
aI0
aI0
aI0
aI0
aI0
aF0.32047659468990952
assV[\u8f6f\u4ef6\u5546\u5e97]
p122
(dp123
g56
(lp124
I0
aI0
aI0
aI0
aI0
aI0
aF0.14357046488401937
assV[\u653e\u5f00\u90a3\u4e09\u56fd]
p125
(dp126
g56
(lp127
I0
aI0
aI0
aI0
aI0
aI0
aF0.18172146614537671
assV[\u5fcd\u8005\u767e\u5206\u767e]
p128
(dp129
g56
(lp130
I0
aI0
aI0
aI0
aI0
aI0
aF0.086209656554268002
assV[\u6b22\u4e50\u9ebb\u5c06\u5168\u96c6]
p131
(dp132
g56
(lp133
I0
aI0
aI0
aI0
aI0
aI0
aF0.1528902088526031
assg35
(dp134
g56
(lp135
I0
aI0
aI0
aI0
aI0
aI0
aF0.1013819661879518
assg39
(dp136
g56
(lp137
I0
aI0
aI0
aI0
aI0
aI0
aF0.042114962632322388
assg47
(dp138
g56
(lp139
I0
aI0
aI0
aI0
aI0
aI0
aF0.14381443802353366
asssg17
(dp140
V[ColorOS\u684c\u9762]
p141
(dp142
g56
(lp143
I0
aI0
aI0
aI0
aI0
aI0
aF0.21811274566812774
assV[\u653e\u5f00\u90a3\u4e09\u56fd]
p144
(dp145
g56
(lp146
I0
aI0
aI0
aI0
aI0
aI0
aF0.029948259328601529
assg39
(dp147
g56
(lp148
I0
aI0
aI0
aI0
aI0
aI0
aF0.099415626764017162
asssg19
(dp149
VQQ
p150
(dp151
g56
(lp152
I0
aI0
aI0
aI0
aI0
aI0
aF0.25468345384714008
assV[ColorOS\u684c\u9762]
p153
(dp154
g56
(lp155
I0
aI0
aI0
aI0
aI0
aI0
aF0.37228372553394429
assV[\u8f6f\u4ef6\u5546\u5e97]
p156
(dp157
g56
(lp158
I0
aI0
aI0
aI0
aI0
aI0
aF0.13892822293269219
assV[\u5fcd\u8005\u767e\u5206\u767e]
p159
(dp160
g56
(lp161
I0
aI0
aI0
aI0
aI0
aI0
aF0.10002327041811168
assV[\u7761\u89c9\u8bf7\u5173\u706f]
p162
(dp163
g56
(lp164
I0
aI0
aI0
aI0
aI0
aI0
aF0.13851280955704509
assg43
(dp165
g56
(lp166
I0
aI0
aI0
aI0
aI0
aI0
aF0.12929909767254597
asssg21
(dp167
V[ColorOS\u684c\u9762]
p168
(dp169
g56
(lp170
I0
aI0
aI0
aI0
aI0
aI0
aF0.085340018725573161
assg39
(dp171
g56
(lp172
I0
aI0
aI0
aI0
aI0
aI0
aF0.084043009488999038
asssg23
(dp173
g77
(dp174
g56
(lp175
I0
aI0
aI0
aI0
aI0
aI0
aF0.20043471187174275
assV[ColorOS\u684c\u9762]
p176
(dp177
g56
(lp178
I0
aI0
aI0
aI0
aI0
aI0
aF0.99505369377664787
assg15
(dp179
g56
(lp180
I0
aI0
aI0
aI0
aI0
aI0
aF0.10347297710272628
assV[\u8f6f\u4ef6\u5546\u5e97]
p181
(dp182
g56
(lp183
I0
aI0
aI0
aI0
aI0
aI0
aF0.24467525179487015
assg19
(dp184
g56
(lp185
I0
aI0
aI0
aI0
aI0
aI0
aF0.16736059101957315
assV[\u5fcd\u8005\u767e\u5206\u767e]
p186
(dp187
g56
(lp188
I0
aI0
aI0
aI0
aI0
aI0
aF0.20832475551220264
assV[\u6b22\u4e50\u9ebb\u5c06\u5168\u96c6]
p189
(dp190
g56
(lp191
I0
aI0
aI0
aI0
aI0
aI0
aF0.40113550941100184
assg29
(dp192
g56
(lp193
I0
aI0
aI0
aI0
aI0
aI0
aF0.086183696305783514
assg33
(dp194
g56
(lp195
I0
aI0
aI0
aI0
aI0
aI0
aF0.050240617878717371
assg35
(dp196
g56
(lp197
I0
aI0
aI0
aI0
aI0
aI0
aF0.18865205742568575
assV[\u7761\u89c9\u8bf7\u5173\u706f]
p198
(dp199
g56
(lp200
I0
aI0
aI0
aI0
aI0
aI0
aF0.085719501763640876
assg39
(dp201
g56
(lp202
I0
aI0
aI0
aI0
aI0
aI0
aF0.32692333875128859
assg43
(dp203
g56
(lp204
I0
aI0
aI0
aI0
aI0
aI0
aF0.12558908221789303
assg47
(dp205
g56
(lp206
I0
aI0
aI0
aI0
aI0
aI0
aF0.45417071312703805
asssg25
(dp207
V[ColorOS\u684c\u9762]
p208
(dp209
g56
(lp210
I0
aI0
aI0
aI0
aI0
aI0
aF0.60094460467373945
assV[\u653e\u5f00\u90a3\u4e09\u56fd]
p211
(dp212
g56
(lp213
I0
aI0
aI0
aI0
aI0
aI0
aF0.28813560270006233
assV[\u5fcd\u8005\u767e\u5206\u767e]
p214
(dp215
g56
(lp216
I0
aI0
aI0
aI0
aI0
aI0
aF0.062292048002249856
assg33
(dp217
g56
(lp218
I0
aI0
aI0
aI0
aI0
aI0
aF0.045410102812498854
assg39
(dp219
g56
(lp220
I0
aI0
aI0
aI0
aI0
aI0
aF0.16539826997899418
assg47
(dp221
g56
(lp222
I0
aI0
aI0
aI0
aI0
aI0
aF0.43973909224866459
asssg27
(dp223
V[ColorOS\u684c\u9762]
p224
(dp225
g56
(lp226
I0
aI0
aI0
aI0
aI0
aI0
aF0.30145895839709119
assV[\u653e\u5f00\u90a3\u4e09\u56fd]
p227
(dp228
g56
(lp229
I0
aI0
aI0
aI0
aI0
aI0
aF0.083988960821886866
assV[\u6b22\u4e50\u9ebb\u5c06\u5168\u96c6]
p230
(dp231
g56
(lp232
I0
aI0
aI0
aI0
aI0
aI0
aF0.19309148037943674
assg33
(dp233
g56
(lp234
I0
aI0
aI0
aI0
aI0
aI0
aF0.095347307431119493
assg39
(dp235
g56
(lp236
I0
aI0
aI0
aI0
aI0
aI0
aF0.072463066699901449
assg47
(dp237
g56
(lp238
I0
aI0
aI0
aI0
aI0
aI0
aF0.22040702824116015
asssg29
(dp239
V[ColorOS\u684c\u9762]
p240
(dp241
g56
(lp242
I0
aI0
aI0
aI0
aI0
aI0
aF0.099904340008937345
assV[\u653e\u5f00\u90a3\u4e09\u56fd]
p243
(dp244
g56
(lp245
I0
aI0
aI0
aI0
aI0
aI0
aF0.093916505694427499
asssg31
(dp246
V[ColorOS\u684c\u9762]
p247
(dp248
g56
(lp249
I0
aI0
aI0
aI0
aI0
aI0
aF0.57138802613416817
assg15
(dp250
g56
(lp251
I0
aI0
aI0
aI0
aI0
aI0
aF0.10334584736031754
assg19
(dp252
g56
(lp253
I0
aI0
aI0
aI0
aI0
aI0
aF0.096064163337597056
assV[\u653e\u5f00\u90a3\u4e09\u56fd]
p254
(dp255
g56
(lp256
I0
aI0
aI0
aI0
aI0
aI0
aF0.30167569958608476
assV[\u5fcd\u8005\u767e\u5206\u767e]
p257
(dp258
g56
(lp259
I0
aI0
aI0
aI0
aI0
aI0
aF0.1777559521706949
assV[\u6b22\u4e50\u9ebb\u5c06\u5168\u96c6]
p260
(dp261
g56
(lp262
I0
aI0
aI0
aI0
aI0
aI0
aF0.2720939440200047
assg35
(dp263
g56
(lp264
I0
aI0
aI0
aI0
aI0
aI0
aF0.17835954088652203
assV[\u7761\u89c9\u8bf7\u5173\u706f]
p265
(dp266
g56
(lp267
I0
aI0
aI0
aI0
aI0
aI0
aF0.10417151474041504
assg39
(dp268
g56
(lp269
I0
aI0
aI0
aI0
aI0
aI0
aF0.079361368772291538
assg43
(dp270
g56
(lp271
I0
aI0
aI0
aI0
aI0
aI0
aF0.098071064066250838
assg47
(dp272
g56
(lp273
I0
aI0
aI0
aI0
aI0
aI0
aF0.26059753927685109
asssg33
(dp274
V[ColorOS\u684c\u9762]
p275
(dp276
g56
(lp277
I0
aI0
aI0
aI0
aI0
aI0
aF0.099389597657483467
assVPhone.apk
p278
(dp279
g56
(lp280
I0
aI0
aI0
aI0
aI0
aI0
aF0.094082578476320095
asssg35
(dp281
g77
(dp282
g56
(lp283
I0
aI0
aI0
aI0
aI0
aI0
aF0.1828281205929625
assV[ColorOS\u684c\u9762]
p284
(dp285
g56
(lp286
I0
aI0
aI0
aI0
aI0
aI0
aF0.49376853452244979
assg15
(dp287
g56
(lp288
I0
aI0
aI0
aI0
aI0
aI0
aF0.095615030040706483
assV[\u8f6f\u4ef6\u5546\u5e97]
p289
(dp290
g56
(lp291
I0
aI0
aI0
aI0
aI0
aI0
aF0.18307320760269111
assg58
(dp292
g56
(lp293
I0
aI0
aI0
aI0
aI0
aI0
aF0.12903580380148558
assV[\u653e\u5f00\u90a3\u4e09\u56fd]
p294
(dp295
g56
(lp296
I0
aI0
aI0
aI0
aI0
aI0
aF0.24370515493166919
assV[\u5fcd\u8005\u767e\u5206\u767e]
p297
(dp298
g56
(lp299
I0
aI0
aI0
aI0
aI0
aI0
aF0.11716714841609782
assV[\u6b22\u4e50\u9ebb\u5c06\u5168\u96c6]
p300
(dp301
g56
(lp302
I0
aI0
aI0
aI0
aI0
aI0
aF0.20544234113781415
assV[\u7761\u89c9\u8bf7\u5173\u706f]
p303
(dp304
g56
(lp305
I0
aI0
aI0
aI0
aI0
aI0
aF0.083717905467131468
assg39
(dp306
g56
(lp307
I0
aI0
aI0
aI0
aI0
aI0
aF0.049104694852875559
assV\u4e50\u89c6\u89c6\u9891
p308
(dp309
g56
(lp310
I0
aI0
aI0
aI0
aI0
aI0
aF0.10440577841580836
assg43
(dp311
g56
(lp312
I0
aI0
aI0
aI0
aI0
aI0
aF0.12064763236452937
assg47
(dp313
g56
(lp314
I0
aI0
aI0
aI0
aI0
aI0
aF0.18587299582605002
asssg37
(dp315
V[ColorOS\u684c\u9762]
p316
(dp317
g56
(lp318
I0
aI0
aI0
aI0
aI0
aI0
aF0.1401401145983793
assg43
(dp319
g56
(lp320
I0
aI0
aI0
aI0
aI0
aI0
aF0.098364424285467489
asssg39
(dp321
g77
(dp322
g56
(lp323
I0
aI0
aI0
aI0
aI0
aI0
aF0.18933402601431215
assV[ColorOS\u684c\u9762]
p324
(dp325
g56
(lp326
I0
aI0
aI0
aI0
aI0
aI0
aF0.63268233182066747
assV\u7231\u5947\u827a\u89c6\u9891
p327
(dp328
g56
(lp329
I0
aI0
aI0
aI0
aI0
aI0
aF0.1000914316233078
assg58
(dp330
g56
(lp331
I0
aI0
aI0
aI0
aI0
aI0
aF0.13340930383309191
assV[\u653e\u5f00\u90a3\u4e09\u56fd]
p332
(dp333
g56
(lp334
I0
aI0
aI0
aI0
aI0
aI0
aF0.23143322057141652
assV[\u8f6f\u4ef6\u5546\u5e97]
p335
(dp336
g56
(lp337
I0
aI0
aI0
aI0
aI0
aI0
aF0.07988373188188154
assg35
(dp338
g56
(lp339
I0
aI0
aI0
aI0
aI0
aI0
aF0.118606256978265
assV[\u7761\u89c9\u8bf7\u5173\u706f]
p340
(dp341
g56
(lp342
I0
aI0
aI0
aI0
aI0
aI0
aF0.079159067096111979
assg43
(dp343
g56
(lp344
I0
aI0
aI0
aI0
aI0
aI0
aF0.11665876484076344
assg47
(dp345
g56
(lp346
I0
aI0
aI0
aI0
aI0
aI0
aF0.41190328801104231
asssg41
(dp347
V[ColorOS\u684c\u9762]
p348
(dp349
g56
(lp350
I0
aI0
aI0
aI0
aI0
aI0
aF0.46912695910804703
assg15
(dp351
g56
(lp352
I0
aI0
aI0
aI0
aI0
aI0
aF0.13524842579367985
assV[\u8f6f\u4ef6\u5546\u5e97]
p353
(dp354
g56
(lp355
I0
aI0
aI0
aI0
aI0
aI0
aF0.23004777068538118
assV[\u653e\u5f00\u90a3\u4e09\u56fd]
p356
(dp357
g56
(lp358
I0
aI0
aI0
aI0
aI0
aI0
aF0.28147346736735135
assV[\u5fcd\u8005\u767e\u5206\u767e]
p359
(dp360
g56
(lp361
I0
aI0
aI0
aI0
aI0
aI0
aF0.10647856480815102
assV[\u6b22\u4e50\u9ebb\u5c06\u5168\u96c6]
p362
(dp363
g56
(lp364
I0
aI0
aI0
aI0
aI0
aI0
aF0.18067853196979683
assg35
(dp365
g56
(lp366
I0
aI0
aI0
aI0
aI0
aI0
aF0.1671475887961682
assg39
(dp367
g56
(lp368
I0
aI0
aI0
aI0
aI0
aI0
aF0.0045623625719302023
assg47
(dp369
g56
(lp370
I0
aI0
aI0
aI0
aI0
aI0
aF0.14214793403779449
asssg43
(dp371
g77
(dp372
g56
(lp373
I0
aI0
aI0
aI0
aI0
aI0
aF0.20479186395496382
assV[ColorOS\u684c\u9762]
p374
(dp375
g56
(lp376
I0
aI0
aI0
aI0
aI0
aI0
aF0.40108629667712914
assV[\u8f6f\u4ef6\u5546\u5e97]
p377
(dp378
g56
(lp379
I0
aI0
aI0
aI0
aI0
aI0
aF0.09588905317801788
assg58
(dp380
g56
(lp381
I0
aI0
aI0
aI0
aI0
aI0
aF0.14459264017920229
assV[\u653e\u5f00\u90a3\u4e09\u56fd]
p382
(dp383
g56
(lp384
I0
aI0
aI0
aI0
aI0
aI0
aF0.15179367218886292
assV[\u7761\u89c9\u8bf7\u5173\u706f]
p385
(dp386
g56
(lp387
I0
aI0
aI0
aI0
aI0
aI0
aF0.095588096337629588
assg278
(dp388
g56
(lp389
I0
aI0
aI0
aI0
aI0
aI0
aF0.094209276629430266
asssg45
(dp390
g77
(dp391
g56
(lp392
I0
aI0
aI0
aI0
aI0
aI0
aF0.10344347915919572
assV[ColorOS\u684c\u9762]
p393
(dp394
g56
(lp395
I0
aI0
aI0
aI0
aI0
aI0
aF0.46204921836140894
assg15
(dp396
g56
(lp397
I0
aI0
aI0
aI0
aI0
aI0
aF0.095586381341923876
assV[\u8f6f\u4ef6\u5546\u5e97]
p398
(dp399
g56
(lp400
I0
aI0
aI0
aI0
aI0
aI0
aF0.16678721249623585
assg58
(dp401
g56
(lp402
I0
aI0
aI0
aI0
aI0
aI0
aF0.072714885086875694
assV[\u653e\u5f00\u90a3\u4e09\u56fd]
p403
(dp404
g56
(lp405
I0
aI0
aI0
aI0
aI0
aI0
aF0.22890444114522435
assV[\u5fcd\u8005\u767e\u5206\u767e]
p406
(dp407
g56
(lp408
I0
aI0
aI0
aI0
aI0
aI0
aF0.07522985005974181
assV[\u6b22\u4e50\u9ebb\u5c06\u5168\u96c6]
p409
(dp410
g56
(lp411
I0
aI0
aI0
aI0
aI0
aI0
aF0.1276131568068832
assg35
(dp412
g56
(lp413
I0
aI0
aI0
aI0
aI0
aI0
aF0.15696343670111682
assV[\u7761\u89c9\u8bf7\u5173\u706f]
p414
(dp415
g56
(lp416
I0
aI0
aI0
aI0
aI0
aI0
aF0.036432068580504594
assg39
(dp417
g56
(lp418
I0
aI0
aI0
aI0
aI0
aI0
aF0.13493772843569482
assg41
(dp419
g56
(lp420
I0
aI0
aI0
aI0
aI0
aI0
aF0.14764835792819861
assg43
(dp421
g56
(lp422
I0
aI0
aI0
aI0
aI0
aI0
aF0.056507230030047421
assg47
(dp423
g56
(lp424
I0
aI0
aI0
aI0
aI0
aI0
aF0.22253359410063081
asssg47
(dp425
g77
(dp426
g56
(lp427
I0
aI0
aI0
aI0
aI0
aI0
aF0.33733242212040054
assV[ColorOS\u684c\u9762]
p428
(dp429
g56
(lp430
I0
aI0
aI0
aI0
aI0
aI0
aF0.89887058320230961
assV[\u8f6f\u4ef6\u5546\u5e97]
p431
(dp432
g56
(lp433
I0
aI0
aI0
aI0
aI0
aI0
aF0.14831456072349142
assg58
(dp434
g56
(lp435
I0
aI0
aI0
aI0
aI0
aI0
aF0.23787070147750089
assV[\u653e\u5f00\u90a3\u4e09\u56fd]
p436
(dp437
g56
(lp438
I0
aI0
aI0
aI0
aI0
aI0
aF0.31219557720764707
assV[\u6b22\u4e50\u9ebb\u5c06\u5168\u96c6]
p439
(dp440
g56
(lp441
I0
aI0
aI0
aI0
aI0
aI0
aF0.10432180029772317
assg35
(dp442
g56
(lp443
I0
aI0
aI0
aI0
aI0
aI0
aF0.20300811033095936
assV[\u7761\u89c9\u8bf7\u5173\u706f]
p444
(dp445
g56
(lp446
I0
aI0
aI0
aI0
aI0
aI0
aF0.14734000520217946
assg39
(dp447
g56
(lp448
I0
aI0
aI0
aI0
aI0
aI0
aF0.35104432694407045
assg43
(dp449
g56
(lp450
I0
aI0
aI0
aI0
aI0
aI0
aF0.22809528378680063
assg278
(dp451
g56
(lp452
I0
aI0
aI0
aI0
aI0
aI0
aF0.29368786776321981
assssS'edge'
p453
g52
sS'pred'
p454
(dp455
g8
(dp456
V[ColorOS\u684c\u9762]
p457
g78
sg58
g151
sV[\u653e\u5f00\u90a3\u4e09\u56fd]
p458
g174
sg35
g282
sg39
g322
sg43
g372
sV[OppoPreventMode]
p459
g391
sg47
g426
ssg11
(dp460
V[ColorOS\u684c\u9762]
p461
g80
ssg13
(dp462
g77
g62
sg11
g71
sg15
g120
sg17
g142
sg19
g154
sV[\u6e38\u620f\u4e2d\u5fc3]
p463
g169
sV[\u653e\u5f00\u90a3\u4e09\u56fd]
p464
g177
sV[\u5fcd\u8005\u767e\u5206\u767e]
p465
g225
sV[\u6b22\u4e50\u9ebb\u5c06\u5168\u96c6]
p466
g209
sg29
g241
sV[\u8f6f\u4ef6\u5546\u5e97]
p467
g248
sg33
g276
sg35
g285
sV[\u7761\u89c9\u8bf7\u5173\u706f]
p468
g317
sg39
g325
sg41
g349
sg43
g375
sV[OppoPreventMode]
p469
g394
sg47
g429
ssg15
(dp470
V[ColorOS\u684c\u9762]
p471
g82
sV[\u8f6f\u4ef6\u5546\u5e97]
p472
g250
sV[\u653e\u5f00\u90a3\u4e09\u56fd]
p473
g179
sg35
g287
sg41
g351
sV[OppoPreventMode]
p474
g396
ssg17
(dp475
V[ColorOS\u684c\u9762]
p476
g84
sg39
g328
ssg19
(dp477
g77
g59
sV[ColorOS\u684c\u9762]
p478
g86
sV[\u8f6f\u4ef6\u5546\u5e97]
p479
g252
sV[\u653e\u5f00\u90a3\u4e09\u56fd]
p480
g184
sg35
g292
sg39
g330
sg43
g380
sV[OppoPreventMode]
p481
g401
sg47
g434
ssg21
(dp482
V[ColorOS\u684c\u9762]
p483
g89
ssg23
(dp484
V[ColorOS\u684c\u9762]
p485
g92
sg15
g126
sV[\u8f6f\u4ef6\u5546\u5e97]
p486
g255
sV[\u5fcd\u8005\u767e\u5206\u767e]
p487
g228
sV[\u6b22\u4e50\u9ebb\u5c06\u5168\u96c6]
p488
g212
sg29
g244
sg327
g145
sg11
g74
sg35
g295
sg39
g333
sg41
g357
sg43
g383
sV[OppoPreventMode]
p489
g404
sg47
g437
ssg25
(dp490
V[ColorOS\u684c\u9762]
p491
g98
sg15
g132
sV[\u8f6f\u4ef6\u5546\u5e97]
p492
g261
sV[\u653e\u5f00\u90a3\u4e09\u56fd]
p493
g190
sV[\u5fcd\u8005\u767e\u5206\u767e]
p494
g231
sg35
g301
sg41
g363
sV[OppoPreventMode]
p495
g410
sg47
g440
ssg27
(dp496
V[ColorOS\u684c\u9762]
p497
g95
sg15
g129
sV[\u8f6f\u4ef6\u5546\u5e97]
p498
g258
sg19
g160
sV[\u653e\u5f00\u90a3\u4e09\u56fd]
p499
g187
sV[\u6b22\u4e50\u9ebb\u5c06\u5168\u96c6]
p500
g215
sg35
g298
sg41
g360
sV[OppoPreventMode]
p501
g407
ssg29
(dp502
V[ColorOS\u684c\u9762]
p503
g100
sV[\u653e\u5f00\u90a3\u4e09\u56fd]
p504
g192
ssg31
(dp505
g77
g55
sV[ColorOS\u684c\u9762]
p506
g103
sg15
g123
sg58
g157
sV[\u653e\u5f00\u90a3\u4e09\u56fd]
p507
g182
sg35
g290
sg39
g336
sg41
g354
sg43
g378
sV[OppoPreventMode]
p508
g399
sg47
g432
ssg33
(dp509
V[ColorOS\u684c\u9762]
p510
g105
sV[\u653e\u5f00\u90a3\u4e09\u56fd]
p511
g194
sV[\u6b22\u4e50\u9ebb\u5c06\u5168\u96c6]
p512
g217
sV[\u5fcd\u8005\u767e\u5206\u767e]
p513
g233
ssg35
(dp514
V[ColorOS\u684c\u9762]
p515
g107
sg15
g134
sV[\u8f6f\u4ef6\u5546\u5e97]
p516
g263
sV[\u653e\u5f00\u90a3\u4e09\u56fd]
p517
g196
sg39
g338
sg41
g365
sV[OppoPreventMode]
p518
g412
sg47
g442
ssg37
(dp519
g77
g67
sV[ColorOS\u684c\u9762]
p520
g110
sV[\u8f6f\u4ef6\u5546\u5e97]
p521
g266
sg58
g163
sV[\u653e\u5f00\u90a3\u4e09\u56fd]
p522
g199
sg35
g304
sg39
g341
sg43
g386
sV[OppoPreventMode]
p523
g415
sg47
g445
ssg39
(dp524
V[ColorOS\u684c\u9762]
p525
g112
sg15
g136
sV[\u8f6f\u4ef6\u5546\u5e97]
p526
g268
sV[\u6e38\u620f\u4e2d\u5fc3]
p527
g171
sV[\u653e\u5f00\u90a3\u4e09\u56fd]
p528
g201
sV[\u5fcd\u8005\u767e\u5206\u767e]
p529
g235
sV[\u6b22\u4e50\u9ebb\u5c06\u5168\u96c6]
p530
g219
sg327
g147
sg35
g306
sg41
g367
sV[OppoPreventMode]
p531
g417
sg47
g447
ssg41
(dp532
g35
g309
sV[OppoPreventMode]
p533
g419
ssg43
(dp534
g77
g64
sV[ColorOS\u684c\u9762]
p535
g114
sV[\u8f6f\u4ef6\u5546\u5e97]
p536
g270
sg58
g165
sV[\u653e\u5f00\u90a3\u4e09\u56fd]
p537
g203
sg35
g311
sV[\u7761\u89c9\u8bf7\u5173\u706f]
p538
g319
sg39
g343
sV[OppoPreventMode]
p539
g421
sg278
g449
ssg45
(dp540
sg47
(dp541
V[ColorOS\u684c\u9762]
p542
g116
sg15
g138
sV[\u8f6f\u4ef6\u5546\u5e97]
p543
g272
sV[\u653e\u5f00\u90a3\u4e09\u56fd]
p544
g205
sV[\u5fcd\u8005\u767e\u5206\u767e]
p545
g237
sV[\u6b22\u4e50\u9ebb\u5c06\u5168\u96c6]
p546
g221
sg33
g279
sg35
g313
sg39
g345
sg41
g369
sg43
g388
sV[OppoPreventMode]
p547
g423
sg47
g451
sssS'adj'
p548
g52
sb.