ccopy_reg
_reconstructor
p1
(cnetworkx.classes.digraph
DiGraph
p2
c__builtin__
object
p3
NtRp4
(dp5
S'node'
p6
(dp7
V[com.sec.android.app.capabilitymanager]
p8
(dp9
S'weight'
p10
F0.01
ssV[TouchWiz \u4e3b\u9875]
p11
(dp12
g10
F0.40000000000000002
ssV\u652f\u4ed8\u5b9d\u94b1\u5305
p13
(dp14
g10
F0.02
ssV\u7f8e\u56e2\u56e2\u8d2d
p15
(dp16
g10
F0
ssV\u7f51\u6613\u65b0\u95fb
p17
(dp18
g10
F0.029999999999999999
ssVCalculator.apk
p19
(dp20
g10
F0
ssV[36\u6c2a]
p21
(dp22
g10
F0
ssV\u8bfe\u7a0b\u683c\u5b50
p23
(dp24
g10
F0
ssV[S \u5907\u5fd8\u5f55]
p25
(dp26
g10
F0
ssV[\u997f\u4e86\u4e48]
p27
(dp28
g10
F0.01
ssV[\u70b9\u70b9]
p29
(dp30
g10
F0
ssVWPS Office
p31
(dp32
g10
F0.01
ssV[\u8c4c\u8c46\u835a]
p33
(dp34
g10
F0.01
ssVPhoto.apk
p35
(dp36
g10
F0.02
ssVQQ\u90ae\u7bb1
p37
(dp38
g10
F0.01
ssV[\u65e0\u79d8]
p39
(dp40
g10
F0
ssVBrowser.apk
p41
(dp42
g10
F0.02
ssVFileManager.apk
p43
(dp44
g10
F0.02
ssV\u5fae\u535a
p45
(dp46
g10
F0.029999999999999999
ssVClock.apk
p47
(dp48
g10
F0
ssVMms.apk
p49
(dp50
g10
F0.02
ssVPackageInstaller.apk
p51
(dp52
g10
F0.01
ssVPhone.apk
p53
(dp54
g10
F0.02
ssV[PopupuiReceiver]
p55
(dp56
g10
F0.01
ssVQQ
p57
(dp58
g10
F0.13
ssV\u5fae\u4fe1
p59
(dp60
g10
F0.14999999999999999
ssV[KeyguardTestActivity]
p61
(dp62
g10
F0.01
ssVCamera.apk
p63
(dp64
g10
F0.02
ssV\u7f51\u6613\u4e91\u97f3\u4e50
p65
(dp66
g10
F0
ssV\u9177\u72d7\u97f3\u4e50
p67
(dp68
g10
F0.02
ssVSettings.apk
p69
(dp70
g10
F0.01
sssS'graph'
p71
(dp72
sS'succ'
p73
(dp74
g8
(dp75
VQQ
p76
(dp77
S'weights'
p78
(lp79
I0
aI0
aI0
aI0
aI0
aI0
aF-0.02
assV[TouchWiz \u4e3b\u9875]
p80
(dp81
g78
(lp82
I0
aI0
aI0
aI0
aI0
aI0
aF0.10000000000000001
assg43
(dp83
g78
(lp84
I0
aI0
aI0
aI0
aI0
aI0
aF0.089999999999999997
assg49
(dp85
g78
(lp86
I0
aI0
aI0
aI0
aI0
aI0
aF0.089999999999999997
assg15
(dp87
g78
(lp88
I0
aI0
aI0
aI0
aI0
aI0
aF0.11
assV\u5fae\u4fe1
p89
(dp90
g78
(lp91
I0
aI0
aI0
aI0
aI0
aI0
aF0.01
assV[\u997f\u4e86\u4e48]
p92
(dp93
g78
(lp94
I0
aI0
aI0
aI0
aI0
aI0
aF0.11
assVQQ\u90ae\u7bb1
p95
(dp96
g78
(lp97
I0
aI0
aI0
aI0
aI0
aI0
aF0.11
assV\u7f51\u6613\u65b0\u95fb
p98
(dp99
g78
(lp100
I0
aI0
aI0
aI0
aI0
aI0
aF-0.14000000000000001
assV\u7f51\u6613\u4e91\u97f3\u4e50
p101
(dp102
g78
(lp103
I0
aI0
aI0
aI0
aI0
aI0
aF0.080000000000000002
assg19
(dp104
g78
(lp105
I0
aI0
aI0
aI0
aI0
aI0
aF-0.070000000000000007
assg41
(dp106
g78
(lp107
I0
aI0
aI0
aI0
aI0
aI0
aF-0.059999999999999998
assg51
(dp108
g78
(lp109
I0
aI0
aI0
aI0
aI0
aI0
aF0.11
assg53
(dp110
g78
(lp111
I0
aI0
aI0
aI0
aI0
aI0
aF0.040000000000000001
assV[PopupuiReceiver]
p112
(dp113
g78
(lp114
I0
aI0
aI0
aI0
aI0
aI0
aF-0.070000000000000007
asssg11
(dp115
V[com.sec.android.app.capabilitymanager]
p116
(dp117
g78
(lp118
I0
aI0
aI0
aI0
aI0
aI0
aF0.040000000000000001
assg13
(dp119
g78
(lp120
I0
aI0
aI0
aI0
aI0
aI0
aF0.10000000000000001
assg15
(dp121
g78
(lp122
I0
aI0
aI0
aI0
aI0
aI0
aF0.040000000000000001
assg19
(dp123
g78
(lp124
I0
aI0
aI0
aI0
aI0
aI0
aF-0.14999999999999999
assV[36\u6c2a]
p125
(dp126
g78
(lp127
I0
aI0
aI0
aI0
aI0
aI0
aF-0.080000000000000002
assV\u8bfe\u7a0b\u683c\u5b50
p128
(dp129
g78
(lp130
I0
aI0
aI0
aI0
aI0
aI0
aF0.11
assV[S \u5907\u5fd8\u5f55]
p131
(dp132
g78
(lp133
I0
aI0
aI0
aI0
aI0
aI0
aF0.01
assV[\u997f\u4e86\u4e48]
p134
(dp135
g78
(lp136
I0
aI0
aI0
aI0
aI0
aI0
aF0.10000000000000001
assV[\u70b9\u70b9]
p137
(dp138
g78
(lp139
I0
aI0
aI0
aI0
aI0
aI0
aF0.11
assg31
(dp140
g78
(lp141
I0
aI0
aI0
aI0
aI0
aI0
aF0.10000000000000001
assV[\u8c4c\u8c46\u835a]
p142
(dp143
g78
(lp144
I0
aI0
aI0
aI0
aI0
aI0
aF0.040000000000000001
assg35
(dp145
g78
(lp146
I0
aI0
aI0
aI0
aI0
aI0
aF-0.070000000000000007
assg37
(dp147
g78
(lp148
I0
aI0
aI0
aI0
aI0
aI0
aF0.10000000000000001
assV[\u65e0\u79d8]
p149
(dp150
g78
(lp151
I0
aI0
aI0
aI0
aI0
aI0
aF-0.19
assg41
(dp152
g78
(lp153
I0
aI0
aI0
aI0
aI0
aI0
aF0.080000000000000002
assg43
(dp154
g78
(lp155
I0
aI0
aI0
aI0
aI0
aI0
aF0.10000000000000001
assg45
(dp156
g78
(lp157
I0
aI0
aI0
aI0
aI0
aI0
aF-0.040000000000000001
assg47
(dp158
g78
(lp159
I0
aI0
aI0
aI0
aI0
aI0
aF-0.17000000000000001
assg49
(dp160
g78
(lp161
I0
aI0
aI0
aI0
aI0
aI0
aF0.11
assg51
(dp162
g78
(lp163
I0
aI0
aI0
aI0
aI0
aI0
aF0.040000000000000001
assg53
(dp164
g78
(lp165
I0
aI0
aI0
aI0
aI0
aI0
aF0.059999999999999998
assV[PopupuiReceiver]
p166
(dp167
g78
(lp168
I0
aI0
aI0
aI0
aI0
aI0
aF-0.070000000000000007
assVQQ
p169
(dp170
g78
(lp171
I0
aI0
aI0
aI0
aI0
aI0
aF0.11
assg59
(dp172
g78
(lp173
I0
aI0
aI0
aI0
aI0
aI0
aF-0.02
assV[KeyguardTestActivity]
p174
(dp175
g78
(lp176
I0
aI0
aI0
aI0
aI0
aI0
aF0.11
assg63
(dp177
g78
(lp178
I0
aI0
aI0
aI0
aI0
aI0
aF0.11
assg65
(dp179
g78
(lp180
I0
aI0
aI0
aI0
aI0
aI0
aF0.11
assg67
(dp181
g78
(lp182
I0
aI0
aI0
aI0
aI0
aI0
aF0.11
assg69
(dp183
g78
(lp184
I0
aI0
aI0
aI0
aI0
aI0
aF0.089999999999999997
asssg13
(dp185
VQQ
p186
(dp187
g78
(lp188
I0
aI0
aI0
aI0
aI0
aI0
aF0.029999999999999999
assV[TouchWiz \u4e3b\u9875]
p189
(dp190
g78
(lp191
I0
aI0
aI0
aI0
aI0
aI0
aF0.089999999999999997
assg41
(dp192
g78
(lp193
I0
aI0
aI0
aI0
aI0
aI0
aF-0.070000000000000007
assg43
(dp194
g78
(lp195
I0
aI0
aI0
aI0
aI0
aI0
aF0.10000000000000001
assg35
(dp196
g78
(lp197
I0
aI0
aI0
aI0
aI0
aI0
aF0.10000000000000001
assV\u5fae\u4fe1
p198
(dp199
g78
(lp200
I0
aI0
aI0
aI0
aI0
aI0
aF0.10000000000000001
assV[KeyguardTestActivity]
p201
(dp202
g78
(lp203
I0
aI0
aI0
aI0
aI0
aI0
aF0.089999999999999997
assV\u5fae\u535a
p204
(dp205
g78
(lp206
I0
aI0
aI0
aI0
aI0
aI0
aF0.02
assVWPS Office
p207
(dp208
g78
(lp209
I0
aI0
aI0
aI0
aI0
aI0
aF0.10000000000000001
assg49
(dp210
g78
(lp211
I0
aI0
aI0
aI0
aI0
aI0
aF0.10000000000000001
assV[\u65e0\u79d8]
p212
(dp213
g78
(lp214
I0
aI0
aI0
aI0
aI0
aI0
aF-0.19
assg53
(dp215
g78
(lp216
I0
aI0
aI0
aI0
aI0
aI0
aF0.059999999999999998
assV[PopupuiReceiver]
p217
(dp218
g78
(lp219
I0
aI0
aI0
aI0
aI0
aI0
aF-0.070000000000000007
asssg15
(dp220
V[com.sec.android.app.capabilitymanager]
p221
(dp222
g78
(lp223
I0
aI0
aI0
aI0
aI0
aI0
aF0.11
assVQQ
p224
(dp225
g78
(lp226
I0
aI0
aI0
aI0
aI0
aI0
aF0.050000000000000003
assV[TouchWiz \u4e3b\u9875]
p227
(dp228
g78
(lp229
I0
aI0
aI0
aI0
aI0
aI0
aF0.089999999999999997
assV[\u8c4c\u8c46\u835a]
p230
(dp231
g78
(lp232
I0
aI0
aI0
aI0
aI0
aI0
aF0.10000000000000001
assV\u7f8e\u56e2\u56e2\u8d2d
p233
(dp234
g78
(lp235
I0
aI0
aI0
aI0
aI0
aI0
aF0.080000000000000002
assg89
(dp236
g78
(lp237
I0
aI0
aI0
aI0
aI0
aI0
aF0.01
assV\u7f51\u6613\u65b0\u95fb
p238
(dp239
g78
(lp240
I0
aI0
aI0
aI0
aI0
aI0
aF0.089999999999999997
assg19
(dp241
g78
(lp242
I0
aI0
aI0
aI0
aI0
aI0
aF-0.080000000000000002
assg41
(dp243
g78
(lp244
I0
aI0
aI0
aI0
aI0
aI0
aF-0.059999999999999998
assg53
(dp245
g78
(lp246
I0
aI0
aI0
aI0
aI0
aI0
aF0.040000000000000001
assV[PopupuiReceiver]
p247
(dp248
g78
(lp249
I0
aI0
aI0
aI0
aI0
aI0
aF-0.070000000000000007
asssg17
(dp250
V[com.sec.android.app.capabilitymanager]
p251
(dp252
g78
(lp253
I0
aI0
aI0
aI0
aI0
aI0
aF0.10000000000000001
assV[TouchWiz \u4e3b\u9875]
p254
(dp255
g78
(lp256
I0
aI0
aI0
aI0
aI0
aI0
aF0.040000000000000001
assV\u652f\u4ed8\u5b9d\u94b1\u5305
p257
(dp258
g78
(lp259
I0
aI0
aI0
aI0
aI0
aI0
aF0.089999999999999997
assg15
(dp260
g78
(lp261
I0
aI0
aI0
aI0
aI0
aI0
aF0.050000000000000003
assV[36\u6c2a]
p262
(dp263
g78
(lp264
I0
aI0
aI0
aI0
aI0
aI0
aF0.02
assVWPS Office
p265
(dp266
g78
(lp267
I0
aI0
aI0
aI0
aI0
aI0
aF0.040000000000000001
assV[\u8c4c\u8c46\u835a]
p268
(dp269
g78
(lp270
I0
aI0
aI0
aI0
aI0
aI0
aF0.11
assg35
(dp271
g78
(lp272
I0
aI0
aI0
aI0
aI0
aI0
aF0.029999999999999999
assg41
(dp273
g78
(lp274
I0
aI0
aI0
aI0
aI0
aI0
aF0.080000000000000002
assg43
(dp275
g78
(lp276
I0
aI0
aI0
aI0
aI0
aI0
aF0.040000000000000001
assg47
(dp277
g78
(lp278
I0
aI0
aI0
aI0
aI0
aI0
aF0.11
assg49
(dp279
g78
(lp280
I0
aI0
aI0
aI0
aI0
aI0
aF0.029999999999999999
assg51
(dp281
g78
(lp282
I0
aI0
aI0
aI0
aI0
aI0
aF0.10000000000000001
assg53
(dp283
g78
(lp284
I0
aI0
aI0
aI0
aI0
aI0
aF-0.01
assV[PopupuiReceiver]
p285
(dp286
g78
(lp287
I0
aI0
aI0
aI0
aI0
aI0
aF-0.070000000000000007
assVQQ
p288
(dp289
g78
(lp290
I0
aI0
aI0
aI0
aI0
aI0
aF0.01
assV\u5fae\u4fe1
p291
(dp292
g78
(lp293
I0
aI0
aI0
aI0
aI0
aI0
aF0.089999999999999997
assg63
(dp294
g78
(lp295
I0
aI0
aI0
aI0
aI0
aI0
aF0.040000000000000001
assg65
(dp296
g78
(lp297
I0
aI0
aI0
aI0
aI0
aI0
aF0.10000000000000001
assV\u9177\u72d7\u97f3\u4e50
p298
(dp299
g78
(lp300
I0
aI0
aI0
aI0
aI0
aI0
aF0.040000000000000001
assg69
(dp301
g78
(lp302
I0
aI0
aI0
aI0
aI0
aI0
aF0.059999999999999998
asssg19
(dp303
sg21
(dp304
V[TouchWiz \u4e3b\u9875]
p305
(dp306
g78
(lp307
I0
aI0
aI0
aI0
aI0
aI0
aF0.10000000000000001
asssg23
(dp308
VQQ
p309
(dp310
g78
(lp311
I0
aI0
aI0
aI0
aI0
aI0
aF0.10000000000000001
assV[TouchWiz \u4e3b\u9875]
p312
(dp313
g78
(lp314
I0
aI0
aI0
aI0
aI0
aI0
aF0.11
assV\u5fae\u4fe1
p315
(dp316
g78
(lp317
I0
aI0
aI0
aI0
aI0
aI0
aF0.11
assV\u7f51\u6613\u65b0\u95fb
p318
(dp319
g78
(lp320
I0
aI0
aI0
aI0
aI0
aI0
aF0.10000000000000001
assg53
(dp321
g78
(lp322
I0
aI0
aI0
aI0
aI0
aI0
aF-0.059999999999999998
assg69
(dp323
g78
(lp324
I0
aI0
aI0
aI0
aI0
aI0
aF0.059999999999999998
asssg25
(dp325
VQQ
p326
(dp327
g78
(lp328
I0
aI0
aI0
aI0
aI0
aI0
aF0.050000000000000003
assV[TouchWiz \u4e3b\u9875]
p329
(dp330
g78
(lp331
I0
aI0
aI0
aI0
aI0
aI0
aF0.11
assg43
(dp332
g78
(lp333
I0
aI0
aI0
aI0
aI0
aI0
aF0.059999999999999998
assg49
(dp334
g78
(lp335
I0
aI0
aI0
aI0
aI0
aI0
aF0.070000000000000007
asssg27
(dp336
g76
(dp337
g78
(lp338
I0
aI0
aI0
aI0
aI0
aI0
aF-0.02
assV[TouchWiz \u4e3b\u9875]
p339
(dp340
g78
(lp341
I0
aI0
aI0
aI0
aI0
aI0
aF0.10000000000000001
assV\u5fae\u4fe1
p342
(dp343
g78
(lp344
I0
aI0
aI0
aI0
aI0
aI0
aF0.10000000000000001
assg98
(dp345
g78
(lp346
I0
aI0
aI0
aI0
aI0
aI0
aF-0.14000000000000001
assg101
(dp347
g78
(lp348
I0
aI0
aI0
aI0
aI0
aI0
aF0.080000000000000002
assg49
(dp349
g78
(lp350
I0
aI0
aI0
aI0
aI0
aI0
aF0.089999999999999997
assg41
(dp351
g78
(lp352
I0
aI0
aI0
aI0
aI0
aI0
aF-0.26000000000000001
assg53
(dp353
g78
(lp354
I0
aI0
aI0
aI0
aI0
aI0
aF-0.02
assV[PopupuiReceiver]
p355
(dp356
g78
(lp357
I0
aI0
aI0
aI0
aI0
aI0
aF-0.32000000000000001
asssg29
(dp358
VQQ
p359
(dp360
g78
(lp361
I0
aI0
aI0
aI0
aI0
aI0
aF0.029999999999999999
asssg31
(dp362
VQQ
p363
(dp364
g78
(lp365
I0
aI0
aI0
aI0
aI0
aI0
aF0.11
assV[TouchWiz \u4e3b\u9875]
p366
(dp367
g78
(lp368
I0
aI0
aI0
aI0
aI0
aI0
aF0.11
assg43
(dp369
g78
(lp370
I0
aI0
aI0
aI0
aI0
aI0
aF0.11
assg35
(dp371
g78
(lp372
I0
aI0
aI0
aI0
aI0
aI0
aF0.10000000000000001
assV\u5fae\u4fe1
p373
(dp374
g78
(lp375
I0
aI0
aI0
aI0
aI0
aI0
aF0.02
assV\u7f51\u6613\u65b0\u95fb
p376
(dp377
g78
(lp378
I0
aI0
aI0
aI0
aI0
aI0
aF0.10000000000000001
assg63
(dp379
g78
(lp380
I0
aI0
aI0
aI0
aI0
aI0
aF0.11
assV[36\u6c2a]
p381
(dp382
g78
(lp383
I0
aI0
aI0
aI0
aI0
aI0
aF0.089999999999999997
assV\u652f\u4ed8\u5b9d\u94b1\u5305
p384
(dp385
g78
(lp386
I0
aI0
aI0
aI0
aI0
aI0
aF0.10000000000000001
assg69
(dp387
g78
(lp388
I0
aI0
aI0
aI0
aI0
aI0
aF0.02
asssg33
(dp389
V[com.sec.android.app.capabilitymanager]
p390
(dp391
g78
(lp392
I0
aI0
aI0
aI0
aI0
aI0
aF0.10000000000000001
assg224
(dp393
g78
(lp394
I0
aI0
aI0
aI0
aI0
aI0
aF0.059999999999999998
assV[TouchWiz \u4e3b\u9875]
p395
(dp396
g78
(lp397
I0
aI0
aI0
aI0
aI0
aI0
aF0.089999999999999997
assg49
(dp398
g78
(lp399
I0
aI0
aI0
aI0
aI0
aI0
aF0.080000000000000002
assg15
(dp400
g78
(lp401
I0
aI0
aI0
aI0
aI0
aI0
aF0.10000000000000001
assV[\u997f\u4e86\u4e48]
p402
(dp403
g78
(lp404
I0
aI0
aI0
aI0
aI0
aI0
aF0.10000000000000001
assV\u7f51\u6613\u65b0\u95fb
p405
(dp406
g78
(lp407
I0
aI0
aI0
aI0
aI0
aI0
aF0.11
assg65
(dp408
g78
(lp409
I0
aI0
aI0
aI0
aI0
aI0
aF0.11
assg19
(dp410
g78
(lp411
I0
aI0
aI0
aI0
aI0
aI0
aF-0.080000000000000002
assg41
(dp412
g78
(lp413
I0
aI0
aI0
aI0
aI0
aI0
aF-0.070000000000000007
assg51
(dp414
g78
(lp415
I0
aI0
aI0
aI0
aI0
aI0
aF0.11
assg53
(dp416
g78
(lp417
I0
aI0
aI0
aI0
aI0
aI0
aF0.040000000000000001
assV[PopupuiReceiver]
p418
(dp419
g78
(lp420
I0
aI0
aI0
aI0
aI0
aI0
aF-0.070000000000000007
asssg35
(dp421
g326
(dp422
g78
(lp423
I0
aI0
aI0
aI0
aI0
aI0
aF-0.050000000000000003
assV[TouchWiz \u4e3b\u9875]
p424
(dp425
g78
(lp426
I0
aI0
aI0
aI0
aI0
aI0
aF0.11
assg43
(dp427
g78
(lp428
I0
aI0
aI0
aI0
aI0
aI0
aF0.11
assg49
(dp429
g78
(lp430
I0
aI0
aI0
aI0
aI0
aI0
aF-0.040000000000000001
assV\u5fae\u4fe1
p431
(dp432
g78
(lp433
I0
aI0
aI0
aI0
aI0
aI0
aF0.089999999999999997
assg47
(dp434
g78
(lp435
I0
aI0
aI0
aI0
aI0
aI0
aF-0.17000000000000001
assg376
(dp436
g78
(lp437
I0
aI0
aI0
aI0
aI0
aI0
aF0.10000000000000001
assg204
(dp438
g78
(lp439
I0
aI0
aI0
aI0
aI0
aI0
aF-0.070000000000000007
assg63
(dp440
g78
(lp441
I0
aI0
aI0
aI0
aI0
aI0
aF-0.10000000000000001
assV[36\u6c2a]
p442
(dp443
g78
(lp444
I0
aI0
aI0
aI0
aI0
aI0
aF0.089999999999999997
assV\u652f\u4ed8\u5b9d\u94b1\u5305
p445
(dp446
g78
(lp447
I0
aI0
aI0
aI0
aI0
aI0
aF0.01
assV[KeyguardTestActivity]
p448
(dp449
g78
(lp450
I0
aI0
aI0
aI0
aI0
aI0
aF-0.17999999999999999
assg53
(dp451
g78
(lp452
I0
aI0
aI0
aI0
aI0
aI0
aF0.070000000000000007
assVWPS Office
p453
(dp454
g78
(lp455
I0
aI0
aI0
aI0
aI0
aI0
aF0.11
assg69
(dp456
g78
(lp457
I0
aI0
aI0
aI0
aI0
aI0
aF0.10000000000000001
asssg37
(dp458
V[com.sec.android.app.capabilitymanager]
p459
(dp460
g78
(lp461
I0
aI0
aI0
aI0
aI0
aI0
aF0.11
assVQQ
p462
(dp463
g78
(lp464
I0
aI0
aI0
aI0
aI0
aI0
aF0.10000000000000001
assV[TouchWiz \u4e3b\u9875]
p465
(dp466
g78
(lp467
I0
aI0
aI0
aI0
aI0
aI0
aF0.080000000000000002
assg43
(dp468
g78
(lp469
I0
aI0
aI0
aI0
aI0
aI0
aF0.089999999999999997
assV\u5fae\u4fe1
p470
(dp471
g78
(lp472
I0
aI0
aI0
aI0
aI0
aI0
aF0.080000000000000002
asssg39
(dp473
V[com.sec.android.app.capabilitymanager]
p474
(dp475
g78
(lp476
I0
aI0
aI0
aI0
aI0
aI0
aF0.10000000000000001
assV[TouchWiz \u4e3b\u9875]
p477
(dp478
g78
(lp479
I0
aI0
aI0
aI0
aI0
aI0
aF0.10000000000000001
assg43
(dp480
g78
(lp481
I0
aI0
aI0
aI0
aI0
aI0
aF0.10000000000000001
assg35
(dp482
g78
(lp483
I0
aI0
aI0
aI0
aI0
aI0
aF0.10000000000000001
assV\u5fae\u4fe1
p484
(dp485
g78
(lp486
I0
aI0
aI0
aI0
aI0
aI0
aF0.01
assg37
(dp487
g78
(lp488
I0
aI0
aI0
aI0
aI0
aI0
aF0.10000000000000001
assV\u5fae\u535a
p489
(dp490
g78
(lp491
I0
aI0
aI0
aI0
aI0
aI0
aF-0.01
assg49
(dp492
g78
(lp493
I0
aI0
aI0
aI0
aI0
aI0
aF0.070000000000000007
assg51
(dp494
g78
(lp495
I0
aI0
aI0
aI0
aI0
aI0
aF0.10000000000000001
assg207
(dp496
g78
(lp497
I0
aI0
aI0
aI0
aI0
aI0
aF0.10000000000000001
asssg41
(dp498
V[com.sec.android.app.capabilitymanager]
p499
(dp500
g78
(lp501
I0
aI0
aI0
aI0
aI0
aI0
aF0.040000000000000001
assV[TouchWiz \u4e3b\u9875]
p502
(dp503
g78
(lp504
I0
aI0
aI0
aI0
aI0
aI0
aF0.070000000000000007
assV[\u8c4c\u8c46\u835a]
p505
(dp506
g78
(lp507
I0
aI0
aI0
aI0
aI0
aI0
aF0.050000000000000003
assg15
(dp508
g78
(lp509
I0
aI0
aI0
aI0
aI0
aI0
aF0.040000000000000001
assV\u5fae\u4fe1
p510
(dp511
g78
(lp512
I0
aI0
aI0
aI0
aI0
aI0
aF0.070000000000000007
assV\u7f51\u6613\u65b0\u95fb
p513
(dp514
g78
(lp515
I0
aI0
aI0
aI0
aI0
aI0
aF-0.029999999999999999
assV\u5fae\u535a
p516
(dp517
g78
(lp518
I0
aI0
aI0
aI0
aI0
aI0
aF-0.01
assg19
(dp519
g78
(lp520
I0
aI0
aI0
aI0
aI0
aI0
aF-0.14000000000000001
assV[\u65e0\u79d8]
p521
(dp522
g78
(lp523
I0
aI0
aI0
aI0
aI0
aI0
aF-0.01
assg51
(dp524
g78
(lp525
I0
aI0
aI0
aI0
aI0
aI0
aF0.050000000000000003
assg53
(dp526
g78
(lp527
I0
aI0
aI0
aI0
aI0
aI0
aF-0.02
assV[PopupuiReceiver]
p528
(dp529
g78
(lp530
I0
aI0
aI0
aI0
aI0
aI0
aF0.10000000000000001
asssg43
(dp531
g363
(dp532
g78
(lp533
I0
aI0
aI0
aI0
aI0
aI0
aF0.10000000000000001
assV[TouchWiz \u4e3b\u9875]
p534
(dp535
g78
(lp536
I0
aI0
aI0
aI0
aI0
aI0
aF0.10000000000000001
assg35
(dp537
g78
(lp538
I0
aI0
aI0
aI0
aI0
aI0
aF0.10000000000000001
assg373
(dp539
g78
(lp540
I0
aI0
aI0
aI0
aI0
aI0
aF0.02
assVQQ\u90ae\u7bb1
p541
(dp542
g78
(lp543
I0
aI0
aI0
aI0
aI0
aI0
aF0.10000000000000001
assg376
(dp544
g78
(lp545
I0
aI0
aI0
aI0
aI0
aI0
aF0.10000000000000001
assg63
(dp546
g78
(lp547
I0
aI0
aI0
aI0
aI0
aI0
aF0.10000000000000001
assV[36\u6c2a]
p548
(dp549
g78
(lp550
I0
aI0
aI0
aI0
aI0
aI0
aF0.089999999999999997
assg384
(dp551
g78
(lp552
I0
aI0
aI0
aI0
aI0
aI0
aF0.10000000000000001
assg31
(dp553
g78
(lp554
I0
aI0
aI0
aI0
aI0
aI0
aF0.11
assg69
(dp555
g78
(lp556
I0
aI0
aI0
aI0
aI0
aI0
aF0.02
asssg45
(dp557
VQQ
p558
(dp559
g78
(lp560
I0
aI0
aI0
aI0
aI0
aI0
aF0.10000000000000001
assV[TouchWiz \u4e3b\u9875]
p561
(dp562
g78
(lp563
I0
aI0
aI0
aI0
aI0
aI0
aF0.11
assg41
(dp564
g78
(lp565
I0
aI0
aI0
aI0
aI0
aI0
aF0.10000000000000001
assg43
(dp566
g78
(lp567
I0
aI0
aI0
aI0
aI0
aI0
aF-0.12
assg35
(dp568
g78
(lp569
I0
aI0
aI0
aI0
aI0
aI0
aF-0.13
assg15
(dp570
g78
(lp571
I0
aI0
aI0
aI0
aI0
aI0
aF0.080000000000000002
assg59
(dp572
g78
(lp573
I0
aI0
aI0
aI0
aI0
aI0
aF-0.02
assg69
(dp574
g78
(lp575
I0
aI0
aI0
aI0
aI0
aI0
aF0.040000000000000001
assV[\u8c4c\u8c46\u835a]
p576
(dp577
g78
(lp578
I0
aI0
aI0
aI0
aI0
aI0
aF0.080000000000000002
assg17
(dp579
g78
(lp580
I0
aI0
aI0
aI0
aI0
aI0
aF-0.059999999999999998
assV[36\u6c2a]
p581
(dp582
g78
(lp583
I0
aI0
aI0
aI0
aI0
aI0
aF-0.14000000000000001
assg63
(dp584
g78
(lp585
I0
aI0
aI0
aI0
aI0
aI0
aF0.050000000000000003
assg49
(dp586
g78
(lp587
I0
aI0
aI0
aI0
aI0
aI0
aF0.050000000000000003
assV[\u65e0\u79d8]
p588
(dp589
g78
(lp590
I0
aI0
aI0
aI0
aI0
aI0
aF0.10000000000000001
assg37
(dp591
g78
(lp592
I0
aI0
aI0
aI0
aI0
aI0
aF0.040000000000000001
assg67
(dp593
g78
(lp594
I0
aI0
aI0
aI0
aI0
aI0
aF-0.029999999999999999
assg53
(dp595
g78
(lp596
I0
aI0
aI0
aI0
aI0
aI0
aF0.02
assg265
(dp597
g78
(lp598
I0
aI0
aI0
aI0
aI0
aI0
aF-0.13
assg384
(dp599
g78
(lp600
I0
aI0
aI0
aI0
aI0
aI0
aF0.040000000000000001
asssg47
(dp601
VQQ
p602
(dp603
g78
(lp604
I0
aI0
aI0
aI0
aI0
aI0
aF0.080000000000000002
assV[TouchWiz \u4e3b\u9875]
p605
(dp606
g78
(lp607
I0
aI0
aI0
aI0
aI0
aI0
aF0.10000000000000001
assg298
(dp608
g78
(lp609
I0
aI0
aI0
aI0
aI0
aI0
aF0.040000000000000001
assg35
(dp610
g78
(lp611
I0
aI0
aI0
aI0
aI0
aI0
aF0.02
assV\u5fae\u4fe1
p612
(dp613
g78
(lp614
I0
aI0
aI0
aI0
aI0
aI0
aF0.080000000000000002
assV[KeyguardTestActivity]
p615
(dp616
g78
(lp617
I0
aI0
aI0
aI0
aI0
aI0
aF0.10000000000000001
assg63
(dp618
g78
(lp619
I0
aI0
aI0
aI0
aI0
aI0
aF0.02
assV\u7f51\u6613\u65b0\u95fb
p620
(dp621
g78
(lp622
I0
aI0
aI0
aI0
aI0
aI0
aF0.10000000000000001
assg53
(dp623
g78
(lp624
I0
aI0
aI0
aI0
aI0
aI0
aF0.10000000000000001
asssg49
(dp625
g326
(dp626
g78
(lp627
I0
aI0
aI0
aI0
aI0
aI0
aF0.10000000000000001
assg101
(dp628
g78
(lp629
I0
aI0
aI0
aI0
aI0
aI0
aF0.10000000000000001
assV[TouchWiz \u4e3b\u9875]
p630
(dp631
g78
(lp632
I0
aI0
aI0
aI0
aI0
aI0
aF0.11
assg41
(dp633
g78
(lp634
I0
aI0
aI0
aI0
aI0
aI0
aF0.080000000000000002
assg43
(dp635
g78
(lp636
I0
aI0
aI0
aI0
aI0
aI0
aF-0.070000000000000007
assg35
(dp637
g78
(lp638
I0
aI0
aI0
aI0
aI0
aI0
aF-0.070000000000000007
assV\u5fae\u4fe1
p639
(dp640
g78
(lp641
I0
aI0
aI0
aI0
aI0
aI0
aF-0.02
assV\u5fae\u535a
p642
(dp643
g78
(lp644
I0
aI0
aI0
aI0
aI0
aI0
aF0.080000000000000002
assg63
(dp645
g78
(lp646
I0
aI0
aI0
aI0
aI0
aI0
aF0.089999999999999997
assV[PopupuiReceiver]
p647
(dp648
g78
(lp649
I0
aI0
aI0
aI0
aI0
aI0
aF-0.070000000000000007
assV[36\u6c2a]
p650
(dp651
g78
(lp652
I0
aI0
aI0
aI0
aI0
aI0
aF-0.080000000000000002
assV[KeyguardTestActivity]
p653
(dp654
g78
(lp655
I0
aI0
aI0
aI0
aI0
aI0
aF0.10000000000000001
assV[\u65e0\u79d8]
p656
(dp657
g78
(lp658
I0
aI0
aI0
aI0
aI0
aI0
aF-0.17999999999999999
assg67
(dp659
g78
(lp660
I0
aI0
aI0
aI0
aI0
aI0
aF0.059999999999999998
assV[\u997f\u4e86\u4e48]
p661
(dp662
g78
(lp663
I0
aI0
aI0
aI0
aI0
aI0
aF0.11
assg53
(dp664
g78
(lp665
I0
aI0
aI0
aI0
aI0
aI0
aF0.11
assg265
(dp666
g78
(lp667
I0
aI0
aI0
aI0
aI0
aI0
aF-0.070000000000000007
assV\u652f\u4ed8\u5b9d\u94b1\u5305
p668
(dp669
g78
(lp670
I0
aI0
aI0
aI0
aI0
aI0
aF0.11
asssg51
(dp671
V[com.sec.android.app.capabilitymanager]
p672
(dp673
g78
(lp674
I0
aI0
aI0
aI0
aI0
aI0
aF0.10000000000000001
assg76
(dp675
g78
(lp676
I0
aI0
aI0
aI0
aI0
aI0
aF-0.029999999999999999
assV[TouchWiz \u4e3b\u9875]
p677
(dp678
g78
(lp679
I0
aI0
aI0
aI0
aI0
aI0
aF0.089999999999999997
assg43
(dp680
g78
(lp681
I0
aI0
aI0
aI0
aI0
aI0
aF0.089999999999999997
assg49
(dp682
g78
(lp683
I0
aI0
aI0
aI0
aI0
aI0
aF0.089999999999999997
assg15
(dp684
g78
(lp685
I0
aI0
aI0
aI0
aI0
aI0
aF0.11
assg89
(dp686
g78
(lp687
I0
aI0
aI0
aI0
aI0
aI0
aF0.01
assg37
(dp688
g78
(lp689
I0
aI0
aI0
aI0
aI0
aI0
aF0.11
assg98
(dp690
g78
(lp691
I0
aI0
aI0
aI0
aI0
aI0
aF-0.14999999999999999
assV\u7f51\u6613\u4e91\u97f3\u4e50
p692
(dp693
g78
(lp694
I0
aI0
aI0
aI0
aI0
aI0
aF0.11
assg19
(dp695
g78
(lp696
I0
aI0
aI0
aI0
aI0
aI0
aF-0.080000000000000002
assg41
(dp697
g78
(lp698
I0
aI0
aI0
aI0
aI0
aI0
aF-0.070000000000000007
assV[\u997f\u4e86\u4e48]
p699
(dp700
g78
(lp701
I0
aI0
aI0
aI0
aI0
aI0
aF0.10000000000000001
assg53
(dp702
g78
(lp703
I0
aI0
aI0
aI0
aI0
aI0
aF0.040000000000000001
assV[PopupuiReceiver]
p704
(dp705
g78
(lp706
I0
aI0
aI0
aI0
aI0
aI0
aF-0.070000000000000007
asssg53
(dp707
VQQ
p708
(dp709
g78
(lp710
I0
aI0
aI0
aI0
aI0
aI0
aF0.080000000000000002
assV[TouchWiz \u4e3b\u9875]
p711
(dp712
g78
(lp713
I0
aI0
aI0
aI0
aI0
aI0
aF0.10000000000000001
assg43
(dp714
g78
(lp715
I0
aI0
aI0
aI0
aI0
aI0
aF0.050000000000000003
assg35
(dp716
g78
(lp717
I0
aI0
aI0
aI0
aI0
aI0
aF0.10000000000000001
assg15
(dp718
g78
(lp719
I0
aI0
aI0
aI0
aI0
aI0
aF0.11
assg612
(dp720
g78
(lp721
I0
aI0
aI0
aI0
aI0
aI0
aF0.080000000000000002
assg69
(dp722
g78
(lp723
I0
aI0
aI0
aI0
aI0
aI0
aF-0.01
assg47
(dp724
g78
(lp725
I0
aI0
aI0
aI0
aI0
aI0
aF0.11
assV[KeyguardTestActivity]
p726
(dp727
g78
(lp728
I0
aI0
aI0
aI0
aI0
aI0
aF0.11
assg19
(dp729
g78
(lp730
I0
aI0
aI0
aI0
aI0
aI0
aF-0.01
assg204
(dp731
g78
(lp732
I0
aI0
aI0
aI0
aI0
aI0
aF0.070000000000000007
assg63
(dp733
g78
(lp734
I0
aI0
aI0
aI0
aI0
aI0
aF0.11
assVWPS Office
p735
(dp736
g78
(lp737
I0
aI0
aI0
aI0
aI0
aI0
aF0.050000000000000003
assg49
(dp738
g78
(lp739
I0
aI0
aI0
aI0
aI0
aI0
aF0.10000000000000001
assV\u7f51\u6613\u65b0\u95fb
p740
(dp741
g78
(lp742
I0
aI0
aI0
aI0
aI0
aI0
aF0.050000000000000003
assV[\u997f\u4e86\u4e48]
p743
(dp744
g78
(lp745
I0
aI0
aI0
aI0
aI0
aI0
aF0.10000000000000001
assV\u652f\u4ed8\u5b9d\u94b1\u5305
p746
(dp747
g78
(lp748
I0
aI0
aI0
aI0
aI0
aI0
aF0.10000000000000001
asssg55
(dp749
V[TouchWiz \u4e3b\u9875]
p750
(dp751
g78
(lp752
I0
aI0
aI0
aI0
aI0
aI0
aF0.11
assg15
(dp753
g78
(lp754
I0
aI0
aI0
aI0
aI0
aI0
aF0.11
assg516
(dp755
g78
(lp756
I0
aI0
aI0
aI0
aI0
aI0
aF-0.01
assg19
(dp757
g78
(lp758
I0
aI0
aI0
aI0
aI0
aI0
aF0.10000000000000001
assV[\u65e0\u79d8]
p759
(dp760
g78
(lp761
I0
aI0
aI0
aI0
aI0
aI0
aF-0.01
assg41
(dp762
g78
(lp763
I0
aI0
aI0
aI0
aI0
aI0
aF0.11
asssg57
(dp764
V[com.sec.android.app.capabilitymanager]
p765
(dp766
g78
(lp767
I0
aI0
aI0
aI0
aI0
aI0
aF0.040000000000000001
assV[TouchWiz \u4e3b\u9875]
p768
(dp769
g78
(lp770
I0
aI0
aI0
aI0
aI0
aI0
aF0.11
assg13
(dp771
g78
(lp772
I0
aI0
aI0
aI0
aI0
aI0
aF0.10000000000000001
assg15
(dp773
g78
(lp774
I0
aI0
aI0
aI0
aI0
aI0
aF0.040000000000000001
assV\u7f51\u6613\u65b0\u95fb
p775
(dp776
g78
(lp777
I0
aI0
aI0
aI0
aI0
aI0
aF0.11
assg19
(dp778
g78
(lp779
I0
aI0
aI0
aI0
aI0
aI0
aF-0.14999999999999999
assV[\u70b9\u70b9]
p780
(dp781
g78
(lp782
I0
aI0
aI0
aI0
aI0
aI0
aF0.089999999999999997
assV[\u997f\u4e86\u4e48]
p783
(dp784
g78
(lp785
I0
aI0
aI0
aI0
aI0
aI0
aF0.11
assg31
(dp786
g78
(lp787
I0
aI0
aI0
aI0
aI0
aI0
aF0.10000000000000001
assV[\u8c4c\u8c46\u835a]
p788
(dp789
g78
(lp790
I0
aI0
aI0
aI0
aI0
aI0
aF0.040000000000000001
assg35
(dp791
g78
(lp792
I0
aI0
aI0
aI0
aI0
aI0
aF0.10000000000000001
assg37
(dp793
g78
(lp794
I0
aI0
aI0
aI0
aI0
aI0
aF0.10000000000000001
assV[\u65e0\u79d8]
p795
(dp796
g78
(lp797
I0
aI0
aI0
aI0
aI0
aI0
aF-0.17999999999999999
assg41
(dp798
g78
(lp799
I0
aI0
aI0
aI0
aI0
aI0
aF0.080000000000000002
assg43
(dp800
g78
(lp801
I0
aI0
aI0
aI0
aI0
aI0
aF0.10000000000000001
assg45
(dp802
g78
(lp803
I0
aI0
aI0
aI0
aI0
aI0
aF0.040000000000000001
assg47
(dp804
g78
(lp805
I0
aI0
aI0
aI0
aI0
aI0
aF-0.17999999999999999
assg49
(dp806
g78
(lp807
I0
aI0
aI0
aI0
aI0
aI0
aF0.10000000000000001
assg51
(dp808
g78
(lp809
I0
aI0
aI0
aI0
aI0
aI0
aF0.040000000000000001
assg53
(dp810
g78
(lp811
I0
aI0
aI0
aI0
aI0
aI0
aF-0.19
assV[PopupuiReceiver]
p812
(dp813
g78
(lp814
I0
aI0
aI0
aI0
aI0
aI0
aF-0.070000000000000007
assV[KeyguardTestActivity]
p815
(dp816
g78
(lp817
I0
aI0
aI0
aI0
aI0
aI0
aF0.089999999999999997
assg63
(dp818
g78
(lp819
I0
aI0
aI0
aI0
aI0
aI0
aF0.089999999999999997
assV\u9177\u72d7\u97f3\u4e50
p820
(dp821
g78
(lp822
I0
aI0
aI0
aI0
aI0
aI0
aF0.10000000000000001
assg69
(dp823
g78
(lp824
I0
aI0
aI0
aI0
aI0
aI0
aF0.10000000000000001
asssg59
(dp825
V[com.sec.android.app.capabilitymanager]
p826
(dp827
g78
(lp828
I0
aI0
aI0
aI0
aI0
aI0
aF0.029999999999999999
assV[TouchWiz \u4e3b\u9875]
p829
(dp830
g78
(lp831
I0
aI0
aI0
aI0
aI0
aI0
aF0.10000000000000001
assg445
(dp832
g78
(lp833
I0
aI0
aI0
aI0
aI0
aI0
aF0.089999999999999997
assg15
(dp834
g78
(lp835
I0
aI0
aI0
aI0
aI0
aI0
aF0.029999999999999999
assg513
(dp836
g78
(lp837
I0
aI0
aI0
aI0
aI0
aI0
aF-0.059999999999999998
assg19
(dp838
g78
(lp839
I0
aI0
aI0
aI0
aI0
aI0
aF-0.14999999999999999
assV[\u997f\u4e86\u4e48]
p840
(dp841
g78
(lp842
I0
aI0
aI0
aI0
aI0
aI0
aF0.11
assVWPS Office
p843
(dp844
g78
(lp845
I0
aI0
aI0
aI0
aI0
aI0
aF0.059999999999999998
assV[\u8c4c\u8c46\u835a]
p846
(dp847
g78
(lp848
I0
aI0
aI0
aI0
aI0
aI0
aF0.040000000000000001
assg35
(dp849
g78
(lp850
I0
aI0
aI0
aI0
aI0
aI0
aF0.050000000000000003
assg37
(dp851
g78
(lp852
I0
aI0
aI0
aI0
aI0
aI0
aF0.089999999999999997
assV[\u65e0\u79d8]
p853
(dp854
g78
(lp855
I0
aI0
aI0
aI0
aI0
aI0
aF-0.050000000000000003
assg41
(dp856
g78
(lp857
I0
aI0
aI0
aI0
aI0
aI0
aF0.080000000000000002
assg43
(dp858
g78
(lp859
I0
aI0
aI0
aI0
aI0
aI0
aF0.059999999999999998
assV\u5fae\u535a
p860
(dp861
g78
(lp862
I0
aI0
aI0
aI0
aI0
aI0
aF0.11
assg47
(dp863
g78
(lp864
I0
aI0
aI0
aI0
aI0
aI0
aF-0.17000000000000001
assg49
(dp865
g78
(lp866
I0
aI0
aI0
aI0
aI0
aI0
aF0.01
assg51
(dp867
g78
(lp868
I0
aI0
aI0
aI0
aI0
aI0
aF0.040000000000000001
assg53
(dp869
g78
(lp870
I0
aI0
aI0
aI0
aI0
aI0
aF0.01
assV[PopupuiReceiver]
p871
(dp872
g78
(lp873
I0
aI0
aI0
aI0
aI0
aI0
aF0.059999999999999998
assVQQ
p874
(dp875
g78
(lp876
I0
aI0
aI0
aI0
aI0
aI0
aF0.02
assV[KeyguardTestActivity]
p877
(dp878
g78
(lp879
I0
aI0
aI0
aI0
aI0
aI0
aF-0.17999999999999999
assg63
(dp880
g78
(lp881
I0
aI0
aI0
aI0
aI0
aI0
aF0.089999999999999997
assg692
(dp882
g78
(lp883
I0
aI0
aI0
aI0
aI0
aI0
aF0.11
assg820
(dp884
g78
(lp885
I0
aI0
aI0
aI0
aI0
aI0
aF0.10000000000000001
assg69
(dp886
g78
(lp887
I0
aI0
aI0
aI0
aI0
aI0
aF0.10000000000000001
asssg61
(dp888
VQQ
p889
(dp890
g78
(lp891
I0
aI0
aI0
aI0
aI0
aI0
aF0.11
assV[TouchWiz \u4e3b\u9875]
p892
(dp893
g78
(lp894
I0
aI0
aI0
aI0
aI0
aI0
aF0.11
assV[\u8c4c\u8c46\u835a]
p895
(dp896
g78
(lp897
I0
aI0
aI0
aI0
aI0
aI0
aF0.10000000000000001
assV\u652f\u4ed8\u5b9d\u94b1\u5305
p898
(dp899
g78
(lp900
I0
aI0
aI0
aI0
aI0
aI0
aF0.11
assV\u5fae\u4fe1
p901
(dp902
g78
(lp903
I0
aI0
aI0
aI0
aI0
aI0
aF0.10000000000000001
assg63
(dp904
g78
(lp905
I0
aI0
aI0
aI0
aI0
aI0
aF0.029999999999999999
assg740
(dp906
g78
(lp907
I0
aI0
aI0
aI0
aI0
aI0
aF0.01
assg860
(dp908
g78
(lp909
I0
aI0
aI0
aI0
aI0
aI0
aF0.10000000000000001
assg47
(dp910
g78
(lp911
I0
aI0
aI0
aI0
aI0
aI0
aF0.11
assg49
(dp912
g78
(lp913
I0
aI0
aI0
aI0
aI0
aI0
aF0.080000000000000002
assg53
(dp914
g78
(lp915
I0
aI0
aI0
aI0
aI0
aI0
aF-0.02
assg35
(dp916
g78
(lp917
I0
aI0
aI0
aI0
aI0
aI0
aF0.029999999999999999
asssg63
(dp918
VQQ
p919
(dp920
g78
(lp921
I0
aI0
aI0
aI0
aI0
aI0
aF0.089999999999999997
assV[TouchWiz \u4e3b\u9875]
p922
(dp923
g78
(lp924
I0
aI0
aI0
aI0
aI0
aI0
aF0.11
assg43
(dp925
g78
(lp926
I0
aI0
aI0
aI0
aI0
aI0
aF-0.070000000000000007
assg35
(dp927
g78
(lp928
I0
aI0
aI0
aI0
aI0
aI0
aF-0.070000000000000007
assV\u5fae\u4fe1
p929
(dp930
g78
(lp931
I0
aI0
aI0
aI0
aI0
aI0
aF0.10000000000000001
assg47
(dp932
g78
(lp933
I0
aI0
aI0
aI0
aI0
aI0
aF-0.17000000000000001
assg204
(dp934
g78
(lp935
I0
aI0
aI0
aI0
aI0
aI0
aF-0.029999999999999999
assV[36\u6c2a]
p936
(dp937
g78
(lp938
I0
aI0
aI0
aI0
aI0
aI0
aF-0.080000000000000002
assg49
(dp939
g78
(lp940
I0
aI0
aI0
aI0
aI0
aI0
aF0.11
assV[KeyguardTestActivity]
p941
(dp942
g78
(lp943
I0
aI0
aI0
aI0
aI0
aI0
aF-0.17999999999999999
assg53
(dp944
g78
(lp945
I0
aI0
aI0
aI0
aI0
aI0
aF-0.17999999999999999
assg265
(dp946
g78
(lp947
I0
aI0
aI0
aI0
aI0
aI0
aF-0.070000000000000007
assg445
(dp948
g78
(lp949
I0
aI0
aI0
aI0
aI0
aI0
aF0.059999999999999998
asssg65
(dp950
V[TouchWiz \u4e3b\u9875]
p951
(dp952
g78
(lp953
I0
aI0
aI0
aI0
aI0
aI0
aF0.11
assV\u5fae\u4fe1
p954
(dp955
g78
(lp956
I0
aI0
aI0
aI0
aI0
aI0
aF0.11
assV[\u997f\u4e86\u4e48]
p957
(dp958
g78
(lp959
I0
aI0
aI0
aI0
aI0
aI0
aF0.11
assg98
(dp960
g78
(lp961
I0
aI0
aI0
aI0
aI0
aI0
aF-0.12
assg49
(dp962
g78
(lp963
I0
aI0
aI0
aI0
aI0
aI0
aF0.059999999999999998
assg41
(dp964
g78
(lp965
I0
aI0
aI0
aI0
aI0
aI0
aF-0.23999999999999999
assg51
(dp966
g78
(lp967
I0
aI0
aI0
aI0
aI0
aI0
aF0.11
assV[PopupuiReceiver]
p968
(dp969
g78
(lp970
I0
aI0
aI0
aI0
aI0
aI0
aF-0.29999999999999999
asssg67
(dp971
VQQ
p972
(dp973
g78
(lp974
I0
aI0
aI0
aI0
aI0
aI0
aF0.02
assV[TouchWiz \u4e3b\u9875]
p975
(dp976
g78
(lp977
I0
aI0
aI0
aI0
aI0
aI0
aF0.02
assV[\u8c4c\u8c46\u835a]
p978
(dp979
g78
(lp980
I0
aI0
aI0
aI0
aI0
aI0
aF0.089999999999999997
assg43
(dp981
g78
(lp982
I0
aI0
aI0
aI0
aI0
aI0
aF0.089999999999999997
assg35
(dp983
g78
(lp984
I0
aI0
aI0
aI0
aI0
aI0
aF0.10000000000000001
assg639
(dp985
g78
(lp986
I0
aI0
aI0
aI0
aI0
aI0
aF0.02
assV\u7f51\u6613\u65b0\u95fb
p987
(dp988
g78
(lp989
I0
aI0
aI0
aI0
aI0
aI0
aF-0.059999999999999998
assV\u5fae\u535a
p990
(dp991
g78
(lp992
I0
aI0
aI0
aI0
aI0
aI0
aF-0.070000000000000007
assg65
(dp993
g78
(lp994
I0
aI0
aI0
aI0
aI0
aI0
aF0.089999999999999997
assg51
(dp995
g78
(lp996
I0
aI0
aI0
aI0
aI0
aI0
aF0.089999999999999997
assVWPS Office
p997
(dp998
g78
(lp999
I0
aI0
aI0
aI0
aI0
aI0
aF0.089999999999999997
assg69
(dp1000
g78
(lp1001
I0
aI0
aI0
aI0
aI0
aI0
aF0.089999999999999997
asssg69
(dp1002
VQQ
p1003
(dp1004
g78
(lp1005
I0
aI0
aI0
aI0
aI0
aI0
aF0.10000000000000001
assV[com.sec.android.app.capabilitymanager]
p1006
(dp1007
g78
(lp1008
I0
aI0
aI0
aI0
aI0
aI0
aF0.10000000000000001
assV[TouchWiz \u4e3b\u9875]
p1009
(dp1010
g78
(lp1011
I0
aI0
aI0
aI0
aI0
aI0
aF0.11
assg43
(dp1012
g78
(lp1013
I0
aI0
aI0
aI0
aI0
aI0
aF0.11
assg470
(dp1014
g78
(lp1015
I0
aI0
aI0
aI0
aI0
aI0
aF0.080000000000000002
assg37
(dp1016
g78
(lp1017
I0
aI0
aI0
aI0
aI0
aI0
aF0.10000000000000001
assV[\u65e0\u79d8]
p1018
(dp1019
g78
(lp1020
I0
aI0
aI0
aI0
aI0
aI0
aF0.11
assg51
(dp1021
g78
(lp1022
I0
aI0
aI0
aI0
aI0
aI0
aF0.10000000000000001
assg53
(dp1023
g78
(lp1024
I0
aI0
aI0
aI0
aI0
aI0
aF-0.01
assg997
(dp1025
g78
(lp1026
I0
aI0
aI0
aI0
aI0
aI0
aF0.10000000000000001
assssS'edge'
p1027
g74
sS'pred'
p1028
(dp1029
g8
(dp1030
VQQ
p1031
g766
sV[TouchWiz \u4e3b\u9875]
p1032
g117
sV[\u8c4c\u8c46\u835a]
p1033
g391
sg15
g222
sV\u5fae\u4fe1
p1034
g827
sg37
g460
sV\u7f51\u6613\u65b0\u95fb
p1035
g252
sV[\u65e0\u79d8]
p1036
g475
sg41
g500
sg51
g673
sg69
g1007
ssg11
(dp1037
V[com.sec.android.app.capabilitymanager]
p1038
g81
sg13
g190
sg15
g228
sg17
g255
sV[36\u6c2a]
p1039
g306
sg23
g313
sV[S \u5907\u5fd8\u5f55]
p1040
g330
sV[\u997f\u4e86\u4e48]
p1041
g340
sg31
g367
sV[\u8c4c\u8c46\u835a]
p1042
g396
sg35
g425
sg37
g466
sV[\u65e0\u79d8]
p1043
g478
sg41
g503
sg43
g535
sg45
g562
sg47
g606
sg49
g631
sg51
g678
sg53
g712
sV[PopupuiReceiver]
p1044
g751
sg57
g769
sg59
g830
sV[KeyguardTestActivity]
p1045
g893
sg63
g923
sg692
g952
sg67
g976
sg69
g1010
ssg13
(dp1046
VQQ
p1047
g771
sV[TouchWiz \u4e3b\u9875]
p1048
g119
sg43
g551
sg35
g446
sV\u5fae\u4fe1
p1049
g832
sV[KeyguardTestActivity]
p1050
g899
sV\u5fae\u535a
p1051
g599
sg63
g948
sg49
g669
sV\u7f51\u6613\u65b0\u95fb
p1052
g258
sg53
g747
sg843
g385
ssg15
(dp1053
g1031
g773
sV[com.sec.android.app.capabilitymanager]
p1054
g87
sV[TouchWiz \u4e3b\u9875]
p1055
g121
sV[\u8c4c\u8c46\u835a]
p1056
g400
sg15
g234
sg1034
g834
sV\u7f51\u6613\u65b0\u95fb
p1057
g260
sV\u5fae\u535a
p1058
g570
sg41
g508
sg51
g684
sg53
g718
sV[PopupuiReceiver]
p1059
g753
ssg17
(dp1060
V[com.sec.android.app.capabilitymanager]
p1061
g99
sg15
g239
sg128
g319
sV[\u997f\u4e86\u4e48]
p1062
g345
sg265
g377
sV[\u8c4c\u8c46\u835a]
p1063
g406
sg35
g436
sg41
g514
sg43
g544
sV\u5fae\u535a
p1064
g579
sg47
g621
sg51
g690
sg53
g741
sg288
g776
sV\u5fae\u4fe1
p1065
g836
sV[KeyguardTestActivity]
p1066
g906
sg101
g960
sV\u9177\u72d7\u97f3\u4e50
p1067
g988
ssg19
(dp1068
g1031
g778
sV[com.sec.android.app.capabilitymanager]
p1069
g104
sV[TouchWiz \u4e3b\u9875]
p1070
g123
sV[\u8c4c\u8c46\u835a]
p1071
g410
sg15
g241
sg1034
g838
sg41
g519
sg51
g695
sg53
g729
sV[PopupuiReceiver]
p1072
g757
ssg21
(dp1073
V[TouchWiz \u4e3b\u9875]
p1074
g126
sg43
g549
sg35
g443
sg17
g263
sg1064
g582
sg63
g937
sg49
g651
sg265
g382
ssg23
(dp1075
V[TouchWiz \u4e3b\u9875]
p1076
g129
ssg25
(dp1077
V[TouchWiz \u4e3b\u9875]
p1078
g132
ssg27
(dp1079
V[com.sec.android.app.capabilitymanager]
p1080
g93
sg76
g784
sV[TouchWiz \u4e3b\u9875]
p1081
g135
sV[\u8c4c\u8c46\u835a]
p1082
g403
sg342
g841
sg101
g958
sg49
g662
sg51
g700
sg53
g744
ssg29
(dp1083
VQQ
p1084
g781
sV[TouchWiz \u4e3b\u9875]
p1085
g138
ssg31
(dp1086
g57
g786
sV[TouchWiz \u4e3b\u9875]
p1087
g140
sg43
g553
sg35
g454
sV\u5fae\u4fe1
p1088
g844
sg17
g266
sV[\u65e0\u79d8]
p1089
g496
sg1064
g597
sg63
g946
sg49
g666
sV\u652f\u4ed8\u5b9d\u94b1\u5305
p1090
g208
sV\u9177\u72d7\u97f3\u4e50
p1091
g998
sg53
g736
sg69
g1025
ssg33
(dp1092
g1031
g789
sV[TouchWiz \u4e3b\u9875]
p1093
g143
sV\u9177\u72d7\u97f3\u4e50
p1094
g979
sg15
g231
sg1034
g847
sV\u7f51\u6613\u65b0\u95fb
p1095
g269
sg1058
g577
sV[KeyguardTestActivity]
p1096
g896
sg41
g506
ssg35
(dp1097
VQQ
p1098
g791
sV[TouchWiz \u4e3b\u9875]
p1099
g145
sg43
g537
sg1090
g196
sV\u5fae\u4fe1
p1100
g849
sg47
g610
sg17
g271
sg1064
g568
sg63
g927
sg49
g637
sV[KeyguardTestActivity]
p1101
g916
sV[\u65e0\u79d8]
p1102
g482
sg1091
g983
sg53
g716
sg265
g371
ssg37
(dp1103
VQQ
p1104
g793
sV[com.sec.android.app.capabilitymanager]
p1105
g96
sV[TouchWiz \u4e3b\u9875]
p1106
g147
sg43
g542
sV\u5fae\u4fe1
p1107
g851
sV\u5fae\u535a
p1108
g591
sV[\u65e0\u79d8]
p1109
g487
sg51
g688
sg69
g1016
ssg39
(dp1110
VQQ
p1111
g796
sV[TouchWiz \u4e3b\u9875]
p1112
g150
sV\u652f\u4ed8\u5b9d\u94b1\u5305
p1113
g213
sV\u5fae\u4fe1
p1114
g854
sg516
g589
sg49
g657
sg41
g522
sV[PopupuiReceiver]
p1115
g760
sg69
g1019
ssg41
(dp1116
VQQ
p1117
g798
sV[com.sec.android.app.capabilitymanager]
p1118
g106
sV[TouchWiz \u4e3b\u9875]
p1119
g152
sV[\u8c4c\u8c46\u835a]
p1120
g412
sg1113
g192
sg15
g243
sg1065
g856
sV[\u997f\u4e86\u4e48]
p1121
g351
sV\u7f51\u6613\u65b0\u95fb
p1122
g273
sV\u5fae\u535a
p1123
g564
sg101
g964
sg49
g633
sg51
g697
sV[PopupuiReceiver]
p1124
g762
ssg43
(dp1125
g57
g800
sV[com.sec.android.app.capabilitymanager]
p1126
g83
sV[TouchWiz \u4e3b\u9875]
p1127
g154
sg35
g427
sg1088
g858
sg37
g468
sg17
g275
sV[\u65e0\u79d8]
p1128
g480
sg1064
g566
sg63
g925
sg49
g635
sg1090
g194
sV[S \u5907\u5fd8\u5f55]
p1129
g332
sg1091
g981
sg51
g680
sg53
g714
sg31
g369
sg69
g1012
ssg45
(dp1130
VQQ
p1131
g802
sV[TouchWiz \u4e3b\u9875]
p1132
g156
sg67
g991
sg35
g438
sg901
g861
sV[KeyguardTestActivity]
p1133
g908
sg63
g934
sg49
g643
sV[\u65e0\u79d8]
p1134
g490
sg41
g517
sg53
g731
sV[PopupuiReceiver]
p1135
g755
sg445
g205
ssg47
(dp1136
VQQ
p1137
g804
sV[TouchWiz \u4e3b\u9875]
p1138
g158
sg35
g434
sV\u5fae\u4fe1
p1139
g863
sV[KeyguardTestActivity]
p1140
g910
sg63
g932
sV\u7f51\u6613\u65b0\u95fb
p1141
g277
sg53
g724
ssg49
(dp1142
VQQ
p1143
g806
sV[com.sec.android.app.capabilitymanager]
p1144
g85
sV[TouchWiz \u4e3b\u9875]
p1145
g160
sV[\u8c4c\u8c46\u835a]
p1146
g398
sg35
g429
sg1100
g865
sV[\u997f\u4e86\u4e48]
p1147
g349
sV\u7f51\u6613\u65b0\u95fb
p1148
g279
sg1064
g586
sg63
g939
sg101
g962
sV[\u65e0\u79d8]
p1149
g492
sV[S \u5907\u5fd8\u5f55]
p1150
g334
sV[KeyguardTestActivity]
p1151
g912
sg51
g682
sg53
g738
sg445
g210
ssg51
(dp1152
g1031
g808
sV[com.sec.android.app.capabilitymanager]
p1153
g108
sV[TouchWiz \u4e3b\u9875]
p1154
g162
sV[\u8c4c\u8c46\u835a]
p1155
g414
sg1094
g995
sg1034
g867
sg1095
g281
sg65
g966
sV[\u65e0\u79d8]
p1156
g494
sg41
g524
sg69
g1021
ssg53
(dp1157
g1137
g810
sV[com.sec.android.app.capabilitymanager]
p1158
g110
sV[TouchWiz \u4e3b\u9875]
p1159
g164
sV[\u8c4c\u8c46\u835a]
p1160
g416
sg35
g451
sg15
g245
sg1100
g869
sg69
g1023
sg47
g623
sV[KeyguardTestActivity]
p1161
g914
sg1057
g283
sV[\u997f\u4e86\u4e48]
p1162
g353
sg1058
g595
sg63
g944
sg49
g664
sg128
g321
sg41
g526
sg51
g702
sg445
g215
ssg55
(dp1163
g1111
g813
sV[com.sec.android.app.capabilitymanager]
p1164
g113
sV[TouchWiz \u4e3b\u9875]
p1165
g167
sV[\u8c4c\u8c46\u835a]
p1166
g419
sg1113
g218
sg15
g248
sg1114
g872
sV[\u997f\u4e86\u4e48]
p1167
g356
sg98
g286
sg101
g969
sg49
g648
sg41
g529
sg51
g705
ssg57
(dp1168
V[com.sec.android.app.capabilitymanager]
p1169
g77
sV[TouchWiz \u4e3b\u9875]
p1170
g170
sg445
g187
sg15
g225
sg1148
g289
sg23
g310
sV[S \u5907\u5fd8\u5f55]
p1171
g327
sV[\u997f\u4e86\u4e48]
p1172
g337
sV[\u70b9\u70b9]
p1173
g360
sg31
g364
sV[\u8c4c\u8c46\u835a]
p1174
g393
sg35
g422
sg37
g463
sg43
g532
sg642
g559
sg47
g603
sg49
g626
sg51
g675
sg53
g709
sg59
g875
sV[KeyguardTestActivity]
p1175
g890
sg63
g920
sg67
g973
sg69
g1004
ssg59
(dp1176
V[com.sec.android.app.capabilitymanager]
p1177
g90
sV[TouchWiz \u4e3b\u9875]
p1178
g172
sg445
g199
sg15
g236
sg513
g292
sg23
g316
sV[\u997f\u4e86\u4e48]
p1179
g343
sg843
g374
sg35
g432
sg37
g471
sV[\u65e0\u79d8]
p1180
g485
sg41
g511
sg43
g539
sV\u5fae\u535a
p1181
g572
sg47
g613
sg49
g640
sg51
g686
sg53
g720
sV[KeyguardTestActivity]
p1182
g902
sg63
g930
sg101
g955
sg67
g985
sg69
g1014
ssg61
(dp1183
g1047
g816
sV[TouchWiz \u4e3b\u9875]
p1184
g175
sg13
g202
sg1139
g878
sg47
g616
sg63
g942
sg49
g654
sg53
g727
sg35
g449
ssg63
(dp1185
g919
g818
sV[TouchWiz \u4e3b\u9875]
p1186
g177
sg43
g546
sg35
g440
sg929
g880
sg17
g294
sg1064
g584
sg47
g618
sg49
g645
sV[KeyguardTestActivity]
p1187
g904
sg53
g733
sg265
g379
ssg65
(dp1188
V[com.sec.android.app.capabilitymanager]
p1189
g102
sV[TouchWiz \u4e3b\u9875]
p1190
g179
sV[\u8c4c\u8c46\u835a]
p1191
g408
sV\u5fae\u4fe1
p1192
g882
sV[\u997f\u4e86\u4e48]
p1193
g347
sg1095
g296
sg49
g628
sg1094
g993
sg51
g693
ssg67
(dp1194
g972
g821
sV[TouchWiz \u4e3b\u9875]
p1195
g181
sg639
g884
sg1141
g299
sV\u5fae\u535a
p1196
g593
sg47
g608
sg49
g659
ssg69
(dp1197
VQQ
p1198
g823
sV[TouchWiz \u4e3b\u9875]
p1199
g183
sg43
g555
sg35
g456
sg1107
g886
sg318
g301
sg1108
g574
sg128
g323
sg1091
g1000
sg53
g722
sg997
g387
sssS'adj'
p1200
g74
sb.