ccopy_reg
_reconstructor
p1
(cnetworkx.classes.digraph
DiGraph
p2
c__builtin__
object
p3
NtRp4
(dp5
S'node'
p6
(dp7
V[\u673a\u5668\u4eba\u5c0f\u961f]
p8
(dp9
S'weight'
p10
F0.01
ssV\u652f\u4ed8\u5b9d\u94b1\u5305
p11
(dp12
g10
F0
ssVUC\u6d4f\u89c8\u5668
p13
(dp14
g10
F0.029999999999999999
ssV\u7f8e\u56e2\u56e2\u8d2d
p15
(dp16
g10
F0
ssV[\u5f00\u62d3\u91d1\u5b57\u5854\u738b\u56fd]
p17
(dp18
g10
F0
ssV[\u53f2\u83b1\u59c6\u7684\u91ce\u671b]
p19
(dp20
g10
F0.01
ssV[Sensor Log]
p21
(dp22
g10
F0
ssVQQ\u5b89\u5168\u4e2d\u5fc3
p23
(dp24
g10
F0.029999999999999999
ssV\u767e\u5ea6\u5730\u56fe
p25
(dp26
g10
F0
ssV\u6dd8\u5b9d
p27
(dp28
g10
F0
ssV[\u5929\u5929\u98ce\u4e4b\u65c5]
p29
(dp30
g10
F0
ssV[\u997f\u4e86\u4e48]
p31
(dp32
g10
F0.02
ssV\u5927\u4f17\u70b9\u8bc4
p33
(dp34
g10
F0
ssVWPS Office
p35
(dp36
g10
F0.01
ssV[SmartAir]
p37
(dp38
g10
F0.14999999999999999
ssV[\u5e94\u7528\u5b9d]
p39
(dp40
g10
F0.01
ssV[OTTTD]
p41
(dp42
g10
F0.01
ssV\u66b4\u98ce\u5f71\u97f3
p43
(dp44
g10
F0
ssV[\u6bb5\u5b50\u624b]
p45
(dp46
g10
F0
ssV\u8d85\u7ea7\u8bfe\u7a0b\u8868
p47
(dp48
g10
F0.01
ssV[\u770b\u5ba2\u4e70\u7968]
p49
(dp50
g10
F0.01
ssVQQ\u90ae\u7bb1
p51
(dp52
g10
F0.02
ssV\u58a8\u8ff9\u5929\u6c14
p53
(dp54
g10
F0
ssV[\u3061\u3087\u3068\u3061\u3087\u3068]
p55
(dp56
g10
F0.01
ssV\u5feb\u7684\u6253\u8f66
p57
(dp58
g10
F0
ssV[Unmechanical]
p59
(dp60
g10
F0
ssVBrowser.apk
p61
(dp62
g10
F0
ssV\u8001\u864e\u5730\u56fe
p63
(dp64
g10
F0
ssV[\u52fe\u642d\u62db\u8058]
p65
(dp66
g10
F0
ssV\u6709\u9053\u8bcd\u5178
p67
(dp68
g10
F0.02
ssVFileManager.apk
p69
(dp70
g10
F0.02
ssV[\u4fbf\u7b7e]
p71
(dp72
g10
F0
ssV[\u7a7a\u6c14\u51c0\u5316\u5668]
p73
(dp74
g10
F0.01
ssVGoogle Play services
p75
(dp76
g10
F0
ssV\u641c\u72d7\u624b\u673a\u8f93\u5165\u6cd5
p77
(dp78
g10
F0
ssV\u76f8\u673a
p79
(dp80
g10
F0
ssVClock.apk
p81
(dp82
g10
F0.01
ssVTowerDefense
p83
(dp84
g10
F0.01
ssV[\u5fae\u4fe1\u7535\u8bdd\u672c]
p85
(dp86
g10
F0.040000000000000001
ssVPackageInstaller.apk
p87
(dp88
g10
F0.070000000000000007
ssVPhone.apk
p89
(dp90
g10
F0.01
ssVQQ
p91
(dp92
g10
F0.19
ssV[5253]
p93
(dp94
g10
F0.02
ssV[\u6b22\u4e50\u897f\u6e38]
p95
(dp96
g10
F0
ssV\u5fae\u4fe1
p97
(dp98
g10
F0.17000000000000001
ssV[\u5e94\u7528\u5546\u5e97]
p99
(dp100
g10
F0.01
ssV\u767e\u5ea6\u4e91
p101
(dp102
g10
F0.01
ssVSettings.apk
p103
(dp104
g10
F0.040000000000000001
ssV\u5e03\u5361\u6f2b\u753b
p105
(dp106
g10
F0.01
ssV\u7535\u4fe1\u8425\u4e1a\u5385
p107
(dp108
g10
F0
sssS'graph'
p109
(dp110
sS'succ'
p111
(dp112
g8
(dp113
VQQ
p114
(dp115
S'weights'
p116
(lp117
I0
aI0
aI0
aI0
aI0
aI0
aF0.044003681574463265
assV[5253]
p118
(dp119
g116
(lp120
I0
aI0
aI0
aI0
aI0
aI0
aF0.12827155671591151
assg77
(dp121
g116
(lp122
I0
aI0
aI0
aI0
aI0
aI0
aF0.045056310216036156
assg69
(dp123
g116
(lp124
I0
aI0
aI0
aI0
aI0
aI0
aF0.076233083758347045
assg101
(dp125
g116
(lp126
I0
aI0
aI0
aI0
aI0
aI0
aF0.10027012152308688
assg83
(dp127
g116
(lp128
I0
aI0
aI0
aI0
aI0
aI0
aF0.046881714309244586
assV[\u5fae\u4fe1\u7535\u8bdd\u672c]
p129
(dp130
g116
(lp131
I0
aI0
aI0
aI0
aI0
aI0
aF0.058347840677872659
assg87
(dp132
g116
(lp133
I0
aI0
aI0
aI0
aI0
aI0
aF0.063531778600885949
assVWPS Office
p134
(dp135
g116
(lp136
I0
aI0
aI0
aI0
aI0
aI0
aF0.04351592330779349
assg107
(dp137
g116
(lp138
I0
aI0
aI0
aI0
aI0
aI0
aF0.058161050476678702
asssg11
(dp139
VQQ
p140
(dp141
g116
(lp142
I0
aI0
aI0
aI0
aI0
aI0
aF0.071069730548577403
assV[\u5e94\u7528\u5b9d]
p143
(dp144
g116
(lp145
I0
aI0
aI0
aI0
aI0
aI0
aF0.063754371589394163
assV\u8d85\u7ea7\u8bfe\u7a0b\u8868
p146
(dp147
g116
(lp148
I0
aI0
aI0
aI0
aI0
aI0
aF0.02008701525661365
assV\u5fae\u4fe1
p149
(dp150
g116
(lp151
I0
aI0
aI0
aI0
aI0
aI0
aF0.064252529229939265
assg87
(dp152
g116
(lp153
I0
aI0
aI0
aI0
aI0
aI0
aF0.062609765144822374
assV[\u5fae\u4fe1\u7535\u8bdd\u672c]
p154
(dp155
g116
(lp156
I0
aI0
aI0
aI0
aI0
aI0
aF0.025893199996264868
assV[\u997f\u4e86\u4e48]
p157
(dp158
g116
(lp159
I0
aI0
aI0
aI0
aI0
aI0
aF0.056850793137316981
asssg13
(dp160
V\u5e03\u5361\u6f2b\u753b
p161
(dp162
g116
(lp163
I0
aI0
aI0
aI0
aI0
aI0
aF0.07997705405675555
assg75
(dp164
g116
(lp165
I0
aI0
aI0
aI0
aI0
aI0
aF0.07254246845544661
assg25
(dp166
g116
(lp167
I0
aI0
aI0
aI0
aI0
aI0
aF0.062332991561494418
assg27
(dp168
g116
(lp169
I0
aI0
aI0
aI0
aI0
aI0
aF0.02478643502651344
assg43
(dp170
g116
(lp171
I0
aI0
aI0
aI0
aI0
aI0
aF0.048844199476232565
assV[\u6bb5\u5b50\u624b]
p172
(dp173
g116
(lp174
I0
aI0
aI0
aI0
aI0
aI0
aF0.02672461371302249
assVQQ\u90ae\u7bb1
p175
(dp176
g116
(lp177
I0
aI0
aI0
aI0
aI0
aI0
aF0.014167211354491347
assV[\u3061\u3087\u3068\u3061\u3087\u3068]
p178
(dp179
g116
(lp180
I0
aI0
aI0
aI0
aI0
aI0
aF0.12342170753876802
assg61
(dp181
g116
(lp182
I0
aI0
aI0
aI0
aI0
aI0
aF0.076496754837220446
assg63
(dp183
g116
(lp184
I0
aI0
aI0
aI0
aI0
aI0
aF0.035873417525315754
assVQQ\u5b89\u5168\u4e2d\u5fc3
p185
(dp186
g116
(lp187
I0
aI0
aI0
aI0
aI0
aI0
aF0.03097304802827203
assg69
(dp188
g116
(lp189
I0
aI0
aI0
aI0
aI0
aI0
aF0.045891269878137325
assV[SmartAir]
p190
(dp191
g116
(lp192
I0
aI0
aI0
aI0
aI0
aI0
aF0.050012470826890143
assV[\u770b\u5ba2\u4e70\u7968]
p193
(dp194
g116
(lp195
I0
aI0
aI0
aI0
aI0
aI0
aF0.088705759806140302
assV\u76f8\u673a
p196
(dp197
g116
(lp198
I0
aI0
aI0
aI0
aI0
aI0
aF0.04639267322625152
assg83
(dp199
g116
(lp200
I0
aI0
aI0
aI0
aI0
aI0
aF0.10082032950084849
assV[\u5fae\u4fe1\u7535\u8bdd\u672c]
p201
(dp202
g116
(lp203
I0
aI0
aI0
aI0
aI0
aI0
aF0.07695473172436082
assg87
(dp204
g116
(lp205
I0
aI0
aI0
aI0
aI0
aI0
aF0.072981274249144523
assg89
(dp206
g116
(lp207
I0
aI0
aI0
aI0
aI0
aI0
aF0.044259578754926233
assVQQ
p208
(dp209
g116
(lp210
I0
aI0
aI0
aI0
aI0
aI0
aF0.095219829271303374
assV[\u7a7a\u6c14\u51c0\u5316\u5668]
p211
(dp212
g116
(lp213
I0
aI0
aI0
aI0
aI0
aI0
aF0.051827948898363924
assV\u5fae\u4fe1
p214
(dp215
g116
(lp216
I0
aI0
aI0
aI0
aI0
aI0
aF0.16764665033322218
assg103
(dp217
g116
(lp218
I0
aI0
aI0
aI0
aI0
aI0
aF0.10931973352161878
asssg15
(dp219
sg17
(dp220
VQQ
p221
(dp222
g116
(lp223
I0
aI0
aI0
aI0
aI0
aI0
aF0.027675771543176211
assV[\u5e94\u7528\u5b9d]
p224
(dp225
g116
(lp226
I0
aI0
aI0
aI0
aI0
aI0
aF0.044803045277797271
assV\u652f\u4ed8\u5b9d\u94b1\u5305
p227
(dp228
g116
(lp229
I0
aI0
aI0
aI0
aI0
aI0
aF0.040193714646824384
assV\u5fae\u4fe1
p230
(dp231
g116
(lp232
I0
aI0
aI0
aI0
aI0
aI0
aF0.070983942067010961
assg87
(dp233
g116
(lp234
I0
aI0
aI0
aI0
aI0
aI0
aF0.043158726358589611
assV[\u5fae\u4fe1\u7535\u8bdd\u672c]
p235
(dp236
g116
(lp237
I0
aI0
aI0
aI0
aI0
aI0
aF0.036426489591876512
assg61
(dp238
g116
(lp239
I0
aI0
aI0
aI0
aI0
aI0
aF0.02961850929445279
assV[\u997f\u4e86\u4e48]
p240
(dp241
g116
(lp242
I0
aI0
aI0
aI0
aI0
aI0
aF0.060725776050525052
assg103
(dp243
g116
(lp244
I0
aI0
aI0
aI0
aI0
aI0
aF0.038245553276908623
asssg19
(dp245
VUC\u6d4f\u89c8\u5668
p246
(dp247
g116
(lp248
I0
aI0
aI0
aI0
aI0
aI0
aF0.19449643596851535
assg75
(dp249
g116
(lp250
I0
aI0
aI0
aI0
aI0
aI0
aF0.060426479095534481
assV\u5fae\u4fe1
p251
(dp252
g116
(lp253
I0
aI0
aI0
aI0
aI0
aI0
aF0.074341814317648122
assV[\u3061\u3087\u3068\u3061\u3087\u3068]
p254
(dp255
g116
(lp256
I0
aI0
aI0
aI0
aI0
aI0
aF0.10595868409352815
assg83
(dp257
g116
(lp258
I0
aI0
aI0
aI0
aI0
aI0
aF0.146429668673076
assg61
(dp259
g116
(lp260
I0
aI0
aI0
aI0
aI0
aI0
aF0.059390181388385956
assg87
(dp261
g116
(lp262
I0
aI0
aI0
aI0
aI0
aI0
aF0.060887059007846842
asssg21
(dp263
VQQ
p264
(dp265
g116
(lp266
I0
aI0
aI0
aI0
aI0
aI0
aF0.069886833826240224
assg69
(dp267
g116
(lp268
I0
aI0
aI0
aI0
aI0
aI0
aF0.025324378152524765
assV[\u4fbf\u7b7e]
p269
(dp270
g116
(lp271
I0
aI0
aI0
aI0
aI0
aI0
aF0.024948673882430189
assV\u8d85\u7ea7\u8bfe\u7a0b\u8868
p272
(dp273
g116
(lp274
I0
aI0
aI0
aI0
aI0
aI0
aF0.0076848961717295404
assV\u5fae\u4fe1
p275
(dp276
g116
(lp277
I0
aI0
aI0
aI0
aI0
aI0
aF0.044005324422508388
assVQQ\u90ae\u7bb1
p278
(dp279
g116
(lp280
I0
aI0
aI0
aI0
aI0
aI0
aF0.013193354055685419
assg53
(dp281
g116
(lp282
I0
aI0
aI0
aI0
aI0
aI0
aF0.02139989838197565
assg79
(dp283
g116
(lp284
I0
aI0
aI0
aI0
aI0
aI0
aF0.026184696918078121
assVWPS Office
p285
(dp286
g116
(lp287
I0
aI0
aI0
aI0
aI0
aI0
aF0.026070688230975317
assg103
(dp288
g116
(lp289
I0
aI0
aI0
aI0
aI0
aI0
aF0.022462704516005887
asssg23
(dp290
VQQ
p291
(dp292
g116
(lp293
I0
aI0
aI0
aI0
aI0
aI0
aF0.11551222951114518
assg15
(dp294
g116
(lp295
I0
aI0
aI0
aI0
aI0
aI0
aF0.00055344701738907986
assV\u5fae\u4fe1
p296
(dp297
g116
(lp298
I0
aI0
aI0
aI0
aI0
aI0
aF0.11261611045774235
assV[\u673a\u5668\u4eba\u5c0f\u961f]
p299
(dp300
g116
(lp301
I0
aI0
aI0
aI0
aI0
aI0
aF0.0007103330867793135
assVQQ\u90ae\u7bb1
p302
(dp303
g116
(lp304
I0
aI0
aI0
aI0
aI0
aI0
aF0.02264403294842109
assV[\u5fae\u4fe1\u7535\u8bdd\u672c]
p305
(dp306
g116
(lp307
I0
aI0
aI0
aI0
aI0
aI0
aF0.025629371138283827
assV[\u997f\u4e86\u4e48]
p308
(dp309
g116
(lp310
I0
aI0
aI0
aI0
aI0
aI0
aF0.0057249004631594923
asssg25
(dp311
VQQ
p312
(dp313
g116
(lp314
I0
aI0
aI0
aI0
aI0
aI0
aF0.06737910682812924
assV[SmartAir]
p315
(dp316
g116
(lp317
I0
aI0
aI0
aI0
aI0
aI0
aF0.045153140214534211
assVUC\u6d4f\u89c8\u5668
p318
(dp319
g116
(lp320
I0
aI0
aI0
aI0
aI0
aI0
aF0.037659628448588542
assV[\u770b\u5ba2\u4e70\u7968]
p321
(dp322
g116
(lp323
I0
aI0
aI0
aI0
aI0
aI0
aF0.046971489166582586
assV\u5fae\u4fe1
p324
(dp325
g116
(lp326
I0
aI0
aI0
aI0
aI0
aI0
aF0.043394616907944369
assg103
(dp327
g116
(lp328
I0
aI0
aI0
aI0
aI0
aI0
aF0.047278726756398513
assg63
(dp329
g116
(lp330
I0
aI0
aI0
aI0
aI0
aI0
aF0.047201236710976528
asssg27
(dp331
V[\u5fae\u4fe1\u7535\u8bdd\u672c]
p332
(dp333
g116
(lp334
I0
aI0
aI0
aI0
aI0
aI0
aF0.046793726356679333
assV\u5fae\u4fe1
p335
(dp336
g116
(lp337
I0
aI0
aI0
aI0
aI0
aI0
aF0.060423985984146417
assVQQ
p338
(dp339
g116
(lp340
I0
aI0
aI0
aI0
aI0
aI0
aF0.017007823738776764
assV\u5e03\u5361\u6f2b\u753b
p341
(dp342
g116
(lp343
I0
aI0
aI0
aI0
aI0
aI0
aF0.029732019271834203
assVUC\u6d4f\u89c8\u5668
p344
(dp345
g116
(lp346
I0
aI0
aI0
aI0
aI0
aI0
aF0.040917759526687345
asssg29
(dp347
VQQ
p348
(dp349
g116
(lp350
I0
aI0
aI0
aI0
aI0
aI0
aF0.047183802913571118
assV\u5fae\u4fe1
p351
(dp352
g116
(lp353
I0
aI0
aI0
aI0
aI0
aI0
aF0.078424119499677883
assg43
(dp354
g116
(lp355
I0
aI0
aI0
aI0
aI0
aI0
aF0.037599408665283753
assVUC\u6d4f\u89c8\u5668
p356
(dp357
g116
(lp358
I0
aI0
aI0
aI0
aI0
aI0
aF0.086364418674668916
asssg31
(dp359
VQQ
p360
(dp361
g116
(lp362
I0
aI0
aI0
aI0
aI0
aI0
aF0.081231855412572038
assV[\u5e94\u7528\u5b9d]
p363
(dp364
g116
(lp365
I0
aI0
aI0
aI0
aI0
aI0
aF0.07664099867203035
assg227
(dp366
g116
(lp367
I0
aI0
aI0
aI0
aI0
aI0
aF0.0598600830786205
assg15
(dp368
g116
(lp369
I0
aI0
aI0
aI0
aI0
aI0
aF0.026726391407457018
assV\u5fae\u4fe1
p370
(dp371
g116
(lp372
I0
aI0
aI0
aI0
aI0
aI0
aF0.075179430597248229
assV[\u5fae\u4fe1\u7535\u8bdd\u672c]
p373
(dp374
g116
(lp375
I0
aI0
aI0
aI0
aI0
aI0
aF0.046413405035797405
assg61
(dp376
g116
(lp377
I0
aI0
aI0
aI0
aI0
aI0
aF0.02723485487501125
assg87
(dp378
g116
(lp379
I0
aI0
aI0
aI0
aI0
aI0
aF0.084463441414180995
assg89
(dp380
g116
(lp381
I0
aI0
aI0
aI0
aI0
aI0
aF0.05356067450818925
assg103
(dp382
g116
(lp383
I0
aI0
aI0
aI0
aI0
aI0
aF0.052191887662515937
asssg33
(dp384
VQQ
p385
(dp386
g116
(lp387
I0
aI0
aI0
aI0
aI0
aI0
aF0.0011770597778151873
asssg35
(dp388
g91
(dp389
g116
(lp390
I0
aI0
aI0
aI0
aI0
aI0
aF0.086689243318791798
assV[\u6bb5\u5b50\u624b]
p391
(dp392
g116
(lp393
I0
aI0
aI0
aI0
aI0
aI0
aF0.021807197561210565
assV[\u673a\u5668\u4eba\u5c0f\u961f]
p394
(dp395
g116
(lp396
I0
aI0
aI0
aI0
aI0
aI0
aF0.037868759720815527
assg69
(dp397
g116
(lp398
I0
aI0
aI0
aI0
aI0
aI0
aF0.079959836864231248
assg13
(dp399
g116
(lp400
I0
aI0
aI0
aI0
aI0
aI0
aF0.032444134628740962
assg272
(dp401
g116
(lp402
I0
aI0
aI0
aI0
aI0
aI0
aF0.030528197330616333
assV[\u7a7a\u6c14\u51c0\u5316\u5668]
p403
(dp404
g116
(lp405
I0
aI0
aI0
aI0
aI0
aI0
aF0.028285917932116916
assV\u5fae\u4fe1
p406
(dp407
g116
(lp408
I0
aI0
aI0
aI0
aI0
aI0
aF0.067063906731619147
assV[SmartAir]
p409
(dp410
g116
(lp411
I0
aI0
aI0
aI0
aI0
aI0
aF0.068779461861482177
assg278
(dp412
g116
(lp413
I0
aI0
aI0
aI0
aI0
aI0
aF0.01735643147960466
assg53
(dp414
g116
(lp415
I0
aI0
aI0
aI0
aI0
aI0
aF0.024189600518124001
assV[\u5e94\u7528\u5546\u5e97]
p416
(dp417
g116
(lp418
I0
aI0
aI0
aI0
aI0
aI0
aF0.05249545541224019
assg107
(dp419
g116
(lp420
I0
aI0
aI0
aI0
aI0
aI0
aF0.031712595861049062
assg25
(dp421
g116
(lp422
I0
aI0
aI0
aI0
aI0
aI0
aF0.033589260681619368
assV[\u5fae\u4fe1\u7535\u8bdd\u672c]
p423
(dp424
g116
(lp425
I0
aI0
aI0
aI0
aI0
aI0
aF0.044132798530852696
assV[\u770b\u5ba2\u4e70\u7968]
p426
(dp427
g116
(lp428
I0
aI0
aI0
aI0
aI0
aI0
aF0.048014903318267306
assg63
(dp429
g116
(lp430
I0
aI0
aI0
aI0
aI0
aI0
aF0.019286356507935525
assg89
(dp431
g116
(lp432
I0
aI0
aI0
aI0
aI0
aI0
aF0.021894711748163116
assg103
(dp433
g116
(lp434
I0
aI0
aI0
aI0
aI0
aI0
aF0.099736658416565455
asssg37
(dp435
g312
(dp436
g116
(lp437
I0
aI0
aI0
aI0
aI0
aI0
aF0.46303212650925057
assV[\u7a7a\u6c14\u51c0\u5316\u5668]
p438
(dp439
g116
(lp440
I0
aI0
aI0
aI0
aI0
aI0
aF0.36078163758120485
assVQQ\u5b89\u5168\u4e2d\u5fc3
p441
(dp442
g116
(lp443
I0
aI0
aI0
aI0
aI0
aI0
aF0.024658840123726978
assg318
(dp444
g116
(lp445
I0
aI0
aI0
aI0
aI0
aI0
aF0.031464404276690221
assV[\u770b\u5ba2\u4e70\u7968]
p446
(dp447
g116
(lp448
I0
aI0
aI0
aI0
aI0
aI0
aF0.07843705709543615
assg324
(dp449
g116
(lp450
I0
aI0
aI0
aI0
aI0
aI0
aF0.68584259310083373
assV[\u5e94\u7528\u5b9d]
p451
(dp452
g116
(lp453
I0
aI0
aI0
aI0
aI0
aI0
aF0.1934294377183586
assV[\u5e94\u7528\u5546\u5e97]
p454
(dp455
g116
(lp456
I0
aI0
aI0
aI0
aI0
aI0
aF0.069427114697052719
assg25
(dp457
g116
(lp458
I0
aI0
aI0
aI0
aI0
aI0
aF0.046608336710538316
assV[\u5fae\u4fe1\u7535\u8bdd\u672c]
p459
(dp460
g116
(lp461
I0
aI0
aI0
aI0
aI0
aI0
aF0.15391431647230042
assg63
(dp462
g116
(lp463
I0
aI0
aI0
aI0
aI0
aI0
aF0.026832749019551298
assg87
(dp464
g116
(lp465
I0
aI0
aI0
aI0
aI0
aI0
aF0.89879695797429449
assg103
(dp466
g116
(lp467
I0
aI0
aI0
aI0
aI0
aI0
aF0.1122012772895128
asssg39
(dp468
g91
(dp469
g116
(lp470
I0
aI0
aI0
aI0
aI0
aI0
aF0.035969531252691984
assV[\u7a7a\u6c14\u51c0\u5316\u5668]
p471
(dp472
g116
(lp473
I0
aI0
aI0
aI0
aI0
aI0
aF0.036130566891834456
assg43
(dp474
g116
(lp475
I0
aI0
aI0
aI0
aI0
aI0
aF0.019058699691689544
assg69
(dp476
g116
(lp477
I0
aI0
aI0
aI0
aI0
aI0
aF0.038776640141155942
assV[SmartAir]
p478
(dp479
g116
(lp480
I0
aI0
aI0
aI0
aI0
aI0
aF0.10291315448612871
assg356
(dp481
g116
(lp482
I0
aI0
aI0
aI0
aI0
aI0
aF0.045323868223977846
assV[\u6b22\u4e50\u897f\u6e38]
p483
(dp484
g116
(lp485
I0
aI0
aI0
aI0
aI0
aI0
aF0.053530076937774146
assV\u5fae\u4fe1
p486
(dp487
g116
(lp488
I0
aI0
aI0
aI0
aI0
aI0
aF0.06763739617030963
assV[\u997f\u4e86\u4e48]
p489
(dp490
g116
(lp491
I0
aI0
aI0
aI0
aI0
aI0
aF0.064394765232223664
assg57
(dp492
g116
(lp493
I0
aI0
aI0
aI0
aI0
aI0
aF0.026002460387285362
assV[\u5929\u5929\u98ce\u4e4b\u65c5]
p494
(dp495
g116
(lp496
I0
aI0
aI0
aI0
aI0
aI0
aF0.043775462395785884
assg87
(dp497
g116
(lp498
I0
aI0
aI0
aI0
aI0
aI0
aF0.1106972093936303
assg35
(dp499
g116
(lp500
I0
aI0
aI0
aI0
aI0
aI0
aF0.03339321095856454
assg103
(dp501
g116
(lp502
I0
aI0
aI0
aI0
aI0
aI0
aF0.018523220671306219
asssg41
(dp503
g221
(dp504
g116
(lp505
I0
aI0
aI0
aI0
aI0
aI0
aF0.025351376241232969
assV[\u5e94\u7528\u5b9d]
p506
(dp507
g116
(lp508
I0
aI0
aI0
aI0
aI0
aI0
aF0.034666215809616735
assg69
(dp509
g116
(lp510
I0
aI0
aI0
aI0
aI0
aI0
aF0.10281887954221287
assg227
(dp511
g116
(lp512
I0
aI0
aI0
aI0
aI0
aI0
aF0.038658500292620725
assV[\u5f00\u62d3\u91d1\u5b57\u5854\u738b\u56fd]
p513
(dp514
g116
(lp515
I0
aI0
aI0
aI0
aI0
aI0
aF0.070166407175121098
assV\u5fae\u4fe1
p516
(dp517
g116
(lp518
I0
aI0
aI0
aI0
aI0
aI0
aF0.1453180869607853
assg87
(dp519
g116
(lp520
I0
aI0
aI0
aI0
aI0
aI0
aF0.028985401590923054
assV[\u5fae\u4fe1\u7535\u8bdd\u672c]
p521
(dp522
g116
(lp523
I0
aI0
aI0
aI0
aI0
aI0
aF0.045222166146891569
assV[Unmechanical]
p524
(dp525
g116
(lp526
I0
aI0
aI0
aI0
aI0
aI0
aF0.10476527515807527
assg61
(dp527
g116
(lp528
I0
aI0
aI0
aI0
aI0
aI0
aF0.030347350512249217
assV[\u997f\u4e86\u4e48]
p529
(dp530
g116
(lp531
I0
aI0
aI0
aI0
aI0
aI0
aF0.053461733488477908
assg103
(dp532
g116
(lp533
I0
aI0
aI0
aI0
aI0
aI0
aF0.15143910009932512
asssg43
(dp534
sg45
(dp535
g208
(dp536
g116
(lp537
I0
aI0
aI0
aI0
aI0
aI0
aF0.043624415661352299
assV[\u7a7a\u6c14\u51c0\u5316\u5668]
p538
(dp539
g116
(lp540
I0
aI0
aI0
aI0
aI0
aI0
aF0.036640439149501956
assg69
(dp541
g116
(lp542
I0
aI0
aI0
aI0
aI0
aI0
aF0.037768281023182165
assV[SmartAir]
p543
(dp544
g116
(lp545
I0
aI0
aI0
aI0
aI0
aI0
aF0.03535643161672164
assVUC\u6d4f\u89c8\u5668
p546
(dp547
g116
(lp548
I0
aI0
aI0
aI0
aI0
aI0
aF0.032968673507949235
assV[\u770b\u5ba2\u4e70\u7968]
p549
(dp550
g116
(lp551
I0
aI0
aI0
aI0
aI0
aI0
aF0.06271137715024494
assV\u5fae\u4fe1
p552
(dp553
g116
(lp554
I0
aI0
aI0
aI0
aI0
aI0
aF0.057520017173555107
assg25
(dp555
g116
(lp556
I0
aI0
aI0
aI0
aI0
aI0
aF0.04406678312342114
assV[\u5fae\u4fe1\u7535\u8bdd\u672c]
p557
(dp558
g116
(lp559
I0
aI0
aI0
aI0
aI0
aI0
aF0.027013360978063203
assg63
(dp560
g116
(lp561
I0
aI0
aI0
aI0
aI0
aI0
aF0.025360951505299212
assg103
(dp562
g116
(lp563
I0
aI0
aI0
aI0
aI0
aI0
aF0.077284820227847925
asssg47
(dp564
VQQ
p565
(dp566
g116
(lp567
I0
aI0
aI0
aI0
aI0
aI0
aF0.13618011069389979
assV[\u5e94\u7528\u5b9d]
p568
(dp569
g116
(lp570
I0
aI0
aI0
aI0
aI0
aI0
aF0.025405997526859004
assg77
(dp571
g116
(lp572
I0
aI0
aI0
aI0
aI0
aI0
aF0.018128082789794261
assg67
(dp573
g116
(lp574
I0
aI0
aI0
aI0
aI0
aI0
aF0.074548548971918704
assg356
(dp575
g116
(lp576
I0
aI0
aI0
aI0
aI0
aI0
aF0.040608363111766708
assV[\u6b22\u4e50\u897f\u6e38]
p577
(dp578
g116
(lp579
I0
aI0
aI0
aI0
aI0
aI0
aF0.049600960280992597
assV\u5fae\u4fe1
p580
(dp581
g116
(lp582
I0
aI0
aI0
aI0
aI0
aI0
aF0.1156884634128964
assg87
(dp583
g116
(lp584
I0
aI0
aI0
aI0
aI0
aI0
aF0.024449321109826404
assg51
(dp585
g116
(lp586
I0
aI0
aI0
aI0
aI0
aI0
aF0.02069357178635774
assg43
(dp587
g116
(lp588
I0
aI0
aI0
aI0
aI0
aI0
aF0.016184269056591771
assV[\u5929\u5929\u98ce\u4e4b\u65c5]
p589
(dp590
g116
(lp591
I0
aI0
aI0
aI0
aI0
aI0
aF0.040154460534781236
assV[\u997f\u4e86\u4e48]
p592
(dp593
g116
(lp594
I0
aI0
aI0
aI0
aI0
aI0
aF0.050756485084161126
assg89
(dp595
g116
(lp596
I0
aI0
aI0
aI0
aI0
aI0
aF0.023197493030485569
assg103
(dp597
g116
(lp598
I0
aI0
aI0
aI0
aI0
aI0
aF0.038892008133181888
asssg49
(dp599
g312
(dp600
g116
(lp601
I0
aI0
aI0
aI0
aI0
aI0
aF0.094514685899874412
assV[SmartAir]
p602
(dp603
g116
(lp604
I0
aI0
aI0
aI0
aI0
aI0
aF0.063471710770072826
assg318
(dp605
g116
(lp606
I0
aI0
aI0
aI0
aI0
aI0
aF0.052797169956205828
assg324
(dp607
g116
(lp608
I0
aI0
aI0
aI0
aI0
aI0
aF0.060969102656899164
assg25
(dp609
g116
(lp610
I0
aI0
aI0
aI0
aI0
aI0
aF0.10497941095226639
assg103
(dp611
g116
(lp612
I0
aI0
aI0
aI0
aI0
aI0
aF0.11835203031192136
assg63
(dp613
g116
(lp614
I0
aI0
aI0
aI0
aI0
aI0
aF0.060439881338025282
asssg51
(dp615
g565
(dp616
g116
(lp617
I0
aI0
aI0
aI0
aI0
aI0
aF0.12415328451249651
assg77
(dp618
g116
(lp619
I0
aI0
aI0
aI0
aI0
aI0
aF0.025439568623172704
assg185
(dp620
g116
(lp621
I0
aI0
aI0
aI0
aI0
aI0
aF0.0012184437756751134
assVUC\u6d4f\u89c8\u5668
p622
(dp623
g116
(lp624
I0
aI0
aI0
aI0
aI0
aI0
aF0.05062468467040826
assg272
(dp625
g116
(lp626
I0
aI0
aI0
aI0
aI0
aI0
aF0.028320603458396116
assg15
(dp627
g116
(lp628
I0
aI0
aI0
aI0
aI0
aI0
aF0.015307588144724047
assg580
(dp629
g116
(lp630
I0
aI0
aI0
aI0
aI0
aI0
aF0.13488176319029546
assg196
(dp631
g116
(lp632
I0
aI0
aI0
aI0
aI0
aI0
aF0.034230683953723424
assV[\u5fae\u4fe1\u7535\u8bdd\u672c]
p633
(dp634
g116
(lp635
I0
aI0
aI0
aI0
aI0
aI0
aF0.052692790276370305
assV[\u997f\u4e86\u4e48]
p636
(dp637
g116
(lp638
I0
aI0
aI0
aI0
aI0
aI0
aF0.016333720841269543
assg89
(dp639
g116
(lp640
I0
aI0
aI0
aI0
aI0
aI0
aF0.045746970805781211
assVWPS Office
p641
(dp642
g116
(lp643
I0
aI0
aI0
aI0
aI0
aI0
aF0.025155462946755417
assg103
(dp644
g116
(lp645
I0
aI0
aI0
aI0
aI0
aI0
aF0.025475942637716138
asssg53
(dp646
VQQ
p647
(dp648
g116
(lp649
I0
aI0
aI0
aI0
aI0
aI0
aF0.060618611225429615
assg272
(dp650
g116
(lp651
I0
aI0
aI0
aI0
aI0
aI0
aF0.018651277644922842
assg278
(dp652
g116
(lp653
I0
aI0
aI0
aI0
aI0
aI0
aF0.021514579239585562
assg641
(dp654
g116
(lp655
I0
aI0
aI0
aI0
aI0
aI0
aF0.018679032537724523
asssg55
(dp656
g69
(dp657
g116
(lp658
I0
aI0
aI0
aI0
aI0
aI0
aF0.044023095157698706
assVUC\u6d4f\u89c8\u5668
p659
(dp660
g116
(lp661
I0
aI0
aI0
aI0
aI0
aI0
aF0.053119358302494403
assg75
(dp662
g116
(lp663
I0
aI0
aI0
aI0
aI0
aI0
aF0.025885352921407857
assV\u5fae\u4fe1
p664
(dp665
g116
(lp666
I0
aI0
aI0
aI0
aI0
aI0
aF0.027049785805012279
assV[\u673a\u5668\u4eba\u5c0f\u961f]
p667
(dp668
g116
(lp669
I0
aI0
aI0
aI0
aI0
aI0
aF0.042803626887422147
assg83
(dp670
g116
(lp671
I0
aI0
aI0
aI0
aI0
aI0
aF0.025747938000229943
assg61
(dp672
g116
(lp673
I0
aI0
aI0
aI0
aI0
aI0
aF0.037386513164832193
assg87
(dp674
g116
(lp675
I0
aI0
aI0
aI0
aI0
aI0
aF0.026039077912692311
assVWPS Office
p676
(dp677
g116
(lp678
I0
aI0
aI0
aI0
aI0
aI0
aF0.043939669102642381
assg103
(dp679
g116
(lp680
I0
aI0
aI0
aI0
aI0
aI0
aF0.038342188404192221
asssg57
(dp681
g91
(dp682
g116
(lp683
I0
aI0
aI0
aI0
aI0
aI0
aF0.008699768050126894
assg69
(dp684
g116
(lp685
I0
aI0
aI0
aI0
aI0
aI0
aF0.041419180583270002
assg35
(dp686
g116
(lp687
I0
aI0
aI0
aI0
aI0
aI0
aF0.03544554985455501
assg103
(dp688
g116
(lp689
I0
aI0
aI0
aI0
aI0
aI0
aF0.020340844063661198
asssg59
(dp690
g221
(dp691
g116
(lp692
I0
aI0
aI0
aI0
aI0
aI0
aF0.020754935045312582
assV[\u5e94\u7528\u5b9d]
p693
(dp694
g116
(lp695
I0
aI0
aI0
aI0
aI0
aI0
aF0.02926608614346295
assg69
(dp696
g116
(lp697
I0
aI0
aI0
aI0
aI0
aI0
aF0.080489061873094833
assg227
(dp698
g116
(lp699
I0
aI0
aI0
aI0
aI0
aI0
aF0.031416424233282197
assV[\u5f00\u62d3\u91d1\u5b57\u5854\u738b\u56fd]
p700
(dp701
g116
(lp702
I0
aI0
aI0
aI0
aI0
aI0
aF0.05517516417918264
assg516
(dp703
g116
(lp704
I0
aI0
aI0
aI0
aI0
aI0
aF0.11435372971542794
assg87
(dp705
g116
(lp706
I0
aI0
aI0
aI0
aI0
aI0
aF0.025289286076389979
assV[\u5fae\u4fe1\u7535\u8bdd\u672c]
p707
(dp708
g116
(lp709
I0
aI0
aI0
aI0
aI0
aI0
aF0.035667612044411566
assg61
(dp710
g116
(lp711
I0
aI0
aI0
aI0
aI0
aI0
aF0.024448496317941545
assV[\u997f\u4e86\u4e48]
p712
(dp713
g116
(lp714
I0
aI0
aI0
aI0
aI0
aI0
aF0.044052854393987824
assg103
(dp715
g116
(lp716
I0
aI0
aI0
aI0
aI0
aI0
aF0.11864377084246329
asssg61
(dp717
VQQ
p718
(dp719
g116
(lp720
I0
aI0
aI0
aI0
aI0
aI0
aF0.042300372407278505
assV[\u5e94\u7528\u5b9d]
p721
(dp722
g116
(lp723
I0
aI0
aI0
aI0
aI0
aI0
aF0.043909871691610015
assg227
(dp724
g116
(lp725
I0
aI0
aI0
aI0
aI0
aI0
aF0.037736555413588356
assV\u5fae\u4fe1
p726
(dp727
g116
(lp728
I0
aI0
aI0
aI0
aI0
aI0
aF0.046144381816173995
assg87
(dp729
g116
(lp730
I0
aI0
aI0
aI0
aI0
aI0
aF0.043078512385402619
assV\u58a8\u8ff9\u5929\u6c14
p731
(dp732
g116
(lp733
I0
aI0
aI0
aI0
aI0
aI0
aF0.014278180584105923
assV[\u3061\u3087\u3068\u3061\u3087\u3068]
p734
(dp735
g116
(lp736
I0
aI0
aI0
aI0
aI0
aI0
aF0.027262072318067505
assV[\u997f\u4e86\u4e48]
p737
(dp738
g116
(lp739
I0
aI0
aI0
aI0
aI0
aI0
aF0.051309955803899084
asssg63
(dp740
g312
(dp741
g116
(lp742
I0
aI0
aI0
aI0
aI0
aI0
aF0.039059729518644955
assg324
(dp743
g116
(lp744
I0
aI0
aI0
aI0
aI0
aI0
aF0.025135901069131324
assV[SmartAir]
p745
(dp746
g116
(lp747
I0
aI0
aI0
aI0
aI0
aI0
aF0.026148000958120463
assg318
(dp748
g116
(lp749
I0
aI0
aI0
aI0
aI0
aI0
aF0.02183724193489919
assV[\u770b\u5ba2\u4e70\u7968]
p750
(dp751
g116
(lp752
I0
aI0
aI0
aI0
aI0
aI0
aF0.027194782499654874
asssg65
(dp753
g114
(dp754
g116
(lp755
I0
aI0
aI0
aI0
aI0
aI0
aF0.024755681235013132
assV[5253]
p756
(dp757
g116
(lp758
I0
aI0
aI0
aI0
aI0
aI0
aF0.077253781375195577
assg77
(dp759
g116
(lp760
I0
aI0
aI0
aI0
aI0
aI0
aF0.025378983158023165
assg69
(dp761
g116
(lp762
I0
aI0
aI0
aI0
aI0
aI0
aF0.042887857114701333
assg101
(dp763
g116
(lp764
I0
aI0
aI0
aI0
aI0
aI0
aF0.056465722967904884
assV[\u673a\u5668\u4eba\u5c0f\u961f]
p765
(dp766
g116
(lp767
I0
aI0
aI0
aI0
aI0
aI0
aF0.052100678583099108
assg83
(dp768
g116
(lp769
I0
aI0
aI0
aI0
aI0
aI0
aF0.02645815819172866
assV[\u5fae\u4fe1\u7535\u8bdd\u672c]
p770
(dp771
g116
(lp772
I0
aI0
aI0
aI0
aI0
aI0
aF0.026736148256603181
assg87
(dp773
g116
(lp774
I0
aI0
aI0
aI0
aI0
aI0
aF0.044737821193653438
assg134
(dp775
g116
(lp776
I0
aI0
aI0
aI0
aI0
aI0
aF0.02446659525047536
assg107
(dp777
g116
(lp778
I0
aI0
aI0
aI0
aI0
aI0
aF0.026634206273027067
asssg67
(dp779
VQQ
p780
(dp781
g116
(lp782
I0
aI0
aI0
aI0
aI0
aI0
aF0.41707921906842371
assV\u8d85\u7ea7\u8bfe\u7a0b\u8868
p783
(dp784
g116
(lp785
I0
aI0
aI0
aI0
aI0
aI0
aF0.091513259323848739
assV\u5fae\u4fe1
p786
(dp787
g116
(lp788
I0
aI0
aI0
aI0
aI0
aI0
aF0.18916382041415464
assV[\u997f\u4e86\u4e48]
p789
(dp790
g116
(lp791
I0
aI0
aI0
aI0
aI0
aI0
aF0.15384383771604748
assg89
(dp792
g116
(lp793
I0
aI0
aI0
aI0
aI0
aI0
aF0.071940677084829416
assg103
(dp794
g116
(lp795
I0
aI0
aI0
aI0
aI0
aI0
aF0.070683824682497981
asssg69
(dp796
g227
(dp797
g116
(lp798
I0
aI0
aI0
aI0
aI0
aI0
aF0.033891120770166587
assg546
(dp799
g116
(lp800
I0
aI0
aI0
aI0
aI0
aI0
aF0.049641601601232141
assg75
(dp801
g116
(lp802
I0
aI0
aI0
aI0
aI0
aI0
aF0.0046614378515747752
assV[\u5f00\u62d3\u91d1\u5b57\u5854\u738b\u56fd]
p803
(dp804
g116
(lp805
I0
aI0
aI0
aI0
aI0
aI0
aF0.056620800927328942
assV[\u53f2\u83b1\u59c6\u7684\u91ce\u671b]
p806
(dp807
g116
(lp808
I0
aI0
aI0
aI0
aI0
aI0
aF0.041570673553142333
assg25
(dp809
g116
(lp810
I0
aI0
aI0
aI0
aI0
aI0
aF0.063914338544764734
assV[\u997f\u4e86\u4e48]
p811
(dp812
g116
(lp813
I0
aI0
aI0
aI0
aI0
aI0
aF0.048422049408188325
assg35
(dp814
g116
(lp815
I0
aI0
aI0
aI0
aI0
aI0
aF0.082330416546882529
assV[\u5e94\u7528\u5b9d]
p816
(dp817
g116
(lp818
I0
aI0
aI0
aI0
aI0
aI0
aF0.033150087953658244
assg77
(dp819
g116
(lp820
I0
aI0
aI0
aI0
aI0
aI0
aF0.0062856476466566129
assV\u767e\u5ea6\u4e91
p821
(dp822
g116
(lp823
I0
aI0
aI0
aI0
aI0
aI0
aF0.038166833004747762
assg47
(dp824
g116
(lp825
I0
aI0
aI0
aI0
aI0
aI0
aF0.025344324090072881
assV[\u673a\u5668\u4eba\u5c0f\u961f]
p826
(dp827
g116
(lp828
I0
aI0
aI0
aI0
aI0
aI0
aF0.053181923556186499
assg51
(dp829
g116
(lp830
I0
aI0
aI0
aI0
aI0
aI0
aF0.020947492918045776
assg53
(dp831
g116
(lp832
I0
aI0
aI0
aI0
aI0
aI0
aF0.024157454855393296
assV[\u3061\u3087\u3068\u3061\u3087\u3068]
p833
(dp834
g116
(lp835
I0
aI0
aI0
aI0
aI0
aI0
aF0.010208355589619926
assV[5253]
p836
(dp837
g116
(lp838
I0
aI0
aI0
aI0
aI0
aI0
aF0.057234726860783049
assg61
(dp839
g116
(lp840
I0
aI0
aI0
aI0
aI0
aI0
aF0.026125240501732042
assg63
(dp841
g116
(lp842
I0
aI0
aI0
aI0
aI0
aI0
aF0.036789251552803479
assV[SmartAir]
p843
(dp844
g116
(lp845
I0
aI0
aI0
aI0
aI0
aI0
aF0.093473812579595222
assV[\u770b\u5ba2\u4e70\u7968]
p846
(dp847
g116
(lp848
I0
aI0
aI0
aI0
aI0
aI0
aF0.090928507587024573
assg83
(dp849
g116
(lp850
I0
aI0
aI0
aI0
aI0
aI0
aF0.023740760873096317
assV[\u5fae\u4fe1\u7535\u8bdd\u672c]
p851
(dp852
g116
(lp853
I0
aI0
aI0
aI0
aI0
aI0
aF0.065569231335678463
assg87
(dp854
g116
(lp855
I0
aI0
aI0
aI0
aI0
aI0
aF0.054450831763306728
assg91
(dp856
g116
(lp857
I0
aI0
aI0
aI0
aI0
aI0
aF0.11697481807531408
assV[\u7a7a\u6c14\u51c0\u5316\u5668]
p858
(dp859
g116
(lp860
I0
aI0
aI0
aI0
aI0
aI0
aF0.053096423389443703
assg580
(dp861
g116
(lp862
I0
aI0
aI0
aI0
aI0
aI0
aF0.14846875173979107
assV[\u5e94\u7528\u5546\u5e97]
p863
(dp864
g116
(lp865
I0
aI0
aI0
aI0
aI0
aI0
aF0.064824556697159572
assg107
(dp866
g116
(lp867
I0
aI0
aI0
aI0
aI0
aI0
aF0.054129616032816123
assg103
(dp868
g116
(lp869
I0
aI0
aI0
aI0
aI0
aI0
aF0.18113282470408129
asssg71
(dp870
VQQ
p871
(dp872
g116
(lp873
I0
aI0
aI0
aI0
aI0
aI0
aF0.068050300484853166
assg69
(dp874
g116
(lp875
I0
aI0
aI0
aI0
aI0
aI0
aF0.027303352466865733
assg272
(dp876
g116
(lp877
I0
aI0
aI0
aI0
aI0
aI0
aF0.013542137204113252
assg278
(dp878
g116
(lp879
I0
aI0
aI0
aI0
aI0
aI0
aF0.017274155323008872
assg53
(dp880
g116
(lp881
I0
aI0
aI0
aI0
aI0
aI0
aF0.024130634091205496
assg285
(dp882
g116
(lp883
I0
aI0
aI0
aI0
aI0
aI0
aF0.03046874606225607
asssg73
(dp884
g312
(dp885
g116
(lp886
I0
aI0
aI0
aI0
aI0
aI0
aF0.13056684205482455
assV[\u5e94\u7528\u5b9d]
p887
(dp888
g116
(lp889
I0
aI0
aI0
aI0
aI0
aI0
aF0.064893960875528289
assg441
(dp890
g116
(lp891
I0
aI0
aI0
aI0
aI0
aI0
aF0.022371578934553705
assV[SmartAir]
p892
(dp893
g116
(lp894
I0
aI0
aI0
aI0
aI0
aI0
aF0.26853338219191142
assg318
(dp895
g116
(lp896
I0
aI0
aI0
aI0
aI0
aI0
aF0.029959376029659892
assV[\u770b\u5ba2\u4e70\u7968]
p897
(dp898
g116
(lp899
I0
aI0
aI0
aI0
aI0
aI0
aF0.093656399216870509
assg324
(dp900
g116
(lp901
I0
aI0
aI0
aI0
aI0
aI0
aF0.20685299375222305
assg25
(dp902
g116
(lp903
I0
aI0
aI0
aI0
aI0
aI0
aF0.065854434040145834
assV[\u5fae\u4fe1\u7535\u8bdd\u672c]
p904
(dp905
g116
(lp906
I0
aI0
aI0
aI0
aI0
aI0
aF0.060761816661667967
assg103
(dp907
g116
(lp908
I0
aI0
aI0
aI0
aI0
aI0
aF0.085336719265597646
assg87
(dp909
g116
(lp910
I0
aI0
aI0
aI0
aI0
aI0
aF0.15870489977384422
assg63
(dp911
g116
(lp912
I0
aI0
aI0
aI0
aI0
aI0
aF0.037912666751274027
asssg75
(dp913
V[\u3061\u3087\u3068\u3061\u3087\u3068]
p914
(dp915
g116
(lp916
I0
aI0
aI0
aI0
aI0
aI0
aF0.038155513239298715
assg61
(dp917
g116
(lp918
I0
aI0
aI0
aI0
aI0
aI0
aF0.027000559584409292
assg83
(dp919
g116
(lp920
I0
aI0
aI0
aI0
aI0
aI0
aF0.027196929877735573
assVUC\u6d4f\u89c8\u5668
p921
(dp922
g116
(lp923
I0
aI0
aI0
aI0
aI0
aI0
aF0.027286460638720561
asssg77
(dp924
VQQ
p925
(dp926
g116
(lp927
I0
aI0
aI0
aI0
aI0
aI0
aF0.046425719817129445
assV[5253]
p928
(dp929
g116
(lp930
I0
aI0
aI0
aI0
aI0
aI0
aF0.046883202121698248
assg69
(dp931
g116
(lp932
I0
aI0
aI0
aI0
aI0
aI0
aF0.046339987781776823
assV\u767e\u5ea6\u4e91
p933
(dp934
g116
(lp935
I0
aI0
aI0
aI0
aI0
aI0
aF0.046690882904960047
assV\u5fae\u4fe1
p936
(dp937
g116
(lp938
I0
aI0
aI0
aI0
aI0
aI0
aF0.03829057183493402
assV[\u673a\u5668\u4eba\u5c0f\u961f]
p939
(dp940
g116
(lp941
I0
aI0
aI0
aI0
aI0
aI0
aF0.025973915681101183
assg107
(dp942
g116
(lp943
I0
aI0
aI0
aI0
aI0
aI0
aF0.030244532237694566
assV[\u5fae\u4fe1\u7535\u8bdd\u672c]
p944
(dp945
g116
(lp946
I0
aI0
aI0
aI0
aI0
aI0
aF0.030334343739099694
assg87
(dp947
g116
(lp948
I0
aI0
aI0
aI0
aI0
aI0
aF0.026938874943265304
assg134
(dp949
g116
(lp950
I0
aI0
aI0
aI0
aI0
aI0
aF0.026481874487882823
asssg79
(dp951
VQQ
p952
(dp953
g116
(lp954
I0
aI0
aI0
aI0
aI0
aI0
aF0.075697134734429641
assVUC\u6d4f\u89c8\u5668
p955
(dp956
g116
(lp957
I0
aI0
aI0
aI0
aI0
aI0
aF0.038262159928488589
assg185
(dp958
g116
(lp959
I0
aI0
aI0
aI0
aI0
aI0
aF0.030132532366154326
assg69
(dp960
g116
(lp961
I0
aI0
aI0
aI0
aI0
aI0
aF0.026120318369616924
assV[\u4fbf\u7b7e]
p962
(dp963
g116
(lp964
I0
aI0
aI0
aI0
aI0
aI0
aF0.026145098109910846
assg272
(dp965
g116
(lp966
I0
aI0
aI0
aI0
aI0
aI0
aF0.010963003961290569
assV\u5fae\u4fe1
p967
(dp968
g116
(lp969
I0
aI0
aI0
aI0
aI0
aI0
aF0.037009762999067691
assg278
(dp970
g116
(lp971
I0
aI0
aI0
aI0
aI0
aI0
aF0.015336049619236378
assg53
(dp972
g116
(lp973
I0
aI0
aI0
aI0
aI0
aI0
aF0.022783447444227868
assg285
(dp974
g116
(lp975
I0
aI0
aI0
aI0
aI0
aI0
aF0.028318552897468711
asssg81
(dp976
sg83
(dp977
g227
(dp978
g116
(lp979
I0
aI0
aI0
aI0
aI0
aI0
aF0.016338603744902664
assg101
(dp980
g116
(lp981
I0
aI0
aI0
aI0
aI0
aI0
aF0.058498274270943972
assg75
(dp982
g116
(lp983
I0
aI0
aI0
aI0
aI0
aI0
aF0.050249366367062315
assV[\u5f00\u62d3\u91d1\u5b57\u5854\u738b\u56fd]
p984
(dp985
g116
(lp986
I0
aI0
aI0
aI0
aI0
aI0
aF0.030866146220916751
assV[\u997f\u4e86\u4e48]
p987
(dp988
g116
(lp989
I0
aI0
aI0
aI0
aI0
aI0
aF0.022175808844632879
assg134
(dp990
g116
(lp991
I0
aI0
aI0
aI0
aI0
aI0
aF0.025403706966280814
assV[\u5e94\u7528\u5b9d]
p992
(dp993
g116
(lp994
I0
aI0
aI0
aI0
aI0
aI0
aF0.013871927362440964
assV[\u3061\u3087\u3068\u3061\u3087\u3068]
p995
(dp996
g116
(lp997
I0
aI0
aI0
aI0
aI0
aI0
aF0.095922489969139851
assg77
(dp998
g116
(lp999
I0
aI0
aI0
aI0
aI0
aI0
aF0.026283584812831454
assg246
(dp1000
g116
(lp1001
I0
aI0
aI0
aI0
aI0
aI0
aF0.14428806402079103
assV[\u673a\u5668\u4eba\u5c0f\u961f]
p1002
(dp1003
g116
(lp1004
I0
aI0
aI0
aI0
aI0
aI0
aF0.024873740109714888
assV[OTTTD]
p1005
(dp1006
g116
(lp1007
I0
aI0
aI0
aI0
aI0
aI0
aF0.060448126565495683
assV[Unmechanical]
p1008
(dp1009
g116
(lp1010
I0
aI0
aI0
aI0
aI0
aI0
aF0.046338252457624018
assg61
(dp1011
g116
(lp1012
I0
aI0
aI0
aI0
aI0
aI0
aF0.057951632721130401
assg69
(dp1013
g116
(lp1014
I0
aI0
aI0
aI0
aI0
aI0
aF0.063608143224162347
assg107
(dp1015
g116
(lp1016
I0
aI0
aI0
aI0
aI0
aI0
aF0.028334590746123652
assV[\u5fae\u4fe1\u7535\u8bdd\u672c]
p1017
(dp1018
g116
(lp1019
I0
aI0
aI0
aI0
aI0
aI0
aF0.034660144206821446
assg87
(dp1020
g116
(lp1021
I0
aI0
aI0
aI0
aI0
aI0
aF0.063645430437308137
assg114
(dp1022
g116
(lp1023
I0
aI0
aI0
aI0
aI0
aI0
aF0.027787466149895544
assV[5253]
p1024
(dp1025
g116
(lp1026
I0
aI0
aI0
aI0
aI0
aI0
aF0.074817260652813536
assg664
(dp1027
g116
(lp1028
I0
aI0
aI0
aI0
aI0
aI0
aF0.082772392498439429
assg103
(dp1029
g116
(lp1030
I0
aI0
aI0
aI0
aI0
aI0
aF0.066895062295597038
asssg85
(dp1031
g227
(dp1032
g116
(lp1033
I0
aI0
aI0
aI0
aI0
aI0
aF0.031215614094893658
assg546
(dp1034
g116
(lp1035
I0
aI0
aI0
aI0
aI0
aI0
aF0.11128193469433467
assg25
(dp1036
g116
(lp1037
I0
aI0
aI0
aI0
aI0
aI0
aF0.062668672175132181
assg27
(dp1038
g116
(lp1039
I0
aI0
aI0
aI0
aI0
aI0
aF0.047272669527708665
assV[\u997f\u4e86\u4e48]
p1040
(dp1041
g116
(lp1042
I0
aI0
aI0
aI0
aI0
aI0
aF0.058738745222975501
assg676
(dp1043
g116
(lp1044
I0
aI0
aI0
aI0
aI0
aI0
aF0.0057617239043060682
assV[\u5e94\u7528\u5b9d]
p1045
(dp1046
g116
(lp1047
I0
aI0
aI0
aI0
aI0
aI0
aF0.045963131964620291
assV[\u6bb5\u5b50\u624b]
p1048
(dp1049
g116
(lp1050
I0
aI0
aI0
aI0
aI0
aI0
aF0.027281035760483636
assg146
(dp1051
g116
(lp1052
I0
aI0
aI0
aI0
aI0
aI0
aF0.021904304491343198
assV[\u673a\u5668\u4eba\u5c0f\u961f]
p1053
(dp1054
g116
(lp1055
I0
aI0
aI0
aI0
aI0
aI0
aF0.00059114039965095272
assVQQ\u90ae\u7bb1
p1056
(dp1057
g116
(lp1058
I0
aI0
aI0
aI0
aI0
aI0
aF0.086034221333822464
assV[\u3061\u3087\u3068\u3061\u3087\u3068]
p1059
(dp1060
g116
(lp1061
I0
aI0
aI0
aI0
aI0
aI0
aF0.020228751922165333
assg61
(dp1062
g116
(lp1063
I0
aI0
aI0
aI0
aI0
aI0
aF0.022846261265158214
assg63
(dp1064
g116
(lp1065
I0
aI0
aI0
aI0
aI0
aI0
aF0.03606783835138884
assVQQ\u5b89\u5168\u4e2d\u5fc3
p1066
(dp1067
g116
(lp1068
I0
aI0
aI0
aI0
aI0
aI0
aF0.053499079732165306
assg69
(dp1069
g116
(lp1070
I0
aI0
aI0
aI0
aI0
aI0
aF0.054014777382800999
assV[SmartAir]
p1071
(dp1072
g116
(lp1073
I0
aI0
aI0
aI0
aI0
aI0
aF0.11102832883846095
assV[\u770b\u5ba2\u4e70\u7968]
p1074
(dp1075
g116
(lp1076
I0
aI0
aI0
aI0
aI0
aI0
aF0.089177536931462534
assg107
(dp1077
g116
(lp1078
I0
aI0
aI0
aI0
aI0
aI0
aF0.047096956431165134
assg87
(dp1079
g116
(lp1080
I0
aI0
aI0
aI0
aI0
aI0
aF0.078501413973794565
assg89
(dp1081
g116
(lp1082
I0
aI0
aI0
aI0
aI0
aI0
aF0.094685577401943333
assVQQ
p1083
(dp1084
g116
(lp1085
I0
aI0
aI0
aI0
aI0
aI0
aF0.13139291009745474
assV[\u7a7a\u6c14\u51c0\u5316\u5668]
p1086
(dp1087
g116
(lp1088
I0
aI0
aI0
aI0
aI0
aI0
aF0.055222657657639784
assg97
(dp1089
g116
(lp1090
I0
aI0
aI0
aI0
aI0
aI0
aF0.22182720566603051
assV[\u5e94\u7528\u5546\u5e97]
p1091
(dp1092
g116
(lp1093
I0
aI0
aI0
aI0
aI0
aI0
aF0.054994646343760653
assg341
(dp1094
g116
(lp1095
I0
aI0
aI0
aI0
aI0
aI0
aF0.073444283206718419
assg103
(dp1096
g116
(lp1097
I0
aI0
aI0
aI0
aI0
aI0
aF0.11048384640491708
asssg87
(dp1098
g246
(dp1099
g116
(lp1100
I0
aI0
aI0
aI0
aI0
aI0
aF0.1470788330710569
assg75
(dp1101
g116
(lp1102
I0
aI0
aI0
aI0
aI0
aI0
aF0.04995729359970745
assV[\u53f2\u83b1\u59c6\u7684\u91ce\u671b]
p1103
(dp1104
g116
(lp1105
I0
aI0
aI0
aI0
aI0
aI0
aF0.13639166810612111
assV[\u5929\u5929\u98ce\u4e4b\u65c5]
p1106
(dp1107
g116
(lp1108
I0
aI0
aI0
aI0
aI0
aI0
aF0.045380362832121032
assV[\u997f\u4e86\u4e48]
p1109
(dp1110
g116
(lp1111
I0
aI0
aI0
aI0
aI0
aI0
aF0.052739324446367239
assg134
(dp1112
g116
(lp1113
I0
aI0
aI0
aI0
aI0
aI0
aF0.045107369047931639
assV[\u5e94\u7528\u5b9d]
p1114
(dp1115
g116
(lp1116
I0
aI0
aI0
aI0
aI0
aI0
aF0.14212274941634537
assg77
(dp1117
g116
(lp1118
I0
aI0
aI0
aI0
aI0
aI0
aF0.037460337369488145
assg101
(dp1119
g116
(lp1120
I0
aI0
aI0
aI0
aI0
aI0
aF0.087624509962810904
assV[\u673a\u5668\u4eba\u5c0f\u961f]
p1121
(dp1122
g116
(lp1123
I0
aI0
aI0
aI0
aI0
aI0
aF0.06460525085493414
assV[\u3061\u3087\u3068\u3061\u3087\u3068]
p1124
(dp1125
g116
(lp1126
I0
aI0
aI0
aI0
aI0
aI0
aF0.082866207514108836
assg61
(dp1127
g116
(lp1128
I0
aI0
aI0
aI0
aI0
aI0
aF0.049061607966723389
assg69
(dp1129
g116
(lp1130
I0
aI0
aI0
aI0
aI0
aI0
aF0.074008310430863714
assV[SmartAir]
p1131
(dp1132
g116
(lp1133
I0
aI0
aI0
aI0
aI0
aI0
aF1
assV[\u7a7a\u6c14\u51c0\u5316\u5668]
p1134
(dp1135
g116
(lp1136
I0
aI0
aI0
aI0
aI0
aI0
aF0.26532510313206475
assg43
(dp1137
g116
(lp1138
I0
aI0
aI0
aI0
aI0
aI0
aF0.020271394661970598
assg107
(dp1139
g116
(lp1140
I0
aI0
aI0
aI0
aI0
aI0
aF0.051047101948411971
assV[\u5fae\u4fe1\u7535\u8bdd\u672c]
p1141
(dp1142
g116
(lp1143
I0
aI0
aI0
aI0
aI0
aI0
aF0.12065713162412099
assVQQ
p1144
(dp1145
g116
(lp1146
I0
aI0
aI0
aI0
aI0
aI0
aF0.2975285379003037
assV[5253]
p1147
(dp1148
g116
(lp1149
I0
aI0
aI0
aI0
aI0
aI0
aF0.13021516980616582
assV[\u6b22\u4e50\u897f\u6e38]
p1150
(dp1151
g116
(lp1152
I0
aI0
aI0
aI0
aI0
aI0
aF0.02718605762869919
assV\u5fae\u4fe1
p1153
(dp1154
g116
(lp1155
I0
aI0
aI0
aI0
aI0
aI0
aF0.4640721854237011
assg103
(dp1156
g116
(lp1157
I0
aI0
aI0
aI0
aI0
aI0
aF0.038207777112690175
assg83
(dp1158
g116
(lp1159
I0
aI0
aI0
aI0
aI0
aI0
aF0.10982665740469709
asssg89
(dp1160
g208
(dp1161
g116
(lp1162
I0
aI0
aI0
aI0
aI0
aI0
aF0.075764173540439572
assV[\u7a7a\u6c14\u51c0\u5316\u5668]
p1163
(dp1164
g116
(lp1165
I0
aI0
aI0
aI0
aI0
aI0
aF0.036535909827803491
assVQQ\u5b89\u5168\u4e2d\u5fc3
p1166
(dp1167
g116
(lp1168
I0
aI0
aI0
aI0
aI0
aI0
aF0.030083425467359114
assg69
(dp1169
g116
(lp1170
I0
aI0
aI0
aI0
aI0
aI0
aF0.037666881704265007
assV[\u6bb5\u5b50\u624b]
p1171
(dp1172
g116
(lp1173
I0
aI0
aI0
aI0
aI0
aI0
aF0.027256992539807744
assg546
(dp1174
g116
(lp1175
I0
aI0
aI0
aI0
aI0
aI0
aF0.066267429608251396
assV[\u770b\u5ba2\u4e70\u7968]
p1176
(dp1177
g116
(lp1178
I0
aI0
aI0
aI0
aI0
aI0
aF0.062528150474097349
assg552
(dp1179
g116
(lp1180
I0
aI0
aI0
aI0
aI0
aI0
aF0.11870626027094192
assg1056
(dp1181
g116
(lp1182
I0
aI0
aI0
aI0
aI0
aI0
aF0.042613726305892809
assV[SmartAir]
p1183
(dp1184
g116
(lp1185
I0
aI0
aI0
aI0
aI0
aI0
aF0.035248094736381796
assV[\u5e94\u7528\u5546\u5e97]
p1186
(dp1187
g116
(lp1188
I0
aI0
aI0
aI0
aI0
aI0
aF0.007832092432892063
assg25
(dp1189
g116
(lp1190
I0
aI0
aI0
aI0
aI0
aI0
aF0.043936405902874925
assg27
(dp1191
g116
(lp1192
I0
aI0
aI0
aI0
aI0
aI0
aF0.038488833250809505
assV[\u5fae\u4fe1\u7535\u8bdd\u672c]
p1193
(dp1194
g116
(lp1195
I0
aI0
aI0
aI0
aI0
aI0
aF0.12535805343689954
assg63
(dp1196
g116
(lp1197
I0
aI0
aI0
aI0
aI0
aI0
aF0.025285436998253641
assV[\u997f\u4e86\u4e48]
p1198
(dp1199
g116
(lp1200
I0
aI0
aI0
aI0
aI0
aI0
aF0.047123477157474475
assV\u5e03\u5361\u6f2b\u753b
p1201
(dp1202
g116
(lp1203
I0
aI0
aI0
aI0
aI0
aI0
aF0.049842348674857186
assg103
(dp1204
g116
(lp1205
I0
aI0
aI0
aI0
aI0
aI0
aF0.081685290256901272
asssg91
(dp1206
V[\u673a\u5668\u4eba\u5c0f\u961f]
p1207
(dp1208
g116
(lp1209
I0
aI0
aI0
aI0
aI0
aI0
aF0.062655085477228437
assg11
(dp1210
g116
(lp1211
I0
aI0
aI0
aI0
aI0
aI0
aF0.042238322096668973
assg318
(dp1212
g116
(lp1213
I0
aI0
aI0
aI0
aI0
aI0
aF0.113030052160792
assg15
(dp1214
g116
(lp1215
I0
aI0
aI0
aI0
aI0
aI0
aF0.031150759351067599
assV[\u53f2\u83b1\u59c6\u7684\u91ce\u671b]
p1216
(dp1217
g116
(lp1218
I0
aI0
aI0
aI0
aI0
aI0
aF0.042126987177028903
assg67
(dp1219
g116
(lp1220
I0
aI0
aI0
aI0
aI0
aI0
aF0.3285729189145703
assg25
(dp1221
g116
(lp1222
I0
aI0
aI0
aI0
aI0
aI0
aF0.046017296038554423
assg27
(dp1223
g116
(lp1224
I0
aI0
aI0
aI0
aI0
aI0
aF0.021391312568758002
assV[\u5929\u5929\u98ce\u4e4b\u65c5]
p1225
(dp1226
g116
(lp1227
I0
aI0
aI0
aI0
aI0
aI0
aF0.065062016330798084
assV[\u997f\u4e86\u4e48]
p1228
(dp1229
g116
(lp1230
I0
aI0
aI0
aI0
aI0
aI0
aF0.25266104535020001
assg285
(dp1231
g116
(lp1232
I0
aI0
aI0
aI0
aI0
aI0
aF0.076958266266992578
assV[SmartAir]
p1233
(dp1234
g116
(lp1235
I0
aI0
aI0
aI0
aI0
aI0
aF0.34487875452015543
assV[\u52fe\u642d\u62db\u8058]
p1236
(dp1237
g116
(lp1238
I0
aI0
aI0
aI0
aI0
aI0
aF0.030679595927091168
assg77
(dp1239
g116
(lp1240
I0
aI0
aI0
aI0
aI0
aI0
aF0.052977639881020389
assg101
(dp1241
g116
(lp1242
I0
aI0
aI0
aI0
aI0
aI0
aF0.066042498768623115
assg272
(dp1243
g116
(lp1244
I0
aI0
aI0
aI0
aI0
aI0
aF0.15684099918749891
assg75
(dp1245
g116
(lp1246
I0
aI0
aI0
aI0
aI0
aI0
aF0.0053273575446568834
assg278
(dp1247
g116
(lp1248
I0
aI0
aI0
aI0
aI0
aI0
aF0.087996213974990842
assg53
(dp1249
g116
(lp1250
I0
aI0
aI0
aI0
aI0
aI0
aF0.069533352547864871
assV[\u3061\u3087\u3068\u3061\u3087\u3068]
p1251
(dp1252
g116
(lp1253
I0
aI0
aI0
aI0
aI0
aI0
aF0.011142967761672838
assV[5253]
p1254
(dp1255
g116
(lp1256
I0
aI0
aI0
aI0
aI0
aI0
aF0.093818586462624476
assg61
(dp1257
g116
(lp1258
I0
aI0
aI0
aI0
aI0
aI0
aF0.0032623269154439076
assg63
(dp1259
g116
(lp1260
I0
aI0
aI0
aI0
aI0
aI0
aF0.026490524995525833
assV[\u5e94\u7528\u5b9d]
p1261
(dp1262
g116
(lp1263
I0
aI0
aI0
aI0
aI0
aI0
aF0.079463173313049834
assg23
(dp1264
g116
(lp1265
I0
aI0
aI0
aI0
aI0
aI0
aF0.087810033676042398
assg69
(dp1266
g116
(lp1267
I0
aI0
aI0
aI0
aI0
aI0
aF0.069706050543999504
assV[\u4fbf\u7b7e]
p1268
(dp1269
g116
(lp1270
I0
aI0
aI0
aI0
aI0
aI0
aF0.036960738785857011
assV[\u770b\u5ba2\u4e70\u7968]
p1271
(dp1272
g116
(lp1273
I0
aI0
aI0
aI0
aI0
aI0
aF0.065453320341957499
assg43
(dp1274
g116
(lp1275
I0
aI0
aI0
aI0
aI0
aI0
aF0.032562799650821712
assg79
(dp1276
g116
(lp1277
I0
aI0
aI0
aI0
aI0
aI0
aF0.043603000708051877
assg83
(dp1278
g116
(lp1279
I0
aI0
aI0
aI0
aI0
aI0
aF0.038008576952440101
assV[\u5fae\u4fe1\u7535\u8bdd\u672c]
p1280
(dp1281
g116
(lp1282
I0
aI0
aI0
aI0
aI0
aI0
aF0.1521949382269501
assg87
(dp1283
g116
(lp1284
I0
aI0
aI0
aI0
aI0
aI0
aF0.23925067329243777
assg89
(dp1285
g116
(lp1286
I0
aI0
aI0
aI0
aI0
aI0
aF0.14172361806819445
assV[\u7a7a\u6c14\u51c0\u5316\u5668]
p1287
(dp1288
g116
(lp1289
I0
aI0
aI0
aI0
aI0
aI0
aF0.1163268809713142
assV[\u6b22\u4e50\u897f\u6e38]
p1290
(dp1291
g116
(lp1292
I0
aI0
aI0
aI0
aI0
aI0
aF0.0578051707954556
assg97
(dp1293
g116
(lp1294
I0
aI0
aI0
aI0
aI0
aI0
aF0.43426710872096175
assV[\u5e94\u7528\u5546\u5e97]
p1295
(dp1296
g116
(lp1297
I0
aI0
aI0
aI0
aI0
aI0
aF0.047034222905281912
assg107
(dp1298
g116
(lp1299
I0
aI0
aI0
aI0
aI0
aI0
aF0.035935973317961493
assg161
(dp1300
g116
(lp1301
I0
aI0
aI0
aI0
aI0
aI0
aF0.042759463738646253
assg103
(dp1302
g116
(lp1303
I0
aI0
aI0
aI0
aI0
aI0
aF0.14849172335357463
asssg93
(dp1304
g114
(dp1305
g116
(lp1306
I0
aI0
aI0
aI0
aI0
aI0
aF0.079172979344655781
assV[\u3061\u3087\u3068\u3061\u3087\u3068]
p1307
(dp1308
g116
(lp1309
I0
aI0
aI0
aI0
aI0
aI0
aF0.079456805553730886
assg77
(dp1310
g116
(lp1311
I0
aI0
aI0
aI0
aI0
aI0
aF0.065322488606638113
assg69
(dp1312
g116
(lp1313
I0
aI0
aI0
aI0
aI0
aI0
aF0.13152297395583903
assg101
(dp1314
g116
(lp1315
I0
aI0
aI0
aI0
aI0
aI0
aF0.15255763881007428
assg246
(dp1316
g116
(lp1317
I0
aI0
aI0
aI0
aI0
aI0
aF0.14799456550093026
assg75
(dp1318
g116
(lp1319
I0
aI0
aI0
aI0
aI0
aI0
aF0.045159961515499503
assg251
(dp1320
g116
(lp1321
I0
aI0
aI0
aI0
aI0
aI0
aF0.074787851364274779
assV[\u673a\u5668\u4eba\u5c0f\u961f]
p1322
(dp1323
g116
(lp1324
I0
aI0
aI0
aI0
aI0
aI0
aF0.089722424967855305
assV[\u53f2\u83b1\u59c6\u7684\u91ce\u671b]
p1325
(dp1326
g116
(lp1327
I0
aI0
aI0
aI0
aI0
aI0
aF0.14884906538952844
assg107
(dp1328
g116
(lp1329
I0
aI0
aI0
aI0
aI0
aI0
aF0.088825459466267367
assg83
(dp1330
g116
(lp1331
I0
aI0
aI0
aI0
aI0
aI0
aF0.11477983227356355
assV[\u5fae\u4fe1\u7535\u8bdd\u672c]
p1332
(dp1333
g116
(lp1334
I0
aI0
aI0
aI0
aI0
aI0
aF0.089100664237915239
assg61
(dp1335
g116
(lp1336
I0
aI0
aI0
aI0
aI0
aI0
aF0.04416709540545407
assg87
(dp1337
g116
(lp1338
I0
aI0
aI0
aI0
aI0
aI0
aF0.13330540672689692
assg134
(dp1339
g116
(lp1340
I0
aI0
aI0
aI0
aI0
aI0
aF0.078360037174431643
assg103
(dp1341
g116
(lp1342
I0
aI0
aI0
aI0
aI0
aI0
aF0.035587785144405061
asssg95
(dp1343
g348
(dp1344
g116
(lp1345
I0
aI0
aI0
aI0
aI0
aI0
aF0.073472804162298885
assg43
(dp1346
g116
(lp1347
I0
aI0
aI0
aI0
aI0
aI0
aF0.039680470212618286
assg356
(dp1348
g116
(lp1349
I0
aI0
aI0
aI0
aI0
aI0
aF0.093292156397565745
assV\u5fae\u4fe1
p1350
(dp1351
g116
(lp1352
I0
aI0
aI0
aI0
aI0
aI0
aF0.11037584037650315
assV[\u5929\u5929\u98ce\u4e4b\u65c5]
p1353
(dp1354
g116
(lp1355
I0
aI0
aI0
aI0
aI0
aI0
aF0.08961012874383581
assg87
(dp1356
g116
(lp1357
I0
aI0
aI0
aI0
aI0
aI0
aF0.046512794350298911
asssg97
(dp1358
g11
(dp1359
g116
(lp1360
I0
aI0
aI0
aI0
aI0
aI0
aF0.076801489777514512
assg13
(dp1361
g116
(lp1362
I0
aI0
aI0
aI0
aI0
aI0
aF0.23214790793048137
assg75
(dp1363
g116
(lp1364
I0
aI0
aI0
aI0
aI0
aI0
aF0.034889362394674113
assV[\u5f00\u62d3\u91d1\u5b57\u5854\u738b\u56fd]
p1365
(dp1366
g116
(lp1367
I0
aI0
aI0
aI0
aI0
aI0
aF0.073849616957385872
assV[\u53f2\u83b1\u59c6\u7684\u91ce\u671b]
p1368
(dp1369
g116
(lp1370
I0
aI0
aI0
aI0
aI0
aI0
aF0.073032903712426989
assg67
(dp1371
g116
(lp1372
I0
aI0
aI0
aI0
aI0
aI0
aF0.27155976247766855
assg25
(dp1373
g116
(lp1374
I0
aI0
aI0
aI0
aI0
aI0
aF0.11628145853771364
assg27
(dp1375
g116
(lp1376
I0
aI0
aI0
aI0
aI0
aI0
aF0.05776364291424109
assV[\u5929\u5929\u98ce\u4e4b\u65c5]
p1377
(dp1378
g116
(lp1379
I0
aI0
aI0
aI0
aI0
aI0
aF0.1102159122099423
assV[\u997f\u4e86\u4e48]
p1380
(dp1381
g116
(lp1382
I0
aI0
aI0
aI0
aI0
aI0
aF0.17953247570888062
assg285
(dp1383
g116
(lp1384
I0
aI0
aI0
aI0
aI0
aI0
aF0.051446227030846808
assV[SmartAir]
p1385
(dp1386
g116
(lp1387
I0
aI0
aI0
aI0
aI0
aI0
aF0.5420383184137828
assV[\u5e94\u7528\u5b9d]
p1388
(dp1389
g116
(lp1390
I0
aI0
aI0
aI0
aI0
aI0
aF0.15832922140962474
assg77
(dp1391
g116
(lp1392
I0
aI0
aI0
aI0
aI0
aI0
aF0.045764702247573966
assV[\u6bb5\u5b50\u624b]
p1393
(dp1394
g116
(lp1395
I0
aI0
aI0
aI0
aI0
aI0
aF0.044828900466982645
assg272
(dp1396
g116
(lp1397
I0
aI0
aI0
aI0
aI0
aI0
aF0.094456696578582355
assV[\u673a\u5668\u4eba\u5c0f\u961f]
p1398
(dp1399
g116
(lp1400
I0
aI0
aI0
aI0
aI0
aI0
aF0.022157382982444244
assg278
(dp1401
g116
(lp1402
I0
aI0
aI0
aI0
aI0
aI0
aF0.058929516383165015
assg53
(dp1403
g116
(lp1404
I0
aI0
aI0
aI0
aI0
aI0
aF0.043446659212043465
assV[\u3061\u3087\u3068\u3061\u3087\u3068]
p1405
(dp1406
g116
(lp1407
I0
aI0
aI0
aI0
aI0
aI0
aF0.054836374097856189
assV[5253]
p1408
(dp1409
g116
(lp1410
I0
aI0
aI0
aI0
aI0
aI0
aF0.042748724941126269
assg61
(dp1411
g116
(lp1412
I0
aI0
aI0
aI0
aI0
aI0
aF0.065296529357329949
assg63
(dp1413
g116
(lp1414
I0
aI0
aI0
aI0
aI0
aI0
aF0.06692020886117156
assVQQ\u5b89\u5168\u4e2d\u5fc3
p1415
(dp1416
g116
(lp1417
I0
aI0
aI0
aI0
aI0
aI0
aF0.084263937119912091
assg69
(dp1418
g116
(lp1419
I0
aI0
aI0
aI0
aI0
aI0
aF0.086469811419503537
assV[\u4fbf\u7b7e]
p1420
(dp1421
g116
(lp1422
I0
aI0
aI0
aI0
aI0
aI0
aF0.04659554641889295
assV[\u770b\u5ba2\u4e70\u7968]
p1423
(dp1424
g116
(lp1425
I0
aI0
aI0
aI0
aI0
aI0
aF0.16548544866550952
assg43
(dp1426
g116
(lp1427
I0
aI0
aI0
aI0
aI0
aI0
aF0.061027703960962611
assg79
(dp1428
g116
(lp1429
I0
aI0
aI0
aI0
aI0
aI0
aF0.069601281505422913
assg83
(dp1430
g116
(lp1431
I0
aI0
aI0
aI0
aI0
aI0
aF0.065181939443198791
assV[\u5fae\u4fe1\u7535\u8bdd\u672c]
p1432
(dp1433
g116
(lp1434
I0
aI0
aI0
aI0
aI0
aI0
aF0.19619514857806239
assg87
(dp1435
g116
(lp1436
I0
aI0
aI0
aI0
aI0
aI0
aF0.36349314761568968
assg89
(dp1437
g116
(lp1438
I0
aI0
aI0
aI0
aI0
aI0
aF0.15672285380527215
assVQQ
p1439
(dp1440
g116
(lp1441
I0
aI0
aI0
aI0
aI0
aI0
aF0.53590586549794827
assV[\u7a7a\u6c14\u51c0\u5316\u5668]
p1442
(dp1443
g116
(lp1444
I0
aI0
aI0
aI0
aI0
aI0
aF0.15171392316637253
assV[\u6b22\u4e50\u897f\u6e38]
p1445
(dp1446
g116
(lp1447
I0
aI0
aI0
aI0
aI0
aI0
aF0.11326291510293755
assg161
(dp1448
g116
(lp1449
I0
aI0
aI0
aI0
aI0
aI0
aF0.1258547882641744
assg103
(dp1450
g116
(lp1451
I0
aI0
aI0
aI0
aI0
aI0
aF0.22925206364419576
asssg99
(dp1452
VQQ
p1453
(dp1454
g116
(lp1455
I0
aI0
aI0
aI0
aI0
aI0
aF0.042025465935138659
assV\u5fae\u4fe1
p1456
(dp1457
g116
(lp1458
I0
aI0
aI0
aI0
aI0
aI0
aF0.077189315736035963
asssg101
(dp1459
g114
(dp1460
g116
(lp1461
I0
aI0
aI0
aI0
aI0
aI0
aF0.053502290609235184
assV[5253]
p1462
(dp1463
g116
(lp1464
I0
aI0
aI0
aI0
aI0
aI0
aF0.093472104093333772
assg77
(dp1465
g116
(lp1466
I0
aI0
aI0
aI0
aI0
aI0
aF0.038279974235310127
assg69
(dp1467
g116
(lp1468
I0
aI0
aI0
aI0
aI0
aI0
aF0.096451360505416209
assV[\u673a\u5668\u4eba\u5c0f\u961f]
p1469
(dp1470
g116
(lp1471
I0
aI0
aI0
aI0
aI0
aI0
aF0.058355012976030657
assg107
(dp1472
g116
(lp1473
I0
aI0
aI0
aI0
aI0
aI0
aF0.06810162092168294
assV[\u5fae\u4fe1\u7535\u8bdd\u672c]
p1474
(dp1475
g116
(lp1476
I0
aI0
aI0
aI0
aI0
aI0
aF0.068301055417798323
assg87
(dp1477
g116
(lp1478
I0
aI0
aI0
aI0
aI0
aI0
aF0.053785751881872991
assg134
(dp1479
g116
(lp1480
I0
aI0
aI0
aI0
aI0
aI0
aF0.059485581802213486
asssg103
(dp1481
g227
(dp1482
g116
(lp1483
I0
aI0
aI0
aI0
aI0
aI0
aF0.0580818870091157
assg318
(dp1484
g116
(lp1485
I0
aI0
aI0
aI0
aI0
aI0
aF0.093360641491382512
assg75
(dp1486
g116
(lp1487
I0
aI0
aI0
aI0
aI0
aI0
aF0.020814651324703396
assV[\u5f00\u62d3\u91d1\u5b57\u5854\u738b\u56fd]
p1488
(dp1489
g116
(lp1490
I0
aI0
aI0
aI0
aI0
aI0
aF0.081544701225012298
assV[\u53f2\u83b1\u59c6\u7684\u91ce\u671b]
p1491
(dp1492
g116
(lp1493
I0
aI0
aI0
aI0
aI0
aI0
aF0.067887891763819763
assg67
(dp1494
g116
(lp1495
I0
aI0
aI0
aI0
aI0
aI0
aF0.081473502428810296
assg25
(dp1496
g116
(lp1497
I0
aI0
aI0
aI0
aI0
aI0
aF0.13219497657355436
assV[\u997f\u4e86\u4e48]
p1498
(dp1499
g116
(lp1500
I0
aI0
aI0
aI0
aI0
aI0
aF0.088343365937783414
assg676
(dp1501
g116
(lp1502
I0
aI0
aI0
aI0
aI0
aI0
aF0.025494536044122461
assV[\u5e94\u7528\u5b9d]
p1503
(dp1504
g116
(lp1505
I0
aI0
aI0
aI0
aI0
aI0
aF0.060035791570990774
assg77
(dp1506
g116
(lp1507
I0
aI0
aI0
aI0
aI0
aI0
aF0.02942291342287048
assg47
(dp1508
g116
(lp1509
I0
aI0
aI0
aI0
aI0
aI0
aF0.041240453654206762
assV[\u673a\u5668\u4eba\u5c0f\u961f]
p1510
(dp1511
g116
(lp1512
I0
aI0
aI0
aI0
aI0
aI0
aF0.024841967569572802
assg51
(dp1513
g116
(lp1514
I0
aI0
aI0
aI0
aI0
aI0
aF0.020483682271279276
assV[\u3061\u3087\u3068\u3061\u3087\u3068]
p1515
(dp1516
g116
(lp1517
I0
aI0
aI0
aI0
aI0
aI0
aF0.045621787123371199
assV[5253]
p1518
(dp1519
g116
(lp1520
I0
aI0
aI0
aI0
aI0
aI0
aF0.046261053334575558
assg61
(dp1521
g116
(lp1522
I0
aI0
aI0
aI0
aI0
aI0
aF0.048430105848324183
assg63
(dp1523
g116
(lp1524
I0
aI0
aI0
aI0
aI0
aI0
aF0.080849062629235496
assVQQ\u5b89\u5168\u4e2d\u5fc3
p1525
(dp1526
g116
(lp1527
I0
aI0
aI0
aI0
aI0
aI0
aF0.0012932490567961125
assg69
(dp1528
g116
(lp1529
I0
aI0
aI0
aI0
aI0
aI0
aF0.086462793817340483
assV[SmartAir]
p1530
(dp1531
g116
(lp1532
I0
aI0
aI0
aI0
aI0
aI0
aF0.094481151805418856
assV[\u770b\u5ba2\u4e70\u7968]
p1533
(dp1534
g116
(lp1535
I0
aI0
aI0
aI0
aI0
aI0
aF0.15972565460751006
assg83
(dp1536
g116
(lp1537
I0
aI0
aI0
aI0
aI0
aI0
aF0.051197922433024123
assV[\u5fae\u4fe1\u7535\u8bdd\u672c]
p1538
(dp1539
g116
(lp1540
I0
aI0
aI0
aI0
aI0
aI0
aF0.059191883592951695
assg87
(dp1541
g116
(lp1542
I0
aI0
aI0
aI0
aI0
aI0
aF0.07053499718169709
assg89
(dp1543
g116
(lp1544
I0
aI0
aI0
aI0
aI0
aI0
aF0.0098511714537930801
assg91
(dp1545
g116
(lp1546
I0
aI0
aI0
aI0
aI0
aI0
aF0.18744246583291713
assV[\u7a7a\u6c14\u51c0\u5316\u5668]
p1547
(dp1548
g116
(lp1549
I0
aI0
aI0
aI0
aI0
aI0
aF0.076978103708625109
assg580
(dp1550
g116
(lp1551
I0
aI0
aI0
aI0
aI0
aI0
aF0.21720361014490464
assV[\u5e94\u7528\u5546\u5e97]
p1552
(dp1553
g116
(lp1554
I0
aI0
aI0
aI0
aI0
aI0
aF0.080291083216553621
asssg105
(dp1555
g338
(dp1556
g116
(lp1557
I0
aI0
aI0
aI0
aI0
aI0
aF0.05179902738194489
assg344
(dp1558
g116
(lp1559
I0
aI0
aI0
aI0
aI0
aI0
aF0.067622980940643465
assV\u5fae\u4fe1
p1560
(dp1561
g116
(lp1562
I0
aI0
aI0
aI0
aI0
aI0
aF0.12247784171087236
assVQQ\u90ae\u7bb1
p1563
(dp1564
g116
(lp1565
I0
aI0
aI0
aI0
aI0
aI0
aF0.039647885939074382
assg27
(dp1566
g116
(lp1567
I0
aI0
aI0
aI0
aI0
aI0
aF0.045720134265028738
assV[\u5fae\u4fe1\u7535\u8bdd\u672c]
p1568
(dp1569
g116
(lp1570
I0
aI0
aI0
aI0
aI0
aI0
aF0.11138593577950955
assg89
(dp1571
g116
(lp1572
I0
aI0
aI0
aI0
aI0
aI0
aF0.058856853006756693
asssg107
(dp1573
V[\u5fae\u4fe1\u7535\u8bdd\u672c]
p1574
(dp1575
g116
(lp1576
I0
aI0
aI0
aI0
aI0
aI0
aF0.027119518910475721
assssS'edge'
p1577
g112
sS'pred'
p1578
(dp1579
g8
(dp1580
VQQ
p1581
g1208
sV[\u52fe\u642d\u62db\u8058]
p1582
g766
sg77
g940
sVQQ\u5b89\u5168\u4e2d\u5fc3
p1583
g300
sg69
g827
sg101
g1470
sV[5253]
p1584
g1323
sV\u5fae\u4fe1
p1585
g1399
sV[\u3061\u3087\u3068\u3061\u3087\u3068]
p1586
g668
sg83
g1003
sV[\u5fae\u4fe1\u7535\u8bdd\u672c]
p1587
g1054
sg87
g1122
sg134
g395
sg103
g1511
ssg11
(dp1588
VQQ
p1589
g1210
sg69
g797
sV[\u5f00\u62d3\u91d1\u5b57\u5854\u738b\u56fd]
p1590
g228
sV\u5fae\u4fe1
p1591
g1359
sV[OTTTD]
p1592
g511
sg83
g978
sV[\u5fae\u4fe1\u7535\u8bdd\u672c]
p1593
g1032
sV[Unmechanical]
p1594
g698
sg61
g724
sV[\u997f\u4e86\u4e48]
p1595
g366
sg103
g1482
ssg13
(dp1596
g161
g1558
sg75
g922
sV[\u53f2\u83b1\u59c6\u7684\u91ce\u671b]
p1597
g247
sg25
g319
sg27
g345
sV[\u5929\u5929\u98ce\u4e4b\u65c5]
p1598
g357
sVWPS Office
p1599
g399
sV[\u5e94\u7528\u5b9d]
p1600
g481
sV[\u6bb5\u5b50\u624b]
p1601
g547
sV\u8d85\u7ea7\u8bfe\u7a0b\u8868
p1602
g575
sVQQ\u90ae\u7bb1
p1603
g623
sV[\u3061\u3087\u3068\u3061\u3087\u3068]
p1604
g660
sV[5253]
p1605
g1316
sg63
g748
sg69
g799
sV[SmartAir]
p1606
g444
sV[\u770b\u5ba2\u4e70\u7968]
p1607
g605
sg196
g956
sg83
g1000
sV[\u5fae\u4fe1\u7535\u8bdd\u672c]
p1608
g1034
sg87
g1099
sg89
g1174
sg208
g1212
sV[\u7a7a\u6c14\u51c0\u5316\u5668]
p1609
g895
sV[\u6b22\u4e50\u897f\u6e38]
p1610
g1348
sg406
g1361
sg103
g1484
ssg15
(dp1611
VQQ
p1612
g1214
sVQQ\u5b89\u5168\u4e2d\u5fc3
p1613
g294
sV[\u997f\u4e86\u4e48]
p1614
g368
sg302
g627
ssg17
(dp1615
g69
g804
sg516
g1366
sV[OTTTD]
p1616
g514
sg83
g985
sV[Unmechanical]
p1617
g701
sg103
g1489
ssg19
(dp1618
VQQ
p1619
g1217
sV[5253]
p1620
g1326
sg69
g807
sV\u5fae\u4fe1
p1621
g1369
sg87
g1104
sg103
g1492
ssg21
(dp1622
sg23
(dp1623
VQQ
p1624
g1264
sV[\u7a7a\u6c14\u51c0\u5316\u5668]
p1625
g890
sV[SmartAir]
p1626
g442
sg622
g186
sg296
g1416
sg1603
g620
sg196
g958
sV[\u5fae\u4fe1\u7535\u8bdd\u672c]
p1627
g1067
sg89
g1167
sg103
g1526
ssg25
(dp1628
g208
g1221
sV[\u7a7a\u6c14\u51c0\u5316\u5668]
p1629
g902
sg69
g809
sV[\u6bb5\u5b50\u624b]
p1630
g555
sg13
g166
sV[\u770b\u5ba2\u4e70\u7968]
p1631
g609
sg406
g1373
sV[SmartAir]
p1632
g457
sV[\u5fae\u4fe1\u7535\u8bdd\u672c]
p1633
g1036
sg89
g1189
sg1599
g421
sg103
g1496
ssg27
(dp1634
VQQ
p1635
g1223
sVUC\u6d4f\u89c8\u5668
p1636
g168
sg161
g1566
sV\u5fae\u4fe1
p1637
g1375
sV[\u5fae\u4fe1\u7535\u8bdd\u672c]
p1638
g1038
sg89
g1191
ssg29
(dp1639
VQQ
p1640
g1226
sV[\u5e94\u7528\u5b9d]
p1641
g495
sg1602
g590
sV[\u6b22\u4e50\u897f\u6e38]
p1642
g1354
sV\u5fae\u4fe1
p1643
g1378
sg87
g1107
ssg31
(dp1644
VQQ
p1645
g1229
sV[\u5e94\u7528\u5b9d]
p1646
g490
sg67
g790
sg69
g812
sg227
g158
sV\u8d85\u7ea7\u8bfe\u7a0b\u8868
p1647
g593
sV[\u5f00\u62d3\u91d1\u5b57\u5854\u738b\u56fd]
p1648
g241
sV\u5fae\u4fe1
p1649
g1381
sg302
g637
sV[OTTTD]
p1650
g530
sg1613
g309
sg83
g988
sV[\u5fae\u4fe1\u7535\u8bdd\u672c]
p1651
g1041
sV[Unmechanical]
p1652
g713
sg61
g738
sg87
g1110
sg89
g1199
sg103
g1499
ssg33
(dp1653
sg35
(dp1654
V[\u5e94\u7528\u5b9d]
p1655
g499
sg264
g1231
sg77
g949
sg69
g814
sV[\u4fbf\u7b7e]
p1656
g882
sg101
g1479
sV[5253]
p1657
g1339
sg275
g1383
sV[\u673a\u5668\u4eba\u5c0f\u961f]
p1658
g135
sg278
g642
sg53
g654
sV[\u52fe\u642d\u62db\u8058]
p1659
g775
sg79
g974
sV[\u5fae\u4fe1\u7535\u8bdd\u672c]
p1660
g1043
sg83
g990
sg57
g686
sV[Sensor Log]
p1661
g286
sg103
g1501
sg87
g1112
sV[\u3061\u3087\u3068\u3061\u3087\u3068]
p1662
g677
ssg37
(dp1663
g208
g1234
sV[\u7a7a\u6c14\u51c0\u5316\u5668]
p1664
g893
sg69
g844
sV[\u6bb5\u5b50\u624b]
p1665
g544
sg13
g191
sV[\u770b\u5ba2\u4e70\u7968]
p1666
g603
sg406
g1386
sV[\u5e94\u7528\u5b9d]
p1667
g479
sg25
g316
sV[\u5fae\u4fe1\u7535\u8bdd\u672c]
p1668
g1072
sg63
g746
sg87
g1132
sg89
g1184
sg1599
g410
sg103
g1531
ssg39
(dp1669
g1640
g1262
sV[\u7a7a\u6c14\u51c0\u5316\u5668]
p1670
g888
sg69
g817
sg227
g144
sg1602
g569
sV[\u5f00\u62d3\u91d1\u5b57\u5854\u738b\u56fd]
p1671
g225
sg1643
g1389
sg87
g1115
sV[SmartAir]
p1672
g452
sV[OTTTD]
p1673
g507
sg83
g993
sV[\u5fae\u4fe1\u7535\u8bdd\u672c]
p1674
g1046
sV[Unmechanical]
p1675
g694
sg61
g722
sV[\u997f\u4e86\u4e48]
p1676
g364
sg103
g1504
ssg41
(dp1677
g83
g1006
ssg43
(dp1678
g1640
g1274
sV[\u5e94\u7528\u5b9d]
p1679
g474
sg356
g170
sg1602
g587
sV[\u6b22\u4e50\u897f\u6e38]
p1680
g1346
sg1643
g1426
sV[\u5929\u5929\u98ce\u4e4b\u65c5]
p1681
g354
sg87
g1137
ssg45
(dp1682
V[\u5fae\u4fe1\u7535\u8bdd\u672c]
p1683
g1049
sg406
g1394
sg13
g173
sg1599
g392
sg89
g1172
ssg47
(dp1684
g264
g1243
sg67
g784
sg69
g824
sV[\u4fbf\u7b7e]
p1685
g876
sg275
g1396
sg278
g625
sg53
g650
sg79
g965
sV[\u5fae\u4fe1\u7535\u8bdd\u672c]
p1686
g1051
sg11
g147
sV[Sensor Log]
p1687
g273
sg285
g401
sg103
g1508
ssg49
(dp1688
g208
g1272
sV[\u7a7a\u6c14\u51c0\u5316\u5668]
p1689
g898
sg69
g847
sV[\u6bb5\u5b50\u624b]
p1690
g550
sg13
g194
sg406
g1424
sV[SmartAir]
p1691
g447
sg25
g322
sV[\u5fae\u4fe1\u7535\u8bdd\u672c]
p1692
g1075
sg63
g751
sg89
g1177
sg1599
g427
sg103
g1534
ssg51
(dp1693
g264
g1247
sVUC\u6d4f\u89c8\u5668
p1694
g176
sg1613
g303
sg69
g829
sV[\u4fbf\u7b7e]
p1695
g878
sg47
g585
sg275
g1401
sg53
g652
sg79
g970
sV[\u5fae\u4fe1\u7535\u8bdd\u672c]
p1696
g1057
sV\u5e03\u5361\u6f2b\u753b
p1697
g1564
sV[Sensor Log]
p1698
g279
sg89
g1181
sg285
g412
sg103
g1513
ssg53
(dp1699
g264
g1249
sg69
g831
sV[\u4fbf\u7b7e]
p1700
g880
sg275
g1403
sg79
g972
sV[Sensor Log]
p1701
g281
sg61
g732
sg285
g414
ssg55
(dp1702
g1619
g1252
sV[5253]
p1703
g1308
sg69
g834
sg246
g179
sg75
g915
sg1621
g1406
sV[\u53f2\u83b1\u59c6\u7684\u91ce\u671b]
p1704
g255
sg83
g996
sV[\u5fae\u4fe1\u7535\u8bdd\u672c]
p1705
g1060
sg61
g735
sg87
g1125
sg103
g1516
ssg57
(dp1706
V[\u5e94\u7528\u5b9d]
p1707
g492
ssg59
(dp1708
V[OTTTD]
p1709
g525
sg83
g1009
ssg61
(dp1710
g1619
g1257
sV[5253]
p1711
g1335
sV[OTTTD]
p1712
g527
sg69
g839
sg246
g181
sV[\u3061\u3087\u3068\u3061\u3087\u3068]
p1713
g672
sV[\u5f00\u62d3\u91d1\u5b57\u5854\u738b\u56fd]
p1714
g238
sV\u5fae\u4fe1
p1715
g1411
sV[\u997f\u4e86\u4e48]
p1716
g376
sg75
g917
sV[\u53f2\u83b1\u59c6\u7684\u91ce\u671b]
p1717
g259
sg83
g1011
sV[\u5fae\u4fe1\u7535\u8bdd\u672c]
p1718
g1062
sV[Unmechanical]
p1719
g710
sg87
g1127
sg103
g1521
ssg63
(dp1720
g208
g1259
sV[\u7a7a\u6c14\u51c0\u5316\u5668]
p1721
g911
sg69
g841
sV[\u6bb5\u5b50\u624b]
p1722
g560
sg13
g183
sV[\u770b\u5ba2\u4e70\u7968]
p1723
g613
sg406
g1413
sV[SmartAir]
p1724
g462
sg25
g329
sV[\u5fae\u4fe1\u7535\u8bdd\u672c]
p1725
g1064
sg89
g1196
sg1599
g429
sg103
g1523
ssg65
(dp1726
g1581
g1237
ssg67
(dp1727
g1645
g1219
sg1649
g1371
sg1647
g573
sg103
g1494
ssg69
(dp1728
g13
g188
sV[Sensor Log]
p1729
g267
sg35
g397
sV[\u5e94\u7528\u5b9d]
p1730
g476
sV[\u3061\u3087\u3068\u3061\u3087\u3068]
p1731
g657
sg77
g931
sV[\u6bb5\u5b50\u624b]
p1732
g541
sV[\u673a\u5668\u4eba\u5c0f\u961f]
p1733
g123
sV[OTTTD]
p1734
g509
sg57
g684
sV[Unmechanical]
p1735
g696
sV[\u52fe\u642d\u62db\u8058]
p1736
g761
sV[\u4fbf\u7b7e]
p1737
g874
sg79
g960
sg83
g1013
sV[\u5fae\u4fe1\u7535\u8bdd\u672c]
p1738
g1069
sg87
g1129
sg89
g1169
sg264
g1266
sV[5253]
p1739
g1312
sg275
g1418
sg101
g1467
sg103
g1528
ssg71
(dp1740
V[Sensor Log]
p1741
g270
sg275
g1421
sg79
g963
sg264
g1269
ssg73
(dp1742
g208
g1288
sV[\u5e94\u7528\u5b9d]
p1743
g472
sg69
g859
sV[\u6bb5\u5b50\u624b]
p1744
g539
sg13
g212
sg406
g1443
sV[SmartAir]
p1745
g439
sV[\u5fae\u4fe1\u7535\u8bdd\u672c]
p1746
g1087
sg87
g1135
sg89
g1164
sg1599
g404
sg103
g1548
ssg75
(dp1747
g1619
g1245
sV[5253]
p1748
g1318
sg69
g801
sg246
g164
sV[\u3061\u3087\u3068\u3061\u3087\u3068]
p1749
g662
sg1621
g1363
sV[\u53f2\u83b1\u59c6\u7684\u91ce\u671b]
p1750
g249
sg83
g982
sg87
g1101
sg103
g1486
ssg77
(dp1751
g565
g1239
sV[\u52fe\u642d\u62db\u8058]
p1752
g759
sg69
g819
sg101
g1465
sg47
g571
sV[5253]
p1753
g1310
sg580
g1391
sV[\u673a\u5668\u4eba\u5c0f\u961f]
p1754
g121
sg51
g618
sg83
g998
sg87
g1117
sg103
g1506
ssg79
(dp1755
V[Sensor Log]
p1756
g283
sg275
g1428
sg264
g1276
sg622
g197
sg1603
g631
ssg81
(dp1757
sg83
(dp1758
g1619
g1278
sV[5253]
p1759
g1330
sV[\u673a\u5668\u4eba\u5c0f\u961f]
p1760
g127
sg69
g849
sg246
g199
sV[\u3061\u3087\u3068\u3061\u3087\u3068]
p1761
g670
sg1621
g1430
sg75
g919
sV[\u52fe\u642d\u62db\u8058]
p1762
g768
sV[\u53f2\u83b1\u59c6\u7684\u91ce\u671b]
p1763
g257
sg87
g1158
sg103
g1536
ssg85
(dp1764
g11
g155
sg13
g202
sV[\u5f00\u62d3\u91d1\u5b57\u5854\u738b\u56fd]
p1765
g236
sg27
g333
sV[\u997f\u4e86\u4e48]
p1766
g374
sg1599
g424
sV[\u52fe\u642d\u62db\u8058]
p1767
g771
sg77
g945
sV[\u6bb5\u5b50\u624b]
p1768
g558
sV[\u673a\u5668\u4eba\u5c0f\u961f]
p1769
g130
sg1056
g634
sV[OTTTD]
p1770
g522
sV[Unmechanical]
p1771
g708
sVQQ\u5b89\u5168\u4e2d\u5fc3
p1772
g306
sg69
g852
sV[SmartAir]
p1773
g460
sV[\u7a7a\u6c14\u51c0\u5316\u5668]
p1774
g905
sg83
g1018
sg87
g1142
sg89
g1194
sVQQ
p1775
g1281
sV[5253]
p1776
g1333
sg97
g1433
sg107
g1575
sg101
g1475
sg161
g1569
sg103
g1539
ssg87
(dp1777
g227
g152
sg246
g204
sV[\u5f00\u62d3\u91d1\u5b57\u5854\u738b\u56fd]
p1778
g233
sV[\u53f2\u83b1\u59c6\u7684\u91ce\u671b]
p1779
g261
sV[\u997f\u4e86\u4e48]
p1780
g378
sV[\u5e94\u7528\u5b9d]
p1781
g497
sV[\u3061\u3087\u3068\u3061\u3087\u3068]
p1782
g674
sg77
g947
sg101
g1477
sg1602
g583
sV[\u673a\u5668\u4eba\u5c0f\u961f]
p1783
g132
sV[OTTTD]
p1784
g519
sV[Unmechanical]
p1785
g705
sg61
g729
sV[\u52fe\u642d\u62db\u8058]
p1786
g773
sg69
g854
sV[SmartAir]
p1787
g464
sV[\u7a7a\u6c14\u51c0\u5316\u5668]
p1788
g909
sg83
g1020
sV[\u5fae\u4fe1\u7535\u8bdd\u672c]
p1789
g1079
sVQQ
p1790
g1283
sV[5253]
p1791
g1337
sV[\u6b22\u4e50\u897f\u6e38]
p1792
g1356
sg1153
g1435
sg103
g1541
ssg89
(dp1793
g1645
g1285
sg67
g792
sg13
g206
sg1647
g595
sg406
g1437
sVQQ\u90ae\u7bb1
p1794
g639
sg161
g1571
sV[\u5fae\u4fe1\u7535\u8bdd\u672c]
p1795
g1081
sV[\u997f\u4e86\u4e48]
p1796
g380
sg1599
g431
sg103
g1543
ssg91
(dp1797
g11
g141
sg13
g209
sV[\u5f00\u62d3\u91d1\u5b57\u5854\u738b\u56fd]
p1798
g222
sV[\u5fae\u4fe1\u7535\u8bdd\u672c]
p1799
g1084
sg67
g781
sg25
g313
sg27
g339
sV[\u5929\u5929\u98ce\u4e4b\u65c5]
p1800
g349
sV[\u997f\u4e86\u4e48]
p1801
g361
sg33
g386
sg35
g389
sV[SmartAir]
p1802
g436
sV[\u5e94\u7528\u5b9d]
p1803
g469
sg77
g926
sV[\u6bb5\u5b50\u624b]
p1804
g536
sg47
g566
sV[\u673a\u5668\u4eba\u5c0f\u961f]
p1805
g115
sg51
g616
sg53
g648
sV[OTTTD]
p1806
g504
sV[5253]
p1807
g1305
sg57
g682
sV[Unmechanical]
p1808
g691
sg61
g719
sg63
g741
sV[\u52fe\u642d\u62db\u8058]
p1809
g754
sg23
g292
sg69
g856
sV[\u4fbf\u7b7e]
p1810
g872
sV[\u770b\u5ba2\u4e70\u7968]
p1811
g600
sg79
g953
sg83
g1022
sV[Sensor Log]
p1812
g265
sg87
g1145
sg89
g1161
sV[\u7a7a\u6c14\u51c0\u5316\u5668]
p1813
g885
sV[\u6b22\u4e50\u897f\u6e38]
p1814
g1344
sg97
g1440
sV[\u5e94\u7528\u5546\u5e97]
p1815
g1454
sg101
g1460
sg161
g1556
sg103
g1545
ssg93
(dp1816
g1619
g1255
sV[\u52fe\u642d\u62db\u8058]
p1817
g757
sg77
g929
sg69
g837
sg101
g1463
sg1621
g1409
sV[\u673a\u5668\u4eba\u5c0f\u961f]
p1818
g119
sg83
g1025
sg87
g1148
sg103
g1519
ssg95
(dp1819
g1640
g1291
sg1643
g1446
sg87
g1151
sg1602
g578
sV[\u5e94\u7528\u5b9d]
p1820
g484
ssg97
(dp1821
g11
g150
sg13
g215
sV[\u5f00\u62d3\u91d1\u5b57\u5854\u738b\u56fd]
p1822
g231
sV[\u53f2\u83b1\u59c6\u7684\u91ce\u671b]
p1823
g252
sV[\u5fae\u4fe1\u7535\u8bdd\u672c]
p1824
g1089
sg67
g787
sg25
g325
sg27
g336
sV[\u5929\u5929\u98ce\u4e4b\u65c5]
p1825
g352
sV[\u997f\u4e86\u4e48]
p1826
g371
sg1599
g407
sV[\u5e94\u7528\u5b9d]
p1827
g487
sV[OTTTD]
p1828
g517
sg77
g937
sV[\u6bb5\u5b50\u624b]
p1829
g553
sg47
g581
sg51
g629
sV[\u3061\u3087\u3068\u3061\u3087\u3068]
p1830
g665
sV[5253]
p1831
g1320
sV[Unmechanical]
p1832
g703
sg61
g727
sg63
g743
sVQQ\u5b89\u5168\u4e2d\u5fc3
p1833
g297
sg69
g861
sV[SmartAir]
p1834
g449
sV[\u770b\u5ba2\u4e70\u7968]
p1835
g607
sg79
g968
sg83
g1027
sV[Sensor Log]
p1836
g276
sg87
g1154
sg89
g1179
sg1775
g1293
sV[\u7a7a\u6c14\u51c0\u5316\u5668]
p1837
g900
sV[\u6b22\u4e50\u897f\u6e38]
p1838
g1351
sV[\u5e94\u7528\u5546\u5e97]
p1839
g1457
sg105
g1561
sg103
g1550
ssg99
(dp1840
VQQ
p1841
g1296
sg69
g864
sV[SmartAir]
p1842
g455
sV[\u5fae\u4fe1\u7535\u8bdd\u672c]
p1843
g1092
sg89
g1187
sVWPS Office
p1844
g417
sg103
g1553
ssg101
(dp1845
g1581
g1241
sV[\u52fe\u642d\u62db\u8058]
p1846
g763
sg77
g934
sg69
g822
sV[5253]
p1847
g1314
sV[\u673a\u5668\u4eba\u5c0f\u961f]
p1848
g125
sg83
g980
sg87
g1119
ssg103
(dp1849
g13
g217
sV[\u5f00\u62d3\u91d1\u5b57\u5854\u738b\u56fd]
p1850
g243
sV[Sensor Log]
p1851
g288
sg25
g327
sV[\u997f\u4e86\u4e48]
p1852
g382
sg35
g433
sV[\u5e94\u7528\u5b9d]
p1853
g501
sV[OTTTD]
p1854
g532
sV[\u6bb5\u5b50\u624b]
p1855
g562
sg47
g597
sg51
g644
sV[\u3061\u3087\u3068\u3061\u3087\u3068]
p1856
g679
sV[5253]
p1857
g1341
sg57
g688
sV[Unmechanical]
p1858
g715
sg67
g794
sg69
g868
sV[SmartAir]
p1859
g466
sV[\u770b\u5ba2\u4e70\u7968]
p1860
g611
sg83
g1029
sV[\u5fae\u4fe1\u7535\u8bdd\u672c]
p1861
g1096
sg87
g1156
sg89
g1204
sg565
g1302
sV[\u7a7a\u6c14\u51c0\u5316\u5668]
p1862
g907
sg580
g1450
ssg105
(dp1863
g1635
g1300
sg1636
g162
sg1637
g1448
sg27
g342
sV[\u5fae\u4fe1\u7535\u8bdd\u672c]
p1864
g1094
sg89
g1202
ssg107
(dp1865
g1581
g1298
sV[\u52fe\u642d\u62db\u8058]
p1866
g777
sg77
g942
sg69
g866
sg101
g1472
sV[5253]
p1867
g1328
sV[\u673a\u5668\u4eba\u5c0f\u961f]
p1868
g137
sg83
g1015
sV[\u5fae\u4fe1\u7535\u8bdd\u672c]
p1869
g1077
sg87
g1139
sg134
g419
sssS'adj'
p1870
g112
sb.