ccopy_reg
_reconstructor
p1
(cnetworkx.classes.digraph
DiGraph
p2
c__builtin__
object
p3
NtRp4
(dp5
S'node'
p6
(dp7
VCalculator.apk
p8
(dp9
S'weight'
p10
F0
ssV\u7f8e\u56e2\u56e2\u8d2d
p11
(dp12
g10
F0
ssVTaskManager.apk
p13
(dp14
g10
F0.01
ssV[360\u514d\u8d39WiFi]
p15
(dp16
g10
F0.01
ssVSoundRecorder.apk
p17
(dp18
g10
F0.02
ssV\u66b4\u98ce\u5f71\u97f3
p19
(dp20
g10
F0.01
ssV[Sina Weather Widget Main]
p21
(dp22
g10
F0.01
ssV[Samsung Apps]
p23
(dp24
g10
F0.01
ssVQQ\u6d4f\u89c8\u5668
p25
(dp26
g10
F0.050000000000000003
ssV[360\u624b\u673a\u52a9\u624b]
p27
(dp28
g10
F0.029999999999999999
ssVContacts.apk
p29
(dp30
g10
F0.050000000000000003
ssVFileManager.apk
p31
(dp32
g10
F0.089999999999999997
ssV[WeSync]
p33
(dp34
g10
F0
ssV\u5fae\u535a
p35
(dp36
g10
F0.01
ssVClock.apk
p37
(dp38
g10
F0.11
ssVMms.apk
p39
(dp40
g10
F0.13
ssV[Sensor Log]
p41
(dp42
g10
F0.01
ssV\u4e2d\u56fd\u5efa\u8bbe\u94f6\u884c
p43
(dp44
g10
F0
ssVPhone.apk
p45
(dp46
g10
F0.14999999999999999
ssV[S Planner]
p47
(dp48
g10
F0.01
ssV[Music Hub]
p49
(dp50
g10
F0
ssV\u5fae\u4fe1
p51
(dp52
g10
F0.13
ssV360\u624b\u673a\u536b\u58eb
p53
(dp54
g10
F0
ssVQQ\u56fd\u9645\u7248
p55
(dp56
g10
F0.13
ssVCamera.apk
p57
(dp58
g10
F0.01
ssVEmail.apk
p59
(dp60
g10
F0
ssVSettings.apk
p61
(dp62
g10
F0.01
sssS'graph'
p63
(dp64
sS'succ'
p65
(dp66
g8
(dp67
V[Samsung Apps]
p68
(dp69
S'weights'
p70
(lp71
I0
aI0
aI0
aI0
aI0
aI0
aF0.27000000000000002
assV[360\u624b\u673a\u52a9\u624b]
p72
(dp73
g70
(lp74
I0
aI0
aI0
aI0
aI0
aI0
aF0.17999999999999999
asssg11
(dp75
g51
(dp76
g70
(lp77
I0
aI0
aI0
aI0
aI0
aI0
aF0.28000000000000003
asssg13
(dp78
g55
(dp79
g70
(lp80
I0
aI0
aI0
aI0
aI0
aI0
aF0.27000000000000002
assg45
(dp81
g70
(lp82
I0
aI0
aI0
aI0
aI0
aI0
aF-0.10000000000000001
assg39
(dp83
g70
(lp84
I0
aI0
aI0
aI0
aI0
aI0
aF0.27000000000000002
assg51
(dp85
g70
(lp86
I0
aI0
aI0
aI0
aI0
aI0
aF0.25
asssg15
(dp87
g35
(dp88
g70
(lp89
I0
aI0
aI0
aI0
aI0
aI0
aF0.17999999999999999
assV[360\u624b\u673a\u52a9\u624b]
p90
(dp91
g70
(lp92
I0
aI0
aI0
aI0
aI0
aI0
aF0.23999999999999999
asssg17
(dp93
g51
(dp94
g70
(lp95
I0
aI0
aI0
aI0
aI0
aI0
aF-0.17999999999999999
assV[WeSync]
p96
(dp97
g70
(lp98
I0
aI0
aI0
aI0
aI0
aI0
aF0.19
assg55
(dp99
g70
(lp100
I0
aI0
aI0
aI0
aI0
aI0
aF-0.20000000000000001
assg35
(dp101
g70
(lp102
I0
aI0
aI0
aI0
aI0
aI0
aF-0.68999999999999995
assg39
(dp103
g70
(lp104
I0
aI0
aI0
aI0
aI0
aI0
aF0.20000000000000001
assV[Sensor Log]
p105
(dp106
g70
(lp107
I0
aI0
aI0
aI0
aI0
aI0
aF-1.2
assg45
(dp108
g70
(lp109
I0
aI0
aI0
aI0
aI0
aI0
aF-1.0900000000000001
asssg19
(dp110
g45
(dp111
g70
(lp112
I0
aI0
aI0
aI0
aI0
aI0
aF0.23000000000000001
asssg21
(dp113
g45
(dp114
g70
(lp115
I0
aI0
aI0
aI0
aI0
aI0
aF0.22
assg39
(dp116
g70
(lp117
I0
aI0
aI0
aI0
aI0
aI0
aF0.23999999999999999
asssg23
(dp118
V[360\u624b\u673a\u52a9\u624b]
p119
(dp120
g70
(lp121
I0
aI0
aI0
aI0
aI0
aI0
aF0.17999999999999999
asssg25
(dp122
g55
(dp123
g70
(lp124
I0
aI0
aI0
aI0
aI0
aI0
aF0.25
assg31
(dp125
g70
(lp126
I0
aI0
aI0
aI0
aI0
aI0
aF0.27000000000000002
assg45
(dp127
g70
(lp128
I0
aI0
aI0
aI0
aI0
aI0
aF0.070000000000000007
assg29
(dp129
g70
(lp130
I0
aI0
aI0
aI0
aI0
aI0
aF0.080000000000000002
asssg27
(dp131
g51
(dp132
g70
(lp133
I0
aI0
aI0
aI0
aI0
aI0
aF0.25
assg35
(dp134
g70
(lp135
I0
aI0
aI0
aI0
aI0
aI0
aF0.20999999999999999
assg31
(dp136
g70
(lp137
I0
aI0
aI0
aI0
aI0
aI0
aF0.27000000000000002
asssg29
(dp138
g51
(dp139
g70
(lp140
I0
aI0
aI0
aI0
aI0
aI0
aF0.19
assV[Sina Weather Widget Main]
p141
(dp142
g70
(lp143
I0
aI0
aI0
aI0
aI0
aI0
aF0.27000000000000002
assg45
(dp144
g70
(lp145
I0
aI0
aI0
aI0
aI0
aI0
aF0.12
asssg31
(dp146
g25
(dp147
g70
(lp148
I0
aI0
aI0
aI0
aI0
aI0
aF0.27000000000000002
assg45
(dp149
g70
(lp150
I0
aI0
aI0
aI0
aI0
aI0
aF0.059999999999999998
assg29
(dp151
g70
(lp152
I0
aI0
aI0
aI0
aI0
aI0
aF0.11
asssg33
(dp153
g17
(dp154
g70
(lp155
I0
aI0
aI0
aI0
aI0
aI0
aF0.27000000000000002
assg51
(dp156
g70
(lp157
I0
aI0
aI0
aI0
aI0
aI0
aF-0.089999999999999997
assg55
(dp158
g70
(lp159
I0
aI0
aI0
aI0
aI0
aI0
aF-0.12
assg35
(dp160
g70
(lp161
I0
aI0
aI0
aI0
aI0
aI0
aF-0.59999999999999998
assg39
(dp162
g70
(lp163
I0
aI0
aI0
aI0
aI0
aI0
aF0.26000000000000001
assV[Sensor Log]
p164
(dp165
g70
(lp166
I0
aI0
aI0
aI0
aI0
aI0
aF-1.1100000000000001
assg45
(dp167
g70
(lp168
I0
aI0
aI0
aI0
aI0
aI0
aF-1.01
asssg35
(dp169
V[Sensor Log]
p170
(dp171
g70
(lp172
I0
aI0
aI0
aI0
aI0
aI0
aF-0.23999999999999999
assg51
(dp173
g70
(lp174
I0
aI0
aI0
aI0
aI0
aI0
aF0.27000000000000002
assg45
(dp175
g70
(lp176
I0
aI0
aI0
aI0
aI0
aI0
aF-0.13
assV[360\u624b\u673a\u52a9\u624b]
p177
(dp178
g70
(lp179
I0
aI0
aI0
aI0
aI0
aI0
aF0.27000000000000002
assg55
(dp180
g70
(lp181
I0
aI0
aI0
aI0
aI0
aI0
aF-0.17000000000000001
asssg37
(dp182
g51
(dp183
g70
(lp184
I0
aI0
aI0
aI0
aI0
aI0
aF0.27000000000000002
assg45
(dp185
g70
(lp186
I0
aI0
aI0
aI0
aI0
aI0
aF0.080000000000000002
assg39
(dp187
g70
(lp188
I0
aI0
aI0
aI0
aI0
aI0
aF0.10000000000000001
assg55
(dp189
g70
(lp190
I0
aI0
aI0
aI0
aI0
aI0
aF0.27000000000000002
asssg39
(dp191
g31
(dp192
g70
(lp193
I0
aI0
aI0
aI0
aI0
aI0
aF0.23000000000000001
assg51
(dp194
g70
(lp195
I0
aI0
aI0
aI0
aI0
aI0
aF-0.11
assV[Sina Weather Widget Main]
p196
(dp197
g70
(lp198
I0
aI0
aI0
aI0
aI0
aI0
aF0.10000000000000001
assV[WeSync]
p199
(dp200
g70
(lp201
I0
aI0
aI0
aI0
aI0
aI0
aF0.26000000000000001
assg55
(dp202
g70
(lp203
I0
aI0
aI0
aI0
aI0
aI0
aF0.26000000000000001
assg35
(dp204
g70
(lp205
I0
aI0
aI0
aI0
aI0
aI0
aF-0.62
assg57
(dp206
g70
(lp207
I0
aI0
aI0
aI0
aI0
aI0
aF0.23000000000000001
assg25
(dp208
g70
(lp209
I0
aI0
aI0
aI0
aI0
aI0
aF0.23000000000000001
assg17
(dp210
g70
(lp211
I0
aI0
aI0
aI0
aI0
aI0
aF0.26000000000000001
assV[Sensor Log]
p212
(dp213
g70
(lp214
I0
aI0
aI0
aI0
aI0
aI0
aF-1.1299999999999999
assg45
(dp215
g70
(lp216
I0
aI0
aI0
aI0
aI0
aI0
aF0.26000000000000001
asssg41
(dp217
g55
(dp218
g70
(lp219
I0
aI0
aI0
aI0
aI0
aI0
aF0.27000000000000002
assV[360\u624b\u673a\u52a9\u624b]
p220
(dp221
g70
(lp222
I0
aI0
aI0
aI0
aI0
aI0
aF0.27000000000000002
asssg43
(dp223
g37
(dp224
g70
(lp225
I0
aI0
aI0
aI0
aI0
aI0
aF0.27000000000000002
asssg45
(dp226
V\u66b4\u98ce\u5f71\u97f3
p227
(dp228
g70
(lp229
I0
aI0
aI0
aI0
aI0
aI0
aF0.14999999999999999
assg13
(dp230
g70
(lp231
I0
aI0
aI0
aI0
aI0
aI0
aF0.27000000000000002
assg31
(dp232
g70
(lp233
I0
aI0
aI0
aI0
aI0
aI0
aF0.22
assg51
(dp234
g70
(lp235
I0
aI0
aI0
aI0
aI0
aI0
aF0.25
assg57
(dp236
g70
(lp237
I0
aI0
aI0
aI0
aI0
aI0
aF0.23000000000000001
assg55
(dp238
g70
(lp239
I0
aI0
aI0
aI0
aI0
aI0
aF0.26000000000000001
assg37
(dp240
g70
(lp241
I0
aI0
aI0
aI0
aI0
aI0
aF0.27000000000000002
assg25
(dp242
g70
(lp243
I0
aI0
aI0
aI0
aI0
aI0
aF0.25
assg39
(dp244
g70
(lp245
I0
aI0
aI0
aI0
aI0
aI0
aF0.27000000000000002
assV[Sensor Log]
p246
(dp247
g70
(lp248
I0
aI0
aI0
aI0
aI0
aI0
aF0.17000000000000001
assg61
(dp249
g70
(lp250
I0
aI0
aI0
aI0
aI0
aI0
aF0.20000000000000001
assg29
(dp251
g70
(lp252
I0
aI0
aI0
aI0
aI0
aI0
aF0.059999999999999998
asssg47
(dp253
sg49
(dp254
g51
(dp255
g70
(lp256
I0
aI0
aI0
aI0
aI0
aI0
aF0.14999999999999999
assV[360\u624b\u673a\u52a9\u624b]
p257
(dp258
g70
(lp259
I0
aI0
aI0
aI0
aI0
aI0
aF0.27000000000000002
asssg51
(dp260
g227
(dp261
g70
(lp262
I0
aI0
aI0
aI0
aI0
aI0
aF0.20999999999999999
assg31
(dp263
g70
(lp264
I0
aI0
aI0
aI0
aI0
aI0
aF0.080000000000000002
assg57
(dp265
g70
(lp266
I0
aI0
aI0
aI0
aI0
aI0
aF0.089999999999999997
assV[360\u624b\u673a\u52a9\u624b]
p267
(dp268
g70
(lp269
I0
aI0
aI0
aI0
aI0
aI0
aF0.029999999999999999
assg55
(dp270
g70
(lp271
I0
aI0
aI0
aI0
aI0
aI0
aF0.25
assg35
(dp272
g70
(lp273
I0
aI0
aI0
aI0
aI0
aI0
aF-0.23000000000000001
assg37
(dp274
g70
(lp275
I0
aI0
aI0
aI0
aI0
aI0
aF0.029999999999999999
assg17
(dp276
g70
(lp277
I0
aI0
aI0
aI0
aI0
aI0
aF0.02
assV[Sensor Log]
p278
(dp279
g70
(lp280
I0
aI0
aI0
aI0
aI0
aI0
aF-0.73999999999999999
assg61
(dp281
g70
(lp282
I0
aI0
aI0
aI0
aI0
aI0
aF0.26000000000000001
assg45
(dp283
g70
(lp284
I0
aI0
aI0
aI0
aI0
aI0
aF-0.64000000000000001
assg29
(dp285
g70
(lp286
I0
aI0
aI0
aI0
aI0
aI0
aF0.080000000000000002
asssg53
(dp287
sg55
(dp288
g39
(dp289
g70
(lp290
I0
aI0
aI0
aI0
aI0
aI0
aF0.10000000000000001
assg51
(dp291
g70
(lp292
I0
aI0
aI0
aI0
aI0
aI0
aF0.20000000000000001
assV[Sina Weather Widget Main]
p293
(dp294
g70
(lp295
I0
aI0
aI0
aI0
aI0
aI0
aF-0.080000000000000002
assg37
(dp296
g70
(lp297
I0
aI0
aI0
aI0
aI0
aI0
aF0.23000000000000001
assV[360\u624b\u673a\u52a9\u624b]
p298
(dp299
g70
(lp300
I0
aI0
aI0
aI0
aI0
aI0
aF-0.14999999999999999
assg35
(dp301
g70
(lp302
I0
aI0
aI0
aI0
aI0
aI0
aF-0.20999999999999999
assg57
(dp303
g70
(lp304
I0
aI0
aI0
aI0
aI0
aI0
aF0.23999999999999999
assg25
(dp305
g70
(lp306
I0
aI0
aI0
aI0
aI0
aI0
aF0.20000000000000001
assg17
(dp307
g70
(lp308
I0
aI0
aI0
aI0
aI0
aI0
aF0.040000000000000001
assV[Sensor Log]
p309
(dp310
g70
(lp311
I0
aI0
aI0
aI0
aI0
aI0
aF-0.71999999999999997
assg29
(dp312
g70
(lp313
I0
aI0
aI0
aI0
aI0
aI0
aF0.089999999999999997
assg45
(dp314
g70
(lp315
I0
aI0
aI0
aI0
aI0
aI0
aF-0.62
assg61
(dp316
g70
(lp317
I0
aI0
aI0
aI0
aI0
aI0
aF0.040000000000000001
asssg57
(dp318
g55
(dp319
g70
(lp320
I0
aI0
aI0
aI0
aI0
aI0
aF0.27000000000000002
assg31
(dp321
g70
(lp322
I0
aI0
aI0
aI0
aI0
aI0
aF0.26000000000000001
asssg59
(dp323
g51
(dp324
g70
(lp325
I0
aI0
aI0
aI0
aI0
aI0
aF0.25
asssg61
(dp326
g227
(dp327
g70
(lp328
I0
aI0
aI0
aI0
aI0
aI0
aF0.22
assssS'edge'
p329
g66
sS'pred'
p330
(dp331
g8
(dp332
sg11
(dp333
sg13
(dp334
g45
g230
ssg15
(dp335
sg17
(dp336
g51
g276
sg55
g307
sg39
g210
sV[WeSync]
p337
g154
ssg19
(dp338
g51
g261
sg45
g228
sg61
g327
ssg21
(dp339
g55
g294
sg39
g197
sg29
g142
ssg23
(dp340
g8
g69
ssg25
(dp341
g55
g305
sg31
g147
sg45
g242
sg39
g208
ssg27
(dp342
V[Music Hub]
p343
g258
sV[360\u514d\u8d39WiFi]
p344
g91
sg51
g268
sg35
g178
sg55
g299
sV[Samsung Apps]
p345
g120
sg8
g73
sV[Sensor Log]
p346
g221
ssg29
(dp347
g31
g151
sg51
g285
sg25
g129
sg45
g251
sg55
g312
ssg31
(dp348
g51
g263
sg45
g232
sg57
g321
sg25
g125
sg39
g192
sV[360\u624b\u673a\u52a9\u624b]
p349
g136
ssg33
(dp350
g39
g200
sg17
g97
ssg35
(dp351
g17
g101
sV[360\u514d\u8d39WiFi]
p352
g88
sg51
g272
sV[WeSync]
p353
g160
sg55
g301
sg39
g204
sV[360\u624b\u673a\u52a9\u624b]
p354
g134
ssg37
(dp355
g51
g274
sg43
g224
sg45
g240
sg55
g296
ssg39
(dp356
V[Sina Weather Widget Main]
p357
g116
sg13
g83
sV[WeSync]
p358
g162
sg55
g289
sg37
g187
sg17
g103
sg45
g244
ssg41
(dp359
g17
g106
sg51
g279
sV[WeSync]
p360
g165
sg55
g310
sg35
g171
sg39
g213
sg45
g247
ssg43
(dp361
sg45
(dp362
g19
g111
sg31
g149
sg39
g215
sg51
g283
sV[Sina Weather Widget Main]
p363
g114
sg13
g81
sV[WeSync]
p364
g167
sg55
g314
sg35
g175
sg37
g185
sg25
g127
sg17
g108
sg29
g144
ssg47
(dp365
sg49
(dp366
sg51
(dp367
V[Music Hub]
p368
g255
sg17
g94
sg11
g76
sg13
g85
sV[WeSync]
p369
g156
sg55
g291
sg35
g173
sg37
g183
sg39
g194
sg59
g324
sg45
g234
sV[360\u624b\u673a\u52a9\u624b]
p370
g132
sg29
g139
ssg53
(dp371
sg55
(dp372
g39
g202
sg51
g270
sg13
g79
sg37
g189
sV[WeSync]
p373
g158
sg35
g180
sg57
g319
sg25
g123
sg17
g99
sV[Sensor Log]
p374
g218
sg45
g238
ssg57
(dp375
g55
g303
sg45
g236
sg39
g206
sg51
g265
ssg59
(dp376
sg61
(dp377
g55
g316
sg45
g249
sg51
g281
sssS'adj'
p378
g66
sb.