ccopy_reg
_reconstructor
p1
(cnetworkx.classes.digraph
DiGraph
p2
c__builtin__
object
p3
NtRp4
(dp5
S'node'
p6
(dp7
VQQ
p8
(dp9
S'weight'
p10
F0.32000000000000001
ssV[360\u536b\u58eb]
p11
(dp12
g10
F0.25
ssV\u5fae\u4fe1
p13
(dp14
g10
F0.050000000000000003
ssV\u54d4\u54e9\u54d4\u54e9\u52a8\u753b
p15
(dp16
g10
F0.01
ssVNotice.apk
p17
(dp18
g10
F0.029999999999999999
ssV[\u56fd\u9645\u65af\u8bfa\u514b]
p19
(dp20
g10
F0.040000000000000001
ssV\u519b\u68cb
p21
(dp22
g10
F0.17999999999999999
ssV\u9177\u72d7\u97f3\u4e50
p23
(dp24
g10
F0.059999999999999998
ssV[360\u624b\u673a\u52a9\u624b]
p25
(dp26
g10
F0.070000000000000007
sssS'graph'
p27
(dp28
sS'succ'
p29
(dp30
g8
(dp31
V[360\u536b\u58eb]
p32
(dp33
S'weights'
p34
(lp35
I0
aI0
aI0
aI0
aI0
aI0
aF0.8860931601595794
assg13
(dp36
g34
(lp37
I0
aI0
aI0
aI0
aI0
aI0
aF0.45373869507762149
assV[\u56fd\u9645\u65af\u8bfa\u514b]
p38
(dp39
g34
(lp40
I0
aI0
aI0
aI0
aI0
aI0
aF0.45541629980950632
assV\u519b\u68cb
p41
(dp42
g34
(lp43
I0
aI0
aI0
aI0
aI0
aI0
aF0.71328307224850707
assV\u9177\u72d7\u97f3\u4e50
p44
(dp45
g34
(lp46
I0
aI0
aI0
aI0
aI0
aI0
aF0.36808422281416653
assV[360\u624b\u673a\u52a9\u624b]
p47
(dp48
g34
(lp49
I0
aI0
aI0
aI0
aI0
aI0
aF0.66390043035357393
asssg11
(dp50
VQQ
p51
(dp52
g34
(lp53
I0
aI0
aI0
aI0
aI0
aI0
aF1
assV\u5fae\u4fe1
p54
(dp55
g34
(lp56
I0
aI0
aI0
aI0
aI0
aI0
aF0.012228589036825893
assV[\u56fd\u9645\u65af\u8bfa\u514b]
p57
(dp58
g34
(lp59
I0
aI0
aI0
aI0
aI0
aI0
aF0.26227933858396257
assV\u519b\u68cb
p60
(dp61
g34
(lp62
I0
aI0
aI0
aI0
aI0
aI0
aF0.85912334861507533
assg44
(dp63
g34
(lp64
I0
aI0
aI0
aI0
aI0
aI0
aF0.48871041741430649
assV[360\u624b\u673a\u52a9\u624b]
p65
(dp66
g34
(lp67
I0
aI0
aI0
aI0
aI0
aI0
aF0.85527151369372167
asssg13
(dp68
V[360\u536b\u58eb]
p69
(dp70
g34
(lp71
I0
aI0
aI0
aI0
aI0
aI0
aF0.71414587371267568
asssg15
(dp72
VQQ
p73
(dp74
g34
(lp75
I0
aI0
aI0
aI0
aI0
aI0
aF0.063038074614462272
asssg17
(dp76
sg19
(dp77
g17
(dp78
g34
(lp79
I0
aI0
aI0
aI0
aI0
aI0
aF0.019149927217386026
asssg21
(dp80
VQQ
p81
(dp82
g34
(lp83
I0
aI0
aI0
aI0
aI0
aI0
aF0.49251062981462745
assV\u5fae\u4fe1
p84
(dp85
g34
(lp86
I0
aI0
aI0
aI0
aI0
aI0
aF0.0324534475825815
assV[360\u536b\u58eb]
p87
(dp88
g34
(lp89
I0
aI0
aI0
aI0
aI0
aI0
aF0.32930323096052982
assV[360\u624b\u673a\u52a9\u624b]
p90
(dp91
g34
(lp92
I0
aI0
aI0
aI0
aI0
aI0
aF0.3863802139986342
assV[\u56fd\u9645\u65af\u8bfa\u514b]
p93
(dp94
g34
(lp95
I0
aI0
aI0
aI0
aI0
aI0
aF0.54242429831863115
asssg23
(dp96
VQQ
p97
(dp98
g34
(lp99
I0
aI0
aI0
aI0
aI0
aI0
aF0.71618853461156684
assg60
(dp100
g34
(lp101
I0
aI0
aI0
aI0
aI0
aI0
aF0.55209658272980844
assV[360\u536b\u58eb]
p102
(dp103
g34
(lp104
I0
aI0
aI0
aI0
aI0
aI0
aF0.70100163243177638
assV[\u56fd\u9645\u65af\u8bfa\u514b]
p105
(dp106
g34
(lp107
I0
aI0
aI0
aI0
aI0
aI0
aF0.0058758184818017483
asssg25
(dp108
VQQ
p109
(dp110
g34
(lp111
I0
aI0
aI0
aI0
aI0
aI0
aF0.21093177426981594
assg17
(dp112
g34
(lp113
I0
aI0
aI0
aI0
aI0
aI0
aF0.036595574553346603
assssS'edge'
p114
g30
sS'pred'
p115
(dp116
g8
(dp117
g21
g82
sV\u9177\u72d7\u97f3\u4e50
p118
g98
sV[360\u536b\u58eb]
p119
g52
sg15
g74
sV[360\u624b\u673a\u52a9\u624b]
p120
g110
ssg11
(dp121
VQQ
p122
g33
sg13
g70
sg118
g103
sV\u519b\u68cb
p123
g88
ssg13
(dp124
VQQ
p125
g36
sV\u519b\u68cb
p126
g85
sV[360\u536b\u58eb]
p127
g55
ssg15
(dp128
sg17
(dp129
V[\u56fd\u9645\u65af\u8bfa\u514b]
p130
g78
sV[360\u624b\u673a\u52a9\u624b]
p131
g112
ssg19
(dp132
VQQ
p133
g39
sg60
g94
sg118
g106
sV[360\u536b\u58eb]
p134
g58
ssg21
(dp135
VQQ
p136
g42
sg118
g100
sV[360\u536b\u58eb]
p137
g61
ssg23
(dp138
VQQ
p139
g45
sV[360\u536b\u58eb]
p140
g63
ssg25
(dp141
g8
g48
sV\u519b\u68cb
p142
g91
sV[360\u536b\u58eb]
p143
g66
sssS'adj'
p144
g30
sb.