ccopy_reg
_reconstructor
p1
(cnetworkx.classes.graph
Graph
p2
c__builtin__
object
p3
NtRp4
(dp5
S'node'
p6
(dp7
V91\u684c\u9762
p8
(dp9
sV\u65b0\u6d6a\u4f53\u80b2
p10
(dp11
sV\u767e\u5ea6\u97f3\u4e50
p12
(dp13
sV\u5fae\u4fe1
p14
(dp15
sV\u4e09\u661f\u624b\u7535\u7b52
p16
(dp17
sV360\u536b\u58eb
p18
(dp19
sVYouni\u77ed\u4fe1
p20
(dp21
sV\u767e\u5ea6
p22
(dp23
ssS'graph'
p24
(dp25
sS'edge'
p26
(dp27
g8
(dp28
g12
(dp29
S'weights'
p30
(lp31
I0
aI0
aI0
aI0
aI0
aI0
aI1
assV\u65b0\u6d6a\u4f53\u80b2
p32
(dp33
g30
(lp34
I0
aI0
aI0
aI0
aI0
aI0
aI3
assg14
(dp35
g30
(lp36
I0
aI0
aI0
aI0
aI0
aI0
aI32
assg16
(dp37
g30
(lp38
I0
aI0
aI0
aI0
aI0
aI0
aI1
assg18
(dp39
g30
(lp40
I0
aI0
aI0
aI0
aI0
aI0
aI6
assg20
(dp41
g30
(lp42
I0
aI0
aI0
aI0
aI0
aI0
aI36
assV\u767e\u5ea6
p43
(dp44
g30
(lp45
I0
aI0
aI0
aI0
aI0
aI0
aI10
asssg10
(dp46
V91\u684c\u9762
p47
g33
sV\u5fae\u4fe1
p48
(dp49
g30
(lp50
I0
aI0
aI0
aI0
aI0
aI0
aI3
assV360\u536b\u58eb
p51
(dp52
g30
(lp53
I0
aI0
aI0
aI0
aI0
aI0
aI1
assVYouni\u77ed\u4fe1
p54
(dp55
g30
(lp56
I0
aI0
aI0
aI0
aI0
aI0
aI3
assV\u767e\u5ea6
p57
(dp58
g30
(lp59
I0
aI0
aI0
aI0
aI0
aI0
aI2
asssg12
(dp60
V91\u684c\u9762
p61
g29
sV\u767e\u5ea6
p62
(dp63
g30
(lp64
I0
aI0
aI0
aI0
aI0
aI0
aI1
asssg14
(dp65
V91\u684c\u9762
p66
g35
sg10
g49
sg16
(dp67
g30
(lp68
I0
aI0
aI0
aI0
aI0
aI0
aI1
assg18
(dp69
g30
(lp70
I0
aI0
aI0
aI0
aI0
aI0
aI5
assg20
(dp71
g30
(lp72
I0
aI0
aI0
aI0
aI0
aI0
aI26
assV\u767e\u5ea6
p73
(dp74
g30
(lp75
I0
aI0
aI0
aI0
aI0
aI0
aI6
asssg16
(dp76
V91\u684c\u9762
p77
g37
sV\u5fae\u4fe1
p78
g67
sVYouni\u77ed\u4fe1
p79
(dp80
g30
(lp81
I0
aI0
aI0
aI0
aI0
aI0
aI1
asssg18
(dp82
V91\u684c\u9762
p83
g39
sV\u5fae\u4fe1
p84
g69
sVYouni\u77ed\u4fe1
p85
(dp86
g30
(lp87
I0
aI0
aI0
aI0
aI0
aI0
aI4
assg57
(dp88
g30
(lp89
I0
aI0
aI0
aI0
aI0
aI0
aI1
assg32
g52
ssg20
(dp90
g66
g41
sg32
g55
sg14
g71
sg16
g80
sg18
g86
sg73
(dp91
g30
(lp92
I0
aI0
aI0
aI0
aI0
aI0
aI7
asssg22
(dp93
V91\u684c\u9762
p94
g44
sg12
g63
sg32
g58
sV\u5fae\u4fe1
p95
g74
sg51
g88
sVYouni\u77ed\u4fe1
p96
g91
sssS'adj'
p97
g27
sb.