ccopy_reg
_reconstructor
p1
(cnetworkx.classes.graph
Graph
p2
c__builtin__
object
p3
NtRp4
(dp5
S'node'
p6
(dp7
VCalculator.apk
p8
(dp9
sV\u652f\u4ed8\u5b9d\u94b1\u5305
p10
(dp11
sVUC\u6d4f\u89c8\u5668
p12
(dp13
sVTaskManager.apk
p14
(dp15
sV\u66b4\u98ce\u5f71\u97f3
p16
(dp17
sVPhoto.apk
p18
(dp19
sVCalendar.apk
p20
(dp21
sV[iReader]
p22
(dp23
sV\u6b22\u4e50\u6597\u5730\u4e3b
p24
(dp25
sVBrowser.apk
p26
(dp27
sV[360\u624b\u673a\u52a9\u624b]
p28
(dp29
sVContacts.apk
p30
(dp31
sV[Polaris Office 4.0]
p32
(dp33
sV\u6709\u9053\u8bcd\u5178
p34
(dp35
sVFileManager.apk
p36
(dp37
sV\u5fae\u535a
p38
(dp39
sVClock.apk
p40
(dp41
sVMms.apk
p42
(dp43
sV[Sensor Log]
p44
(dp45
sVPhone.apk
p46
(dp47
sV\u767e\u5ea6
p48
(dp49
sVQQ
p50
(dp51
sV\u5fae\u4fe1
p52
(dp53
sVNotice.apk
p54
(dp55
sVCamera.apk
p56
(dp57
sVVideo.apk
p58
(dp59
sV\u795e\u5e99\u9003\u4ea1
p60
(dp61
sVSettings.apk
p62
(dp63
ssS'graph'
p64
(dp65
sS'edge'
p66
(dp67
g8
(dp68
g46
(dp69
S'weights'
p70
(lp71
I0
aI0
aI0
aI0
aI0
aI0
aI1
assg42
(dp72
g70
(lp73
I0
aI0
aI0
aI0
aI0
aI0
aI1
asssg10
(dp74
VQQ
p75
(dp76
g70
(lp77
I0
aI0
aI0
aI0
aI0
aI0
aI5
assV\u5fae\u4fe1
p78
(dp79
g70
(lp80
I0
aI0
aI0
aI0
aI0
aI0
aI5
assg54
(dp81
g70
(lp82
I0
aI0
aI0
aI0
aI0
aI0
aI3
assV[360\u624b\u673a\u52a9\u624b]
p83
(dp84
g70
(lp85
I0
aI0
aI0
aI0
aI0
aI0
aI1
assV\u5fae\u535a
p86
(dp87
g70
(lp88
I0
aI0
aI0
aI0
aI0
aI0
aI1
assg56
(dp89
g70
(lp90
I0
aI0
aI0
aI0
aI0
aI0
aI1
assg42
(dp91
g70
(lp92
I0
aI0
aI0
aI0
aI0
aI0
aI2
assg26
(dp93
g70
(lp94
I0
aI0
aI0
aI0
aI0
aI0
aI1
assg46
(dp95
g70
(lp96
I0
aI0
aI0
aI0
aI0
aI0
aI4
assg48
(dp97
g70
(lp98
I0
aI0
aI0
aI0
aI0
aI0
aI1
assg62
(dp99
g70
(lp100
I0
aI0
aI0
aI0
aI0
aI0
aI4
asssg12
(dp101
VQQ
p102
(dp103
g70
(lp104
I0
aI0
aI0
aI0
aI0
aI0
aI6
assV\u6709\u9053\u8bcd\u5178
p105
(dp106
g70
(lp107
I0
aI0
aI0
aI0
aI0
aI0
aI1
assg36
(dp108
g70
(lp109
I0
aI0
aI0
aI0
aI0
aI0
aI1
assg18
(dp110
g70
(lp111
I0
aI0
aI0
aI0
aI0
aI0
aI3
assV\u5fae\u4fe1
p112
(dp113
g70
(lp114
I0
aI0
aI0
aI0
aI0
aI0
aI6
assg14
(dp115
g70
(lp116
I0
aI0
aI0
aI0
aI0
aI0
aI1
assg54
(dp117
g70
(lp118
I0
aI0
aI0
aI0
aI0
aI0
aI3
assV\u5fae\u535a
p119
(dp120
g70
(lp121
I0
aI0
aI0
aI0
aI0
aI0
aI1
assg40
(dp122
g70
(lp123
I0
aI0
aI0
aI0
aI0
aI0
aI2
assg42
(dp124
g70
(lp125
I0
aI0
aI0
aI0
aI0
aI0
aI3
assg56
(dp126
g70
(lp127
I0
aI0
aI0
aI0
aI0
aI0
aI1
assg46
(dp128
g70
(lp129
I0
aI0
aI0
aI0
aI0
aI0
aI4
assg62
(dp130
g70
(lp131
I0
aI0
aI0
aI0
aI0
aI0
aI3
asssg14
(dp132
VQQ
p133
(dp134
g70
(lp135
I0
aI0
aI0
aI0
aI0
aI0
aI4
assg105
(dp136
g70
(lp137
I0
aI0
aI0
aI0
aI0
aI0
aI1
assg18
(dp138
g70
(lp139
I0
aI0
aI0
aI0
aI0
aI0
aI3
assVUC\u6d4f\u89c8\u5668
p140
g115
sV\u5fae\u4fe1
p141
(dp142
g70
(lp143
I0
aI0
aI0
aI0
aI0
aI0
aI5
assg40
(dp144
g70
(lp145
I0
aI0
aI0
aI0
aI0
aI0
aI2
assg119
(dp146
g70
(lp147
I0
aI0
aI0
aI0
aI0
aI0
aI1
assg56
(dp148
g70
(lp149
I0
aI0
aI0
aI0
aI0
aI0
aI4
assg58
(dp150
g70
(lp151
I0
aI0
aI0
aI0
aI0
aI0
aI1
assg54
(dp152
g70
(lp153
I0
aI0
aI0
aI0
aI0
aI0
aI3
assg42
(dp154
g70
(lp155
I0
aI0
aI0
aI0
aI0
aI0
aI1
assg30
(dp156
g70
(lp157
I0
aI0
aI0
aI0
aI0
aI0
aI1
assg46
(dp158
g70
(lp159
I0
aI0
aI0
aI0
aI0
aI0
aI3
assg62
(dp160
g70
(lp161
I0
aI0
aI0
aI0
aI0
aI0
aI2
asssg16
(dp162
VQQ
p163
(dp164
g70
(lp165
I0
aI0
aI0
aI0
aI0
aI0
aI5
assV\u5fae\u4fe1
p166
(dp167
g70
(lp168
I0
aI0
aI0
aI0
aI0
aI0
aI5
assg54
(dp169
g70
(lp170
I0
aI0
aI0
aI0
aI0
aI0
aI4
assg40
(dp171
g70
(lp172
I0
aI0
aI0
aI0
aI0
aI0
aI4
assg42
(dp173
g70
(lp174
I0
aI0
aI0
aI0
aI0
aI0
aI3
assg30
(dp175
g70
(lp176
I0
aI0
aI0
aI0
aI0
aI0
aI1
assg46
(dp177
g70
(lp178
I0
aI0
aI0
aI0
aI0
aI0
aI1
assg62
(dp179
g70
(lp180
I0
aI0
aI0
aI0
aI0
aI0
aI3
asssg18
(dp181
VQQ
p182
(dp183
g70
(lp184
I0
aI0
aI0
aI0
aI0
aI0
aI25
assg34
(dp185
g70
(lp186
I0
aI0
aI0
aI0
aI0
aI0
aI2
assg36
(dp187
g70
(lp188
I0
aI0
aI0
aI0
aI0
aI0
aI1
assVUC\u6d4f\u89c8\u5668
p189
g110
sV\u5fae\u4fe1
p190
(dp191
g70
(lp192
I0
aI0
aI0
aI0
aI0
aI0
aI27
assg14
g138
sg40
(dp193
g70
(lp194
I0
aI0
aI0
aI0
aI0
aI0
aI8
assg54
(dp195
g70
(lp196
I0
aI0
aI0
aI0
aI0
aI0
aI13
assV[iReader]
p197
(dp198
g70
(lp199
I0
aI0
aI0
aI0
aI0
aI0
aI1
assV\u5fae\u535a
p200
(dp201
g70
(lp202
I0
aI0
aI0
aI0
aI0
aI0
aI2
assg56
(dp203
g70
(lp204
I0
aI0
aI0
aI0
aI0
aI0
aI13
assg58
(dp205
g70
(lp206
I0
aI0
aI0
aI0
aI0
aI0
aI1
assg42
(dp207
g70
(lp208
I0
aI0
aI0
aI0
aI0
aI0
aI10
assg46
(dp209
g70
(lp210
I0
aI0
aI0
aI0
aI0
aI0
aI7
assg62
(dp211
g70
(lp212
I0
aI0
aI0
aI0
aI0
aI0
aI12
asssg20
(dp213
VQQ
p214
(dp215
g70
(lp216
I0
aI0
aI0
aI0
aI0
aI0
aI2
assV\u5fae\u4fe1
p217
(dp218
g70
(lp219
I0
aI0
aI0
aI0
aI0
aI0
aI3
assg54
(dp220
g70
(lp221
I0
aI0
aI0
aI0
aI0
aI0
aI2
assg40
(dp222
g70
(lp223
I0
aI0
aI0
aI0
aI0
aI0
aI1
assg42
(dp224
g70
(lp225
I0
aI0
aI0
aI0
aI0
aI0
aI1
assg46
(dp226
g70
(lp227
I0
aI0
aI0
aI0
aI0
aI0
aI1
assg62
(dp228
g70
(lp229
I0
aI0
aI0
aI0
aI0
aI0
aI1
asssg22
(dp230
VQQ
p231
(dp232
g70
(lp233
I0
aI0
aI0
aI0
aI0
aI0
aI2
assg18
g198
sV\u5fae\u4fe1
p234
(dp235
g70
(lp236
I0
aI0
aI0
aI0
aI0
aI0
aI2
assg54
(dp237
g70
(lp238
I0
aI0
aI0
aI0
aI0
aI0
aI1
assg38
(dp239
g70
(lp240
I0
aI0
aI0
aI0
aI0
aI0
aI1
assg40
(dp241
g70
(lp242
I0
aI0
aI0
aI0
aI0
aI0
aI2
assg46
(dp243
g70
(lp244
I0
aI0
aI0
aI0
aI0
aI0
aI1
asssg24
(dp245
VQQ
p246
(dp247
g70
(lp248
I0
aI0
aI0
aI0
aI0
aI0
aI1
assV\u5fae\u4fe1
p249
(dp250
g70
(lp251
I0
aI0
aI0
aI0
aI0
aI0
aI1
assg60
(dp252
g70
(lp253
I0
aI0
aI0
aI0
aI0
aI0
aI1
assg54
(dp254
g70
(lp255
I0
aI0
aI0
aI0
aI0
aI0
aI1
assg62
(dp256
g70
(lp257
I0
aI0
aI0
aI0
aI0
aI0
aI1
asssg26
(dp258
g75
(dp259
g70
(lp260
I0
aI0
aI0
aI0
aI0
aI0
aI2
assg10
g93
sg78
(dp261
g70
(lp262
I0
aI0
aI0
aI0
aI0
aI0
aI2
assg54
(dp263
g70
(lp264
I0
aI0
aI0
aI0
aI0
aI0
aI1
assg86
(dp265
g70
(lp266
I0
aI0
aI0
aI0
aI0
aI0
aI1
assg56
(dp267
g70
(lp268
I0
aI0
aI0
aI0
aI0
aI0
aI1
assg46
(dp269
g70
(lp270
I0
aI0
aI0
aI0
aI0
aI0
aI1
assV\u767e\u5ea6
p271
(dp272
g70
(lp273
I0
aI0
aI0
aI0
aI0
aI0
aI1
assg62
(dp274
g70
(lp275
I0
aI0
aI0
aI0
aI0
aI0
aI1
asssg28
(dp276
VQQ
p277
(dp278
g70
(lp279
I0
aI0
aI0
aI0
aI0
aI0
aI1
assV\u652f\u4ed8\u5b9d\u94b1\u5305
p280
g84
sV\u5fae\u4fe1
p281
(dp282
g70
(lp283
I0
aI0
aI0
aI0
aI0
aI0
aI1
assg54
(dp284
g70
(lp285
I0
aI0
aI0
aI0
aI0
aI0
aI1
assg42
(dp286
g70
(lp287
I0
aI0
aI0
aI0
aI0
aI0
aI1
assg46
(dp288
g70
(lp289
I0
aI0
aI0
aI0
aI0
aI0
aI1
assg48
(dp290
g70
(lp291
I0
aI0
aI0
aI0
aI0
aI0
aI1
assg62
(dp292
g70
(lp293
I0
aI0
aI0
aI0
aI0
aI0
aI1
asssg30
(dp294
VQQ
p295
(dp296
g70
(lp297
I0
aI0
aI0
aI0
aI0
aI0
aI4
assV\u66b4\u98ce\u5f71\u97f3
p298
g175
sV\u5fae\u4fe1
p299
(dp300
g70
(lp301
I0
aI0
aI0
aI0
aI0
aI0
aI4
assg14
g156
sg54
(dp302
g70
(lp303
I0
aI0
aI0
aI0
aI0
aI0
aI1
assV\u5fae\u535a
p304
(dp305
g70
(lp306
I0
aI0
aI0
aI0
aI0
aI0
aI1
assg40
(dp307
g70
(lp308
I0
aI0
aI0
aI0
aI0
aI0
aI2
assg42
(dp309
g70
(lp310
I0
aI0
aI0
aI0
aI0
aI0
aI4
assg56
(dp311
g70
(lp312
I0
aI0
aI0
aI0
aI0
aI0
aI1
assg46
(dp313
g70
(lp314
I0
aI0
aI0
aI0
aI0
aI0
aI3
assg62
(dp315
g70
(lp316
I0
aI0
aI0
aI0
aI0
aI0
aI2
asssg32
(dp317
VQQ
p318
(dp319
g70
(lp320
I0
aI0
aI0
aI0
aI0
aI0
aI1
assV\u5fae\u4fe1
p321
(dp322
g70
(lp323
I0
aI0
aI0
aI0
aI0
aI0
aI2
assg36
(dp324
g70
(lp325
I0
aI0
aI0
aI0
aI0
aI0
aI1
asssg34
(dp326
VQQ
p327
(dp328
g70
(lp329
I0
aI0
aI0
aI0
aI0
aI0
aI2
assg18
g185
sg140
g106
sV\u5fae\u4fe1
p330
(dp331
g70
(lp332
I0
aI0
aI0
aI0
aI0
aI0
aI3
assg14
g136
sg40
(dp333
g70
(lp334
I0
aI0
aI0
aI0
aI0
aI0
aI1
assg54
(dp335
g70
(lp336
I0
aI0
aI0
aI0
aI0
aI0
aI2
assg119
(dp337
g70
(lp338
I0
aI0
aI0
aI0
aI0
aI0
aI1
assg56
(dp339
g70
(lp340
I0
aI0
aI0
aI0
aI0
aI0
aI2
assg42
(dp341
g70
(lp342
I0
aI0
aI0
aI0
aI0
aI0
aI1
assg46
(dp343
g70
(lp344
I0
aI0
aI0
aI0
aI0
aI0
aI1
assg62
(dp345
g70
(lp346
I0
aI0
aI0
aI0
aI0
aI0
aI3
asssg36
(dp347
VQQ
p348
(dp349
g70
(lp350
I0
aI0
aI0
aI0
aI0
aI0
aI1
assV[Polaris Office 4.0]
p351
g324
sg18
g187
sVUC\u6d4f\u89c8\u5668
p352
g108
sV\u5fae\u4fe1
p353
(dp354
g70
(lp355
I0
aI0
aI0
aI0
aI0
aI0
aI2
assV[Sensor Log]
p356
(dp357
g70
(lp358
I0
aI0
aI0
aI0
aI0
aI0
aI1
assg46
(dp359
g70
(lp360
I0
aI0
aI0
aI0
aI0
aI0
aI1
assg62
(dp361
g70
(lp362
I0
aI0
aI0
aI0
aI0
aI0
aI1
asssg38
(dp363
g231
(dp364
g70
(lp365
I0
aI0
aI0
aI0
aI0
aI0
aI5
assg105
g337
sg10
g87
sg140
g120
sg234
(dp366
g70
(lp367
I0
aI0
aI0
aI0
aI0
aI0
aI5
assg56
(dp368
g70
(lp369
I0
aI0
aI0
aI0
aI0
aI0
aI3
assg54
(dp370
g70
(lp371
I0
aI0
aI0
aI0
aI0
aI0
aI4
assV[iReader]
p372
g239
sg18
g201
sg40
(dp373
g70
(lp374
I0
aI0
aI0
aI0
aI0
aI0
aI4
assg30
g305
sg42
(dp375
g70
(lp376
I0
aI0
aI0
aI0
aI0
aI0
aI2
assg26
g265
sg14
g146
sg46
(dp377
g70
(lp378
I0
aI0
aI0
aI0
aI0
aI0
aI3
assg62
(dp379
g70
(lp380
I0
aI0
aI0
aI0
aI0
aI0
aI4
asssg40
(dp381
g231
(dp382
g70
(lp383
I0
aI0
aI0
aI0
aI0
aI0
aI40
assV\u66b4\u98ce\u5f71\u97f3
p384
g171
sg105
g333
sg18
g193
sg189
g122
sg234
(dp385
g70
(lp386
I0
aI0
aI0
aI0
aI0
aI0
aI46
assg20
g222
sg14
g144
sg54
(dp387
g70
(lp388
I0
aI0
aI0
aI0
aI0
aI0
aI19
assV[iReader]
p389
g241
sg38
g373
sg56
(dp390
g70
(lp391
I0
aI0
aI0
aI0
aI0
aI0
aI6
assg42
(dp392
g70
(lp393
I0
aI0
aI0
aI0
aI0
aI0
aI25
assg30
g307
sg46
(dp394
g70
(lp395
I0
aI0
aI0
aI0
aI0
aI0
aI12
assg62
(dp396
g70
(lp397
I0
aI0
aI0
aI0
aI0
aI0
aI17
asssg42
(dp398
g50
(dp399
g70
(lp400
I0
aI0
aI0
aI0
aI0
aI0
aI43
assg16
g173
sg34
g341
sg280
g91
sg189
g124
sg52
(dp401
g70
(lp402
I0
aI0
aI0
aI0
aI0
aI0
aI57
assg20
g224
sg14
g154
sg40
g392
sg54
(dp403
g70
(lp404
I0
aI0
aI0
aI0
aI0
aI0
aI19
assV[360\u624b\u673a\u52a9\u624b]
p405
g286
sg304
g375
sg56
(dp406
g70
(lp407
I0
aI0
aI0
aI0
aI0
aI0
aI6
assg18
g207
sg8
g72
sg30
g309
sg46
(dp408
g70
(lp409
I0
aI0
aI0
aI0
aI0
aI0
aI13
assg48
(dp410
g70
(lp411
I0
aI0
aI0
aI0
aI0
aI0
aI1
assg62
(dp412
g70
(lp413
I0
aI0
aI0
aI0
aI0
aI0
aI22
asssg44
(dp414
g36
g357
sg62
(dp415
g70
(lp416
I0
aI0
aI0
aI0
aI0
aI0
aI1
asssg46
(dp417
g10
g95
sg189
g128
sg42
g408
sg14
g158
sg298
g177
sg18
g209
sg20
g226
sV[iReader]
p418
g243
sg26
g269
sV[360\u624b\u673a\u52a9\u624b]
p419
g288
sg30
g313
sg105
g343
sg36
g359
sg86
g377
sg40
g394
sg8
g69
sg48
(dp420
g70
(lp421
I0
aI0
aI0
aI0
aI0
aI0
aI1
assVQQ
p422
(dp423
g70
(lp424
I0
aI0
aI0
aI0
aI0
aI0
aI29
assV\u5fae\u4fe1
p425
(dp426
g70
(lp427
I0
aI0
aI0
aI0
aI0
aI0
aI31
assg54
(dp428
g70
(lp429
I0
aI0
aI0
aI0
aI0
aI0
aI16
assg56
(dp430
g70
(lp431
I0
aI0
aI0
aI0
aI0
aI0
aI7
assg58
(dp432
g70
(lp433
I0
aI0
aI0
aI0
aI0
aI0
aI1
assg62
(dp434
g70
(lp435
I0
aI0
aI0
aI0
aI0
aI0
aI16
asssg48
(dp436
g277
(dp437
g70
(lp438
I0
aI0
aI0
aI0
aI0
aI0
aI2
assg280
g97
sg281
(dp439
g70
(lp440
I0
aI0
aI0
aI0
aI0
aI0
aI2
assg54
(dp441
g70
(lp442
I0
aI0
aI0
aI0
aI0
aI0
aI1
assV[360\u624b\u673a\u52a9\u624b]
p443
g290
sg42
g410
sg26
g272
sg46
g420
sg62
(dp444
g70
(lp445
I0
aI0
aI0
aI0
aI0
aI0
aI1
asssg50
(dp446
g10
g76
sg12
g103
sg14
g134
sg16
g164
sg18
g183
sg20
g215
sV[iReader]
p447
g232
sg24
g247
sg26
g259
sV[360\u624b\u673a\u52a9\u624b]
p448
g278
sg30
g296
sV[Polaris Office 4.0]
p449
g319
sg34
g328
sg36
g349
sg38
g364
sg40
g382
sg42
g399
sg46
g423
sg48
g437
sg52
(dp450
g70
(lp451
I0
aI0
aI0
aI0
aI0
aI0
aI142
assg54
(dp452
g70
(lp453
I0
aI0
aI0
aI0
aI0
aI0
aI52
assg56
(dp454
g70
(lp455
I0
aI0
aI0
aI0
aI0
aI0
aI19
assg58
(dp456
g70
(lp457
I0
aI0
aI0
aI0
aI0
aI0
aI1
assg60
(dp458
g70
(lp459
I0
aI0
aI0
aI0
aI0
aI0
aI1
assg62
(dp460
g70
(lp461
I0
aI0
aI0
aI0
aI0
aI0
aI54
asssg52
(dp462
g10
g79
sg12
g113
sg14
g142
sg16
g167
sg18
g191
sg20
g218
sV[iReader]
p463
g235
sg24
g250
sg26
g261
sV[360\u624b\u673a\u52a9\u624b]
p464
g282
sg30
g300
sV[Polaris Office 4.0]
p465
g322
sg34
g331
sg36
g354
sg38
g366
sg40
g385
sg42
g401
sg46
g426
sg48
g439
sg50
g450
sg54
(dp466
g70
(lp467
I0
aI0
aI0
aI0
aI0
aI0
aI69
assg56
(dp468
g70
(lp469
I0
aI0
aI0
aI0
aI0
aI0
aI20
assg58
(dp470
g70
(lp471
I0
aI0
aI0
aI0
aI0
aI0
aI3
assg60
(dp472
g70
(lp473
I0
aI0
aI0
aI0
aI0
aI0
aI1
assg62
(dp474
g70
(lp475
I0
aI0
aI0
aI0
aI0
aI0
aI80
asssg54
(dp476
g10
g81
sg12
g117
sg14
g152
sg16
g169
sg18
g195
sg20
g220
sV[iReader]
p477
g237
sg24
g254
sg26
g263
sV[360\u624b\u673a\u52a9\u624b]
p478
g284
sg30
g302
sg34
g335
sg38
g370
sg40
g387
sg42
g403
sg46
g428
sg48
g441
sg231
g452
sg234
g466
sg56
(dp479
g70
(lp480
I0
aI0
aI0
aI0
aI0
aI0
aI11
assg58
(dp481
g70
(lp482
I0
aI0
aI0
aI0
aI0
aI0
aI2
assg60
(dp483
g70
(lp484
I0
aI0
aI0
aI0
aI0
aI0
aI1
assg62
(dp485
g70
(lp486
I0
aI0
aI0
aI0
aI0
aI0
aI42
asssg56
(dp487
g182
g454
sg34
g339
sg26
g267
sg10
g89
sg140
g126
sg190
g468
sg14
g148
sg54
g479
sg86
g368
sg40
g390
sg58
(dp488
g70
(lp489
I0
aI0
aI0
aI0
aI0
aI0
aI1
assg30
g311
sg42
g406
sg62
(dp490
g70
(lp491
I0
aI0
aI0
aI0
aI0
aI0
aI10
assg46
g430
sg18
g203
ssg58
(dp492
VQQ
p493
g456
sg18
g205
sV\u5fae\u4fe1
p494
g470
sg14
g150
sg54
g481
sg56
g488
sg46
g432
sg62
(dp495
g70
(lp496
I0
aI0
aI0
aI0
aI0
aI0
aI1
asssg60
(dp497
g246
g458
sg249
g472
sg24
g252
sg54
g483
sg62
(dp498
g70
(lp499
I0
aI0
aI0
aI0
aI0
aI0
aI1
asssg62
(dp500
g10
g99
sg189
g130
sg14
g160
sg16
g179
sg18
g211
sg20
g228
sg24
g256
sg26
g274
sV[360\u624b\u673a\u52a9\u624b]
p501
g292
sg30
g315
sg34
g345
sg36
g361
sg86
g379
sg40
g396
sg42
g412
sV[Sensor Log]
p502
g415
sg46
g434
sg48
g444
sVQQ
p503
g460
sV\u5fae\u4fe1
p504
g474
sg54
g485
sg56
g490
sg58
g495
sg60
g498
sssS'adj'
p505
g67
sb.