ccopy_reg
_reconstructor
p1
(cnetworkx.classes.graph
Graph
p2
c__builtin__
object
p3
NtRp4
(dp5
S'node'
p6
(dp7
VQQ
p8
(dp9
sV\u5fae\u4fe1
p10
(dp11
sV\u6f0f\u6d1e\u4fee\u590d
p12
(dp13
sV\u901a\u77e5
p14
(dp15
sV\u767e\u5ea6\u624b\u673a\u52a9\u624b
p16
(dp17
ssS'graph'
p18
(dp19
sS'edge'
p20
(dp21
g8
(dp22
V\u5fae\u4fe1
p23
(dp24
S'weights'
p25
(lp26
I0
aI0
aI0
aI0
aI0
aI0
aI14
assV\u6f0f\u6d1e\u4fee\u590d
p27
(dp28
g25
(lp29
I0
aI0
aI0
aI0
aI0
aI0
aI2
assV\u901a\u77e5
p30
(dp31
g25
(lp32
I0
aI0
aI0
aI0
aI0
aI0
aI1
asssg10
(dp33
g8
g24
sV\u6f0f\u6d1e\u4fee\u590d
p34
(dp35
g25
(lp36
I0
aI0
aI0
aI0
aI0
aI0
aI1
asssg12
(dp37
VQQ
p38
g28
sV\u901a\u77e5
p39
(dp40
g25
(lp41
I0
aI0
aI0
aI0
aI0
aI0
aI1
assV\u5fae\u4fe1
p42
g35
ssg14
(dp43
VQQ
p44
g31
sV\u6f0f\u6d1e\u4fee\u590d
p45
g40
ssg16
(dp46
ssS'adj'
p47
g21
sb.