ccopy_reg
_reconstructor
p1
(cnetworkx.classes.digraph
DiGraph
p2
c__builtin__
object
p3
NtRp4
(dp5
S'node'
p6
(dp7
VQQ
p8
(dp9
S'weight'
p10
F0.16
ssV[ColorOS\u684c\u9762]
p11
(dp12
g10
F0.55000000000000004
ssVGenieWidget.app
p13
(dp14
g10
F0.089999999999999997
ssV[\u8bed\u97f3\u52a9\u624b]
p15
(dp16
g10
F0.070000000000000007
ssVMusic.apk
p17
(dp18
g10
F0.02
ssVFileManager.apk
p19
(dp20
g10
F0.029999999999999999
ssV[OppoPreventMode]
p21
(dp22
g10
F0.080000000000000002
sssS'graph'
p23
(dp24
sS'succ'
p25
(dp26
g8
(dp27
g13
(dp28
S'weights'
p29
(lp30
I0
aI0
aI0
aI0
aI0
aI0
aF0.26000000000000001
assV[ColorOS\u684c\u9762]
p31
(dp32
g29
(lp33
I0
aI0
aI0
aI0
aI0
aI0
aF0.79000000000000004
assg19
(dp34
g29
(lp35
I0
aI0
aI0
aI0
aI0
aI0
aF0.20999999999999999
asssg11
(dp36
VQQ
p37
(dp38
g29
(lp39
I0
aI0
aI0
aI0
aI0
aI0
aF0.79000000000000004
assg13
(dp40
g29
(lp41
I0
aI0
aI0
aI0
aI0
aI0
aF0.79000000000000004
assV[\u8bed\u97f3\u52a9\u624b]
p42
(dp43
g29
(lp44
I0
aI0
aI0
aI0
aI0
aI0
aF0.79000000000000004
assg17
(dp45
g29
(lp46
I0
aI0
aI0
aI0
aI0
aI0
aF0.76000000000000001
assg19
(dp47
g29
(lp48
I0
aI0
aI0
aI0
aI0
aI0
aF0.20999999999999999
assV[OppoPreventMode]
p49
(dp50
g29
(lp51
I0
aI0
aI0
aI0
aI0
aI0
aF0.79000000000000004
asssg13
(dp52
VQQ
p53
(dp54
g29
(lp55
I0
aI0
aI0
aI0
aI0
aI0
aF0.76000000000000001
assV[ColorOS\u684c\u9762]
p56
(dp57
g29
(lp58
I0
aI0
aI0
aI0
aI0
aI0
aF0.029999999999999999
assg17
(dp59
g29
(lp60
I0
aI0
aI0
aI0
aI0
aI0
aF0.76000000000000001
asssg15
(dp61
V[ColorOS\u684c\u9762]
p62
(dp63
g29
(lp64
I0
aI0
aI0
aI0
aI0
aI0
aF0.66000000000000003
assg13
(dp65
g29
(lp66
I0
aI0
aI0
aI0
aI0
aI0
aF0.79000000000000004
asssg17
(dp67
V[ColorOS\u684c\u9762]
p68
(dp69
g29
(lp70
I0
aI0
aI0
aI0
aI0
aI0
aF0.41999999999999998
asssg19
(dp71
V[ColorOS\u684c\u9762]
p72
(dp73
g29
(lp74
I0
aI0
aI0
aI0
aI0
aI0
aF0.79000000000000004
asssg21
(dp75
g53
(dp76
g29
(lp77
I0
aI0
aI0
aI0
aI0
aI0
aF0.45000000000000001
assV[ColorOS\u684c\u9762]
p78
(dp79
g29
(lp80
I0
aI0
aI0
aI0
aI0
aI0
aF0.46999999999999997
assg13
(dp81
g29
(lp82
I0
aI0
aI0
aI0
aI0
aI0
aF0.46999999999999997
assV[\u8bed\u97f3\u52a9\u624b]
p83
(dp84
g29
(lp85
I0
aI0
aI0
aI0
aI0
aI0
aF0.45000000000000001
assssS'edge'
p86
g26
sS'pred'
p87
(dp88
g8
(dp89
g13
g54
sV[ColorOS\u684c\u9762]
p90
g38
sV[OppoPreventMode]
p91
g76
ssg11
(dp92
g8
g32
sg19
g73
sV[\u8bed\u97f3\u52a9\u624b]
p93
g63
sg17
g69
sg13
g57
sV[OppoPreventMode]
p94
g79
ssg13
(dp95
VQQ
p96
g28
sV[ColorOS\u684c\u9762]
p97
g40
sV[OppoPreventMode]
p98
g81
sV[\u8bed\u97f3\u52a9\u624b]
p99
g65
ssg15
(dp100
V[ColorOS\u684c\u9762]
p101
g43
sV[OppoPreventMode]
p102
g84
ssg17
(dp103
V[ColorOS\u684c\u9762]
p104
g45
sg13
g59
ssg19
(dp105
g37
g34
sV[ColorOS\u684c\u9762]
p106
g47
ssg21
(dp107
V[ColorOS\u684c\u9762]
p108
g50
sssS'adj'
p109
g26
sb.