ccopy_reg
_reconstructor
p1
(cnetworkx.classes.digraph
DiGraph
p2
c__builtin__
object
p3
NtRp4
(dp5
S'node'
p6
(dp7
V[com.sec.android.app.capabilitymanager]
p8
(dp9
S'weight'
p10
F0.01
ssV[TouchWiz \u4e3b\u9875]
p11
(dp12
g10
F0.40000000000000002
ssV\u652f\u4ed8\u5b9d\u94b1\u5305
p13
(dp14
g10
F0.02
ssV\u7f8e\u56e2\u56e2\u8d2d
p15
(dp16
g10
F0
ssV\u7f51\u6613\u65b0\u95fb
p17
(dp18
g10
F0.029999999999999999
ssVCalculator.apk
p19
(dp20
g10
F0
ssV[36\u6c2a]
p21
(dp22
g10
F0
ssV\u8bfe\u7a0b\u683c\u5b50
p23
(dp24
g10
F0
ssV[S \u5907\u5fd8\u5f55]
p25
(dp26
g10
F0
ssV[\u997f\u4e86\u4e48]
p27
(dp28
g10
F0.01
ssV[\u70b9\u70b9]
p29
(dp30
g10
F0
ssVWPS Office
p31
(dp32
g10
F0.01
ssV[\u8c4c\u8c46\u835a]
p33
(dp34
g10
F0.01
ssVPhoto.apk
p35
(dp36
g10
F0.02
ssVQQ\u90ae\u7bb1
p37
(dp38
g10
F0.01
ssV[\u65e0\u79d8]
p39
(dp40
g10
F0
ssVBrowser.apk
p41
(dp42
g10
F0.02
ssVFileManager.apk
p43
(dp44
g10
F0.02
ssV\u5fae\u535a
p45
(dp46
g10
F0.029999999999999999
ssVClock.apk
p47
(dp48
g10
F0
ssVMms.apk
p49
(dp50
g10
F0.02
ssVPackageInstaller.apk
p51
(dp52
g10
F0.01
ssVPhone.apk
p53
(dp54
g10
F0.02
ssV[PopupuiReceiver]
p55
(dp56
g10
F0.01
ssVQQ
p57
(dp58
g10
F0.13
ssV\u5fae\u4fe1
p59
(dp60
g10
F0.14999999999999999
ssV[KeyguardTestActivity]
p61
(dp62
g10
F0.01
ssVCamera.apk
p63
(dp64
g10
F0.02
ssV\u7f51\u6613\u4e91\u97f3\u4e50
p65
(dp66
g10
F0
ssV\u9177\u72d7\u97f3\u4e50
p67
(dp68
g10
F0.02
ssVSettings.apk
p69
(dp70
g10
F0.01
sssS'graph'
p71
(dp72
sS'succ'
p73
(dp74
g8
(dp75
VQQ
p76
(dp77
S'weights'
p78
(lp79
I0
aI0
aI0
aI0
aI0
aI0
aF0.070811593611292661
assV[TouchWiz \u4e3b\u9875]
p80
(dp81
g78
(lp82
I0
aI0
aI0
aI0
aI0
aI0
aF0.14790703800817054
assg43
(dp83
g78
(lp84
I0
aI0
aI0
aI0
aI0
aI0
aF0.036473748475695573
assg49
(dp85
g78
(lp86
I0
aI0
aI0
aI0
aI0
aI0
aF0.05725708895763152
assg15
(dp87
g78
(lp88
I0
aI0
aI0
aI0
aI0
aI0
aF0.089336462504736674
assV\u5fae\u4fe1
p89
(dp90
g78
(lp91
I0
aI0
aI0
aI0
aI0
aI0
aF0.13035562969780901
assV[\u997f\u4e86\u4e48]
p92
(dp93
g78
(lp94
I0
aI0
aI0
aI0
aI0
aI0
aF0.097206055904623348
assVQQ\u90ae\u7bb1
p95
(dp96
g78
(lp97
I0
aI0
aI0
aI0
aI0
aI0
aF0.074310994010621689
assV\u7f51\u6613\u65b0\u95fb
p98
(dp99
g78
(lp100
I0
aI0
aI0
aI0
aI0
aI0
aF0.033681024292383135
assV\u7f51\u6613\u4e91\u97f3\u4e50
p101
(dp102
g78
(lp103
I0
aI0
aI0
aI0
aI0
aI0
aF0.038356396148825175
assg19
(dp104
g78
(lp105
I0
aI0
aI0
aI0
aI0
aI0
aF0.021118119476753235
assg41
(dp106
g78
(lp107
I0
aI0
aI0
aI0
aI0
aI0
aF0.035733329009768396
assg51
(dp108
g78
(lp109
I0
aI0
aI0
aI0
aI0
aI0
aF0.055686466905959811
assg53
(dp110
g78
(lp111
I0
aI0
aI0
aI0
aI0
aI0
aF0.047460252589838103
assV[PopupuiReceiver]
p112
(dp113
g78
(lp114
I0
aI0
aI0
aI0
aI0
aI0
aF0.023475938307313367
asssg11
(dp115
V[com.sec.android.app.capabilitymanager]
p116
(dp117
g78
(lp118
I0
aI0
aI0
aI0
aI0
aI0
aF0.1054638979733806
assg13
(dp119
g78
(lp120
I0
aI0
aI0
aI0
aI0
aI0
aF0.28057499391098717
assg15
(dp121
g78
(lp122
I0
aI0
aI0
aI0
aI0
aI0
aF0.43986763849007438
assg17
(dp123
g78
(lp124
I0
aI0
aI0
aI0
aI0
aI0
aF0.36653647612976137
assg19
(dp125
g78
(lp126
I0
aI0
aI0
aI0
aI0
aI0
aF0.10700607045591781
assV[36\u6c2a]
p127
(dp128
g78
(lp129
I0
aI0
aI0
aI0
aI0
aI0
aF0.15604714736448305
assV\u8bfe\u7a0b\u683c\u5b50
p130
(dp131
g78
(lp132
I0
aI0
aI0
aI0
aI0
aI0
aF0.039359930671143649
assV[S \u5907\u5fd8\u5f55]
p133
(dp134
g78
(lp135
I0
aI0
aI0
aI0
aI0
aI0
aF0.023250090688991164
assV[\u997f\u4e86\u4e48]
p136
(dp137
g78
(lp138
I0
aI0
aI0
aI0
aI0
aI0
aF0.2520046328516854
assV[\u70b9\u70b9]
p139
(dp140
g78
(lp141
I0
aI0
aI0
aI0
aI0
aI0
aF0.050213523468508367
assg31
(dp142
g78
(lp143
I0
aI0
aI0
aI0
aI0
aI0
aF0.23034053942468877
assV[\u8c4c\u8c46\u835a]
p144
(dp145
g78
(lp146
I0
aI0
aI0
aI0
aI0
aI0
aF0.14576489612654744
assg35
(dp147
g78
(lp148
I0
aI0
aI0
aI0
aI0
aI0
aF0.38421996886564802
assg37
(dp149
g78
(lp150
I0
aI0
aI0
aI0
aI0
aI0
aF0.16045922223126688
assV[\u65e0\u79d8]
p151
(dp152
g78
(lp153
I0
aI0
aI0
aI0
aI0
aI0
aF0.15506161867628673
assg41
(dp154
g78
(lp155
I0
aI0
aI0
aI0
aI0
aI0
aF0.31802636470117046
assg43
(dp156
g78
(lp157
I0
aI0
aI0
aI0
aI0
aI0
aF0.34092798514782385
assg45
(dp158
g78
(lp159
I0
aI0
aI0
aI0
aI0
aI0
aF0.34742609257995483
assg47
(dp160
g78
(lp161
I0
aI0
aI0
aI0
aI0
aI0
aF0.20225689961028137
assg49
(dp162
g78
(lp163
I0
aI0
aI0
aI0
aI0
aI0
aF0.25617442476494512
assg51
(dp164
g78
(lp165
I0
aI0
aI0
aI0
aI0
aI0
aF0.12531889292494089
assg53
(dp166
g78
(lp167
I0
aI0
aI0
aI0
aI0
aI0
aF0.28119243477692007
assV[PopupuiReceiver]
p168
(dp169
g78
(lp170
I0
aI0
aI0
aI0
aI0
aI0
aF0.18115704932118304
assVQQ
p171
(dp172
g78
(lp173
I0
aI0
aI0
aI0
aI0
aI0
aF0.77825718078080008
assg59
(dp174
g78
(lp175
I0
aI0
aI0
aI0
aI0
aI0
aF1
assV[KeyguardTestActivity]
p176
(dp177
g78
(lp178
I0
aI0
aI0
aI0
aI0
aI0
aF0.14285139710835476
assg63
(dp179
g78
(lp180
I0
aI0
aI0
aI0
aI0
aI0
aF0.37327275153758227
assg65
(dp181
g78
(lp182
I0
aI0
aI0
aI0
aI0
aI0
aF0.10952142769436822
assg67
(dp183
g78
(lp184
I0
aI0
aI0
aI0
aI0
aI0
aF0.20443877245969935
assg69
(dp185
g78
(lp186
I0
aI0
aI0
aI0
aI0
aI0
aF0.11844824269426533
asssg13
(dp187
VQQ
p188
(dp189
g78
(lp190
I0
aI0
aI0
aI0
aI0
aI0
aF0.16200738842210721
assV[TouchWiz \u4e3b\u9875]
p191
(dp192
g78
(lp193
I0
aI0
aI0
aI0
aI0
aI0
aF0.36572352101761779
assg41
(dp194
g78
(lp195
I0
aI0
aI0
aI0
aI0
aI0
aF0.041962601468861473
assg43
(dp196
g78
(lp197
I0
aI0
aI0
aI0
aI0
aI0
aF0.054473009617956175
assg35
(dp198
g78
(lp199
I0
aI0
aI0
aI0
aI0
aI0
aF0.038193315142569864
assV\u5fae\u4fe1
p200
(dp201
g78
(lp202
I0
aI0
aI0
aI0
aI0
aI0
aF0.354529264579518
assV[KeyguardTestActivity]
p203
(dp204
g78
(lp205
I0
aI0
aI0
aI0
aI0
aI0
aF0.097336141975236309
assV\u5fae\u535a
p206
(dp207
g78
(lp208
I0
aI0
aI0
aI0
aI0
aI0
aF0.13116188140720589
assVWPS Office
p209
(dp210
g78
(lp211
I0
aI0
aI0
aI0
aI0
aI0
aF0.038491704952540812
assg49
(dp212
g78
(lp213
I0
aI0
aI0
aI0
aI0
aI0
aF0.13222827145699059
assV[\u65e0\u79d8]
p214
(dp215
g78
(lp216
I0
aI0
aI0
aI0
aI0
aI0
aF0.044422695128653697
assV\u7f51\u6613\u65b0\u95fb
p217
(dp218
g78
(lp219
I0
aI0
aI0
aI0
aI0
aI0
aF0.092981604012495597
assg53
(dp220
g78
(lp221
I0
aI0
aI0
aI0
aI0
aI0
aF0.078601489288170512
assV[PopupuiReceiver]
p222
(dp223
g78
(lp224
I0
aI0
aI0
aI0
aI0
aI0
aF0.041880841506489297
asssg15
(dp225
V[com.sec.android.app.capabilitymanager]
p226
(dp227
g78
(lp228
I0
aI0
aI0
aI0
aI0
aI0
aF0.039343650486204855
assVQQ
p229
(dp230
g78
(lp231
I0
aI0
aI0
aI0
aI0
aI0
aF0.11476718805570293
assV[TouchWiz \u4e3b\u9875]
p232
(dp233
g78
(lp234
I0
aI0
aI0
aI0
aI0
aI0
aF0.31629828700307394
assV[\u8c4c\u8c46\u835a]
p235
(dp236
g78
(lp237
I0
aI0
aI0
aI0
aI0
aI0
aF0.039100168843715352
assV\u7f8e\u56e2\u56e2\u8d2d
p238
(dp239
g78
(lp240
I0
aI0
aI0
aI0
aI0
aI0
aF0.12779637815213188
assg89
(dp241
g78
(lp242
I0
aI0
aI0
aI0
aI0
aI0
aF0.2192726885323126
assV\u7f51\u6613\u65b0\u95fb
p243
(dp244
g78
(lp245
I0
aI0
aI0
aI0
aI0
aI0
aF0.085975338482226896
assg19
(dp246
g78
(lp247
I0
aI0
aI0
aI0
aI0
aI0
aF0.10218514537330163
assg41
(dp248
g78
(lp249
I0
aI0
aI0
aI0
aI0
aI0
aF0.11256694881252483
assg53
(dp250
g78
(lp251
I0
aI0
aI0
aI0
aI0
aI0
aF0.13643189762563177
assV[PopupuiReceiver]
p252
(dp253
g78
(lp254
I0
aI0
aI0
aI0
aI0
aI0
aF0.079422136411295766
asssg17
(dp255
V[com.sec.android.app.capabilitymanager]
p256
(dp257
g78
(lp258
I0
aI0
aI0
aI0
aI0
aI0
aF0.052581318571305762
assV[TouchWiz \u4e3b\u9875]
p259
(dp260
g78
(lp261
I0
aI0
aI0
aI0
aI0
aI0
aF0.31902440339906879
assV\u652f\u4ed8\u5b9d\u94b1\u5305
p262
(dp263
g78
(lp264
I0
aI0
aI0
aI0
aI0
aI0
aF0.037701789344093926
assg15
(dp265
g78
(lp266
I0
aI0
aI0
aI0
aI0
aI0
aF0.094718597483456929
assV[36\u6c2a]
p267
(dp268
g78
(lp269
I0
aI0
aI0
aI0
aI0
aI0
aF0.070830547155775733
assVWPS Office
p270
(dp271
g78
(lp272
I0
aI0
aI0
aI0
aI0
aI0
aF0.057842250843183764
assV[\u8c4c\u8c46\u835a]
p273
(dp274
g78
(lp275
I0
aI0
aI0
aI0
aI0
aI0
aF0.048812375064676179
assg35
(dp276
g78
(lp277
I0
aI0
aI0
aI0
aI0
aI0
aF0.033341210198283365
assg41
(dp278
g78
(lp279
I0
aI0
aI0
aI0
aI0
aI0
aF0.094820615735984867
assg43
(dp280
g78
(lp281
I0
aI0
aI0
aI0
aI0
aI0
aF0.057941903766586783
assV\u5fae\u535a
p282
(dp283
g78
(lp284
I0
aI0
aI0
aI0
aI0
aI0
aF0.072324683339240553
assg47
(dp285
g78
(lp286
I0
aI0
aI0
aI0
aI0
aI0
aF0.055596798002971841
assg49
(dp287
g78
(lp288
I0
aI0
aI0
aI0
aI0
aI0
aF0.052273949179308159
assg51
(dp289
g78
(lp290
I0
aI0
aI0
aI0
aI0
aI0
aF0.064257742690747272
assg53
(dp291
g78
(lp292
I0
aI0
aI0
aI0
aI0
aI0
aF0.045430277105278707
assV[PopupuiReceiver]
p293
(dp294
g78
(lp295
I0
aI0
aI0
aI0
aI0
aI0
aF0.063476306288129281
assVQQ
p296
(dp297
g78
(lp298
I0
aI0
aI0
aI0
aI0
aI0
aF0.17685498965549545
assV\u5fae\u4fe1
p299
(dp300
g78
(lp301
I0
aI0
aI0
aI0
aI0
aI0
aF0.17284961294789536
assg63
(dp302
g78
(lp303
I0
aI0
aI0
aI0
aI0
aI0
aF0.033492271471048357
assg65
(dp304
g78
(lp305
I0
aI0
aI0
aI0
aI0
aI0
aF0.053843650059032078
assV\u9177\u72d7\u97f3\u4e50
p306
(dp307
g78
(lp308
I0
aI0
aI0
aI0
aI0
aI0
aF0.05793074732979922
assg69
(dp309
g78
(lp310
I0
aI0
aI0
aI0
aI0
aI0
aF0.033381587606679176
asssg19
(dp311
sg21
(dp312
V[TouchWiz \u4e3b\u9875]
p313
(dp314
g78
(lp315
I0
aI0
aI0
aI0
aI0
aI0
aF0.067654056870648946
asssg23
(dp316
VQQ
p317
(dp318
g78
(lp319
I0
aI0
aI0
aI0
aI0
aI0
aF0.050696041226247421
assV[TouchWiz \u4e3b\u9875]
p320
(dp321
g78
(lp322
I0
aI0
aI0
aI0
aI0
aI0
aF0.073968518095560917
assV\u5fae\u4fe1
p323
(dp324
g78
(lp325
I0
aI0
aI0
aI0
aI0
aI0
aF0.039364021360455539
assV\u7f51\u6613\u65b0\u95fb
p326
(dp327
g78
(lp328
I0
aI0
aI0
aI0
aI0
aI0
aF0.039092708972991393
assg53
(dp329
g78
(lp330
I0
aI0
aI0
aI0
aI0
aI0
aF0.0017959033548707226
assg69
(dp331
g78
(lp332
I0
aI0
aI0
aI0
aI0
aI0
aF0.033025420807343747
asssg25
(dp333
VQQ
p334
(dp335
g78
(lp336
I0
aI0
aI0
aI0
aI0
aI0
aF0.032062928836850003
assV[TouchWiz \u4e3b\u9875]
p337
(dp338
g78
(lp339
I0
aI0
aI0
aI0
aI0
aI0
aF0.072060130477780079
assg43
(dp340
g78
(lp341
I0
aI0
aI0
aI0
aI0
aI0
aF0.032220715226257718
assg49
(dp342
g78
(lp343
I0
aI0
aI0
aI0
aI0
aI0
aF0.033687269325279497
asssg27
(dp344
g76
(dp345
g78
(lp346
I0
aI0
aI0
aI0
aI0
aI0
aF0.086279862206556951
assV[TouchWiz \u4e3b\u9875]
p347
(dp348
g78
(lp349
I0
aI0
aI0
aI0
aI0
aI0
aF0.22998019676354389
assV\u5fae\u4fe1
p350
(dp351
g78
(lp352
I0
aI0
aI0
aI0
aI0
aI0
aF0.21665463989678715
assg98
(dp353
g78
(lp354
I0
aI0
aI0
aI0
aI0
aI0
aF0.10377538871738765
assg101
(dp355
g78
(lp356
I0
aI0
aI0
aI0
aI0
aI0
aF0.066998274501285399
assg49
(dp357
g78
(lp358
I0
aI0
aI0
aI0
aI0
aI0
aF0.11474971114011111
assg41
(dp359
g78
(lp360
I0
aI0
aI0
aI0
aI0
aI0
aF0.068035157718696504
assg53
(dp361
g78
(lp362
I0
aI0
aI0
aI0
aI0
aI0
aF0.077225797221413622
assV[PopupuiReceiver]
p363
(dp364
g78
(lp365
I0
aI0
aI0
aI0
aI0
aI0
aF0.056081996064410951
asssg29
(dp366
VQQ
p367
(dp368
g78
(lp369
I0
aI0
aI0
aI0
aI0
aI0
aF0.056433935514491718
asssg31
(dp370
VQQ
p371
(dp372
g78
(lp373
I0
aI0
aI0
aI0
aI0
aI0
aF0.072911566873857345
assV[TouchWiz \u4e3b\u9875]
p374
(dp375
g78
(lp376
I0
aI0
aI0
aI0
aI0
aI0
aF0.21623826393980597
assg43
(dp377
g78
(lp378
I0
aI0
aI0
aI0
aI0
aI0
aF0.12482084251758908
assg35
(dp379
g78
(lp380
I0
aI0
aI0
aI0
aI0
aI0
aF0.067913482458255986
assV\u5fae\u4fe1
p381
(dp382
g78
(lp383
I0
aI0
aI0
aI0
aI0
aI0
aF0.060082768690735922
assV\u7f51\u6613\u65b0\u95fb
p384
(dp385
g78
(lp386
I0
aI0
aI0
aI0
aI0
aI0
aF0.067571397434402464
assg63
(dp387
g78
(lp388
I0
aI0
aI0
aI0
aI0
aI0
aF0.039320767435821476
assV[36\u6c2a]
p389
(dp390
g78
(lp391
I0
aI0
aI0
aI0
aI0
aI0
aF0.093518005668491652
assV\u652f\u4ed8\u5b9d\u94b1\u5305
p392
(dp393
g78
(lp394
I0
aI0
aI0
aI0
aI0
aI0
aF0.038925993930783283
assg69
(dp395
g78
(lp396
I0
aI0
aI0
aI0
aI0
aI0
aF0.016374611876472968
asssg33
(dp397
V[com.sec.android.app.capabilitymanager]
p398
(dp399
g78
(lp400
I0
aI0
aI0
aI0
aI0
aI0
aF0.055397301803129261
assg229
(dp401
g78
(lp402
I0
aI0
aI0
aI0
aI0
aI0
aF0.052957136958867064
assV[TouchWiz \u4e3b\u9875]
p403
(dp404
g78
(lp405
I0
aI0
aI0
aI0
aI0
aI0
aF0.18207008075838074
assg49
(dp406
g78
(lp407
I0
aI0
aI0
aI0
aI0
aI0
aF0.056717763698677023
assg15
(dp408
g78
(lp409
I0
aI0
aI0
aI0
aI0
aI0
aF0.13727998539874267
assg89
(dp410
g78
(lp411
I0
aI0
aI0
aI0
aI0
aI0
aF0.14501546812717261
assV[\u997f\u4e86\u4e48]
p412
(dp413
g78
(lp414
I0
aI0
aI0
aI0
aI0
aI0
aF0.09646547792714262
assV\u7f51\u6613\u65b0\u95fb
p415
(dp416
g78
(lp417
I0
aI0
aI0
aI0
aI0
aI0
aF0.063256230928597196
assg65
(dp418
g78
(lp419
I0
aI0
aI0
aI0
aI0
aI0
aF0.053735484503352499
assg19
(dp420
g78
(lp421
I0
aI0
aI0
aI0
aI0
aI0
aF0.020773591969162952
assg41
(dp422
g78
(lp423
I0
aI0
aI0
aI0
aI0
aI0
aF0.034742271519077057
assg51
(dp424
g78
(lp425
I0
aI0
aI0
aI0
aI0
aI0
aF0.077200815565211564
assg53
(dp426
g78
(lp427
I0
aI0
aI0
aI0
aI0
aI0
aF0.061537964024077824
assV[PopupuiReceiver]
p428
(dp429
g78
(lp430
I0
aI0
aI0
aI0
aI0
aI0
aF0.022264481905646349
asssg35
(dp431
g334
(dp432
g78
(lp433
I0
aI0
aI0
aI0
aI0
aI0
aF0.2080814128558538
assV[TouchWiz \u4e3b\u9875]
p434
(dp435
g78
(lp436
I0
aI0
aI0
aI0
aI0
aI0
aF0.38969267773959509
assg43
(dp437
g78
(lp438
I0
aI0
aI0
aI0
aI0
aI0
aF0.073272080046639904
assg49
(dp439
g78
(lp440
I0
aI0
aI0
aI0
aI0
aI0
aF0.094407777772981261
assV\u5fae\u4fe1
p441
(dp442
g78
(lp443
I0
aI0
aI0
aI0
aI0
aI0
aF0.21649925087154714
assg47
(dp444
g78
(lp445
I0
aI0
aI0
aI0
aI0
aI0
aF0.07392907146435794
assg384
(dp446
g78
(lp447
I0
aI0
aI0
aI0
aI0
aI0
aF0.03940454763709509
assg206
(dp448
g78
(lp449
I0
aI0
aI0
aI0
aI0
aI0
aF0.018294210633449326
assg63
(dp450
g78
(lp451
I0
aI0
aI0
aI0
aI0
aI0
aF0.12511558241150167
assV[36\u6c2a]
p452
(dp453
g78
(lp454
I0
aI0
aI0
aI0
aI0
aI0
aF0.054059385754640026
assV\u652f\u4ed8\u5b9d\u94b1\u5305
p455
(dp456
g78
(lp457
I0
aI0
aI0
aI0
aI0
aI0
aF0.066324063001705777
assV[S \u5907\u5fd8\u5f55]
p458
(dp459
g78
(lp460
I0
aI0
aI0
aI0
aI0
aI0
aF0.022901028642747182
assV[KeyguardTestActivity]
p461
(dp462
g78
(lp463
I0
aI0
aI0
aI0
aI0
aI0
aF0.051373539360095415
assg53
(dp464
g78
(lp465
I0
aI0
aI0
aI0
aI0
aI0
aF0.077754284683567806
assVWPS Office
p466
(dp467
g78
(lp468
I0
aI0
aI0
aI0
aI0
aI0
aF0.054227063922116431
assg69
(dp469
g78
(lp470
I0
aI0
aI0
aI0
aI0
aI0
aF0.039313767987312127
asssg37
(dp471
V[com.sec.android.app.capabilitymanager]
p472
(dp473
g78
(lp474
I0
aI0
aI0
aI0
aI0
aI0
aF0.039306083414726307
assVQQ
p475
(dp476
g78
(lp477
I0
aI0
aI0
aI0
aI0
aI0
aF0.12189016915846583
assV[TouchWiz \u4e3b\u9875]
p478
(dp479
g78
(lp480
I0
aI0
aI0
aI0
aI0
aI0
aF0.081563844536020225
assg43
(dp481
g78
(lp482
I0
aI0
aI0
aI0
aI0
aI0
aF0.063346374000450831
assV\u5fae\u4fe1
p483
(dp484
g78
(lp485
I0
aI0
aI0
aI0
aI0
aI0
aF0.081412120299328594
asssg39
(dp486
VQQ
p487
(dp488
g78
(lp489
I0
aI0
aI0
aI0
aI0
aI0
aF0.079494702798691072
assV[com.sec.android.app.capabilitymanager]
p490
(dp491
g78
(lp492
I0
aI0
aI0
aI0
aI0
aI0
aF0.038195769765245809
assV[TouchWiz \u4e3b\u9875]
p493
(dp494
g78
(lp495
I0
aI0
aI0
aI0
aI0
aI0
aF0.11190012549630758
assg43
(dp496
g78
(lp497
I0
aI0
aI0
aI0
aI0
aI0
aF0.065257982472555182
assg35
(dp498
g78
(lp499
I0
aI0
aI0
aI0
aI0
aI0
aF0.038544745772731336
assV\u5fae\u4fe1
p500
(dp501
g78
(lp502
I0
aI0
aI0
aI0
aI0
aI0
aF0.051525411916948823
assg37
(dp503
g78
(lp504
I0
aI0
aI0
aI0
aI0
aI0
aF0.081339192138708674
assV\u5fae\u535a
p505
(dp506
g78
(lp507
I0
aI0
aI0
aI0
aI0
aI0
aF0.04431033285707163
assg49
(dp508
g78
(lp509
I0
aI0
aI0
aI0
aI0
aI0
aF0.034659949565550761
assg51
(dp510
g78
(lp511
I0
aI0
aI0
aI0
aI0
aI0
aF0.038440989254909866
assg209
(dp512
g78
(lp513
I0
aI0
aI0
aI0
aI0
aI0
aF0.038840435827347371
asssg41
(dp514
VQQ
p515
(dp516
g78
(lp517
I0
aI0
aI0
aI0
aI0
aI0
aF0.13927751574008576
assV[com.sec.android.app.capabilitymanager]
p518
(dp519
g78
(lp520
I0
aI0
aI0
aI0
aI0
aI0
aF0.034170415813859642
assV[TouchWiz \u4e3b\u9875]
p521
(dp522
g78
(lp523
I0
aI0
aI0
aI0
aI0
aI0
aF0.28979291004704549
assV[\u8c4c\u8c46\u835a]
p524
(dp525
g78
(lp526
I0
aI0
aI0
aI0
aI0
aI0
aF0.081496219005197004
assg15
(dp527
g78
(lp528
I0
aI0
aI0
aI0
aI0
aI0
aF0.22849123625867074
assV\u5fae\u4fe1
p529
(dp530
g78
(lp531
I0
aI0
aI0
aI0
aI0
aI0
aF0.19022941832232407
assV\u7f51\u6613\u65b0\u95fb
p532
(dp533
g78
(lp534
I0
aI0
aI0
aI0
aI0
aI0
aF0.074674672754623916
assV\u5fae\u535a
p535
(dp536
g78
(lp537
I0
aI0
aI0
aI0
aI0
aI0
aF0.060014739712904844
assg19
(dp538
g78
(lp539
I0
aI0
aI0
aI0
aI0
aI0
aF0.055115818584643692
assV[\u65e0\u79d8]
p540
(dp541
g78
(lp542
I0
aI0
aI0
aI0
aI0
aI0
aF0.047326820864725311
assg51
(dp543
g78
(lp544
I0
aI0
aI0
aI0
aI0
aI0
aF0.034317929858097153
assg53
(dp545
g78
(lp546
I0
aI0
aI0
aI0
aI0
aI0
aF0.074513211553038583
assV[PopupuiReceiver]
p547
(dp548
g78
(lp549
I0
aI0
aI0
aI0
aI0
aI0
aF0.10265270406744452
asssg43
(dp550
g371
(dp551
g78
(lp552
I0
aI0
aI0
aI0
aI0
aI0
aF0.1391821240910765
assV[TouchWiz \u4e3b\u9875]
p553
(dp554
g78
(lp555
I0
aI0
aI0
aI0
aI0
aI0
aF0.28507399664565958
assg35
(dp556
g78
(lp557
I0
aI0
aI0
aI0
aI0
aI0
aF0.078270989330931712
assg381
(dp558
g78
(lp559
I0
aI0
aI0
aI0
aI0
aI0
aF0.093396247309298838
assVQQ\u90ae\u7bb1
p560
(dp561
g78
(lp562
I0
aI0
aI0
aI0
aI0
aI0
aF0.053760012682215412
assg384
(dp563
g78
(lp564
I0
aI0
aI0
aI0
aI0
aI0
aF0.067485965368714707
assg63
(dp565
g78
(lp566
I0
aI0
aI0
aI0
aI0
aI0
aF0.039187577512090385
assV[36\u6c2a]
p567
(dp568
g78
(lp569
I0
aI0
aI0
aI0
aI0
aI0
aF0.093394544408283361
assg392
(dp570
g78
(lp571
I0
aI0
aI0
aI0
aI0
aI0
aF0.05519514706526249
assg31
(dp572
g78
(lp573
I0
aI0
aI0
aI0
aI0
aI0
aF0.16520856409031789
assg69
(dp574
g78
(lp575
I0
aI0
aI0
aI0
aI0
aI0
aF0.034415945686968756
asssg45
(dp576
VQQ
p577
(dp578
g78
(lp579
I0
aI0
aI0
aI0
aI0
aI0
aF0.15398710223723974
assV[com.sec.android.app.capabilitymanager]
p580
(dp581
g78
(lp582
I0
aI0
aI0
aI0
aI0
aI0
aF0.058871897233633223
assV[TouchWiz \u4e3b\u9875]
p583
(dp584
g78
(lp585
I0
aI0
aI0
aI0
aI0
aI0
aF0.28942480953063415
assg41
(dp586
g78
(lp587
I0
aI0
aI0
aI0
aI0
aI0
aF0.084581754582370133
assg43
(dp588
g78
(lp589
I0
aI0
aI0
aI0
aI0
aI0
aF0.053492554909409663
assg35
(dp590
g78
(lp591
I0
aI0
aI0
aI0
aI0
aI0
aF0.010941166800899061
assg15
(dp592
g78
(lp593
I0
aI0
aI0
aI0
aI0
aI0
aF0.090468126816821773
assg59
(dp594
g78
(lp595
I0
aI0
aI0
aI0
aI0
aI0
aF0.21300105746465992
assg69
(dp596
g78
(lp597
I0
aI0
aI0
aI0
aI0
aI0
aF0.021924888394488536
assV[\u8c4c\u8c46\u835a]
p598
(dp599
g78
(lp600
I0
aI0
aI0
aI0
aI0
aI0
aF0.035155669387274296
assg17
(dp601
g78
(lp602
I0
aI0
aI0
aI0
aI0
aI0
aF0.10326637343787802
assV[36\u6c2a]
p603
(dp604
g78
(lp605
I0
aI0
aI0
aI0
aI0
aI0
aF0.0076191677448813134
assg63
(dp606
g78
(lp607
I0
aI0
aI0
aI0
aI0
aI0
aF0.053643768298467287
assg49
(dp608
g78
(lp609
I0
aI0
aI0
aI0
aI0
aI0
aF0.053473498282920189
assV[\u65e0\u79d8]
p610
(dp611
g78
(lp612
I0
aI0
aI0
aI0
aI0
aI0
aF0.044720291880800039
assg37
(dp613
g78
(lp614
I0
aI0
aI0
aI0
aI0
aI0
aF0.033711592688223969
assg67
(dp615
g78
(lp616
I0
aI0
aI0
aI0
aI0
aI0
aF0.10300860424360123
assg51
(dp617
g78
(lp618
I0
aI0
aI0
aI0
aI0
aI0
aF0.045369985132857241
assg53
(dp619
g78
(lp620
I0
aI0
aI0
aI0
aI0
aI0
aF0.030617422710037909
assg270
(dp621
g78
(lp622
I0
aI0
aI0
aI0
aI0
aI0
aF0.039334826723560361
assg392
(dp623
g78
(lp624
I0
aI0
aI0
aI0
aI0
aI0
aF0.050568350107384322
asssg47
(dp625
VQQ
p626
(dp627
g78
(lp628
I0
aI0
aI0
aI0
aI0
aI0
aF0.11793021953435753
assV[TouchWiz \u4e3b\u9875]
p629
(dp630
g78
(lp631
I0
aI0
aI0
aI0
aI0
aI0
aF0.19767642335448293
assg306
(dp632
g78
(lp633
I0
aI0
aI0
aI0
aI0
aI0
aF0.033293142450510627
assg35
(dp634
g78
(lp635
I0
aI0
aI0
aI0
aI0
aI0
aF0.051115085026773914
assV\u5fae\u4fe1
p636
(dp637
g78
(lp638
I0
aI0
aI0
aI0
aI0
aI0
aF0.13438844501048455
assV[KeyguardTestActivity]
p639
(dp640
g78
(lp641
I0
aI0
aI0
aI0
aI0
aI0
aF0.039039212385179954
assg63
(dp642
g78
(lp643
I0
aI0
aI0
aI0
aI0
aI0
aF0.072342627591388944
assV\u7f51\u6613\u65b0\u95fb
p644
(dp645
g78
(lp646
I0
aI0
aI0
aI0
aI0
aI0
aF0.038838648253986988
assg53
(dp647
g78
(lp648
I0
aI0
aI0
aI0
aI0
aI0
aF0.061653907705598983
asssg49
(dp649
g334
(dp650
g78
(lp651
I0
aI0
aI0
aI0
aI0
aI0
aF0.18411336068363171
assg101
(dp652
g78
(lp653
I0
aI0
aI0
aI0
aI0
aI0
aF0.039119494480369083
assV[TouchWiz \u4e3b\u9875]
p654
(dp655
g78
(lp656
I0
aI0
aI0
aI0
aI0
aI0
aF0.35768670205604147
assg41
(dp657
g78
(lp658
I0
aI0
aI0
aI0
aI0
aI0
aF0.081540530804956268
assg43
(dp659
g78
(lp660
I0
aI0
aI0
aI0
aI0
aI0
aF0.066096098625444091
assg35
(dp661
g78
(lp662
I0
aI0
aI0
aI0
aI0
aI0
aF0.11188571982175448
assV\u5fae\u4fe1
p663
(dp664
g78
(lp665
I0
aI0
aI0
aI0
aI0
aI0
aF0.28713833250771464
assg17
(dp666
g78
(lp667
I0
aI0
aI0
aI0
aI0
aI0
aF0.12341052876886115
assg282
(dp668
g78
(lp669
I0
aI0
aI0
aI0
aI0
aI0
aF0.12872472147790401
assg63
(dp670
g78
(lp671
I0
aI0
aI0
aI0
aI0
aI0
aF0.051037980929853642
assV[PopupuiReceiver]
p672
(dp673
g78
(lp674
I0
aI0
aI0
aI0
aI0
aI0
aF0.068505484769240135
assV[36\u6c2a]
p675
(dp676
g78
(lp677
I0
aI0
aI0
aI0
aI0
aI0
aF0.027693531581473897
assV[KeyguardTestActivity]
p678
(dp679
g78
(lp680
I0
aI0
aI0
aI0
aI0
aI0
aF0.038893796458814613
assV[\u65e0\u79d8]
p681
(dp682
g78
(lp683
I0
aI0
aI0
aI0
aI0
aI0
aF0.0405236212133308
assg67
(dp684
g78
(lp685
I0
aI0
aI0
aI0
aI0
aI0
aF0.047132219681782536
assV[\u997f\u4e86\u4e48]
p686
(dp687
g78
(lp688
I0
aI0
aI0
aI0
aI0
aI0
aF0.10395416844256888
assg53
(dp689
g78
(lp690
I0
aI0
aI0
aI0
aI0
aI0
aF0.092699174339901824
assg270
(dp691
g78
(lp692
I0
aI0
aI0
aI0
aI0
aI0
aF0.046759691009468349
assV\u652f\u4ed8\u5b9d\u94b1\u5305
p693
(dp694
g78
(lp695
I0
aI0
aI0
aI0
aI0
aI0
aF0.100205366147103
asssg51
(dp696
V[com.sec.android.app.capabilitymanager]
p697
(dp698
g78
(lp699
I0
aI0
aI0
aI0
aI0
aI0
aF0.087157205885204231
assg76
(dp700
g78
(lp701
I0
aI0
aI0
aI0
aI0
aI0
aF0.077684621837612503
assV[TouchWiz \u4e3b\u9875]
p702
(dp703
g78
(lp704
I0
aI0
aI0
aI0
aI0
aI0
aF0.18907318908648688
assg43
(dp705
g78
(lp706
I0
aI0
aI0
aI0
aI0
aI0
aF0.036215210905528025
assg49
(dp707
g78
(lp708
I0
aI0
aI0
aI0
aI0
aI0
aF0.080851091150941315
assg15
(dp709
g78
(lp710
I0
aI0
aI0
aI0
aI0
aI0
aF0.097138223700673224
assg89
(dp711
g78
(lp712
I0
aI0
aI0
aI0
aI0
aI0
aF0.17418176285531387
assg37
(dp713
g78
(lp714
I0
aI0
aI0
aI0
aI0
aI0
aF0.083588128557431002
assg98
(dp715
g78
(lp716
I0
aI0
aI0
aI0
aI0
aI0
aF0.047493049741661283
assV\u7f51\u6613\u4e91\u97f3\u4e50
p717
(dp718
g78
(lp719
I0
aI0
aI0
aI0
aI0
aI0
aF0.056682742418976931
assg19
(dp720
g78
(lp721
I0
aI0
aI0
aI0
aI0
aI0
aF0.020877547207016858
assg41
(dp722
g78
(lp723
I0
aI0
aI0
aI0
aI0
aI0
aF0.038737862120963154
assV[\u997f\u4e86\u4e48]
p724
(dp725
g78
(lp726
I0
aI0
aI0
aI0
aI0
aI0
aF0.13730156239296948
assg53
(dp727
g78
(lp728
I0
aI0
aI0
aI0
aI0
aI0
aF0.05773424523280403
assV[PopupuiReceiver]
p729
(dp730
g78
(lp731
I0
aI0
aI0
aI0
aI0
aI0
aF0.023938088059681329
asssg53
(dp732
VQQ
p733
(dp734
g78
(lp735
I0
aI0
aI0
aI0
aI0
aI0
aF0.13156616965315082
assV[TouchWiz \u4e3b\u9875]
p736
(dp737
g78
(lp738
I0
aI0
aI0
aI0
aI0
aI0
aF0.26166705307188132
assg41
(dp739
g78
(lp740
I0
aI0
aI0
aI0
aI0
aI0
aF0.054584678402340575
assg43
(dp741
g78
(lp742
I0
aI0
aI0
aI0
aI0
aI0
aF0.046456268770889805
assg35
(dp743
g78
(lp744
I0
aI0
aI0
aI0
aI0
aI0
aF0.097560406306734584
assg15
(dp745
g78
(lp746
I0
aI0
aI0
aI0
aI0
aI0
aF0.11008011269377425
assg636
(dp747
g78
(lp748
I0
aI0
aI0
aI0
aI0
aI0
aF0.18406129150128331
assg69
(dp749
g78
(lp750
I0
aI0
aI0
aI0
aI0
aI0
aF0.0048127502710458379
assg47
(dp751
g78
(lp752
I0
aI0
aI0
aI0
aI0
aI0
aF0.061110690881490952
assV[KeyguardTestActivity]
p753
(dp754
g78
(lp755
I0
aI0
aI0
aI0
aI0
aI0
aF0.039359636437562885
assg19
(dp756
g78
(lp757
I0
aI0
aI0
aI0
aI0
aI0
aF0.029032365747491694
assg206
(dp758
g78
(lp759
I0
aI0
aI0
aI0
aI0
aI0
aF0.05952351464143902
assg63
(dp760
g78
(lp761
I0
aI0
aI0
aI0
aI0
aI0
aF0.061667463450329862
assVWPS Office
p762
(dp763
g78
(lp764
I0
aI0
aI0
aI0
aI0
aI0
aF0.033135600852778203
assg49
(dp765
g78
(lp766
I0
aI0
aI0
aI0
aI0
aI0
aF0.073451067357238026
assg217
(dp767
g78
(lp768
I0
aI0
aI0
aI0
aI0
aI0
aF0.056034151269017236
assV[\u997f\u4e86\u4e48]
p769
(dp770
g78
(lp771
I0
aI0
aI0
aI0
aI0
aI0
aF0.055450486572203736
assV[PopupuiReceiver]
p772
(dp773
g78
(lp774
I0
aI0
aI0
aI0
aI0
aI0
aF0.043090981688906425
assV\u652f\u4ed8\u5b9d\u94b1\u5305
p775
(dp776
g78
(lp777
I0
aI0
aI0
aI0
aI0
aI0
aF0.038404401982548374
asssg55
(dp778
g515
(dp779
g78
(lp780
I0
aI0
aI0
aI0
aI0
aI0
aF0.061445726733197745
assV[TouchWiz \u4e3b\u9875]
p781
(dp782
g78
(lp783
I0
aI0
aI0
aI0
aI0
aI0
aF0.147961109369566
assg15
(dp784
g78
(lp785
I0
aI0
aI0
aI0
aI0
aI0
aF0.067664317541592231
assV\u5fae\u4fe1
p786
(dp787
g78
(lp788
I0
aI0
aI0
aI0
aI0
aI0
aF0.087389384679140383
assg535
(dp789
g78
(lp790
I0
aI0
aI0
aI0
aI0
aI0
aF0.060128853774983573
assg19
(dp791
g78
(lp792
I0
aI0
aI0
aI0
aI0
aI0
aF0.038626358250742204
assV[\u65e0\u79d8]
p793
(dp794
g78
(lp795
I0
aI0
aI0
aI0
aI0
aI0
aF0.047399187861234697
assg41
(dp796
g78
(lp797
I0
aI0
aI0
aI0
aI0
aI0
aF0.068219829478524785
asssg57
(dp798
V[com.sec.android.app.capabilitymanager]
p799
(dp800
g78
(lp801
I0
aI0
aI0
aI0
aI0
aI0
aF0.063130767848223898
assV[TouchWiz \u4e3b\u9875]
p802
(dp803
g78
(lp804
I0
aI0
aI0
aI0
aI0
aI0
aF0.79325168630639509
assg13
(dp805
g78
(lp806
I0
aI0
aI0
aI0
aI0
aI0
aF0.16917545756287117
assg15
(dp807
g78
(lp808
I0
aI0
aI0
aI0
aI0
aI0
aF0.25949814411998023
assV\u7f51\u6613\u65b0\u95fb
p809
(dp810
g78
(lp811
I0
aI0
aI0
aI0
aI0
aI0
aF0.17644101460380146
assg19
(dp812
g78
(lp813
I0
aI0
aI0
aI0
aI0
aI0
aF0.0038928767357585955
assV[\u70b9\u70b9]
p814
(dp815
g78
(lp816
I0
aI0
aI0
aI0
aI0
aI0
aF0.061091854367976088
assV[\u997f\u4e86\u4e48]
p817
(dp818
g78
(lp819
I0
aI0
aI0
aI0
aI0
aI0
aF0.039350691141641546
assg31
(dp820
g78
(lp821
I0
aI0
aI0
aI0
aI0
aI0
aF0.10628496471837147
assV[\u8c4c\u8c46\u835a]
p822
(dp823
g78
(lp824
I0
aI0
aI0
aI0
aI0
aI0
aF0.10457938673696479
assg35
(dp825
g78
(lp826
I0
aI0
aI0
aI0
aI0
aI0
aF0.18442284327271616
assg37
(dp827
g78
(lp828
I0
aI0
aI0
aI0
aI0
aI0
aF0.13619295204325374
assV[\u65e0\u79d8]
p829
(dp830
g78
(lp831
I0
aI0
aI0
aI0
aI0
aI0
aF0.10132575337194651
assg41
(dp832
g78
(lp833
I0
aI0
aI0
aI0
aI0
aI0
aF0.21115183781809255
assg43
(dp834
g78
(lp835
I0
aI0
aI0
aI0
aI0
aI0
aF0.18217092660594666
assg45
(dp836
g78
(lp837
I0
aI0
aI0
aI0
aI0
aI0
aF0.21070166129982096
assg47
(dp838
g78
(lp839
I0
aI0
aI0
aI0
aI0
aI0
aF0.10802648036772365
assg49
(dp840
g78
(lp841
I0
aI0
aI0
aI0
aI0
aI0
aF0.099805649655587789
assg51
(dp842
g78
(lp843
I0
aI0
aI0
aI0
aI0
aI0
aF0.063507342062413596
assg53
(dp844
g78
(lp845
I0
aI0
aI0
aI0
aI0
aI0
aF0.15076803468313904
assV[PopupuiReceiver]
p846
(dp847
g78
(lp848
I0
aI0
aI0
aI0
aI0
aI0
aF0.11889416904586141
assg59
(dp849
g78
(lp850
I0
aI0
aI0
aI0
aI0
aI0
aF0.53330576352352999
assV[KeyguardTestActivity]
p851
(dp852
g78
(lp853
I0
aI0
aI0
aI0
aI0
aI0
aF0.069152453605620931
assg63
(dp854
g78
(lp855
I0
aI0
aI0
aI0
aI0
aI0
aF0.17149017595046151
assV\u9177\u72d7\u97f3\u4e50
p856
(dp857
g78
(lp858
I0
aI0
aI0
aI0
aI0
aI0
aF0.13912431425404523
assg69
(dp859
g78
(lp860
I0
aI0
aI0
aI0
aI0
aI0
aF0.054788093457689438
asssg59
(dp861
V[com.sec.android.app.capabilitymanager]
p862
(dp863
g78
(lp864
I0
aI0
aI0
aI0
aI0
aI0
aF0.062008749135683626
assV[TouchWiz \u4e3b\u9875]
p865
(dp866
g78
(lp867
I0
aI0
aI0
aI0
aI0
aI0
aF0.9676692857024829
assg455
(dp868
g78
(lp869
I0
aI0
aI0
aI0
aI0
aI0
aF0.22420187445944689
assg15
(dp870
g78
(lp871
I0
aI0
aI0
aI0
aI0
aI0
aF0.30057421810156942
assg532
(dp872
g78
(lp873
I0
aI0
aI0
aI0
aI0
aI0
aF0.26574834892067223
assg19
(dp874
g78
(lp875
I0
aI0
aI0
aI0
aI0
aI0
aF0.078524346740461617
assV[\u70b9\u70b9]
p876
(dp877
g78
(lp878
I0
aI0
aI0
aI0
aI0
aI0
aF0.05842353479919931
assV[\u997f\u4e86\u4e48]
p879
(dp880
g78
(lp881
I0
aI0
aI0
aI0
aI0
aI0
aF0.19303768243692626
assVWPS Office
p882
(dp883
g78
(lp884
I0
aI0
aI0
aI0
aI0
aI0
aF0.062406796530954461
assV[\u8c4c\u8c46\u835a]
p885
(dp886
g78
(lp887
I0
aI0
aI0
aI0
aI0
aI0
aF0.075799920492356024
assg35
(dp888
g78
(lp889
I0
aI0
aI0
aI0
aI0
aI0
aF0.20812293139571023
assg37
(dp890
g78
(lp891
I0
aI0
aI0
aI0
aI0
aI0
aF0.111072032193927
assV[\u65e0\u79d8]
p892
(dp893
g78
(lp894
I0
aI0
aI0
aI0
aI0
aI0
aF0.095873679798508096
assg41
(dp895
g78
(lp896
I0
aI0
aI0
aI0
aI0
aI0
aF0.20687052537733816
assg43
(dp897
g78
(lp898
I0
aI0
aI0
aI0
aI0
aI0
aF0.10032492414997712
assV\u5fae\u535a
p899
(dp900
g78
(lp901
I0
aI0
aI0
aI0
aI0
aI0
aF0.28191612117583092
assg47
(dp902
g78
(lp903
I0
aI0
aI0
aI0
aI0
aI0
aF0.12043514618708462
assg49
(dp904
g78
(lp905
I0
aI0
aI0
aI0
aI0
aI0
aF0.21474453864590151
assg51
(dp906
g78
(lp907
I0
aI0
aI0
aI0
aI0
aI0
aF0.062392095782223975
assg53
(dp908
g78
(lp909
I0
aI0
aI0
aI0
aI0
aI0
aF0.21108759286633968
assV[PopupuiReceiver]
p910
(dp911
g78
(lp912
I0
aI0
aI0
aI0
aI0
aI0
aF0.1222697681009946
assVQQ
p913
(dp914
g78
(lp915
I0
aI0
aI0
aI0
aI0
aI0
aF0.50577917555937413
assV[KeyguardTestActivity]
p916
(dp917
g78
(lp918
I0
aI0
aI0
aI0
aI0
aI0
aF0.10065799308077031
assg63
(dp919
g78
(lp920
I0
aI0
aI0
aI0
aI0
aI0
aF0.21266751967356898
assg717
(dp921
g78
(lp922
I0
aI0
aI0
aI0
aI0
aI0
aF0.069960885717827451
assg856
(dp923
g78
(lp924
I0
aI0
aI0
aI0
aI0
aI0
aF0.11287664915522766
assg69
(dp925
g78
(lp926
I0
aI0
aI0
aI0
aI0
aI0
aF0.06543528329298462
asssg61
(dp927
VQQ
p928
(dp929
g78
(lp930
I0
aI0
aI0
aI0
aI0
aI0
aF0.11224224815639407
assV[TouchWiz \u4e3b\u9875]
p931
(dp932
g78
(lp933
I0
aI0
aI0
aI0
aI0
aI0
aF0.20364000805580804
assV[\u8c4c\u8c46\u835a]
p934
(dp935
g78
(lp936
I0
aI0
aI0
aI0
aI0
aI0
aF0.036937247798330186
assV\u652f\u4ed8\u5b9d\u94b1\u5305
p937
(dp938
g78
(lp939
I0
aI0
aI0
aI0
aI0
aI0
aF0.052114755715234204
assV\u5fae\u4fe1
p940
(dp941
g78
(lp942
I0
aI0
aI0
aI0
aI0
aI0
aF0.16766313865101204
assg63
(dp943
g78
(lp944
I0
aI0
aI0
aI0
aI0
aI0
aF0.051423524971676106
assg217
(dp945
g78
(lp946
I0
aI0
aI0
aI0
aI0
aI0
aF0.028405579705406032
assg899
(dp947
g78
(lp948
I0
aI0
aI0
aI0
aI0
aI0
aF0.073664390235030963
assg47
(dp949
g78
(lp950
I0
aI0
aI0
aI0
aI0
aI0
aF0.049450984710483946
assg49
(dp951
g78
(lp952
I0
aI0
aI0
aI0
aI0
aI0
aF0.050011849154215839
assg53
(dp953
g78
(lp954
I0
aI0
aI0
aI0
aI0
aI0
aF0.049124393513690481
assg35
(dp955
g78
(lp956
I0
aI0
aI0
aI0
aI0
aI0
aF0.036334576882039837
asssg63
(dp957
VQQ
p958
(dp959
g78
(lp960
I0
aI0
aI0
aI0
aI0
aI0
aF0.23801669477754031
assV[TouchWiz \u4e3b\u9875]
p961
(dp962
g78
(lp963
I0
aI0
aI0
aI0
aI0
aI0
aF0.49147508064396722
assg43
(dp964
g78
(lp965
I0
aI0
aI0
aI0
aI0
aI0
aF0.078703407728639943
assg35
(dp966
g78
(lp967
I0
aI0
aI0
aI0
aI0
aI0
aF0.18611312694468493
assV\u5fae\u4fe1
p968
(dp969
g78
(lp970
I0
aI0
aI0
aI0
aI0
aI0
aF0.31932040547381141
assg47
(dp971
g78
(lp972
I0
aI0
aI0
aI0
aI0
aI0
aF0.081113009425512139
assg17
(dp973
g78
(lp974
I0
aI0
aI0
aI0
aI0
aI0
aF0.068974978416895816
assg206
(dp975
g78
(lp976
I0
aI0
aI0
aI0
aI0
aI0
aF0.036824849612041043
assV[36\u6c2a]
p977
(dp978
g78
(lp979
I0
aI0
aI0
aI0
aI0
aI0
aF0.06772064421464509
assg49
(dp980
g78
(lp981
I0
aI0
aI0
aI0
aI0
aI0
aF0.065752973378002108
assV[KeyguardTestActivity]
p982
(dp983
g78
(lp984
I0
aI0
aI0
aI0
aI0
aI0
aF0.054563487683693956
assg53
(dp985
g78
(lp986
I0
aI0
aI0
aI0
aI0
aI0
aF0.080729208899445265
assg270
(dp987
g78
(lp988
I0
aI0
aI0
aI0
aI0
aI0
aF0.078549781795397566
assg455
(dp989
g78
(lp990
I0
aI0
aI0
aI0
aI0
aI0
aF0.080259978479632635
asssg65
(dp991
g76
(dp992
g78
(lp993
I0
aI0
aI0
aI0
aI0
aI0
aF0.034121729331249989
assV[TouchWiz \u4e3b\u9875]
p994
(dp995
g78
(lp996
I0
aI0
aI0
aI0
aI0
aI0
aF0.091032522934760995
assV\u5fae\u4fe1
p997
(dp998
g78
(lp999
I0
aI0
aI0
aI0
aI0
aI0
aF0.089195405090588681
assV[\u997f\u4e86\u4e48]
p1000
(dp1001
g78
(lp1002
I0
aI0
aI0
aI0
aI0
aI0
aF0.072049886040786618
assg98
(dp1003
g78
(lp1004
I0
aI0
aI0
aI0
aI0
aI0
aF0.035996789847254587
assg49
(dp1005
g78
(lp1006
I0
aI0
aI0
aI0
aI0
aI0
aF0.04412438752223298
assg41
(dp1007
g78
(lp1008
I0
aI0
aI0
aI0
aI0
aI0
aF0.020458437091244563
assg51
(dp1009
g78
(lp1010
I0
aI0
aI0
aI0
aI0
aI0
aF0.038185025916280917
assg53
(dp1011
g78
(lp1012
I0
aI0
aI0
aI0
aI0
aI0
aF0.034324419019516238
assV[PopupuiReceiver]
p1013
(dp1014
g78
(lp1015
I0
aI0
aI0
aI0
aI0
aI0
aF0.014373791299621755
asssg67
(dp1016
VQQ
p1017
(dp1018
g78
(lp1019
I0
aI0
aI0
aI0
aI0
aI0
aF0.13236424107490796
assV[TouchWiz \u4e3b\u9875]
p1020
(dp1021
g78
(lp1022
I0
aI0
aI0
aI0
aI0
aI0
aF0.21147441736884504
assV[\u8c4c\u8c46\u835a]
p1023
(dp1024
g78
(lp1025
I0
aI0
aI0
aI0
aI0
aI0
aF0.014600409572416678
assg43
(dp1026
g78
(lp1027
I0
aI0
aI0
aI0
aI0
aI0
aF0.058940025828821532
assg35
(dp1028
g78
(lp1029
I0
aI0
aI0
aI0
aI0
aI0
aF0.037922824660094084
assg663
(dp1030
g78
(lp1031
I0
aI0
aI0
aI0
aI0
aI0
aF0.14456129050472705
assV\u7f51\u6613\u65b0\u95fb
p1032
(dp1033
g78
(lp1034
I0
aI0
aI0
aI0
aI0
aI0
aF0.067338767696409604
assV\u5fae\u535a
p1035
(dp1036
g78
(lp1037
I0
aI0
aI0
aI0
aI0
aI0
aF0.11406209345896065
assg65
(dp1038
g78
(lp1039
I0
aI0
aI0
aI0
aI0
aI0
aF0.0099024795608910823
assg51
(dp1040
g78
(lp1041
I0
aI0
aI0
aI0
aI0
aI0
aF0.0020648097233513592
assVWPS Office
p1042
(dp1043
g78
(lp1044
I0
aI0
aI0
aI0
aI0
aI0
aF0.035842247975981012
assg69
(dp1045
g78
(lp1046
I0
aI0
aI0
aI0
aI0
aI0
aF0.036305232140645495
asssg69
(dp1047
VQQ
p1048
(dp1049
g78
(lp1050
I0
aI0
aI0
aI0
aI0
aI0
aF0.071461418648043465
assV[com.sec.android.app.capabilitymanager]
p1051
(dp1052
g78
(lp1053
I0
aI0
aI0
aI0
aI0
aI0
aF0.037870693472604147
assV[TouchWiz \u4e3b\u9875]
p1054
(dp1055
g78
(lp1056
I0
aI0
aI0
aI0
aI0
aI0
aF0.1035649245645316
assg43
(dp1057
g78
(lp1058
I0
aI0
aI0
aI0
aI0
aI0
aF0.07342161023875185
assg483
(dp1059
g78
(lp1060
I0
aI0
aI0
aI0
aI0
aI0
aF0.051006437950208885
assg37
(dp1061
g78
(lp1062
I0
aI0
aI0
aI0
aI0
aI0
aF0.080575599026374914
assV[\u65e0\u79d8]
p1063
(dp1064
g78
(lp1065
I0
aI0
aI0
aI0
aI0
aI0
aF0.039078951657171429
assg51
(dp1066
g78
(lp1067
I0
aI0
aI0
aI0
aI0
aI0
aF0.03811800428973653
assg53
(dp1068
g78
(lp1069
I0
aI0
aI0
aI0
aI0
aI0
aF0.021550840258448556
assg1042
(dp1070
g78
(lp1071
I0
aI0
aI0
aI0
aI0
aI0
aF0.038979372920333141
assssS'edge'
p1072
g74
sS'pred'
p1073
(dp1074
g8
(dp1075
VQQ
p1076
g800
sV[TouchWiz \u4e3b\u9875]
p1077
g117
sV[\u8c4c\u8c46\u835a]
p1078
g399
sg15
g227
sV\u5fae\u4fe1
p1079
g863
sg37
g473
sV\u7f51\u6613\u65b0\u95fb
p1080
g257
sV\u5fae\u535a
p1081
g581
sV[\u65e0\u79d8]
p1082
g491
sg41
g519
sg51
g698
sg69
g1052
ssg11
(dp1083
V[com.sec.android.app.capabilitymanager]
p1084
g81
sg13
g192
sg15
g233
sg17
g260
sV[36\u6c2a]
p1085
g314
sg23
g321
sV[S \u5907\u5fd8\u5f55]
p1086
g338
sV[\u997f\u4e86\u4e48]
p1087
g348
sg31
g375
sV[\u8c4c\u8c46\u835a]
p1088
g404
sg35
g435
sg37
g479
sV[\u65e0\u79d8]
p1089
g494
sg41
g522
sg43
g554
sg45
g584
sg47
g630
sg49
g655
sg51
g703
sg53
g737
sV[PopupuiReceiver]
p1090
g782
sg57
g803
sg59
g866
sV[KeyguardTestActivity]
p1091
g932
sg63
g962
sg717
g995
sg67
g1021
sg69
g1055
ssg13
(dp1092
VQQ
p1093
g805
sV[TouchWiz \u4e3b\u9875]
p1094
g119
sg43
g570
sg35
g456
sV\u5fae\u4fe1
p1095
g868
sV[KeyguardTestActivity]
p1096
g938
sV\u5fae\u535a
p1097
g623
sg63
g989
sg49
g694
sV\u7f51\u6613\u65b0\u95fb
p1098
g263
sg53
g776
sg882
g393
ssg15
(dp1099
g1076
g807
sV[com.sec.android.app.capabilitymanager]
p1100
g87
sV[TouchWiz \u4e3b\u9875]
p1101
g121
sV[\u8c4c\u8c46\u835a]
p1102
g408
sg15
g239
sg1079
g870
sV\u7f51\u6613\u65b0\u95fb
p1103
g265
sV\u5fae\u535a
p1104
g592
sg41
g527
sg51
g709
sg53
g745
sV[PopupuiReceiver]
p1105
g784
ssg17
(dp1106
V[com.sec.android.app.capabilitymanager]
p1107
g99
sV[TouchWiz \u4e3b\u9875]
p1108
g123
sg455
g218
sg15
g244
sg130
g327
sV[\u997f\u4e86\u4e48]
p1109
g353
sg270
g385
sV[\u8c4c\u8c46\u835a]
p1110
g416
sg35
g446
sg41
g533
sg43
g563
sV\u5fae\u535a
p1111
g601
sg47
g645
sg49
g666
sg51
g715
sg53
g767
sg296
g810
sV\u5fae\u4fe1
p1112
g872
sV[KeyguardTestActivity]
p1113
g945
sg63
g973
sg101
g1003
sV\u9177\u72d7\u97f3\u4e50
p1114
g1033
ssg19
(dp1115
g1076
g812
sV[com.sec.android.app.capabilitymanager]
p1116
g104
sV[TouchWiz \u4e3b\u9875]
p1117
g125
sV[\u8c4c\u8c46\u835a]
p1118
g420
sg15
g246
sg1079
g874
sg41
g538
sg51
g720
sg53
g756
sV[PopupuiReceiver]
p1119
g791
ssg21
(dp1120
V[TouchWiz \u4e3b\u9875]
p1121
g128
sg43
g568
sg35
g453
sg17
g268
sg1111
g604
sg63
g978
sg49
g676
sg270
g390
ssg23
(dp1122
V[TouchWiz \u4e3b\u9875]
p1123
g131
ssg25
(dp1124
V[TouchWiz \u4e3b\u9875]
p1125
g134
sg35
g459
ssg27
(dp1126
V[com.sec.android.app.capabilitymanager]
p1127
g93
sg76
g818
sV[TouchWiz \u4e3b\u9875]
p1128
g137
sV[\u8c4c\u8c46\u835a]
p1129
g413
sg350
g880
sg101
g1001
sg49
g687
sg51
g725
sg53
g770
ssg29
(dp1130
VQQ
p1131
g815
sV\u5fae\u4fe1
p1132
g877
sV[TouchWiz \u4e3b\u9875]
p1133
g140
ssg31
(dp1134
g57
g820
sV[TouchWiz \u4e3b\u9875]
p1135
g142
sg43
g572
sg35
g467
sV\u5fae\u4fe1
p1136
g883
sg17
g271
sV[\u65e0\u79d8]
p1137
g512
sg1111
g621
sg63
g987
sg49
g691
sV\u652f\u4ed8\u5b9d\u94b1\u5305
p1138
g210
sV\u9177\u72d7\u97f3\u4e50
p1139
g1043
sg53
g763
sg69
g1070
ssg33
(dp1140
g1076
g823
sV[TouchWiz \u4e3b\u9875]
p1141
g145
sV\u9177\u72d7\u97f3\u4e50
p1142
g1024
sg15
g236
sg1079
g886
sV\u7f51\u6613\u65b0\u95fb
p1143
g274
sg1104
g599
sV[KeyguardTestActivity]
p1144
g935
sg41
g525
ssg35
(dp1145
VQQ
p1146
g825
sV[TouchWiz \u4e3b\u9875]
p1147
g147
sg43
g556
sg1138
g198
sV\u5fae\u4fe1
p1148
g888
sg47
g634
sg17
g276
sg1111
g590
sg63
g966
sg49
g661
sV[KeyguardTestActivity]
p1149
g955
sV[\u65e0\u79d8]
p1150
g498
sg1139
g1028
sg53
g743
sg270
g379
ssg37
(dp1151
VQQ
p1152
g827
sV[com.sec.android.app.capabilitymanager]
p1153
g96
sV[TouchWiz \u4e3b\u9875]
p1154
g149
sg43
g561
sV\u5fae\u4fe1
p1155
g890
sV\u5fae\u535a
p1156
g613
sV[\u65e0\u79d8]
p1157
g503
sg51
g713
sg69
g1061
ssg39
(dp1158
VQQ
p1159
g830
sV[TouchWiz \u4e3b\u9875]
p1160
g152
sV\u652f\u4ed8\u5b9d\u94b1\u5305
p1161
g215
sV\u5fae\u4fe1
p1162
g893
sg535
g611
sg49
g682
sg41
g541
sV[PopupuiReceiver]
p1163
g794
sg69
g1064
ssg41
(dp1164
VQQ
p1165
g832
sV[com.sec.android.app.capabilitymanager]
p1166
g106
sV[TouchWiz \u4e3b\u9875]
p1167
g154
sV[\u8c4c\u8c46\u835a]
p1168
g422
sg1161
g194
sg15
g248
sg1112
g895
sV[\u997f\u4e86\u4e48]
p1169
g359
sV\u7f51\u6613\u65b0\u95fb
p1170
g278
sV\u5fae\u535a
p1171
g586
sg101
g1007
sg49
g657
sg51
g722
sg53
g739
sV[PopupuiReceiver]
p1172
g796
ssg43
(dp1173
g57
g834
sV[com.sec.android.app.capabilitymanager]
p1174
g83
sV[TouchWiz \u4e3b\u9875]
p1175
g156
sg35
g437
sg1136
g897
sg37
g481
sg17
g280
sV[\u65e0\u79d8]
p1176
g496
sg1111
g588
sg63
g964
sg49
g659
sg1138
g196
sV[S \u5907\u5fd8\u5f55]
p1177
g340
sg1139
g1026
sg51
g705
sg53
g741
sg31
g377
sg69
g1057
ssg45
(dp1178
VQQ
p1179
g836
sV[TouchWiz \u4e3b\u9875]
p1180
g158
sg67
g1036
sg35
g448
sg940
g900
sV[KeyguardTestActivity]
p1181
g947
sg63
g975
sg49
g668
sV[\u65e0\u79d8]
p1182
g506
sg41
g536
sV\u7f51\u6613\u65b0\u95fb
p1183
g283
sg53
g758
sV[PopupuiReceiver]
p1184
g789
sg455
g207
ssg47
(dp1185
VQQ
p1186
g838
sV[TouchWiz \u4e3b\u9875]
p1187
g160
sg35
g444
sV\u5fae\u4fe1
p1188
g902
sV[KeyguardTestActivity]
p1189
g949
sg63
g971
sV\u7f51\u6613\u65b0\u95fb
p1190
g285
sg53
g751
ssg49
(dp1191
VQQ
p1192
g840
sV[com.sec.android.app.capabilitymanager]
p1193
g85
sV[TouchWiz \u4e3b\u9875]
p1194
g162
sV[\u8c4c\u8c46\u835a]
p1195
g406
sg35
g439
sg1148
g904
sV[\u997f\u4e86\u4e48]
p1196
g357
sg1183
g287
sg1111
g608
sg63
g980
sg101
g1005
sV[\u65e0\u79d8]
p1197
g508
sV[S \u5907\u5fd8\u5f55]
p1198
g342
sV[KeyguardTestActivity]
p1199
g951
sg51
g707
sg53
g765
sg455
g212
ssg51
(dp1200
g1076
g842
sV[com.sec.android.app.capabilitymanager]
p1201
g108
sV[TouchWiz \u4e3b\u9875]
p1202
g164
sV[\u8c4c\u8c46\u835a]
p1203
g424
sg1142
g1040
sg1079
g906
sg1143
g289
sg1081
g617
sg65
g1009
sV[\u65e0\u79d8]
p1204
g510
sg41
g543
sg69
g1066
ssg53
(dp1205
g1186
g844
sV[com.sec.android.app.capabilitymanager]
p1206
g110
sV[TouchWiz \u4e3b\u9875]
p1207
g166
sV[\u8c4c\u8c46\u835a]
p1208
g426
sg35
g464
sg15
g250
sg1148
g908
sg69
g1068
sg47
g647
sV[KeyguardTestActivity]
p1209
g953
sg1103
g291
sV[\u997f\u4e86\u4e48]
p1210
g361
sg1104
g619
sg63
g985
sg101
g1011
sg49
g689
sg130
g329
sg41
g545
sg51
g727
sg455
g220
ssg55
(dp1211
g1159
g847
sV[com.sec.android.app.capabilitymanager]
p1212
g113
sV[TouchWiz \u4e3b\u9875]
p1213
g169
sV[\u8c4c\u8c46\u835a]
p1214
g429
sg1161
g223
sg15
g253
sg1162
g911
sV[\u997f\u4e86\u4e48]
p1215
g364
sg98
g294
sg101
g1014
sg49
g673
sg41
g548
sg51
g730
sg53
g773
ssg57
(dp1216
V[com.sec.android.app.capabilitymanager]
p1217
g77
sV[TouchWiz \u4e3b\u9875]
p1218
g172
sg455
g189
sg15
g230
sg1183
g297
sg23
g318
sV[S \u5907\u5fd8\u5f55]
p1219
g335
sV[\u997f\u4e86\u4e48]
p1220
g345
sV[\u70b9\u70b9]
p1221
g368
sg31
g372
sV[\u8c4c\u8c46\u835a]
p1222
g401
sg35
g432
sg37
g476
sV[\u65e0\u79d8]
p1223
g488
sg41
g516
sg43
g551
sg282
g578
sg47
g627
sg49
g650
sg51
g700
sg53
g734
sV[PopupuiReceiver]
p1224
g779
sg59
g914
sV[KeyguardTestActivity]
p1225
g929
sg63
g959
sg101
g992
sg67
g1018
sg69
g1049
ssg59
(dp1226
V[com.sec.android.app.capabilitymanager]
p1227
g90
sV[TouchWiz \u4e3b\u9875]
p1228
g174
sg455
g201
sg15
g241
sg532
g300
sg23
g324
sV[\u997f\u4e86\u4e48]
p1229
g351
sg882
g382
sV[\u8c4c\u8c46\u835a]
p1230
g410
sg35
g442
sg37
g484
sV[\u65e0\u79d8]
p1231
g501
sg41
g530
sg43
g558
sV\u5fae\u535a
p1232
g594
sg47
g637
sg49
g664
sg51
g711
sg53
g747
sV[PopupuiReceiver]
p1233
g787
sVQQ
p1234
g849
sV[KeyguardTestActivity]
p1235
g941
sg63
g969
sg101
g998
sg67
g1030
sg69
g1059
ssg61
(dp1236
g1093
g852
sV[TouchWiz \u4e3b\u9875]
p1237
g177
sg13
g204
sg1188
g917
sg47
g640
sg63
g983
sg49
g679
sg53
g754
sg35
g462
ssg63
(dp1238
g958
g854
sV[TouchWiz \u4e3b\u9875]
p1239
g179
sg43
g565
sg35
g450
sg968
g919
sg17
g302
sg1111
g606
sg47
g642
sg49
g670
sV[KeyguardTestActivity]
p1240
g943
sg53
g760
sg270
g387
ssg65
(dp1241
V[com.sec.android.app.capabilitymanager]
p1242
g102
sV[TouchWiz \u4e3b\u9875]
p1243
g181
sV[\u8c4c\u8c46\u835a]
p1244
g418
sV\u5fae\u4fe1
p1245
g921
sV[\u997f\u4e86\u4e48]
p1246
g355
sg1143
g304
sg49
g652
sg1142
g1038
sg51
g718
ssg67
(dp1247
g1017
g857
sV[TouchWiz \u4e3b\u9875]
p1248
g183
sg663
g923
sg1190
g307
sV\u5fae\u535a
p1249
g615
sg47
g632
sg49
g684
ssg69
(dp1250
VQQ
p1251
g859
sV[TouchWiz \u4e3b\u9875]
p1252
g185
sg43
g574
sg35
g469
sg1155
g925
sg326
g309
sg1156
g596
sg130
g331
sg1139
g1045
sg53
g749
sg1042
g395
sssS'adj'
p1253
g74
sb.