ccopy_reg
_reconstructor
p1
(cnetworkx.classes.graph
Graph
p2
c__builtin__
object
p3
NtRp4
(dp5
S'node'
p6
(dp7
VCalculator.apk
p8
(dp9
sV\u7f8e\u56e2\u56e2\u8d2d
p10
(dp11
sVTaskManager.apk
p12
(dp13
sV[360\u514d\u8d39WiFi]
p14
(dp15
sVSoundRecorder.apk
p16
(dp17
sV\u66b4\u98ce\u5f71\u97f3
p18
(dp19
sV[Sina Weather Widget Main]
p20
(dp21
sV[Samsung Apps]
p22
(dp23
sVQQ\u6d4f\u89c8\u5668
p24
(dp25
sV[360\u624b\u673a\u52a9\u624b]
p26
(dp27
sVContacts.apk
p28
(dp29
sVFileManager.apk
p30
(dp31
sV[WeSync]
p32
(dp33
sV\u5fae\u535a
p34
(dp35
sVClock.apk
p36
(dp37
sVMms.apk
p38
(dp39
sV[Sensor Log]
p40
(dp41
sV\u4e2d\u56fd\u5efa\u8bbe\u94f6\u884c
p42
(dp43
sVPhone.apk
p44
(dp45
sV[S Planner]
p46
(dp47
sV[Music Hub]
p48
(dp49
sV\u5fae\u4fe1
p50
(dp51
sV360\u624b\u673a\u536b\u58eb
p52
(dp53
sVQQ\u56fd\u9645\u7248
p54
(dp55
sVCamera.apk
p56
(dp57
sVEmail.apk
p58
(dp59
sVSettings.apk
p60
(dp61
ssS'graph'
p62
(dp63
sS'edge'
p64
(dp65
g8
(dp66
V[Samsung Apps]
p67
(dp68
S'weights'
p69
(lp70
I0
aI0
aI0
aI0
aI0
aI0
aI1
assV[360\u624b\u673a\u52a9\u624b]
p71
(dp72
g69
(lp73
I0
aI0
aI0
aI0
aI0
aI0
aI1
asssg10
(dp74
g50
(dp75
g69
(lp76
I0
aI0
aI0
aI0
aI0
aI0
aI1
asssg12
(dp77
g54
(dp78
g69
(lp79
I0
aI0
aI0
aI0
aI0
aI0
aI1
assg44
(dp80
g69
(lp81
I0
aI0
aI0
aI0
aI0
aI0
aI2
assg38
(dp82
g69
(lp83
I0
aI0
aI0
aI0
aI0
aI0
aI1
assg50
(dp84
g69
(lp85
I0
aI0
aI0
aI0
aI0
aI0
aI1
asssg14
(dp86
g34
(dp87
g69
(lp88
I0
aI0
aI0
aI0
aI0
aI0
aI1
assV[360\u624b\u673a\u52a9\u624b]
p89
(dp90
g69
(lp91
I0
aI0
aI0
aI0
aI0
aI0
aI1
asssg16
(dp92
g50
(dp93
g69
(lp94
I0
aI0
aI0
aI0
aI0
aI0
aI1
assV[WeSync]
p95
(dp96
g69
(lp97
I0
aI0
aI0
aI0
aI0
aI0
aI1
assg54
(dp98
g69
(lp99
I0
aI0
aI0
aI0
aI0
aI0
aI1
assg34
(dp100
g69
(lp101
I0
aI0
aI0
aI0
aI0
aI0
aI1
assg38
(dp102
g69
(lp103
I0
aI0
aI0
aI0
aI0
aI0
aI1
assV[Sensor Log]
p104
(dp105
g69
(lp106
I0
aI0
aI0
aI0
aI0
aI0
aI1
assg44
(dp107
g69
(lp108
I0
aI0
aI0
aI0
aI0
aI0
aI1
asssg18
(dp109
g50
(dp110
g69
(lp111
I0
aI0
aI0
aI0
aI0
aI0
aI1
assg44
(dp112
g69
(lp113
I0
aI0
aI0
aI0
aI0
aI0
aI2
assg60
(dp114
g69
(lp115
I0
aI0
aI0
aI0
aI0
aI0
aI1
asssg20
(dp116
g54
(dp117
g69
(lp118
I0
aI0
aI0
aI0
aI0
aI0
aI2
assg44
(dp119
g69
(lp120
I0
aI0
aI0
aI0
aI0
aI0
aI1
assg38
(dp121
g69
(lp122
I0
aI0
aI0
aI0
aI0
aI0
aI2
assg28
(dp123
g69
(lp124
I0
aI0
aI0
aI0
aI0
aI0
aI1
asssg22
(dp125
V[360\u624b\u673a\u52a9\u624b]
p126
(dp127
g69
(lp128
I0
aI0
aI0
aI0
aI0
aI0
aI1
assg8
g68
ssg24
(dp129
g54
(dp130
g69
(lp131
I0
aI0
aI0
aI0
aI0
aI0
aI1
assg30
(dp132
g69
(lp133
I0
aI0
aI0
aI0
aI0
aI0
aI7
assg44
(dp134
g69
(lp135
I0
aI0
aI0
aI0
aI0
aI0
aI3
assg38
(dp136
g69
(lp137
I0
aI0
aI0
aI0
aI0
aI0
aI1
assg28
(dp138
g69
(lp139
I0
aI0
aI0
aI0
aI0
aI0
aI1
asssg26
(dp140
V[Music Hub]
p141
(dp142
g69
(lp143
I0
aI0
aI0
aI0
aI0
aI0
aI1
assg30
(dp144
g69
(lp145
I0
aI0
aI0
aI0
aI0
aI0
aI1
assV[360\u514d\u8d39WiFi]
p146
g90
sg50
(dp147
g69
(lp148
I0
aI0
aI0
aI0
aI0
aI0
aI2
assg34
(dp149
g69
(lp150
I0
aI0
aI0
aI0
aI0
aI0
aI1
assg54
(dp151
g69
(lp152
I0
aI0
aI0
aI0
aI0
aI0
aI1
assV[Samsung Apps]
p153
g127
sg8
g72
sV[Sensor Log]
p154
(dp155
g69
(lp156
I0
aI0
aI0
aI0
aI0
aI0
aI1
asssg28
(dp157
g30
(dp158
g69
(lp159
I0
aI0
aI0
aI0
aI0
aI0
aI1
assg50
(dp160
g69
(lp161
I0
aI0
aI0
aI0
aI0
aI0
aI3
assV[Sina Weather Widget Main]
p162
g123
sg54
(dp163
g69
(lp164
I0
aI0
aI0
aI0
aI0
aI0
aI2
assg24
g138
sg44
(dp165
g69
(lp166
I0
aI0
aI0
aI0
aI0
aI0
aI6
asssg30
(dp167
g50
(dp168
g69
(lp169
I0
aI0
aI0
aI0
aI0
aI0
aI1
assg44
(dp170
g69
(lp171
I0
aI0
aI0
aI0
aI0
aI0
aI3
assg56
(dp172
g69
(lp173
I0
aI0
aI0
aI0
aI0
aI0
aI1
assg24
g132
sg38
(dp174
g69
(lp175
I0
aI0
aI0
aI0
aI0
aI0
aI1
assV[360\u624b\u673a\u52a9\u624b]
p176
g144
sg28
g158
ssg32
(dp177
g16
g96
sg50
(dp178
g69
(lp179
I0
aI0
aI0
aI0
aI0
aI0
aI1
assg54
(dp180
g69
(lp181
I0
aI0
aI0
aI0
aI0
aI0
aI1
assg34
(dp182
g69
(lp183
I0
aI0
aI0
aI0
aI0
aI0
aI1
assg38
(dp184
g69
(lp185
I0
aI0
aI0
aI0
aI0
aI0
aI1
assV[Sensor Log]
p186
(dp187
g69
(lp188
I0
aI0
aI0
aI0
aI0
aI0
aI1
assg44
(dp189
g69
(lp190
I0
aI0
aI0
aI0
aI0
aI0
aI1
asssg34
(dp191
g16
g100
sV[360\u514d\u8d39WiFi]
p192
g87
sg50
(dp193
g69
(lp194
I0
aI0
aI0
aI0
aI0
aI0
aI1
assV[WeSync]
p195
g182
sg54
(dp196
g69
(lp197
I0
aI0
aI0
aI0
aI0
aI0
aI1
assg38
(dp198
g69
(lp199
I0
aI0
aI0
aI0
aI0
aI0
aI1
assV[Sensor Log]
p200
(dp201
g69
(lp202
I0
aI0
aI0
aI0
aI0
aI0
aI1
assg44
(dp203
g69
(lp204
I0
aI0
aI0
aI0
aI0
aI0
aI1
assV[360\u624b\u673a\u52a9\u624b]
p205
g149
ssg36
(dp206
g50
(dp207
g69
(lp208
I0
aI0
aI0
aI0
aI0
aI0
aI3
assg42
(dp209
g69
(lp210
I0
aI0
aI0
aI0
aI0
aI0
aI1
assg44
(dp211
g69
(lp212
I0
aI0
aI0
aI0
aI0
aI0
aI2
assg38
(dp213
g69
(lp214
I0
aI0
aI0
aI0
aI0
aI0
aI2
assg54
(dp215
g69
(lp216
I0
aI0
aI0
aI0
aI0
aI0
aI2
asssg38
(dp217
g12
g82
sg30
g174
sg50
(dp218
g69
(lp219
I0
aI0
aI0
aI0
aI0
aI0
aI2
assV[Sina Weather Widget Main]
p220
g121
sg56
(dp221
g69
(lp222
I0
aI0
aI0
aI0
aI0
aI0
aI1
assV[WeSync]
p223
g184
sg54
(dp224
g69
(lp225
I0
aI0
aI0
aI0
aI0
aI0
aI8
assg34
g198
sg36
g213
sg24
g136
sg16
g102
sV[Sensor Log]
p226
(dp227
g69
(lp228
I0
aI0
aI0
aI0
aI0
aI0
aI1
assg44
(dp229
g69
(lp230
I0
aI0
aI0
aI0
aI0
aI0
aI11
asssg40
(dp231
g38
g227
sg50
(dp232
g69
(lp233
I0
aI0
aI0
aI0
aI0
aI0
aI1
assV[360\u624b\u673a\u52a9\u624b]
p234
g155
sg54
(dp235
g69
(lp236
I0
aI0
aI0
aI0
aI0
aI0
aI1
assg34
g201
sg16
g105
sV[WeSync]
p237
g187
sg44
(dp238
g69
(lp239
I0
aI0
aI0
aI0
aI0
aI0
aI1
asssg42
(dp240
g36
g209
ssg44
(dp241
g18
g112
sg12
g80
sg30
g170
sg16
g107
sg50
(dp242
g69
(lp243
I0
aI0
aI0
aI0
aI0
aI0
aI6
assV[Sina Weather Widget Main]
p244
g119
sg56
(dp245
g69
(lp246
I0
aI0
aI0
aI0
aI0
aI0
aI1
assV[WeSync]
p247
g189
sg54
(dp248
g69
(lp249
I0
aI0
aI0
aI0
aI0
aI0
aI9
assg34
g203
sg36
g211
sg24
g134
sg38
g229
sV[Sensor Log]
p250
g238
sg60
(dp251
g69
(lp252
I0
aI0
aI0
aI0
aI0
aI0
aI1
assg28
g165
ssg46
(dp253
sg48
(dp254
g50
(dp255
g69
(lp256
I0
aI0
aI0
aI0
aI0
aI0
aI1
assV[360\u624b\u673a\u52a9\u624b]
p257
g142
ssg50
(dp258
V[Music Hub]
p259
g255
sV\u66b4\u98ce\u5f71\u97f3
p260
g110
sg30
g168
sg16
g93
sg10
g75
sg12
g84
sV[WeSync]
p261
g178
sg54
(dp262
g69
(lp263
I0
aI0
aI0
aI0
aI0
aI0
aI5
assg34
g193
sg36
g207
sg38
g218
sg56
(dp264
g69
(lp265
I0
aI0
aI0
aI0
aI0
aI0
aI1
assV[Sensor Log]
p266
g232
sg58
(dp267
g69
(lp268
I0
aI0
aI0
aI0
aI0
aI0
aI1
assg60
(dp269
g69
(lp270
I0
aI0
aI0
aI0
aI0
aI0
aI2
assg44
g242
sV[360\u624b\u673a\u52a9\u624b]
p271
g147
sg28
g160
ssg52
(dp272
sg54
(dp273
g16
g98
sg50
g262
sV[Sina Weather Widget Main]
p274
g117
sg12
g78
sg36
g215
sV[WeSync]
p275
g180
sV[360\u624b\u673a\u52a9\u624b]
p276
g151
sg34
g196
sg56
(dp277
g69
(lp278
I0
aI0
aI0
aI0
aI0
aI0
aI1
assg24
g130
sg38
g224
sV[Sensor Log]
p279
g235
sg28
g163
sg44
g248
sg60
(dp280
g69
(lp281
I0
aI0
aI0
aI0
aI0
aI0
aI1
asssg56
(dp282
g54
g277
sg30
g172
sg44
g245
sg38
g221
sg50
g264
ssg58
(dp283
g50
g267
ssg60
(dp284
g54
g280
sg260
g114
sg44
g251
sg50
g269
sssS'adj'
p285
g65
sb.